; Listing generated by Microsoft (R) Optimizing Compiler Version 19.27.29112.0 

include listing.inc

INCLUDELIB MSVCRTD
INCLUDELIB OLDNAMES

msvcjmc	SEGMENT
__367CC694_corecrt_memcpy_s@h DB 01H
__F66CEB67_corecrt_stdio_config@h DB 01H
__5467428D_corecrt_wconio@h DB 01H
__4442441F_corecrt_wio@h DB 01H
__101834BA_corecrt_wstdio@h DB 01H
__DC9673E3_corecrt_wstring@h DB 01H
__45F4AF76_corecrt_wtime@h DB 01H
__186FF47F_stat@h DB 01H
__534C724A_wchar@h DB 01H
__62A468D7_tchar@h DB 01H
__FC8B975D_vcruntime_new@h DB 01H
__AD6A91B7_stdio@h DB 01H
__09340588_corecrt_math@h DB 01H
__24E9E95F_stdlib@h DB 01H
__51019776_cstdlib DB 01H
__5E219BC0_limits DB 01H
__B236D4B0_type_traits DB 01H
__B0C4CEA9_malloc@h DB 01H
__18D87206_vcruntime_exception@h DB 01H
__1302BCB8_exception DB 01H
__35D7DDB3_corecrt_memory@h DB 01H
__A29A7DFB_string@h DB 01H
__36E77527_xutility DB 01H
__0C99713E_xmemory DB 01H
__784AF7A2_xstring DB 01H
__7242C389_ctype@h DB 01H
__965C11D2_string DB 01H
__8AA3BE86_time@h DB 01H
__9A4C86E5_stdexcept DB 01H
__238A5427_xcall_once@h DB 01H
__3514C702_atomic DB 01H
__9CD74607_system_error DB 01H
__7B3ADE64_vcruntime_typeinfo@h DB 01H
__4638863E_typeinfo DB 01H
__E28F974E_memory DB 01H
__CECAC041_xfacet DB 01H
__59B165F6_xlocinfo DB 01H
__A7748393_xlocale DB 01H
__605412E5_xiosbase DB 01H
__8B7874EF_xlocmes DB 01H
__102707BA_cmath DB 01H
__39F3E584_xlocnum DB 01H
__1291F0BC_xlocmon DB 01H
__FDACCCE4_xloctime DB 01H
__D3011E72_ios DB 01H
__21FC1C84_fstream DB 01H
__7CEFA1A0_LT@h DB 01H
__4B315192_IT@h DB 01H
__BE522193_DP@h DB 01H
__20961129_GRB@h DB 01H
__22E0C0CC_MFST@h DB 01H
__7C949E14_ratio DB 01H
__3ACC9D4A_chrono DB 01H
__F3AAEC4C_course_project@cpp DB 01H
__1C3F1DC9_deque DB 01H
__D7B46C6D_istream DB 01H
__B4645957_ostream DB 01H
__496265E3_locale DB 01H
__98EC3E59_streambuf DB 01H
__274BC267_iterator DB 01H
__92C84E46_iosfwd DB 01H
__660C12FD_utility DB 01H
__911385EF_xstddef DB 01H
__190E306E_xatomic@h DB 01H
msvcjmc	ENDS
CONST	SEGMENT
?INITLOG@Log@@3ULOG@1@B DB 00H, 00H			; Log::INITLOG
	ORG $+598
	DQ	0000000000000000H
CONST	ENDS
PUBLIC	?__empty_global_delete@@YAXPEAX@Z		; __empty_global_delete
PUBLIC	?__empty_global_delete@@YAXPEAX_K@Z		; __empty_global_delete
PUBLIC	wmemcpy
PUBLIC	?_Adjust_manually_vector_aligned@std@@YAXAEAPEAXAEA_K@Z ; std::_Adjust_manually_vector_aligned
PUBLIC	?_Orphan_all@_Container_base12@std@@QEAAXXZ	; std::_Container_base12::_Orphan_all
PUBLIC	?length@?$_Narrow_char_traits@DH@std@@SA_KQEBD@Z ; std::_Narrow_char_traits<char,int>::length
PUBLIC	?eq_int_type@?$_Narrow_char_traits@DH@std@@SA_NAEBH0@Z ; std::_Narrow_char_traits<char,int>::eq_int_type
PUBLIC	?eof@?$_Narrow_char_traits@DH@std@@SAHXZ	; std::_Narrow_char_traits<char,int>::eof
PUBLIC	??$_Maklocstr@_W@std@@YAPEA_WPEBDPEA_WAEBU_Cvtvec@@@Z ; std::_Maklocstr<wchar_t>
PUBLIC	?_Maklocwcs@std@@YAPEA_WPEB_W@Z			; std::_Maklocwcs
PUBLIC	??$_Maklocstr@D@std@@YAPEADPEBDPEADAEBU_Cvtvec@@@Z ; std::_Maklocstr<char>
PUBLIC	??$_Getvals@_W@?$time_get@DV?$istreambuf_iterator@DU?$char_traits@D@std@@@std@@@std@@IEAAX_WAEBV_Locinfo@1@@Z ; std::time_get<char,std::istreambuf_iterator<char,std::char_traits<char> > >::_Getvals<wchar_t>
PUBLIC	??$_Getvals@_W@?$time_get@_WV?$istreambuf_iterator@_WU?$char_traits@_W@std@@@std@@@std@@IEAAX_WAEBV_Locinfo@1@@Z ; std::time_get<wchar_t,std::istreambuf_iterator<wchar_t,std::char_traits<wchar_t> > >::_Getvals<wchar_t>
PUBLIC	?deallocate@?$allocator@F@std@@QEAAXQEAF_K@Z	; std::allocator<short>::deallocate
PUBLIC	?deallocate@?$allocator@PEAF@std@@QEAAXQEAPEAF_K@Z ; std::allocator<short *>::deallocate
PUBLIC	??1?$deque@FV?$allocator@F@std@@@std@@QEAA@XZ	; std::deque<short,std::allocator<short> >::~deque<short,std::allocator<short> >
PUBLIC	?empty@?$deque@FV?$allocator@F@std@@@std@@QEBA_NXZ ; std::deque<short,std::allocator<short> >::empty
PUBLIC	?pop_back@?$deque@FV?$allocator@F@std@@@std@@QEAAXXZ ; std::deque<short,std::allocator<short> >::pop_back
PUBLIC	?_Tidy@?$deque@FV?$allocator@F@std@@@std@@AEAAXXZ ; std::deque<short,std::allocator<short> >::_Tidy
PUBLIC	?_Orphan_off@?$deque@FV?$allocator@F@std@@@std@@AEBAX_K@Z ; std::deque<short,std::allocator<short> >::_Orphan_off
PUBLIC	?_Getblock@?$deque@FV?$allocator@F@std@@@std@@AEBA_K_K@Z ; std::deque<short,std::allocator<short> >::_Getblock
PUBLIC	?_Orphan_all@?$deque@FV?$allocator@F@std@@@std@@AEAAXXZ ; std::deque<short,std::allocator<short> >::_Orphan_all
PUBLIC	?_Getal@?$deque@FV?$allocator@F@std@@@std@@AEAAAEAV?$allocator@F@2@XZ ; std::deque<short,std::allocator<short> >::_Getal
PUBLIC	?_Get_data@?$deque@FV?$allocator@F@std@@@std@@AEAAAEAV?$_Deque_val@U?$_Deque_simple_types@F@std@@@2@XZ ; std::deque<short,std::allocator<short> >::_Get_data
PUBLIC	?_Get_data@?$deque@FV?$allocator@F@std@@@std@@AEBAAEBV?$_Deque_val@U?$_Deque_simple_types@F@std@@@2@XZ ; std::deque<short,std::allocator<short> >::_Get_data
PUBLIC	?_Map@?$deque@FV?$allocator@F@std@@@std@@AEAAAEAPEAPEAFXZ ; std::deque<short,std::allocator<short> >::_Map
PUBLIC	?_Mapsize@?$deque@FV?$allocator@F@std@@@std@@AEAAAEA_KXZ ; std::deque<short,std::allocator<short> >::_Mapsize
PUBLIC	?_Myoff@?$deque@FV?$allocator@F@std@@@std@@AEAAAEA_KXZ ; std::deque<short,std::allocator<short> >::_Myoff
PUBLIC	?_Myoff@?$deque@FV?$allocator@F@std@@@std@@AEBAAEB_KXZ ; std::deque<short,std::allocator<short> >::_Myoff
PUBLIC	?_Mysize@?$deque@FV?$allocator@F@std@@@std@@AEAAAEA_KXZ ; std::deque<short,std::allocator<short> >::_Mysize
PUBLIC	?_Mysize@?$deque@FV?$allocator@F@std@@@std@@AEBAAEB_KXZ ; std::deque<short,std::allocator<short> >::_Mysize
PUBLIC	?_Getblock@?$_Deque_val@U?$_Deque_simple_types@F@std@@@std@@QEBA_K_K@Z ; std::_Deque_val<std::_Deque_simple_types<short> >::_Getblock
PUBLIC	?_Get_first@?$_Compressed_pair@V?$allocator@F@std@@V?$_Deque_val@U?$_Deque_simple_types@F@std@@@2@$00@std@@QEAAAEAV?$allocator@F@2@XZ ; std::_Compressed_pair<std::allocator<short>,std::_Deque_val<std::_Deque_simple_types<short> >,1>::_Get_first
PUBLIC	??1?$stack@FV?$deque@FV?$allocator@F@std@@@std@@@std@@QEAA@XZ ; std::stack<short,std::deque<short,std::allocator<short> > >::~stack<short,std::deque<short,std::allocator<short> > >
PUBLIC	??1?$Stack@F@@QEAA@XZ				; Stack<short>::~Stack<short>
PUBLIC	??1MFSTState@MFST@@QEAA@XZ			; MFST::MFSTState::~MFSTState
PUBLIC	??_GMFSTState@MFST@@QEAAPEAXI@Z			; MFST::MFSTState::`scalar deleting destructor'
PUBLIC	?deallocate@?$allocator@UMFSTState@MFST@@@std@@QEAAXQEAUMFSTState@MFST@@_K@Z ; std::allocator<MFST::MFSTState>::deallocate
PUBLIC	?deallocate@?$allocator@PEAUMFSTState@MFST@@@std@@QEAAXQEAPEAUMFSTState@MFST@@_K@Z ; std::allocator<MFST::MFSTState *>::deallocate
PUBLIC	??1?$deque@UMFSTState@MFST@@V?$allocator@UMFSTState@MFST@@@std@@@std@@QEAA@XZ ; std::deque<MFST::MFSTState,std::allocator<MFST::MFSTState> >::~deque<MFST::MFSTState,std::allocator<MFST::MFSTState> >
PUBLIC	?empty@?$deque@UMFSTState@MFST@@V?$allocator@UMFSTState@MFST@@@std@@@std@@QEBA_NXZ ; std::deque<MFST::MFSTState,std::allocator<MFST::MFSTState> >::empty
PUBLIC	?pop_back@?$deque@UMFSTState@MFST@@V?$allocator@UMFSTState@MFST@@@std@@@std@@QEAAXXZ ; std::deque<MFST::MFSTState,std::allocator<MFST::MFSTState> >::pop_back
PUBLIC	?_Tidy@?$deque@UMFSTState@MFST@@V?$allocator@UMFSTState@MFST@@@std@@@std@@AEAAXXZ ; std::deque<MFST::MFSTState,std::allocator<MFST::MFSTState> >::_Tidy
PUBLIC	?_Orphan_off@?$deque@UMFSTState@MFST@@V?$allocator@UMFSTState@MFST@@@std@@@std@@AEBAX_K@Z ; std::deque<MFST::MFSTState,std::allocator<MFST::MFSTState> >::_Orphan_off
PUBLIC	?_Getblock@?$deque@UMFSTState@MFST@@V?$allocator@UMFSTState@MFST@@@std@@@std@@AEBA_K_K@Z ; std::deque<MFST::MFSTState,std::allocator<MFST::MFSTState> >::_Getblock
PUBLIC	?_Orphan_all@?$deque@UMFSTState@MFST@@V?$allocator@UMFSTState@MFST@@@std@@@std@@AEAAXXZ ; std::deque<MFST::MFSTState,std::allocator<MFST::MFSTState> >::_Orphan_all
PUBLIC	?_Getal@?$deque@UMFSTState@MFST@@V?$allocator@UMFSTState@MFST@@@std@@@std@@AEAAAEAV?$allocator@UMFSTState@MFST@@@2@XZ ; std::deque<MFST::MFSTState,std::allocator<MFST::MFSTState> >::_Getal
PUBLIC	?_Get_data@?$deque@UMFSTState@MFST@@V?$allocator@UMFSTState@MFST@@@std@@@std@@AEAAAEAV?$_Deque_val@U?$_Deque_simple_types@UMFSTState@MFST@@@std@@@2@XZ ; std::deque<MFST::MFSTState,std::allocator<MFST::MFSTState> >::_Get_data
PUBLIC	?_Get_data@?$deque@UMFSTState@MFST@@V?$allocator@UMFSTState@MFST@@@std@@@std@@AEBAAEBV?$_Deque_val@U?$_Deque_simple_types@UMFSTState@MFST@@@std@@@2@XZ ; std::deque<MFST::MFSTState,std::allocator<MFST::MFSTState> >::_Get_data
PUBLIC	?_Map@?$deque@UMFSTState@MFST@@V?$allocator@UMFSTState@MFST@@@std@@@std@@AEAAAEAPEAPEAUMFSTState@MFST@@XZ ; std::deque<MFST::MFSTState,std::allocator<MFST::MFSTState> >::_Map
PUBLIC	?_Mapsize@?$deque@UMFSTState@MFST@@V?$allocator@UMFSTState@MFST@@@std@@@std@@AEAAAEA_KXZ ; std::deque<MFST::MFSTState,std::allocator<MFST::MFSTState> >::_Mapsize
PUBLIC	?_Myoff@?$deque@UMFSTState@MFST@@V?$allocator@UMFSTState@MFST@@@std@@@std@@AEAAAEA_KXZ ; std::deque<MFST::MFSTState,std::allocator<MFST::MFSTState> >::_Myoff
PUBLIC	?_Myoff@?$deque@UMFSTState@MFST@@V?$allocator@UMFSTState@MFST@@@std@@@std@@AEBAAEB_KXZ ; std::deque<MFST::MFSTState,std::allocator<MFST::MFSTState> >::_Myoff
PUBLIC	?_Mysize@?$deque@UMFSTState@MFST@@V?$allocator@UMFSTState@MFST@@@std@@@std@@AEAAAEA_KXZ ; std::deque<MFST::MFSTState,std::allocator<MFST::MFSTState> >::_Mysize
PUBLIC	?_Mysize@?$deque@UMFSTState@MFST@@V?$allocator@UMFSTState@MFST@@@std@@@std@@AEBAAEB_KXZ ; std::deque<MFST::MFSTState,std::allocator<MFST::MFSTState> >::_Mysize
PUBLIC	?_Getblock@?$_Deque_val@U?$_Deque_simple_types@UMFSTState@MFST@@@std@@@std@@QEBA_K_K@Z ; std::_Deque_val<std::_Deque_simple_types<MFST::MFSTState> >::_Getblock
PUBLIC	?_Get_first@?$_Compressed_pair@V?$allocator@UMFSTState@MFST@@@std@@V?$_Deque_val@U?$_Deque_simple_types@UMFSTState@MFST@@@std@@@2@$00@std@@QEAAAEAV?$allocator@UMFSTState@MFST@@@2@XZ ; std::_Compressed_pair<std::allocator<MFST::MFSTState>,std::_Deque_val<std::_Deque_simple_types<MFST::MFSTState> >,1>::_Get_first
PUBLIC	??1?$stack@UMFSTState@MFST@@V?$deque@UMFSTState@MFST@@V?$allocator@UMFSTState@MFST@@@std@@@std@@@std@@QEAA@XZ ; std::stack<MFST::MFSTState,std::deque<MFST::MFSTState,std::allocator<MFST::MFSTState> > >::~stack<MFST::MFSTState,std::deque<MFST::MFSTState,std::allocator<MFST::MFSTState> > >
PUBLIC	??1?$Stack@UMFSTState@MFST@@@@QEAA@XZ		; Stack<MFST::MFSTState>::~Stack<MFST::MFSTState>
PUBLIC	??1MFST@0@QEAA@XZ				; MFST::MFST::~MFST
PUBLIC	?now@steady_clock@chrono@std@@SA?AV?$time_point@Usteady_clock@chrono@std@@V?$duration@_JU?$ratio@$00$0DLJKMKAA@@std@@@23@@23@XZ ; std::chrono::steady_clock::now
PUBLIC	?count@?$duration@_JU?$ratio@$00$0DLJKMKAA@@std@@@chrono@std@@QEBA_JXZ ; std::chrono::duration<__int64,std::ratio<1,1000000000> >::count
PUBLIC	??0?$time_point@Usteady_clock@chrono@std@@V?$duration@_JU?$ratio@$00$0DLJKMKAA@@std@@@23@@chrono@std@@QEAA@AEBV?$duration@_JU?$ratio@$00$0DLJKMKAA@@std@@@12@@Z ; std::chrono::time_point<std::chrono::steady_clock,std::chrono::duration<__int64,std::ratio<1,1000000000> > >::time_point<std::chrono::steady_clock,std::chrono::duration<__int64,std::ratio<1,1000000000> > >
PUBLIC	?time_since_epoch@?$time_point@Usteady_clock@chrono@std@@V?$duration@_JU?$ratio@$00$0DLJKMKAA@@std@@@23@@chrono@std@@QEBA?AV?$duration@_JU?$ratio@$00$0DLJKMKAA@@std@@@23@XZ ; std::chrono::time_point<std::chrono::steady_clock,std::chrono::duration<__int64,std::ratio<1,1000000000> > >::time_since_epoch
PUBLIC	??$?0_J$0A@@?$duration@_JU?$ratio@$00$0DLJKMKAA@@std@@@chrono@std@@QEAA@AEB_J@Z ; std::chrono::duration<__int64,std::ratio<1,1000000000> >::duration<__int64,std::ratio<1,1000000000> ><__int64,0>
PUBLIC	?count@?$duration@NU?$ratio@$00$00@std@@@chrono@std@@QEBANXZ ; std::chrono::duration<double,std::ratio<1,1> >::count
PUBLIC	??$duration_cast@V?$duration@NU?$ratio@$00$00@std@@@chrono@std@@_JU?$ratio@$00$0DLJKMKAA@@3@$0A@@chrono@std@@YA?AV?$duration@NU?$ratio@$00$00@std@@@01@AEBV?$duration@_JU?$ratio@$00$0DLJKMKAA@@std@@@01@@Z ; std::chrono::duration_cast<std::chrono::duration<double,std::ratio<1,1> >,__int64,std::ratio<1,1000000000>,0>
PUBLIC	??$?0N$0A@@?$duration@NU?$ratio@$00$00@std@@@chrono@std@@QEAA@AEBN@Z ; std::chrono::duration<double,std::ratio<1,1> >::duration<double,std::ratio<1,1> ><double,0>
PUBLIC	wmain
PUBLIC	??$?GUsteady_clock@chrono@std@@V?$duration@_JU?$ratio@$00$0DLJKMKAA@@std@@@12@V312@@chrono@std@@YA?AV?$duration@_JU?$ratio@$00$0DLJKMKAA@@std@@@01@AEBV?$time_point@Usteady_clock@chrono@std@@V?$duration@_JU?$ratio@$00$0DLJKMKAA@@std@@@23@@01@0@Z ; std::chrono::operator-<std::chrono::steady_clock,std::chrono::duration<__int64,std::ratio<1,1000000000> >,std::chrono::duration<__int64,std::ratio<1,1000000000> > >
PUBLIC	??$?6U?$char_traits@D@std@@@std@@YAAEAV?$basic_ostream@DU?$char_traits@D@std@@@0@AEAV10@PEBD@Z ; std::operator<<<std::char_traits<char> >
PUBLIC	??$endl@DU?$char_traits@D@std@@@std@@YAAEAV?$basic_ostream@DU?$char_traits@D@std@@@0@AEAV10@@Z ; std::endl<char,std::char_traits<char> >
PUBLIC	??$?0UMFSTState@MFST@@@?$allocator@U_Container_proxy@std@@@std@@QEAA@AEBV?$allocator@UMFSTState@MFST@@@1@@Z ; std::allocator<std::_Container_proxy>::allocator<std::_Container_proxy><MFST::MFSTState>
PUBLIC	??$exchange@PEAU_Container_proxy@std@@$$T@std@@YAPEAU_Container_proxy@0@AEAPEAU10@$$QEA$$T@Z ; std::exchange<std::_Container_proxy *,std::nullptr_t>
PUBLIC	??$_Delete_plain_internal@V?$allocator@U_Container_proxy@std@@@std@@@std@@YAXAEAV?$allocator@U_Container_proxy@std@@@0@QEAU_Container_proxy@0@@Z ; std::_Delete_plain_internal<std::allocator<std::_Container_proxy> >
PUBLIC	??$?0F@?$allocator@U_Container_proxy@std@@@std@@QEAA@AEBV?$allocator@F@1@@Z ; std::allocator<std::_Container_proxy>::allocator<std::_Container_proxy><short>
PUBLIC	??0_Sentry_base@?$basic_ostream@DU?$char_traits@D@std@@@std@@QEAA@AEAV12@@Z ; std::basic_ostream<char,std::char_traits<char> >::_Sentry_base::_Sentry_base
PUBLIC	??1_Sentry_base@?$basic_ostream@DU?$char_traits@D@std@@@std@@QEAA@XZ ; std::basic_ostream<char,std::char_traits<char> >::_Sentry_base::~_Sentry_base
PUBLIC	??0sentry@?$basic_ostream@DU?$char_traits@D@std@@@std@@QEAA@AEAV12@@Z ; std::basic_ostream<char,std::char_traits<char> >::sentry::sentry
PUBLIC	??1sentry@?$basic_ostream@DU?$char_traits@D@std@@@std@@QEAA@XZ ; std::basic_ostream<char,std::char_traits<char> >::sentry::~sentry
PUBLIC	??Bsentry@?$basic_ostream@DU?$char_traits@D@std@@@std@@QEBA_NXZ ; std::basic_ostream<char,std::char_traits<char> >::sentry::operator bool
PUBLIC	??$?0UMFSTState@MFST@@@?$allocator@PEAUMFSTState@MFST@@@std@@QEAA@AEBV?$allocator@UMFSTState@MFST@@@1@@Z ; std::allocator<MFST::MFSTState *>::allocator<MFST::MFSTState *><MFST::MFSTState>
PUBLIC	??$_Destroy_in_place@PEAUMFSTState@MFST@@@std@@YAXAEAPEAUMFSTState@MFST@@@Z ; std::_Destroy_in_place<MFST::MFSTState *>
PUBLIC	??$?0F@?$allocator@PEAF@std@@QEAA@AEBV?$allocator@F@1@@Z ; std::allocator<short *>::allocator<short *><short>
PUBLIC	??$_Destroy_in_place@PEAF@std@@YAXAEAPEAF@Z	; std::_Destroy_in_place<short *>
PUBLIC	??$_Unfancy@UMFSTState@MFST@@@std@@YAPEAUMFSTState@MFST@@PEAU12@@Z ; std::_Unfancy<MFST::MFSTState>
PUBLIC	??$destroy@UMFSTState@MFST@@@?$_Default_allocator_traits@V?$allocator@UMFSTState@MFST@@@std@@@std@@SAXAEAV?$allocator@UMFSTState@MFST@@@1@QEAUMFSTState@MFST@@@Z ; std::_Default_allocator_traits<std::allocator<MFST::MFSTState> >::destroy<MFST::MFSTState>
PUBLIC	??$_Deallocate@$0BA@$0A@@std@@YAXPEAX_K@Z	; std::_Deallocate<16,0>
PUBLIC	??$_Unfancy@F@std@@YAPEAFPEAF@Z			; std::_Unfancy<short>
PUBLIC	??$destroy@F@?$_Default_allocator_traits@V?$allocator@F@std@@@std@@SAXAEAV?$allocator@F@1@QEAF@Z ; std::_Default_allocator_traits<std::allocator<short> >::destroy<short>
PUBLIC	??$?G_JU?$ratio@$00$0DLJKMKAA@@std@@_JU01@@chrono@std@@YA?AV?$duration@_JU?$ratio@$00$0DLJKMKAA@@std@@@01@AEBV201@0@Z ; std::chrono::operator-<__int64,std::ratio<1,1000000000>,__int64,std::ratio<1,1000000000> >
PUBLIC	??$_Deallocate_plain@V?$allocator@U_Container_proxy@std@@@std@@@std@@YAXAEAV?$allocator@U_Container_proxy@std@@@0@QEAU_Container_proxy@0@@Z ; std::_Deallocate_plain<std::allocator<std::_Container_proxy> >
PUBLIC	?deallocate@?$_Default_allocator_traits@V?$allocator@U_Container_proxy@std@@@std@@@std@@SAXAEAV?$allocator@U_Container_proxy@std@@@2@QEAU_Container_proxy@2@_K@Z ; std::_Default_allocator_traits<std::allocator<std::_Container_proxy> >::deallocate
PUBLIC	__JustMyCode_Default
PUBLIC	?__LINE__Var@?0??_Adjust_manually_vector_aligned@std@@YAXAEAPEAXAEA_K@Z@4JA ; `std::_Adjust_manually_vector_aligned'::`1'::__LINE__Var
PUBLIC	??_C@_0BB@FCMFBGOM@invalid?5argument@		; `string'
PUBLIC	??_C@_02DKCKIIND@?$CFs@				; `string'
PUBLIC	??_C@_0GJ@EHJGLGPD@C?3?2Program?5Files?5?$CIx86?$CJ?2Microsof@ ; `string'
PUBLIC	??_C@_1NC@LBGPBFDE@?$AAC?$AA?3?$AA?2?$AAP?$AAr?$AAo?$AAg?$AAr?$AAa?$AAm?$AA?5?$AAF?$AAi?$AAl?$AAe@ ; `string'
PUBLIC	??_C@_1EK@NIFDJFDG@?$AAs?$AAt?$AAd?$AA?3?$AA?3?$AA_?$AAA?$AAd?$AAj?$AAu?$AAs?$AAt?$AA_?$AAm?$AAa@ ; `string'
PUBLIC	??_C@_1CG@JNLFBNGN@?$AA?$CC?$AAi?$AAn?$AAv?$AAa?$AAl?$AAi?$AAd?$AA?5?$AAa?$AAr?$AAg?$AAu?$AAm?$AAe@ ; `string'
PUBLIC	??_C@_0GJ@OPFKIEFE@C?3?2Program?5Files?5?$CIx86?$CJ?2Microsof@ ; `string'
PUBLIC	?__LINE__Var@?0??_Maklocwcs@std@@YAPEA_WPEB_W@Z@4JA ; `std::_Maklocwcs'::`1'::__LINE__Var
PUBLIC	??_C@_0GJ@GMBHIGPF@C?3?2Program?5Files?5?$CIx86?$CJ?2Microsof@ ; `string'
PUBLIC	??_C@_03EJKFMIHK@rus@				; `string'
PUBLIC	??_C@_11LOCGONAA@@				; `string'
PUBLIC	??_C@_1BA@BGIBCCML@?$AA?$DO?$AAH?$AA8?$AA1?$AA?$DO?$AA?3?$AA?5@ ; `string'
PUBLIC	??_C@_19LDAHGIGC@?$AA1?$AA5?$AA7?$AA?5@		; `string'
PUBLIC	??_C@_1BA@EGIFOAP@?$AAA?$AAG?$AA8?$AAB?$AA0?$AA?$DN?$AA?5@ ; `string'
PUBLIC	??_C@_1O@HOPEEGNI@?$AA$?$AA0?$AA9?$AA?$DL?$AA?3?$AA?5@ ; `string'
PUBLIC	??_C@_05HCBGMPNH@?5?q?e?j?4@			; `string'
PUBLIC	??_C@_0CF@OKKBGDDO@?$DO?$DO?$DO?$DO?$DO?$DO?$DO?$DO?$DO?$DO?5?K?e?j?q?h?w?e?q?j?h?i?5?$OA?m?$OA?k?h?g?$OA?r@ ; `string'
PUBLIC	??_C@_0CI@DKFHPLKL@?$DO?$DO?$DO?$DO?$DO?$DO?$DO?$DO?$DO?$DO?5C?h?m?r?$OA?j?q?h?w?e?q?j?h?i?5?$OA?m?$OA?k?h@ ; `string'
PUBLIC	??_C@_0CH@BKLKOFGF@?$DO?$DO?$DO?$DO?$DO?$DO?$DO?$DO?$DO?$DO?5?Q?e?l?$OA?m?r?h?w?e?q?j?h?i?5?$OA?m?$OA?k?h?g@ ; `string'
PUBLIC	??_C@_0CH@HNLPENJ@?$DO?$DO?$DO?$DO?$DO?$DO?$DO?$DO?$DO?$DO?5?O?p?e?n?a?p?$OA?g?n?b?$OA?m?h?e?5?b?$PL?p?$OA?f@ ; `string'
PUBLIC	??_C@_04CFKJMFP@?q?e?j?4@			; `string'
PUBLIC	??_C@_0BO@KNGBNNFA@?$DO?$DO?$DO?$DO?$DO?$DO?$DO?$DO?$DO?$DO?5?C?e?m?e?p?$OA?v?h?$PP?5?j?n?d?$OA?3?5?7?7@ ; `string'
PUBLIC	??_C@_1BI@GDHAEKGD@?$AAf?$AAi?$AAl?$AAe?$AA?4?$AAi?$AAd?$AA?4?$AAt?$AAx?$AAt@ ; `string'
PUBLIC	??_C@_0CH@DHDBONCL@?$DO?$DO?$DO?$DO?$DO?$DO?$DO?$DO?$DO?$DO?5?R?p?$OA?m?q?k?$PP?v?h?$PP?5?b?$PL?o?n?k?m?e?m?$OA@ ; `string'
PUBLIC	??_R0?AUERROR@Error@@@8				; Error::ERROR `RTTI Type Descriptor'
PUBLIC	??_C@_0DB@EFHCIJJE@?$CD?$CD?$CD?$CD?$CD?$CD?$CD?$CD?$CD?$CD?5?N?x?h?a?j?$OA?0?5?o?p?n?b?e?p?$PM?r?e?5?k?n@ ; `string'
PUBLIC	??_C@_0N@LPFKKEBD@?3AM?3am?3PM?3pm@		; `string'
PUBLIC	??_C@_0BH@EDKEEENI@deque?5empty?5before?5pop@	; `string'
PUBLIC	??_C@_0GH@OBALDB@C?3?2Program?5Files?5?$CIx86?$CJ?2Microsof@ ; `string'
PUBLIC	??_C@_1MO@ONLEFNNG@?$AAC?$AA?3?$AA?2?$AAP?$AAr?$AAo?$AAg?$AAr?$AAa?$AAm?$AA?5?$AAF?$AAi?$AAl?$AAe@ ; `string'
PUBLIC	??_C@_1LG@NKGJEFF@?$AAs?$AAt?$AAd?$AA?3?$AA?3?$AAd?$AAe?$AAq?$AAu?$AAe?$AA?$DM?$AAs?$AAt?$AAr?$AAu@ ; `string'
PUBLIC	??_C@_1DC@NJAACHCD@?$AA?$CC?$AAd?$AAe?$AAq?$AAu?$AAe?$AA?5?$AAe?$AAm?$AAp?$AAt?$AAy?$AA?5?$AAb?$AAe@ ; `string'
PUBLIC	??_C@_1HC@BNLMFKHI@?$AAs?$AAt?$AAd?$AA?3?$AA?3?$AAd?$AAe?$AAq?$AAu?$AAe?$AA?$DM?$AAs?$AAh?$AAo?$AAr@ ; `string'
PUBLIC	??_C@_1BK@MHIKGOKE@?$AA?3?$AAA?$AAM?$AA?3?$AAa?$AAm?$AA?3?$AAP?$AAM?$AA?3?$AAp?$AAm@ ; `string'
PUBLIC	__real@3ff0000000000000
PUBLIC	__real@41cdcd6500000000
EXTRN	??3@YAXPEAX_K@Z:PROC				; operator delete
EXTRN	__imp__invalid_parameter:PROC
EXTRN	memcpy:PROC
EXTRN	__imp_wcslen:PROC
EXTRN	__imp__calloc_dbg:PROC
EXTRN	__imp__CrtDbgReport:PROC
EXTRN	__imp_??0_Lockit@std@@QEAA@H@Z:PROC
EXTRN	__imp_??1_Lockit@std@@QEAA@XZ:PROC
EXTRN	__imp_setlocale:PROC
EXTRN	?uncaught_exception@std@@YA_NXZ:PROC		; std::uncaught_exception
EXTRN	strlen:PROC
EXTRN	?_Xbad_alloc@std@@YAXXZ:PROC			; std::_Xbad_alloc
EXTRN	_Mbrtowc:PROC
EXTRN	__imp_?_Getcvt@_Locinfo@std@@QEBA?AU_Cvtvec@@XZ:PROC
EXTRN	__imp_?_Getdays@_Locinfo@std@@QEBAPEBDXZ:PROC
EXTRN	__imp_?_Getmonths@_Locinfo@std@@QEBAPEBDXZ:PROC
EXTRN	__imp_?_W_Getdays@_Locinfo@std@@QEBAPEBGXZ:PROC
EXTRN	__imp_?_W_Getmonths@_Locinfo@std@@QEBAPEBGXZ:PROC
EXTRN	__imp_?good@ios_base@std@@QEBA_NXZ:PROC
EXTRN	__imp_?flags@ios_base@std@@QEBAHXZ:PROC
EXTRN	__imp_?width@ios_base@std@@QEBA_JXZ:PROC
EXTRN	__imp_?width@ios_base@std@@QEAA_J_J@Z:PROC
EXTRN	__imp_?sputc@?$basic_streambuf@DU?$char_traits@D@std@@@std@@QEAAHD@Z:PROC
EXTRN	__imp_?sputn@?$basic_streambuf@DU?$char_traits@D@std@@@std@@QEAA_JPEBD_J@Z:PROC
EXTRN	__imp_?setstate@?$basic_ios@DU?$char_traits@D@std@@@std@@QEAAXH_N@Z:PROC
EXTRN	__imp_?tie@?$basic_ios@DU?$char_traits@D@std@@@std@@QEBAPEAV?$basic_ostream@DU?$char_traits@D@std@@@2@XZ:PROC
EXTRN	__imp_?rdbuf@?$basic_ios@DU?$char_traits@D@std@@@std@@QEBAPEAV?$basic_streambuf@DU?$char_traits@D@std@@@2@XZ:PROC
EXTRN	__imp_?fill@?$basic_ios@DU?$char_traits@D@std@@@std@@QEBADXZ:PROC
EXTRN	__imp_?widen@?$basic_ios@DU?$char_traits@D@std@@@std@@QEBADD@Z:PROC
EXTRN	__imp_?_Osfx@?$basic_ostream@DU?$char_traits@D@std@@@std@@QEAAXXZ:PROC
EXTRN	__imp_??6?$basic_ostream@DU?$char_traits@D@std@@@std@@QEAAAEAV01@P6AAEAV01@AEAV01@@Z@Z:PROC
EXTRN	__imp_??6?$basic_ostream@DU?$char_traits@D@std@@@std@@QEAAAEAV01@N@Z:PROC
EXTRN	__imp_?put@?$basic_ostream@DU?$char_traits@D@std@@@std@@QEAAAEAV12@D@Z:PROC
EXTRN	__imp_?flush@?$basic_ostream@DU?$char_traits@D@std@@@std@@QEAAAEAV12@XZ:PROC
EXTRN	?getparm@Parm@@YA?AUPARM@1@HPEAPEA_W@Z:PROC	; Parm::getparm
EXTRN	?getin@In@@YA?AUIN@1@QEA_W@Z:PROC		; In::getin
EXTRN	?getlog@Log@@YA?AULOG@1@QEA_W@Z:PROC		; Log::getlog
EXTRN	?WriteLine@Log@@YAXULOG@1@PEB_WZZ:PROC		; Log::WriteLine
EXTRN	?WriteLog@Log@@YAXULOG@1@@Z:PROC		; Log::WriteLog
EXTRN	?WriteParm@Log@@YAXULOG@1@UPARM@Parm@@@Z:PROC	; Log::WriteParm
EXTRN	?WriteIn@Log@@YAXULOG@1@UIN@In@@@Z:PROC		; Log::WriteIn
EXTRN	?WriteError@Log@@YAXULOG@1@UERROR@Error@@@Z:PROC ; Log::WriteError
EXTRN	?Close@Log@@YAXULOG@1@@Z:PROC			; Log::Close
EXTRN	?Create@LT@@YA?AULexTable@1@H@Z:PROC		; LT::Create
EXTRN	?PrintTableLex@LT@@YAXPEAULexTable@1@PEA_W@Z:PROC ; LT::PrintTableLex
EXTRN	?Delete@LT@@YAXAEAULexTable@1@@Z:PROC		; LT::Delete
EXTRN	?Create@IT@@YA?AUIdTable@1@H@Z:PROC		; IT::Create
EXTRN	?PrintIdTable@IT@@YAXPEB_WAEAUIdTable@1@@Z:PROC	; IT::PrintIdTable
EXTRN	?Delete@IT@@YAXAEAUIdTable@1@@Z:PROC		; IT::Delete
EXTRN	?dataProcesing@GM@@YAXPEAEPEAV?$basic_fstream@DU?$char_traits@D@std@@@std@@PEAULexTable@LT@@PEAUIdTable@IT@@@Z:PROC ; GM::dataProcesing
EXTRN	?seachingExpressions@PN@@YAXAEAULexTable@LT@@AEAUIdTable@IT@@@Z:PROC ; PN::seachingExpressions
EXTRN	?GeneratorASM@GTA@@YAXPEAULexTable@LT@@PEAUIdTable@IT@@@Z:PROC ; GTA::GeneratorASM
EXTRN	?getGreibach@GRB@@YA?AUGreibach@1@XZ:PROC	; GRB::getGreibach
EXTRN	??0MFST@0@QEAA@ULexTable@LT@@UGreibach@GRB@@@Z:PROC ; MFST::MFST::MFST
EXTRN	?start@MFST@1@QEAA_NXZ:PROC			; MFST::MFST::start
EXTRN	?printRules@MFST@1@QEAAXXZ:PROC			; MFST::MFST::printRules
EXTRN	?SemanticAnalises@SA@@YAXPEAULexTable@LT@@PEAUIdTable@IT@@@Z:PROC ; SA::SemanticAnalises
EXTRN	_Query_perf_counter:PROC
EXTRN	_Query_perf_frequency:PROC
EXTRN	_RTC_CheckStackVars:PROC
EXTRN	_RTC_InitBase:PROC
EXTRN	_RTC_Shutdown:PROC
EXTRN	__CheckForDebuggerJustMyCode:PROC
EXTRN	__CxxFrameHandler4:PROC
EXTRN	__GSHandlerCheck:PROC
EXTRN	__GSHandlerCheck_EH4:PROC
EXTRN	__chkstk:PROC
EXTRN	__security_check_cookie:PROC
EXTRN	??_7type_info@@6B@:BYTE				; type_info::`vftable'
EXTRN	__imp_?cout@std@@3V?$basic_ostream@DU?$char_traits@D@std@@@1@A:BYTE
EXTRN	__security_cookie:QWORD
EXTRN	_fltused:DWORD
;	COMDAT pdata
pdata	SEGMENT
$pdata$?__empty_global_delete@@YAXPEAX@Z DD imagerel $LN4
	DD	imagerel $LN4+64
	DD	imagerel $unwind$?__empty_global_delete@@YAXPEAX@Z
pdata	ENDS
;	COMDAT pdata
pdata	SEGMENT
$pdata$?__empty_global_delete@@YAXPEAX_K@Z DD imagerel $LN4
	DD	imagerel $LN4+69
	DD	imagerel $unwind$?__empty_global_delete@@YAXPEAX_K@Z
pdata	ENDS
;	COMDAT pdata
pdata	SEGMENT
$pdata$wmemcpy DD imagerel $LN4
	DD	imagerel $LN4+106
	DD	imagerel $unwind$wmemcpy
pdata	ENDS
;	COMDAT pdata
pdata	SEGMENT
$pdata$?_Adjust_manually_vector_aligned@std@@YAXAEAPEAXAEA_K@Z DD imagerel $LN21
	DD	imagerel $LN21+476
	DD	imagerel $unwind$?_Adjust_manually_vector_aligned@std@@YAXAEAPEAXAEA_K@Z
pdata	ENDS
;	COMDAT pdata
pdata	SEGMENT
$pdata$?_Orphan_all@_Container_base12@std@@QEAAXXZ DD imagerel $LN7
	DD	imagerel $LN7+233
	DD	imagerel $unwind$?_Orphan_all@_Container_base12@std@@QEAAXXZ
pdata	ENDS
;	COMDAT pdata
pdata	SEGMENT
$pdata$?length@?$_Narrow_char_traits@DH@std@@SA_KQEBD@Z DD imagerel $LN3
	DD	imagerel $LN3+77
	DD	imagerel $unwind$?length@?$_Narrow_char_traits@DH@std@@SA_KQEBD@Z
pdata	ENDS
;	COMDAT pdata
pdata	SEGMENT
$pdata$?eq_int_type@?$_Narrow_char_traits@DH@std@@SA_NAEBH0@Z DD imagerel $LN5
	DD	imagerel $LN5+118
	DD	imagerel $unwind$?eq_int_type@?$_Narrow_char_traits@DH@std@@SA_NAEBH0@Z
pdata	ENDS
;	COMDAT pdata
pdata	SEGMENT
$pdata$?eof@?$_Narrow_char_traits@DH@std@@SAHXZ DD imagerel $LN3
	DD	imagerel $LN3+57
	DD	imagerel $unwind$?eof@?$_Narrow_char_traits@DH@std@@SAHXZ
pdata	ENDS
;	COMDAT pdata
pdata	SEGMENT
$pdata$??$_Maklocstr@_W@std@@YAPEA_WPEBDPEA_WAEBU_Cvtvec@@@Z DD imagerel $LN12
	DD	imagerel $LN12+584
	DD	imagerel $unwind$??$_Maklocstr@_W@std@@YAPEA_WPEBDPEA_WAEBU_Cvtvec@@@Z
pdata	ENDS
;	COMDAT pdata
pdata	SEGMENT
$pdata$?_Maklocwcs@std@@YAPEA_WPEB_W@Z DD imagerel $LN4
	DD	imagerel $LN4+165
	DD	imagerel $unwind$?_Maklocwcs@std@@YAPEA_WPEB_W@Z
pdata	ENDS
;	COMDAT pdata
pdata	SEGMENT
$pdata$??$_Maklocstr@D@std@@YAPEADPEBDPEADAEBU_Cvtvec@@@Z DD imagerel $LN7
	DD	imagerel $LN7+223
	DD	imagerel $unwind$??$_Maklocstr@D@std@@YAPEADPEBDPEADAEBU_Cvtvec@@@Z
pdata	ENDS
;	COMDAT pdata
pdata	SEGMENT
$pdata$??$_Getvals@_W@?$time_get@DV?$istreambuf_iterator@DU?$char_traits@D@std@@@std@@@std@@IEAAX_WAEBV_Locinfo@1@@Z DD imagerel $LN5
	DD	imagerel $LN5+379
	DD	imagerel $unwind$??$_Getvals@_W@?$time_get@DV?$istreambuf_iterator@DU?$char_traits@D@std@@@std@@@std@@IEAAX_WAEBV_Locinfo@1@@Z
pdata	ENDS
;	COMDAT pdata
pdata	SEGMENT
$pdata$??$_Getvals@_W@?$time_get@_WV?$istreambuf_iterator@_WU?$char_traits@_W@std@@@std@@@std@@IEAAX_WAEBV_Locinfo@1@@Z DD imagerel $LN5
	DD	imagerel $LN5+379
	DD	imagerel $unwind$??$_Getvals@_W@?$time_get@_WV?$istreambuf_iterator@_WU?$char_traits@_W@std@@@std@@@std@@IEAAX_WAEBV_Locinfo@1@@Z
pdata	ENDS
;	COMDAT pdata
pdata	SEGMENT
$pdata$?deallocate@?$allocator@F@std@@QEAAXQEAF_K@Z DD imagerel $LN3
	DD	imagerel $LN3+99
	DD	imagerel $unwind$?deallocate@?$allocator@F@std@@QEAAXQEAF_K@Z
pdata	ENDS
;	COMDAT pdata
pdata	SEGMENT
$pdata$?deallocate@?$allocator@PEAF@std@@QEAAXQEAPEAF_K@Z DD imagerel $LN3
	DD	imagerel $LN3+100
	DD	imagerel $unwind$?deallocate@?$allocator@PEAF@std@@QEAAXQEAPEAF_K@Z
pdata	ENDS
;	COMDAT pdata
pdata	SEGMENT
$pdata$??1?$deque@FV?$allocator@F@std@@@std@@QEAA@XZ DD imagerel $LN3
	DD	imagerel $LN3+199
	DD	imagerel $unwind$??1?$deque@FV?$allocator@F@std@@@std@@QEAA@XZ
pdata	ENDS
;	COMDAT pdata
pdata	SEGMENT
$pdata$?empty@?$deque@FV?$allocator@F@std@@@std@@QEBA_NXZ DD imagerel $LN5
	DD	imagerel $LN5+111
	DD	imagerel $unwind$?empty@?$deque@FV?$allocator@F@std@@@std@@QEBA_NXZ
pdata	ENDS
;	COMDAT pdata
pdata	SEGMENT
$pdata$?pop_back@?$deque@FV?$allocator@F@std@@@std@@QEAAXXZ DD imagerel $LN10
	DD	imagerel $LN10+461
	DD	imagerel $unwind$?pop_back@?$deque@FV?$allocator@F@std@@@std@@QEAAXXZ
pdata	ENDS
;	COMDAT pdata
pdata	SEGMENT
$pdata$?_Tidy@?$deque@FV?$allocator@F@std@@@std@@AEAAXXZ DD imagerel $LN10
	DD	imagerel $LN10+457
	DD	imagerel $unwind$?_Tidy@?$deque@FV?$allocator@F@std@@@std@@AEAAXXZ
pdata	ENDS
;	COMDAT pdata
pdata	SEGMENT
$pdata$?_Orphan_off@?$deque@FV?$allocator@F@std@@@std@@AEBAX_K@Z DD imagerel $LN11
	DD	imagerel $LN11+400
	DD	imagerel $unwind$?_Orphan_off@?$deque@FV?$allocator@F@std@@@std@@AEBAX_K@Z
pdata	ENDS
;	COMDAT pdata
pdata	SEGMENT
$pdata$?_Getblock@?$deque@FV?$allocator@F@std@@@std@@AEBA_K_K@Z DD imagerel $LN3
	DD	imagerel $LN3+97
	DD	imagerel $unwind$?_Getblock@?$deque@FV?$allocator@F@std@@@std@@AEBA_K_K@Z
pdata	ENDS
;	COMDAT pdata
pdata	SEGMENT
$pdata$?_Orphan_all@?$deque@FV?$allocator@F@std@@@std@@AEAAXXZ DD imagerel $LN3
	DD	imagerel $LN3+85
	DD	imagerel $unwind$?_Orphan_all@?$deque@FV?$allocator@F@std@@@std@@AEAAXXZ
pdata	ENDS
;	COMDAT pdata
pdata	SEGMENT
$pdata$?_Getal@?$deque@FV?$allocator@F@std@@@std@@AEAAAEAV?$allocator@F@2@XZ DD imagerel $LN3
	DD	imagerel $LN3+80
	DD	imagerel $unwind$?_Getal@?$deque@FV?$allocator@F@std@@@std@@AEAAAEAV?$allocator@F@2@XZ
pdata	ENDS
;	COMDAT pdata
pdata	SEGMENT
$pdata$?_Get_data@?$deque@FV?$allocator@F@std@@@std@@AEAAAEAV?$_Deque_val@U?$_Deque_simple_types@F@std@@@2@XZ DD imagerel $LN3
	DD	imagerel $LN3+71
	DD	imagerel $unwind$?_Get_data@?$deque@FV?$allocator@F@std@@@std@@AEAAAEAV?$_Deque_val@U?$_Deque_simple_types@F@std@@@2@XZ
pdata	ENDS
;	COMDAT pdata
pdata	SEGMENT
$pdata$?_Get_data@?$deque@FV?$allocator@F@std@@@std@@AEBAAEBV?$_Deque_val@U?$_Deque_simple_types@F@std@@@2@XZ DD imagerel $LN3
	DD	imagerel $LN3+71
	DD	imagerel $unwind$?_Get_data@?$deque@FV?$allocator@F@std@@@std@@AEBAAEBV?$_Deque_val@U?$_Deque_simple_types@F@std@@@2@XZ
pdata	ENDS
;	COMDAT pdata
pdata	SEGMENT
$pdata$?_Map@?$deque@FV?$allocator@F@std@@@std@@AEAAAEAPEAPEAFXZ DD imagerel $LN3
	DD	imagerel $LN3+80
	DD	imagerel $unwind$?_Map@?$deque@FV?$allocator@F@std@@@std@@AEAAAEAPEAPEAFXZ
pdata	ENDS
;	COMDAT pdata
pdata	SEGMENT
$pdata$?_Mapsize@?$deque@FV?$allocator@F@std@@@std@@AEAAAEA_KXZ DD imagerel $LN3
	DD	imagerel $LN3+80
	DD	imagerel $unwind$?_Mapsize@?$deque@FV?$allocator@F@std@@@std@@AEAAAEA_KXZ
pdata	ENDS
;	COMDAT pdata
pdata	SEGMENT
$pdata$?_Myoff@?$deque@FV?$allocator@F@std@@@std@@AEAAAEA_KXZ DD imagerel $LN3
	DD	imagerel $LN3+80
	DD	imagerel $unwind$?_Myoff@?$deque@FV?$allocator@F@std@@@std@@AEAAAEA_KXZ
pdata	ENDS
;	COMDAT pdata
pdata	SEGMENT
$pdata$?_Myoff@?$deque@FV?$allocator@F@std@@@std@@AEBAAEB_KXZ DD imagerel $LN3
	DD	imagerel $LN3+80
	DD	imagerel $unwind$?_Myoff@?$deque@FV?$allocator@F@std@@@std@@AEBAAEB_KXZ
pdata	ENDS
;	COMDAT pdata
pdata	SEGMENT
$pdata$?_Mysize@?$deque@FV?$allocator@F@std@@@std@@AEAAAEA_KXZ DD imagerel $LN3
	DD	imagerel $LN3+80
	DD	imagerel $unwind$?_Mysize@?$deque@FV?$allocator@F@std@@@std@@AEAAAEA_KXZ
pdata	ENDS
;	COMDAT pdata
pdata	SEGMENT
$pdata$?_Mysize@?$deque@FV?$allocator@F@std@@@std@@AEBAAEB_KXZ DD imagerel $LN3
	DD	imagerel $LN3+80
	DD	imagerel $unwind$?_Mysize@?$deque@FV?$allocator@F@std@@@std@@AEBAAEB_KXZ
pdata	ENDS
;	COMDAT pdata
pdata	SEGMENT
$pdata$?_Getblock@?$_Deque_val@U?$_Deque_simple_types@F@std@@@std@@QEBA_K_K@Z DD imagerel $LN3
	DD	imagerel $LN3+103
	DD	imagerel $unwind$?_Getblock@?$_Deque_val@U?$_Deque_simple_types@F@std@@@std@@QEBA_K_K@Z
pdata	ENDS
;	COMDAT pdata
pdata	SEGMENT
$pdata$?_Get_first@?$_Compressed_pair@V?$allocator@F@std@@V?$_Deque_val@U?$_Deque_simple_types@F@std@@@2@$00@std@@QEAAAEAV?$allocator@F@2@XZ DD imagerel $LN3
	DD	imagerel $LN3+71
	DD	imagerel $unwind$?_Get_first@?$_Compressed_pair@V?$allocator@F@std@@V?$_Deque_val@U?$_Deque_simple_types@F@std@@@2@$00@std@@QEAAAEAV?$allocator@F@2@XZ
pdata	ENDS
;	COMDAT pdata
pdata	SEGMENT
$pdata$??1?$stack@FV?$deque@FV?$allocator@F@std@@@std@@@std@@QEAA@XZ DD imagerel $LN3
	DD	imagerel $LN3+67
	DD	imagerel $unwind$??1?$stack@FV?$deque@FV?$allocator@F@std@@@std@@@std@@QEAA@XZ
pdata	ENDS
;	COMDAT pdata
pdata	SEGMENT
$pdata$??1?$Stack@F@@QEAA@XZ DD imagerel $LN4
	DD	imagerel $LN4+67
	DD	imagerel $unwind$??1?$Stack@F@@QEAA@XZ
pdata	ENDS
;	COMDAT pdata
pdata	SEGMENT
$pdata$??1MFSTState@MFST@@QEAA@XZ DD imagerel $LN4
	DD	imagerel $LN4+71
	DD	imagerel $unwind$??1MFSTState@MFST@@QEAA@XZ
pdata	ENDS
;	COMDAT pdata
pdata	SEGMENT
$pdata$??_GMFSTState@MFST@@QEAAPEAXI@Z DD imagerel $LN5
	DD	imagerel $LN5+105
	DD	imagerel $unwind$??_GMFSTState@MFST@@QEAAPEAXI@Z
pdata	ENDS
;	COMDAT pdata
pdata	SEGMENT
$pdata$?deallocate@?$allocator@UMFSTState@MFST@@@std@@QEAAXQEAUMFSTState@MFST@@_K@Z DD imagerel $LN3
	DD	imagerel $LN3+97
	DD	imagerel $unwind$?deallocate@?$allocator@UMFSTState@MFST@@@std@@QEAAXQEAUMFSTState@MFST@@_K@Z
pdata	ENDS
;	COMDAT pdata
pdata	SEGMENT
$pdata$?deallocate@?$allocator@PEAUMFSTState@MFST@@@std@@QEAAXQEAPEAUMFSTState@MFST@@_K@Z DD imagerel $LN3
	DD	imagerel $LN3+100
	DD	imagerel $unwind$?deallocate@?$allocator@PEAUMFSTState@MFST@@@std@@QEAAXQEAPEAUMFSTState@MFST@@_K@Z
pdata	ENDS
;	COMDAT pdata
pdata	SEGMENT
$pdata$??1?$deque@UMFSTState@MFST@@V?$allocator@UMFSTState@MFST@@@std@@@std@@QEAA@XZ DD imagerel $LN3
	DD	imagerel $LN3+199
	DD	imagerel $unwind$??1?$deque@UMFSTState@MFST@@V?$allocator@UMFSTState@MFST@@@std@@@std@@QEAA@XZ
pdata	ENDS
;	COMDAT pdata
pdata	SEGMENT
$pdata$?empty@?$deque@UMFSTState@MFST@@V?$allocator@UMFSTState@MFST@@@std@@@std@@QEBA_NXZ DD imagerel $LN5
	DD	imagerel $LN5+111
	DD	imagerel $unwind$?empty@?$deque@UMFSTState@MFST@@V?$allocator@UMFSTState@MFST@@@std@@@std@@QEBA_NXZ
pdata	ENDS
;	COMDAT pdata
pdata	SEGMENT
$pdata$?pop_back@?$deque@UMFSTState@MFST@@V?$allocator@UMFSTState@MFST@@@std@@@std@@QEAAXXZ DD imagerel $LN10
	DD	imagerel $LN10+435
	DD	imagerel $unwind$?pop_back@?$deque@UMFSTState@MFST@@V?$allocator@UMFSTState@MFST@@@std@@@std@@QEAAXXZ
pdata	ENDS
;	COMDAT pdata
pdata	SEGMENT
$pdata$?_Tidy@?$deque@UMFSTState@MFST@@V?$allocator@UMFSTState@MFST@@@std@@@std@@AEAAXXZ DD imagerel $LN10
	DD	imagerel $LN10+457
	DD	imagerel $unwind$?_Tidy@?$deque@UMFSTState@MFST@@V?$allocator@UMFSTState@MFST@@@std@@@std@@AEAAXXZ
pdata	ENDS
;	COMDAT pdata
pdata	SEGMENT
$pdata$?_Orphan_off@?$deque@UMFSTState@MFST@@V?$allocator@UMFSTState@MFST@@@std@@@std@@AEBAX_K@Z DD imagerel $LN11
	DD	imagerel $LN11+400
	DD	imagerel $unwind$?_Orphan_off@?$deque@UMFSTState@MFST@@V?$allocator@UMFSTState@MFST@@@std@@@std@@AEBAX_K@Z
pdata	ENDS
;	COMDAT pdata
pdata	SEGMENT
$pdata$?_Getblock@?$deque@UMFSTState@MFST@@V?$allocator@UMFSTState@MFST@@@std@@@std@@AEBA_K_K@Z DD imagerel $LN3
	DD	imagerel $LN3+97
	DD	imagerel $unwind$?_Getblock@?$deque@UMFSTState@MFST@@V?$allocator@UMFSTState@MFST@@@std@@@std@@AEBA_K_K@Z
pdata	ENDS
;	COMDAT pdata
pdata	SEGMENT
$pdata$?_Orphan_all@?$deque@UMFSTState@MFST@@V?$allocator@UMFSTState@MFST@@@std@@@std@@AEAAXXZ DD imagerel $LN3
	DD	imagerel $LN3+85
	DD	imagerel $unwind$?_Orphan_all@?$deque@UMFSTState@MFST@@V?$allocator@UMFSTState@MFST@@@std@@@std@@AEAAXXZ
pdata	ENDS
;	COMDAT pdata
pdata	SEGMENT
$pdata$?_Getal@?$deque@UMFSTState@MFST@@V?$allocator@UMFSTState@MFST@@@std@@@std@@AEAAAEAV?$allocator@UMFSTState@MFST@@@2@XZ DD imagerel $LN3
	DD	imagerel $LN3+80
	DD	imagerel $unwind$?_Getal@?$deque@UMFSTState@MFST@@V?$allocator@UMFSTState@MFST@@@std@@@std@@AEAAAEAV?$allocator@UMFSTState@MFST@@@2@XZ
pdata	ENDS
;	COMDAT pdata
pdata	SEGMENT
$pdata$?_Get_data@?$deque@UMFSTState@MFST@@V?$allocator@UMFSTState@MFST@@@std@@@std@@AEAAAEAV?$_Deque_val@U?$_Deque_simple_types@UMFSTState@MFST@@@std@@@2@XZ DD imagerel $LN3
	DD	imagerel $LN3+71
	DD	imagerel $unwind$?_Get_data@?$deque@UMFSTState@MFST@@V?$allocator@UMFSTState@MFST@@@std@@@std@@AEAAAEAV?$_Deque_val@U?$_Deque_simple_types@UMFSTState@MFST@@@std@@@2@XZ
pdata	ENDS
;	COMDAT pdata
pdata	SEGMENT
$pdata$?_Get_data@?$deque@UMFSTState@MFST@@V?$allocator@UMFSTState@MFST@@@std@@@std@@AEBAAEBV?$_Deque_val@U?$_Deque_simple_types@UMFSTState@MFST@@@std@@@2@XZ DD imagerel $LN3
	DD	imagerel $LN3+71
	DD	imagerel $unwind$?_Get_data@?$deque@UMFSTState@MFST@@V?$allocator@UMFSTState@MFST@@@std@@@std@@AEBAAEBV?$_Deque_val@U?$_Deque_simple_types@UMFSTState@MFST@@@std@@@2@XZ
pdata	ENDS
;	COMDAT pdata
pdata	SEGMENT
$pdata$?_Map@?$deque@UMFSTState@MFST@@V?$allocator@UMFSTState@MFST@@@std@@@std@@AEAAAEAPEAPEAUMFSTState@MFST@@XZ DD imagerel $LN3
	DD	imagerel $LN3+80
	DD	imagerel $unwind$?_Map@?$deque@UMFSTState@MFST@@V?$allocator@UMFSTState@MFST@@@std@@@std@@AEAAAEAPEAPEAUMFSTState@MFST@@XZ
pdata	ENDS
;	COMDAT pdata
pdata	SEGMENT
$pdata$?_Mapsize@?$deque@UMFSTState@MFST@@V?$allocator@UMFSTState@MFST@@@std@@@std@@AEAAAEA_KXZ DD imagerel $LN3
	DD	imagerel $LN3+80
	DD	imagerel $unwind$?_Mapsize@?$deque@UMFSTState@MFST@@V?$allocator@UMFSTState@MFST@@@std@@@std@@AEAAAEA_KXZ
pdata	ENDS
;	COMDAT pdata
pdata	SEGMENT
$pdata$?_Myoff@?$deque@UMFSTState@MFST@@V?$allocator@UMFSTState@MFST@@@std@@@std@@AEAAAEA_KXZ DD imagerel $LN3
	DD	imagerel $LN3+80
	DD	imagerel $unwind$?_Myoff@?$deque@UMFSTState@MFST@@V?$allocator@UMFSTState@MFST@@@std@@@std@@AEAAAEA_KXZ
pdata	ENDS
;	COMDAT pdata
pdata	SEGMENT
$pdata$?_Myoff@?$deque@UMFSTState@MFST@@V?$allocator@UMFSTState@MFST@@@std@@@std@@AEBAAEB_KXZ DD imagerel $LN3
	DD	imagerel $LN3+80
	DD	imagerel $unwind$?_Myoff@?$deque@UMFSTState@MFST@@V?$allocator@UMFSTState@MFST@@@std@@@std@@AEBAAEB_KXZ
pdata	ENDS
;	COMDAT pdata
pdata	SEGMENT
$pdata$?_Mysize@?$deque@UMFSTState@MFST@@V?$allocator@UMFSTState@MFST@@@std@@@std@@AEAAAEA_KXZ DD imagerel $LN3
	DD	imagerel $LN3+80
	DD	imagerel $unwind$?_Mysize@?$deque@UMFSTState@MFST@@V?$allocator@UMFSTState@MFST@@@std@@@std@@AEAAAEA_KXZ
pdata	ENDS
;	COMDAT pdata
pdata	SEGMENT
$pdata$?_Mysize@?$deque@UMFSTState@MFST@@V?$allocator@UMFSTState@MFST@@@std@@@std@@AEBAAEB_KXZ DD imagerel $LN3
	DD	imagerel $LN3+80
	DD	imagerel $unwind$?_Mysize@?$deque@UMFSTState@MFST@@V?$allocator@UMFSTState@MFST@@@std@@@std@@AEBAAEB_KXZ
pdata	ENDS
;	COMDAT pdata
pdata	SEGMENT
$pdata$?_Getblock@?$_Deque_val@U?$_Deque_simple_types@UMFSTState@MFST@@@std@@@std@@QEBA_K_K@Z DD imagerel $LN3
	DD	imagerel $LN3+96
	DD	imagerel $unwind$?_Getblock@?$_Deque_val@U?$_Deque_simple_types@UMFSTState@MFST@@@std@@@std@@QEBA_K_K@Z
pdata	ENDS
;	COMDAT pdata
pdata	SEGMENT
$pdata$?_Get_first@?$_Compressed_pair@V?$allocator@UMFSTState@MFST@@@std@@V?$_Deque_val@U?$_Deque_simple_types@UMFSTState@MFST@@@std@@@2@$00@std@@QEAAAEAV?$allocator@UMFSTState@MFST@@@2@XZ DD imagerel $LN3
	DD	imagerel $LN3+71
	DD	imagerel $unwind$?_Get_first@?$_Compressed_pair@V?$allocator@UMFSTState@MFST@@@std@@V?$_Deque_val@U?$_Deque_simple_types@UMFSTState@MFST@@@std@@@2@$00@std@@QEAAAEAV?$allocator@UMFSTState@MFST@@@2@XZ
pdata	ENDS
;	COMDAT pdata
pdata	SEGMENT
$pdata$??1?$stack@UMFSTState@MFST@@V?$deque@UMFSTState@MFST@@V?$allocator@UMFSTState@MFST@@@std@@@std@@@std@@QEAA@XZ DD imagerel $LN3
	DD	imagerel $LN3+67
	DD	imagerel $unwind$??1?$stack@UMFSTState@MFST@@V?$deque@UMFSTState@MFST@@V?$allocator@UMFSTState@MFST@@@std@@@std@@@std@@QEAA@XZ
pdata	ENDS
;	COMDAT pdata
pdata	SEGMENT
$pdata$??1?$Stack@UMFSTState@MFST@@@@QEAA@XZ DD imagerel $LN4
	DD	imagerel $LN4+67
	DD	imagerel $unwind$??1?$Stack@UMFSTState@MFST@@@@QEAA@XZ
pdata	ENDS
;	COMDAT pdata
pdata	SEGMENT
$pdata$??1MFST@0@QEAA@XZ DD imagerel $LN4
	DD	imagerel $LN4+92
	DD	imagerel $unwind$??1MFST@0@QEAA@XZ
pdata	ENDS
;	COMDAT pdata
pdata	SEGMENT
$pdata$?now@steady_clock@chrono@std@@SA?AV?$time_point@Usteady_clock@chrono@std@@V?$duration@_JU?$ratio@$00$0DLJKMKAA@@std@@@23@@23@XZ DD imagerel $LN3
	DD	imagerel $LN3+195
	DD	imagerel $unwind$?now@steady_clock@chrono@std@@SA?AV?$time_point@Usteady_clock@chrono@std@@V?$duration@_JU?$ratio@$00$0DLJKMKAA@@std@@@23@@23@XZ
pdata	ENDS
;	COMDAT pdata
pdata	SEGMENT
$pdata$?count@?$duration@_JU?$ratio@$00$0DLJKMKAA@@std@@@chrono@std@@QEBA_JXZ DD imagerel $LN3
	DD	imagerel $LN3+74
	DD	imagerel $unwind$?count@?$duration@_JU?$ratio@$00$0DLJKMKAA@@std@@@chrono@std@@QEBA_JXZ
pdata	ENDS
;	COMDAT pdata
pdata	SEGMENT
$pdata$??0?$time_point@Usteady_clock@chrono@std@@V?$duration@_JU?$ratio@$00$0DLJKMKAA@@std@@@23@@chrono@std@@QEAA@AEBV?$duration@_JU?$ratio@$00$0DLJKMKAA@@std@@@12@@Z DD imagerel $LN3
	DD	imagerel $LN3+96
	DD	imagerel $unwind$??0?$time_point@Usteady_clock@chrono@std@@V?$duration@_JU?$ratio@$00$0DLJKMKAA@@std@@@23@@chrono@std@@QEAA@AEBV?$duration@_JU?$ratio@$00$0DLJKMKAA@@std@@@12@@Z
pdata	ENDS
;	COMDAT pdata
pdata	SEGMENT
$pdata$?time_since_epoch@?$time_point@Usteady_clock@chrono@std@@V?$duration@_JU?$ratio@$00$0DLJKMKAA@@std@@@23@@chrono@std@@QEBA?AV?$duration@_JU?$ratio@$00$0DLJKMKAA@@std@@@23@XZ DD imagerel $LN3
	DD	imagerel $LN3+96
	DD	imagerel $unwind$?time_since_epoch@?$time_point@Usteady_clock@chrono@std@@V?$duration@_JU?$ratio@$00$0DLJKMKAA@@std@@@23@@chrono@std@@QEBA?AV?$duration@_JU?$ratio@$00$0DLJKMKAA@@std@@@23@XZ
pdata	ENDS
;	COMDAT pdata
pdata	SEGMENT
$pdata$??$?0_J$0A@@?$duration@_JU?$ratio@$00$0DLJKMKAA@@std@@@chrono@std@@QEAA@AEB_J@Z DD imagerel $LN3
	DD	imagerel $LN3+96
	DD	imagerel $unwind$??$?0_J$0A@@?$duration@_JU?$ratio@$00$0DLJKMKAA@@std@@@chrono@std@@QEAA@AEB_J@Z
pdata	ENDS
;	COMDAT pdata
pdata	SEGMENT
$pdata$?count@?$duration@NU?$ratio@$00$00@std@@@chrono@std@@QEBANXZ DD imagerel $LN3
	DD	imagerel $LN3+75
	DD	imagerel $unwind$?count@?$duration@NU?$ratio@$00$00@std@@@chrono@std@@QEBANXZ
pdata	ENDS
;	COMDAT pdata
pdata	SEGMENT
$pdata$??$duration_cast@V?$duration@NU?$ratio@$00$00@std@@@chrono@std@@_JU?$ratio@$00$0DLJKMKAA@@3@$0A@@chrono@std@@YA?AV?$duration@NU?$ratio@$00$00@std@@@01@AEBV?$duration@_JU?$ratio@$00$0DLJKMKAA@@std@@@01@@Z DD imagerel $LN9
	DD	imagerel $LN9+358
	DD	imagerel $unwind$??$duration_cast@V?$duration@NU?$ratio@$00$00@std@@@chrono@std@@_JU?$ratio@$00$0DLJKMKAA@@3@$0A@@chrono@std@@YA?AV?$duration@NU?$ratio@$00$00@std@@@01@AEBV?$duration@_JU?$ratio@$00$0DLJKMKAA@@std@@@01@@Z
pdata	ENDS
;	COMDAT pdata
pdata	SEGMENT
$pdata$??$?0N$0A@@?$duration@NU?$ratio@$00$00@std@@@chrono@std@@QEAA@AEBN@Z DD imagerel $LN3
	DD	imagerel $LN3+98
	DD	imagerel $unwind$??$?0N$0A@@?$duration@NU?$ratio@$00$00@std@@@chrono@std@@QEAA@AEBN@Z
pdata	ENDS
;	COMDAT pdata
pdata	SEGMENT
$pdata$wmain DD	imagerel $LN12
	DD	imagerel $LN12+2587
	DD	imagerel $unwind$wmain
pdata	ENDS
;	COMDAT pdata
pdata	SEGMENT
$pdata$wmain$dtor$0 DD imagerel wmain$dtor$0
	DD	imagerel wmain$dtor$0+39
	DD	imagerel $unwind$wmain$dtor$0
pdata	ENDS
;	COMDAT pdata
pdata	SEGMENT
$pdata$wmain$catch$1 DD imagerel wmain$catch$1
	DD	imagerel wmain$catch$1+143
	DD	imagerel $unwind$wmain$catch$1
pdata	ENDS
;	COMDAT pdata
pdata	SEGMENT
$pdata$??$?GUsteady_clock@chrono@std@@V?$duration@_JU?$ratio@$00$0DLJKMKAA@@std@@@12@V312@@chrono@std@@YA?AV?$duration@_JU?$ratio@$00$0DLJKMKAA@@std@@@01@AEBV?$time_point@Usteady_clock@chrono@std@@V?$duration@_JU?$ratio@$00$0DLJKMKAA@@std@@@23@@01@0@Z DD imagerel $LN3
	DD	imagerel $LN3+151
	DD	imagerel $unwind$??$?GUsteady_clock@chrono@std@@V?$duration@_JU?$ratio@$00$0DLJKMKAA@@std@@@12@V312@@chrono@std@@YA?AV?$duration@_JU?$ratio@$00$0DLJKMKAA@@std@@@01@AEBV?$time_point@Usteady_clock@chrono@std@@V?$duration@_JU?$ratio@$00$0DLJKMKAA@@std@@@23@@01@0@Z
pdata	ENDS
;	COMDAT pdata
pdata	SEGMENT
$pdata$??$?6U?$char_traits@D@std@@@std@@YAAEAV?$basic_ostream@DU?$char_traits@D@std@@@0@AEAV10@PEBD@Z DD imagerel $LN25
	DD	imagerel $LN25+1034
	DD	imagerel $unwind$??$?6U?$char_traits@D@std@@@std@@YAAEAV?$basic_ostream@DU?$char_traits@D@std@@@0@AEAV10@PEBD@Z
pdata	ENDS
;	COMDAT pdata
pdata	SEGMENT
$pdata$?dtor$0@?0???$?6U?$char_traits@D@std@@@std@@YAAEAV?$basic_ostream@DU?$char_traits@D@std@@@0@AEAV10@PEBD@Z@4HA DD imagerel ?dtor$0@?0???$?6U?$char_traits@D@std@@@std@@YAAEAV?$basic_ostream@DU?$char_traits@D@std@@@0@AEAV10@PEBD@Z@4HA
	DD	imagerel ?dtor$0@?0???$?6U?$char_traits@D@std@@@std@@YAAEAV?$basic_ostream@DU?$char_traits@D@std@@@0@AEAV10@PEBD@Z@4HA+36
	DD	imagerel $unwind$?dtor$0@?0???$?6U?$char_traits@D@std@@@std@@YAAEAV?$basic_ostream@DU?$char_traits@D@std@@@0@AEAV10@PEBD@Z@4HA
pdata	ENDS
;	COMDAT pdata
pdata	SEGMENT
$pdata$?catch$1@?0???$?6U?$char_traits@D@std@@@std@@YAAEAV?$basic_ostream@DU?$char_traits@D@std@@@0@AEAV10@PEBD@Z@4HA DD imagerel ?catch$1@?0???$?6U?$char_traits@D@std@@@std@@YAAEAV?$basic_ostream@DU?$char_traits@D@std@@@0@AEAV10@PEBD@Z@4HA
	DD	imagerel ?catch$1@?0???$?6U?$char_traits@D@std@@@std@@YAAEAV?$basic_ostream@DU?$char_traits@D@std@@@0@AEAV10@PEBD@Z@4HA+80
	DD	imagerel $unwind$?catch$1@?0???$?6U?$char_traits@D@std@@@std@@YAAEAV?$basic_ostream@DU?$char_traits@D@std@@@0@AEAV10@PEBD@Z@4HA
pdata	ENDS
;	COMDAT pdata
pdata	SEGMENT
$pdata$??$endl@DU?$char_traits@D@std@@@std@@YAAEAV?$basic_ostream@DU?$char_traits@D@std@@@0@AEAV10@@Z DD imagerel $LN3
	DD	imagerel $LN3+138
	DD	imagerel $unwind$??$endl@DU?$char_traits@D@std@@@std@@YAAEAV?$basic_ostream@DU?$char_traits@D@std@@@0@AEAV10@@Z
pdata	ENDS
;	COMDAT pdata
pdata	SEGMENT
$pdata$??$?0UMFSTState@MFST@@@?$allocator@U_Container_proxy@std@@@std@@QEAA@AEBV?$allocator@UMFSTState@MFST@@@1@@Z DD imagerel $LN3
	DD	imagerel $LN3+76
	DD	imagerel $unwind$??$?0UMFSTState@MFST@@@?$allocator@U_Container_proxy@std@@@std@@QEAA@AEBV?$allocator@UMFSTState@MFST@@@1@@Z
pdata	ENDS
;	COMDAT pdata
pdata	SEGMENT
$pdata$??$exchange@PEAU_Container_proxy@std@@$$T@std@@YAPEAU_Container_proxy@0@AEAPEAU10@$$QEA$$T@Z DD imagerel $LN3
	DD	imagerel $LN3+107
	DD	imagerel $unwind$??$exchange@PEAU_Container_proxy@std@@$$T@std@@YAPEAU_Container_proxy@0@AEAPEAU10@$$QEA$$T@Z
pdata	ENDS
;	COMDAT pdata
pdata	SEGMENT
$pdata$??$_Delete_plain_internal@V?$allocator@U_Container_proxy@std@@@std@@@std@@YAXAEAV?$allocator@U_Container_proxy@std@@@0@QEAU_Container_proxy@0@@Z DD imagerel $LN3
	DD	imagerel $LN3+89
	DD	imagerel $unwind$??$_Delete_plain_internal@V?$allocator@U_Container_proxy@std@@@std@@@std@@YAXAEAV?$allocator@U_Container_proxy@std@@@0@QEAU_Container_proxy@0@@Z
pdata	ENDS
;	COMDAT pdata
pdata	SEGMENT
$pdata$??$?0F@?$allocator@U_Container_proxy@std@@@std@@QEAA@AEBV?$allocator@F@1@@Z DD imagerel $LN3
	DD	imagerel $LN3+76
	DD	imagerel $unwind$??$?0F@?$allocator@U_Container_proxy@std@@@std@@QEAA@AEBV?$allocator@F@1@@Z
pdata	ENDS
;	COMDAT pdata
pdata	SEGMENT
$pdata$??0_Sentry_base@?$basic_ostream@DU?$char_traits@D@std@@@std@@QEAA@AEAV12@@Z DD imagerel $LN4
	DD	imagerel $LN4+171
	DD	imagerel $unwind$??0_Sentry_base@?$basic_ostream@DU?$char_traits@D@std@@@std@@QEAA@AEAV12@@Z
pdata	ENDS
;	COMDAT pdata
pdata	SEGMENT
$pdata$??1_Sentry_base@?$basic_ostream@DU?$char_traits@D@std@@@std@@QEAA@XZ DD imagerel $LN4
	DD	imagerel $LN4+143
	DD	imagerel $unwind$??1_Sentry_base@?$basic_ostream@DU?$char_traits@D@std@@@std@@QEAA@XZ
pdata	ENDS
;	COMDAT pdata
pdata	SEGMENT
$pdata$??0sentry@?$basic_ostream@DU?$char_traits@D@std@@@std@@QEAA@AEAV12@@Z DD imagerel $LN7
	DD	imagerel $LN7+284
	DD	imagerel $unwind$??0sentry@?$basic_ostream@DU?$char_traits@D@std@@@std@@QEAA@AEAV12@@Z
pdata	ENDS
;	COMDAT pdata
pdata	SEGMENT
$pdata$?dtor$0@?0???0sentry@?$basic_ostream@DU?$char_traits@D@std@@@std@@QEAA@AEAV12@@Z@4HA DD imagerel ?dtor$0@?0???0sentry@?$basic_ostream@DU?$char_traits@D@std@@@std@@QEAA@AEAV12@@Z@4HA
	DD	imagerel ?dtor$0@?0???0sentry@?$basic_ostream@DU?$char_traits@D@std@@@std@@QEAA@AEAV12@@Z@4HA+39
	DD	imagerel $unwind$?dtor$0@?0???0sentry@?$basic_ostream@DU?$char_traits@D@std@@@std@@QEAA@AEAV12@@Z@4HA
pdata	ENDS
;	COMDAT pdata
pdata	SEGMENT
$pdata$??1sentry@?$basic_ostream@DU?$char_traits@D@std@@@std@@QEAA@XZ DD imagerel $LN6
	DD	imagerel $LN6+139
	DD	imagerel $unwind$??1sentry@?$basic_ostream@DU?$char_traits@D@std@@@std@@QEAA@XZ
pdata	ENDS
;	COMDAT pdata
pdata	SEGMENT
$pdata$??Bsentry@?$basic_ostream@DU?$char_traits@D@std@@@std@@QEBA_NXZ DD imagerel $LN3
	DD	imagerel $LN3+75
	DD	imagerel $unwind$??Bsentry@?$basic_ostream@DU?$char_traits@D@std@@@std@@QEBA_NXZ
pdata	ENDS
;	COMDAT pdata
pdata	SEGMENT
$pdata$??$?0UMFSTState@MFST@@@?$allocator@PEAUMFSTState@MFST@@@std@@QEAA@AEBV?$allocator@UMFSTState@MFST@@@1@@Z DD imagerel $LN3
	DD	imagerel $LN3+76
	DD	imagerel $unwind$??$?0UMFSTState@MFST@@@?$allocator@PEAUMFSTState@MFST@@@std@@QEAA@AEBV?$allocator@UMFSTState@MFST@@@1@@Z
pdata	ENDS
;	COMDAT pdata
pdata	SEGMENT
$pdata$??$_Destroy_in_place@PEAUMFSTState@MFST@@@std@@YAXAEAPEAUMFSTState@MFST@@@Z DD imagerel $LN3
	DD	imagerel $LN3+65
	DD	imagerel $unwind$??$_Destroy_in_place@PEAUMFSTState@MFST@@@std@@YAXAEAPEAUMFSTState@MFST@@@Z
pdata	ENDS
;	COMDAT pdata
pdata	SEGMENT
$pdata$??$?0F@?$allocator@PEAF@std@@QEAA@AEBV?$allocator@F@1@@Z DD imagerel $LN3
	DD	imagerel $LN3+76
	DD	imagerel $unwind$??$?0F@?$allocator@PEAF@std@@QEAA@AEBV?$allocator@F@1@@Z
pdata	ENDS
;	COMDAT pdata
pdata	SEGMENT
$pdata$??$_Destroy_in_place@PEAF@std@@YAXAEAPEAF@Z DD imagerel $LN3
	DD	imagerel $LN3+65
	DD	imagerel $unwind$??$_Destroy_in_place@PEAF@std@@YAXAEAPEAF@Z
pdata	ENDS
;	COMDAT pdata
pdata	SEGMENT
$pdata$??$_Unfancy@UMFSTState@MFST@@@std@@YAPEAUMFSTState@MFST@@PEAU12@@Z DD imagerel $LN3
	DD	imagerel $LN3+71
	DD	imagerel $unwind$??$_Unfancy@UMFSTState@MFST@@@std@@YAPEAUMFSTState@MFST@@PEAU12@@Z
pdata	ENDS
;	COMDAT pdata
pdata	SEGMENT
$pdata$??$destroy@UMFSTState@MFST@@@?$_Default_allocator_traits@V?$allocator@UMFSTState@MFST@@@std@@@std@@SAXAEAV?$allocator@UMFSTState@MFST@@@1@QEAUMFSTState@MFST@@@Z DD imagerel $LN3
	DD	imagerel $LN3+83
	DD	imagerel $unwind$??$destroy@UMFSTState@MFST@@@?$_Default_allocator_traits@V?$allocator@UMFSTState@MFST@@@std@@@std@@SAXAEAV?$allocator@UMFSTState@MFST@@@1@QEAUMFSTState@MFST@@@Z
pdata	ENDS
;	COMDAT pdata
pdata	SEGMENT
$pdata$??$_Deallocate@$0BA@$0A@@std@@YAXPEAX_K@Z DD imagerel $LN4
	DD	imagerel $LN4+121
	DD	imagerel $unwind$??$_Deallocate@$0BA@$0A@@std@@YAXPEAX_K@Z
pdata	ENDS
;	COMDAT pdata
pdata	SEGMENT
$pdata$??$_Unfancy@F@std@@YAPEAFPEAF@Z DD imagerel $LN3
	DD	imagerel $LN3+71
	DD	imagerel $unwind$??$_Unfancy@F@std@@YAPEAFPEAF@Z
pdata	ENDS
;	COMDAT pdata
pdata	SEGMENT
$pdata$??$destroy@F@?$_Default_allocator_traits@V?$allocator@F@std@@@std@@SAXAEAV?$allocator@F@1@QEAF@Z DD imagerel $LN3
	DD	imagerel $LN3+69
	DD	imagerel $unwind$??$destroy@F@?$_Default_allocator_traits@V?$allocator@F@std@@@std@@SAXAEAV?$allocator@F@1@QEAF@Z
pdata	ENDS
;	COMDAT pdata
pdata	SEGMENT
$pdata$??$?G_JU?$ratio@$00$0DLJKMKAA@@std@@_JU01@@chrono@std@@YA?AV?$duration@_JU?$ratio@$00$0DLJKMKAA@@std@@@01@AEBV201@0@Z DD imagerel $LN3
	DD	imagerel $LN3+185
	DD	imagerel $unwind$??$?G_JU?$ratio@$00$0DLJKMKAA@@std@@_JU01@@chrono@std@@YA?AV?$duration@_JU?$ratio@$00$0DLJKMKAA@@std@@@01@AEBV201@0@Z
pdata	ENDS
;	COMDAT pdata
pdata	SEGMENT
$pdata$??$_Deallocate_plain@V?$allocator@U_Container_proxy@std@@@std@@@std@@YAXAEAV?$allocator@U_Container_proxy@std@@@0@QEAU_Container_proxy@0@@Z DD imagerel $LN3
	DD	imagerel $LN3+95
	DD	imagerel $unwind$??$_Deallocate_plain@V?$allocator@U_Container_proxy@std@@@std@@@std@@YAXAEAV?$allocator@U_Container_proxy@std@@@0@QEAU_Container_proxy@0@@Z
pdata	ENDS
;	COMDAT pdata
pdata	SEGMENT
$pdata$?deallocate@?$_Default_allocator_traits@V?$allocator@U_Container_proxy@std@@@std@@@std@@SAXAEAV?$allocator@U_Container_proxy@std@@@2@QEAU_Container_proxy@2@_K@Z DD imagerel $LN3
	DD	imagerel $LN3+97
	DD	imagerel $unwind$?deallocate@?$_Default_allocator_traits@V?$allocator@U_Container_proxy@std@@@std@@@std@@SAXAEAV?$allocator@U_Container_proxy@std@@@2@QEAU_Container_proxy@2@_K@Z
pdata	ENDS
;	COMDAT __real@41cdcd6500000000
CONST	SEGMENT
__real@41cdcd6500000000 DQ 041cdcd6500000000r	; 1e+09
CONST	ENDS
;	COMDAT __real@3ff0000000000000
CONST	SEGMENT
__real@3ff0000000000000 DQ 03ff0000000000000r	; 1
CONST	ENDS
;	COMDAT rtc$TMZ
rtc$TMZ	SEGMENT
_RTC_Shutdown.rtc$TMZ DQ FLAT:_RTC_Shutdown
rtc$TMZ	ENDS
;	COMDAT rtc$IMZ
rtc$IMZ	SEGMENT
_RTC_InitBase.rtc$IMZ DQ FLAT:_RTC_InitBase
rtc$IMZ	ENDS
;	COMDAT ??_C@_1BK@MHIKGOKE@?$AA?3?$AAA?$AAM?$AA?3?$AAa?$AAm?$AA?3?$AAP?$AAM?$AA?3?$AAp?$AAm@
CONST	SEGMENT
??_C@_1BK@MHIKGOKE@?$AA?3?$AAA?$AAM?$AA?3?$AAa?$AAm?$AA?3?$AAP?$AAM?$AA?3?$AAp?$AAm@ DB ':'
	DB	00H, 'A', 00H, 'M', 00H, ':', 00H, 'a', 00H, 'm', 00H, ':', 00H
	DB	'P', 00H, 'M', 00H, ':', 00H, 'p', 00H, 'm', 00H, 00H, 00H ; `string'
CONST	ENDS
;	COMDAT ??_C@_1HC@BNLMFKHI@?$AAs?$AAt?$AAd?$AA?3?$AA?3?$AAd?$AAe?$AAq?$AAu?$AAe?$AA?$DM?$AAs?$AAh?$AAo?$AAr@
CONST	SEGMENT
??_C@_1HC@BNLMFKHI@?$AAs?$AAt?$AAd?$AA?3?$AA?3?$AAd?$AAe?$AAq?$AAu?$AAe?$AA?$DM?$AAs?$AAh?$AAo?$AAr@ DB 's'
	DB	00H, 't', 00H, 'd', 00H, ':', 00H, ':', 00H, 'd', 00H, 'e', 00H
	DB	'q', 00H, 'u', 00H, 'e', 00H, '<', 00H, 's', 00H, 'h', 00H, 'o'
	DB	00H, 'r', 00H, 't', 00H, ',', 00H, 'c', 00H, 'l', 00H, 'a', 00H
	DB	's', 00H, 's', 00H, ' ', 00H, 's', 00H, 't', 00H, 'd', 00H, ':'
	DB	00H, ':', 00H, 'a', 00H, 'l', 00H, 'l', 00H, 'o', 00H, 'c', 00H
	DB	'a', 00H, 't', 00H, 'o', 00H, 'r', 00H, '<', 00H, 's', 00H, 'h'
	DB	00H, 'o', 00H, 'r', 00H, 't', 00H, '>', 00H, ' ', 00H, '>', 00H
	DB	':', 00H, ':', 00H, 'p', 00H, 'o', 00H, 'p', 00H, '_', 00H, 'b'
	DB	00H, 'a', 00H, 'c', 00H, 'k', 00H, 00H, 00H	; `string'
CONST	ENDS
;	COMDAT ??_C@_1DC@NJAACHCD@?$AA?$CC?$AAd?$AAe?$AAq?$AAu?$AAe?$AA?5?$AAe?$AAm?$AAp?$AAt?$AAy?$AA?5?$AAb?$AAe@
CONST	SEGMENT
??_C@_1DC@NJAACHCD@?$AA?$CC?$AAd?$AAe?$AAq?$AAu?$AAe?$AA?5?$AAe?$AAm?$AAp?$AAt?$AAy?$AA?5?$AAb?$AAe@ DB '"'
	DB	00H, 'd', 00H, 'e', 00H, 'q', 00H, 'u', 00H, 'e', 00H, ' ', 00H
	DB	'e', 00H, 'm', 00H, 'p', 00H, 't', 00H, 'y', 00H, ' ', 00H, 'b'
	DB	00H, 'e', 00H, 'f', 00H, 'o', 00H, 'r', 00H, 'e', 00H, ' ', 00H
	DB	'p', 00H, 'o', 00H, 'p', 00H, '"', 00H, 00H, 00H ; `string'
CONST	ENDS
;	COMDAT ??_C@_1LG@NKGJEFF@?$AAs?$AAt?$AAd?$AA?3?$AA?3?$AAd?$AAe?$AAq?$AAu?$AAe?$AA?$DM?$AAs?$AAt?$AAr?$AAu@
CONST	SEGMENT
??_C@_1LG@NKGJEFF@?$AAs?$AAt?$AAd?$AA?3?$AA?3?$AAd?$AAe?$AAq?$AAu?$AAe?$AA?$DM?$AAs?$AAt?$AAr?$AAu@ DB 's'
	DB	00H, 't', 00H, 'd', 00H, ':', 00H, ':', 00H, 'd', 00H, 'e', 00H
	DB	'q', 00H, 'u', 00H, 'e', 00H, '<', 00H, 's', 00H, 't', 00H, 'r'
	DB	00H, 'u', 00H, 'c', 00H, 't', 00H, ' ', 00H, 'M', 00H, 'F', 00H
	DB	'S', 00H, 'T', 00H, ':', 00H, ':', 00H, 'M', 00H, 'F', 00H, 'S'
	DB	00H, 'T', 00H, 'S', 00H, 't', 00H, 'a', 00H, 't', 00H, 'e', 00H
	DB	',', 00H, 'c', 00H, 'l', 00H, 'a', 00H, 's', 00H, 's', 00H, ' '
	DB	00H, 's', 00H, 't', 00H, 'd', 00H, ':', 00H, ':', 00H, 'a', 00H
	DB	'l', 00H, 'l', 00H, 'o', 00H, 'c', 00H, 'a', 00H, 't', 00H, 'o'
	DB	00H, 'r', 00H, '<', 00H, 's', 00H, 't', 00H, 'r', 00H, 'u', 00H
	DB	'c', 00H, 't', 00H, ' ', 00H, 'M', 00H, 'F', 00H, 'S', 00H, 'T'
	DB	00H, ':', 00H, ':', 00H, 'M', 00H, 'F', 00H, 'S', 00H, 'T', 00H
	DB	'S', 00H, 't', 00H, 'a', 00H, 't', 00H, 'e', 00H, '>', 00H, ' '
	DB	00H, '>', 00H, ':', 00H, ':', 00H, 'p', 00H, 'o', 00H, 'p', 00H
	DB	'_', 00H, 'b', 00H, 'a', 00H, 'c', 00H, 'k', 00H, 00H, 00H ; `string'
CONST	ENDS
;	COMDAT ??_C@_1MO@ONLEFNNG@?$AAC?$AA?3?$AA?2?$AAP?$AAr?$AAo?$AAg?$AAr?$AAa?$AAm?$AA?5?$AAF?$AAi?$AAl?$AAe@
CONST	SEGMENT
??_C@_1MO@ONLEFNNG@?$AAC?$AA?3?$AA?2?$AAP?$AAr?$AAo?$AAg?$AAr?$AAa?$AAm?$AA?5?$AAF?$AAi?$AAl?$AAe@ DB 'C'
	DB	00H, ':', 00H, '\', 00H, 'P', 00H, 'r', 00H, 'o', 00H, 'g', 00H
	DB	'r', 00H, 'a', 00H, 'm', 00H, ' ', 00H, 'F', 00H, 'i', 00H, 'l'
	DB	00H, 'e', 00H, 's', 00H, ' ', 00H, '(', 00H, 'x', 00H, '8', 00H
	DB	'6', 00H, ')', 00H, '\', 00H, 'M', 00H, 'i', 00H, 'c', 00H, 'r'
	DB	00H, 'o', 00H, 's', 00H, 'o', 00H, 'f', 00H, 't', 00H, ' ', 00H
	DB	'V', 00H, 'i', 00H, 's', 00H, 'u', 00H, 'a', 00H, 'l', 00H, ' '
	DB	00H, 'S', 00H, 't', 00H, 'u', 00H, 'd', 00H, 'i', 00H, 'o', 00H
	DB	'\', 00H, '2', 00H, '0', 00H, '1', 00H, '9', 00H, '\', 00H, 'E'
	DB	00H, 'n', 00H, 't', 00H, 'e', 00H, 'r', 00H, 'p', 00H, 'r', 00H
	DB	'i', 00H, 's', 00H, 'e', 00H, '\', 00H, 'V', 00H, 'C', 00H, '\'
	DB	00H, 'T', 00H, 'o', 00H, 'o', 00H, 'l', 00H, 's', 00H, '\', 00H
	DB	'M', 00H, 'S', 00H, 'V', 00H, 'C', 00H, '\', 00H, '1', 00H, '4'
	DB	00H, '.', 00H, '2', 00H, '7', 00H, '.', 00H, '2', 00H, '9', 00H
	DB	'1', 00H, '1', 00H, '0', 00H, '\', 00H, 'i', 00H, 'n', 00H, 'c'
	DB	00H, 'l', 00H, 'u', 00H, 'd', 00H, 'e', 00H, '\', 00H, 'd', 00H
	DB	'e', 00H, 'q', 00H, 'u', 00H, 'e', 00H, 00H, 00H ; `string'
CONST	ENDS
;	COMDAT ??_C@_0GH@OBALDB@C?3?2Program?5Files?5?$CIx86?$CJ?2Microsof@
CONST	SEGMENT
??_C@_0GH@OBALDB@C?3?2Program?5Files?5?$CIx86?$CJ?2Microsof@ DB 'C:\Progr'
	DB	'am Files (x86)\Microsoft Visual Studio\2019\Enterprise\VC\Too'
	DB	'ls\MSVC\14.27.29110\include\deque', 00H	; `string'
CONST	ENDS
;	COMDAT ??_C@_0BH@EDKEEENI@deque?5empty?5before?5pop@
CONST	SEGMENT
??_C@_0BH@EDKEEENI@deque?5empty?5before?5pop@ DB 'deque empty before pop', 00H ; `string'
CONST	ENDS
;	COMDAT ??_C@_0N@LPFKKEBD@?3AM?3am?3PM?3pm@
CONST	SEGMENT
??_C@_0N@LPFKKEBD@?3AM?3am?3PM?3pm@ DB ':AM:am:PM:pm', 00H ; `string'
CONST	ENDS
;	COMDAT ??_C@_0DB@EFHCIJJE@?$CD?$CD?$CD?$CD?$CD?$CD?$CD?$CD?$CD?$CD?5?N?x?h?a?j?$OA?0?5?o?p?n?b?e?p?$PM?r?e?5?k?n@
CONST	SEGMENT
??_C@_0DB@EFHCIJJE@?$CD?$CD?$CD?$CD?$CD?$CD?$CD?$CD?$CD?$CD?5?N?x?h?a?j?$OA?0?5?o?p?n?b?e?p?$PM?r?e?5?k?n@ DB '#'
	DB	'######### ', 0ceH, 0f8H, 0e8H, 0e1H, 0eaH, 0e0H, ', ', 0efH, 0f0H
	DB	0eeH, 0e2H, 0e5H, 0f0H, 0fcH, 0f2H, 0e5H, ' ', 0ebH, 0eeH, 0e3H
	DB	'-', 0f4H, 0e0H, 0e9H, 0ebH, ' ##########', 00H ; `string'
CONST	ENDS
;	COMDAT ??_R0?AUERROR@Error@@@8
data$r	SEGMENT
??_R0?AUERROR@Error@@@8 DQ FLAT:??_7type_info@@6B@	; Error::ERROR `RTTI Type Descriptor'
	DQ	0000000000000000H
	DB	'.?AUERROR@Error@@', 00H
data$r	ENDS
;	COMDAT ??_C@_0CH@DHDBONCL@?$DO?$DO?$DO?$DO?$DO?$DO?$DO?$DO?$DO?$DO?5?R?p?$OA?m?q?k?$PP?v?h?$PP?5?b?$PL?o?n?k?m?e?m?$OA@
CONST	SEGMENT
??_C@_0CH@DHDBONCL@?$DO?$DO?$DO?$DO?$DO?$DO?$DO?$DO?$DO?$DO?5?R?p?$OA?m?q?k?$PP?v?h?$PP?5?b?$PL?o?n?k?m?e?m?$OA@ DB '>'
	DB	'>>>>>>>>> ', 0d2H, 0f0H, 0e0H, 0edH, 0f1H, 0ebH, 0ffH, 0f6H, 0e8H
	DB	0ffH, ' ', 0e2H, 0fbH, 0efH, 0eeH, 0ebH, 0edH, 0e5H, 0edH, 0e0H
	DB	' ', 0e7H, 0e0H, ' : ', 09H, 00H		; `string'
CONST	ENDS
;	COMDAT ??_C@_1BI@GDHAEKGD@?$AAf?$AAi?$AAl?$AAe?$AA?4?$AAi?$AAd?$AA?4?$AAt?$AAx?$AAt@
CONST	SEGMENT
??_C@_1BI@GDHAEKGD@?$AAf?$AAi?$AAl?$AAe?$AA?4?$AAi?$AAd?$AA?4?$AAt?$AAx?$AAt@ DB 'f'
	DB	00H, 'i', 00H, 'l', 00H, 'e', 00H, '.', 00H, 'i', 00H, 'd', 00H
	DB	'.', 00H, 't', 00H, 'x', 00H, 't', 00H, 00H, 00H ; `string'
CONST	ENDS
;	COMDAT ??_C@_0BO@KNGBNNFA@?$DO?$DO?$DO?$DO?$DO?$DO?$DO?$DO?$DO?$DO?5?C?e?m?e?p?$OA?v?h?$PP?5?j?n?d?$OA?3?5?7?7@
CONST	SEGMENT
??_C@_0BO@KNGBNNFA@?$DO?$DO?$DO?$DO?$DO?$DO?$DO?$DO?$DO?$DO?5?C?e?m?e?p?$OA?v?h?$PP?5?j?n?d?$OA?3?5?7?7@ DB '>'
	DB	'>>>>>>>>> ', 0c3H, 0e5H, 0edH, 0e5H, 0f0H, 0e0H, 0f6H, 0e8H, 0ffH
	DB	' ', 0eaH, 0eeH, 0e4H, 0e0H, ': ', 09H, 09H, 00H ; `string'
CONST	ENDS
;	COMDAT ??_C@_04CFKJMFP@?q?e?j?4@
CONST	SEGMENT
??_C@_04CFKJMFP@?q?e?j?4@ DB 0f1H, 0e5H, 0eaH, '.', 00H	; `string'
CONST	ENDS
;	COMDAT ??_C@_0CH@HNLPENJ@?$DO?$DO?$DO?$DO?$DO?$DO?$DO?$DO?$DO?$DO?5?O?p?e?n?a?p?$OA?g?n?b?$OA?m?h?e?5?b?$PL?p?$OA?f@
CONST	SEGMENT
??_C@_0CH@HNLPENJ@?$DO?$DO?$DO?$DO?$DO?$DO?$DO?$DO?$DO?$DO?5?O?p?e?n?a?p?$OA?g?n?b?$OA?m?h?e?5?b?$PL?p?$OA?f@ DB '>'
	DB	'>>>>>>>>> ', 0cfH, 0f0H, 0e5H, 0eeH, 0e1H, 0f0H, 0e0H, 0e7H, 0eeH
	DB	0e2H, 0e0H, 0edH, 0e8H, 0e5H, ' ', 0e2H, 0fbH, 0f0H, 0e0H, 0e6H
	DB	0e5H, 0edH, 0e8H, 0e9H, ': ', 09H, 00H	; `string'
CONST	ENDS
;	COMDAT ??_C@_0CH@BKLKOFGF@?$DO?$DO?$DO?$DO?$DO?$DO?$DO?$DO?$DO?$DO?5?Q?e?l?$OA?m?r?h?w?e?q?j?h?i?5?$OA?m?$OA?k?h?g@
CONST	SEGMENT
??_C@_0CH@BKLKOFGF@?$DO?$DO?$DO?$DO?$DO?$DO?$DO?$DO?$DO?$DO?5?Q?e?l?$OA?m?r?h?w?e?q?j?h?i?5?$OA?m?$OA?k?h?g@ DB '>'
	DB	'>>>>>>>>> ', 0d1H, 0e5H, 0ecH, 0e0H, 0edH, 0f2H, 0e8H, 0f7H, 0e5H
	DB	0f1H, 0eaH, 0e8H, 0e9H, ' ', 0e0H, 0edH, 0e0H, 0ebH, 0e8H, 0e7H
	DB	0e0H, 0f2H, 0eeH, 0f0H, ': ', 09H, 00H	; `string'
CONST	ENDS
;	COMDAT ??_C@_0CI@DKFHPLKL@?$DO?$DO?$DO?$DO?$DO?$DO?$DO?$DO?$DO?$DO?5C?h?m?r?$OA?j?q?h?w?e?q?j?h?i?5?$OA?m?$OA?k?h@
CONST	SEGMENT
??_C@_0CI@DKFHPLKL@?$DO?$DO?$DO?$DO?$DO?$DO?$DO?$DO?$DO?$DO?5C?h?m?r?$OA?j?q?h?w?e?q?j?h?i?5?$OA?m?$OA?k?h@ DB '>'
	DB	'>>>>>>>>> C', 0e8H, 0edH, 0f2H, 0e0H, 0eaH, 0f1H, 0e8H, 0f7H, 0e5H
	DB	0f1H, 0eaH, 0e8H, 0e9H, ' ', 0e0H, 0edH, 0e0H, 0ebH, 0e8H, 0e7H
	DB	0e0H, 0f2H, 0eeH, 0f0H, ': ', 09H, 00H	; `string'
CONST	ENDS
;	COMDAT ??_C@_0CF@OKKBGDDO@?$DO?$DO?$DO?$DO?$DO?$DO?$DO?$DO?$DO?$DO?5?K?e?j?q?h?w?e?q?j?h?i?5?$OA?m?$OA?k?h?g?$OA?r@
CONST	SEGMENT
??_C@_0CF@OKKBGDDO@?$DO?$DO?$DO?$DO?$DO?$DO?$DO?$DO?$DO?$DO?5?K?e?j?q?h?w?e?q?j?h?i?5?$OA?m?$OA?k?h?g?$OA?r@ DB '>'
	DB	'>>>>>>>>> ', 0cbH, 0e5H, 0eaH, 0f1H, 0e8H, 0f7H, 0e5H, 0f1H, 0eaH
	DB	0e8H, 0e9H, ' ', 0e0H, 0edH, 0e0H, 0ebH, 0e8H, 0e7H, 0e0H, 0f2H
	DB	0eeH, 0f0H, ': ', 09H, 00H			; `string'
CONST	ENDS
;	COMDAT ??_C@_05HCBGMPNH@?5?q?e?j?4@
CONST	SEGMENT
??_C@_05HCBGMPNH@?5?q?e?j?4@ DB ' ', 0f1H, 0e5H, 0eaH, '.', 00H ; `string'
CONST	ENDS
;	COMDAT ??_C@_1O@HOPEEGNI@?$AA$?$AA0?$AA9?$AA?$DL?$AA?3?$AA?5@
CONST	SEGMENT
??_C@_1O@HOPEEGNI@?$AA$?$AA0?$AA9?$AA?$DL?$AA?3?$AA?5@ DB '$', 04H, '0', 04H
	DB	'9', 04H, ';', 04H, ':', 00H, ' ', 00H, 00H, 00H ; `string'
CONST	ENDS
;	COMDAT ??_C@_1BA@EGIFOAP@?$AAA?$AAG?$AA8?$AAB?$AA0?$AA?$DN?$AA?5@
CONST	SEGMENT
??_C@_1BA@EGIFOAP@?$AAA?$AAG?$AA8?$AAB?$AA0?$AA?$DN?$AA?5@ DB 'A', 04H, 'G'
	DB	04H, '8', 04H, 'B', 04H, '0', 04H, '=', 04H, ' ', 00H, 00H, 00H ; `string'
CONST	ENDS
;	COMDAT ??_C@_19LDAHGIGC@?$AA1?$AA5?$AA7?$AA?5@
CONST	SEGMENT
??_C@_19LDAHGIGC@?$AA1?$AA5?$AA7?$AA?5@ DB '1', 04H, '5', 04H, '7', 04H, ' '
	DB	00H, 00H, 00H				; `string'
CONST	ENDS
;	COMDAT ??_C@_1BA@BGIBCCML@?$AA?$DO?$AAH?$AA8?$AA1?$AA?$DO?$AA?3?$AA?5@
CONST	SEGMENT
??_C@_1BA@BGIBCCML@?$AA?$DO?$AAH?$AA8?$AA1?$AA?$DO?$AA?3?$AA?5@ DB '>', 04H
	DB	'H', 04H, '8', 04H, '1', 04H, '>', 04H, ':', 04H, ' ', 00H, 00H
	DB	00H						; `string'
CONST	ENDS
;	COMDAT ??_C@_11LOCGONAA@@
CONST	SEGMENT
??_C@_11LOCGONAA@@ DB 00H, 00H				; `string'
CONST	ENDS
;	COMDAT ??_C@_03EJKFMIHK@rus@
CONST	SEGMENT
??_C@_03EJKFMIHK@rus@ DB 'rus', 00H			; `string'
CONST	ENDS
;	COMDAT ??_C@_0GJ@GMBHIGPF@C?3?2Program?5Files?5?$CIx86?$CJ?2Microsof@
CONST	SEGMENT
??_C@_0GJ@GMBHIGPF@C?3?2Program?5Files?5?$CIx86?$CJ?2Microsof@ DB 'C:\Pro'
	DB	'gram Files (x86)\Microsoft Visual Studio\2019\Enterprise\VC\T'
	DB	'ools\MSVC\14.27.29110\include\xlocnum', 00H	; `string'
CONST	ENDS
;	COMDAT ?__LINE__Var@?0??_Maklocwcs@std@@YAPEA_WPEB_W@Z@4JA
_DATA	SEGMENT
?__LINE__Var@?0??_Maklocwcs@std@@YAPEA_WPEB_W@Z@4JA DD 05aH ; `std::_Maklocwcs'::`1'::__LINE__Var
_DATA	ENDS
;	COMDAT ??_C@_0GJ@OPFKIEFE@C?3?2Program?5Files?5?$CIx86?$CJ?2Microsof@
CONST	SEGMENT
??_C@_0GJ@OPFKIEFE@C?3?2Program?5Files?5?$CIx86?$CJ?2Microsof@ DB 'C:\Pro'
	DB	'gram Files (x86)\Microsoft Visual Studio\2019\Enterprise\VC\T'
	DB	'ools\MSVC\14.27.29110\include\xlocale', 00H	; `string'
CONST	ENDS
;	COMDAT ??_C@_1CG@JNLFBNGN@?$AA?$CC?$AAi?$AAn?$AAv?$AAa?$AAl?$AAi?$AAd?$AA?5?$AAa?$AAr?$AAg?$AAu?$AAm?$AAe@
CONST	SEGMENT
??_C@_1CG@JNLFBNGN@?$AA?$CC?$AAi?$AAn?$AAv?$AAa?$AAl?$AAi?$AAd?$AA?5?$AAa?$AAr?$AAg?$AAu?$AAm?$AAe@ DB '"'
	DB	00H, 'i', 00H, 'n', 00H, 'v', 00H, 'a', 00H, 'l', 00H, 'i', 00H
	DB	'd', 00H, ' ', 00H, 'a', 00H, 'r', 00H, 'g', 00H, 'u', 00H, 'm'
	DB	00H, 'e', 00H, 'n', 00H, 't', 00H, '"', 00H, 00H, 00H ; `string'
CONST	ENDS
;	COMDAT ??_C@_1EK@NIFDJFDG@?$AAs?$AAt?$AAd?$AA?3?$AA?3?$AA_?$AAA?$AAd?$AAj?$AAu?$AAs?$AAt?$AA_?$AAm?$AAa@
CONST	SEGMENT
??_C@_1EK@NIFDJFDG@?$AAs?$AAt?$AAd?$AA?3?$AA?3?$AA_?$AAA?$AAd?$AAj?$AAu?$AAs?$AAt?$AA_?$AAm?$AAa@ DB 's'
	DB	00H, 't', 00H, 'd', 00H, ':', 00H, ':', 00H, '_', 00H, 'A', 00H
	DB	'd', 00H, 'j', 00H, 'u', 00H, 's', 00H, 't', 00H, '_', 00H, 'm'
	DB	00H, 'a', 00H, 'n', 00H, 'u', 00H, 'a', 00H, 'l', 00H, 'l', 00H
	DB	'y', 00H, '_', 00H, 'v', 00H, 'e', 00H, 'c', 00H, 't', 00H, 'o'
	DB	00H, 'r', 00H, '_', 00H, 'a', 00H, 'l', 00H, 'i', 00H, 'g', 00H
	DB	'n', 00H, 'e', 00H, 'd', 00H, 00H, 00H	; `string'
CONST	ENDS
;	COMDAT ??_C@_1NC@LBGPBFDE@?$AAC?$AA?3?$AA?2?$AAP?$AAr?$AAo?$AAg?$AAr?$AAa?$AAm?$AA?5?$AAF?$AAi?$AAl?$AAe@
CONST	SEGMENT
??_C@_1NC@LBGPBFDE@?$AAC?$AA?3?$AA?2?$AAP?$AAr?$AAo?$AAg?$AAr?$AAa?$AAm?$AA?5?$AAF?$AAi?$AAl?$AAe@ DB 'C'
	DB	00H, ':', 00H, '\', 00H, 'P', 00H, 'r', 00H, 'o', 00H, 'g', 00H
	DB	'r', 00H, 'a', 00H, 'm', 00H, ' ', 00H, 'F', 00H, 'i', 00H, 'l'
	DB	00H, 'e', 00H, 's', 00H, ' ', 00H, '(', 00H, 'x', 00H, '8', 00H
	DB	'6', 00H, ')', 00H, '\', 00H, 'M', 00H, 'i', 00H, 'c', 00H, 'r'
	DB	00H, 'o', 00H, 's', 00H, 'o', 00H, 'f', 00H, 't', 00H, ' ', 00H
	DB	'V', 00H, 'i', 00H, 's', 00H, 'u', 00H, 'a', 00H, 'l', 00H, ' '
	DB	00H, 'S', 00H, 't', 00H, 'u', 00H, 'd', 00H, 'i', 00H, 'o', 00H
	DB	'\', 00H, '2', 00H, '0', 00H, '1', 00H, '9', 00H, '\', 00H, 'E'
	DB	00H, 'n', 00H, 't', 00H, 'e', 00H, 'r', 00H, 'p', 00H, 'r', 00H
	DB	'i', 00H, 's', 00H, 'e', 00H, '\', 00H, 'V', 00H, 'C', 00H, '\'
	DB	00H, 'T', 00H, 'o', 00H, 'o', 00H, 'l', 00H, 's', 00H, '\', 00H
	DB	'M', 00H, 'S', 00H, 'V', 00H, 'C', 00H, '\', 00H, '1', 00H, '4'
	DB	00H, '.', 00H, '2', 00H, '7', 00H, '.', 00H, '2', 00H, '9', 00H
	DB	'1', 00H, '1', 00H, '0', 00H, '\', 00H, 'i', 00H, 'n', 00H, 'c'
	DB	00H, 'l', 00H, 'u', 00H, 'd', 00H, 'e', 00H, '\', 00H, 'x', 00H
	DB	'm', 00H, 'e', 00H, 'm', 00H, 'o', 00H, 'r', 00H, 'y', 00H, 00H
	DB	00H						; `string'
CONST	ENDS
;	COMDAT ??_C@_0GJ@EHJGLGPD@C?3?2Program?5Files?5?$CIx86?$CJ?2Microsof@
CONST	SEGMENT
??_C@_0GJ@EHJGLGPD@C?3?2Program?5Files?5?$CIx86?$CJ?2Microsof@ DB 'C:\Pro'
	DB	'gram Files (x86)\Microsoft Visual Studio\2019\Enterprise\VC\T'
	DB	'ools\MSVC\14.27.29110\include\xmemory', 00H	; `string'
CONST	ENDS
;	COMDAT ??_C@_02DKCKIIND@?$CFs@
CONST	SEGMENT
??_C@_02DKCKIIND@?$CFs@ DB '%s', 00H			; `string'
CONST	ENDS
;	COMDAT ??_C@_0BB@FCMFBGOM@invalid?5argument@
CONST	SEGMENT
??_C@_0BB@FCMFBGOM@invalid?5argument@ DB 'invalid argument', 00H ; `string'
CONST	ENDS
;	COMDAT ?__LINE__Var@?0??_Adjust_manually_vector_aligned@std@@YAXAEAPEAXAEA_K@Z@4JA
_DATA	SEGMENT
?__LINE__Var@?0??_Adjust_manually_vector_aligned@std@@YAXAEAPEAXAEA_K@Z@4JA DD 084H ; `std::_Adjust_manually_vector_aligned'::`1'::__LINE__Var
_DATA	ENDS
;	COMDAT xdata
xdata	SEGMENT
$unwind$?deallocate@?$_Default_allocator_traits@V?$allocator@U_Container_proxy@std@@@std@@@std@@SAXAEAV?$allocator@U_Container_proxy@std@@@2@QEAU_Container_proxy@2@_K@Z DD 025053401H
	DD	0118231dH
	DD	07011001dH
	DD	05010H
xdata	ENDS
;	COMDAT xdata
xdata	SEGMENT
$ip2state$??$_Deallocate_plain@V?$allocator@U_Container_proxy@std@@@std@@@std@@YAXAEAV?$allocator@U_Container_proxy@std@@@0@QEAU_Container_proxy@0@@Z DB 02H
	DB	00H
	DB	00H
xdata	ENDS
;	COMDAT xdata
xdata	SEGMENT
$cppxdata$??$_Deallocate_plain@V?$allocator@U_Container_proxy@std@@@std@@@std@@YAXAEAV?$allocator@U_Container_proxy@std@@@0@QEAU_Container_proxy@0@@Z DB 060H
	DD	imagerel $ip2state$??$_Deallocate_plain@V?$allocator@U_Container_proxy@std@@@std@@@std@@YAXAEAV?$allocator@U_Container_proxy@std@@@0@QEAU_Container_proxy@0@@Z
xdata	ENDS
;	COMDAT xdata
xdata	SEGMENT
$unwind$??$_Deallocate_plain@V?$allocator@U_Container_proxy@std@@@std@@@std@@YAXAEAV?$allocator@U_Container_proxy@std@@@0@QEAU_Container_proxy@0@@Z DD 025052f19H
	DD	01132318H
	DD	0700c001dH
	DD	0500bH
	DD	imagerel __CxxFrameHandler4
	DD	imagerel $cppxdata$??$_Deallocate_plain@V?$allocator@U_Container_proxy@std@@@std@@@std@@YAXAEAV?$allocator@U_Container_proxy@std@@@0@QEAU_Container_proxy@0@@Z
xdata	ENDS
;	COMDAT xdata
xdata	SEGMENT
$ip2state$??$?G_JU?$ratio@$00$0DLJKMKAA@@std@@_JU01@@chrono@std@@YA?AV?$duration@_JU?$ratio@$00$0DLJKMKAA@@std@@@01@AEBV201@0@Z DB 02H
	DB	00H
	DB	00H
xdata	ENDS
;	COMDAT xdata
xdata	SEGMENT
$cppxdata$??$?G_JU?$ratio@$00$0DLJKMKAA@@std@@_JU01@@chrono@std@@YA?AV?$duration@_JU?$ratio@$00$0DLJKMKAA@@std@@@01@AEBV201@0@Z DB 060H
	DD	imagerel $ip2state$??$?G_JU?$ratio@$00$0DLJKMKAA@@std@@_JU01@@chrono@std@@YA?AV?$duration@_JU?$ratio@$00$0DLJKMKAA@@std@@@01@AEBV201@0@Z
xdata	ENDS
;	COMDAT xdata
xdata	SEGMENT
$unwind$??$?G_JU?$ratio@$00$0DLJKMKAA@@std@@_JU01@@chrono@std@@YA?AV?$duration@_JU?$ratio@$00$0DLJKMKAA@@std@@@01@AEBV201@0@Z DD 025053419H
	DD	0118231dH
	DD	070110029H
	DD	05010H
	DD	imagerel __CxxFrameHandler4
	DD	imagerel $cppxdata$??$?G_JU?$ratio@$00$0DLJKMKAA@@std@@_JU01@@chrono@std@@YA?AV?$duration@_JU?$ratio@$00$0DLJKMKAA@@std@@@01@AEBV201@0@Z
xdata	ENDS
;	COMDAT xdata
xdata	SEGMENT
$unwind$??$destroy@F@?$_Default_allocator_traits@V?$allocator@F@std@@@std@@SAXAEAV?$allocator@F@1@QEAF@Z DD 025052f01H
	DD	01132318H
	DD	0700c001dH
	DD	0500bH
xdata	ENDS
;	COMDAT xdata
xdata	SEGMENT
$ip2state$??$_Unfancy@F@std@@YAPEAFPEAF@Z DB 02H
	DB	00H
	DB	00H
xdata	ENDS
;	COMDAT xdata
xdata	SEGMENT
$cppxdata$??$_Unfancy@F@std@@YAPEAFPEAF@Z DB 060H
	DD	imagerel $ip2state$??$_Unfancy@F@std@@YAPEAFPEAF@Z
xdata	ENDS
;	COMDAT xdata
xdata	SEGMENT
$unwind$??$_Unfancy@F@std@@YAPEAFPEAF@Z DD 025052a19H
	DD	010e2313H
	DD	07007001dH
	DD	05006H
	DD	imagerel __CxxFrameHandler4
	DD	imagerel $cppxdata$??$_Unfancy@F@std@@YAPEAFPEAF@Z
xdata	ENDS
;	COMDAT xdata
xdata	SEGMENT
$ip2state$??$_Deallocate@$0BA@$0A@@std@@YAXPEAX_K@Z DB 02H
	DB	00H
	DB	00H
xdata	ENDS
;	COMDAT xdata
xdata	SEGMENT
$cppxdata$??$_Deallocate@$0BA@$0A@@std@@YAXPEAX_K@Z DB 060H
	DD	imagerel $ip2state$??$_Deallocate@$0BA@$0A@@std@@YAXPEAX_K@Z
xdata	ENDS
;	COMDAT xdata
xdata	SEGMENT
$unwind$??$_Deallocate@$0BA@$0A@@std@@YAXPEAX_K@Z DD 025052f19H
	DD	01132318H
	DD	0700c001dH
	DD	0500bH
	DD	imagerel __CxxFrameHandler4
	DD	imagerel $cppxdata$??$_Deallocate@$0BA@$0A@@std@@YAXPEAX_K@Z
xdata	ENDS
;	COMDAT xdata
xdata	SEGMENT
$unwind$??$destroy@UMFSTState@MFST@@@?$_Default_allocator_traits@V?$allocator@UMFSTState@MFST@@@std@@@std@@SAXAEAV?$allocator@UMFSTState@MFST@@@1@QEAUMFSTState@MFST@@@Z DD 025052f01H
	DD	01132318H
	DD	0700c001dH
	DD	0500bH
xdata	ENDS
;	COMDAT xdata
xdata	SEGMENT
$ip2state$??$_Unfancy@UMFSTState@MFST@@@std@@YAPEAUMFSTState@MFST@@PEAU12@@Z DB 02H
	DB	00H
	DB	00H
xdata	ENDS
;	COMDAT xdata
xdata	SEGMENT
$cppxdata$??$_Unfancy@UMFSTState@MFST@@@std@@YAPEAUMFSTState@MFST@@PEAU12@@Z DB 060H
	DD	imagerel $ip2state$??$_Unfancy@UMFSTState@MFST@@@std@@YAPEAUMFSTState@MFST@@PEAU12@@Z
xdata	ENDS
;	COMDAT xdata
xdata	SEGMENT
$unwind$??$_Unfancy@UMFSTState@MFST@@@std@@YAPEAUMFSTState@MFST@@PEAU12@@Z DD 025052a19H
	DD	010e2313H
	DD	07007001dH
	DD	05006H
	DD	imagerel __CxxFrameHandler4
	DD	imagerel $cppxdata$??$_Unfancy@UMFSTState@MFST@@@std@@YAPEAUMFSTState@MFST@@PEAU12@@Z
xdata	ENDS
;	COMDAT xdata
xdata	SEGMENT
$ip2state$??$_Destroy_in_place@PEAF@std@@YAXAEAPEAF@Z DB 02H
	DB	00H
	DB	00H
xdata	ENDS
;	COMDAT xdata
xdata	SEGMENT
$cppxdata$??$_Destroy_in_place@PEAF@std@@YAXAEAPEAF@Z DB 060H
	DD	imagerel $ip2state$??$_Destroy_in_place@PEAF@std@@YAXAEAPEAF@Z
xdata	ENDS
;	COMDAT xdata
xdata	SEGMENT
$unwind$??$_Destroy_in_place@PEAF@std@@YAXAEAPEAF@Z DD 025052a19H
	DD	010e2313H
	DD	07007001dH
	DD	05006H
	DD	imagerel __CxxFrameHandler4
	DD	imagerel $cppxdata$??$_Destroy_in_place@PEAF@std@@YAXAEAPEAF@Z
xdata	ENDS
;	COMDAT xdata
xdata	SEGMENT
$ip2state$??$?0F@?$allocator@PEAF@std@@QEAA@AEBV?$allocator@F@1@@Z DB 02H
	DB	00H
	DB	00H
xdata	ENDS
;	COMDAT xdata
xdata	SEGMENT
$cppxdata$??$?0F@?$allocator@PEAF@std@@QEAA@AEBV?$allocator@F@1@@Z DB 060H
	DD	imagerel $ip2state$??$?0F@?$allocator@PEAF@std@@QEAA@AEBV?$allocator@F@1@@Z
xdata	ENDS
;	COMDAT xdata
xdata	SEGMENT
$unwind$??$?0F@?$allocator@PEAF@std@@QEAA@AEBV?$allocator@F@1@@Z DD 025052f19H
	DD	01132318H
	DD	0700c001dH
	DD	0500bH
	DD	imagerel __CxxFrameHandler4
	DD	imagerel $cppxdata$??$?0F@?$allocator@PEAF@std@@QEAA@AEBV?$allocator@F@1@@Z
xdata	ENDS
;	COMDAT xdata
xdata	SEGMENT
$ip2state$??$_Destroy_in_place@PEAUMFSTState@MFST@@@std@@YAXAEAPEAUMFSTState@MFST@@@Z DB 02H
	DB	00H
	DB	00H
xdata	ENDS
;	COMDAT xdata
xdata	SEGMENT
$cppxdata$??$_Destroy_in_place@PEAUMFSTState@MFST@@@std@@YAXAEAPEAUMFSTState@MFST@@@Z DB 060H
	DD	imagerel $ip2state$??$_Destroy_in_place@PEAUMFSTState@MFST@@@std@@YAXAEAPEAUMFSTState@MFST@@@Z
xdata	ENDS
;	COMDAT xdata
xdata	SEGMENT
$unwind$??$_Destroy_in_place@PEAUMFSTState@MFST@@@std@@YAXAEAPEAUMFSTState@MFST@@@Z DD 025052a19H
	DD	010e2313H
	DD	07007001dH
	DD	05006H
	DD	imagerel __CxxFrameHandler4
	DD	imagerel $cppxdata$??$_Destroy_in_place@PEAUMFSTState@MFST@@@std@@YAXAEAPEAUMFSTState@MFST@@@Z
xdata	ENDS
;	COMDAT xdata
xdata	SEGMENT
$ip2state$??$?0UMFSTState@MFST@@@?$allocator@PEAUMFSTState@MFST@@@std@@QEAA@AEBV?$allocator@UMFSTState@MFST@@@1@@Z DB 02H
	DB	00H
	DB	00H
xdata	ENDS
;	COMDAT xdata
xdata	SEGMENT
$cppxdata$??$?0UMFSTState@MFST@@@?$allocator@PEAUMFSTState@MFST@@@std@@QEAA@AEBV?$allocator@UMFSTState@MFST@@@1@@Z DB 060H
	DD	imagerel $ip2state$??$?0UMFSTState@MFST@@@?$allocator@PEAUMFSTState@MFST@@@std@@QEAA@AEBV?$allocator@UMFSTState@MFST@@@1@@Z
xdata	ENDS
;	COMDAT xdata
xdata	SEGMENT
$unwind$??$?0UMFSTState@MFST@@@?$allocator@PEAUMFSTState@MFST@@@std@@QEAA@AEBV?$allocator@UMFSTState@MFST@@@1@@Z DD 025052f19H
	DD	01132318H
	DD	0700c001dH
	DD	0500bH
	DD	imagerel __CxxFrameHandler4
	DD	imagerel $cppxdata$??$?0UMFSTState@MFST@@@?$allocator@PEAUMFSTState@MFST@@@std@@QEAA@AEBV?$allocator@UMFSTState@MFST@@@1@@Z
xdata	ENDS
;	COMDAT xdata
xdata	SEGMENT
$unwind$??Bsentry@?$basic_ostream@DU?$char_traits@D@std@@@std@@QEBA_NXZ DD 025052a01H
	DD	010e2313H
	DD	07007001dH
	DD	05006H
xdata	ENDS
;	COMDAT xdata
xdata	SEGMENT
$ip2state$??1sentry@?$basic_ostream@DU?$char_traits@D@std@@@std@@QEAA@XZ DB 02H
	DB	00H
	DB	00H
xdata	ENDS
;	COMDAT xdata
xdata	SEGMENT
$cppxdata$??1sentry@?$basic_ostream@DU?$char_traits@D@std@@@std@@QEAA@XZ DB 060H
	DD	imagerel $ip2state$??1sentry@?$basic_ostream@DU?$char_traits@D@std@@@std@@QEAA@XZ
xdata	ENDS
;	COMDAT xdata
xdata	SEGMENT
$unwind$??1sentry@?$basic_ostream@DU?$char_traits@D@std@@@std@@QEAA@XZ DD 025052a19H
	DD	010e2313H
	DD	070070021H
	DD	05006H
	DD	imagerel __CxxFrameHandler4
	DD	imagerel $cppxdata$??1sentry@?$basic_ostream@DU?$char_traits@D@std@@@std@@QEAA@XZ
xdata	ENDS
;	COMDAT xdata
xdata	SEGMENT
$unwind$?dtor$0@?0???0sentry@?$basic_ostream@DU?$char_traits@D@std@@@std@@QEAA@AEAV12@@Z@4HA DD 031001H
	DD	0700c4210H
	DD	0500bH
xdata	ENDS
;	COMDAT xdata
xdata	SEGMENT
$ip2state$??0sentry@?$basic_ostream@DU?$char_traits@D@std@@@std@@QEAA@AEAV12@@Z DB 06H
	DB	00H
	DB	00H
	DB	09eH
	DB	02H
	DB	0f1H, 02H
	DB	00H
xdata	ENDS
;	COMDAT xdata
xdata	SEGMENT
$stateUnwindMap$??0sentry@?$basic_ostream@DU?$char_traits@D@std@@@std@@QEAA@AEAV12@@Z DB 02H
	DB	0eH
	DD	imagerel ?dtor$0@?0???0sentry@?$basic_ostream@DU?$char_traits@D@std@@@std@@QEAA@AEAV12@@Z@4HA
xdata	ENDS
;	COMDAT xdata
xdata	SEGMENT
$cppxdata$??0sentry@?$basic_ostream@DU?$char_traits@D@std@@@std@@QEAA@AEAV12@@Z DB 028H
	DD	imagerel $stateUnwindMap$??0sentry@?$basic_ostream@DU?$char_traits@D@std@@@std@@QEAA@AEAV12@@Z
	DD	imagerel $ip2state$??0sentry@?$basic_ostream@DU?$char_traits@D@std@@@std@@QEAA@AEAV12@@Z
xdata	ENDS
;	COMDAT xdata
xdata	SEGMENT
$unwind$??0sentry@?$basic_ostream@DU?$char_traits@D@std@@@std@@QEAA@AEAV12@@Z DD 025052f11H
	DD	01132318H
	DD	0700c0021H
	DD	0500bH
	DD	imagerel __CxxFrameHandler4
	DD	imagerel $cppxdata$??0sentry@?$basic_ostream@DU?$char_traits@D@std@@@std@@QEAA@AEAV12@@Z
xdata	ENDS
;	COMDAT xdata
xdata	SEGMENT
$ip2state$??1_Sentry_base@?$basic_ostream@DU?$char_traits@D@std@@@std@@QEAA@XZ DB 02H
	DB	00H
	DB	00H
xdata	ENDS
;	COMDAT xdata
xdata	SEGMENT
$cppxdata$??1_Sentry_base@?$basic_ostream@DU?$char_traits@D@std@@@std@@QEAA@XZ DB 060H
	DD	imagerel $ip2state$??1_Sentry_base@?$basic_ostream@DU?$char_traits@D@std@@@std@@QEAA@XZ
xdata	ENDS
;	COMDAT xdata
xdata	SEGMENT
$unwind$??1_Sentry_base@?$basic_ostream@DU?$char_traits@D@std@@@std@@QEAA@XZ DD 025052a19H
	DD	010e2313H
	DD	070070021H
	DD	05006H
	DD	imagerel __CxxFrameHandler4
	DD	imagerel $cppxdata$??1_Sentry_base@?$basic_ostream@DU?$char_traits@D@std@@@std@@QEAA@XZ
xdata	ENDS
;	COMDAT xdata
xdata	SEGMENT
$unwind$??0_Sentry_base@?$basic_ostream@DU?$char_traits@D@std@@@std@@QEAA@AEAV12@@Z DD 025052f01H
	DD	01132318H
	DD	0700c0021H
	DD	0500bH
xdata	ENDS
;	COMDAT xdata
xdata	SEGMENT
$ip2state$??$?0F@?$allocator@U_Container_proxy@std@@@std@@QEAA@AEBV?$allocator@F@1@@Z DB 02H
	DB	00H
	DB	00H
xdata	ENDS
;	COMDAT xdata
xdata	SEGMENT
$cppxdata$??$?0F@?$allocator@U_Container_proxy@std@@@std@@QEAA@AEBV?$allocator@F@1@@Z DB 060H
	DD	imagerel $ip2state$??$?0F@?$allocator@U_Container_proxy@std@@@std@@QEAA@AEBV?$allocator@F@1@@Z
xdata	ENDS
;	COMDAT xdata
xdata	SEGMENT
$unwind$??$?0F@?$allocator@U_Container_proxy@std@@@std@@QEAA@AEBV?$allocator@F@1@@Z DD 025052f19H
	DD	01132318H
	DD	0700c001dH
	DD	0500bH
	DD	imagerel __CxxFrameHandler4
	DD	imagerel $cppxdata$??$?0F@?$allocator@U_Container_proxy@std@@@std@@QEAA@AEBV?$allocator@F@1@@Z
xdata	ENDS
;	COMDAT xdata
xdata	SEGMENT
$ip2state$??$_Delete_plain_internal@V?$allocator@U_Container_proxy@std@@@std@@@std@@YAXAEAV?$allocator@U_Container_proxy@std@@@0@QEAU_Container_proxy@0@@Z DB 02H
	DB	00H
	DB	00H
xdata	ENDS
;	COMDAT xdata
xdata	SEGMENT
$cppxdata$??$_Delete_plain_internal@V?$allocator@U_Container_proxy@std@@@std@@@std@@YAXAEAV?$allocator@U_Container_proxy@std@@@0@QEAU_Container_proxy@0@@Z DB 060H
	DD	imagerel $ip2state$??$_Delete_plain_internal@V?$allocator@U_Container_proxy@std@@@std@@@std@@YAXAEAV?$allocator@U_Container_proxy@std@@@0@QEAU_Container_proxy@0@@Z
xdata	ENDS
;	COMDAT xdata
xdata	SEGMENT
$unwind$??$_Delete_plain_internal@V?$allocator@U_Container_proxy@std@@@std@@@std@@YAXAEAV?$allocator@U_Container_proxy@std@@@0@QEAU_Container_proxy@0@@Z DD 025052f19H
	DD	01132318H
	DD	0700c001dH
	DD	0500bH
	DD	imagerel __CxxFrameHandler4
	DD	imagerel $cppxdata$??$_Delete_plain_internal@V?$allocator@U_Container_proxy@std@@@std@@@std@@YAXAEAV?$allocator@U_Container_proxy@std@@@0@QEAU_Container_proxy@0@@Z
xdata	ENDS
;	COMDAT xdata
xdata	SEGMENT
$ip2state$??$exchange@PEAU_Container_proxy@std@@$$T@std@@YAPEAU_Container_proxy@0@AEAPEAU10@$$QEA$$T@Z DB 02H
	DB	00H
	DB	00H
xdata	ENDS
;	COMDAT xdata
xdata	SEGMENT
$cppxdata$??$exchange@PEAU_Container_proxy@std@@$$T@std@@YAPEAU_Container_proxy@0@AEAPEAU10@$$QEA$$T@Z DB 060H
	DD	imagerel $ip2state$??$exchange@PEAU_Container_proxy@std@@$$T@std@@YAPEAU_Container_proxy@0@AEAPEAU10@$$QEA$$T@Z
xdata	ENDS
;	COMDAT xdata
xdata	SEGMENT
$unwind$??$exchange@PEAU_Container_proxy@std@@$$T@std@@YAPEAU_Container_proxy@0@AEAPEAU10@$$QEA$$T@Z DD 025052f19H
	DD	01132318H
	DD	0700c0021H
	DD	0500bH
	DD	imagerel __CxxFrameHandler4
	DD	imagerel $cppxdata$??$exchange@PEAU_Container_proxy@std@@$$T@std@@YAPEAU_Container_proxy@0@AEAPEAU10@$$QEA$$T@Z
xdata	ENDS
;	COMDAT xdata
xdata	SEGMENT
$ip2state$??$?0UMFSTState@MFST@@@?$allocator@U_Container_proxy@std@@@std@@QEAA@AEBV?$allocator@UMFSTState@MFST@@@1@@Z DB 02H
	DB	00H
	DB	00H
xdata	ENDS
;	COMDAT xdata
xdata	SEGMENT
$cppxdata$??$?0UMFSTState@MFST@@@?$allocator@U_Container_proxy@std@@@std@@QEAA@AEBV?$allocator@UMFSTState@MFST@@@1@@Z DB 060H
	DD	imagerel $ip2state$??$?0UMFSTState@MFST@@@?$allocator@U_Container_proxy@std@@@std@@QEAA@AEBV?$allocator@UMFSTState@MFST@@@1@@Z
xdata	ENDS
;	COMDAT xdata
xdata	SEGMENT
$unwind$??$?0UMFSTState@MFST@@@?$allocator@U_Container_proxy@std@@@std@@QEAA@AEBV?$allocator@UMFSTState@MFST@@@1@@Z DD 025052f19H
	DD	01132318H
	DD	0700c001dH
	DD	0500bH
	DD	imagerel __CxxFrameHandler4
	DD	imagerel $cppxdata$??$?0UMFSTState@MFST@@@?$allocator@U_Container_proxy@std@@@std@@QEAA@AEBV?$allocator@UMFSTState@MFST@@@1@@Z
xdata	ENDS
;	COMDAT xdata
xdata	SEGMENT
$unwind$??$endl@DU?$char_traits@D@std@@@std@@YAAEAV?$basic_ostream@DU?$char_traits@D@std@@@0@AEAV10@@Z DD 025052a01H
	DD	010e2313H
	DD	07007001dH
	DD	05006H
xdata	ENDS
;	COMDAT xdata
xdata	SEGMENT
$unwind$?catch$1@?0???$?6U?$char_traits@D@std@@@std@@YAAEAV?$basic_ostream@DU?$char_traits@D@std@@@0@AEAV10@PEBD@Z@4HA DD 031001H
	DD	0700c4210H
	DD	0500bH
xdata	ENDS
;	COMDAT xdata
xdata	SEGMENT
$unwind$?dtor$0@?0???$?6U?$char_traits@D@std@@@std@@YAAEAV?$basic_ostream@DU?$char_traits@D@std@@@0@AEAV10@PEBD@Z@4HA DD 031001H
	DD	0700c4210H
	DD	0500bH
xdata	ENDS
;	COMDAT xdata
xdata	SEGMENT
$ip2state$??$?6U?$char_traits@D@std@@@std@@YAAEAV?$basic_ostream@DU?$char_traits@D@std@@@0@AEAV10@PEBD@Z DB 0aH
	DB	00H
	DB	00H
	DB	'9', 04H
	DB	02H
	DB	'<'
	DB	04H
	DB	095H, 09H
	DB	02H
	DB	't'
	DB	00H
xdata	ENDS
;	COMDAT xdata
xdata	SEGMENT
$handlerMap$??$?6U?$char_traits@D@std@@@std@@YAAEAV?$basic_ostream@DU?$char_traits@D@std@@@0@AEAV10@PEBD@Z DB 02H
	DB	01H
	DB	080H
	DD	imagerel ?catch$1@?0???$?6U?$char_traits@D@std@@@std@@YAAEAV?$basic_ostream@DU?$char_traits@D@std@@@0@AEAV10@PEBD@Z@4HA
xdata	ENDS
;	COMDAT xdata
xdata	SEGMENT
$tryMap$??$?6U?$char_traits@D@std@@@std@@YAAEAV?$basic_ostream@DU?$char_traits@D@std@@@0@AEAV10@PEBD@Z DB 02H
	DB	02H
	DB	02H
	DB	04H
	DD	imagerel $handlerMap$??$?6U?$char_traits@D@std@@@std@@YAAEAV?$basic_ostream@DU?$char_traits@D@std@@@0@AEAV10@PEBD@Z
xdata	ENDS
;	COMDAT xdata
xdata	SEGMENT
$stateUnwindMap$??$?6U?$char_traits@D@std@@@std@@YAAEAV?$basic_ostream@DU?$char_traits@D@std@@@0@AEAV10@PEBD@Z DB 06H
	DB	0eH
	DD	imagerel ?dtor$0@?0???$?6U?$char_traits@D@std@@@std@@YAAEAV?$basic_ostream@DU?$char_traits@D@std@@@0@AEAV10@PEBD@Z@4HA
	DB	028H
	DB	030H
xdata	ENDS
;	COMDAT xdata
xdata	SEGMENT
$cppxdata$??$?6U?$char_traits@D@std@@@std@@YAAEAV?$basic_ostream@DU?$char_traits@D@std@@@0@AEAV10@PEBD@Z DB 038H
	DD	imagerel $stateUnwindMap$??$?6U?$char_traits@D@std@@@std@@YAAEAV?$basic_ostream@DU?$char_traits@D@std@@@0@AEAV10@PEBD@Z
	DD	imagerel $tryMap$??$?6U?$char_traits@D@std@@@std@@YAAEAV?$basic_ostream@DU?$char_traits@D@std@@@0@AEAV10@PEBD@Z
	DD	imagerel $ip2state$??$?6U?$char_traits@D@std@@@std@@YAAEAV?$basic_ostream@DU?$char_traits@D@std@@@0@AEAV10@PEBD@Z
xdata	ENDS
;	COMDAT xdata
xdata	SEGMENT
$unwind$??$?6U?$char_traits@D@std@@@std@@YAAEAV?$basic_ostream@DU?$char_traits@D@std@@@0@AEAV10@PEBD@Z DD 025054019H
	DD	01132318H
	DD	0700c0045H
	DD	0500bH
	DD	imagerel __GSHandlerCheck_EH4
	DD	imagerel $cppxdata$??$?6U?$char_traits@D@std@@@std@@YAAEAV?$basic_ostream@DU?$char_traits@D@std@@@0@AEAV10@PEBD@Z
	DD	021bH
xdata	ENDS
;	COMDAT CONST
CONST	SEGMENT
??$?6U?$char_traits@D@std@@@std@@YAAEAV?$basic_ostream@DU?$char_traits@D@std@@@0@AEAV10@PEBD@Z$rtcName$0 DB 05fH ; std::operator<<<std::char_traits<char> >
	DB	04fH
	DB	06bH
	DB	00H
	ORG $+12
??$?6U?$char_traits@D@std@@@std@@YAAEAV?$basic_ostream@DU?$char_traits@D@std@@@0@AEAV10@PEBD@Z$rtcVarDesc DD 088H ; std::operator<<<std::char_traits<char> >
	DD	010H
	DQ	FLAT:??$?6U?$char_traits@D@std@@@std@@YAAEAV?$basic_ostream@DU?$char_traits@D@std@@@0@AEAV10@PEBD@Z$rtcName$0
	ORG $+48
??$?6U?$char_traits@D@std@@@std@@YAAEAV?$basic_ostream@DU?$char_traits@D@std@@@0@AEAV10@PEBD@Z$rtcFrameData DD 01H ; std::operator<<<std::char_traits<char> >
	DD	00H
	DQ	FLAT:??$?6U?$char_traits@D@std@@@std@@YAAEAV?$basic_ostream@DU?$char_traits@D@std@@@0@AEAV10@PEBD@Z$rtcVarDesc
CONST	ENDS
;	COMDAT xdata
xdata	SEGMENT
$ip2state$??$?GUsteady_clock@chrono@std@@V?$duration@_JU?$ratio@$00$0DLJKMKAA@@std@@@12@V312@@chrono@std@@YA?AV?$duration@_JU?$ratio@$00$0DLJKMKAA@@std@@@01@AEBV?$time_point@Usteady_clock@chrono@std@@V?$duration@_JU?$ratio@$00$0DLJKMKAA@@std@@@23@@01@0@Z DB 02H
	DB	00H
	DB	00H
xdata	ENDS
;	COMDAT xdata
xdata	SEGMENT
$cppxdata$??$?GUsteady_clock@chrono@std@@V?$duration@_JU?$ratio@$00$0DLJKMKAA@@std@@@12@V312@@chrono@std@@YA?AV?$duration@_JU?$ratio@$00$0DLJKMKAA@@std@@@01@AEBV?$time_point@Usteady_clock@chrono@std@@V?$duration@_JU?$ratio@$00$0DLJKMKAA@@std@@@23@@01@0@Z DB 060H
	DD	imagerel $ip2state$??$?GUsteady_clock@chrono@std@@V?$duration@_JU?$ratio@$00$0DLJKMKAA@@std@@@12@V312@@chrono@std@@YA?AV?$duration@_JU?$ratio@$00$0DLJKMKAA@@std@@@01@AEBV?$time_point@Usteady_clock@chrono@std@@V?$duration@_JU?$ratio@$00$0DLJKMKAA@@std@@@23@@01@0@Z
xdata	ENDS
;	COMDAT xdata
xdata	SEGMENT
$unwind$??$?GUsteady_clock@chrono@std@@V?$duration@_JU?$ratio@$00$0DLJKMKAA@@std@@@12@V312@@chrono@std@@YA?AV?$duration@_JU?$ratio@$00$0DLJKMKAA@@std@@@01@AEBV?$time_point@Usteady_clock@chrono@std@@V?$duration@_JU?$ratio@$00$0DLJKMKAA@@std@@@23@@01@0@Z DD 025053419H
	DD	0118231dH
	DD	070110025H
	DD	05010H
	DD	imagerel __CxxFrameHandler4
	DD	imagerel $cppxdata$??$?GUsteady_clock@chrono@std@@V?$duration@_JU?$ratio@$00$0DLJKMKAA@@std@@@12@V312@@chrono@std@@YA?AV?$duration@_JU?$ratio@$00$0DLJKMKAA@@std@@@01@AEBV?$time_point@Usteady_clock@chrono@std@@V?$duration@_JU?$ratio@$00$0DLJKMKAA@@std@@@23@@01@0@Z
xdata	ENDS
;	COMDAT xdata
xdata	SEGMENT
$unwind$wmain$catch$1 DD 041101H
	DD	0700d5211H
	DD	0500b600cH
xdata	ENDS
;	COMDAT xdata
xdata	SEGMENT
$unwind$wmain$dtor$0 DD 031001H
	DD	0700c4210H
	DD	0500bH
xdata	ENDS
;	COMDAT xdata
xdata	SEGMENT
$ip2state$wmain DB 0aH
	DB	00H
	DB	00H
	DB	0f0H
	DB	02H
	DB	'E', 010H
	DB	04H
	DB	'M', 015H
	DB	02H
	DB	01aH
	DB	00H
xdata	ENDS
;	COMDAT xdata
xdata	SEGMENT
$handlerMap$wmain DB 02H
	DB	06H
	DD	imagerel ??_R0?AUERROR@Error@@@8
	DB	0c1H, '7'
	DD	imagerel wmain$catch$1
xdata	ENDS
;	COMDAT xdata
xdata	SEGMENT
$tryMap$wmain DB 02H
	DB	00H
	DB	02H
	DB	04H
	DD	imagerel $handlerMap$wmain
xdata	ENDS
;	COMDAT xdata
xdata	SEGMENT
$stateUnwindMap$wmain DB 06H
	DB	08H
	DB	0eH
	DD	imagerel wmain$dtor$0
	DB	038H
xdata	ENDS
;	COMDAT xdata
xdata	SEGMENT
$cppxdata$wmain DB 038H
	DD	imagerel $stateUnwindMap$wmain
	DD	imagerel $tryMap$wmain
	DD	imagerel $ip2state$wmain
xdata	ENDS
;	COMDAT xdata
xdata	SEGMENT
$unwind$wmain DD 035064519H
	DD	0119331eH
	DD	0700c0930H
	DD	0500a600bH
	DD	imagerel __GSHandlerCheck_EH4
	DD	imagerel $cppxdata$wmain
	DD	0497bH
xdata	ENDS
;	COMDAT CONST
CONST	SEGMENT
wmain$rtcName$0 DB 06cH
	DB	06fH
	DB	067H
	DB	00H
wmain$rtcName$1 DB 070H
	DB	061H
	DB	072H
	DB	06dH
	DB	00H
	ORG $+3
wmain$rtcName$2 DB 069H
	DB	06eH
	DB	00H
	ORG $+1
wmain$rtcName$3 DB 074H
	DB	061H
	DB	062H
	DB	06cH
	DB	065H
	DB	04cH
	DB	045H
	DB	058H
	DB	00H
	ORG $+3
wmain$rtcName$5 DB 074H
	DB	031H
	DB	00H
	ORG $+1
wmain$rtcName$4 DB 069H
	DB	064H
	DB	054H
	DB	061H
	DB	062H
	DB	06cH
	DB	065H
	DB	049H
	DB	044H
	DB	00H
	ORG $+2
wmain$rtcName$6 DB 074H
	DB	032H
	DB	00H
	ORG $+1
wmain$rtcName$7 DB 074H
	DB	069H
	DB	06dH
	DB	065H
	DB	05fH
	DB	073H
	DB	070H
	DB	061H
	DB	06eH
	DB	00H
	ORG $+2
wmain$rtcName$8 DB 06dH
	DB	066H
	DB	073H
	DB	074H
	DB	00H
	ORG $+3
wmain$rtcName$9 DB 065H
	DB	00H
	ORG $+2
wmain$rtcFrameData DD 0aH
	DD	00H
	DQ	FLAT:wmain$rtcVarDesc
	ORG $+8
wmain$rtcVarDesc DD 0df0H
	DD	0d0H
	DQ	FLAT:wmain$rtcName$9
	DD	0d10H
	DD	0c0H
	DQ	FLAT:wmain$rtcName$8
	DD	0ce8H
	DD	08H
	DQ	FLAT:wmain$rtcName$7
	DD	0cc8H
	DD	08H
	DQ	FLAT:wmain$rtcName$6
	DD	0ca8H
	DD	08H
	DQ	FLAT:wmain$rtcName$5
	DD	0c78H
	DD	010H
	DQ	FLAT:wmain$rtcName$4
	DD	0c48H
	DD	010H
	DQ	FLAT:wmain$rtcName$3
	DD	0a10H
	DD	0218H
	DQ	FLAT:wmain$rtcName$2
	DD	02e0H
	DD	0708H
	DQ	FLAT:wmain$rtcName$1
	DD	040H
	DD	0260H
	DQ	FLAT:wmain$rtcName$0
CONST	ENDS
;	COMDAT xdata
xdata	SEGMENT
$ip2state$??$?0N$0A@@?$duration@NU?$ratio@$00$00@std@@@chrono@std@@QEAA@AEBN@Z DB 02H
	DB	00H
	DB	00H
xdata	ENDS
;	COMDAT xdata
xdata	SEGMENT
$cppxdata$??$?0N$0A@@?$duration@NU?$ratio@$00$00@std@@@chrono@std@@QEAA@AEBN@Z DB 060H
	DD	imagerel $ip2state$??$?0N$0A@@?$duration@NU?$ratio@$00$00@std@@@chrono@std@@QEAA@AEBN@Z
xdata	ENDS
;	COMDAT xdata
xdata	SEGMENT
$unwind$??$?0N$0A@@?$duration@NU?$ratio@$00$00@std@@@chrono@std@@QEAA@AEBN@Z DD 025052f19H
	DD	01132318H
	DD	0700c001dH
	DD	0500bH
	DD	imagerel __CxxFrameHandler4
	DD	imagerel $cppxdata$??$?0N$0A@@?$duration@NU?$ratio@$00$00@std@@@chrono@std@@QEAA@AEBN@Z
xdata	ENDS
;	COMDAT xdata
xdata	SEGMENT
$ip2state$??$duration_cast@V?$duration@NU?$ratio@$00$00@std@@@chrono@std@@_JU?$ratio@$00$0DLJKMKAA@@3@$0A@@chrono@std@@YA?AV?$duration@NU?$ratio@$00$00@std@@@01@AEBV?$duration@_JU?$ratio@$00$0DLJKMKAA@@std@@@01@@Z DB 02H
	DB	00H
	DB	00H
xdata	ENDS
;	COMDAT xdata
xdata	SEGMENT
$cppxdata$??$duration_cast@V?$duration@NU?$ratio@$00$00@std@@@chrono@std@@_JU?$ratio@$00$0DLJKMKAA@@3@$0A@@chrono@std@@YA?AV?$duration@NU?$ratio@$00$00@std@@@01@AEBV?$duration@_JU?$ratio@$00$0DLJKMKAA@@std@@@01@@Z DB 060H
	DD	imagerel $ip2state$??$duration_cast@V?$duration@NU?$ratio@$00$00@std@@@chrono@std@@_JU?$ratio@$00$0DLJKMKAA@@3@$0A@@chrono@std@@YA?AV?$duration@NU?$ratio@$00$00@std@@@01@AEBV?$duration@_JU?$ratio@$00$0DLJKMKAA@@std@@@01@@Z
xdata	ENDS
;	COMDAT xdata
xdata	SEGMENT
$unwind$??$duration_cast@V?$duration@NU?$ratio@$00$00@std@@@chrono@std@@_JU?$ratio@$00$0DLJKMKAA@@3@$0A@@chrono@std@@YA?AV?$duration@NU?$ratio@$00$00@std@@@01@AEBV?$duration@_JU?$ratio@$00$0DLJKMKAA@@std@@@01@@Z DD 025052f19H
	DD	01132318H
	DD	0700c0035H
	DD	0500bH
	DD	imagerel __CxxFrameHandler4
	DD	imagerel $cppxdata$??$duration_cast@V?$duration@NU?$ratio@$00$00@std@@@chrono@std@@_JU?$ratio@$00$0DLJKMKAA@@3@$0A@@chrono@std@@YA?AV?$duration@NU?$ratio@$00$00@std@@@01@AEBV?$duration@_JU?$ratio@$00$0DLJKMKAA@@std@@@01@@Z
xdata	ENDS
;	COMDAT xdata
xdata	SEGMENT
$ip2state$?count@?$duration@NU?$ratio@$00$00@std@@@chrono@std@@QEBANXZ DB 02H
	DB	00H
	DB	00H
xdata	ENDS
;	COMDAT xdata
xdata	SEGMENT
$cppxdata$?count@?$duration@NU?$ratio@$00$00@std@@@chrono@std@@QEBANXZ DB 060H
	DD	imagerel $ip2state$?count@?$duration@NU?$ratio@$00$00@std@@@chrono@std@@QEBANXZ
xdata	ENDS
;	COMDAT xdata
xdata	SEGMENT
$unwind$?count@?$duration@NU?$ratio@$00$00@std@@@chrono@std@@QEBANXZ DD 035052a19H
	DD	010e3313H
	DD	07007001fH
	DD	05006H
	DD	imagerel __CxxFrameHandler4
	DD	imagerel $cppxdata$?count@?$duration@NU?$ratio@$00$00@std@@@chrono@std@@QEBANXZ
xdata	ENDS
;	COMDAT xdata
xdata	SEGMENT
$ip2state$??$?0_J$0A@@?$duration@_JU?$ratio@$00$0DLJKMKAA@@std@@@chrono@std@@QEAA@AEB_J@Z DB 02H
	DB	00H
	DB	00H
xdata	ENDS
;	COMDAT xdata
xdata	SEGMENT
$cppxdata$??$?0_J$0A@@?$duration@_JU?$ratio@$00$0DLJKMKAA@@std@@@chrono@std@@QEAA@AEB_J@Z DB 060H
	DD	imagerel $ip2state$??$?0_J$0A@@?$duration@_JU?$ratio@$00$0DLJKMKAA@@std@@@chrono@std@@QEAA@AEB_J@Z
xdata	ENDS
;	COMDAT xdata
xdata	SEGMENT
$unwind$??$?0_J$0A@@?$duration@_JU?$ratio@$00$0DLJKMKAA@@std@@@chrono@std@@QEAA@AEB_J@Z DD 025052f19H
	DD	01132318H
	DD	0700c001dH
	DD	0500bH
	DD	imagerel __CxxFrameHandler4
	DD	imagerel $cppxdata$??$?0_J$0A@@?$duration@_JU?$ratio@$00$0DLJKMKAA@@std@@@chrono@std@@QEAA@AEB_J@Z
xdata	ENDS
;	COMDAT xdata
xdata	SEGMENT
$ip2state$?time_since_epoch@?$time_point@Usteady_clock@chrono@std@@V?$duration@_JU?$ratio@$00$0DLJKMKAA@@std@@@23@@chrono@std@@QEBA?AV?$duration@_JU?$ratio@$00$0DLJKMKAA@@std@@@23@XZ DB 02H
	DB	00H
	DB	00H
xdata	ENDS
;	COMDAT xdata
xdata	SEGMENT
$cppxdata$?time_since_epoch@?$time_point@Usteady_clock@chrono@std@@V?$duration@_JU?$ratio@$00$0DLJKMKAA@@std@@@23@@chrono@std@@QEBA?AV?$duration@_JU?$ratio@$00$0DLJKMKAA@@std@@@23@XZ DB 060H
	DD	imagerel $ip2state$?time_since_epoch@?$time_point@Usteady_clock@chrono@std@@V?$duration@_JU?$ratio@$00$0DLJKMKAA@@std@@@23@@chrono@std@@QEBA?AV?$duration@_JU?$ratio@$00$0DLJKMKAA@@std@@@23@XZ
xdata	ENDS
;	COMDAT xdata
xdata	SEGMENT
$unwind$?time_since_epoch@?$time_point@Usteady_clock@chrono@std@@V?$duration@_JU?$ratio@$00$0DLJKMKAA@@std@@@23@@chrono@std@@QEBA?AV?$duration@_JU?$ratio@$00$0DLJKMKAA@@std@@@23@XZ DD 025052f19H
	DD	01132318H
	DD	0700c001dH
	DD	0500bH
	DD	imagerel __CxxFrameHandler4
	DD	imagerel $cppxdata$?time_since_epoch@?$time_point@Usteady_clock@chrono@std@@V?$duration@_JU?$ratio@$00$0DLJKMKAA@@std@@@23@@chrono@std@@QEBA?AV?$duration@_JU?$ratio@$00$0DLJKMKAA@@std@@@23@XZ
xdata	ENDS
;	COMDAT xdata
xdata	SEGMENT
$ip2state$??0?$time_point@Usteady_clock@chrono@std@@V?$duration@_JU?$ratio@$00$0DLJKMKAA@@std@@@23@@chrono@std@@QEAA@AEBV?$duration@_JU?$ratio@$00$0DLJKMKAA@@std@@@12@@Z DB 02H
	DB	00H
	DB	00H
xdata	ENDS
;	COMDAT xdata
xdata	SEGMENT
$cppxdata$??0?$time_point@Usteady_clock@chrono@std@@V?$duration@_JU?$ratio@$00$0DLJKMKAA@@std@@@23@@chrono@std@@QEAA@AEBV?$duration@_JU?$ratio@$00$0DLJKMKAA@@std@@@12@@Z DB 060H
	DD	imagerel $ip2state$??0?$time_point@Usteady_clock@chrono@std@@V?$duration@_JU?$ratio@$00$0DLJKMKAA@@std@@@23@@chrono@std@@QEAA@AEBV?$duration@_JU?$ratio@$00$0DLJKMKAA@@std@@@12@@Z
xdata	ENDS
;	COMDAT xdata
xdata	SEGMENT
$unwind$??0?$time_point@Usteady_clock@chrono@std@@V?$duration@_JU?$ratio@$00$0DLJKMKAA@@std@@@23@@chrono@std@@QEAA@AEBV?$duration@_JU?$ratio@$00$0DLJKMKAA@@std@@@12@@Z DD 025052f19H
	DD	01132318H
	DD	0700c001dH
	DD	0500bH
	DD	imagerel __CxxFrameHandler4
	DD	imagerel $cppxdata$??0?$time_point@Usteady_clock@chrono@std@@V?$duration@_JU?$ratio@$00$0DLJKMKAA@@std@@@23@@chrono@std@@QEAA@AEBV?$duration@_JU?$ratio@$00$0DLJKMKAA@@std@@@12@@Z
xdata	ENDS
;	COMDAT xdata
xdata	SEGMENT
$ip2state$?count@?$duration@_JU?$ratio@$00$0DLJKMKAA@@std@@@chrono@std@@QEBA_JXZ DB 02H
	DB	00H
	DB	00H
xdata	ENDS
;	COMDAT xdata
xdata	SEGMENT
$cppxdata$?count@?$duration@_JU?$ratio@$00$0DLJKMKAA@@std@@@chrono@std@@QEBA_JXZ DB 060H
	DD	imagerel $ip2state$?count@?$duration@_JU?$ratio@$00$0DLJKMKAA@@std@@@chrono@std@@QEBA_JXZ
xdata	ENDS
;	COMDAT xdata
xdata	SEGMENT
$unwind$?count@?$duration@_JU?$ratio@$00$0DLJKMKAA@@std@@@chrono@std@@QEBA_JXZ DD 025052a19H
	DD	010e2313H
	DD	07007001dH
	DD	05006H
	DD	imagerel __CxxFrameHandler4
	DD	imagerel $cppxdata$?count@?$duration@_JU?$ratio@$00$0DLJKMKAA@@std@@@chrono@std@@QEBA_JXZ
xdata	ENDS
;	COMDAT xdata
xdata	SEGMENT
$ip2state$?now@steady_clock@chrono@std@@SA?AV?$time_point@Usteady_clock@chrono@std@@V?$duration@_JU?$ratio@$00$0DLJKMKAA@@std@@@23@@23@XZ DB 02H
	DB	00H
	DB	00H
xdata	ENDS
;	COMDAT xdata
xdata	SEGMENT
$cppxdata$?now@steady_clock@chrono@std@@SA?AV?$time_point@Usteady_clock@chrono@std@@V?$duration@_JU?$ratio@$00$0DLJKMKAA@@std@@@23@@23@XZ DB 060H
	DD	imagerel $ip2state$?now@steady_clock@chrono@std@@SA?AV?$time_point@Usteady_clock@chrono@std@@V?$duration@_JU?$ratio@$00$0DLJKMKAA@@std@@@23@@23@XZ
xdata	ENDS
;	COMDAT xdata
xdata	SEGMENT
$unwind$?now@steady_clock@chrono@std@@SA?AV?$time_point@Usteady_clock@chrono@std@@V?$duration@_JU?$ratio@$00$0DLJKMKAA@@std@@@23@@23@XZ DD 025052a19H
	DD	010e2313H
	DD	070070035H
	DD	05006H
	DD	imagerel __CxxFrameHandler4
	DD	imagerel $cppxdata$?now@steady_clock@chrono@std@@SA?AV?$time_point@Usteady_clock@chrono@std@@V?$duration@_JU?$ratio@$00$0DLJKMKAA@@std@@@23@@23@XZ
xdata	ENDS
;	COMDAT xdata
xdata	SEGMENT
$unwind$??1MFST@0@QEAA@XZ DD 025052a01H
	DD	010e2313H
	DD	07007001dH
	DD	05006H
xdata	ENDS
;	COMDAT xdata
xdata	SEGMENT
$unwind$??1?$Stack@UMFSTState@MFST@@@@QEAA@XZ DD 025052a01H
	DD	010e2313H
	DD	07007001dH
	DD	05006H
xdata	ENDS
;	COMDAT xdata
xdata	SEGMENT
$unwind$??1?$stack@UMFSTState@MFST@@V?$deque@UMFSTState@MFST@@V?$allocator@UMFSTState@MFST@@@std@@@std@@@std@@QEAA@XZ DD 025052a01H
	DD	010e2313H
	DD	07007001dH
	DD	05006H
xdata	ENDS
;	COMDAT xdata
xdata	SEGMENT
$ip2state$?_Get_first@?$_Compressed_pair@V?$allocator@UMFSTState@MFST@@@std@@V?$_Deque_val@U?$_Deque_simple_types@UMFSTState@MFST@@@std@@@2@$00@std@@QEAAAEAV?$allocator@UMFSTState@MFST@@@2@XZ DB 02H
	DB	00H
	DB	00H
xdata	ENDS
;	COMDAT xdata
xdata	SEGMENT
$cppxdata$?_Get_first@?$_Compressed_pair@V?$allocator@UMFSTState@MFST@@@std@@V?$_Deque_val@U?$_Deque_simple_types@UMFSTState@MFST@@@std@@@2@$00@std@@QEAAAEAV?$allocator@UMFSTState@MFST@@@2@XZ DB 060H
	DD	imagerel $ip2state$?_Get_first@?$_Compressed_pair@V?$allocator@UMFSTState@MFST@@@std@@V?$_Deque_val@U?$_Deque_simple_types@UMFSTState@MFST@@@std@@@2@$00@std@@QEAAAEAV?$allocator@UMFSTState@MFST@@@2@XZ
xdata	ENDS
;	COMDAT xdata
xdata	SEGMENT
$unwind$?_Get_first@?$_Compressed_pair@V?$allocator@UMFSTState@MFST@@@std@@V?$_Deque_val@U?$_Deque_simple_types@UMFSTState@MFST@@@std@@@2@$00@std@@QEAAAEAV?$allocator@UMFSTState@MFST@@@2@XZ DD 025052a19H
	DD	010e2313H
	DD	07007001dH
	DD	05006H
	DD	imagerel __CxxFrameHandler4
	DD	imagerel $cppxdata$?_Get_first@?$_Compressed_pair@V?$allocator@UMFSTState@MFST@@@std@@V?$_Deque_val@U?$_Deque_simple_types@UMFSTState@MFST@@@std@@@2@$00@std@@QEAAAEAV?$allocator@UMFSTState@MFST@@@2@XZ
xdata	ENDS
;	COMDAT xdata
xdata	SEGMENT
$ip2state$?_Getblock@?$_Deque_val@U?$_Deque_simple_types@UMFSTState@MFST@@@std@@@std@@QEBA_K_K@Z DB 02H
	DB	00H
	DB	00H
xdata	ENDS
;	COMDAT xdata
xdata	SEGMENT
$cppxdata$?_Getblock@?$_Deque_val@U?$_Deque_simple_types@UMFSTState@MFST@@@std@@@std@@QEBA_K_K@Z DB 060H
	DD	imagerel $ip2state$?_Getblock@?$_Deque_val@U?$_Deque_simple_types@UMFSTState@MFST@@@std@@@std@@QEBA_K_K@Z
xdata	ENDS
;	COMDAT xdata
xdata	SEGMENT
$unwind$?_Getblock@?$_Deque_val@U?$_Deque_simple_types@UMFSTState@MFST@@@std@@@std@@QEBA_K_K@Z DD 025052f19H
	DD	01132318H
	DD	0700c001dH
	DD	0500bH
	DD	imagerel __CxxFrameHandler4
	DD	imagerel $cppxdata$?_Getblock@?$_Deque_val@U?$_Deque_simple_types@UMFSTState@MFST@@@std@@@std@@QEBA_K_K@Z
xdata	ENDS
;	COMDAT xdata
xdata	SEGMENT
$ip2state$?_Mysize@?$deque@UMFSTState@MFST@@V?$allocator@UMFSTState@MFST@@@std@@@std@@AEBAAEB_KXZ DB 02H
	DB	00H
	DB	00H
xdata	ENDS
;	COMDAT xdata
xdata	SEGMENT
$cppxdata$?_Mysize@?$deque@UMFSTState@MFST@@V?$allocator@UMFSTState@MFST@@@std@@@std@@AEBAAEB_KXZ DB 060H
	DD	imagerel $ip2state$?_Mysize@?$deque@UMFSTState@MFST@@V?$allocator@UMFSTState@MFST@@@std@@@std@@AEBAAEB_KXZ
xdata	ENDS
;	COMDAT xdata
xdata	SEGMENT
$unwind$?_Mysize@?$deque@UMFSTState@MFST@@V?$allocator@UMFSTState@MFST@@@std@@@std@@AEBAAEB_KXZ DD 025052a19H
	DD	010e2313H
	DD	07007001dH
	DD	05006H
	DD	imagerel __CxxFrameHandler4
	DD	imagerel $cppxdata$?_Mysize@?$deque@UMFSTState@MFST@@V?$allocator@UMFSTState@MFST@@@std@@@std@@AEBAAEB_KXZ
xdata	ENDS
;	COMDAT xdata
xdata	SEGMENT
$ip2state$?_Mysize@?$deque@UMFSTState@MFST@@V?$allocator@UMFSTState@MFST@@@std@@@std@@AEAAAEA_KXZ DB 02H
	DB	00H
	DB	00H
xdata	ENDS
;	COMDAT xdata
xdata	SEGMENT
$cppxdata$?_Mysize@?$deque@UMFSTState@MFST@@V?$allocator@UMFSTState@MFST@@@std@@@std@@AEAAAEA_KXZ DB 060H
	DD	imagerel $ip2state$?_Mysize@?$deque@UMFSTState@MFST@@V?$allocator@UMFSTState@MFST@@@std@@@std@@AEAAAEA_KXZ
xdata	ENDS
;	COMDAT xdata
xdata	SEGMENT
$unwind$?_Mysize@?$deque@UMFSTState@MFST@@V?$allocator@UMFSTState@MFST@@@std@@@std@@AEAAAEA_KXZ DD 025052a19H
	DD	010e2313H
	DD	07007001dH
	DD	05006H
	DD	imagerel __CxxFrameHandler4
	DD	imagerel $cppxdata$?_Mysize@?$deque@UMFSTState@MFST@@V?$allocator@UMFSTState@MFST@@@std@@@std@@AEAAAEA_KXZ
xdata	ENDS
;	COMDAT xdata
xdata	SEGMENT
$ip2state$?_Myoff@?$deque@UMFSTState@MFST@@V?$allocator@UMFSTState@MFST@@@std@@@std@@AEBAAEB_KXZ DB 02H
	DB	00H
	DB	00H
xdata	ENDS
;	COMDAT xdata
xdata	SEGMENT
$cppxdata$?_Myoff@?$deque@UMFSTState@MFST@@V?$allocator@UMFSTState@MFST@@@std@@@std@@AEBAAEB_KXZ DB 060H
	DD	imagerel $ip2state$?_Myoff@?$deque@UMFSTState@MFST@@V?$allocator@UMFSTState@MFST@@@std@@@std@@AEBAAEB_KXZ
xdata	ENDS
;	COMDAT xdata
xdata	SEGMENT
$unwind$?_Myoff@?$deque@UMFSTState@MFST@@V?$allocator@UMFSTState@MFST@@@std@@@std@@AEBAAEB_KXZ DD 025052a19H
	DD	010e2313H
	DD	07007001dH
	DD	05006H
	DD	imagerel __CxxFrameHandler4
	DD	imagerel $cppxdata$?_Myoff@?$deque@UMFSTState@MFST@@V?$allocator@UMFSTState@MFST@@@std@@@std@@AEBAAEB_KXZ
xdata	ENDS
;	COMDAT xdata
xdata	SEGMENT
$ip2state$?_Myoff@?$deque@UMFSTState@MFST@@V?$allocator@UMFSTState@MFST@@@std@@@std@@AEAAAEA_KXZ DB 02H
	DB	00H
	DB	00H
xdata	ENDS
;	COMDAT xdata
xdata	SEGMENT
$cppxdata$?_Myoff@?$deque@UMFSTState@MFST@@V?$allocator@UMFSTState@MFST@@@std@@@std@@AEAAAEA_KXZ DB 060H
	DD	imagerel $ip2state$?_Myoff@?$deque@UMFSTState@MFST@@V?$allocator@UMFSTState@MFST@@@std@@@std@@AEAAAEA_KXZ
xdata	ENDS
;	COMDAT xdata
xdata	SEGMENT
$unwind$?_Myoff@?$deque@UMFSTState@MFST@@V?$allocator@UMFSTState@MFST@@@std@@@std@@AEAAAEA_KXZ DD 025052a19H
	DD	010e2313H
	DD	07007001dH
	DD	05006H
	DD	imagerel __CxxFrameHandler4
	DD	imagerel $cppxdata$?_Myoff@?$deque@UMFSTState@MFST@@V?$allocator@UMFSTState@MFST@@@std@@@std@@AEAAAEA_KXZ
xdata	ENDS
;	COMDAT xdata
xdata	SEGMENT
$ip2state$?_Mapsize@?$deque@UMFSTState@MFST@@V?$allocator@UMFSTState@MFST@@@std@@@std@@AEAAAEA_KXZ DB 02H
	DB	00H
	DB	00H
xdata	ENDS
;	COMDAT xdata
xdata	SEGMENT
$cppxdata$?_Mapsize@?$deque@UMFSTState@MFST@@V?$allocator@UMFSTState@MFST@@@std@@@std@@AEAAAEA_KXZ DB 060H
	DD	imagerel $ip2state$?_Mapsize@?$deque@UMFSTState@MFST@@V?$allocator@UMFSTState@MFST@@@std@@@std@@AEAAAEA_KXZ
xdata	ENDS
;	COMDAT xdata
xdata	SEGMENT
$unwind$?_Mapsize@?$deque@UMFSTState@MFST@@V?$allocator@UMFSTState@MFST@@@std@@@std@@AEAAAEA_KXZ DD 025052a19H
	DD	010e2313H
	DD	07007001dH
	DD	05006H
	DD	imagerel __CxxFrameHandler4
	DD	imagerel $cppxdata$?_Mapsize@?$deque@UMFSTState@MFST@@V?$allocator@UMFSTState@MFST@@@std@@@std@@AEAAAEA_KXZ
xdata	ENDS
;	COMDAT xdata
xdata	SEGMENT
$ip2state$?_Map@?$deque@UMFSTState@MFST@@V?$allocator@UMFSTState@MFST@@@std@@@std@@AEAAAEAPEAPEAUMFSTState@MFST@@XZ DB 02H
	DB	00H
	DB	00H
xdata	ENDS
;	COMDAT xdata
xdata	SEGMENT
$cppxdata$?_Map@?$deque@UMFSTState@MFST@@V?$allocator@UMFSTState@MFST@@@std@@@std@@AEAAAEAPEAPEAUMFSTState@MFST@@XZ DB 060H
	DD	imagerel $ip2state$?_Map@?$deque@UMFSTState@MFST@@V?$allocator@UMFSTState@MFST@@@std@@@std@@AEAAAEAPEAPEAUMFSTState@MFST@@XZ
xdata	ENDS
;	COMDAT xdata
xdata	SEGMENT
$unwind$?_Map@?$deque@UMFSTState@MFST@@V?$allocator@UMFSTState@MFST@@@std@@@std@@AEAAAEAPEAPEAUMFSTState@MFST@@XZ DD 025052a19H
	DD	010e2313H
	DD	07007001dH
	DD	05006H
	DD	imagerel __CxxFrameHandler4
	DD	imagerel $cppxdata$?_Map@?$deque@UMFSTState@MFST@@V?$allocator@UMFSTState@MFST@@@std@@@std@@AEAAAEAPEAPEAUMFSTState@MFST@@XZ
xdata	ENDS
;	COMDAT xdata
xdata	SEGMENT
$ip2state$?_Get_data@?$deque@UMFSTState@MFST@@V?$allocator@UMFSTState@MFST@@@std@@@std@@AEBAAEBV?$_Deque_val@U?$_Deque_simple_types@UMFSTState@MFST@@@std@@@2@XZ DB 02H
	DB	00H
	DB	00H
xdata	ENDS
;	COMDAT xdata
xdata	SEGMENT
$cppxdata$?_Get_data@?$deque@UMFSTState@MFST@@V?$allocator@UMFSTState@MFST@@@std@@@std@@AEBAAEBV?$_Deque_val@U?$_Deque_simple_types@UMFSTState@MFST@@@std@@@2@XZ DB 060H
	DD	imagerel $ip2state$?_Get_data@?$deque@UMFSTState@MFST@@V?$allocator@UMFSTState@MFST@@@std@@@std@@AEBAAEBV?$_Deque_val@U?$_Deque_simple_types@UMFSTState@MFST@@@std@@@2@XZ
xdata	ENDS
;	COMDAT xdata
xdata	SEGMENT
$unwind$?_Get_data@?$deque@UMFSTState@MFST@@V?$allocator@UMFSTState@MFST@@@std@@@std@@AEBAAEBV?$_Deque_val@U?$_Deque_simple_types@UMFSTState@MFST@@@std@@@2@XZ DD 025052a19H
	DD	010e2313H
	DD	07007001dH
	DD	05006H
	DD	imagerel __CxxFrameHandler4
	DD	imagerel $cppxdata$?_Get_data@?$deque@UMFSTState@MFST@@V?$allocator@UMFSTState@MFST@@@std@@@std@@AEBAAEBV?$_Deque_val@U?$_Deque_simple_types@UMFSTState@MFST@@@std@@@2@XZ
xdata	ENDS
;	COMDAT xdata
xdata	SEGMENT
$ip2state$?_Get_data@?$deque@UMFSTState@MFST@@V?$allocator@UMFSTState@MFST@@@std@@@std@@AEAAAEAV?$_Deque_val@U?$_Deque_simple_types@UMFSTState@MFST@@@std@@@2@XZ DB 02H
	DB	00H
	DB	00H
xdata	ENDS
;	COMDAT xdata
xdata	SEGMENT
$cppxdata$?_Get_data@?$deque@UMFSTState@MFST@@V?$allocator@UMFSTState@MFST@@@std@@@std@@AEAAAEAV?$_Deque_val@U?$_Deque_simple_types@UMFSTState@MFST@@@std@@@2@XZ DB 060H
	DD	imagerel $ip2state$?_Get_data@?$deque@UMFSTState@MFST@@V?$allocator@UMFSTState@MFST@@@std@@@std@@AEAAAEAV?$_Deque_val@U?$_Deque_simple_types@UMFSTState@MFST@@@std@@@2@XZ
xdata	ENDS
;	COMDAT xdata
xdata	SEGMENT
$unwind$?_Get_data@?$deque@UMFSTState@MFST@@V?$allocator@UMFSTState@MFST@@@std@@@std@@AEAAAEAV?$_Deque_val@U?$_Deque_simple_types@UMFSTState@MFST@@@std@@@2@XZ DD 025052a19H
	DD	010e2313H
	DD	07007001dH
	DD	05006H
	DD	imagerel __CxxFrameHandler4
	DD	imagerel $cppxdata$?_Get_data@?$deque@UMFSTState@MFST@@V?$allocator@UMFSTState@MFST@@@std@@@std@@AEAAAEAV?$_Deque_val@U?$_Deque_simple_types@UMFSTState@MFST@@@std@@@2@XZ
xdata	ENDS
;	COMDAT xdata
xdata	SEGMENT
$ip2state$?_Getal@?$deque@UMFSTState@MFST@@V?$allocator@UMFSTState@MFST@@@std@@@std@@AEAAAEAV?$allocator@UMFSTState@MFST@@@2@XZ DB 02H
	DB	00H
	DB	00H
xdata	ENDS
;	COMDAT xdata
xdata	SEGMENT
$cppxdata$?_Getal@?$deque@UMFSTState@MFST@@V?$allocator@UMFSTState@MFST@@@std@@@std@@AEAAAEAV?$allocator@UMFSTState@MFST@@@2@XZ DB 060H
	DD	imagerel $ip2state$?_Getal@?$deque@UMFSTState@MFST@@V?$allocator@UMFSTState@MFST@@@std@@@std@@AEAAAEAV?$allocator@UMFSTState@MFST@@@2@XZ
xdata	ENDS
;	COMDAT xdata
xdata	SEGMENT
$unwind$?_Getal@?$deque@UMFSTState@MFST@@V?$allocator@UMFSTState@MFST@@@std@@@std@@AEAAAEAV?$allocator@UMFSTState@MFST@@@2@XZ DD 025052a19H
	DD	010e2313H
	DD	07007001dH
	DD	05006H
	DD	imagerel __CxxFrameHandler4
	DD	imagerel $cppxdata$?_Getal@?$deque@UMFSTState@MFST@@V?$allocator@UMFSTState@MFST@@@std@@@std@@AEAAAEAV?$allocator@UMFSTState@MFST@@@2@XZ
xdata	ENDS
;	COMDAT xdata
xdata	SEGMENT
$ip2state$?_Orphan_all@?$deque@UMFSTState@MFST@@V?$allocator@UMFSTState@MFST@@@std@@@std@@AEAAXXZ DB 02H
	DB	00H
	DB	00H
xdata	ENDS
;	COMDAT xdata
xdata	SEGMENT
$cppxdata$?_Orphan_all@?$deque@UMFSTState@MFST@@V?$allocator@UMFSTState@MFST@@@std@@@std@@AEAAXXZ DB 060H
	DD	imagerel $ip2state$?_Orphan_all@?$deque@UMFSTState@MFST@@V?$allocator@UMFSTState@MFST@@@std@@@std@@AEAAXXZ
xdata	ENDS
;	COMDAT xdata
xdata	SEGMENT
$unwind$?_Orphan_all@?$deque@UMFSTState@MFST@@V?$allocator@UMFSTState@MFST@@@std@@@std@@AEAAXXZ DD 025052a19H
	DD	010e2313H
	DD	07007001dH
	DD	05006H
	DD	imagerel __CxxFrameHandler4
	DD	imagerel $cppxdata$?_Orphan_all@?$deque@UMFSTState@MFST@@V?$allocator@UMFSTState@MFST@@@std@@@std@@AEAAXXZ
xdata	ENDS
;	COMDAT xdata
xdata	SEGMENT
$ip2state$?_Getblock@?$deque@UMFSTState@MFST@@V?$allocator@UMFSTState@MFST@@@std@@@std@@AEBA_K_K@Z DB 02H
	DB	00H
	DB	00H
xdata	ENDS
;	COMDAT xdata
xdata	SEGMENT
$cppxdata$?_Getblock@?$deque@UMFSTState@MFST@@V?$allocator@UMFSTState@MFST@@@std@@@std@@AEBA_K_K@Z DB 060H
	DD	imagerel $ip2state$?_Getblock@?$deque@UMFSTState@MFST@@V?$allocator@UMFSTState@MFST@@@std@@@std@@AEBA_K_K@Z
xdata	ENDS
;	COMDAT xdata
xdata	SEGMENT
$unwind$?_Getblock@?$deque@UMFSTState@MFST@@V?$allocator@UMFSTState@MFST@@@std@@@std@@AEBA_K_K@Z DD 025052f19H
	DD	01132318H
	DD	0700c001dH
	DD	0500bH
	DD	imagerel __CxxFrameHandler4
	DD	imagerel $cppxdata$?_Getblock@?$deque@UMFSTState@MFST@@V?$allocator@UMFSTState@MFST@@@std@@@std@@AEBA_K_K@Z
xdata	ENDS
;	COMDAT xdata
xdata	SEGMENT
$ip2state$?_Orphan_off@?$deque@UMFSTState@MFST@@V?$allocator@UMFSTState@MFST@@@std@@@std@@AEBAX_K@Z DB 02H
	DB	00H
	DB	00H
xdata	ENDS
;	COMDAT xdata
xdata	SEGMENT
$cppxdata$?_Orphan_off@?$deque@UMFSTState@MFST@@V?$allocator@UMFSTState@MFST@@@std@@@std@@AEBAX_K@Z DB 060H
	DD	imagerel $ip2state$?_Orphan_off@?$deque@UMFSTState@MFST@@V?$allocator@UMFSTState@MFST@@@std@@@std@@AEBAX_K@Z
xdata	ENDS
;	COMDAT xdata
xdata	SEGMENT
$unwind$?_Orphan_off@?$deque@UMFSTState@MFST@@V?$allocator@UMFSTState@MFST@@@std@@@std@@AEBAX_K@Z DD 025054019H
	DD	01132318H
	DD	0700c002fH
	DD	0500bH
	DD	imagerel __GSHandlerCheck_EH4
	DD	imagerel $cppxdata$?_Orphan_off@?$deque@UMFSTState@MFST@@V?$allocator@UMFSTState@MFST@@@std@@@std@@AEBAX_K@Z
	DD	016bH
xdata	ENDS
;	COMDAT CONST
CONST	SEGMENT
?_Orphan_off@?$deque@UMFSTState@MFST@@V?$allocator@UMFSTState@MFST@@@std@@@std@@AEBAX_K@Z$rtcName$0 DB 05fH ; std::deque<MFST::MFSTState,std::allocator<MFST::MFSTState> >::_Orphan_off
	DB	04cH
	DB	06fH
	DB	063H
	DB	06bH
	DB	00H
	ORG $+10
?_Orphan_off@?$deque@UMFSTState@MFST@@V?$allocator@UMFSTState@MFST@@@std@@@std@@AEBAX_K@Z$rtcVarDesc DD 044H ; std::deque<MFST::MFSTState,std::allocator<MFST::MFSTState> >::_Orphan_off
	DD	04H
	DQ	FLAT:?_Orphan_off@?$deque@UMFSTState@MFST@@V?$allocator@UMFSTState@MFST@@@std@@@std@@AEBAX_K@Z$rtcName$0
	ORG $+48
?_Orphan_off@?$deque@UMFSTState@MFST@@V?$allocator@UMFSTState@MFST@@@std@@@std@@AEBAX_K@Z$rtcFrameData DD 01H ; std::deque<MFST::MFSTState,std::allocator<MFST::MFSTState> >::_Orphan_off
	DD	00H
	DQ	FLAT:?_Orphan_off@?$deque@UMFSTState@MFST@@V?$allocator@UMFSTState@MFST@@@std@@@std@@AEBAX_K@Z$rtcVarDesc
CONST	ENDS
;	COMDAT xdata
xdata	SEGMENT
$ip2state$?_Tidy@?$deque@UMFSTState@MFST@@V?$allocator@UMFSTState@MFST@@@std@@@std@@AEAAXXZ DB 02H
	DB	00H
	DB	00H
xdata	ENDS
;	COMDAT xdata
xdata	SEGMENT
$cppxdata$?_Tidy@?$deque@UMFSTState@MFST@@V?$allocator@UMFSTState@MFST@@@std@@@std@@AEAAXXZ DB 060H
	DD	imagerel $ip2state$?_Tidy@?$deque@UMFSTState@MFST@@V?$allocator@UMFSTState@MFST@@@std@@@std@@AEAAXXZ
xdata	ENDS
;	COMDAT xdata
xdata	SEGMENT
$unwind$?_Tidy@?$deque@UMFSTState@MFST@@V?$allocator@UMFSTState@MFST@@@std@@@std@@AEAAXXZ DD 025053b19H
	DD	010e2313H
	DD	070070027H
	DD	05006H
	DD	imagerel __GSHandlerCheck_EH4
	DD	imagerel $cppxdata$?_Tidy@?$deque@UMFSTState@MFST@@V?$allocator@UMFSTState@MFST@@@std@@@std@@AEAAXXZ
	DD	0123H
xdata	ENDS
;	COMDAT CONST
CONST	SEGMENT
?_Tidy@?$deque@UMFSTState@MFST@@V?$allocator@UMFSTState@MFST@@@std@@@std@@AEAAXXZ$rtcName$0 DB 05fH ; std::deque<MFST::MFSTState,std::allocator<MFST::MFSTState> >::_Tidy
	DB	041H
	DB	06cH
	DB	06dH
	DB	061H
	DB	070H
	DB	00H
	ORG $+9
?_Tidy@?$deque@UMFSTState@MFST@@V?$allocator@UMFSTState@MFST@@@std@@@std@@AEAAXXZ$rtcVarDesc DD 024H ; std::deque<MFST::MFSTState,std::allocator<MFST::MFSTState> >::_Tidy
	DD	01H
	DQ	FLAT:?_Tidy@?$deque@UMFSTState@MFST@@V?$allocator@UMFSTState@MFST@@@std@@@std@@AEAAXXZ$rtcName$0
	ORG $+48
?_Tidy@?$deque@UMFSTState@MFST@@V?$allocator@UMFSTState@MFST@@@std@@@std@@AEAAXXZ$rtcFrameData DD 01H ; std::deque<MFST::MFSTState,std::allocator<MFST::MFSTState> >::_Tidy
	DD	00H
	DQ	FLAT:?_Tidy@?$deque@UMFSTState@MFST@@V?$allocator@UMFSTState@MFST@@@std@@@std@@AEAAXXZ$rtcVarDesc
CONST	ENDS
;	COMDAT xdata
xdata	SEGMENT
$ip2state$?pop_back@?$deque@UMFSTState@MFST@@V?$allocator@UMFSTState@MFST@@@std@@@std@@QEAAXXZ DB 02H
	DB	00H
	DB	00H
xdata	ENDS
;	COMDAT xdata
xdata	SEGMENT
$cppxdata$?pop_back@?$deque@UMFSTState@MFST@@V?$allocator@UMFSTState@MFST@@@std@@@std@@QEAAXXZ DB 060H
	DD	imagerel $ip2state$?pop_back@?$deque@UMFSTState@MFST@@V?$allocator@UMFSTState@MFST@@@std@@@std@@QEAAXXZ
xdata	ENDS
;	COMDAT xdata
xdata	SEGMENT
$unwind$?pop_back@?$deque@UMFSTState@MFST@@V?$allocator@UMFSTState@MFST@@@std@@@std@@QEAAXXZ DD 035052a19H
	DD	010e3313H
	DD	070070027H
	DD	05006H
	DD	imagerel __CxxFrameHandler4
	DD	imagerel $cppxdata$?pop_back@?$deque@UMFSTState@MFST@@V?$allocator@UMFSTState@MFST@@@std@@@std@@QEAAXXZ
xdata	ENDS
;	COMDAT xdata
xdata	SEGMENT
$ip2state$?empty@?$deque@UMFSTState@MFST@@V?$allocator@UMFSTState@MFST@@@std@@@std@@QEBA_NXZ DB 02H
	DB	00H
	DB	00H
xdata	ENDS
;	COMDAT xdata
xdata	SEGMENT
$cppxdata$?empty@?$deque@UMFSTState@MFST@@V?$allocator@UMFSTState@MFST@@@std@@@std@@QEBA_NXZ DB 060H
	DD	imagerel $ip2state$?empty@?$deque@UMFSTState@MFST@@V?$allocator@UMFSTState@MFST@@@std@@@std@@QEBA_NXZ
xdata	ENDS
;	COMDAT xdata
xdata	SEGMENT
$unwind$?empty@?$deque@UMFSTState@MFST@@V?$allocator@UMFSTState@MFST@@@std@@@std@@QEBA_NXZ DD 025052a19H
	DD	010e2313H
	DD	07007001fH
	DD	05006H
	DD	imagerel __CxxFrameHandler4
	DD	imagerel $cppxdata$?empty@?$deque@UMFSTState@MFST@@V?$allocator@UMFSTState@MFST@@@std@@@std@@QEBA_NXZ
xdata	ENDS
;	COMDAT xdata
xdata	SEGMENT
$ip2state$??1?$deque@UMFSTState@MFST@@V?$allocator@UMFSTState@MFST@@@std@@@std@@QEAA@XZ DB 02H
	DB	00H
	DB	00H
xdata	ENDS
;	COMDAT xdata
xdata	SEGMENT
$cppxdata$??1?$deque@UMFSTState@MFST@@V?$allocator@UMFSTState@MFST@@@std@@@std@@QEAA@XZ DB 060H
	DD	imagerel $ip2state$??1?$deque@UMFSTState@MFST@@V?$allocator@UMFSTState@MFST@@@std@@@std@@QEAA@XZ
xdata	ENDS
;	COMDAT xdata
xdata	SEGMENT
$unwind$??1?$deque@UMFSTState@MFST@@V?$allocator@UMFSTState@MFST@@@std@@@std@@QEAA@XZ DD 025053b19H
	DD	010e2313H
	DD	070070025H
	DD	05006H
	DD	imagerel __GSHandlerCheck_EH4
	DD	imagerel $cppxdata$??1?$deque@UMFSTState@MFST@@V?$allocator@UMFSTState@MFST@@@std@@@std@@QEAA@XZ
	DD	011bH
xdata	ENDS
;	COMDAT CONST
CONST	SEGMENT
??1?$deque@UMFSTState@MFST@@V?$allocator@UMFSTState@MFST@@@std@@@std@@QEAA@XZ$rtcName$0 DB 05fH ; std::deque<MFST::MFSTState,std::allocator<MFST::MFSTState> >::~deque<MFST::MFSTState,std::allocator<MFST::MFSTState> >
	DB	050H
	DB	072H
	DB	06fH
	DB	078H
	DB	079H
	DB	05fH
	DB	061H
	DB	06cH
	DB	06cH
	DB	06fH
	DB	063H
	DB	061H
	DB	074H
	DB	06fH
	DB	072H
	DB	00H
	ORG $+15
??1?$deque@UMFSTState@MFST@@V?$allocator@UMFSTState@MFST@@@std@@@std@@QEAA@XZ$rtcVarDesc DD 024H ; std::deque<MFST::MFSTState,std::allocator<MFST::MFSTState> >::~deque<MFST::MFSTState,std::allocator<MFST::MFSTState> >
	DD	01H
	DQ	FLAT:??1?$deque@UMFSTState@MFST@@V?$allocator@UMFSTState@MFST@@@std@@@std@@QEAA@XZ$rtcName$0
	ORG $+48
??1?$deque@UMFSTState@MFST@@V?$allocator@UMFSTState@MFST@@@std@@@std@@QEAA@XZ$rtcFrameData DD 01H ; std::deque<MFST::MFSTState,std::allocator<MFST::MFSTState> >::~deque<MFST::MFSTState,std::allocator<MFST::MFSTState> >
	DD	00H
	DQ	FLAT:??1?$deque@UMFSTState@MFST@@V?$allocator@UMFSTState@MFST@@@std@@@std@@QEAA@XZ$rtcVarDesc
CONST	ENDS
;	COMDAT xdata
xdata	SEGMENT
$unwind$?deallocate@?$allocator@PEAUMFSTState@MFST@@@std@@QEAAXQEAPEAUMFSTState@MFST@@_K@Z DD 025053401H
	DD	0118231dH
	DD	07011001dH
	DD	05010H
xdata	ENDS
;	COMDAT xdata
xdata	SEGMENT
$unwind$?deallocate@?$allocator@UMFSTState@MFST@@@std@@QEAAXQEAUMFSTState@MFST@@_K@Z DD 025053401H
	DD	0118231dH
	DD	07011001dH
	DD	05010H
xdata	ENDS
;	COMDAT xdata
xdata	SEGMENT
$unwind$??_GMFSTState@MFST@@QEAAPEAXI@Z DD 025052e01H
	DD	01122317H
	DD	0700b001dH
	DD	0500aH
xdata	ENDS
;	COMDAT xdata
xdata	SEGMENT
$unwind$??1MFSTState@MFST@@QEAA@XZ DD 025052a01H
	DD	010e2313H
	DD	07007001dH
	DD	05006H
xdata	ENDS
;	COMDAT xdata
xdata	SEGMENT
$unwind$??1?$Stack@F@@QEAA@XZ DD 025052a01H
	DD	010e2313H
	DD	07007001dH
	DD	05006H
xdata	ENDS
;	COMDAT xdata
xdata	SEGMENT
$unwind$??1?$stack@FV?$deque@FV?$allocator@F@std@@@std@@@std@@QEAA@XZ DD 025052a01H
	DD	010e2313H
	DD	07007001dH
	DD	05006H
xdata	ENDS
;	COMDAT xdata
xdata	SEGMENT
$ip2state$?_Get_first@?$_Compressed_pair@V?$allocator@F@std@@V?$_Deque_val@U?$_Deque_simple_types@F@std@@@2@$00@std@@QEAAAEAV?$allocator@F@2@XZ DB 02H
	DB	00H
	DB	00H
xdata	ENDS
;	COMDAT xdata
xdata	SEGMENT
$cppxdata$?_Get_first@?$_Compressed_pair@V?$allocator@F@std@@V?$_Deque_val@U?$_Deque_simple_types@F@std@@@2@$00@std@@QEAAAEAV?$allocator@F@2@XZ DB 060H
	DD	imagerel $ip2state$?_Get_first@?$_Compressed_pair@V?$allocator@F@std@@V?$_Deque_val@U?$_Deque_simple_types@F@std@@@2@$00@std@@QEAAAEAV?$allocator@F@2@XZ
xdata	ENDS
;	COMDAT xdata
xdata	SEGMENT
$unwind$?_Get_first@?$_Compressed_pair@V?$allocator@F@std@@V?$_Deque_val@U?$_Deque_simple_types@F@std@@@2@$00@std@@QEAAAEAV?$allocator@F@2@XZ DD 025052a19H
	DD	010e2313H
	DD	07007001dH
	DD	05006H
	DD	imagerel __CxxFrameHandler4
	DD	imagerel $cppxdata$?_Get_first@?$_Compressed_pair@V?$allocator@F@std@@V?$_Deque_val@U?$_Deque_simple_types@F@std@@@2@$00@std@@QEAAAEAV?$allocator@F@2@XZ
xdata	ENDS
;	COMDAT xdata
xdata	SEGMENT
$ip2state$?_Getblock@?$_Deque_val@U?$_Deque_simple_types@F@std@@@std@@QEBA_K_K@Z DB 02H
	DB	00H
	DB	00H
xdata	ENDS
;	COMDAT xdata
xdata	SEGMENT
$cppxdata$?_Getblock@?$_Deque_val@U?$_Deque_simple_types@F@std@@@std@@QEBA_K_K@Z DB 060H
	DD	imagerel $ip2state$?_Getblock@?$_Deque_val@U?$_Deque_simple_types@F@std@@@std@@QEBA_K_K@Z
xdata	ENDS
;	COMDAT xdata
xdata	SEGMENT
$unwind$?_Getblock@?$_Deque_val@U?$_Deque_simple_types@F@std@@@std@@QEBA_K_K@Z DD 025052f19H
	DD	01132318H
	DD	0700c001dH
	DD	0500bH
	DD	imagerel __CxxFrameHandler4
	DD	imagerel $cppxdata$?_Getblock@?$_Deque_val@U?$_Deque_simple_types@F@std@@@std@@QEBA_K_K@Z
xdata	ENDS
;	COMDAT xdata
xdata	SEGMENT
$ip2state$?_Mysize@?$deque@FV?$allocator@F@std@@@std@@AEBAAEB_KXZ DB 02H
	DB	00H
	DB	00H
xdata	ENDS
;	COMDAT xdata
xdata	SEGMENT
$cppxdata$?_Mysize@?$deque@FV?$allocator@F@std@@@std@@AEBAAEB_KXZ DB 060H
	DD	imagerel $ip2state$?_Mysize@?$deque@FV?$allocator@F@std@@@std@@AEBAAEB_KXZ
xdata	ENDS
;	COMDAT xdata
xdata	SEGMENT
$unwind$?_Mysize@?$deque@FV?$allocator@F@std@@@std@@AEBAAEB_KXZ DD 025052a19H
	DD	010e2313H
	DD	07007001dH
	DD	05006H
	DD	imagerel __CxxFrameHandler4
	DD	imagerel $cppxdata$?_Mysize@?$deque@FV?$allocator@F@std@@@std@@AEBAAEB_KXZ
xdata	ENDS
;	COMDAT xdata
xdata	SEGMENT
$ip2state$?_Mysize@?$deque@FV?$allocator@F@std@@@std@@AEAAAEA_KXZ DB 02H
	DB	00H
	DB	00H
xdata	ENDS
;	COMDAT xdata
xdata	SEGMENT
$cppxdata$?_Mysize@?$deque@FV?$allocator@F@std@@@std@@AEAAAEA_KXZ DB 060H
	DD	imagerel $ip2state$?_Mysize@?$deque@FV?$allocator@F@std@@@std@@AEAAAEA_KXZ
xdata	ENDS
;	COMDAT xdata
xdata	SEGMENT
$unwind$?_Mysize@?$deque@FV?$allocator@F@std@@@std@@AEAAAEA_KXZ DD 025052a19H
	DD	010e2313H
	DD	07007001dH
	DD	05006H
	DD	imagerel __CxxFrameHandler4
	DD	imagerel $cppxdata$?_Mysize@?$deque@FV?$allocator@F@std@@@std@@AEAAAEA_KXZ
xdata	ENDS
;	COMDAT xdata
xdata	SEGMENT
$ip2state$?_Myoff@?$deque@FV?$allocator@F@std@@@std@@AEBAAEB_KXZ DB 02H
	DB	00H
	DB	00H
xdata	ENDS
;	COMDAT xdata
xdata	SEGMENT
$cppxdata$?_Myoff@?$deque@FV?$allocator@F@std@@@std@@AEBAAEB_KXZ DB 060H
	DD	imagerel $ip2state$?_Myoff@?$deque@FV?$allocator@F@std@@@std@@AEBAAEB_KXZ
xdata	ENDS
;	COMDAT xdata
xdata	SEGMENT
$unwind$?_Myoff@?$deque@FV?$allocator@F@std@@@std@@AEBAAEB_KXZ DD 025052a19H
	DD	010e2313H
	DD	07007001dH
	DD	05006H
	DD	imagerel __CxxFrameHandler4
	DD	imagerel $cppxdata$?_Myoff@?$deque@FV?$allocator@F@std@@@std@@AEBAAEB_KXZ
xdata	ENDS
;	COMDAT xdata
xdata	SEGMENT
$ip2state$?_Myoff@?$deque@FV?$allocator@F@std@@@std@@AEAAAEA_KXZ DB 02H
	DB	00H
	DB	00H
xdata	ENDS
;	COMDAT xdata
xdata	SEGMENT
$cppxdata$?_Myoff@?$deque@FV?$allocator@F@std@@@std@@AEAAAEA_KXZ DB 060H
	DD	imagerel $ip2state$?_Myoff@?$deque@FV?$allocator@F@std@@@std@@AEAAAEA_KXZ
xdata	ENDS
;	COMDAT xdata
xdata	SEGMENT
$unwind$?_Myoff@?$deque@FV?$allocator@F@std@@@std@@AEAAAEA_KXZ DD 025052a19H
	DD	010e2313H
	DD	07007001dH
	DD	05006H
	DD	imagerel __CxxFrameHandler4
	DD	imagerel $cppxdata$?_Myoff@?$deque@FV?$allocator@F@std@@@std@@AEAAAEA_KXZ
xdata	ENDS
;	COMDAT xdata
xdata	SEGMENT
$ip2state$?_Mapsize@?$deque@FV?$allocator@F@std@@@std@@AEAAAEA_KXZ DB 02H
	DB	00H
	DB	00H
xdata	ENDS
;	COMDAT xdata
xdata	SEGMENT
$cppxdata$?_Mapsize@?$deque@FV?$allocator@F@std@@@std@@AEAAAEA_KXZ DB 060H
	DD	imagerel $ip2state$?_Mapsize@?$deque@FV?$allocator@F@std@@@std@@AEAAAEA_KXZ
xdata	ENDS
;	COMDAT xdata
xdata	SEGMENT
$unwind$?_Mapsize@?$deque@FV?$allocator@F@std@@@std@@AEAAAEA_KXZ DD 025052a19H
	DD	010e2313H
	DD	07007001dH
	DD	05006H
	DD	imagerel __CxxFrameHandler4
	DD	imagerel $cppxdata$?_Mapsize@?$deque@FV?$allocator@F@std@@@std@@AEAAAEA_KXZ
xdata	ENDS
;	COMDAT xdata
xdata	SEGMENT
$ip2state$?_Map@?$deque@FV?$allocator@F@std@@@std@@AEAAAEAPEAPEAFXZ DB 02H
	DB	00H
	DB	00H
xdata	ENDS
;	COMDAT xdata
xdata	SEGMENT
$cppxdata$?_Map@?$deque@FV?$allocator@F@std@@@std@@AEAAAEAPEAPEAFXZ DB 060H
	DD	imagerel $ip2state$?_Map@?$deque@FV?$allocator@F@std@@@std@@AEAAAEAPEAPEAFXZ
xdata	ENDS
;	COMDAT xdata
xdata	SEGMENT
$unwind$?_Map@?$deque@FV?$allocator@F@std@@@std@@AEAAAEAPEAPEAFXZ DD 025052a19H
	DD	010e2313H
	DD	07007001dH
	DD	05006H
	DD	imagerel __CxxFrameHandler4
	DD	imagerel $cppxdata$?_Map@?$deque@FV?$allocator@F@std@@@std@@AEAAAEAPEAPEAFXZ
xdata	ENDS
;	COMDAT xdata
xdata	SEGMENT
$ip2state$?_Get_data@?$deque@FV?$allocator@F@std@@@std@@AEBAAEBV?$_Deque_val@U?$_Deque_simple_types@F@std@@@2@XZ DB 02H
	DB	00H
	DB	00H
xdata	ENDS
;	COMDAT xdata
xdata	SEGMENT
$cppxdata$?_Get_data@?$deque@FV?$allocator@F@std@@@std@@AEBAAEBV?$_Deque_val@U?$_Deque_simple_types@F@std@@@2@XZ DB 060H
	DD	imagerel $ip2state$?_Get_data@?$deque@FV?$allocator@F@std@@@std@@AEBAAEBV?$_Deque_val@U?$_Deque_simple_types@F@std@@@2@XZ
xdata	ENDS
;	COMDAT xdata
xdata	SEGMENT
$unwind$?_Get_data@?$deque@FV?$allocator@F@std@@@std@@AEBAAEBV?$_Deque_val@U?$_Deque_simple_types@F@std@@@2@XZ DD 025052a19H
	DD	010e2313H
	DD	07007001dH
	DD	05006H
	DD	imagerel __CxxFrameHandler4
	DD	imagerel $cppxdata$?_Get_data@?$deque@FV?$allocator@F@std@@@std@@AEBAAEBV?$_Deque_val@U?$_Deque_simple_types@F@std@@@2@XZ
xdata	ENDS
;	COMDAT xdata
xdata	SEGMENT
$ip2state$?_Get_data@?$deque@FV?$allocator@F@std@@@std@@AEAAAEAV?$_Deque_val@U?$_Deque_simple_types@F@std@@@2@XZ DB 02H
	DB	00H
	DB	00H
xdata	ENDS
;	COMDAT xdata
xdata	SEGMENT
$cppxdata$?_Get_data@?$deque@FV?$allocator@F@std@@@std@@AEAAAEAV?$_Deque_val@U?$_Deque_simple_types@F@std@@@2@XZ DB 060H
	DD	imagerel $ip2state$?_Get_data@?$deque@FV?$allocator@F@std@@@std@@AEAAAEAV?$_Deque_val@U?$_Deque_simple_types@F@std@@@2@XZ
xdata	ENDS
;	COMDAT xdata
xdata	SEGMENT
$unwind$?_Get_data@?$deque@FV?$allocator@F@std@@@std@@AEAAAEAV?$_Deque_val@U?$_Deque_simple_types@F@std@@@2@XZ DD 025052a19H
	DD	010e2313H
	DD	07007001dH
	DD	05006H
	DD	imagerel __CxxFrameHandler4
	DD	imagerel $cppxdata$?_Get_data@?$deque@FV?$allocator@F@std@@@std@@AEAAAEAV?$_Deque_val@U?$_Deque_simple_types@F@std@@@2@XZ
xdata	ENDS
;	COMDAT xdata
xdata	SEGMENT
$ip2state$?_Getal@?$deque@FV?$allocator@F@std@@@std@@AEAAAEAV?$allocator@F@2@XZ DB 02H
	DB	00H
	DB	00H
xdata	ENDS
;	COMDAT xdata
xdata	SEGMENT
$cppxdata$?_Getal@?$deque@FV?$allocator@F@std@@@std@@AEAAAEAV?$allocator@F@2@XZ DB 060H
	DD	imagerel $ip2state$?_Getal@?$deque@FV?$allocator@F@std@@@std@@AEAAAEAV?$allocator@F@2@XZ
xdata	ENDS
;	COMDAT xdata
xdata	SEGMENT
$unwind$?_Getal@?$deque@FV?$allocator@F@std@@@std@@AEAAAEAV?$allocator@F@2@XZ DD 025052a19H
	DD	010e2313H
	DD	07007001dH
	DD	05006H
	DD	imagerel __CxxFrameHandler4
	DD	imagerel $cppxdata$?_Getal@?$deque@FV?$allocator@F@std@@@std@@AEAAAEAV?$allocator@F@2@XZ
xdata	ENDS
;	COMDAT xdata
xdata	SEGMENT
$ip2state$?_Orphan_all@?$deque@FV?$allocator@F@std@@@std@@AEAAXXZ DB 02H
	DB	00H
	DB	00H
xdata	ENDS
;	COMDAT xdata
xdata	SEGMENT
$cppxdata$?_Orphan_all@?$deque@FV?$allocator@F@std@@@std@@AEAAXXZ DB 060H
	DD	imagerel $ip2state$?_Orphan_all@?$deque@FV?$allocator@F@std@@@std@@AEAAXXZ
xdata	ENDS
;	COMDAT xdata
xdata	SEGMENT
$unwind$?_Orphan_all@?$deque@FV?$allocator@F@std@@@std@@AEAAXXZ DD 025052a19H
	DD	010e2313H
	DD	07007001dH
	DD	05006H
	DD	imagerel __CxxFrameHandler4
	DD	imagerel $cppxdata$?_Orphan_all@?$deque@FV?$allocator@F@std@@@std@@AEAAXXZ
xdata	ENDS
;	COMDAT xdata
xdata	SEGMENT
$ip2state$?_Getblock@?$deque@FV?$allocator@F@std@@@std@@AEBA_K_K@Z DB 02H
	DB	00H
	DB	00H
xdata	ENDS
;	COMDAT xdata
xdata	SEGMENT
$cppxdata$?_Getblock@?$deque@FV?$allocator@F@std@@@std@@AEBA_K_K@Z DB 060H
	DD	imagerel $ip2state$?_Getblock@?$deque@FV?$allocator@F@std@@@std@@AEBA_K_K@Z
xdata	ENDS
;	COMDAT xdata
xdata	SEGMENT
$unwind$?_Getblock@?$deque@FV?$allocator@F@std@@@std@@AEBA_K_K@Z DD 025052f19H
	DD	01132318H
	DD	0700c001dH
	DD	0500bH
	DD	imagerel __CxxFrameHandler4
	DD	imagerel $cppxdata$?_Getblock@?$deque@FV?$allocator@F@std@@@std@@AEBA_K_K@Z
xdata	ENDS
;	COMDAT xdata
xdata	SEGMENT
$ip2state$?_Orphan_off@?$deque@FV?$allocator@F@std@@@std@@AEBAX_K@Z DB 02H
	DB	00H
	DB	00H
xdata	ENDS
;	COMDAT xdata
xdata	SEGMENT
$cppxdata$?_Orphan_off@?$deque@FV?$allocator@F@std@@@std@@AEBAX_K@Z DB 060H
	DD	imagerel $ip2state$?_Orphan_off@?$deque@FV?$allocator@F@std@@@std@@AEBAX_K@Z
xdata	ENDS
;	COMDAT xdata
xdata	SEGMENT
$unwind$?_Orphan_off@?$deque@FV?$allocator@F@std@@@std@@AEBAX_K@Z DD 025054019H
	DD	01132318H
	DD	0700c002fH
	DD	0500bH
	DD	imagerel __GSHandlerCheck_EH4
	DD	imagerel $cppxdata$?_Orphan_off@?$deque@FV?$allocator@F@std@@@std@@AEBAX_K@Z
	DD	016bH
xdata	ENDS
;	COMDAT CONST
CONST	SEGMENT
?_Orphan_off@?$deque@FV?$allocator@F@std@@@std@@AEBAX_K@Z$rtcName$0 DB 05fH ; std::deque<short,std::allocator<short> >::_Orphan_off
	DB	04cH
	DB	06fH
	DB	063H
	DB	06bH
	DB	00H
	ORG $+10
?_Orphan_off@?$deque@FV?$allocator@F@std@@@std@@AEBAX_K@Z$rtcVarDesc DD 044H ; std::deque<short,std::allocator<short> >::_Orphan_off
	DD	04H
	DQ	FLAT:?_Orphan_off@?$deque@FV?$allocator@F@std@@@std@@AEBAX_K@Z$rtcName$0
	ORG $+48
?_Orphan_off@?$deque@FV?$allocator@F@std@@@std@@AEBAX_K@Z$rtcFrameData DD 01H ; std::deque<short,std::allocator<short> >::_Orphan_off
	DD	00H
	DQ	FLAT:?_Orphan_off@?$deque@FV?$allocator@F@std@@@std@@AEBAX_K@Z$rtcVarDesc
CONST	ENDS
;	COMDAT xdata
xdata	SEGMENT
$ip2state$?_Tidy@?$deque@FV?$allocator@F@std@@@std@@AEAAXXZ DB 02H
	DB	00H
	DB	00H
xdata	ENDS
;	COMDAT xdata
xdata	SEGMENT
$cppxdata$?_Tidy@?$deque@FV?$allocator@F@std@@@std@@AEAAXXZ DB 060H
	DD	imagerel $ip2state$?_Tidy@?$deque@FV?$allocator@F@std@@@std@@AEAAXXZ
xdata	ENDS
;	COMDAT xdata
xdata	SEGMENT
$unwind$?_Tidy@?$deque@FV?$allocator@F@std@@@std@@AEAAXXZ DD 025053b19H
	DD	010e2313H
	DD	070070027H
	DD	05006H
	DD	imagerel __GSHandlerCheck_EH4
	DD	imagerel $cppxdata$?_Tidy@?$deque@FV?$allocator@F@std@@@std@@AEAAXXZ
	DD	0123H
xdata	ENDS
;	COMDAT CONST
CONST	SEGMENT
?_Tidy@?$deque@FV?$allocator@F@std@@@std@@AEAAXXZ$rtcName$0 DB 05fH ; std::deque<short,std::allocator<short> >::_Tidy
	DB	041H
	DB	06cH
	DB	06dH
	DB	061H
	DB	070H
	DB	00H
	ORG $+9
?_Tidy@?$deque@FV?$allocator@F@std@@@std@@AEAAXXZ$rtcVarDesc DD 024H ; std::deque<short,std::allocator<short> >::_Tidy
	DD	01H
	DQ	FLAT:?_Tidy@?$deque@FV?$allocator@F@std@@@std@@AEAAXXZ$rtcName$0
	ORG $+48
?_Tidy@?$deque@FV?$allocator@F@std@@@std@@AEAAXXZ$rtcFrameData DD 01H ; std::deque<short,std::allocator<short> >::_Tidy
	DD	00H
	DQ	FLAT:?_Tidy@?$deque@FV?$allocator@F@std@@@std@@AEAAXXZ$rtcVarDesc
CONST	ENDS
;	COMDAT xdata
xdata	SEGMENT
$ip2state$?pop_back@?$deque@FV?$allocator@F@std@@@std@@QEAAXXZ DB 02H
	DB	00H
	DB	00H
xdata	ENDS
;	COMDAT xdata
xdata	SEGMENT
$cppxdata$?pop_back@?$deque@FV?$allocator@F@std@@@std@@QEAAXXZ DB 060H
	DD	imagerel $ip2state$?pop_back@?$deque@FV?$allocator@F@std@@@std@@QEAAXXZ
xdata	ENDS
;	COMDAT xdata
xdata	SEGMENT
$unwind$?pop_back@?$deque@FV?$allocator@F@std@@@std@@QEAAXXZ DD 035052a19H
	DD	010e3313H
	DD	070070029H
	DD	05006H
	DD	imagerel __CxxFrameHandler4
	DD	imagerel $cppxdata$?pop_back@?$deque@FV?$allocator@F@std@@@std@@QEAAXXZ
xdata	ENDS
;	COMDAT xdata
xdata	SEGMENT
$ip2state$?empty@?$deque@FV?$allocator@F@std@@@std@@QEBA_NXZ DB 02H
	DB	00H
	DB	00H
xdata	ENDS
;	COMDAT xdata
xdata	SEGMENT
$cppxdata$?empty@?$deque@FV?$allocator@F@std@@@std@@QEBA_NXZ DB 060H
	DD	imagerel $ip2state$?empty@?$deque@FV?$allocator@F@std@@@std@@QEBA_NXZ
xdata	ENDS
;	COMDAT xdata
xdata	SEGMENT
$unwind$?empty@?$deque@FV?$allocator@F@std@@@std@@QEBA_NXZ DD 025052a19H
	DD	010e2313H
	DD	07007001fH
	DD	05006H
	DD	imagerel __CxxFrameHandler4
	DD	imagerel $cppxdata$?empty@?$deque@FV?$allocator@F@std@@@std@@QEBA_NXZ
xdata	ENDS
;	COMDAT xdata
xdata	SEGMENT
$ip2state$??1?$deque@FV?$allocator@F@std@@@std@@QEAA@XZ DB 02H
	DB	00H
	DB	00H
xdata	ENDS
;	COMDAT xdata
xdata	SEGMENT
$cppxdata$??1?$deque@FV?$allocator@F@std@@@std@@QEAA@XZ DB 060H
	DD	imagerel $ip2state$??1?$deque@FV?$allocator@F@std@@@std@@QEAA@XZ
xdata	ENDS
;	COMDAT xdata
xdata	SEGMENT
$unwind$??1?$deque@FV?$allocator@F@std@@@std@@QEAA@XZ DD 025053b19H
	DD	010e2313H
	DD	070070025H
	DD	05006H
	DD	imagerel __GSHandlerCheck_EH4
	DD	imagerel $cppxdata$??1?$deque@FV?$allocator@F@std@@@std@@QEAA@XZ
	DD	011bH
xdata	ENDS
;	COMDAT CONST
CONST	SEGMENT
??1?$deque@FV?$allocator@F@std@@@std@@QEAA@XZ$rtcName$0 DB 05fH ; std::deque<short,std::allocator<short> >::~deque<short,std::allocator<short> >
	DB	050H
	DB	072H
	DB	06fH
	DB	078H
	DB	079H
	DB	05fH
	DB	061H
	DB	06cH
	DB	06cH
	DB	06fH
	DB	063H
	DB	061H
	DB	074H
	DB	06fH
	DB	072H
	DB	00H
	ORG $+15
??1?$deque@FV?$allocator@F@std@@@std@@QEAA@XZ$rtcVarDesc DD 024H ; std::deque<short,std::allocator<short> >::~deque<short,std::allocator<short> >
	DD	01H
	DQ	FLAT:??1?$deque@FV?$allocator@F@std@@@std@@QEAA@XZ$rtcName$0
	ORG $+48
??1?$deque@FV?$allocator@F@std@@@std@@QEAA@XZ$rtcFrameData DD 01H ; std::deque<short,std::allocator<short> >::~deque<short,std::allocator<short> >
	DD	00H
	DQ	FLAT:??1?$deque@FV?$allocator@F@std@@@std@@QEAA@XZ$rtcVarDesc
CONST	ENDS
;	COMDAT xdata
xdata	SEGMENT
$unwind$?deallocate@?$allocator@PEAF@std@@QEAAXQEAPEAF_K@Z DD 025053401H
	DD	0118231dH
	DD	07011001dH
	DD	05010H
xdata	ENDS
;	COMDAT xdata
xdata	SEGMENT
$unwind$?deallocate@?$allocator@F@std@@QEAAXQEAF_K@Z DD 025053401H
	DD	0118231dH
	DD	07011001dH
	DD	05010H
xdata	ENDS
;	COMDAT xdata
xdata	SEGMENT
$unwind$??$_Getvals@_W@?$time_get@_WV?$istreambuf_iterator@_WU?$char_traits@_W@std@@@std@@@std@@IEAAX_WAEBV_Locinfo@1@@Z DD 025063501H
	DD	0119231eH
	DD	070120026H
	DD	050106011H
xdata	ENDS
;	COMDAT xdata
xdata	SEGMENT
$unwind$??$_Getvals@_W@?$time_get@DV?$istreambuf_iterator@DU?$char_traits@D@std@@@std@@@std@@IEAAX_WAEBV_Locinfo@1@@Z DD 025063501H
	DD	0119231eH
	DD	070120026H
	DD	050106011H
xdata	ENDS
;	COMDAT xdata
xdata	SEGMENT
$unwind$??$_Maklocstr@D@std@@YAPEADPEBDPEADAEBU_Cvtvec@@@Z DD 035053401H
	DD	0118331dH
	DD	07011002bH
	DD	05010H
xdata	ENDS
;	COMDAT xdata
xdata	SEGMENT
$unwind$?_Maklocwcs@std@@YAPEA_WPEB_W@Z DD 035052a01H
	DD	010e3313H
	DD	070070027H
	DD	05006H
xdata	ENDS
;	COMDAT xdata
xdata	SEGMENT
$unwind$??$_Maklocstr@_W@std@@YAPEA_WPEBDPEA_WAEBU_Cvtvec@@@Z DD 035054519H
	DD	0118331dH
	DD	070110047H
	DD	05010H
	DD	imagerel __GSHandlerCheck
	DD	0228H
xdata	ENDS
;	COMDAT CONST
CONST	SEGMENT
??$_Maklocstr@_W@std@@YAPEA_WPEBDPEA_WAEBU_Cvtvec@@@Z$rtcName$0 DB 05fH ; std::_Maklocstr<wchar_t>
	DB	057H
	DB	063H
	DB	00H
??$_Maklocstr@_W@std@@YAPEA_WPEBDPEA_WAEBU_Cvtvec@@@Z$rtcName$1 DB 05fH ; std::_Maklocstr<wchar_t>
	DB	04dH
	DB	062H
	DB	073H
	DB	074H
	DB	031H
	DB	00H
	ORG $+1
??$_Maklocstr@_W@std@@YAPEA_WPEBDPEA_WAEBU_Cvtvec@@@Z$rtcName$2 DB 05fH ; std::_Maklocstr<wchar_t>
	DB	04dH
	DB	062H
	DB	073H
	DB	074H
	DB	032H
	DB	00H
	ORG $+13
??$_Maklocstr@_W@std@@YAPEA_WPEBDPEA_WAEBU_Cvtvec@@@Z$rtcVarDesc DD 0158H ; std::_Maklocstr<wchar_t>
	DD	08H
	DQ	FLAT:??$_Maklocstr@_W@std@@YAPEA_WPEBDPEA_WAEBU_Cvtvec@@@Z$rtcName$2
	DD	0f8H
	DD	08H
	DQ	FLAT:??$_Maklocstr@_W@std@@YAPEA_WPEBDPEA_WAEBU_Cvtvec@@@Z$rtcName$1
	DD	0d4H
	DD	02H
	DQ	FLAT:??$_Maklocstr@_W@std@@YAPEA_WPEBDPEA_WAEBU_Cvtvec@@@Z$rtcName$0
	ORG $+144
??$_Maklocstr@_W@std@@YAPEA_WPEBDPEA_WAEBU_Cvtvec@@@Z$rtcFrameData DD 03H ; std::_Maklocstr<wchar_t>
	DD	00H
	DQ	FLAT:??$_Maklocstr@_W@std@@YAPEA_WPEBDPEA_WAEBU_Cvtvec@@@Z$rtcVarDesc
CONST	ENDS
;	COMDAT xdata
xdata	SEGMENT
$ip2state$?eof@?$_Narrow_char_traits@DH@std@@SAHXZ DB 02H
	DB	00H
	DB	00H
xdata	ENDS
;	COMDAT xdata
xdata	SEGMENT
$cppxdata$?eof@?$_Narrow_char_traits@DH@std@@SAHXZ DB 060H
	DD	imagerel $ip2state$?eof@?$_Narrow_char_traits@DH@std@@SAHXZ
xdata	ENDS
;	COMDAT xdata
xdata	SEGMENT
$unwind$?eof@?$_Narrow_char_traits@DH@std@@SAHXZ DD 025051e19H
	DD	010a230fH
	DD	07003001dH
	DD	05002H
	DD	imagerel __CxxFrameHandler4
	DD	imagerel $cppxdata$?eof@?$_Narrow_char_traits@DH@std@@SAHXZ
xdata	ENDS
;	COMDAT xdata
xdata	SEGMENT
$ip2state$?eq_int_type@?$_Narrow_char_traits@DH@std@@SA_NAEBH0@Z DB 02H
	DB	00H
	DB	00H
xdata	ENDS
;	COMDAT xdata
xdata	SEGMENT
$cppxdata$?eq_int_type@?$_Narrow_char_traits@DH@std@@SA_NAEBH0@Z DB 060H
	DD	imagerel $ip2state$?eq_int_type@?$_Narrow_char_traits@DH@std@@SA_NAEBH0@Z
xdata	ENDS
;	COMDAT xdata
xdata	SEGMENT
$unwind$?eq_int_type@?$_Narrow_char_traits@DH@std@@SA_NAEBH0@Z DD 025052f19H
	DD	01132318H
	DD	0700c001fH
	DD	0500bH
	DD	imagerel __CxxFrameHandler4
	DD	imagerel $cppxdata$?eq_int_type@?$_Narrow_char_traits@DH@std@@SA_NAEBH0@Z
xdata	ENDS
;	COMDAT xdata
xdata	SEGMENT
$ip2state$?length@?$_Narrow_char_traits@DH@std@@SA_KQEBD@Z DB 02H
	DB	00H
	DB	00H
xdata	ENDS
;	COMDAT xdata
xdata	SEGMENT
$cppxdata$?length@?$_Narrow_char_traits@DH@std@@SA_KQEBD@Z DB 060H
	DD	imagerel $ip2state$?length@?$_Narrow_char_traits@DH@std@@SA_KQEBD@Z
xdata	ENDS
;	COMDAT xdata
xdata	SEGMENT
$unwind$?length@?$_Narrow_char_traits@DH@std@@SA_KQEBD@Z DD 025052a19H
	DD	010e2313H
	DD	07007001dH
	DD	05006H
	DD	imagerel __CxxFrameHandler4
	DD	imagerel $cppxdata$?length@?$_Narrow_char_traits@DH@std@@SA_KQEBD@Z
xdata	ENDS
;	COMDAT xdata
xdata	SEGMENT
$ip2state$?_Orphan_all@_Container_base12@std@@QEAAXXZ DB 02H
	DB	00H
	DB	00H
xdata	ENDS
;	COMDAT xdata
xdata	SEGMENT
$cppxdata$?_Orphan_all@_Container_base12@std@@QEAAXXZ DB 060H
	DD	imagerel $ip2state$?_Orphan_all@_Container_base12@std@@QEAAXXZ
xdata	ENDS
;	COMDAT xdata
xdata	SEGMENT
$unwind$?_Orphan_all@_Container_base12@std@@QEAAXXZ DD 025053b19H
	DD	010e2313H
	DD	070070025H
	DD	05006H
	DD	imagerel __GSHandlerCheck_EH4
	DD	imagerel $cppxdata$?_Orphan_all@_Container_base12@std@@QEAAXXZ
	DD	011bH
xdata	ENDS
;	COMDAT CONST
CONST	SEGMENT
?_Orphan_all@_Container_base12@std@@QEAAXXZ$rtcName$0 DB 05fH ; std::_Container_base12::_Orphan_all
	DB	04cH
	DB	06fH
	DB	063H
	DB	06bH
	DB	00H
	ORG $+10
?_Orphan_all@_Container_base12@std@@QEAAXXZ$rtcVarDesc DD 024H ; std::_Container_base12::_Orphan_all
	DD	04H
	DQ	FLAT:?_Orphan_all@_Container_base12@std@@QEAAXXZ$rtcName$0
	ORG $+48
?_Orphan_all@_Container_base12@std@@QEAAXXZ$rtcFrameData DD 01H ; std::_Container_base12::_Orphan_all
	DD	00H
	DQ	FLAT:?_Orphan_all@_Container_base12@std@@QEAAXXZ$rtcVarDesc
CONST	ENDS
;	COMDAT xdata
xdata	SEGMENT
$unwind$?_Adjust_manually_vector_aligned@std@@YAXAEAPEAXAEA_K@Z DD 035052f01H
	DD	01133318H
	DD	0700c002fH
	DD	0500bH
xdata	ENDS
;	COMDAT xdata
xdata	SEGMENT
$unwind$wmemcpy DD 025053401H
	DD	0118231dH
	DD	07011001dH
	DD	05010H
xdata	ENDS
;	COMDAT xdata
xdata	SEGMENT
$unwind$?__empty_global_delete@@YAXPEAX_K@Z DD 025052f01H
	DD	01132318H
	DD	0700c001dH
	DD	0500bH
xdata	ENDS
;	COMDAT xdata
xdata	SEGMENT
$unwind$?__empty_global_delete@@YAXPEAX@Z DD 025052a01H
	DD	010e2313H
	DD	07007001dH
	DD	05006H
xdata	ENDS
; Function compile flags: /Odt
;	COMDAT __JustMyCode_Default
_TEXT	SEGMENT
__JustMyCode_Default PROC				; COMDAT
  00000	c2 00 00	 ret	 0
__JustMyCode_Default ENDP
_TEXT	ENDS
; Function compile flags: /Odtp /RTCsu /ZI
; File C:\Program Files (x86)\Microsoft Visual Studio\2019\Enterprise\VC\Tools\MSVC\14.27.29110\include\xmemory
;	COMDAT ?deallocate@?$_Default_allocator_traits@V?$allocator@U_Container_proxy@std@@@std@@@std@@SAXAEAV?$allocator@U_Container_proxy@std@@@2@QEAU_Container_proxy@2@_K@Z
_TEXT	SEGMENT
__formal$ = 224
_Ptr$ = 232
_Count$ = 240
?deallocate@?$_Default_allocator_traits@V?$allocator@U_Container_proxy@std@@@std@@@std@@SAXAEAV?$allocator@U_Container_proxy@std@@@2@QEAU_Container_proxy@2@_K@Z PROC ; std::_Default_allocator_traits<std::allocator<std::_Container_proxy> >::deallocate, COMDAT

; 687  :     static void deallocate(_Alloc&, const pointer _Ptr, const size_type _Count) {

$LN3:
  00000	4c 89 44 24 18	 mov	 QWORD PTR [rsp+24], r8
  00005	48 89 54 24 10	 mov	 QWORD PTR [rsp+16], rdx
  0000a	48 89 4c 24 08	 mov	 QWORD PTR [rsp+8], rcx
  0000f	55		 push	 rbp
  00010	57		 push	 rdi
  00011	48 81 ec e8 00
	00 00		 sub	 rsp, 232		; 000000e8H
  00018	48 8d 6c 24 20	 lea	 rbp, QWORD PTR [rsp+32]
  0001d	48 8b fc	 mov	 rdi, rsp
  00020	b9 3a 00 00 00	 mov	 ecx, 58			; 0000003aH
  00025	b8 cc cc cc cc	 mov	 eax, -858993460		; ccccccccH
  0002a	f3 ab		 rep stosd
  0002c	48 8b 8c 24 08
	01 00 00	 mov	 rcx, QWORD PTR [rsp+264]
  00034	48 8d 0d 00 00
	00 00		 lea	 rcx, OFFSET FLAT:__0C99713E_xmemory
  0003b	e8 00 00 00 00	 call	 __CheckForDebuggerJustMyCode

; 688  :         // no overflow check on the following multiply; we assume _Allocate did that check
; 689  :         _Deallocate<_New_alignof<value_type>>(_Ptr, sizeof(value_type) * _Count);

  00040	48 6b 85 f0 00
	00 00 10	 imul	 rax, QWORD PTR _Count$[rbp], 16
  00048	48 8b d0	 mov	 rdx, rax
  0004b	48 8b 8d e8 00
	00 00		 mov	 rcx, QWORD PTR _Ptr$[rbp]
  00052	e8 00 00 00 00	 call	 ??$_Deallocate@$0BA@$0A@@std@@YAXPEAX_K@Z ; std::_Deallocate<16,0>

; 690  :     }

  00057	48 8d a5 c8 00
	00 00		 lea	 rsp, QWORD PTR [rbp+200]
  0005e	5f		 pop	 rdi
  0005f	5d		 pop	 rbp
  00060	c3		 ret	 0
?deallocate@?$_Default_allocator_traits@V?$allocator@U_Container_proxy@std@@@std@@@std@@SAXAEAV?$allocator@U_Container_proxy@std@@@2@QEAU_Container_proxy@2@_K@Z ENDP ; std::_Default_allocator_traits<std::allocator<std::_Container_proxy> >::deallocate
_TEXT	ENDS
; Function compile flags: /Odtp /RTCsu /ZI
; File C:\Program Files (x86)\Microsoft Visual Studio\2019\Enterprise\VC\Tools\MSVC\14.27.29110\include\xmemory
;	COMDAT ??$_Deallocate_plain@V?$allocator@U_Container_proxy@std@@@std@@@std@@YAXAEAV?$allocator@U_Container_proxy@std@@@0@QEAU_Container_proxy@0@@Z
_TEXT	SEGMENT
_Al$ = 224
_Ptr$ = 232
??$_Deallocate_plain@V?$allocator@U_Container_proxy@std@@@std@@@std@@YAXAEAV?$allocator@U_Container_proxy@std@@@0@QEAU_Container_proxy@0@@Z PROC ; std::_Deallocate_plain<std::allocator<std::_Container_proxy> >, COMDAT

; 998  : void _Deallocate_plain(_Alloc& _Al, typename _Alloc::value_type* const _Ptr) noexcept {

$LN3:
  00000	48 89 54 24 10	 mov	 QWORD PTR [rsp+16], rdx
  00005	48 89 4c 24 08	 mov	 QWORD PTR [rsp+8], rcx
  0000a	55		 push	 rbp
  0000b	57		 push	 rdi
  0000c	48 81 ec e8 00
	00 00		 sub	 rsp, 232		; 000000e8H
  00013	48 8d 6c 24 20	 lea	 rbp, QWORD PTR [rsp+32]
  00018	48 8b fc	 mov	 rdi, rsp
  0001b	b9 3a 00 00 00	 mov	 ecx, 58			; 0000003aH
  00020	b8 cc cc cc cc	 mov	 eax, -858993460		; ccccccccH
  00025	f3 ab		 rep stosd
  00027	48 8b 8c 24 08
	01 00 00	 mov	 rcx, QWORD PTR [rsp+264]
  0002f	48 8d 0d 00 00
	00 00		 lea	 rcx, OFFSET FLAT:__0C99713E_xmemory
  00036	e8 00 00 00 00	 call	 __CheckForDebuggerJustMyCode

; 999  :     // deallocate a plain pointer using an allocator
; 1000 :     using _Alloc_traits = allocator_traits<_Alloc>;
; 1001 :     if constexpr (is_same_v<_Alloc_ptr_t<_Alloc>, typename _Alloc::value_type*>) {
; 1002 :         _Alloc_traits::deallocate(_Al, _Ptr, 1);

  0003b	41 b8 01 00 00
	00		 mov	 r8d, 1
  00041	48 8b 95 e8 00
	00 00		 mov	 rdx, QWORD PTR _Ptr$[rbp]
  00048	48 8b 8d e0 00
	00 00		 mov	 rcx, QWORD PTR _Al$[rbp]
  0004f	e8 00 00 00 00	 call	 ?deallocate@?$_Default_allocator_traits@V?$allocator@U_Container_proxy@std@@@std@@@std@@SAXAEAV?$allocator@U_Container_proxy@std@@@2@QEAU_Container_proxy@2@_K@Z ; std::_Default_allocator_traits<std::allocator<std::_Container_proxy> >::deallocate
  00054	90		 npad	 1

; 1003 :     } else {
; 1004 :         using _Ptr_traits = pointer_traits<_Alloc_ptr_t<_Alloc>>;
; 1005 :         _Alloc_traits::deallocate(_Al, _Ptr_traits::pointer_to(*_Ptr), 1);
; 1006 :     }
; 1007 : }

  00055	48 8d a5 c8 00
	00 00		 lea	 rsp, QWORD PTR [rbp+200]
  0005c	5f		 pop	 rdi
  0005d	5d		 pop	 rbp
  0005e	c3		 ret	 0
??$_Deallocate_plain@V?$allocator@U_Container_proxy@std@@@std@@@std@@YAXAEAV?$allocator@U_Container_proxy@std@@@0@QEAU_Container_proxy@0@@Z ENDP ; std::_Deallocate_plain<std::allocator<std::_Container_proxy> >
_TEXT	ENDS
; Function compile flags: /Odtp /RTCsu /ZI
; File C:\Program Files (x86)\Microsoft Visual Studio\2019\Enterprise\VC\Tools\MSVC\14.27.29110\include\chrono
;	COMDAT ??$?G_JU?$ratio@$00$0DLJKMKAA@@std@@_JU01@@chrono@std@@YA?AV?$duration@_JU?$ratio@$00$0DLJKMKAA@@std@@@01@AEBV201@0@Z
_TEXT	SEGMENT
$T1 = 200
$T2 = 232
$T3 = 264
tv68 = 280
__$ReturnUdt$ = 320
_Left$ = 328
_Right$ = 336
??$?G_JU?$ratio@$00$0DLJKMKAA@@std@@_JU01@@chrono@std@@YA?AV?$duration@_JU?$ratio@$00$0DLJKMKAA@@std@@@01@AEBV201@0@Z PROC ; std::chrono::operator-<__int64,std::ratio<1,1000000000>,__int64,std::ratio<1,1000000000> >, COMDAT

; 252  :             is_arithmetic_v<_Rep1>&& is_arithmetic_v<_Rep2>) /* strengthened */ {

$LN3:
  00000	4c 89 44 24 18	 mov	 QWORD PTR [rsp+24], r8
  00005	48 89 54 24 10	 mov	 QWORD PTR [rsp+16], rdx
  0000a	48 89 4c 24 08	 mov	 QWORD PTR [rsp+8], rcx
  0000f	55		 push	 rbp
  00010	57		 push	 rdi
  00011	48 81 ec 48 01
	00 00		 sub	 rsp, 328		; 00000148H
  00018	48 8d 6c 24 20	 lea	 rbp, QWORD PTR [rsp+32]
  0001d	48 8b fc	 mov	 rdi, rsp
  00020	b9 52 00 00 00	 mov	 ecx, 82			; 00000052H
  00025	b8 cc cc cc cc	 mov	 eax, -858993460		; ccccccccH
  0002a	f3 ab		 rep stosd
  0002c	48 8b 8c 24 68
	01 00 00	 mov	 rcx, QWORD PTR [rsp+360]
  00034	48 8d 0d 00 00
	00 00		 lea	 rcx, OFFSET FLAT:__3ACC9D4A_chrono
  0003b	e8 00 00 00 00	 call	 __CheckForDebuggerJustMyCode

; 253  :         using _CD = common_type_t<duration<_Rep1, _Period1>, duration<_Rep2, _Period2>>;
; 254  :         return _CD(_CD(_Left).count() - _CD(_Right).count());

  00040	48 8b 85 48 01
	00 00		 mov	 rax, QWORD PTR _Left$[rbp]
  00047	48 8b 00	 mov	 rax, QWORD PTR [rax]
  0004a	48 89 85 e8 00
	00 00		 mov	 QWORD PTR $T2[rbp], rax
  00051	48 8b 85 50 01
	00 00		 mov	 rax, QWORD PTR _Right$[rbp]
  00058	48 8b 00	 mov	 rax, QWORD PTR [rax]
  0005b	48 89 85 08 01
	00 00		 mov	 QWORD PTR $T3[rbp], rax
  00062	48 8d 8d e8 00
	00 00		 lea	 rcx, QWORD PTR $T2[rbp]
  00069	e8 00 00 00 00	 call	 ?count@?$duration@_JU?$ratio@$00$0DLJKMKAA@@std@@@chrono@std@@QEBA_JXZ ; std::chrono::duration<__int64,std::ratio<1,1000000000> >::count
  0006e	48 89 85 18 01
	00 00		 mov	 QWORD PTR tv68[rbp], rax
  00075	48 8d 8d 08 01
	00 00		 lea	 rcx, QWORD PTR $T3[rbp]
  0007c	e8 00 00 00 00	 call	 ?count@?$duration@_JU?$ratio@$00$0DLJKMKAA@@std@@@chrono@std@@QEBA_JXZ ; std::chrono::duration<__int64,std::ratio<1,1000000000> >::count
  00081	48 8b 8d 18 01
	00 00		 mov	 rcx, QWORD PTR tv68[rbp]
  00088	48 2b c8	 sub	 rcx, rax
  0008b	48 8b c1	 mov	 rax, rcx
  0008e	48 89 85 c8 00
	00 00		 mov	 QWORD PTR $T1[rbp], rax
  00095	48 8d 95 c8 00
	00 00		 lea	 rdx, QWORD PTR $T1[rbp]
  0009c	48 8b 8d 40 01
	00 00		 mov	 rcx, QWORD PTR __$ReturnUdt$[rbp]
  000a3	e8 00 00 00 00	 call	 ??$?0_J$0A@@?$duration@_JU?$ratio@$00$0DLJKMKAA@@std@@@chrono@std@@QEAA@AEB_J@Z ; std::chrono::duration<__int64,std::ratio<1,1000000000> >::duration<__int64,std::ratio<1,1000000000> ><__int64,0>
  000a8	48 8b 85 40 01
	00 00		 mov	 rax, QWORD PTR __$ReturnUdt$[rbp]

; 255  :     }

  000af	48 8d a5 28 01
	00 00		 lea	 rsp, QWORD PTR [rbp+296]
  000b6	5f		 pop	 rdi
  000b7	5d		 pop	 rbp
  000b8	c3		 ret	 0
??$?G_JU?$ratio@$00$0DLJKMKAA@@std@@_JU01@@chrono@std@@YA?AV?$duration@_JU?$ratio@$00$0DLJKMKAA@@std@@@01@AEBV201@0@Z ENDP ; std::chrono::operator-<__int64,std::ratio<1,1000000000>,__int64,std::ratio<1,1000000000> >
_TEXT	ENDS
; Function compile flags: /Odtp /RTCsu /ZI
; File C:\Program Files (x86)\Microsoft Visual Studio\2019\Enterprise\VC\Tools\MSVC\14.27.29110\include\xmemory
;	COMDAT ??$destroy@F@?$_Default_allocator_traits@V?$allocator@F@std@@@std@@SAXAEAV?$allocator@F@1@QEAF@Z
_TEXT	SEGMENT
__formal$ = 224
_Ptr$ = 232
??$destroy@F@?$_Default_allocator_traits@V?$allocator@F@std@@@std@@SAXAEAV?$allocator@F@1@QEAF@Z PROC ; std::_Default_allocator_traits<std::allocator<short> >::destroy<short>, COMDAT

; 698  :     static void destroy(_Alloc&, _Uty* const _Ptr) {

$LN3:
  00000	48 89 54 24 10	 mov	 QWORD PTR [rsp+16], rdx
  00005	48 89 4c 24 08	 mov	 QWORD PTR [rsp+8], rcx
  0000a	55		 push	 rbp
  0000b	57		 push	 rdi
  0000c	48 81 ec e8 00
	00 00		 sub	 rsp, 232		; 000000e8H
  00013	48 8d 6c 24 20	 lea	 rbp, QWORD PTR [rsp+32]
  00018	48 8b fc	 mov	 rdi, rsp
  0001b	b9 3a 00 00 00	 mov	 ecx, 58			; 0000003aH
  00020	b8 cc cc cc cc	 mov	 eax, -858993460		; ccccccccH
  00025	f3 ab		 rep stosd
  00027	48 8b 8c 24 08
	01 00 00	 mov	 rcx, QWORD PTR [rsp+264]
  0002f	48 8d 0d 00 00
	00 00		 lea	 rcx, OFFSET FLAT:__0C99713E_xmemory
  00036	e8 00 00 00 00	 call	 __CheckForDebuggerJustMyCode

; 699  :         _Ptr->~_Uty();
; 700  :     }

  0003b	48 8d a5 c8 00
	00 00		 lea	 rsp, QWORD PTR [rbp+200]
  00042	5f		 pop	 rdi
  00043	5d		 pop	 rbp
  00044	c3		 ret	 0
??$destroy@F@?$_Default_allocator_traits@V?$allocator@F@std@@@std@@SAXAEAV?$allocator@F@1@QEAF@Z ENDP ; std::_Default_allocator_traits<std::allocator<short> >::destroy<short>
_TEXT	ENDS
; Function compile flags: /Odtp /RTCsu /ZI
; File C:\Program Files (x86)\Microsoft Visual Studio\2019\Enterprise\VC\Tools\MSVC\14.27.29110\include\xstddef
;	COMDAT ??$_Unfancy@F@std@@YAPEAFPEAF@Z
_TEXT	SEGMENT
_Ptr$ = 224
??$_Unfancy@F@std@@YAPEAFPEAF@Z PROC			; std::_Unfancy<short>, COMDAT

; 288  : _NODISCARD constexpr _Ty* _Unfancy(_Ty* _Ptr) noexcept { // do nothing for plain pointers

$LN3:
  00000	48 89 4c 24 08	 mov	 QWORD PTR [rsp+8], rcx
  00005	55		 push	 rbp
  00006	57		 push	 rdi
  00007	48 81 ec e8 00
	00 00		 sub	 rsp, 232		; 000000e8H
  0000e	48 8d 6c 24 20	 lea	 rbp, QWORD PTR [rsp+32]
  00013	48 8b fc	 mov	 rdi, rsp
  00016	b9 3a 00 00 00	 mov	 ecx, 58			; 0000003aH
  0001b	b8 cc cc cc cc	 mov	 eax, -858993460		; ccccccccH
  00020	f3 ab		 rep stosd
  00022	48 8b 8c 24 08
	01 00 00	 mov	 rcx, QWORD PTR [rsp+264]
  0002a	48 8d 0d 00 00
	00 00		 lea	 rcx, OFFSET FLAT:__911385EF_xstddef
  00031	e8 00 00 00 00	 call	 __CheckForDebuggerJustMyCode

; 289  :     return _Ptr;

  00036	48 8b 85 e0 00
	00 00		 mov	 rax, QWORD PTR _Ptr$[rbp]

; 290  : }

  0003d	48 8d a5 c8 00
	00 00		 lea	 rsp, QWORD PTR [rbp+200]
  00044	5f		 pop	 rdi
  00045	5d		 pop	 rbp
  00046	c3		 ret	 0
??$_Unfancy@F@std@@YAPEAFPEAF@Z ENDP			; std::_Unfancy<short>
_TEXT	ENDS
; Function compile flags: /Odtp /RTCsu /ZI
; File C:\Program Files (x86)\Microsoft Visual Studio\2019\Enterprise\VC\Tools\MSVC\14.27.29110\include\xmemory
;	COMDAT ??$_Deallocate@$0BA@$0A@@std@@YAXPEAX_K@Z
_TEXT	SEGMENT
_Ptr$ = 224
_Bytes$ = 232
??$_Deallocate@$0BA@$0A@@std@@YAXPEAX_K@Z PROC		; std::_Deallocate<16,0>, COMDAT

; 213  : void _Deallocate(void* _Ptr, size_t _Bytes) noexcept {

$LN4:
  00000	48 89 54 24 10	 mov	 QWORD PTR [rsp+16], rdx
  00005	48 89 4c 24 08	 mov	 QWORD PTR [rsp+8], rcx
  0000a	55		 push	 rbp
  0000b	57		 push	 rdi
  0000c	48 81 ec e8 00
	00 00		 sub	 rsp, 232		; 000000e8H
  00013	48 8d 6c 24 20	 lea	 rbp, QWORD PTR [rsp+32]
  00018	48 8b fc	 mov	 rdi, rsp
  0001b	b9 3a 00 00 00	 mov	 ecx, 58			; 0000003aH
  00020	b8 cc cc cc cc	 mov	 eax, -858993460		; ccccccccH
  00025	f3 ab		 rep stosd
  00027	48 8b 8c 24 08
	01 00 00	 mov	 rcx, QWORD PTR [rsp+264]
  0002f	48 8d 0d 00 00
	00 00		 lea	 rcx, OFFSET FLAT:__0C99713E_xmemory
  00036	e8 00 00 00 00	 call	 __CheckForDebuggerJustMyCode

; 214  :     // deallocate storage allocated by _Allocate when !_HAS_ALIGNED_NEW || _Align <= __STDCPP_DEFAULT_NEW_ALIGNMENT__
; 215  : #if defined(_M_IX86) || defined(_M_X64)
; 216  :     if (_Bytes >= _Big_allocation_threshold) { // boost the alignment of big allocations to help autovectorization

  0003b	48 81 bd e8 00
	00 00 00 10 00
	00		 cmp	 QWORD PTR _Bytes$[rbp], 4096 ; 00001000H
  00046	72 13		 jb	 SHORT $LN2@Deallocate

; 217  :         _Adjust_manually_vector_aligned(_Ptr, _Bytes);

  00048	48 8d 95 e8 00
	00 00		 lea	 rdx, QWORD PTR _Bytes$[rbp]
  0004f	48 8d 8d e0 00
	00 00		 lea	 rcx, QWORD PTR _Ptr$[rbp]
  00056	e8 00 00 00 00	 call	 ?_Adjust_manually_vector_aligned@std@@YAXAEAPEAXAEA_K@Z ; std::_Adjust_manually_vector_aligned
$LN2@Deallocate:

; 218  :     }
; 219  : #endif // defined(_M_IX86) || defined(_M_X64)
; 220  : 
; 221  :     ::operator delete(_Ptr, _Bytes);

  0005b	48 8b 95 e8 00
	00 00		 mov	 rdx, QWORD PTR _Bytes$[rbp]
  00062	48 8b 8d e0 00
	00 00		 mov	 rcx, QWORD PTR _Ptr$[rbp]
  00069	e8 00 00 00 00	 call	 ??3@YAXPEAX_K@Z		; operator delete
  0006e	90		 npad	 1

; 222  : }

  0006f	48 8d a5 c8 00
	00 00		 lea	 rsp, QWORD PTR [rbp+200]
  00076	5f		 pop	 rdi
  00077	5d		 pop	 rbp
  00078	c3		 ret	 0
??$_Deallocate@$0BA@$0A@@std@@YAXPEAX_K@Z ENDP		; std::_Deallocate<16,0>
_TEXT	ENDS
; Function compile flags: /Odtp /RTCsu /ZI
; File C:\Program Files (x86)\Microsoft Visual Studio\2019\Enterprise\VC\Tools\MSVC\14.27.29110\include\xmemory
;	COMDAT ??$destroy@UMFSTState@MFST@@@?$_Default_allocator_traits@V?$allocator@UMFSTState@MFST@@@std@@@std@@SAXAEAV?$allocator@UMFSTState@MFST@@@1@QEAUMFSTState@MFST@@@Z
_TEXT	SEGMENT
__formal$ = 224
_Ptr$ = 232
??$destroy@UMFSTState@MFST@@@?$_Default_allocator_traits@V?$allocator@UMFSTState@MFST@@@std@@@std@@SAXAEAV?$allocator@UMFSTState@MFST@@@1@QEAUMFSTState@MFST@@@Z PROC ; std::_Default_allocator_traits<std::allocator<MFST::MFSTState> >::destroy<MFST::MFSTState>, COMDAT

; 698  :     static void destroy(_Alloc&, _Uty* const _Ptr) {

$LN3:
  00000	48 89 54 24 10	 mov	 QWORD PTR [rsp+16], rdx
  00005	48 89 4c 24 08	 mov	 QWORD PTR [rsp+8], rcx
  0000a	55		 push	 rbp
  0000b	57		 push	 rdi
  0000c	48 81 ec e8 00
	00 00		 sub	 rsp, 232		; 000000e8H
  00013	48 8d 6c 24 20	 lea	 rbp, QWORD PTR [rsp+32]
  00018	48 8b fc	 mov	 rdi, rsp
  0001b	b9 3a 00 00 00	 mov	 ecx, 58			; 0000003aH
  00020	b8 cc cc cc cc	 mov	 eax, -858993460		; ccccccccH
  00025	f3 ab		 rep stosd
  00027	48 8b 8c 24 08
	01 00 00	 mov	 rcx, QWORD PTR [rsp+264]
  0002f	48 8d 0d 00 00
	00 00		 lea	 rcx, OFFSET FLAT:__0C99713E_xmemory
  00036	e8 00 00 00 00	 call	 __CheckForDebuggerJustMyCode

; 699  :         _Ptr->~_Uty();

  0003b	33 d2		 xor	 edx, edx
  0003d	48 8b 8d e8 00
	00 00		 mov	 rcx, QWORD PTR _Ptr$[rbp]
  00044	e8 00 00 00 00	 call	 ??_GMFSTState@MFST@@QEAAPEAXI@Z

; 700  :     }

  00049	48 8d a5 c8 00
	00 00		 lea	 rsp, QWORD PTR [rbp+200]
  00050	5f		 pop	 rdi
  00051	5d		 pop	 rbp
  00052	c3		 ret	 0
??$destroy@UMFSTState@MFST@@@?$_Default_allocator_traits@V?$allocator@UMFSTState@MFST@@@std@@@std@@SAXAEAV?$allocator@UMFSTState@MFST@@@1@QEAUMFSTState@MFST@@@Z ENDP ; std::_Default_allocator_traits<std::allocator<MFST::MFSTState> >::destroy<MFST::MFSTState>
_TEXT	ENDS
; Function compile flags: /Odtp /RTCsu /ZI
; File C:\Program Files (x86)\Microsoft Visual Studio\2019\Enterprise\VC\Tools\MSVC\14.27.29110\include\xstddef
;	COMDAT ??$_Unfancy@UMFSTState@MFST@@@std@@YAPEAUMFSTState@MFST@@PEAU12@@Z
_TEXT	SEGMENT
_Ptr$ = 224
??$_Unfancy@UMFSTState@MFST@@@std@@YAPEAUMFSTState@MFST@@PEAU12@@Z PROC ; std::_Unfancy<MFST::MFSTState>, COMDAT

; 288  : _NODISCARD constexpr _Ty* _Unfancy(_Ty* _Ptr) noexcept { // do nothing for plain pointers

$LN3:
  00000	48 89 4c 24 08	 mov	 QWORD PTR [rsp+8], rcx
  00005	55		 push	 rbp
  00006	57		 push	 rdi
  00007	48 81 ec e8 00
	00 00		 sub	 rsp, 232		; 000000e8H
  0000e	48 8d 6c 24 20	 lea	 rbp, QWORD PTR [rsp+32]
  00013	48 8b fc	 mov	 rdi, rsp
  00016	b9 3a 00 00 00	 mov	 ecx, 58			; 0000003aH
  0001b	b8 cc cc cc cc	 mov	 eax, -858993460		; ccccccccH
  00020	f3 ab		 rep stosd
  00022	48 8b 8c 24 08
	01 00 00	 mov	 rcx, QWORD PTR [rsp+264]
  0002a	48 8d 0d 00 00
	00 00		 lea	 rcx, OFFSET FLAT:__911385EF_xstddef
  00031	e8 00 00 00 00	 call	 __CheckForDebuggerJustMyCode

; 289  :     return _Ptr;

  00036	48 8b 85 e0 00
	00 00		 mov	 rax, QWORD PTR _Ptr$[rbp]

; 290  : }

  0003d	48 8d a5 c8 00
	00 00		 lea	 rsp, QWORD PTR [rbp+200]
  00044	5f		 pop	 rdi
  00045	5d		 pop	 rbp
  00046	c3		 ret	 0
??$_Unfancy@UMFSTState@MFST@@@std@@YAPEAUMFSTState@MFST@@PEAU12@@Z ENDP ; std::_Unfancy<MFST::MFSTState>
_TEXT	ENDS
; Function compile flags: /Odtp /RTCsu /ZI
; File C:\Program Files (x86)\Microsoft Visual Studio\2019\Enterprise\VC\Tools\MSVC\14.27.29110\include\xmemory
;	COMDAT ??$_Destroy_in_place@PEAF@std@@YAXAEAPEAF@Z
_TEXT	SEGMENT
_Obj$ = 224
??$_Destroy_in_place@PEAF@std@@YAXAEAPEAF@Z PROC	; std::_Destroy_in_place<short *>, COMDAT

; 267  : void _Destroy_in_place(_Ty& _Obj) noexcept {

$LN3:
  00000	48 89 4c 24 08	 mov	 QWORD PTR [rsp+8], rcx
  00005	55		 push	 rbp
  00006	57		 push	 rdi
  00007	48 81 ec e8 00
	00 00		 sub	 rsp, 232		; 000000e8H
  0000e	48 8d 6c 24 20	 lea	 rbp, QWORD PTR [rsp+32]
  00013	48 8b fc	 mov	 rdi, rsp
  00016	b9 3a 00 00 00	 mov	 ecx, 58			; 0000003aH
  0001b	b8 cc cc cc cc	 mov	 eax, -858993460		; ccccccccH
  00020	f3 ab		 rep stosd
  00022	48 8b 8c 24 08
	01 00 00	 mov	 rcx, QWORD PTR [rsp+264]
  0002a	48 8d 0d 00 00
	00 00		 lea	 rcx, OFFSET FLAT:__0C99713E_xmemory
  00031	e8 00 00 00 00	 call	 __CheckForDebuggerJustMyCode
  00036	90		 npad	 1

; 268  :     _Obj.~_Ty();
; 269  : }

  00037	48 8d a5 c8 00
	00 00		 lea	 rsp, QWORD PTR [rbp+200]
  0003e	5f		 pop	 rdi
  0003f	5d		 pop	 rbp
  00040	c3		 ret	 0
??$_Destroy_in_place@PEAF@std@@YAXAEAPEAF@Z ENDP	; std::_Destroy_in_place<short *>
_TEXT	ENDS
; Function compile flags: /Odtp /RTCsu /ZI
; File C:\Program Files (x86)\Microsoft Visual Studio\2019\Enterprise\VC\Tools\MSVC\14.27.29110\include\xmemory
;	COMDAT ??$?0F@?$allocator@PEAF@std@@QEAA@AEBV?$allocator@F@1@@Z
_TEXT	SEGMENT
this$ = 224
__formal$ = 232
??$?0F@?$allocator@PEAF@std@@QEAA@AEBV?$allocator@F@1@@Z PROC ; std::allocator<short *>::allocator<short *><short>, COMDAT

; 799  :     constexpr allocator(const allocator<_Other>&) noexcept {}

$LN3:
  00000	48 89 54 24 10	 mov	 QWORD PTR [rsp+16], rdx
  00005	48 89 4c 24 08	 mov	 QWORD PTR [rsp+8], rcx
  0000a	55		 push	 rbp
  0000b	57		 push	 rdi
  0000c	48 81 ec e8 00
	00 00		 sub	 rsp, 232		; 000000e8H
  00013	48 8d 6c 24 20	 lea	 rbp, QWORD PTR [rsp+32]
  00018	48 8b fc	 mov	 rdi, rsp
  0001b	b9 3a 00 00 00	 mov	 ecx, 58			; 0000003aH
  00020	b8 cc cc cc cc	 mov	 eax, -858993460		; ccccccccH
  00025	f3 ab		 rep stosd
  00027	48 8b 8c 24 08
	01 00 00	 mov	 rcx, QWORD PTR [rsp+264]
  0002f	48 8d 0d 00 00
	00 00		 lea	 rcx, OFFSET FLAT:__0C99713E_xmemory
  00036	e8 00 00 00 00	 call	 __CheckForDebuggerJustMyCode
  0003b	48 8b 85 e0 00
	00 00		 mov	 rax, QWORD PTR this$[rbp]
  00042	48 8d a5 c8 00
	00 00		 lea	 rsp, QWORD PTR [rbp+200]
  00049	5f		 pop	 rdi
  0004a	5d		 pop	 rbp
  0004b	c3		 ret	 0
??$?0F@?$allocator@PEAF@std@@QEAA@AEBV?$allocator@F@1@@Z ENDP ; std::allocator<short *>::allocator<short *><short>
_TEXT	ENDS
; Function compile flags: /Odtp /RTCsu /ZI
; File C:\Program Files (x86)\Microsoft Visual Studio\2019\Enterprise\VC\Tools\MSVC\14.27.29110\include\xmemory
;	COMDAT ??$_Destroy_in_place@PEAUMFSTState@MFST@@@std@@YAXAEAPEAUMFSTState@MFST@@@Z
_TEXT	SEGMENT
_Obj$ = 224
??$_Destroy_in_place@PEAUMFSTState@MFST@@@std@@YAXAEAPEAUMFSTState@MFST@@@Z PROC ; std::_Destroy_in_place<MFST::MFSTState *>, COMDAT

; 267  : void _Destroy_in_place(_Ty& _Obj) noexcept {

$LN3:
  00000	48 89 4c 24 08	 mov	 QWORD PTR [rsp+8], rcx
  00005	55		 push	 rbp
  00006	57		 push	 rdi
  00007	48 81 ec e8 00
	00 00		 sub	 rsp, 232		; 000000e8H
  0000e	48 8d 6c 24 20	 lea	 rbp, QWORD PTR [rsp+32]
  00013	48 8b fc	 mov	 rdi, rsp
  00016	b9 3a 00 00 00	 mov	 ecx, 58			; 0000003aH
  0001b	b8 cc cc cc cc	 mov	 eax, -858993460		; ccccccccH
  00020	f3 ab		 rep stosd
  00022	48 8b 8c 24 08
	01 00 00	 mov	 rcx, QWORD PTR [rsp+264]
  0002a	48 8d 0d 00 00
	00 00		 lea	 rcx, OFFSET FLAT:__0C99713E_xmemory
  00031	e8 00 00 00 00	 call	 __CheckForDebuggerJustMyCode
  00036	90		 npad	 1

; 268  :     _Obj.~_Ty();
; 269  : }

  00037	48 8d a5 c8 00
	00 00		 lea	 rsp, QWORD PTR [rbp+200]
  0003e	5f		 pop	 rdi
  0003f	5d		 pop	 rbp
  00040	c3		 ret	 0
??$_Destroy_in_place@PEAUMFSTState@MFST@@@std@@YAXAEAPEAUMFSTState@MFST@@@Z ENDP ; std::_Destroy_in_place<MFST::MFSTState *>
_TEXT	ENDS
; Function compile flags: /Odtp /RTCsu /ZI
; File C:\Program Files (x86)\Microsoft Visual Studio\2019\Enterprise\VC\Tools\MSVC\14.27.29110\include\xmemory
;	COMDAT ??$?0UMFSTState@MFST@@@?$allocator@PEAUMFSTState@MFST@@@std@@QEAA@AEBV?$allocator@UMFSTState@MFST@@@1@@Z
_TEXT	SEGMENT
this$ = 224
__formal$ = 232
??$?0UMFSTState@MFST@@@?$allocator@PEAUMFSTState@MFST@@@std@@QEAA@AEBV?$allocator@UMFSTState@MFST@@@1@@Z PROC ; std::allocator<MFST::MFSTState *>::allocator<MFST::MFSTState *><MFST::MFSTState>, COMDAT

; 799  :     constexpr allocator(const allocator<_Other>&) noexcept {}

$LN3:
  00000	48 89 54 24 10	 mov	 QWORD PTR [rsp+16], rdx
  00005	48 89 4c 24 08	 mov	 QWORD PTR [rsp+8], rcx
  0000a	55		 push	 rbp
  0000b	57		 push	 rdi
  0000c	48 81 ec e8 00
	00 00		 sub	 rsp, 232		; 000000e8H
  00013	48 8d 6c 24 20	 lea	 rbp, QWORD PTR [rsp+32]
  00018	48 8b fc	 mov	 rdi, rsp
  0001b	b9 3a 00 00 00	 mov	 ecx, 58			; 0000003aH
  00020	b8 cc cc cc cc	 mov	 eax, -858993460		; ccccccccH
  00025	f3 ab		 rep stosd
  00027	48 8b 8c 24 08
	01 00 00	 mov	 rcx, QWORD PTR [rsp+264]
  0002f	48 8d 0d 00 00
	00 00		 lea	 rcx, OFFSET FLAT:__0C99713E_xmemory
  00036	e8 00 00 00 00	 call	 __CheckForDebuggerJustMyCode
  0003b	48 8b 85 e0 00
	00 00		 mov	 rax, QWORD PTR this$[rbp]
  00042	48 8d a5 c8 00
	00 00		 lea	 rsp, QWORD PTR [rbp+200]
  00049	5f		 pop	 rdi
  0004a	5d		 pop	 rbp
  0004b	c3		 ret	 0
??$?0UMFSTState@MFST@@@?$allocator@PEAUMFSTState@MFST@@@std@@QEAA@AEBV?$allocator@UMFSTState@MFST@@@1@@Z ENDP ; std::allocator<MFST::MFSTState *>::allocator<MFST::MFSTState *><MFST::MFSTState>
_TEXT	ENDS
; Function compile flags: /Odtp /RTCsu /ZI
; File C:\Program Files (x86)\Microsoft Visual Studio\2019\Enterprise\VC\Tools\MSVC\14.27.29110\include\ostream
;	COMDAT ??Bsentry@?$basic_ostream@DU?$char_traits@D@std@@@std@@QEBA_NXZ
_TEXT	SEGMENT
this$ = 224
??Bsentry@?$basic_ostream@DU?$char_traits@D@std@@@std@@QEBA_NXZ PROC ; std::basic_ostream<char,std::char_traits<char> >::sentry::operator bool, COMDAT

; 125  :         explicit __CLR_OR_THIS_CALL operator bool() const {

$LN3:
  00000	48 89 4c 24 08	 mov	 QWORD PTR [rsp+8], rcx
  00005	55		 push	 rbp
  00006	57		 push	 rdi
  00007	48 81 ec e8 00
	00 00		 sub	 rsp, 232		; 000000e8H
  0000e	48 8d 6c 24 20	 lea	 rbp, QWORD PTR [rsp+32]
  00013	48 8b fc	 mov	 rdi, rsp
  00016	b9 3a 00 00 00	 mov	 ecx, 58			; 0000003aH
  0001b	b8 cc cc cc cc	 mov	 eax, -858993460		; ccccccccH
  00020	f3 ab		 rep stosd
  00022	48 8b 8c 24 08
	01 00 00	 mov	 rcx, QWORD PTR [rsp+264]
  0002a	48 8d 0d 00 00
	00 00		 lea	 rcx, OFFSET FLAT:__B4645957_ostream
  00031	e8 00 00 00 00	 call	 __CheckForDebuggerJustMyCode

; 126  :             return _Ok;

  00036	48 8b 85 e0 00
	00 00		 mov	 rax, QWORD PTR this$[rbp]
  0003d	0f b6 40 08	 movzx	 eax, BYTE PTR [rax+8]

; 127  :         }

  00041	48 8d a5 c8 00
	00 00		 lea	 rsp, QWORD PTR [rbp+200]
  00048	5f		 pop	 rdi
  00049	5d		 pop	 rbp
  0004a	c3		 ret	 0
??Bsentry@?$basic_ostream@DU?$char_traits@D@std@@@std@@QEBA_NXZ ENDP ; std::basic_ostream<char,std::char_traits<char> >::sentry::operator bool
_TEXT	ENDS
; Function compile flags: /Odtp /RTCsu /ZI
; File C:\Program Files (x86)\Microsoft Visual Studio\2019\Enterprise\VC\Tools\MSVC\14.27.29110\include\ostream
;	COMDAT ??1sentry@?$basic_ostream@DU?$char_traits@D@std@@@std@@QEAA@XZ
_TEXT	SEGMENT
_Zero_uncaught_exceptions$ = 4
tv72 = 212
this$ = 256
??1sentry@?$basic_ostream@DU?$char_traits@D@std@@@std@@QEAA@XZ PROC ; std::basic_ostream<char,std::char_traits<char> >::sentry::~sentry, COMDAT

; 110  :         __CLR_OR_THIS_CALL ~sentry() noexcept {

$LN6:
  00000	48 89 4c 24 08	 mov	 QWORD PTR [rsp+8], rcx
  00005	55		 push	 rbp
  00006	57		 push	 rdi
  00007	48 81 ec 08 01
	00 00		 sub	 rsp, 264		; 00000108H
  0000e	48 8d 6c 24 20	 lea	 rbp, QWORD PTR [rsp+32]
  00013	48 8b fc	 mov	 rdi, rsp
  00016	b9 42 00 00 00	 mov	 ecx, 66			; 00000042H
  0001b	b8 cc cc cc cc	 mov	 eax, -858993460		; ccccccccH
  00020	f3 ab		 rep stosd
  00022	48 8b 8c 24 28
	01 00 00	 mov	 rcx, QWORD PTR [rsp+296]
  0002a	48 8d 0d 00 00
	00 00		 lea	 rcx, OFFSET FLAT:__B4645957_ostream
  00031	e8 00 00 00 00	 call	 __CheckForDebuggerJustMyCode

; 111  : #if !_HAS_EXCEPTIONS
; 112  :             const bool _Zero_uncaught_exceptions = true;
; 113  : #elif _HAS_DEPRECATED_UNCAUGHT_EXCEPTION
; 114  :             const bool _Zero_uncaught_exceptions = !_STD uncaught_exception(); // TRANSITION, ArchivedOS-12000909

  00036	e8 00 00 00 00	 call	 ?uncaught_exception@std@@YA_NXZ ; std::uncaught_exception
  0003b	0f b6 c0	 movzx	 eax, al
  0003e	85 c0		 test	 eax, eax
  00040	75 09		 jne	 SHORT $LN4@sentry
  00042	c6 85 d4 00 00
	00 01		 mov	 BYTE PTR tv72[rbp], 1
  00049	eb 07		 jmp	 SHORT $LN5@sentry
$LN4@sentry:
  0004b	c6 85 d4 00 00
	00 00		 mov	 BYTE PTR tv72[rbp], 0
$LN5@sentry:
  00052	0f b6 85 d4 00
	00 00		 movzx	 eax, BYTE PTR tv72[rbp]
  00059	88 45 04	 mov	 BYTE PTR _Zero_uncaught_exceptions$[rbp], al

; 115  : #else // ^^^ _HAS_DEPRECATED_UNCAUGHT_EXCEPTION / !_HAS_DEPRECATED_UNCAUGHT_EXCEPTION vvv
; 116  :             const bool _Zero_uncaught_exceptions = _STD uncaught_exceptions() == 0;
; 117  : #endif // !_HAS_DEPRECATED_UNCAUGHT_EXCEPTION
; 118  : 
; 119  :             if (_Zero_uncaught_exceptions) {

  0005c	0f b6 45 04	 movzx	 eax, BYTE PTR _Zero_uncaught_exceptions$[rbp]
  00060	85 c0		 test	 eax, eax
  00062	74 10		 je	 SHORT $LN2@sentry

; 120  :                 this->_Myostr._Osfx();

  00064	48 8b 85 00 01
	00 00		 mov	 rax, QWORD PTR this$[rbp]
  0006b	48 8b 08	 mov	 rcx, QWORD PTR [rax]
  0006e	ff 15 00 00 00
	00		 call	 QWORD PTR __imp_?_Osfx@?$basic_ostream@DU?$char_traits@D@std@@@std@@QEAAXXZ
$LN2@sentry:

; 121  :             }
; 122  :         }

  00074	48 8b 8d 00 01
	00 00		 mov	 rcx, QWORD PTR this$[rbp]
  0007b	e8 00 00 00 00	 call	 ??1_Sentry_base@?$basic_ostream@DU?$char_traits@D@std@@@std@@QEAA@XZ ; std::basic_ostream<char,std::char_traits<char> >::_Sentry_base::~_Sentry_base
  00080	90		 npad	 1
  00081	48 8d a5 e8 00
	00 00		 lea	 rsp, QWORD PTR [rbp+232]
  00088	5f		 pop	 rdi
  00089	5d		 pop	 rbp
  0008a	c3		 ret	 0
??1sentry@?$basic_ostream@DU?$char_traits@D@std@@@std@@QEAA@XZ ENDP ; std::basic_ostream<char,std::char_traits<char> >::sentry::~sentry
_TEXT	ENDS
; Function compile flags: /Odtp /RTCsu /ZI
; File C:\Program Files (x86)\Microsoft Visual Studio\2019\Enterprise\VC\Tools\MSVC\14.27.29110\include\ostream
;	COMDAT ??0sentry@?$basic_ostream@DU?$char_traits@D@std@@@std@@QEAA@AEAV12@@Z
_TEXT	SEGMENT
_Tied$ = 8
this$ = 256
_Ostr$ = 264
??0sentry@?$basic_ostream@DU?$char_traits@D@std@@@std@@QEAA@AEAV12@@Z PROC ; std::basic_ostream<char,std::char_traits<char> >::sentry::sentry, COMDAT

; 92   :         explicit __CLR_OR_THIS_CALL sentry(basic_ostream& _Ostr) : _Sentry_base(_Ostr) {

$LN7:
  00000	48 89 54 24 10	 mov	 QWORD PTR [rsp+16], rdx
  00005	48 89 4c 24 08	 mov	 QWORD PTR [rsp+8], rcx
  0000a	55		 push	 rbp
  0000b	57		 push	 rdi
  0000c	48 81 ec 08 01
	00 00		 sub	 rsp, 264		; 00000108H
  00013	48 8d 6c 24 20	 lea	 rbp, QWORD PTR [rsp+32]
  00018	48 8b fc	 mov	 rdi, rsp
  0001b	b9 42 00 00 00	 mov	 ecx, 66			; 00000042H
  00020	b8 cc cc cc cc	 mov	 eax, -858993460		; ccccccccH
  00025	f3 ab		 rep stosd
  00027	48 8b 8c 24 28
	01 00 00	 mov	 rcx, QWORD PTR [rsp+296]
  0002f	48 8d 0d 00 00
	00 00		 lea	 rcx, OFFSET FLAT:__B4645957_ostream
  00036	e8 00 00 00 00	 call	 __CheckForDebuggerJustMyCode
  0003b	48 8b 95 08 01
	00 00		 mov	 rdx, QWORD PTR _Ostr$[rbp]
  00042	48 8b 8d 00 01
	00 00		 mov	 rcx, QWORD PTR this$[rbp]
  00049	e8 00 00 00 00	 call	 ??0_Sentry_base@?$basic_ostream@DU?$char_traits@D@std@@@std@@QEAA@AEAV12@@Z ; std::basic_ostream<char,std::char_traits<char> >::_Sentry_base::_Sentry_base
  0004e	90		 npad	 1

; 93   :             if (!_Ostr.good()) {

  0004f	48 8b 85 08 01
	00 00		 mov	 rax, QWORD PTR _Ostr$[rbp]
  00056	48 8b 00	 mov	 rax, QWORD PTR [rax]
  00059	48 63 40 04	 movsxd	 rax, DWORD PTR [rax+4]
  0005d	48 8b 8d 08 01
	00 00		 mov	 rcx, QWORD PTR _Ostr$[rbp]
  00064	48 03 c8	 add	 rcx, rax
  00067	48 8b c1	 mov	 rax, rcx
  0006a	48 8b c8	 mov	 rcx, rax
  0006d	ff 15 00 00 00
	00		 call	 QWORD PTR __imp_?good@ios_base@std@@QEBA_NXZ
  00073	0f b6 c0	 movzx	 eax, al
  00076	85 c0		 test	 eax, eax
  00078	75 10		 jne	 SHORT $LN2@sentry

; 94   :                 _Ok = false;

  0007a	48 8b 85 00 01
	00 00		 mov	 rax, QWORD PTR this$[rbp]
  00081	c6 40 08 00	 mov	 BYTE PTR [rax+8], 0

; 95   :                 return;

  00085	e9 81 00 00 00	 jmp	 $LN1@sentry
$LN2@sentry:

; 96   :             }
; 97   : 
; 98   :             const auto _Tied = _Ostr.tie();

  0008a	48 8b 85 08 01
	00 00		 mov	 rax, QWORD PTR _Ostr$[rbp]
  00091	48 8b 00	 mov	 rax, QWORD PTR [rax]
  00094	48 63 40 04	 movsxd	 rax, DWORD PTR [rax+4]
  00098	48 8b 8d 08 01
	00 00		 mov	 rcx, QWORD PTR _Ostr$[rbp]
  0009f	48 03 c8	 add	 rcx, rax
  000a2	48 8b c1	 mov	 rax, rcx
  000a5	48 8b c8	 mov	 rcx, rax
  000a8	ff 15 00 00 00
	00		 call	 QWORD PTR __imp_?tie@?$basic_ios@DU?$char_traits@D@std@@@std@@QEBAPEAV?$basic_ostream@DU?$char_traits@D@std@@@2@XZ
  000ae	48 89 45 08	 mov	 QWORD PTR _Tied$[rbp], rax

; 99   :             if (!_Tied || _Tied == &_Ostr) {

  000b2	48 83 7d 08 00	 cmp	 QWORD PTR _Tied$[rbp], 0
  000b7	74 0d		 je	 SHORT $LN4@sentry
  000b9	48 8b 85 08 01
	00 00		 mov	 rax, QWORD PTR _Ostr$[rbp]
  000c0	48 39 45 08	 cmp	 QWORD PTR _Tied$[rbp], rax
  000c4	75 0d		 jne	 SHORT $LN3@sentry
$LN4@sentry:

; 100  :                 _Ok = true;

  000c6	48 8b 85 00 01
	00 00		 mov	 rax, QWORD PTR this$[rbp]
  000cd	c6 40 08 01	 mov	 BYTE PTR [rax+8], 1

; 101  :                 return;

  000d1	eb 38		 jmp	 SHORT $LN1@sentry
$LN3@sentry:

; 102  :             }
; 103  : 
; 104  : 
; 105  :             _Tied->flush();

  000d3	48 8b 4d 08	 mov	 rcx, QWORD PTR _Tied$[rbp]
  000d7	ff 15 00 00 00
	00		 call	 QWORD PTR __imp_?flush@?$basic_ostream@DU?$char_traits@D@std@@@std@@QEAAAEAV12@XZ

; 106  :             _Ok = _Ostr.good(); // store test only after flushing tie

  000dd	48 8b 85 08 01
	00 00		 mov	 rax, QWORD PTR _Ostr$[rbp]
  000e4	48 8b 00	 mov	 rax, QWORD PTR [rax]
  000e7	48 63 40 04	 movsxd	 rax, DWORD PTR [rax+4]
  000eb	48 8b 8d 08 01
	00 00		 mov	 rcx, QWORD PTR _Ostr$[rbp]
  000f2	48 03 c8	 add	 rcx, rax
  000f5	48 8b c1	 mov	 rax, rcx
  000f8	48 8b c8	 mov	 rcx, rax
  000fb	ff 15 00 00 00
	00		 call	 QWORD PTR __imp_?good@ios_base@std@@QEBA_NXZ
  00101	48 8b 8d 00 01
	00 00		 mov	 rcx, QWORD PTR this$[rbp]
  00108	88 41 08	 mov	 BYTE PTR [rcx+8], al
$LN1@sentry:

; 107  :         }

  0010b	48 8b 85 00 01
	00 00		 mov	 rax, QWORD PTR this$[rbp]
  00112	48 8d a5 e8 00
	00 00		 lea	 rsp, QWORD PTR [rbp+232]
  00119	5f		 pop	 rdi
  0011a	5d		 pop	 rbp
  0011b	c3		 ret	 0
??0sentry@?$basic_ostream@DU?$char_traits@D@std@@@std@@QEAA@AEAV12@@Z ENDP ; std::basic_ostream<char,std::char_traits<char> >::sentry::sentry
_TEXT	ENDS
;	COMDAT text$x
text$x	SEGMENT
_Tied$ = 8
this$ = 256
_Ostr$ = 264
?dtor$0@?0???0sentry@?$basic_ostream@DU?$char_traits@D@std@@@std@@QEAA@AEAV12@@Z@4HA PROC ; `std::basic_ostream<char,std::char_traits<char> >::sentry::sentry'::`1'::dtor$0
  00000	48 89 4c 24 08	 mov	 QWORD PTR [rsp+8], rcx
  00005	48 89 54 24 10	 mov	 QWORD PTR [rsp+16], rdx
  0000a	55		 push	 rbp
  0000b	57		 push	 rdi
  0000c	48 83 ec 28	 sub	 rsp, 40			; 00000028H
  00010	48 8d 6a 20	 lea	 rbp, QWORD PTR [rdx+32]
  00014	48 8b 8d 00 01
	00 00		 mov	 rcx, QWORD PTR this$[rbp]
  0001b	e8 00 00 00 00	 call	 ??1_Sentry_base@?$basic_ostream@DU?$char_traits@D@std@@@std@@QEAA@XZ ; std::basic_ostream<char,std::char_traits<char> >::_Sentry_base::~_Sentry_base
  00020	48 83 c4 28	 add	 rsp, 40			; 00000028H
  00024	5f		 pop	 rdi
  00025	5d		 pop	 rbp
  00026	c3		 ret	 0
?dtor$0@?0???0sentry@?$basic_ostream@DU?$char_traits@D@std@@@std@@QEAA@AEAV12@@Z@4HA ENDP ; `std::basic_ostream<char,std::char_traits<char> >::sentry::sentry'::`1'::dtor$0
text$x	ENDS
; Function compile flags: /Odtp /RTCsu /ZI
;	COMDAT text$x
text$x	SEGMENT
_Tied$ = 8
this$ = 256
_Ostr$ = 264
?dtor$0@?0???0sentry@?$basic_ostream@DU?$char_traits@D@std@@@std@@QEAA@AEAV12@@Z@4HA PROC ; `std::basic_ostream<char,std::char_traits<char> >::sentry::sentry'::`1'::dtor$0
  00000	48 89 4c 24 08	 mov	 QWORD PTR [rsp+8], rcx
  00005	48 89 54 24 10	 mov	 QWORD PTR [rsp+16], rdx
  0000a	55		 push	 rbp
  0000b	57		 push	 rdi
  0000c	48 83 ec 28	 sub	 rsp, 40			; 00000028H
  00010	48 8d 6a 20	 lea	 rbp, QWORD PTR [rdx+32]
  00014	48 8b 8d 00 01
	00 00		 mov	 rcx, QWORD PTR this$[rbp]
  0001b	e8 00 00 00 00	 call	 ??1_Sentry_base@?$basic_ostream@DU?$char_traits@D@std@@@std@@QEAA@XZ ; std::basic_ostream<char,std::char_traits<char> >::_Sentry_base::~_Sentry_base
  00020	48 83 c4 28	 add	 rsp, 40			; 00000028H
  00024	5f		 pop	 rdi
  00025	5d		 pop	 rbp
  00026	c3		 ret	 0
?dtor$0@?0???0sentry@?$basic_ostream@DU?$char_traits@D@std@@@std@@QEAA@AEAV12@@Z@4HA ENDP ; `std::basic_ostream<char,std::char_traits<char> >::sentry::sentry'::`1'::dtor$0
text$x	ENDS
; Function compile flags: /Odtp /RTCsu /ZI
; File C:\Program Files (x86)\Microsoft Visual Studio\2019\Enterprise\VC\Tools\MSVC\14.27.29110\include\ostream
;	COMDAT ??1_Sentry_base@?$basic_ostream@DU?$char_traits@D@std@@@std@@QEAA@XZ
_TEXT	SEGMENT
_Rdbuf$ = 8
tv72 = 216
this$ = 256
??1_Sentry_base@?$basic_ostream@DU?$char_traits@D@std@@@std@@QEAA@XZ PROC ; std::basic_ostream<char,std::char_traits<char> >::_Sentry_base::~_Sentry_base, COMDAT

; 78   :         __CLR_OR_THIS_CALL ~_Sentry_base() noexcept { // destroy after unlocking

$LN4:
  00000	48 89 4c 24 08	 mov	 QWORD PTR [rsp+8], rcx
  00005	55		 push	 rbp
  00006	57		 push	 rdi
  00007	48 81 ec 08 01
	00 00		 sub	 rsp, 264		; 00000108H
  0000e	48 8d 6c 24 20	 lea	 rbp, QWORD PTR [rsp+32]
  00013	48 8b fc	 mov	 rdi, rsp
  00016	b9 42 00 00 00	 mov	 ecx, 66			; 00000042H
  0001b	b8 cc cc cc cc	 mov	 eax, -858993460		; ccccccccH
  00020	f3 ab		 rep stosd
  00022	48 8b 8c 24 28
	01 00 00	 mov	 rcx, QWORD PTR [rsp+296]
  0002a	48 8d 0d 00 00
	00 00		 lea	 rcx, OFFSET FLAT:__B4645957_ostream
  00031	e8 00 00 00 00	 call	 __CheckForDebuggerJustMyCode

; 79   :             const auto _Rdbuf = _Myostr.rdbuf();

  00036	48 8b 85 00 01
	00 00		 mov	 rax, QWORD PTR this$[rbp]
  0003d	48 8b 00	 mov	 rax, QWORD PTR [rax]
  00040	48 89 85 d8 00
	00 00		 mov	 QWORD PTR tv72[rbp], rax
  00047	48 8b 85 d8 00
	00 00		 mov	 rax, QWORD PTR tv72[rbp]
  0004e	48 8b 00	 mov	 rax, QWORD PTR [rax]
  00051	48 63 40 04	 movsxd	 rax, DWORD PTR [rax+4]
  00055	48 8b 8d d8 00
	00 00		 mov	 rcx, QWORD PTR tv72[rbp]
  0005c	48 03 c8	 add	 rcx, rax
  0005f	48 8b c1	 mov	 rax, rcx
  00062	48 8b c8	 mov	 rcx, rax
  00065	ff 15 00 00 00
	00		 call	 QWORD PTR __imp_?rdbuf@?$basic_ios@DU?$char_traits@D@std@@@std@@QEBAPEAV?$basic_streambuf@DU?$char_traits@D@std@@@2@XZ
  0006b	48 89 45 08	 mov	 QWORD PTR _Rdbuf$[rbp], rax

; 80   :             if (_Rdbuf) {

  0006f	48 83 7d 08 00	 cmp	 QWORD PTR _Rdbuf$[rbp], 0
  00074	74 0f		 je	 SHORT $LN2@Sentry_bas

; 81   :                 _Rdbuf->_Unlock();

  00076	48 8b 45 08	 mov	 rax, QWORD PTR _Rdbuf$[rbp]
  0007a	48 8b 00	 mov	 rax, QWORD PTR [rax]
  0007d	48 8b 4d 08	 mov	 rcx, QWORD PTR _Rdbuf$[rbp]
  00081	ff 50 10	 call	 QWORD PTR [rax+16]
  00084	90		 npad	 1
$LN2@Sentry_bas:

; 82   :             }
; 83   :         }

  00085	48 8d a5 e8 00
	00 00		 lea	 rsp, QWORD PTR [rbp+232]
  0008c	5f		 pop	 rdi
  0008d	5d		 pop	 rbp
  0008e	c3		 ret	 0
??1_Sentry_base@?$basic_ostream@DU?$char_traits@D@std@@@std@@QEAA@XZ ENDP ; std::basic_ostream<char,std::char_traits<char> >::_Sentry_base::~_Sentry_base
_TEXT	ENDS
; Function compile flags: /Odtp /RTCsu /ZI
; File C:\Program Files (x86)\Microsoft Visual Studio\2019\Enterprise\VC\Tools\MSVC\14.27.29110\include\ostream
;	COMDAT ??0_Sentry_base@?$basic_ostream@DU?$char_traits@D@std@@@std@@QEAA@AEAV12@@Z
_TEXT	SEGMENT
_Rdbuf$ = 8
tv73 = 216
this$ = 256
_Ostr$ = 264
??0_Sentry_base@?$basic_ostream@DU?$char_traits@D@std@@@std@@QEAA@AEAV12@@Z PROC ; std::basic_ostream<char,std::char_traits<char> >::_Sentry_base::_Sentry_base, COMDAT

; 71   :         __CLR_OR_THIS_CALL _Sentry_base(basic_ostream& _Ostr) : _Myostr(_Ostr) { // lock the stream buffer, if there

$LN4:
  00000	48 89 54 24 10	 mov	 QWORD PTR [rsp+16], rdx
  00005	48 89 4c 24 08	 mov	 QWORD PTR [rsp+8], rcx
  0000a	55		 push	 rbp
  0000b	57		 push	 rdi
  0000c	48 81 ec 08 01
	00 00		 sub	 rsp, 264		; 00000108H
  00013	48 8d 6c 24 20	 lea	 rbp, QWORD PTR [rsp+32]
  00018	48 8b fc	 mov	 rdi, rsp
  0001b	b9 42 00 00 00	 mov	 ecx, 66			; 00000042H
  00020	b8 cc cc cc cc	 mov	 eax, -858993460		; ccccccccH
  00025	f3 ab		 rep stosd
  00027	48 8b 8c 24 28
	01 00 00	 mov	 rcx, QWORD PTR [rsp+296]
  0002f	48 8d 0d 00 00
	00 00		 lea	 rcx, OFFSET FLAT:__B4645957_ostream
  00036	e8 00 00 00 00	 call	 __CheckForDebuggerJustMyCode
  0003b	48 8b 85 00 01
	00 00		 mov	 rax, QWORD PTR this$[rbp]
  00042	48 8b 8d 08 01
	00 00		 mov	 rcx, QWORD PTR _Ostr$[rbp]
  00049	48 89 08	 mov	 QWORD PTR [rax], rcx

; 72   :             const auto _Rdbuf = _Myostr.rdbuf();

  0004c	48 8b 85 00 01
	00 00		 mov	 rax, QWORD PTR this$[rbp]
  00053	48 8b 00	 mov	 rax, QWORD PTR [rax]
  00056	48 89 85 d8 00
	00 00		 mov	 QWORD PTR tv73[rbp], rax
  0005d	48 8b 85 d8 00
	00 00		 mov	 rax, QWORD PTR tv73[rbp]
  00064	48 8b 00	 mov	 rax, QWORD PTR [rax]
  00067	48 63 40 04	 movsxd	 rax, DWORD PTR [rax+4]
  0006b	48 8b 8d d8 00
	00 00		 mov	 rcx, QWORD PTR tv73[rbp]
  00072	48 03 c8	 add	 rcx, rax
  00075	48 8b c1	 mov	 rax, rcx
  00078	48 8b c8	 mov	 rcx, rax
  0007b	ff 15 00 00 00
	00		 call	 QWORD PTR __imp_?rdbuf@?$basic_ios@DU?$char_traits@D@std@@@std@@QEBAPEAV?$basic_streambuf@DU?$char_traits@D@std@@@2@XZ
  00081	48 89 45 08	 mov	 QWORD PTR _Rdbuf$[rbp], rax

; 73   :             if (_Rdbuf) {

  00085	48 83 7d 08 00	 cmp	 QWORD PTR _Rdbuf$[rbp], 0
  0008a	74 0e		 je	 SHORT $LN2@Sentry_bas

; 74   :                 _Rdbuf->_Lock();

  0008c	48 8b 45 08	 mov	 rax, QWORD PTR _Rdbuf$[rbp]
  00090	48 8b 00	 mov	 rax, QWORD PTR [rax]
  00093	48 8b 4d 08	 mov	 rcx, QWORD PTR _Rdbuf$[rbp]
  00097	ff 50 08	 call	 QWORD PTR [rax+8]
$LN2@Sentry_bas:

; 75   :             }
; 76   :         }

  0009a	48 8b 85 00 01
	00 00		 mov	 rax, QWORD PTR this$[rbp]
  000a1	48 8d a5 e8 00
	00 00		 lea	 rsp, QWORD PTR [rbp+232]
  000a8	5f		 pop	 rdi
  000a9	5d		 pop	 rbp
  000aa	c3		 ret	 0
??0_Sentry_base@?$basic_ostream@DU?$char_traits@D@std@@@std@@QEAA@AEAV12@@Z ENDP ; std::basic_ostream<char,std::char_traits<char> >::_Sentry_base::_Sentry_base
_TEXT	ENDS
; Function compile flags: /Odtp /RTCsu /ZI
; File C:\Program Files (x86)\Microsoft Visual Studio\2019\Enterprise\VC\Tools\MSVC\14.27.29110\include\xmemory
;	COMDAT ??$?0F@?$allocator@U_Container_proxy@std@@@std@@QEAA@AEBV?$allocator@F@1@@Z
_TEXT	SEGMENT
this$ = 224
__formal$ = 232
??$?0F@?$allocator@U_Container_proxy@std@@@std@@QEAA@AEBV?$allocator@F@1@@Z PROC ; std::allocator<std::_Container_proxy>::allocator<std::_Container_proxy><short>, COMDAT

; 799  :     constexpr allocator(const allocator<_Other>&) noexcept {}

$LN3:
  00000	48 89 54 24 10	 mov	 QWORD PTR [rsp+16], rdx
  00005	48 89 4c 24 08	 mov	 QWORD PTR [rsp+8], rcx
  0000a	55		 push	 rbp
  0000b	57		 push	 rdi
  0000c	48 81 ec e8 00
	00 00		 sub	 rsp, 232		; 000000e8H
  00013	48 8d 6c 24 20	 lea	 rbp, QWORD PTR [rsp+32]
  00018	48 8b fc	 mov	 rdi, rsp
  0001b	b9 3a 00 00 00	 mov	 ecx, 58			; 0000003aH
  00020	b8 cc cc cc cc	 mov	 eax, -858993460		; ccccccccH
  00025	f3 ab		 rep stosd
  00027	48 8b 8c 24 08
	01 00 00	 mov	 rcx, QWORD PTR [rsp+264]
  0002f	48 8d 0d 00 00
	00 00		 lea	 rcx, OFFSET FLAT:__0C99713E_xmemory
  00036	e8 00 00 00 00	 call	 __CheckForDebuggerJustMyCode
  0003b	48 8b 85 e0 00
	00 00		 mov	 rax, QWORD PTR this$[rbp]
  00042	48 8d a5 c8 00
	00 00		 lea	 rsp, QWORD PTR [rbp+200]
  00049	5f		 pop	 rdi
  0004a	5d		 pop	 rbp
  0004b	c3		 ret	 0
??$?0F@?$allocator@U_Container_proxy@std@@@std@@QEAA@AEBV?$allocator@F@1@@Z ENDP ; std::allocator<std::_Container_proxy>::allocator<std::_Container_proxy><short>
_TEXT	ENDS
; Function compile flags: /Odtp /RTCsu /ZI
; File C:\Program Files (x86)\Microsoft Visual Studio\2019\Enterprise\VC\Tools\MSVC\14.27.29110\include\xmemory
;	COMDAT ??$_Delete_plain_internal@V?$allocator@U_Container_proxy@std@@@std@@@std@@YAXAEAV?$allocator@U_Container_proxy@std@@@0@QEAU_Container_proxy@0@@Z
_TEXT	SEGMENT
_Al$ = 224
_Ptr$ = 232
??$_Delete_plain_internal@V?$allocator@U_Container_proxy@std@@@std@@@std@@YAXAEAV?$allocator@U_Container_proxy@std@@@0@QEAU_Container_proxy@0@@Z PROC ; std::_Delete_plain_internal<std::allocator<std::_Container_proxy> >, COMDAT

; 1026 : void _Delete_plain_internal(_Alloc& _Al, typename _Alloc::value_type* const _Ptr) noexcept {

$LN3:
  00000	48 89 54 24 10	 mov	 QWORD PTR [rsp+16], rdx
  00005	48 89 4c 24 08	 mov	 QWORD PTR [rsp+8], rcx
  0000a	55		 push	 rbp
  0000b	57		 push	 rdi
  0000c	48 81 ec e8 00
	00 00		 sub	 rsp, 232		; 000000e8H
  00013	48 8d 6c 24 20	 lea	 rbp, QWORD PTR [rsp+32]
  00018	48 8b fc	 mov	 rdi, rsp
  0001b	b9 3a 00 00 00	 mov	 ecx, 58			; 0000003aH
  00020	b8 cc cc cc cc	 mov	 eax, -858993460		; ccccccccH
  00025	f3 ab		 rep stosd
  00027	48 8b 8c 24 08
	01 00 00	 mov	 rcx, QWORD PTR [rsp+264]
  0002f	48 8d 0d 00 00
	00 00		 lea	 rcx, OFFSET FLAT:__0C99713E_xmemory
  00036	e8 00 00 00 00	 call	 __CheckForDebuggerJustMyCode

; 1027 :     // destroy *_Ptr in place, then deallocate _Ptr using _Al; used for internal container types the user didn't name
; 1028 :     using _Ty = typename _Alloc::value_type;
; 1029 :     _Ptr->~_Ty();
; 1030 :     _Deallocate_plain(_Al, _Ptr);

  0003b	48 8b 95 e8 00
	00 00		 mov	 rdx, QWORD PTR _Ptr$[rbp]
  00042	48 8b 8d e0 00
	00 00		 mov	 rcx, QWORD PTR _Al$[rbp]
  00049	e8 00 00 00 00	 call	 ??$_Deallocate_plain@V?$allocator@U_Container_proxy@std@@@std@@@std@@YAXAEAV?$allocator@U_Container_proxy@std@@@0@QEAU_Container_proxy@0@@Z ; std::_Deallocate_plain<std::allocator<std::_Container_proxy> >
  0004e	90		 npad	 1

; 1031 : }

  0004f	48 8d a5 c8 00
	00 00		 lea	 rsp, QWORD PTR [rbp+200]
  00056	5f		 pop	 rdi
  00057	5d		 pop	 rbp
  00058	c3		 ret	 0
??$_Delete_plain_internal@V?$allocator@U_Container_proxy@std@@@std@@@std@@YAXAEAV?$allocator@U_Container_proxy@std@@@0@QEAU_Container_proxy@0@@Z ENDP ; std::_Delete_plain_internal<std::allocator<std::_Container_proxy> >
_TEXT	ENDS
; Function compile flags: /Odtp /RTCsu /ZI
; File C:\Program Files (x86)\Microsoft Visual Studio\2019\Enterprise\VC\Tools\MSVC\14.27.29110\include\utility
;	COMDAT ??$exchange@PEAU_Container_proxy@std@@$$T@std@@YAPEAU_Container_proxy@0@AEAPEAU10@$$QEA$$T@Z
_TEXT	SEGMENT
_Old_val$ = 8
_Val$ = 256
_New_val$ = 264
??$exchange@PEAU_Container_proxy@std@@$$T@std@@YAPEAU_Container_proxy@0@AEAPEAU10@$$QEA$$T@Z PROC ; std::exchange<std::_Container_proxy *,std::nullptr_t>, COMDAT

; 597  :     conjunction_v<is_nothrow_move_constructible<_Ty>, is_nothrow_assignable<_Ty&, _Other>>) /* strengthened */ {

$LN3:
  00000	48 89 54 24 10	 mov	 QWORD PTR [rsp+16], rdx
  00005	48 89 4c 24 08	 mov	 QWORD PTR [rsp+8], rcx
  0000a	55		 push	 rbp
  0000b	57		 push	 rdi
  0000c	48 81 ec 08 01
	00 00		 sub	 rsp, 264		; 00000108H
  00013	48 8d 6c 24 20	 lea	 rbp, QWORD PTR [rsp+32]
  00018	48 8b fc	 mov	 rdi, rsp
  0001b	b9 42 00 00 00	 mov	 ecx, 66			; 00000042H
  00020	b8 cc cc cc cc	 mov	 eax, -858993460		; ccccccccH
  00025	f3 ab		 rep stosd
  00027	48 8b 8c 24 28
	01 00 00	 mov	 rcx, QWORD PTR [rsp+296]
  0002f	48 8d 0d 00 00
	00 00		 lea	 rcx, OFFSET FLAT:__660C12FD_utility
  00036	e8 00 00 00 00	 call	 __CheckForDebuggerJustMyCode

; 598  :     // assign _New_val to _Val, return previous _Val
; 599  :     _Ty _Old_val = static_cast<_Ty&&>(_Val);

  0003b	48 8b 85 00 01
	00 00		 mov	 rax, QWORD PTR _Val$[rbp]
  00042	48 8b 00	 mov	 rax, QWORD PTR [rax]
  00045	48 89 45 08	 mov	 QWORD PTR _Old_val$[rbp], rax

; 600  :     _Val         = static_cast<_Other&&>(_New_val);

  00049	48 8b 85 00 01
	00 00		 mov	 rax, QWORD PTR _Val$[rbp]
  00050	48 8b 8d 08 01
	00 00		 mov	 rcx, QWORD PTR _New_val$[rbp]
  00057	48 8b 09	 mov	 rcx, QWORD PTR [rcx]
  0005a	48 89 08	 mov	 QWORD PTR [rax], rcx

; 601  :     return _Old_val;

  0005d	48 8b 45 08	 mov	 rax, QWORD PTR _Old_val$[rbp]

; 602  : }

  00061	48 8d a5 e8 00
	00 00		 lea	 rsp, QWORD PTR [rbp+232]
  00068	5f		 pop	 rdi
  00069	5d		 pop	 rbp
  0006a	c3		 ret	 0
??$exchange@PEAU_Container_proxy@std@@$$T@std@@YAPEAU_Container_proxy@0@AEAPEAU10@$$QEA$$T@Z ENDP ; std::exchange<std::_Container_proxy *,std::nullptr_t>
_TEXT	ENDS
; Function compile flags: /Odtp /RTCsu /ZI
; File C:\Program Files (x86)\Microsoft Visual Studio\2019\Enterprise\VC\Tools\MSVC\14.27.29110\include\xmemory
;	COMDAT ??$?0UMFSTState@MFST@@@?$allocator@U_Container_proxy@std@@@std@@QEAA@AEBV?$allocator@UMFSTState@MFST@@@1@@Z
_TEXT	SEGMENT
this$ = 224
__formal$ = 232
??$?0UMFSTState@MFST@@@?$allocator@U_Container_proxy@std@@@std@@QEAA@AEBV?$allocator@UMFSTState@MFST@@@1@@Z PROC ; std::allocator<std::_Container_proxy>::allocator<std::_Container_proxy><MFST::MFSTState>, COMDAT

; 799  :     constexpr allocator(const allocator<_Other>&) noexcept {}

$LN3:
  00000	48 89 54 24 10	 mov	 QWORD PTR [rsp+16], rdx
  00005	48 89 4c 24 08	 mov	 QWORD PTR [rsp+8], rcx
  0000a	55		 push	 rbp
  0000b	57		 push	 rdi
  0000c	48 81 ec e8 00
	00 00		 sub	 rsp, 232		; 000000e8H
  00013	48 8d 6c 24 20	 lea	 rbp, QWORD PTR [rsp+32]
  00018	48 8b fc	 mov	 rdi, rsp
  0001b	b9 3a 00 00 00	 mov	 ecx, 58			; 0000003aH
  00020	b8 cc cc cc cc	 mov	 eax, -858993460		; ccccccccH
  00025	f3 ab		 rep stosd
  00027	48 8b 8c 24 08
	01 00 00	 mov	 rcx, QWORD PTR [rsp+264]
  0002f	48 8d 0d 00 00
	00 00		 lea	 rcx, OFFSET FLAT:__0C99713E_xmemory
  00036	e8 00 00 00 00	 call	 __CheckForDebuggerJustMyCode
  0003b	48 8b 85 e0 00
	00 00		 mov	 rax, QWORD PTR this$[rbp]
  00042	48 8d a5 c8 00
	00 00		 lea	 rsp, QWORD PTR [rbp+200]
  00049	5f		 pop	 rdi
  0004a	5d		 pop	 rbp
  0004b	c3		 ret	 0
??$?0UMFSTState@MFST@@@?$allocator@U_Container_proxy@std@@@std@@QEAA@AEBV?$allocator@UMFSTState@MFST@@@1@@Z ENDP ; std::allocator<std::_Container_proxy>::allocator<std::_Container_proxy><MFST::MFSTState>
_TEXT	ENDS
; Function compile flags: /Odtp /RTCsu /ZI
; File C:\Program Files (x86)\Microsoft Visual Studio\2019\Enterprise\VC\Tools\MSVC\14.27.29110\include\ostream
;	COMDAT ??$endl@DU?$char_traits@D@std@@@std@@YAAEAV?$basic_ostream@DU?$char_traits@D@std@@@0@AEAV10@@Z
_TEXT	SEGMENT
_Ostr$ = 224
??$endl@DU?$char_traits@D@std@@@std@@YAAEAV?$basic_ostream@DU?$char_traits@D@std@@@0@AEAV10@@Z PROC ; std::endl<char,std::char_traits<char> >, COMDAT

; 981  :     basic_ostream<_Elem, _Traits>& _Ostr) { // insert newline and flush stream

$LN3:
  00000	48 89 4c 24 08	 mov	 QWORD PTR [rsp+8], rcx
  00005	55		 push	 rbp
  00006	57		 push	 rdi
  00007	48 81 ec e8 00
	00 00		 sub	 rsp, 232		; 000000e8H
  0000e	48 8d 6c 24 20	 lea	 rbp, QWORD PTR [rsp+32]
  00013	48 8b fc	 mov	 rdi, rsp
  00016	b9 3a 00 00 00	 mov	 ecx, 58			; 0000003aH
  0001b	b8 cc cc cc cc	 mov	 eax, -858993460		; ccccccccH
  00020	f3 ab		 rep stosd
  00022	48 8b 8c 24 08
	01 00 00	 mov	 rcx, QWORD PTR [rsp+264]
  0002a	48 8d 0d 00 00
	00 00		 lea	 rcx, OFFSET FLAT:__B4645957_ostream
  00031	e8 00 00 00 00	 call	 __CheckForDebuggerJustMyCode

; 982  :     _Ostr.put(_Ostr.widen('\n'));

  00036	48 8b 85 e0 00
	00 00		 mov	 rax, QWORD PTR _Ostr$[rbp]
  0003d	48 8b 00	 mov	 rax, QWORD PTR [rax]
  00040	48 63 40 04	 movsxd	 rax, DWORD PTR [rax+4]
  00044	48 8b 8d e0 00
	00 00		 mov	 rcx, QWORD PTR _Ostr$[rbp]
  0004b	48 03 c8	 add	 rcx, rax
  0004e	48 8b c1	 mov	 rax, rcx
  00051	b2 0a		 mov	 dl, 10
  00053	48 8b c8	 mov	 rcx, rax
  00056	ff 15 00 00 00
	00		 call	 QWORD PTR __imp_?widen@?$basic_ios@DU?$char_traits@D@std@@@std@@QEBADD@Z
  0005c	0f b6 d0	 movzx	 edx, al
  0005f	48 8b 8d e0 00
	00 00		 mov	 rcx, QWORD PTR _Ostr$[rbp]
  00066	ff 15 00 00 00
	00		 call	 QWORD PTR __imp_?put@?$basic_ostream@DU?$char_traits@D@std@@@std@@QEAAAEAV12@D@Z

; 983  :     _Ostr.flush();

  0006c	48 8b 8d e0 00
	00 00		 mov	 rcx, QWORD PTR _Ostr$[rbp]
  00073	ff 15 00 00 00
	00		 call	 QWORD PTR __imp_?flush@?$basic_ostream@DU?$char_traits@D@std@@@std@@QEAAAEAV12@XZ

; 984  :     return _Ostr;

  00079	48 8b 85 e0 00
	00 00		 mov	 rax, QWORD PTR _Ostr$[rbp]

; 985  : }

  00080	48 8d a5 c8 00
	00 00		 lea	 rsp, QWORD PTR [rbp+200]
  00087	5f		 pop	 rdi
  00088	5d		 pop	 rbp
  00089	c3		 ret	 0
??$endl@DU?$char_traits@D@std@@@std@@YAAEAV?$basic_ostream@DU?$char_traits@D@std@@@0@AEAV10@@Z ENDP ; std::endl<char,std::char_traits<char> >
_TEXT	ENDS
; Function compile flags: /Odtp /RTCsu /ZI
; File C:\Program Files (x86)\Microsoft Visual Studio\2019\Enterprise\VC\Tools\MSVC\14.27.29110\include\ostream
;	COMDAT ??$?6U?$char_traits@D@std@@@std@@YAAEAV?$basic_ostream@DU?$char_traits@D@std@@@0@AEAV10@PEBD@Z
_TEXT	SEGMENT
_State$ = 4
_Count$ = 40
_Pad$ = 72
_Ok$ = 104
$T4 = 340
$T5 = 372
$T6 = 404
$T7 = 436
$T8 = 472
tv300 = 484
tv295 = 484
tv139 = 484
tv301 = 488
tv298 = 488
tv296 = 488
tv137 = 488
tv302 = 496
tv299 = 496
tv297 = 496
__$ArrayPad$ = 504
_Ostr$ = 544
_Val$ = 552
??$?6U?$char_traits@D@std@@@std@@YAAEAV?$basic_ostream@DU?$char_traits@D@std@@@0@AEAV10@PEBD@Z PROC ; std::operator<<<std::char_traits<char> >, COMDAT

; 735  :     const char* _Val) { // insert NTBS into char stream

$LN25:
  00000	48 89 54 24 10	 mov	 QWORD PTR [rsp+16], rdx
  00005	48 89 4c 24 08	 mov	 QWORD PTR [rsp+8], rcx
  0000a	55		 push	 rbp
  0000b	57		 push	 rdi
  0000c	48 81 ec 28 02
	00 00		 sub	 rsp, 552		; 00000228H
  00013	48 8d 6c 24 20	 lea	 rbp, QWORD PTR [rsp+32]
  00018	48 8b fc	 mov	 rdi, rsp
  0001b	b9 8a 00 00 00	 mov	 ecx, 138		; 0000008aH
  00020	b8 cc cc cc cc	 mov	 eax, -858993460		; ccccccccH
  00025	f3 ab		 rep stosd
  00027	48 8b 8c 24 48
	02 00 00	 mov	 rcx, QWORD PTR [rsp+584]
  0002f	48 8b 05 00 00
	00 00		 mov	 rax, QWORD PTR __security_cookie
  00036	48 33 c5	 xor	 rax, rbp
  00039	48 89 85 f8 01
	00 00		 mov	 QWORD PTR __$ArrayPad$[rbp], rax
  00040	48 8d 0d 00 00
	00 00		 lea	 rcx, OFFSET FLAT:__B4645957_ostream
  00047	e8 00 00 00 00	 call	 __CheckForDebuggerJustMyCode

; 736  :     using _Elem = char;
; 737  :     using _Myos = basic_ostream<_Elem, _Traits>;
; 738  : 
; 739  :     ios_base::iostate _State = ios_base::goodbit;

  0004c	c7 45 04 00 00
	00 00		 mov	 DWORD PTR _State$[rbp], 0

; 740  :     streamsize _Count        = static_cast<streamsize>(_Traits::length(_Val));

  00053	48 8b 8d 28 02
	00 00		 mov	 rcx, QWORD PTR _Val$[rbp]
  0005a	e8 00 00 00 00	 call	 ?length@?$_Narrow_char_traits@DH@std@@SA_KQEBD@Z ; std::_Narrow_char_traits<char,int>::length
  0005f	48 89 45 28	 mov	 QWORD PTR _Count$[rbp], rax

; 741  :     streamsize _Pad          = _Ostr.width() <= 0 || _Ostr.width() <= _Count ? 0 : _Ostr.width() - _Count;

  00063	48 8b 85 20 02
	00 00		 mov	 rax, QWORD PTR _Ostr$[rbp]
  0006a	48 8b 00	 mov	 rax, QWORD PTR [rax]
  0006d	48 63 40 04	 movsxd	 rax, DWORD PTR [rax+4]
  00071	48 8b 8d 20 02
	00 00		 mov	 rcx, QWORD PTR _Ostr$[rbp]
  00078	48 03 c8	 add	 rcx, rax
  0007b	48 8b c1	 mov	 rax, rcx
  0007e	48 8b c8	 mov	 rcx, rax
  00081	ff 15 00 00 00
	00		 call	 QWORD PTR __imp_?width@ios_base@std@@QEBA_JXZ
  00087	48 85 c0	 test	 rax, rax
  0008a	7e 5b		 jle	 SHORT $LN17@operator
  0008c	48 8b 85 20 02
	00 00		 mov	 rax, QWORD PTR _Ostr$[rbp]
  00093	48 8b 00	 mov	 rax, QWORD PTR [rax]
  00096	48 63 40 04	 movsxd	 rax, DWORD PTR [rax+4]
  0009a	48 8b 8d 20 02
	00 00		 mov	 rcx, QWORD PTR _Ostr$[rbp]
  000a1	48 03 c8	 add	 rcx, rax
  000a4	48 8b c1	 mov	 rax, rcx
  000a7	48 8b c8	 mov	 rcx, rax
  000aa	ff 15 00 00 00
	00		 call	 QWORD PTR __imp_?width@ios_base@std@@QEBA_JXZ
  000b0	48 3b 45 28	 cmp	 rax, QWORD PTR _Count$[rbp]
  000b4	7e 31		 jle	 SHORT $LN17@operator
  000b6	48 8b 85 20 02
	00 00		 mov	 rax, QWORD PTR _Ostr$[rbp]
  000bd	48 8b 00	 mov	 rax, QWORD PTR [rax]
  000c0	48 63 40 04	 movsxd	 rax, DWORD PTR [rax+4]
  000c4	48 8b 8d 20 02
	00 00		 mov	 rcx, QWORD PTR _Ostr$[rbp]
  000cb	48 03 c8	 add	 rcx, rax
  000ce	48 8b c1	 mov	 rax, rcx
  000d1	48 8b c8	 mov	 rcx, rax
  000d4	ff 15 00 00 00
	00		 call	 QWORD PTR __imp_?width@ios_base@std@@QEBA_JXZ
  000da	48 2b 45 28	 sub	 rax, QWORD PTR _Count$[rbp]
  000de	48 89 85 e8 01
	00 00		 mov	 QWORD PTR tv137[rbp], rax
  000e5	eb 0b		 jmp	 SHORT $LN18@operator
$LN17@operator:
  000e7	48 c7 85 e8 01
	00 00 00 00 00
	00		 mov	 QWORD PTR tv137[rbp], 0
$LN18@operator:
  000f2	48 8b 85 e8 01
	00 00		 mov	 rax, QWORD PTR tv137[rbp]
  000f9	48 89 45 48	 mov	 QWORD PTR _Pad$[rbp], rax

; 742  :     const typename _Myos::sentry _Ok(_Ostr);

  000fd	48 8b 95 20 02
	00 00		 mov	 rdx, QWORD PTR _Ostr$[rbp]
  00104	48 8d 4d 68	 lea	 rcx, QWORD PTR _Ok$[rbp]
  00108	e8 00 00 00 00	 call	 ??0sentry@?$basic_ostream@DU?$char_traits@D@std@@@std@@QEAA@AEAV12@@Z ; std::basic_ostream<char,std::char_traits<char> >::sentry::sentry
  0010d	90		 npad	 1

; 743  : 
; 744  :     if (!_Ok) {

  0010e	48 8d 4d 68	 lea	 rcx, QWORD PTR _Ok$[rbp]
  00112	e8 00 00 00 00	 call	 ??Bsentry@?$basic_ostream@DU?$char_traits@D@std@@@std@@QEBA_NXZ ; std::basic_ostream<char,std::char_traits<char> >::sentry::operator bool
  00117	0f b6 c0	 movzx	 eax, al
  0011a	85 c0		 test	 eax, eax
  0011c	75 0e		 jne	 SHORT $LN8@operator

; 745  :         _State |= ios_base::badbit;

  0011e	8b 45 04	 mov	 eax, DWORD PTR _State$[rbp]
  00121	83 c8 04	 or	 eax, 4
  00124	89 45 04	 mov	 DWORD PTR _State$[rbp], eax

; 746  :     } else { // state okay, insert

  00127	e9 67 02 00 00	 jmp	 $LN9@operator
$LN8@operator:

; 747  :         _TRY_IO_BEGIN
; 748  :         if ((_Ostr.flags() & ios_base::adjustfield) != ios_base::left) {

  0012c	48 8b 85 20 02
	00 00		 mov	 rax, QWORD PTR _Ostr$[rbp]
  00133	48 8b 00	 mov	 rax, QWORD PTR [rax]
  00136	48 63 40 04	 movsxd	 rax, DWORD PTR [rax+4]
  0013a	48 8b 8d 20 02
	00 00		 mov	 rcx, QWORD PTR _Ostr$[rbp]
  00141	48 03 c8	 add	 rcx, rax
  00144	48 8b c1	 mov	 rax, rcx
  00147	48 8b c8	 mov	 rcx, rax
  0014a	ff 15 00 00 00
	00		 call	 QWORD PTR __imp_?flags@ios_base@std@@QEBAHXZ
  00150	89 85 e4 01 00
	00		 mov	 DWORD PTR tv139[rbp], eax
  00156	8b 85 e4 01 00
	00		 mov	 eax, DWORD PTR tv139[rbp]
  0015c	25 c0 01 00 00	 and	 eax, 448		; 000001c0H
  00161	83 f8 40	 cmp	 eax, 64			; 00000040H
  00164	0f 84 c8 00 00
	00		 je	 $LN11@operator

; 749  :             for (; 0 < _Pad; --_Pad) { // pad on left

  0016a	eb 0b		 jmp	 SHORT $LN4@operator
$LN2@operator:
  0016c	48 8b 45 48	 mov	 rax, QWORD PTR _Pad$[rbp]
  00170	48 ff c8	 dec	 rax
  00173	48 89 45 48	 mov	 QWORD PTR _Pad$[rbp], rax
$LN4@operator:
  00177	48 83 7d 48 00	 cmp	 QWORD PTR _Pad$[rbp], 0
  0017c	0f 8e b0 00 00
	00		 jle	 $LN11@operator

; 750  :                 if (_Traits::eq_int_type(_Traits::eof(), _Ostr.rdbuf()->sputc(_Ostr.fill()))) {

  00182	48 8b 85 20 02
	00 00		 mov	 rax, QWORD PTR _Ostr$[rbp]
  00189	48 8b 00	 mov	 rax, QWORD PTR [rax]
  0018c	48 63 40 04	 movsxd	 rax, DWORD PTR [rax+4]
  00190	48 8b 8d 20 02
	00 00		 mov	 rcx, QWORD PTR _Ostr$[rbp]
  00197	48 03 c8	 add	 rcx, rax
  0019a	48 8b c1	 mov	 rax, rcx
  0019d	48 8b c8	 mov	 rcx, rax
  001a0	ff 15 00 00 00
	00		 call	 QWORD PTR __imp_?fill@?$basic_ios@DU?$char_traits@D@std@@@std@@QEBADXZ
  001a6	88 85 e4 01 00
	00		 mov	 BYTE PTR tv295[rbp], al
  001ac	48 8b 85 20 02
	00 00		 mov	 rax, QWORD PTR _Ostr$[rbp]
  001b3	48 8b 00	 mov	 rax, QWORD PTR [rax]
  001b6	48 63 40 04	 movsxd	 rax, DWORD PTR [rax+4]
  001ba	48 8b 8d 20 02
	00 00		 mov	 rcx, QWORD PTR _Ostr$[rbp]
  001c1	48 03 c8	 add	 rcx, rax
  001c4	48 8b c1	 mov	 rax, rcx
  001c7	48 8b c8	 mov	 rcx, rax
  001ca	ff 15 00 00 00
	00		 call	 QWORD PTR __imp_?rdbuf@?$basic_ios@DU?$char_traits@D@std@@@std@@QEBAPEAV?$basic_streambuf@DU?$char_traits@D@std@@@2@XZ
  001d0	48 89 85 e8 01
	00 00		 mov	 QWORD PTR tv296[rbp], rax
  001d7	0f b6 95 e4 01
	00 00		 movzx	 edx, BYTE PTR tv295[rbp]
  001de	48 8b 8d e8 01
	00 00		 mov	 rcx, QWORD PTR tv296[rbp]
  001e5	ff 15 00 00 00
	00		 call	 QWORD PTR __imp_?sputc@?$basic_streambuf@DU?$char_traits@D@std@@@std@@QEAAHD@Z
  001eb	89 85 f0 01 00
	00		 mov	 DWORD PTR tv297[rbp], eax
  001f1	8b 85 f0 01 00
	00		 mov	 eax, DWORD PTR tv297[rbp]
  001f7	89 85 54 01 00
	00		 mov	 DWORD PTR $T4[rbp], eax
  001fd	e8 00 00 00 00	 call	 ?eof@?$_Narrow_char_traits@DH@std@@SAHXZ ; std::_Narrow_char_traits<char,int>::eof
  00202	89 85 74 01 00
	00		 mov	 DWORD PTR $T5[rbp], eax
  00208	48 8d 95 54 01
	00 00		 lea	 rdx, QWORD PTR $T4[rbp]
  0020f	48 8d 8d 74 01
	00 00		 lea	 rcx, QWORD PTR $T5[rbp]
  00216	e8 00 00 00 00	 call	 ?eq_int_type@?$_Narrow_char_traits@DH@std@@SA_NAEBH0@Z ; std::_Narrow_char_traits<char,int>::eq_int_type
  0021b	0f b6 c0	 movzx	 eax, al
  0021e	85 c0		 test	 eax, eax
  00220	74 0b		 je	 SHORT $LN12@operator

; 751  :                     _State |= ios_base::badbit; // insertion failed, quit

  00222	8b 45 04	 mov	 eax, DWORD PTR _State$[rbp]
  00225	83 c8 04	 or	 eax, 4
  00228	89 45 04	 mov	 DWORD PTR _State$[rbp], eax

; 752  :                     break;

  0022b	eb 05		 jmp	 SHORT $LN11@operator
$LN12@operator:

; 753  :                 }
; 754  :             }

  0022d	e9 3a ff ff ff	 jmp	 $LN2@operator
$LN11@operator:

; 755  :         }
; 756  : 
; 757  :         if (_State == ios_base::goodbit && _Ostr.rdbuf()->sputn(_Val, _Count) != _Count) {

  00232	83 7d 04 00	 cmp	 DWORD PTR _State$[rbp], 0
  00236	75 60		 jne	 SHORT $LN13@operator
  00238	48 8b 85 20 02
	00 00		 mov	 rax, QWORD PTR _Ostr$[rbp]
  0023f	48 8b 00	 mov	 rax, QWORD PTR [rax]
  00242	48 63 40 04	 movsxd	 rax, DWORD PTR [rax+4]
  00246	48 8b 8d 20 02
	00 00		 mov	 rcx, QWORD PTR _Ostr$[rbp]
  0024d	48 03 c8	 add	 rcx, rax
  00250	48 8b c1	 mov	 rax, rcx
  00253	48 8b c8	 mov	 rcx, rax
  00256	ff 15 00 00 00
	00		 call	 QWORD PTR __imp_?rdbuf@?$basic_ios@DU?$char_traits@D@std@@@std@@QEBAPEAV?$basic_streambuf@DU?$char_traits@D@std@@@2@XZ
  0025c	48 89 85 e8 01
	00 00		 mov	 QWORD PTR tv298[rbp], rax
  00263	4c 8b 45 28	 mov	 r8, QWORD PTR _Count$[rbp]
  00267	48 8b 95 28 02
	00 00		 mov	 rdx, QWORD PTR _Val$[rbp]
  0026e	48 8b 8d e8 01
	00 00		 mov	 rcx, QWORD PTR tv298[rbp]
  00275	ff 15 00 00 00
	00		 call	 QWORD PTR __imp_?sputn@?$basic_streambuf@DU?$char_traits@D@std@@@std@@QEAA_JPEBD_J@Z
  0027b	48 89 85 f0 01
	00 00		 mov	 QWORD PTR tv299[rbp], rax
  00282	48 8b 45 28	 mov	 rax, QWORD PTR _Count$[rbp]
  00286	48 39 85 f0 01
	00 00		 cmp	 QWORD PTR tv299[rbp], rax
  0028d	74 09		 je	 SHORT $LN13@operator

; 758  :             _State |= ios_base::badbit;

  0028f	8b 45 04	 mov	 eax, DWORD PTR _State$[rbp]
  00292	83 c8 04	 or	 eax, 4
  00295	89 45 04	 mov	 DWORD PTR _State$[rbp], eax
$LN13@operator:

; 759  :         }
; 760  : 
; 761  :         if (_State == ios_base::goodbit) {

  00298	83 7d 04 00	 cmp	 DWORD PTR _State$[rbp], 0
  0029c	0f 85 c8 00 00
	00		 jne	 $LN14@operator

; 762  :             for (; 0 < _Pad; --_Pad) { // pad on right

  002a2	eb 0b		 jmp	 SHORT $LN7@operator
$LN5@operator:
  002a4	48 8b 45 48	 mov	 rax, QWORD PTR _Pad$[rbp]
  002a8	48 ff c8	 dec	 rax
  002ab	48 89 45 48	 mov	 QWORD PTR _Pad$[rbp], rax
$LN7@operator:
  002af	48 83 7d 48 00	 cmp	 QWORD PTR _Pad$[rbp], 0
  002b4	0f 8e b0 00 00
	00		 jle	 $LN14@operator

; 763  :                 if (_Traits::eq_int_type(_Traits::eof(), _Ostr.rdbuf()->sputc(_Ostr.fill()))) {

  002ba	48 8b 85 20 02
	00 00		 mov	 rax, QWORD PTR _Ostr$[rbp]
  002c1	48 8b 00	 mov	 rax, QWORD PTR [rax]
  002c4	48 63 40 04	 movsxd	 rax, DWORD PTR [rax+4]
  002c8	48 8b 8d 20 02
	00 00		 mov	 rcx, QWORD PTR _Ostr$[rbp]
  002cf	48 03 c8	 add	 rcx, rax
  002d2	48 8b c1	 mov	 rax, rcx
  002d5	48 8b c8	 mov	 rcx, rax
  002d8	ff 15 00 00 00
	00		 call	 QWORD PTR __imp_?fill@?$basic_ios@DU?$char_traits@D@std@@@std@@QEBADXZ
  002de	88 85 e4 01 00
	00		 mov	 BYTE PTR tv300[rbp], al
  002e4	48 8b 85 20 02
	00 00		 mov	 rax, QWORD PTR _Ostr$[rbp]
  002eb	48 8b 00	 mov	 rax, QWORD PTR [rax]
  002ee	48 63 40 04	 movsxd	 rax, DWORD PTR [rax+4]
  002f2	48 8b 8d 20 02
	00 00		 mov	 rcx, QWORD PTR _Ostr$[rbp]
  002f9	48 03 c8	 add	 rcx, rax
  002fc	48 8b c1	 mov	 rax, rcx
  002ff	48 8b c8	 mov	 rcx, rax
  00302	ff 15 00 00 00
	00		 call	 QWORD PTR __imp_?rdbuf@?$basic_ios@DU?$char_traits@D@std@@@std@@QEBAPEAV?$basic_streambuf@DU?$char_traits@D@std@@@2@XZ
  00308	48 89 85 e8 01
	00 00		 mov	 QWORD PTR tv301[rbp], rax
  0030f	0f b6 95 e4 01
	00 00		 movzx	 edx, BYTE PTR tv300[rbp]
  00316	48 8b 8d e8 01
	00 00		 mov	 rcx, QWORD PTR tv301[rbp]
  0031d	ff 15 00 00 00
	00		 call	 QWORD PTR __imp_?sputc@?$basic_streambuf@DU?$char_traits@D@std@@@std@@QEAAHD@Z
  00323	89 85 f0 01 00
	00		 mov	 DWORD PTR tv302[rbp], eax
  00329	8b 85 f0 01 00
	00		 mov	 eax, DWORD PTR tv302[rbp]
  0032f	89 85 94 01 00
	00		 mov	 DWORD PTR $T6[rbp], eax
  00335	e8 00 00 00 00	 call	 ?eof@?$_Narrow_char_traits@DH@std@@SAHXZ ; std::_Narrow_char_traits<char,int>::eof
  0033a	89 85 b4 01 00
	00		 mov	 DWORD PTR $T7[rbp], eax
  00340	48 8d 95 94 01
	00 00		 lea	 rdx, QWORD PTR $T6[rbp]
  00347	48 8d 8d b4 01
	00 00		 lea	 rcx, QWORD PTR $T7[rbp]
  0034e	e8 00 00 00 00	 call	 ?eq_int_type@?$_Narrow_char_traits@DH@std@@SA_NAEBH0@Z ; std::_Narrow_char_traits<char,int>::eq_int_type
  00353	0f b6 c0	 movzx	 eax, al
  00356	85 c0		 test	 eax, eax
  00358	74 0b		 je	 SHORT $LN15@operator

; 764  :                     _State |= ios_base::badbit; // insertion failed, quit

  0035a	8b 45 04	 mov	 eax, DWORD PTR _State$[rbp]
  0035d	83 c8 04	 or	 eax, 4
  00360	89 45 04	 mov	 DWORD PTR _State$[rbp], eax

; 765  :                     break;

  00363	eb 05		 jmp	 SHORT $LN14@operator
$LN15@operator:

; 766  :                 }
; 767  :             }

  00365	e9 3a ff ff ff	 jmp	 $LN5@operator
$LN14@operator:

; 768  :         }
; 769  : 
; 770  :         _Ostr.width(0);

  0036a	48 8b 85 20 02
	00 00		 mov	 rax, QWORD PTR _Ostr$[rbp]
  00371	48 8b 00	 mov	 rax, QWORD PTR [rax]
  00374	48 63 40 04	 movsxd	 rax, DWORD PTR [rax+4]
  00378	48 8b 8d 20 02
	00 00		 mov	 rcx, QWORD PTR _Ostr$[rbp]
  0037f	48 03 c8	 add	 rcx, rax
  00382	48 8b c1	 mov	 rax, rcx
  00385	33 d2		 xor	 edx, edx
  00387	48 8b c8	 mov	 rcx, rax
  0038a	ff 15 00 00 00
	00		 call	 QWORD PTR __imp_?width@ios_base@std@@QEAA_J_J@Z
  00390	90		 npad	 1
  00391	eb 00		 jmp	 SHORT $LN9@operator
$LN23@operator:
$LN9@operator:

; 771  :         _CATCH_IO_(ios_base, _Ostr)
; 772  :     }
; 773  : 
; 774  :     _Ostr.setstate(_State);

  00393	48 8b 85 20 02
	00 00		 mov	 rax, QWORD PTR _Ostr$[rbp]
  0039a	48 8b 00	 mov	 rax, QWORD PTR [rax]
  0039d	48 63 40 04	 movsxd	 rax, DWORD PTR [rax+4]
  003a1	48 8b 8d 20 02
	00 00		 mov	 rcx, QWORD PTR _Ostr$[rbp]
  003a8	48 03 c8	 add	 rcx, rax
  003ab	48 8b c1	 mov	 rax, rcx
  003ae	45 33 c0	 xor	 r8d, r8d
  003b1	8b 55 04	 mov	 edx, DWORD PTR _State$[rbp]
  003b4	48 8b c8	 mov	 rcx, rax
  003b7	ff 15 00 00 00
	00		 call	 QWORD PTR __imp_?setstate@?$basic_ios@DU?$char_traits@D@std@@@std@@QEAAXH_N@Z

; 775  :     return _Ostr;

  003bd	48 8b 85 20 02
	00 00		 mov	 rax, QWORD PTR _Ostr$[rbp]
  003c4	48 89 85 d8 01
	00 00		 mov	 QWORD PTR $T8[rbp], rax
  003cb	48 8d 4d 68	 lea	 rcx, QWORD PTR _Ok$[rbp]
  003cf	e8 00 00 00 00	 call	 ??1sentry@?$basic_ostream@DU?$char_traits@D@std@@@std@@QEAA@XZ ; std::basic_ostream<char,std::char_traits<char> >::sentry::~sentry
  003d4	48 8b 85 d8 01
	00 00		 mov	 rax, QWORD PTR $T8[rbp]

; 776  : }

  003db	48 8b f8	 mov	 rdi, rax
  003de	48 8d 4d e0	 lea	 rcx, QWORD PTR [rbp-32]
  003e2	48 8d 15 00 00
	00 00		 lea	 rdx, OFFSET FLAT:??$?6U?$char_traits@D@std@@@std@@YAAEAV?$basic_ostream@DU?$char_traits@D@std@@@0@AEAV10@PEBD@Z$rtcFrameData
  003e9	e8 00 00 00 00	 call	 _RTC_CheckStackVars
  003ee	48 8b c7	 mov	 rax, rdi
  003f1	48 8b 8d f8 01
	00 00		 mov	 rcx, QWORD PTR __$ArrayPad$[rbp]
  003f8	48 33 cd	 xor	 rcx, rbp
  003fb	e8 00 00 00 00	 call	 __security_check_cookie
  00400	48 8d a5 08 02
	00 00		 lea	 rsp, QWORD PTR [rbp+520]
  00407	5f		 pop	 rdi
  00408	5d		 pop	 rbp
  00409	c3		 ret	 0
??$?6U?$char_traits@D@std@@@std@@YAAEAV?$basic_ostream@DU?$char_traits@D@std@@@0@AEAV10@PEBD@Z ENDP ; std::operator<<<std::char_traits<char> >
_TEXT	ENDS
;	COMDAT text$x
text$x	SEGMENT
_State$ = 4
_Count$ = 40
_Pad$ = 72
_Ok$ = 104
$T4 = 340
$T5 = 372
$T6 = 404
$T7 = 436
$T8 = 472
tv300 = 484
tv295 = 484
tv139 = 484
tv301 = 488
tv298 = 488
tv296 = 488
tv137 = 488
tv302 = 496
tv299 = 496
tv297 = 496
__$ArrayPad$ = 504
_Ostr$ = 544
_Val$ = 552
?dtor$0@?0???$?6U?$char_traits@D@std@@@std@@YAAEAV?$basic_ostream@DU?$char_traits@D@std@@@0@AEAV10@PEBD@Z@4HA PROC ; `std::operator<<<std::char_traits<char> >'::`1'::dtor$0
  00000	48 89 4c 24 08	 mov	 QWORD PTR [rsp+8], rcx
  00005	48 89 54 24 10	 mov	 QWORD PTR [rsp+16], rdx
  0000a	55		 push	 rbp
  0000b	57		 push	 rdi
  0000c	48 83 ec 28	 sub	 rsp, 40			; 00000028H
  00010	48 8d 6a 20	 lea	 rbp, QWORD PTR [rdx+32]
  00014	48 8d 4d 68	 lea	 rcx, QWORD PTR _Ok$[rbp]
  00018	e8 00 00 00 00	 call	 ??1sentry@?$basic_ostream@DU?$char_traits@D@std@@@std@@QEAA@XZ ; std::basic_ostream<char,std::char_traits<char> >::sentry::~sentry
  0001d	48 83 c4 28	 add	 rsp, 40			; 00000028H
  00021	5f		 pop	 rdi
  00022	5d		 pop	 rbp
  00023	c3		 ret	 0
?dtor$0@?0???$?6U?$char_traits@D@std@@@std@@YAAEAV?$basic_ostream@DU?$char_traits@D@std@@@0@AEAV10@PEBD@Z@4HA ENDP ; `std::operator<<<std::char_traits<char> >'::`1'::dtor$0
text$x	ENDS
;	COMDAT text$x
text$x	SEGMENT
_State$ = 4
_Count$ = 40
_Pad$ = 72
_Ok$ = 104
$T4 = 340
$T5 = 372
$T6 = 404
$T7 = 436
$T8 = 472
tv300 = 484
tv295 = 484
tv139 = 484
tv301 = 488
tv298 = 488
tv296 = 488
tv137 = 488
tv302 = 496
tv299 = 496
tv297 = 496
__$ArrayPad$ = 504
_Ostr$ = 544
_Val$ = 552
?catch$1@?0???$?6U?$char_traits@D@std@@@std@@YAAEAV?$basic_ostream@DU?$char_traits@D@std@@@0@AEAV10@PEBD@Z@4HA PROC ; `std::operator<<<std::char_traits<char> >'::`1'::catch$1

; 771  :         _CATCH_IO_(ios_base, _Ostr)

  00000	48 89 4c 24 08	 mov	 QWORD PTR [rsp+8], rcx
  00005	48 89 54 24 10	 mov	 QWORD PTR [rsp+16], rdx
  0000a	55		 push	 rbp
  0000b	57		 push	 rdi
  0000c	48 83 ec 28	 sub	 rsp, 40			; 00000028H
  00010	48 8d 6a 20	 lea	 rbp, QWORD PTR [rdx+32]
__catch$??$?6U?$char_traits@D@std@@@std@@YAAEAV?$basic_ostream@DU?$char_traits@D@std@@@0@AEAV10@PEBD@Z$0:
  00014	48 8b 85 20 02
	00 00		 mov	 rax, QWORD PTR _Ostr$[rbp]
  0001b	48 8b 00	 mov	 rax, QWORD PTR [rax]
  0001e	48 63 40 04	 movsxd	 rax, DWORD PTR [rax+4]
  00022	48 8b 8d 20 02
	00 00		 mov	 rcx, QWORD PTR _Ostr$[rbp]
  00029	48 03 c8	 add	 rcx, rax
  0002c	48 8b c1	 mov	 rax, rcx
  0002f	41 b0 01	 mov	 r8b, 1
  00032	ba 04 00 00 00	 mov	 edx, 4
  00037	48 8b c8	 mov	 rcx, rax
  0003a	ff 15 00 00 00
	00		 call	 QWORD PTR __imp_?setstate@?$basic_ios@DU?$char_traits@D@std@@@std@@QEAAXH_N@Z
  00040	90		 npad	 1
  00041	48 8d 05 00 00
	00 00		 lea	 rax, $LN23@catch$1
  00048	48 83 c4 28	 add	 rsp, 40			; 00000028H
  0004c	5f		 pop	 rdi
  0004d	5d		 pop	 rbp
  0004e	c3		 ret	 0
  0004f	cc		 int	 3
?catch$1@?0???$?6U?$char_traits@D@std@@@std@@YAAEAV?$basic_ostream@DU?$char_traits@D@std@@@0@AEAV10@PEBD@Z@4HA ENDP ; `std::operator<<<std::char_traits<char> >'::`1'::catch$1
text$x	ENDS
; Function compile flags: /Odtp /RTCsu /ZI
;	COMDAT text$x
text$x	SEGMENT
_State$ = 4
_Count$ = 40
_Pad$ = 72
_Ok$ = 104
$T4 = 340
$T5 = 372
$T6 = 404
$T7 = 436
$T8 = 472
tv300 = 484
tv295 = 484
tv139 = 484
tv301 = 488
tv298 = 488
tv296 = 488
tv137 = 488
tv302 = 496
tv299 = 496
tv297 = 496
__$ArrayPad$ = 504
_Ostr$ = 544
_Val$ = 552
?dtor$0@?0???$?6U?$char_traits@D@std@@@std@@YAAEAV?$basic_ostream@DU?$char_traits@D@std@@@0@AEAV10@PEBD@Z@4HA PROC ; `std::operator<<<std::char_traits<char> >'::`1'::dtor$0
  00000	48 89 4c 24 08	 mov	 QWORD PTR [rsp+8], rcx
  00005	48 89 54 24 10	 mov	 QWORD PTR [rsp+16], rdx
  0000a	55		 push	 rbp
  0000b	57		 push	 rdi
  0000c	48 83 ec 28	 sub	 rsp, 40			; 00000028H
  00010	48 8d 6a 20	 lea	 rbp, QWORD PTR [rdx+32]
  00014	48 8d 4d 68	 lea	 rcx, QWORD PTR _Ok$[rbp]
  00018	e8 00 00 00 00	 call	 ??1sentry@?$basic_ostream@DU?$char_traits@D@std@@@std@@QEAA@XZ ; std::basic_ostream<char,std::char_traits<char> >::sentry::~sentry
  0001d	48 83 c4 28	 add	 rsp, 40			; 00000028H
  00021	5f		 pop	 rdi
  00022	5d		 pop	 rbp
  00023	c3		 ret	 0
?dtor$0@?0???$?6U?$char_traits@D@std@@@std@@YAAEAV?$basic_ostream@DU?$char_traits@D@std@@@0@AEAV10@PEBD@Z@4HA ENDP ; `std::operator<<<std::char_traits<char> >'::`1'::dtor$0
text$x	ENDS
; Function compile flags: /Odtp /RTCsu /ZI
;	COMDAT text$x
text$x	SEGMENT
_State$ = 4
_Count$ = 40
_Pad$ = 72
_Ok$ = 104
$T4 = 340
$T5 = 372
$T6 = 404
$T7 = 436
$T8 = 472
tv300 = 484
tv295 = 484
tv139 = 484
tv301 = 488
tv298 = 488
tv296 = 488
tv137 = 488
tv302 = 496
tv299 = 496
tv297 = 496
__$ArrayPad$ = 504
_Ostr$ = 544
_Val$ = 552
?catch$1@?0???$?6U?$char_traits@D@std@@@std@@YAAEAV?$basic_ostream@DU?$char_traits@D@std@@@0@AEAV10@PEBD@Z@4HA PROC ; `std::operator<<<std::char_traits<char> >'::`1'::catch$1

; 771  :         _CATCH_IO_(ios_base, _Ostr)

  00000	48 89 4c 24 08	 mov	 QWORD PTR [rsp+8], rcx
  00005	48 89 54 24 10	 mov	 QWORD PTR [rsp+16], rdx
  0000a	55		 push	 rbp
  0000b	57		 push	 rdi
  0000c	48 83 ec 28	 sub	 rsp, 40			; 00000028H
  00010	48 8d 6a 20	 lea	 rbp, QWORD PTR [rdx+32]
__catch$??$?6U?$char_traits@D@std@@@std@@YAAEAV?$basic_ostream@DU?$char_traits@D@std@@@0@AEAV10@PEBD@Z$0:
  00014	48 8b 85 20 02
	00 00		 mov	 rax, QWORD PTR _Ostr$[rbp]
  0001b	48 8b 00	 mov	 rax, QWORD PTR [rax]
  0001e	48 63 40 04	 movsxd	 rax, DWORD PTR [rax+4]
  00022	48 8b 8d 20 02
	00 00		 mov	 rcx, QWORD PTR _Ostr$[rbp]
  00029	48 03 c8	 add	 rcx, rax
  0002c	48 8b c1	 mov	 rax, rcx
  0002f	41 b0 01	 mov	 r8b, 1
  00032	ba 04 00 00 00	 mov	 edx, 4
  00037	48 8b c8	 mov	 rcx, rax
  0003a	ff 15 00 00 00
	00		 call	 QWORD PTR __imp_?setstate@?$basic_ios@DU?$char_traits@D@std@@@std@@QEAAXH_N@Z
  00040	90		 npad	 1
  00041	48 8d 05 00 00
	00 00		 lea	 rax, $LN23@catch$1
  00048	48 83 c4 28	 add	 rsp, 40			; 00000028H
  0004c	5f		 pop	 rdi
  0004d	5d		 pop	 rbp
  0004e	c3		 ret	 0
  0004f	cc		 int	 3
?catch$1@?0???$?6U?$char_traits@D@std@@@std@@YAAEAV?$basic_ostream@DU?$char_traits@D@std@@@0@AEAV10@PEBD@Z@4HA ENDP ; `std::operator<<<std::char_traits<char> >'::`1'::catch$1
text$x	ENDS
; Function compile flags: /Odtp /RTCsu /ZI
; File C:\Program Files (x86)\Microsoft Visual Studio\2019\Enterprise\VC\Tools\MSVC\14.27.29110\include\chrono
;	COMDAT ??$?GUsteady_clock@chrono@std@@V?$duration@_JU?$ratio@$00$0DLJKMKAA@@std@@@12@V312@@chrono@std@@YA?AV?$duration@_JU?$ratio@$00$0DLJKMKAA@@std@@@01@AEBV?$time_point@Usteady_clock@chrono@std@@V?$duration@_JU?$ratio@$00$0DLJKMKAA@@std@@@23@@01@0@Z
_TEXT	SEGMENT
$T1 = 200
$T2 = 232
tv66 = 248
__$ReturnUdt$ = 288
_Left$ = 296
_Right$ = 304
??$?GUsteady_clock@chrono@std@@V?$duration@_JU?$ratio@$00$0DLJKMKAA@@std@@@12@V312@@chrono@std@@YA?AV?$duration@_JU?$ratio@$00$0DLJKMKAA@@std@@@01@AEBV?$time_point@Usteady_clock@chrono@std@@V?$duration@_JU?$ratio@$00$0DLJKMKAA@@std@@@23@@01@0@Z PROC ; std::chrono::operator-<std::chrono::steady_clock,std::chrono::duration<__int64,std::ratio<1,1000000000> >,std::chrono::duration<__int64,std::ratio<1,1000000000> > >, COMDAT

; 496  :             is_arithmetic_v<typename _Duration1::rep>&& is_arithmetic_v<typename _Duration2::rep>) /* strengthened */ {

$LN3:
  00000	4c 89 44 24 18	 mov	 QWORD PTR [rsp+24], r8
  00005	48 89 54 24 10	 mov	 QWORD PTR [rsp+16], rdx
  0000a	48 89 4c 24 08	 mov	 QWORD PTR [rsp+8], rcx
  0000f	55		 push	 rbp
  00010	57		 push	 rdi
  00011	48 81 ec 28 01
	00 00		 sub	 rsp, 296		; 00000128H
  00018	48 8d 6c 24 20	 lea	 rbp, QWORD PTR [rsp+32]
  0001d	48 8b fc	 mov	 rdi, rsp
  00020	b9 4a 00 00 00	 mov	 ecx, 74			; 0000004aH
  00025	b8 cc cc cc cc	 mov	 eax, -858993460		; ccccccccH
  0002a	f3 ab		 rep stosd
  0002c	48 8b 8c 24 48
	01 00 00	 mov	 rcx, QWORD PTR [rsp+328]
  00034	48 8d 0d 00 00
	00 00		 lea	 rcx, OFFSET FLAT:__3ACC9D4A_chrono
  0003b	e8 00 00 00 00	 call	 __CheckForDebuggerJustMyCode

; 497  :         return _Left.time_since_epoch() - _Right.time_since_epoch();

  00040	48 8d 95 c8 00
	00 00		 lea	 rdx, QWORD PTR $T1[rbp]
  00047	48 8b 8d 30 01
	00 00		 mov	 rcx, QWORD PTR _Right$[rbp]
  0004e	e8 00 00 00 00	 call	 ?time_since_epoch@?$time_point@Usteady_clock@chrono@std@@V?$duration@_JU?$ratio@$00$0DLJKMKAA@@std@@@23@@chrono@std@@QEBA?AV?$duration@_JU?$ratio@$00$0DLJKMKAA@@std@@@23@XZ ; std::chrono::time_point<std::chrono::steady_clock,std::chrono::duration<__int64,std::ratio<1,1000000000> > >::time_since_epoch
  00053	48 89 85 f8 00
	00 00		 mov	 QWORD PTR tv66[rbp], rax
  0005a	48 8d 95 e8 00
	00 00		 lea	 rdx, QWORD PTR $T2[rbp]
  00061	48 8b 8d 28 01
	00 00		 mov	 rcx, QWORD PTR _Left$[rbp]
  00068	e8 00 00 00 00	 call	 ?time_since_epoch@?$time_point@Usteady_clock@chrono@std@@V?$duration@_JU?$ratio@$00$0DLJKMKAA@@std@@@23@@chrono@std@@QEBA?AV?$duration@_JU?$ratio@$00$0DLJKMKAA@@std@@@23@XZ ; std::chrono::time_point<std::chrono::steady_clock,std::chrono::duration<__int64,std::ratio<1,1000000000> > >::time_since_epoch
  0006d	48 8b 8d f8 00
	00 00		 mov	 rcx, QWORD PTR tv66[rbp]
  00074	4c 8b c1	 mov	 r8, rcx
  00077	48 8b d0	 mov	 rdx, rax
  0007a	48 8b 8d 20 01
	00 00		 mov	 rcx, QWORD PTR __$ReturnUdt$[rbp]
  00081	e8 00 00 00 00	 call	 ??$?G_JU?$ratio@$00$0DLJKMKAA@@std@@_JU01@@chrono@std@@YA?AV?$duration@_JU?$ratio@$00$0DLJKMKAA@@std@@@01@AEBV201@0@Z ; std::chrono::operator-<__int64,std::ratio<1,1000000000>,__int64,std::ratio<1,1000000000> >
  00086	48 8b 85 20 01
	00 00		 mov	 rax, QWORD PTR __$ReturnUdt$[rbp]

; 498  :     }

  0008d	48 8d a5 08 01
	00 00		 lea	 rsp, QWORD PTR [rbp+264]
  00094	5f		 pop	 rdi
  00095	5d		 pop	 rbp
  00096	c3		 ret	 0
??$?GUsteady_clock@chrono@std@@V?$duration@_JU?$ratio@$00$0DLJKMKAA@@std@@@12@V312@@chrono@std@@YA?AV?$duration@_JU?$ratio@$00$0DLJKMKAA@@std@@@01@AEBV?$time_point@Usteady_clock@chrono@std@@V?$duration@_JU?$ratio@$00$0DLJKMKAA@@std@@@23@@01@0@Z ENDP ; std::chrono::operator-<std::chrono::steady_clock,std::chrono::duration<__int64,std::ratio<1,1000000000> >,std::chrono::duration<__int64,std::ratio<1,1000000000> > >
_TEXT	ENDS
; Function compile flags: /Odtp /RTCsu /ZI
; File C:\Users\Skvortsoff\OneDrive\\GitHub\course_LP\course_LP\course_project.cpp
;	COMDAT wmain
_TEXT	SEGMENT
log$ = 16
AllTimeTranslations$13 = 648
parm$14 = 688
in$15 = 2528
tableLEX$16 = 3096
idTableID$17 = 3144
t1$18 = 3192
t2$19 = 3224
time_span$20 = 3256
mfst$21 = 3296
e$22 = 3520
$T23 = 5296
$T24 = 7128
$T25 = 8960
$T26 = 9592
$T27 = 10240
$T28 = 10808
$T29 = 11368
$T30 = 11416
$T31 = 11464
$T32 = 11512
$T33 = 11560
$T34 = 11592
$T35 = 11640
$T36 = 11672
$T37 = 11704
$T38 = 11736
$T39 = 11768
$T40 = 11800
$T41 = 11832
$T42 = 11864
$T43 = 11896
$T44 = 11928
$T45 = 11960
$T46 = 11992
$T47 = 12024
$T48 = 12056
$T49 = 12088
$T50 = 12120
$T51 = 12160
$T52 = 12800
$T53 = 13440
$T54 = 15280
$T55 = 15920
$T56 = 16496
$T57 = 17136
$T58 = 17184
$T59 = 17232
$T60 = 17872
$T61 = 18512
tv400 = 18728
tv396 = 18728
tv392 = 18728
tv388 = 18728
tv384 = 18728
tv382 = 18728
tv378 = 18728
tv377 = 18728
tv376 = 18728
tv375 = 18728
tv374 = 18728
tv373 = 18728
tv401 = 18736
tv397 = 18736
tv393 = 18736
tv389 = 18736
tv385 = 18736
tv383 = 18736
tv379 = 18736
tv402 = 18744
tv398 = 18744
tv394 = 18744
tv390 = 18744
tv386 = 18744
tv380 = 18744
tv403 = 18752
tv399 = 18752
tv395 = 18752
tv391 = 18752
tv387 = 18752
tv381 = 18752
__$ArrayPad$ = 18760
argc$ = 18800
argv$ = 18808
wmain	PROC						; COMDAT

; 5    : {

$LN12:
  00000	48 89 54 24 10	 mov	 QWORD PTR [rsp+16], rdx
  00005	89 4c 24 08	 mov	 DWORD PTR [rsp+8], ecx
  00009	55		 push	 rbp
  0000a	56		 push	 rsi
  0000b	57		 push	 rdi
  0000c	b8 80 49 00 00	 mov	 eax, 18816		; 00004980H
  00011	e8 00 00 00 00	 call	 __chkstk
  00016	48 2b e0	 sub	 rsp, rax
  00019	48 8d 6c 24 30	 lea	 rbp, QWORD PTR [rsp+48]
  0001e	48 8b fc	 mov	 rdi, rsp
  00021	b9 60 12 00 00	 mov	 ecx, 4704		; 00001260H
  00026	b8 cc cc cc cc	 mov	 eax, -858993460		; ccccccccH
  0002b	f3 ab		 rep stosd
  0002d	8b 8c 24 a8 49
	00 00		 mov	 ecx, DWORD PTR [rsp+18856]
  00034	48 8b 05 00 00
	00 00		 mov	 rax, QWORD PTR __security_cookie
  0003b	48 33 c5	 xor	 rax, rbp
  0003e	48 89 85 48 49
	00 00		 mov	 QWORD PTR __$ArrayPad$[rbp], rax
  00045	48 8d 0d 00 00
	00 00		 lea	 rcx, OFFSET FLAT:__F3AAEC4C_course_project@cpp
  0004c	e8 00 00 00 00	 call	 __CheckForDebuggerJustMyCode

; 6    : 	setlocale(LC_ALL, "rus");

  00051	48 8d 15 00 00
	00 00		 lea	 rdx, OFFSET FLAT:??_C@_03EJKFMIHK@rus@
  00058	33 c9		 xor	 ecx, ecx
  0005a	ff 15 00 00 00
	00		 call	 QWORD PTR __imp_setlocale

; 7    : 	Log::LOG log = Log::INITLOG;

  00060	48 8d 45 10	 lea	 rax, QWORD PTR log$[rbp]
  00064	48 8d 0d 00 00
	00 00		 lea	 rcx, OFFSET FLAT:?INITLOG@Log@@3ULOG@1@B
  0006b	48 8b f8	 mov	 rdi, rax
  0006e	48 8b f1	 mov	 rsi, rcx
  00071	b9 60 02 00 00	 mov	 ecx, 608		; 00000260H
  00076	f3 a4		 rep movsb

; 8    : 	try {
; 9    : 		double AllTimeTranslations = 0.0;

  00078	0f 57 c0	 xorps	 xmm0, xmm0
  0007b	f2 0f 11 85 88
	02 00 00	 movsd	 QWORD PTR AllTimeTranslations$13[rbp], xmm0

; 10   : 		Parm::PARM parm = Parm::getparm(argc, argv);

  00083	4c 8b 85 78 49
	00 00		 mov	 r8, QWORD PTR argv$[rbp]
  0008a	8b 95 70 49 00
	00		 mov	 edx, DWORD PTR argc$[rbp]
  00090	48 8d 8d d8 1b
	00 00		 lea	 rcx, QWORD PTR $T24[rbp]
  00097	e8 00 00 00 00	 call	 ?getparm@Parm@@YA?AUPARM@1@HPEAPEA_W@Z ; Parm::getparm
  0009c	48 89 85 28 49
	00 00		 mov	 QWORD PTR tv373[rbp], rax
  000a3	48 8d 85 b0 14
	00 00		 lea	 rax, QWORD PTR $T23[rbp]
  000aa	48 8b f8	 mov	 rdi, rax
  000ad	48 8b b5 28 49
	00 00		 mov	 rsi, QWORD PTR tv373[rbp]
  000b4	b9 08 07 00 00	 mov	 ecx, 1800		; 00000708H
  000b9	f3 a4		 rep movsb
  000bb	48 8d 85 b0 02
	00 00		 lea	 rax, QWORD PTR parm$14[rbp]
  000c2	48 8d 8d b0 14
	00 00		 lea	 rcx, QWORD PTR $T23[rbp]
  000c9	48 8b f8	 mov	 rdi, rax
  000cc	48 8b f1	 mov	 rsi, rcx
  000cf	b9 08 07 00 00	 mov	 ecx, 1800		; 00000708H
  000d4	f3 a4		 rep movsb

; 11   : 		log = Log::getlog(parm.log);

  000d6	48 8d 95 60 07
	00 00		 lea	 rdx, QWORD PTR parm$14[rbp+1200]
  000dd	48 8d 8d 78 25
	00 00		 lea	 rcx, QWORD PTR $T26[rbp]
  000e4	e8 00 00 00 00	 call	 ?getlog@Log@@YA?AULOG@1@QEA_W@Z ; Log::getlog
  000e9	48 89 85 28 49
	00 00		 mov	 QWORD PTR tv374[rbp], rax
  000f0	48 8d 85 00 23
	00 00		 lea	 rax, QWORD PTR $T25[rbp]
  000f7	48 8b f8	 mov	 rdi, rax
  000fa	48 8b b5 28 49
	00 00		 mov	 rsi, QWORD PTR tv374[rbp]
  00101	b9 60 02 00 00	 mov	 ecx, 608		; 00000260H
  00106	f3 a4		 rep movsb
  00108	48 8d 45 10	 lea	 rax, QWORD PTR log$[rbp]
  0010c	48 8d 8d 00 23
	00 00		 lea	 rcx, QWORD PTR $T25[rbp]
  00113	48 8b f8	 mov	 rdi, rax
  00116	48 8b f1	 mov	 rsi, rcx
  00119	b9 60 02 00 00	 mov	 ecx, 608		; 00000260H
  0011e	f3 a4		 rep movsb

; 12   : 		Log::WriteLog(log);

  00120	48 8d 85 80 2f
	00 00		 lea	 rax, QWORD PTR $T51[rbp]
  00127	48 8d 4d 10	 lea	 rcx, QWORD PTR log$[rbp]
  0012b	48 8b f8	 mov	 rdi, rax
  0012e	48 8b f1	 mov	 rsi, rcx
  00131	b9 60 02 00 00	 mov	 ecx, 608		; 00000260H
  00136	f3 a4		 rep movsb
  00138	48 8d 8d 80 2f
	00 00		 lea	 rcx, QWORD PTR $T51[rbp]
  0013f	e8 00 00 00 00	 call	 ?WriteLog@Log@@YAXULOG@1@@Z ; Log::WriteLog

; 13   : 		Log::WriteParm(log, parm);

  00144	48 8d 85 80 34
	00 00		 lea	 rax, QWORD PTR $T53[rbp]
  0014b	48 8d 8d b0 02
	00 00		 lea	 rcx, QWORD PTR parm$14[rbp]
  00152	48 8b f8	 mov	 rdi, rax
  00155	48 8b f1	 mov	 rsi, rcx
  00158	b9 08 07 00 00	 mov	 ecx, 1800		; 00000708H
  0015d	f3 a4		 rep movsb
  0015f	48 8d 85 00 32
	00 00		 lea	 rax, QWORD PTR $T52[rbp]
  00166	48 8d 4d 10	 lea	 rcx, QWORD PTR log$[rbp]
  0016a	48 8b f8	 mov	 rdi, rax
  0016d	48 8b f1	 mov	 rsi, rcx
  00170	b9 60 02 00 00	 mov	 ecx, 608		; 00000260H
  00175	f3 a4		 rep movsb
  00177	48 8d 95 80 34
	00 00		 lea	 rdx, QWORD PTR $T53[rbp]
  0017e	48 8d 8d 00 32
	00 00		 lea	 rcx, QWORD PTR $T52[rbp]
  00185	e8 00 00 00 00	 call	 ?WriteParm@Log@@YAXULOG@1@UPARM@Parm@@@Z ; Log::WriteParm

; 14   : 		In::IN in = In::getin(parm.in);

  0018a	48 8d 95 b0 02
	00 00		 lea	 rdx, QWORD PTR parm$14[rbp]
  00191	48 8d 8d 38 2a
	00 00		 lea	 rcx, QWORD PTR $T28[rbp]
  00198	e8 00 00 00 00	 call	 ?getin@In@@YA?AUIN@1@QEA_W@Z ; In::getin
  0019d	48 89 85 28 49
	00 00		 mov	 QWORD PTR tv375[rbp], rax
  001a4	48 8d 85 00 28
	00 00		 lea	 rax, QWORD PTR $T27[rbp]
  001ab	48 8b f8	 mov	 rdi, rax
  001ae	48 8b b5 28 49
	00 00		 mov	 rsi, QWORD PTR tv375[rbp]
  001b5	b9 18 02 00 00	 mov	 ecx, 536		; 00000218H
  001ba	f3 a4		 rep movsb
  001bc	48 8d 85 e0 09
	00 00		 lea	 rax, QWORD PTR in$15[rbp]
  001c3	48 8d 8d 00 28
	00 00		 lea	 rcx, QWORD PTR $T27[rbp]
  001ca	48 8b f8	 mov	 rdi, rax
  001cd	48 8b f1	 mov	 rsi, rcx
  001d0	b9 18 02 00 00	 mov	 ecx, 536		; 00000218H
  001d5	f3 a4		 rep movsb

; 15   : 		Log::WriteIn(log, in);

  001d7	48 8d 85 30 3e
	00 00		 lea	 rax, QWORD PTR $T55[rbp]
  001de	48 8d 8d e0 09
	00 00		 lea	 rcx, QWORD PTR in$15[rbp]
  001e5	48 8b f8	 mov	 rdi, rax
  001e8	48 8b f1	 mov	 rsi, rcx
  001eb	b9 18 02 00 00	 mov	 ecx, 536		; 00000218H
  001f0	f3 a4		 rep movsb
  001f2	48 8d 85 b0 3b
	00 00		 lea	 rax, QWORD PTR $T54[rbp]
  001f9	48 8d 4d 10	 lea	 rcx, QWORD PTR log$[rbp]
  001fd	48 8b f8	 mov	 rdi, rax
  00200	48 8b f1	 mov	 rsi, rcx
  00203	b9 60 02 00 00	 mov	 ecx, 608		; 00000260H
  00208	f3 a4		 rep movsb
  0020a	48 8d 95 30 3e
	00 00		 lea	 rdx, QWORD PTR $T55[rbp]
  00211	48 8d 8d b0 3b
	00 00		 lea	 rcx, QWORD PTR $T54[rbp]
  00218	e8 00 00 00 00	 call	 ?WriteIn@Log@@YAXULOG@1@UIN@In@@@Z ; Log::WriteIn

; 16   : 		Log::WriteLine(log, L": ", L" ", L" ", L" ", L"");

  0021d	48 8d 85 70 40
	00 00		 lea	 rax, QWORD PTR $T56[rbp]
  00224	48 8d 4d 10	 lea	 rcx, QWORD PTR log$[rbp]
  00228	48 8b f8	 mov	 rdi, rax
  0022b	48 8b f1	 mov	 rsi, rcx
  0022e	b9 60 02 00 00	 mov	 ecx, 608		; 00000260H
  00233	f3 a4		 rep movsb
  00235	48 8d 05 00 00
	00 00		 lea	 rax, OFFSET FLAT:??_C@_11LOCGONAA@@
  0023c	48 89 44 24 28	 mov	 QWORD PTR [rsp+40], rax
  00241	48 8d 05 00 00
	00 00		 lea	 rax, OFFSET FLAT:??_C@_1BA@BGIBCCML@?$AA?$DO?$AAH?$AA8?$AA1?$AA?$DO?$AA?3?$AA?5@
  00248	48 89 44 24 20	 mov	 QWORD PTR [rsp+32], rax
  0024d	4c 8d 0d 00 00
	00 00		 lea	 r9, OFFSET FLAT:??_C@_19LDAHGIGC@?$AA1?$AA5?$AA7?$AA?5@
  00254	4c 8d 05 00 00
	00 00		 lea	 r8, OFFSET FLAT:??_C@_1BA@EGIFOAP@?$AAA?$AAG?$AA8?$AAB?$AA0?$AA?$DN?$AA?5@
  0025b	48 8d 15 00 00
	00 00		 lea	 rdx, OFFSET FLAT:??_C@_1O@HOPEEGNI@?$AA$?$AA0?$AA9?$AA?$DL?$AA?3?$AA?5@
  00262	48 8d 8d 70 40
	00 00		 lea	 rcx, QWORD PTR $T56[rbp]
  00269	e8 00 00 00 00	 call	 ?WriteLine@Log@@YAXULOG@1@PEB_WZZ ; Log::WriteLine

; 17   : 
; 18   : 		LT::LexTable tableLEX = LT::Create(LT_MAXSIZE);

  0026e	ba 00 10 00 00	 mov	 edx, 4096		; 00001000H
  00273	48 8d 8d 98 2c
	00 00		 lea	 rcx, QWORD PTR $T30[rbp]
  0027a	e8 00 00 00 00	 call	 ?Create@LT@@YA?AULexTable@1@H@Z ; LT::Create
  0027f	48 89 85 28 49
	00 00		 mov	 QWORD PTR tv376[rbp], rax
  00286	48 8d 85 68 2c
	00 00		 lea	 rax, QWORD PTR $T29[rbp]
  0028d	48 8b f8	 mov	 rdi, rax
  00290	48 8b b5 28 49
	00 00		 mov	 rsi, QWORD PTR tv376[rbp]
  00297	b9 10 00 00 00	 mov	 ecx, 16
  0029c	f3 a4		 rep movsb
  0029e	48 8d 85 18 0c
	00 00		 lea	 rax, QWORD PTR tableLEX$16[rbp]
  002a5	48 8d 8d 68 2c
	00 00		 lea	 rcx, QWORD PTR $T29[rbp]
  002ac	48 8b f8	 mov	 rdi, rax
  002af	48 8b f1	 mov	 rsi, rcx
  002b2	b9 10 00 00 00	 mov	 ecx, 16
  002b7	f3 a4		 rep movsb

; 19   : 		IT::IdTable idTableID = IT::Create(TI_MAXSIZE);

  002b9	ba 00 10 00 00	 mov	 edx, 4096		; 00001000H
  002be	48 8d 8d f8 2c
	00 00		 lea	 rcx, QWORD PTR $T32[rbp]
  002c5	e8 00 00 00 00	 call	 ?Create@IT@@YA?AUIdTable@1@H@Z ; IT::Create
  002ca	48 89 85 28 49
	00 00		 mov	 QWORD PTR tv377[rbp], rax
  002d1	48 8d 85 c8 2c
	00 00		 lea	 rax, QWORD PTR $T31[rbp]
  002d8	48 8b f8	 mov	 rdi, rax
  002db	48 8b b5 28 49
	00 00		 mov	 rsi, QWORD PTR tv377[rbp]
  002e2	b9 10 00 00 00	 mov	 ecx, 16
  002e7	f3 a4		 rep movsb
  002e9	48 8d 85 48 0c
	00 00		 lea	 rax, QWORD PTR idTableID$17[rbp]
  002f0	48 8d 8d c8 2c
	00 00		 lea	 rcx, QWORD PTR $T31[rbp]
  002f7	48 8b f8	 mov	 rdi, rax
  002fa	48 8b f1	 mov	 rsi, rcx
  002fd	b9 10 00 00 00	 mov	 ecx, 16
  00302	f3 a4		 rep movsb

; 20   : 
; 21   : 		std::chrono::high_resolution_clock::time_point t1 = std::chrono::high_resolution_clock::now();

  00304	48 8d 8d 78 0c
	00 00		 lea	 rcx, QWORD PTR t1$18[rbp]
  0030b	e8 00 00 00 00	 call	 ?now@steady_clock@chrono@std@@SA?AV?$time_point@Usteady_clock@chrono@std@@V?$duration@_JU?$ratio@$00$0DLJKMKAA@@std@@@23@@23@XZ ; std::chrono::steady_clock::now

; 22   : 		GM::dataProcesing(in.text, log.stream, &tableLEX, &idTableID);

  00310	4c 8d 8d 48 0c
	00 00		 lea	 r9, QWORD PTR idTableID$17[rbp]
  00317	4c 8d 85 18 0c
	00 00		 lea	 r8, QWORD PTR tableLEX$16[rbp]
  0031e	48 8b 95 68 02
	00 00		 mov	 rdx, QWORD PTR log$[rbp+600]
  00325	48 8b 8d f0 09
	00 00		 mov	 rcx, QWORD PTR in$15[rbp+16]
  0032c	e8 00 00 00 00	 call	 ?dataProcesing@GM@@YAXPEAEPEAV?$basic_fstream@DU?$char_traits@D@std@@@std@@PEAULexTable@LT@@PEAUIdTable@IT@@@Z ; GM::dataProcesing

; 23   : 		std::chrono::high_resolution_clock::time_point t2 = std::chrono::high_resolution_clock::now();

  00331	48 8d 8d 98 0c
	00 00		 lea	 rcx, QWORD PTR t2$19[rbp]
  00338	e8 00 00 00 00	 call	 ?now@steady_clock@chrono@std@@SA?AV?$time_point@Usteady_clock@chrono@std@@V?$duration@_JU?$ratio@$00$0DLJKMKAA@@std@@@23@@23@XZ ; std::chrono::steady_clock::now

; 24   : 		std::chrono::duration<double> time_span = std::chrono::duration_cast<std::chrono::duration<double>>(t2 - t1);

  0033d	4c 8d 85 78 0c
	00 00		 lea	 r8, QWORD PTR t1$18[rbp]
  00344	48 8d 95 98 0c
	00 00		 lea	 rdx, QWORD PTR t2$19[rbp]
  0034b	48 8d 8d 28 2d
	00 00		 lea	 rcx, QWORD PTR $T33[rbp]
  00352	e8 00 00 00 00	 call	 ??$?GUsteady_clock@chrono@std@@V?$duration@_JU?$ratio@$00$0DLJKMKAA@@std@@@12@V312@@chrono@std@@YA?AV?$duration@_JU?$ratio@$00$0DLJKMKAA@@std@@@01@AEBV?$time_point@Usteady_clock@chrono@std@@V?$duration@_JU?$ratio@$00$0DLJKMKAA@@std@@@23@@01@0@Z ; std::chrono::operator-<std::chrono::steady_clock,std::chrono::duration<__int64,std::ratio<1,1000000000> >,std::chrono::duration<__int64,std::ratio<1,1000000000> > >
  00357	48 8b d0	 mov	 rdx, rax
  0035a	48 8d 8d b8 0c
	00 00		 lea	 rcx, QWORD PTR time_span$20[rbp]
  00361	e8 00 00 00 00	 call	 ??$duration_cast@V?$duration@NU?$ratio@$00$00@std@@@chrono@std@@_JU?$ratio@$00$0DLJKMKAA@@3@$0A@@chrono@std@@YA?AV?$duration@NU?$ratio@$00$00@std@@@01@AEBV?$duration@_JU?$ratio@$00$0DLJKMKAA@@std@@@01@@Z ; std::chrono::duration_cast<std::chrono::duration<double,std::ratio<1,1> >,__int64,std::ratio<1,1000000000>,0>

; 25   : 		AllTimeTranslations += time_span.count();

  00366	48 8d 8d b8 0c
	00 00		 lea	 rcx, QWORD PTR time_span$20[rbp]
  0036d	e8 00 00 00 00	 call	 ?count@?$duration@NU?$ratio@$00$00@std@@@chrono@std@@QEBANXZ ; std::chrono::duration<double,std::ratio<1,1> >::count
  00372	f2 0f 10 8d 88
	02 00 00	 movsd	 xmm1, QWORD PTR AllTimeTranslations$13[rbp]
  0037a	f2 0f 58 c8	 addsd	 xmm1, xmm0
  0037e	0f 28 c1	 movaps	 xmm0, xmm1
  00381	f2 0f 11 85 88
	02 00 00	 movsd	 QWORD PTR AllTimeTranslations$13[rbp], xmm0

; 26   : 		std::cout << ">>>>>>>>>>  : \t" << time_span.count() << " ." << std::endl << std::endl;

  00389	48 8d 15 00 00
	00 00		 lea	 rdx, OFFSET FLAT:??_C@_0CF@OKKBGDDO@?$DO?$DO?$DO?$DO?$DO?$DO?$DO?$DO?$DO?$DO?5?K?e?j?q?h?w?e?q?j?h?i?5?$OA?m?$OA?k?h?g?$OA?r@
  00390	48 8b 0d 00 00
	00 00		 mov	 rcx, QWORD PTR __imp_?cout@std@@3V?$basic_ostream@DU?$char_traits@D@std@@@1@A
  00397	e8 00 00 00 00	 call	 ??$?6U?$char_traits@D@std@@@std@@YAAEAV?$basic_ostream@DU?$char_traits@D@std@@@0@AEAV10@PEBD@Z ; std::operator<<<std::char_traits<char> >
  0039c	48 89 85 28 49
	00 00		 mov	 QWORD PTR tv378[rbp], rax
  003a3	48 8d 8d b8 0c
	00 00		 lea	 rcx, QWORD PTR time_span$20[rbp]
  003aa	e8 00 00 00 00	 call	 ?count@?$duration@NU?$ratio@$00$00@std@@@chrono@std@@QEBANXZ ; std::chrono::duration<double,std::ratio<1,1> >::count
  003af	0f 28 c8	 movaps	 xmm1, xmm0
  003b2	48 8b 8d 28 49
	00 00		 mov	 rcx, QWORD PTR tv378[rbp]
  003b9	ff 15 00 00 00
	00		 call	 QWORD PTR __imp_??6?$basic_ostream@DU?$char_traits@D@std@@@std@@QEAAAEAV01@N@Z
  003bf	48 89 85 30 49
	00 00		 mov	 QWORD PTR tv379[rbp], rax
  003c6	48 8d 15 00 00
	00 00		 lea	 rdx, OFFSET FLAT:??_C@_05HCBGMPNH@?5?q?e?j?4@
  003cd	48 8b 8d 30 49
	00 00		 mov	 rcx, QWORD PTR tv379[rbp]
  003d4	e8 00 00 00 00	 call	 ??$?6U?$char_traits@D@std@@@std@@YAAEAV?$basic_ostream@DU?$char_traits@D@std@@@0@AEAV10@PEBD@Z ; std::operator<<<std::char_traits<char> >
  003d9	48 89 85 38 49
	00 00		 mov	 QWORD PTR tv380[rbp], rax
  003e0	48 8d 15 00 00
	00 00		 lea	 rdx, OFFSET FLAT:??$endl@DU?$char_traits@D@std@@@std@@YAAEAV?$basic_ostream@DU?$char_traits@D@std@@@0@AEAV10@@Z ; std::endl<char,std::char_traits<char> >
  003e7	48 8b 8d 38 49
	00 00		 mov	 rcx, QWORD PTR tv380[rbp]
  003ee	ff 15 00 00 00
	00		 call	 QWORD PTR __imp_??6?$basic_ostream@DU?$char_traits@D@std@@@std@@QEAAAEAV01@P6AAEAV01@AEAV01@@Z@Z
  003f4	48 89 85 40 49
	00 00		 mov	 QWORD PTR tv381[rbp], rax
  003fb	48 8d 15 00 00
	00 00		 lea	 rdx, OFFSET FLAT:??$endl@DU?$char_traits@D@std@@@std@@YAAEAV?$basic_ostream@DU?$char_traits@D@std@@@0@AEAV10@@Z ; std::endl<char,std::char_traits<char> >
  00402	48 8b 8d 40 49
	00 00		 mov	 rcx, QWORD PTR tv381[rbp]
  00409	ff 15 00 00 00
	00		 call	 QWORD PTR __imp_??6?$basic_ostream@DU?$char_traits@D@std@@@std@@QEAAAEAV01@P6AAEAV01@AEAV01@@Z@Z

; 27   : 
; 28   : 		LT::PrintTableLex(&tableLEX, parm.out);

  0040f	48 8d 95 08 05
	00 00		 lea	 rdx, QWORD PTR parm$14[rbp+600]
  00416	48 8d 8d 18 0c
	00 00		 lea	 rcx, QWORD PTR tableLEX$16[rbp]
  0041d	e8 00 00 00 00	 call	 ?PrintTableLex@LT@@YAXPEAULexTable@1@PEA_W@Z ; LT::PrintTableLex

; 29   : #ifdef DEBUG
; 30   : 		MFST_TRACE_START									//	
; 31   : #endif // DEBUG
; 32   : 
; 33   : 		MFST::MFST mfst(tableLEX, GRB::getGreibach());	    //	

  00422	48 8d 8d 48 2d
	00 00		 lea	 rcx, QWORD PTR $T34[rbp]
  00429	e8 00 00 00 00	 call	 ?getGreibach@GRB@@YA?AUGreibach@1@XZ ; GRB::getGreibach
  0042e	48 89 85 28 49
	00 00		 mov	 QWORD PTR tv382[rbp], rax
  00435	48 8d 85 20 43
	00 00		 lea	 rax, QWORD PTR $T58[rbp]
  0043c	48 8b f8	 mov	 rdi, rax
  0043f	48 8b b5 28 49
	00 00		 mov	 rsi, QWORD PTR tv382[rbp]
  00446	b9 10 00 00 00	 mov	 ecx, 16
  0044b	f3 a4		 rep movsb
  0044d	48 8d 85 f0 42
	00 00		 lea	 rax, QWORD PTR $T57[rbp]
  00454	48 8d 8d 18 0c
	00 00		 lea	 rcx, QWORD PTR tableLEX$16[rbp]
  0045b	48 8b f8	 mov	 rdi, rax
  0045e	48 8b f1	 mov	 rsi, rcx
  00461	b9 10 00 00 00	 mov	 ecx, 16
  00466	f3 a4		 rep movsb
  00468	4c 8d 85 20 43
	00 00		 lea	 r8, QWORD PTR $T58[rbp]
  0046f	48 8d 95 f0 42
	00 00		 lea	 rdx, QWORD PTR $T57[rbp]
  00476	48 8d 8d e0 0c
	00 00		 lea	 rcx, QWORD PTR mfst$21[rbp]
  0047d	e8 00 00 00 00	 call	 ??0MFST@0@QEAA@ULexTable@LT@@UGreibach@GRB@@@Z ; MFST::MFST::MFST
  00482	48 89 85 30 49
	00 00		 mov	 QWORD PTR tv383[rbp], rax

; 34   : 
; 35   : 		t1 = std::chrono::high_resolution_clock::now();

  00489	48 8d 8d 78 2d
	00 00		 lea	 rcx, QWORD PTR $T35[rbp]
  00490	e8 00 00 00 00	 call	 ?now@steady_clock@chrono@std@@SA?AV?$time_point@Usteady_clock@chrono@std@@V?$duration@_JU?$ratio@$00$0DLJKMKAA@@std@@@23@@23@XZ ; std::chrono::steady_clock::now
  00495	48 8b 00	 mov	 rax, QWORD PTR [rax]
  00498	48 89 85 78 0c
	00 00		 mov	 QWORD PTR t1$18[rbp], rax

; 36   : 		mfst.start();										//	 	

  0049f	48 8d 8d e0 0c
	00 00		 lea	 rcx, QWORD PTR mfst$21[rbp]
  004a6	e8 00 00 00 00	 call	 ?start@MFST@1@QEAA_NXZ	; MFST::MFST::start

; 37   : 		t2 = std::chrono::high_resolution_clock::now();

  004ab	48 8d 8d 98 2d
	00 00		 lea	 rcx, QWORD PTR $T36[rbp]
  004b2	e8 00 00 00 00	 call	 ?now@steady_clock@chrono@std@@SA?AV?$time_point@Usteady_clock@chrono@std@@V?$duration@_JU?$ratio@$00$0DLJKMKAA@@std@@@23@@23@XZ ; std::chrono::steady_clock::now
  004b7	48 8b 00	 mov	 rax, QWORD PTR [rax]
  004ba	48 89 85 98 0c
	00 00		 mov	 QWORD PTR t2$19[rbp], rax

; 38   : 		time_span = std::chrono::duration_cast<std::chrono::duration<double>>(t2 - t1);

  004c1	4c 8d 85 78 0c
	00 00		 lea	 r8, QWORD PTR t1$18[rbp]
  004c8	48 8d 95 98 0c
	00 00		 lea	 rdx, QWORD PTR t2$19[rbp]
  004cf	48 8d 8d b8 2d
	00 00		 lea	 rcx, QWORD PTR $T37[rbp]
  004d6	e8 00 00 00 00	 call	 ??$?GUsteady_clock@chrono@std@@V?$duration@_JU?$ratio@$00$0DLJKMKAA@@std@@@12@V312@@chrono@std@@YA?AV?$duration@_JU?$ratio@$00$0DLJKMKAA@@std@@@01@AEBV?$time_point@Usteady_clock@chrono@std@@V?$duration@_JU?$ratio@$00$0DLJKMKAA@@std@@@23@@01@0@Z ; std::chrono::operator-<std::chrono::steady_clock,std::chrono::duration<__int64,std::ratio<1,1000000000> >,std::chrono::duration<__int64,std::ratio<1,1000000000> > >
  004db	48 8b d0	 mov	 rdx, rax
  004de	48 8d 8d d8 2d
	00 00		 lea	 rcx, QWORD PTR $T38[rbp]
  004e5	e8 00 00 00 00	 call	 ??$duration_cast@V?$duration@NU?$ratio@$00$00@std@@@chrono@std@@_JU?$ratio@$00$0DLJKMKAA@@3@$0A@@chrono@std@@YA?AV?$duration@NU?$ratio@$00$00@std@@@01@AEBV?$duration@_JU?$ratio@$00$0DLJKMKAA@@std@@@01@@Z ; std::chrono::duration_cast<std::chrono::duration<double,std::ratio<1,1> >,__int64,std::ratio<1,1000000000>,0>
  004ea	48 8b 00	 mov	 rax, QWORD PTR [rax]
  004ed	48 89 85 b8 0c
	00 00		 mov	 QWORD PTR time_span$20[rbp], rax

; 39   : 		AllTimeTranslations += time_span.count();

  004f4	48 8d 8d b8 0c
	00 00		 lea	 rcx, QWORD PTR time_span$20[rbp]
  004fb	e8 00 00 00 00	 call	 ?count@?$duration@NU?$ratio@$00$00@std@@@chrono@std@@QEBANXZ ; std::chrono::duration<double,std::ratio<1,1> >::count
  00500	f2 0f 10 8d 88
	02 00 00	 movsd	 xmm1, QWORD PTR AllTimeTranslations$13[rbp]
  00508	f2 0f 58 c8	 addsd	 xmm1, xmm0
  0050c	0f 28 c1	 movaps	 xmm0, xmm1
  0050f	f2 0f 11 85 88
	02 00 00	 movsd	 QWORD PTR AllTimeTranslations$13[rbp], xmm0

; 40   : 		std::cout << ">>>>>>>>>> C : \t" << time_span.count() << " ." << std::endl << std::endl;

  00517	48 8d 15 00 00
	00 00		 lea	 rdx, OFFSET FLAT:??_C@_0CI@DKFHPLKL@?$DO?$DO?$DO?$DO?$DO?$DO?$DO?$DO?$DO?$DO?5C?h?m?r?$OA?j?q?h?w?e?q?j?h?i?5?$OA?m?$OA?k?h@
  0051e	48 8b 0d 00 00
	00 00		 mov	 rcx, QWORD PTR __imp_?cout@std@@3V?$basic_ostream@DU?$char_traits@D@std@@@1@A
  00525	e8 00 00 00 00	 call	 ??$?6U?$char_traits@D@std@@@std@@YAAEAV?$basic_ostream@DU?$char_traits@D@std@@@0@AEAV10@PEBD@Z ; std::operator<<<std::char_traits<char> >
  0052a	48 89 85 28 49
	00 00		 mov	 QWORD PTR tv384[rbp], rax
  00531	48 8d 8d b8 0c
	00 00		 lea	 rcx, QWORD PTR time_span$20[rbp]
  00538	e8 00 00 00 00	 call	 ?count@?$duration@NU?$ratio@$00$00@std@@@chrono@std@@QEBANXZ ; std::chrono::duration<double,std::ratio<1,1> >::count
  0053d	0f 28 c8	 movaps	 xmm1, xmm0
  00540	48 8b 8d 28 49
	00 00		 mov	 rcx, QWORD PTR tv384[rbp]
  00547	ff 15 00 00 00
	00		 call	 QWORD PTR __imp_??6?$basic_ostream@DU?$char_traits@D@std@@@std@@QEAAAEAV01@N@Z
  0054d	48 89 85 30 49
	00 00		 mov	 QWORD PTR tv385[rbp], rax
  00554	48 8d 15 00 00
	00 00		 lea	 rdx, OFFSET FLAT:??_C@_05HCBGMPNH@?5?q?e?j?4@
  0055b	48 8b 8d 30 49
	00 00		 mov	 rcx, QWORD PTR tv385[rbp]
  00562	e8 00 00 00 00	 call	 ??$?6U?$char_traits@D@std@@@std@@YAAEAV?$basic_ostream@DU?$char_traits@D@std@@@0@AEAV10@PEBD@Z ; std::operator<<<std::char_traits<char> >
  00567	48 89 85 38 49
	00 00		 mov	 QWORD PTR tv386[rbp], rax
  0056e	48 8d 15 00 00
	00 00		 lea	 rdx, OFFSET FLAT:??$endl@DU?$char_traits@D@std@@@std@@YAAEAV?$basic_ostream@DU?$char_traits@D@std@@@0@AEAV10@@Z ; std::endl<char,std::char_traits<char> >
  00575	48 8b 8d 38 49
	00 00		 mov	 rcx, QWORD PTR tv386[rbp]
  0057c	ff 15 00 00 00
	00		 call	 QWORD PTR __imp_??6?$basic_ostream@DU?$char_traits@D@std@@@std@@QEAAAEAV01@P6AAEAV01@AEAV01@@Z@Z
  00582	48 89 85 40 49
	00 00		 mov	 QWORD PTR tv387[rbp], rax
  00589	48 8d 15 00 00
	00 00		 lea	 rdx, OFFSET FLAT:??$endl@DU?$char_traits@D@std@@@std@@YAAEAV?$basic_ostream@DU?$char_traits@D@std@@@0@AEAV10@@Z ; std::endl<char,std::char_traits<char> >
  00590	48 8b 8d 40 49
	00 00		 mov	 rcx, QWORD PTR tv387[rbp]
  00597	ff 15 00 00 00
	00		 call	 QWORD PTR __imp_??6?$basic_ostream@DU?$char_traits@D@std@@@std@@QEAAAEAV01@P6AAEAV01@AEAV01@@Z@Z

; 41   : #ifdef RULESPRINT
; 42   : 		mfst.printRules();

  0059d	48 8d 8d e0 0c
	00 00		 lea	 rcx, QWORD PTR mfst$21[rbp]
  005a4	e8 00 00 00 00	 call	 ?printRules@MFST@1@QEAAXXZ ; MFST::MFST::printRules

; 43   : #endif
; 44   : 		t1 = std::chrono::high_resolution_clock::now();

  005a9	48 8d 8d f8 2d
	00 00		 lea	 rcx, QWORD PTR $T39[rbp]
  005b0	e8 00 00 00 00	 call	 ?now@steady_clock@chrono@std@@SA?AV?$time_point@Usteady_clock@chrono@std@@V?$duration@_JU?$ratio@$00$0DLJKMKAA@@std@@@23@@23@XZ ; std::chrono::steady_clock::now
  005b5	48 8b 00	 mov	 rax, QWORD PTR [rax]
  005b8	48 89 85 78 0c
	00 00		 mov	 QWORD PTR t1$18[rbp], rax

; 45   : 		SA::SemanticAnalises(&tableLEX, &idTableID);

  005bf	48 8d 95 48 0c
	00 00		 lea	 rdx, QWORD PTR idTableID$17[rbp]
  005c6	48 8d 8d 18 0c
	00 00		 lea	 rcx, QWORD PTR tableLEX$16[rbp]
  005cd	e8 00 00 00 00	 call	 ?SemanticAnalises@SA@@YAXPEAULexTable@LT@@PEAUIdTable@IT@@@Z ; SA::SemanticAnalises

; 46   : 		t2 = std::chrono::high_resolution_clock::now();

  005d2	48 8d 8d 18 2e
	00 00		 lea	 rcx, QWORD PTR $T40[rbp]
  005d9	e8 00 00 00 00	 call	 ?now@steady_clock@chrono@std@@SA?AV?$time_point@Usteady_clock@chrono@std@@V?$duration@_JU?$ratio@$00$0DLJKMKAA@@std@@@23@@23@XZ ; std::chrono::steady_clock::now
  005de	48 8b 00	 mov	 rax, QWORD PTR [rax]
  005e1	48 89 85 98 0c
	00 00		 mov	 QWORD PTR t2$19[rbp], rax

; 47   : 		time_span = std::chrono::duration_cast<std::chrono::duration<double>>(t2 - t1);

  005e8	4c 8d 85 78 0c
	00 00		 lea	 r8, QWORD PTR t1$18[rbp]
  005ef	48 8d 95 98 0c
	00 00		 lea	 rdx, QWORD PTR t2$19[rbp]
  005f6	48 8d 8d 38 2e
	00 00		 lea	 rcx, QWORD PTR $T41[rbp]
  005fd	e8 00 00 00 00	 call	 ??$?GUsteady_clock@chrono@std@@V?$duration@_JU?$ratio@$00$0DLJKMKAA@@std@@@12@V312@@chrono@std@@YA?AV?$duration@_JU?$ratio@$00$0DLJKMKAA@@std@@@01@AEBV?$time_point@Usteady_clock@chrono@std@@V?$duration@_JU?$ratio@$00$0DLJKMKAA@@std@@@23@@01@0@Z ; std::chrono::operator-<std::chrono::steady_clock,std::chrono::duration<__int64,std::ratio<1,1000000000> >,std::chrono::duration<__int64,std::ratio<1,1000000000> > >
  00602	48 8b d0	 mov	 rdx, rax
  00605	48 8d 8d 58 2e
	00 00		 lea	 rcx, QWORD PTR $T42[rbp]
  0060c	e8 00 00 00 00	 call	 ??$duration_cast@V?$duration@NU?$ratio@$00$00@std@@@chrono@std@@_JU?$ratio@$00$0DLJKMKAA@@3@$0A@@chrono@std@@YA?AV?$duration@NU?$ratio@$00$00@std@@@01@AEBV?$duration@_JU?$ratio@$00$0DLJKMKAA@@std@@@01@@Z ; std::chrono::duration_cast<std::chrono::duration<double,std::ratio<1,1> >,__int64,std::ratio<1,1000000000>,0>
  00611	48 8b 00	 mov	 rax, QWORD PTR [rax]
  00614	48 89 85 b8 0c
	00 00		 mov	 QWORD PTR time_span$20[rbp], rax

; 48   : 		AllTimeTranslations += time_span.count();

  0061b	48 8d 8d b8 0c
	00 00		 lea	 rcx, QWORD PTR time_span$20[rbp]
  00622	e8 00 00 00 00	 call	 ?count@?$duration@NU?$ratio@$00$00@std@@@chrono@std@@QEBANXZ ; std::chrono::duration<double,std::ratio<1,1> >::count
  00627	f2 0f 10 8d 88
	02 00 00	 movsd	 xmm1, QWORD PTR AllTimeTranslations$13[rbp]
  0062f	f2 0f 58 c8	 addsd	 xmm1, xmm0
  00633	0f 28 c1	 movaps	 xmm0, xmm1
  00636	f2 0f 11 85 88
	02 00 00	 movsd	 QWORD PTR AllTimeTranslations$13[rbp], xmm0

; 49   : 		std::cout << ">>>>>>>>>>  : \t" << time_span.count() << " ." << std::endl << std::endl;

  0063e	48 8d 15 00 00
	00 00		 lea	 rdx, OFFSET FLAT:??_C@_0CH@BKLKOFGF@?$DO?$DO?$DO?$DO?$DO?$DO?$DO?$DO?$DO?$DO?5?Q?e?l?$OA?m?r?h?w?e?q?j?h?i?5?$OA?m?$OA?k?h?g@
  00645	48 8b 0d 00 00
	00 00		 mov	 rcx, QWORD PTR __imp_?cout@std@@3V?$basic_ostream@DU?$char_traits@D@std@@@1@A
  0064c	e8 00 00 00 00	 call	 ??$?6U?$char_traits@D@std@@@std@@YAAEAV?$basic_ostream@DU?$char_traits@D@std@@@0@AEAV10@PEBD@Z ; std::operator<<<std::char_traits<char> >
  00651	48 89 85 28 49
	00 00		 mov	 QWORD PTR tv388[rbp], rax
  00658	48 8d 8d b8 0c
	00 00		 lea	 rcx, QWORD PTR time_span$20[rbp]
  0065f	e8 00 00 00 00	 call	 ?count@?$duration@NU?$ratio@$00$00@std@@@chrono@std@@QEBANXZ ; std::chrono::duration<double,std::ratio<1,1> >::count
  00664	0f 28 c8	 movaps	 xmm1, xmm0
  00667	48 8b 8d 28 49
	00 00		 mov	 rcx, QWORD PTR tv388[rbp]
  0066e	ff 15 00 00 00
	00		 call	 QWORD PTR __imp_??6?$basic_ostream@DU?$char_traits@D@std@@@std@@QEAAAEAV01@N@Z
  00674	48 89 85 30 49
	00 00		 mov	 QWORD PTR tv389[rbp], rax
  0067b	48 8d 15 00 00
	00 00		 lea	 rdx, OFFSET FLAT:??_C@_05HCBGMPNH@?5?q?e?j?4@
  00682	48 8b 8d 30 49
	00 00		 mov	 rcx, QWORD PTR tv389[rbp]
  00689	e8 00 00 00 00	 call	 ??$?6U?$char_traits@D@std@@@std@@YAAEAV?$basic_ostream@DU?$char_traits@D@std@@@0@AEAV10@PEBD@Z ; std::operator<<<std::char_traits<char> >
  0068e	48 89 85 38 49
	00 00		 mov	 QWORD PTR tv390[rbp], rax
  00695	48 8d 15 00 00
	00 00		 lea	 rdx, OFFSET FLAT:??$endl@DU?$char_traits@D@std@@@std@@YAAEAV?$basic_ostream@DU?$char_traits@D@std@@@0@AEAV10@@Z ; std::endl<char,std::char_traits<char> >
  0069c	48 8b 8d 38 49
	00 00		 mov	 rcx, QWORD PTR tv390[rbp]
  006a3	ff 15 00 00 00
	00		 call	 QWORD PTR __imp_??6?$basic_ostream@DU?$char_traits@D@std@@@std@@QEAAAEAV01@P6AAEAV01@AEAV01@@Z@Z
  006a9	48 89 85 40 49
	00 00		 mov	 QWORD PTR tv391[rbp], rax
  006b0	48 8d 15 00 00
	00 00		 lea	 rdx, OFFSET FLAT:??$endl@DU?$char_traits@D@std@@@std@@YAAEAV?$basic_ostream@DU?$char_traits@D@std@@@0@AEAV10@@Z ; std::endl<char,std::char_traits<char> >
  006b7	48 8b 8d 40 49
	00 00		 mov	 rcx, QWORD PTR tv391[rbp]
  006be	ff 15 00 00 00
	00		 call	 QWORD PTR __imp_??6?$basic_ostream@DU?$char_traits@D@std@@@std@@QEAAAEAV01@P6AAEAV01@AEAV01@@Z@Z

; 50   : 		
; 51   : 		t1 = std::chrono::high_resolution_clock::now();

  006c4	48 8d 8d 78 2e
	00 00		 lea	 rcx, QWORD PTR $T43[rbp]
  006cb	e8 00 00 00 00	 call	 ?now@steady_clock@chrono@std@@SA?AV?$time_point@Usteady_clock@chrono@std@@V?$duration@_JU?$ratio@$00$0DLJKMKAA@@std@@@23@@23@XZ ; std::chrono::steady_clock::now
  006d0	48 8b 00	 mov	 rax, QWORD PTR [rax]
  006d3	48 89 85 78 0c
	00 00		 mov	 QWORD PTR t1$18[rbp], rax

; 52   : 		PN::seachingExpressions(tableLEX, idTableID);

  006da	48 8d 95 48 0c
	00 00		 lea	 rdx, QWORD PTR idTableID$17[rbp]
  006e1	48 8d 8d 18 0c
	00 00		 lea	 rcx, QWORD PTR tableLEX$16[rbp]
  006e8	e8 00 00 00 00	 call	 ?seachingExpressions@PN@@YAXAEAULexTable@LT@@AEAUIdTable@IT@@@Z ; PN::seachingExpressions

; 53   : 		t2 = std::chrono::high_resolution_clock::now();

  006ed	48 8d 8d 98 2e
	00 00		 lea	 rcx, QWORD PTR $T44[rbp]
  006f4	e8 00 00 00 00	 call	 ?now@steady_clock@chrono@std@@SA?AV?$time_point@Usteady_clock@chrono@std@@V?$duration@_JU?$ratio@$00$0DLJKMKAA@@std@@@23@@23@XZ ; std::chrono::steady_clock::now
  006f9	48 8b 00	 mov	 rax, QWORD PTR [rax]
  006fc	48 89 85 98 0c
	00 00		 mov	 QWORD PTR t2$19[rbp], rax

; 54   : 		time_span = std::chrono::duration_cast<std::chrono::duration<double>>(t2 - t1);

  00703	4c 8d 85 78 0c
	00 00		 lea	 r8, QWORD PTR t1$18[rbp]
  0070a	48 8d 95 98 0c
	00 00		 lea	 rdx, QWORD PTR t2$19[rbp]
  00711	48 8d 8d b8 2e
	00 00		 lea	 rcx, QWORD PTR $T45[rbp]
  00718	e8 00 00 00 00	 call	 ??$?GUsteady_clock@chrono@std@@V?$duration@_JU?$ratio@$00$0DLJKMKAA@@std@@@12@V312@@chrono@std@@YA?AV?$duration@_JU?$ratio@$00$0DLJKMKAA@@std@@@01@AEBV?$time_point@Usteady_clock@chrono@std@@V?$duration@_JU?$ratio@$00$0DLJKMKAA@@std@@@23@@01@0@Z ; std::chrono::operator-<std::chrono::steady_clock,std::chrono::duration<__int64,std::ratio<1,1000000000> >,std::chrono::duration<__int64,std::ratio<1,1000000000> > >
  0071d	48 8b d0	 mov	 rdx, rax
  00720	48 8d 8d d8 2e
	00 00		 lea	 rcx, QWORD PTR $T46[rbp]
  00727	e8 00 00 00 00	 call	 ??$duration_cast@V?$duration@NU?$ratio@$00$00@std@@@chrono@std@@_JU?$ratio@$00$0DLJKMKAA@@3@$0A@@chrono@std@@YA?AV?$duration@NU?$ratio@$00$00@std@@@01@AEBV?$duration@_JU?$ratio@$00$0DLJKMKAA@@std@@@01@@Z ; std::chrono::duration_cast<std::chrono::duration<double,std::ratio<1,1> >,__int64,std::ratio<1,1000000000>,0>
  0072c	48 8b 00	 mov	 rax, QWORD PTR [rax]
  0072f	48 89 85 b8 0c
	00 00		 mov	 QWORD PTR time_span$20[rbp], rax

; 55   : 		AllTimeTranslations += time_span.count();

  00736	48 8d 8d b8 0c
	00 00		 lea	 rcx, QWORD PTR time_span$20[rbp]
  0073d	e8 00 00 00 00	 call	 ?count@?$duration@NU?$ratio@$00$00@std@@@chrono@std@@QEBANXZ ; std::chrono::duration<double,std::ratio<1,1> >::count
  00742	f2 0f 10 8d 88
	02 00 00	 movsd	 xmm1, QWORD PTR AllTimeTranslations$13[rbp]
  0074a	f2 0f 58 c8	 addsd	 xmm1, xmm0
  0074e	0f 28 c1	 movaps	 xmm0, xmm1
  00751	f2 0f 11 85 88
	02 00 00	 movsd	 QWORD PTR AllTimeTranslations$13[rbp], xmm0

; 56   : 		std::cout << ">>>>>>>>>>  : \t" << time_span.count() << " ." << std::endl << std::endl;

  00759	48 8d 15 00 00
	00 00		 lea	 rdx, OFFSET FLAT:??_C@_0CH@HNLPENJ@?$DO?$DO?$DO?$DO?$DO?$DO?$DO?$DO?$DO?$DO?5?O?p?e?n?a?p?$OA?g?n?b?$OA?m?h?e?5?b?$PL?p?$OA?f@
  00760	48 8b 0d 00 00
	00 00		 mov	 rcx, QWORD PTR __imp_?cout@std@@3V?$basic_ostream@DU?$char_traits@D@std@@@1@A
  00767	e8 00 00 00 00	 call	 ??$?6U?$char_traits@D@std@@@std@@YAAEAV?$basic_ostream@DU?$char_traits@D@std@@@0@AEAV10@PEBD@Z ; std::operator<<<std::char_traits<char> >
  0076c	48 89 85 28 49
	00 00		 mov	 QWORD PTR tv392[rbp], rax
  00773	48 8d 8d b8 0c
	00 00		 lea	 rcx, QWORD PTR time_span$20[rbp]
  0077a	e8 00 00 00 00	 call	 ?count@?$duration@NU?$ratio@$00$00@std@@@chrono@std@@QEBANXZ ; std::chrono::duration<double,std::ratio<1,1> >::count
  0077f	0f 28 c8	 movaps	 xmm1, xmm0
  00782	48 8b 8d 28 49
	00 00		 mov	 rcx, QWORD PTR tv392[rbp]
  00789	ff 15 00 00 00
	00		 call	 QWORD PTR __imp_??6?$basic_ostream@DU?$char_traits@D@std@@@std@@QEAAAEAV01@N@Z
  0078f	48 89 85 30 49
	00 00		 mov	 QWORD PTR tv393[rbp], rax
  00796	48 8d 15 00 00
	00 00		 lea	 rdx, OFFSET FLAT:??_C@_05HCBGMPNH@?5?q?e?j?4@
  0079d	48 8b 8d 30 49
	00 00		 mov	 rcx, QWORD PTR tv393[rbp]
  007a4	e8 00 00 00 00	 call	 ??$?6U?$char_traits@D@std@@@std@@YAAEAV?$basic_ostream@DU?$char_traits@D@std@@@0@AEAV10@PEBD@Z ; std::operator<<<std::char_traits<char> >
  007a9	48 89 85 38 49
	00 00		 mov	 QWORD PTR tv394[rbp], rax
  007b0	48 8d 15 00 00
	00 00		 lea	 rdx, OFFSET FLAT:??$endl@DU?$char_traits@D@std@@@std@@YAAEAV?$basic_ostream@DU?$char_traits@D@std@@@0@AEAV10@@Z ; std::endl<char,std::char_traits<char> >
  007b7	48 8b 8d 38 49
	00 00		 mov	 rcx, QWORD PTR tv394[rbp]
  007be	ff 15 00 00 00
	00		 call	 QWORD PTR __imp_??6?$basic_ostream@DU?$char_traits@D@std@@@std@@QEAAAEAV01@P6AAEAV01@AEAV01@@Z@Z
  007c4	48 89 85 40 49
	00 00		 mov	 QWORD PTR tv395[rbp], rax
  007cb	48 8d 15 00 00
	00 00		 lea	 rdx, OFFSET FLAT:??$endl@DU?$char_traits@D@std@@@std@@YAAEAV?$basic_ostream@DU?$char_traits@D@std@@@0@AEAV10@@Z ; std::endl<char,std::char_traits<char> >
  007d2	48 8b 8d 40 49
	00 00		 mov	 rcx, QWORD PTR tv395[rbp]
  007d9	ff 15 00 00 00
	00		 call	 QWORD PTR __imp_??6?$basic_ostream@DU?$char_traits@D@std@@@std@@QEAAAEAV01@P6AAEAV01@AEAV01@@Z@Z

; 57   : 
; 58   : 		LT::PrintTableLex(&tableLEX, parm.out);

  007df	48 8d 95 08 05
	00 00		 lea	 rdx, QWORD PTR parm$14[rbp+600]
  007e6	48 8d 8d 18 0c
	00 00		 lea	 rcx, QWORD PTR tableLEX$16[rbp]
  007ed	e8 00 00 00 00	 call	 ?PrintTableLex@LT@@YAXPEAULexTable@1@PEA_W@Z ; LT::PrintTableLex

; 59   : 
; 60   : 		t1 = std::chrono::high_resolution_clock::now();

  007f2	48 8d 8d f8 2e
	00 00		 lea	 rcx, QWORD PTR $T47[rbp]
  007f9	e8 00 00 00 00	 call	 ?now@steady_clock@chrono@std@@SA?AV?$time_point@Usteady_clock@chrono@std@@V?$duration@_JU?$ratio@$00$0DLJKMKAA@@std@@@23@@23@XZ ; std::chrono::steady_clock::now
  007fe	48 8b 00	 mov	 rax, QWORD PTR [rax]
  00801	48 89 85 78 0c
	00 00		 mov	 QWORD PTR t1$18[rbp], rax

; 61   : 		GTA::GeneratorASM(&tableLEX, &idTableID);

  00808	48 8d 95 48 0c
	00 00		 lea	 rdx, QWORD PTR idTableID$17[rbp]
  0080f	48 8d 8d 18 0c
	00 00		 lea	 rcx, QWORD PTR tableLEX$16[rbp]
  00816	e8 00 00 00 00	 call	 ?GeneratorASM@GTA@@YAXPEAULexTable@LT@@PEAUIdTable@IT@@@Z ; GTA::GeneratorASM

; 62   : 		t2 = std::chrono::high_resolution_clock::now();

  0081b	48 8d 8d 18 2f
	00 00		 lea	 rcx, QWORD PTR $T48[rbp]
  00822	e8 00 00 00 00	 call	 ?now@steady_clock@chrono@std@@SA?AV?$time_point@Usteady_clock@chrono@std@@V?$duration@_JU?$ratio@$00$0DLJKMKAA@@std@@@23@@23@XZ ; std::chrono::steady_clock::now
  00827	48 8b 00	 mov	 rax, QWORD PTR [rax]
  0082a	48 89 85 98 0c
	00 00		 mov	 QWORD PTR t2$19[rbp], rax

; 63   : 		time_span = std::chrono::duration_cast<std::chrono::duration<double>>(t2 - t1);

  00831	4c 8d 85 78 0c
	00 00		 lea	 r8, QWORD PTR t1$18[rbp]
  00838	48 8d 95 98 0c
	00 00		 lea	 rdx, QWORD PTR t2$19[rbp]
  0083f	48 8d 8d 38 2f
	00 00		 lea	 rcx, QWORD PTR $T49[rbp]
  00846	e8 00 00 00 00	 call	 ??$?GUsteady_clock@chrono@std@@V?$duration@_JU?$ratio@$00$0DLJKMKAA@@std@@@12@V312@@chrono@std@@YA?AV?$duration@_JU?$ratio@$00$0DLJKMKAA@@std@@@01@AEBV?$time_point@Usteady_clock@chrono@std@@V?$duration@_JU?$ratio@$00$0DLJKMKAA@@std@@@23@@01@0@Z ; std::chrono::operator-<std::chrono::steady_clock,std::chrono::duration<__int64,std::ratio<1,1000000000> >,std::chrono::duration<__int64,std::ratio<1,1000000000> > >
  0084b	48 8b d0	 mov	 rdx, rax
  0084e	48 8d 8d 58 2f
	00 00		 lea	 rcx, QWORD PTR $T50[rbp]
  00855	e8 00 00 00 00	 call	 ??$duration_cast@V?$duration@NU?$ratio@$00$00@std@@@chrono@std@@_JU?$ratio@$00$0DLJKMKAA@@3@$0A@@chrono@std@@YA?AV?$duration@NU?$ratio@$00$00@std@@@01@AEBV?$duration@_JU?$ratio@$00$0DLJKMKAA@@std@@@01@@Z ; std::chrono::duration_cast<std::chrono::duration<double,std::ratio<1,1> >,__int64,std::ratio<1,1000000000>,0>
  0085a	48 8b 00	 mov	 rax, QWORD PTR [rax]
  0085d	48 89 85 b8 0c
	00 00		 mov	 QWORD PTR time_span$20[rbp], rax

; 64   : 		AllTimeTranslations += time_span.count();

  00864	48 8d 8d b8 0c
	00 00		 lea	 rcx, QWORD PTR time_span$20[rbp]
  0086b	e8 00 00 00 00	 call	 ?count@?$duration@NU?$ratio@$00$00@std@@@chrono@std@@QEBANXZ ; std::chrono::duration<double,std::ratio<1,1> >::count
  00870	f2 0f 10 8d 88
	02 00 00	 movsd	 xmm1, QWORD PTR AllTimeTranslations$13[rbp]
  00878	f2 0f 58 c8	 addsd	 xmm1, xmm0
  0087c	0f 28 c1	 movaps	 xmm0, xmm1
  0087f	f2 0f 11 85 88
	02 00 00	 movsd	 QWORD PTR AllTimeTranslations$13[rbp], xmm0

; 65   : 		std::cout << ">>>>>>>>>>  : \t\t" << time_span.count() << "." << std::endl << std::endl;

  00887	48 8d 15 00 00
	00 00		 lea	 rdx, OFFSET FLAT:??_C@_0BO@KNGBNNFA@?$DO?$DO?$DO?$DO?$DO?$DO?$DO?$DO?$DO?$DO?5?C?e?m?e?p?$OA?v?h?$PP?5?j?n?d?$OA?3?5?7?7@
  0088e	48 8b 0d 00 00
	00 00		 mov	 rcx, QWORD PTR __imp_?cout@std@@3V?$basic_ostream@DU?$char_traits@D@std@@@1@A
  00895	e8 00 00 00 00	 call	 ??$?6U?$char_traits@D@std@@@std@@YAAEAV?$basic_ostream@DU?$char_traits@D@std@@@0@AEAV10@PEBD@Z ; std::operator<<<std::char_traits<char> >
  0089a	48 89 85 28 49
	00 00		 mov	 QWORD PTR tv396[rbp], rax
  008a1	48 8d 8d b8 0c
	00 00		 lea	 rcx, QWORD PTR time_span$20[rbp]
  008a8	e8 00 00 00 00	 call	 ?count@?$duration@NU?$ratio@$00$00@std@@@chrono@std@@QEBANXZ ; std::chrono::duration<double,std::ratio<1,1> >::count
  008ad	0f 28 c8	 movaps	 xmm1, xmm0
  008b0	48 8b 8d 28 49
	00 00		 mov	 rcx, QWORD PTR tv396[rbp]
  008b7	ff 15 00 00 00
	00		 call	 QWORD PTR __imp_??6?$basic_ostream@DU?$char_traits@D@std@@@std@@QEAAAEAV01@N@Z
  008bd	48 89 85 30 49
	00 00		 mov	 QWORD PTR tv397[rbp], rax
  008c4	48 8d 15 00 00
	00 00		 lea	 rdx, OFFSET FLAT:??_C@_04CFKJMFP@?q?e?j?4@
  008cb	48 8b 8d 30 49
	00 00		 mov	 rcx, QWORD PTR tv397[rbp]
  008d2	e8 00 00 00 00	 call	 ??$?6U?$char_traits@D@std@@@std@@YAAEAV?$basic_ostream@DU?$char_traits@D@std@@@0@AEAV10@PEBD@Z ; std::operator<<<std::char_traits<char> >
  008d7	48 89 85 38 49
	00 00		 mov	 QWORD PTR tv398[rbp], rax
  008de	48 8d 15 00 00
	00 00		 lea	 rdx, OFFSET FLAT:??$endl@DU?$char_traits@D@std@@@std@@YAAEAV?$basic_ostream@DU?$char_traits@D@std@@@0@AEAV10@@Z ; std::endl<char,std::char_traits<char> >
  008e5	48 8b 8d 38 49
	00 00		 mov	 rcx, QWORD PTR tv398[rbp]
  008ec	ff 15 00 00 00
	00		 call	 QWORD PTR __imp_??6?$basic_ostream@DU?$char_traits@D@std@@@std@@QEAAAEAV01@P6AAEAV01@AEAV01@@Z@Z
  008f2	48 89 85 40 49
	00 00		 mov	 QWORD PTR tv399[rbp], rax
  008f9	48 8d 15 00 00
	00 00		 lea	 rdx, OFFSET FLAT:??$endl@DU?$char_traits@D@std@@@std@@YAAEAV?$basic_ostream@DU?$char_traits@D@std@@@0@AEAV10@@Z ; std::endl<char,std::char_traits<char> >
  00900	48 8b 8d 40 49
	00 00		 mov	 rcx, QWORD PTR tv399[rbp]
  00907	ff 15 00 00 00
	00		 call	 QWORD PTR __imp_??6?$basic_ostream@DU?$char_traits@D@std@@@std@@QEAAAEAV01@P6AAEAV01@AEAV01@@Z@Z

; 66   : 
; 67   : 		IT::PrintIdTable(PARM_ID_DEFAULT_EXT, idTableID);

  0090d	48 8d 95 48 0c
	00 00		 lea	 rdx, QWORD PTR idTableID$17[rbp]
  00914	48 8d 0d 00 00
	00 00		 lea	 rcx, OFFSET FLAT:??_C@_1BI@GDHAEKGD@?$AAf?$AAi?$AAl?$AAe?$AA?4?$AAi?$AAd?$AA?4?$AAt?$AAx?$AAt@
  0091b	e8 00 00 00 00	 call	 ?PrintIdTable@IT@@YAXPEB_WAEAUIdTable@1@@Z ; IT::PrintIdTable

; 68   : 		IT::Delete(idTableID);

  00920	48 8d 8d 48 0c
	00 00		 lea	 rcx, QWORD PTR idTableID$17[rbp]
  00927	e8 00 00 00 00	 call	 ?Delete@IT@@YAXAEAUIdTable@1@@Z ; IT::Delete

; 69   : 		LT::Delete(tableLEX);

  0092c	48 8d 8d 18 0c
	00 00		 lea	 rcx, QWORD PTR tableLEX$16[rbp]
  00933	e8 00 00 00 00	 call	 ?Delete@LT@@YAXAEAULexTable@1@@Z ; LT::Delete

; 70   : 		
; 71   : 		Log::Close(log);

  00938	48 8d 85 50 43
	00 00		 lea	 rax, QWORD PTR $T59[rbp]
  0093f	48 8d 4d 10	 lea	 rcx, QWORD PTR log$[rbp]
  00943	48 8b f8	 mov	 rdi, rax
  00946	48 8b f1	 mov	 rsi, rcx
  00949	b9 60 02 00 00	 mov	 ecx, 608		; 00000260H
  0094e	f3 a4		 rep movsb
  00950	48 8d 8d 50 43
	00 00		 lea	 rcx, QWORD PTR $T59[rbp]
  00957	e8 00 00 00 00	 call	 ?Close@Log@@YAXULOG@1@@Z ; Log::Close

; 72   : 		std::cout << ">>>>>>>>>>    : \t" << AllTimeTranslations << " ." << std::endl << std::endl;

  0095c	48 8d 15 00 00
	00 00		 lea	 rdx, OFFSET FLAT:??_C@_0CH@DHDBONCL@?$DO?$DO?$DO?$DO?$DO?$DO?$DO?$DO?$DO?$DO?5?R?p?$OA?m?q?k?$PP?v?h?$PP?5?b?$PL?o?n?k?m?e?m?$OA@
  00963	48 8b 0d 00 00
	00 00		 mov	 rcx, QWORD PTR __imp_?cout@std@@3V?$basic_ostream@DU?$char_traits@D@std@@@1@A
  0096a	e8 00 00 00 00	 call	 ??$?6U?$char_traits@D@std@@@std@@YAAEAV?$basic_ostream@DU?$char_traits@D@std@@@0@AEAV10@PEBD@Z ; std::operator<<<std::char_traits<char> >
  0096f	48 89 85 28 49
	00 00		 mov	 QWORD PTR tv400[rbp], rax
  00976	f2 0f 10 8d 88
	02 00 00	 movsd	 xmm1, QWORD PTR AllTimeTranslations$13[rbp]
  0097e	48 8b 8d 28 49
	00 00		 mov	 rcx, QWORD PTR tv400[rbp]
  00985	ff 15 00 00 00
	00		 call	 QWORD PTR __imp_??6?$basic_ostream@DU?$char_traits@D@std@@@std@@QEAAAEAV01@N@Z
  0098b	48 89 85 30 49
	00 00		 mov	 QWORD PTR tv401[rbp], rax
  00992	48 8d 15 00 00
	00 00		 lea	 rdx, OFFSET FLAT:??_C@_05HCBGMPNH@?5?q?e?j?4@
  00999	48 8b 8d 30 49
	00 00		 mov	 rcx, QWORD PTR tv401[rbp]
  009a0	e8 00 00 00 00	 call	 ??$?6U?$char_traits@D@std@@@std@@YAAEAV?$basic_ostream@DU?$char_traits@D@std@@@0@AEAV10@PEBD@Z ; std::operator<<<std::char_traits<char> >
  009a5	48 89 85 38 49
	00 00		 mov	 QWORD PTR tv402[rbp], rax
  009ac	48 8d 15 00 00
	00 00		 lea	 rdx, OFFSET FLAT:??$endl@DU?$char_traits@D@std@@@std@@YAAEAV?$basic_ostream@DU?$char_traits@D@std@@@0@AEAV10@@Z ; std::endl<char,std::char_traits<char> >
  009b3	48 8b 8d 38 49
	00 00		 mov	 rcx, QWORD PTR tv402[rbp]
  009ba	ff 15 00 00 00
	00		 call	 QWORD PTR __imp_??6?$basic_ostream@DU?$char_traits@D@std@@@std@@QEAAAEAV01@P6AAEAV01@AEAV01@@Z@Z
  009c0	48 89 85 40 49
	00 00		 mov	 QWORD PTR tv403[rbp], rax
  009c7	48 8d 15 00 00
	00 00		 lea	 rdx, OFFSET FLAT:??$endl@DU?$char_traits@D@std@@@std@@YAAEAV?$basic_ostream@DU?$char_traits@D@std@@@0@AEAV10@@Z ; std::endl<char,std::char_traits<char> >
  009ce	48 8b 8d 40 49
	00 00		 mov	 rcx, QWORD PTR tv403[rbp]
  009d5	ff 15 00 00 00
	00		 call	 QWORD PTR __imp_??6?$basic_ostream@DU?$char_traits@D@std@@@std@@QEAAAEAV01@P6AAEAV01@AEAV01@@Z@Z
  009db	90		 npad	 1

; 73   : 	}

  009dc	48 8d 8d e0 0c
	00 00		 lea	 rcx, QWORD PTR mfst$21[rbp]
  009e3	e8 00 00 00 00	 call	 ??1MFST@0@QEAA@XZ
  009e8	90		 npad	 1
  009e9	eb 00		 jmp	 SHORT $LN7@wmain
$LN8@wmain:
$LN7@wmain:

; 74   : 	catch (Error::ERROR e)
; 75   : 	{
; 76   : 		std::cout << "########## ,  - ##########" << std::endl;
; 77   : 		Log::WriteError(log, e);
; 78   : 	};
; 79   : 	return 0;

  009eb	33 c0		 xor	 eax, eax

; 80   : }

  009ed	8b f8		 mov	 edi, eax
  009ef	48 8d 4d d0	 lea	 rcx, QWORD PTR [rbp-48]
  009f3	48 8d 15 00 00
	00 00		 lea	 rdx, OFFSET FLAT:wmain$rtcFrameData
  009fa	e8 00 00 00 00	 call	 _RTC_CheckStackVars
  009ff	8b c7		 mov	 eax, edi
  00a01	48 8b 8d 48 49
	00 00		 mov	 rcx, QWORD PTR __$ArrayPad$[rbp]
  00a08	48 33 cd	 xor	 rcx, rbp
  00a0b	e8 00 00 00 00	 call	 __security_check_cookie
  00a10	48 8d a5 50 49
	00 00		 lea	 rsp, QWORD PTR [rbp+18768]
  00a17	5f		 pop	 rdi
  00a18	5e		 pop	 rsi
  00a19	5d		 pop	 rbp
  00a1a	c3		 ret	 0
wmain	ENDP
_TEXT	ENDS
;	COMDAT text$x
text$x	SEGMENT
log$ = 16
AllTimeTranslations$13 = 648
parm$14 = 688
in$15 = 2528
tableLEX$16 = 3096
idTableID$17 = 3144
t1$18 = 3192
t2$19 = 3224
time_span$20 = 3256
mfst$21 = 3296
e$22 = 3520
$T23 = 5296
$T24 = 7128
$T25 = 8960
$T26 = 9592
$T27 = 10240
$T28 = 10808
$T29 = 11368
$T30 = 11416
$T31 = 11464
$T32 = 11512
$T33 = 11560
$T34 = 11592
$T35 = 11640
$T36 = 11672
$T37 = 11704
$T38 = 11736
$T39 = 11768
$T40 = 11800
$T41 = 11832
$T42 = 11864
$T43 = 11896
$T44 = 11928
$T45 = 11960
$T46 = 11992
$T47 = 12024
$T48 = 12056
$T49 = 12088
$T50 = 12120
$T51 = 12160
$T52 = 12800
$T53 = 13440
$T54 = 15280
$T55 = 15920
$T56 = 16496
$T57 = 17136
$T58 = 17184
$T59 = 17232
$T60 = 17872
$T61 = 18512
tv400 = 18728
tv396 = 18728
tv392 = 18728
tv388 = 18728
tv384 = 18728
tv382 = 18728
tv378 = 18728
tv377 = 18728
tv376 = 18728
tv375 = 18728
tv374 = 18728
tv373 = 18728
tv401 = 18736
tv397 = 18736
tv393 = 18736
tv389 = 18736
tv385 = 18736
tv383 = 18736
tv379 = 18736
tv402 = 18744
tv398 = 18744
tv394 = 18744
tv390 = 18744
tv386 = 18744
tv380 = 18744
tv403 = 18752
tv399 = 18752
tv395 = 18752
tv391 = 18752
tv387 = 18752
tv381 = 18752
__$ArrayPad$ = 18760
argc$ = 18800
argv$ = 18808
wmain$dtor$0 PROC
  00000	48 89 4c 24 08	 mov	 QWORD PTR [rsp+8], rcx
  00005	48 89 54 24 10	 mov	 QWORD PTR [rsp+16], rdx
  0000a	55		 push	 rbp
  0000b	57		 push	 rdi
  0000c	48 83 ec 28	 sub	 rsp, 40			; 00000028H
  00010	48 8d 6a 30	 lea	 rbp, QWORD PTR [rdx+48]
  00014	48 8d 8d e0 0c
	00 00		 lea	 rcx, QWORD PTR mfst$21[rbp]
  0001b	e8 00 00 00 00	 call	 ??1MFST@0@QEAA@XZ
  00020	48 83 c4 28	 add	 rsp, 40			; 00000028H
  00024	5f		 pop	 rdi
  00025	5d		 pop	 rbp
  00026	c3		 ret	 0
wmain$dtor$0 ENDP
text$x	ENDS
;	COMDAT text$x
text$x	SEGMENT
log$ = 16
AllTimeTranslations$13 = 648
parm$14 = 688
in$15 = 2528
tableLEX$16 = 3096
idTableID$17 = 3144
t1$18 = 3192
t2$19 = 3224
time_span$20 = 3256
mfst$21 = 3296
e$22 = 3520
$T23 = 5296
$T24 = 7128
$T25 = 8960
$T26 = 9592
$T27 = 10240
$T28 = 10808
$T29 = 11368
$T30 = 11416
$T31 = 11464
$T32 = 11512
$T33 = 11560
$T34 = 11592
$T35 = 11640
$T36 = 11672
$T37 = 11704
$T38 = 11736
$T39 = 11768
$T40 = 11800
$T41 = 11832
$T42 = 11864
$T43 = 11896
$T44 = 11928
$T45 = 11960
$T46 = 11992
$T47 = 12024
$T48 = 12056
$T49 = 12088
$T50 = 12120
$T51 = 12160
$T52 = 12800
$T53 = 13440
$T54 = 15280
$T55 = 15920
$T56 = 16496
$T57 = 17136
$T58 = 17184
$T59 = 17232
$T60 = 17872
$T61 = 18512
tv400 = 18728
tv396 = 18728
tv392 = 18728
tv388 = 18728
tv384 = 18728
tv382 = 18728
tv378 = 18728
tv377 = 18728
tv376 = 18728
tv375 = 18728
tv374 = 18728
tv373 = 18728
tv401 = 18736
tv397 = 18736
tv393 = 18736
tv389 = 18736
tv385 = 18736
tv383 = 18736
tv379 = 18736
tv402 = 18744
tv398 = 18744
tv394 = 18744
tv390 = 18744
tv386 = 18744
tv380 = 18744
tv403 = 18752
tv399 = 18752
tv395 = 18752
tv391 = 18752
tv387 = 18752
tv381 = 18752
__$ArrayPad$ = 18760
argc$ = 18800
argv$ = 18808
wmain$catch$1 PROC

; 74   : 	catch (Error::ERROR e)
; 75   : 	{

  00000	48 89 4c 24 08	 mov	 QWORD PTR [rsp+8], rcx
  00005	48 89 54 24 10	 mov	 QWORD PTR [rsp+16], rdx
  0000a	55		 push	 rbp
  0000b	56		 push	 rsi
  0000c	57		 push	 rdi
  0000d	48 83 ec 30	 sub	 rsp, 48			; 00000030H
  00011	48 8d 6a 30	 lea	 rbp, QWORD PTR [rdx+48]
__catch$wmain$0:

; 74   : 	catch (Error::ERROR e)
; 75   : 	{
; 76   : 		std::cout << "########## ,  - ##########" << std::endl;

  00015	48 8d 15 00 00
	00 00		 lea	 rdx, OFFSET FLAT:??_C@_0DB@EFHCIJJE@?$CD?$CD?$CD?$CD?$CD?$CD?$CD?$CD?$CD?$CD?5?N?x?h?a?j?$OA?0?5?o?p?n?b?e?p?$PM?r?e?5?k?n@
  0001c	48 8b 0d 00 00
	00 00		 mov	 rcx, QWORD PTR __imp_?cout@std@@3V?$basic_ostream@DU?$char_traits@D@std@@@1@A
  00023	e8 00 00 00 00	 call	 ??$?6U?$char_traits@D@std@@@std@@YAAEAV?$basic_ostream@DU?$char_traits@D@std@@@0@AEAV10@PEBD@Z ; std::operator<<<std::char_traits<char> >
  00028	48 8d 15 00 00
	00 00		 lea	 rdx, OFFSET FLAT:??$endl@DU?$char_traits@D@std@@@std@@YAAEAV?$basic_ostream@DU?$char_traits@D@std@@@0@AEAV10@@Z ; std::endl<char,std::char_traits<char> >
  0002f	48 8b c8	 mov	 rcx, rax
  00032	ff 15 00 00 00
	00		 call	 QWORD PTR __imp_??6?$basic_ostream@DU?$char_traits@D@std@@@std@@QEAAAEAV01@P6AAEAV01@AEAV01@@Z@Z

; 74   : 	catch (Error::ERROR e)
; 75   : 	{
; 76   : 		std::cout << "########## ,  - ##########" << std::endl;
; 77   : 		Log::WriteError(log, e);

  00038	48 8d 85 50 48
	00 00		 lea	 rax, QWORD PTR $T61[rbp]
  0003f	48 8d 8d c0 0d
	00 00		 lea	 rcx, QWORD PTR e$22[rbp]
  00046	48 8b f8	 mov	 rdi, rax
  00049	48 8b f1	 mov	 rsi, rcx
  0004c	b9 d0 00 00 00	 mov	 ecx, 208		; 000000d0H
  00051	f3 a4		 rep movsb
  00053	48 8d 85 d0 45
	00 00		 lea	 rax, QWORD PTR $T60[rbp]
  0005a	48 8d 4d 10	 lea	 rcx, QWORD PTR log$[rbp]
  0005e	48 8b f8	 mov	 rdi, rax
  00061	48 8b f1	 mov	 rsi, rcx
  00064	b9 60 02 00 00	 mov	 ecx, 608		; 00000260H
  00069	f3 a4		 rep movsb
  0006b	48 8d 95 50 48
	00 00		 lea	 rdx, QWORD PTR $T61[rbp]
  00072	48 8d 8d d0 45
	00 00		 lea	 rcx, QWORD PTR $T60[rbp]
  00079	e8 00 00 00 00	 call	 ?WriteError@Log@@YAXULOG@1@UERROR@Error@@@Z ; Log::WriteError
  0007e	90		 npad	 1

; 74   : 	catch (Error::ERROR e)
; 75   : 	{
; 76   : 		std::cout << "########## ,  - ##########" << std::endl;
; 77   : 		Log::WriteError(log, e);
; 78   : 	};

  0007f	48 8d 05 00 00
	00 00		 lea	 rax, $LN8@wmain$catc
  00086	48 83 c4 30	 add	 rsp, 48			; 00000030H
  0008a	5f		 pop	 rdi
  0008b	5e		 pop	 rsi
  0008c	5d		 pop	 rbp
  0008d	c3		 ret	 0
  0008e	cc		 int	 3
wmain$catch$1 ENDP
text$x	ENDS
; Function compile flags: /Odtp /RTCsu /ZI
;	COMDAT text$x
text$x	SEGMENT
log$ = 16
AllTimeTranslations$13 = 648
parm$14 = 688
in$15 = 2528
tableLEX$16 = 3096
idTableID$17 = 3144
t1$18 = 3192
t2$19 = 3224
time_span$20 = 3256
mfst$21 = 3296
e$22 = 3520
$T23 = 5296
$T24 = 7128
$T25 = 8960
$T26 = 9592
$T27 = 10240
$T28 = 10808
$T29 = 11368
$T30 = 11416
$T31 = 11464
$T32 = 11512
$T33 = 11560
$T34 = 11592
$T35 = 11640
$T36 = 11672
$T37 = 11704
$T38 = 11736
$T39 = 11768
$T40 = 11800
$T41 = 11832
$T42 = 11864
$T43 = 11896
$T44 = 11928
$T45 = 11960
$T46 = 11992
$T47 = 12024
$T48 = 12056
$T49 = 12088
$T50 = 12120
$T51 = 12160
$T52 = 12800
$T53 = 13440
$T54 = 15280
$T55 = 15920
$T56 = 16496
$T57 = 17136
$T58 = 17184
$T59 = 17232
$T60 = 17872
$T61 = 18512
tv400 = 18728
tv396 = 18728
tv392 = 18728
tv388 = 18728
tv384 = 18728
tv382 = 18728
tv378 = 18728
tv377 = 18728
tv376 = 18728
tv375 = 18728
tv374 = 18728
tv373 = 18728
tv401 = 18736
tv397 = 18736
tv393 = 18736
tv389 = 18736
tv385 = 18736
tv383 = 18736
tv379 = 18736
tv402 = 18744
tv398 = 18744
tv394 = 18744
tv390 = 18744
tv386 = 18744
tv380 = 18744
tv403 = 18752
tv399 = 18752
tv395 = 18752
tv391 = 18752
tv387 = 18752
tv381 = 18752
__$ArrayPad$ = 18760
argc$ = 18800
argv$ = 18808
wmain$dtor$0 PROC
  00000	48 89 4c 24 08	 mov	 QWORD PTR [rsp+8], rcx
  00005	48 89 54 24 10	 mov	 QWORD PTR [rsp+16], rdx
  0000a	55		 push	 rbp
  0000b	57		 push	 rdi
  0000c	48 83 ec 28	 sub	 rsp, 40			; 00000028H
  00010	48 8d 6a 30	 lea	 rbp, QWORD PTR [rdx+48]
  00014	48 8d 8d e0 0c
	00 00		 lea	 rcx, QWORD PTR mfst$21[rbp]
  0001b	e8 00 00 00 00	 call	 ??1MFST@0@QEAA@XZ
  00020	48 83 c4 28	 add	 rsp, 40			; 00000028H
  00024	5f		 pop	 rdi
  00025	5d		 pop	 rbp
  00026	c3		 ret	 0
wmain$dtor$0 ENDP
text$x	ENDS
; Function compile flags: /Odtp /RTCsu /ZI
;	COMDAT text$x
text$x	SEGMENT
log$ = 16
AllTimeTranslations$13 = 648
parm$14 = 688
in$15 = 2528
tableLEX$16 = 3096
idTableID$17 = 3144
t1$18 = 3192
t2$19 = 3224
time_span$20 = 3256
mfst$21 = 3296
e$22 = 3520
$T23 = 5296
$T24 = 7128
$T25 = 8960
$T26 = 9592
$T27 = 10240
$T28 = 10808
$T29 = 11368
$T30 = 11416
$T31 = 11464
$T32 = 11512
$T33 = 11560
$T34 = 11592
$T35 = 11640
$T36 = 11672
$T37 = 11704
$T38 = 11736
$T39 = 11768
$T40 = 11800
$T41 = 11832
$T42 = 11864
$T43 = 11896
$T44 = 11928
$T45 = 11960
$T46 = 11992
$T47 = 12024
$T48 = 12056
$T49 = 12088
$T50 = 12120
$T51 = 12160
$T52 = 12800
$T53 = 13440
$T54 = 15280
$T55 = 15920
$T56 = 16496
$T57 = 17136
$T58 = 17184
$T59 = 17232
$T60 = 17872
$T61 = 18512
tv400 = 18728
tv396 = 18728
tv392 = 18728
tv388 = 18728
tv384 = 18728
tv382 = 18728
tv378 = 18728
tv377 = 18728
tv376 = 18728
tv375 = 18728
tv374 = 18728
tv373 = 18728
tv401 = 18736
tv397 = 18736
tv393 = 18736
tv389 = 18736
tv385 = 18736
tv383 = 18736
tv379 = 18736
tv402 = 18744
tv398 = 18744
tv394 = 18744
tv390 = 18744
tv386 = 18744
tv380 = 18744
tv403 = 18752
tv399 = 18752
tv395 = 18752
tv391 = 18752
tv387 = 18752
tv381 = 18752
__$ArrayPad$ = 18760
argc$ = 18800
argv$ = 18808
wmain$catch$1 PROC

; 75   : 	{

  00000	48 89 4c 24 08	 mov	 QWORD PTR [rsp+8], rcx
  00005	48 89 54 24 10	 mov	 QWORD PTR [rsp+16], rdx
  0000a	55		 push	 rbp
  0000b	56		 push	 rsi
  0000c	57		 push	 rdi
  0000d	48 83 ec 30	 sub	 rsp, 48			; 00000030H
  00011	48 8d 6a 30	 lea	 rbp, QWORD PTR [rdx+48]
__catch$wmain$0:

; 76   : 		std::cout << "########## ,  - ##########" << std::endl;

  00015	48 8d 15 00 00
	00 00		 lea	 rdx, OFFSET FLAT:??_C@_0DB@EFHCIJJE@?$CD?$CD?$CD?$CD?$CD?$CD?$CD?$CD?$CD?$CD?5?N?x?h?a?j?$OA?0?5?o?p?n?b?e?p?$PM?r?e?5?k?n@
  0001c	48 8b 0d 00 00
	00 00		 mov	 rcx, QWORD PTR __imp_?cout@std@@3V?$basic_ostream@DU?$char_traits@D@std@@@1@A
  00023	e8 00 00 00 00	 call	 ??$?6U?$char_traits@D@std@@@std@@YAAEAV?$basic_ostream@DU?$char_traits@D@std@@@0@AEAV10@PEBD@Z ; std::operator<<<std::char_traits<char> >
  00028	48 8d 15 00 00
	00 00		 lea	 rdx, OFFSET FLAT:??$endl@DU?$char_traits@D@std@@@std@@YAAEAV?$basic_ostream@DU?$char_traits@D@std@@@0@AEAV10@@Z ; std::endl<char,std::char_traits<char> >
  0002f	48 8b c8	 mov	 rcx, rax
  00032	ff 15 00 00 00
	00		 call	 QWORD PTR __imp_??6?$basic_ostream@DU?$char_traits@D@std@@@std@@QEAAAEAV01@P6AAEAV01@AEAV01@@Z@Z

; 77   : 		Log::WriteError(log, e);

  00038	48 8d 85 50 48
	00 00		 lea	 rax, QWORD PTR $T61[rbp]
  0003f	48 8d 8d c0 0d
	00 00		 lea	 rcx, QWORD PTR e$22[rbp]
  00046	48 8b f8	 mov	 rdi, rax
  00049	48 8b f1	 mov	 rsi, rcx
  0004c	b9 d0 00 00 00	 mov	 ecx, 208		; 000000d0H
  00051	f3 a4		 rep movsb
  00053	48 8d 85 d0 45
	00 00		 lea	 rax, QWORD PTR $T60[rbp]
  0005a	48 8d 4d 10	 lea	 rcx, QWORD PTR log$[rbp]
  0005e	48 8b f8	 mov	 rdi, rax
  00061	48 8b f1	 mov	 rsi, rcx
  00064	b9 60 02 00 00	 mov	 ecx, 608		; 00000260H
  00069	f3 a4		 rep movsb
  0006b	48 8d 95 50 48
	00 00		 lea	 rdx, QWORD PTR $T61[rbp]
  00072	48 8d 8d d0 45
	00 00		 lea	 rcx, QWORD PTR $T60[rbp]
  00079	e8 00 00 00 00	 call	 ?WriteError@Log@@YAXULOG@1@UERROR@Error@@@Z ; Log::WriteError
  0007e	90		 npad	 1

; 78   : 	};

  0007f	48 8d 05 00 00
	00 00		 lea	 rax, $LN8@wmain$catc
  00086	48 83 c4 30	 add	 rsp, 48			; 00000030H
  0008a	5f		 pop	 rdi
  0008b	5e		 pop	 rsi
  0008c	5d		 pop	 rbp
  0008d	c3		 ret	 0
  0008e	cc		 int	 3
wmain$catch$1 ENDP
text$x	ENDS
; Function compile flags: /Odtp /RTCsu /ZI
; File C:\Program Files (x86)\Microsoft Visual Studio\2019\Enterprise\VC\Tools\MSVC\14.27.29110\include\chrono
;	COMDAT ??$?0N$0A@@?$duration@NU?$ratio@$00$00@std@@@chrono@std@@QEAA@AEBN@Z
_TEXT	SEGMENT
this$ = 224
_Val$ = 232
??$?0N$0A@@?$duration@NU?$ratio@$00$00@std@@@chrono@std@@QEAA@AEBN@Z PROC ; std::chrono::duration<double,std::ratio<1,1> >::duration<double,std::ratio<1,1> ><double,0>, COMDAT

; 82   :             : _MyRep(static_cast<_Rep>(_Val)) {}

$LN3:
  00000	48 89 54 24 10	 mov	 QWORD PTR [rsp+16], rdx
  00005	48 89 4c 24 08	 mov	 QWORD PTR [rsp+8], rcx
  0000a	55		 push	 rbp
  0000b	57		 push	 rdi
  0000c	48 81 ec e8 00
	00 00		 sub	 rsp, 232		; 000000e8H
  00013	48 8d 6c 24 20	 lea	 rbp, QWORD PTR [rsp+32]
  00018	48 8b fc	 mov	 rdi, rsp
  0001b	b9 3a 00 00 00	 mov	 ecx, 58			; 0000003aH
  00020	b8 cc cc cc cc	 mov	 eax, -858993460		; ccccccccH
  00025	f3 ab		 rep stosd
  00027	48 8b 8c 24 08
	01 00 00	 mov	 rcx, QWORD PTR [rsp+264]
  0002f	48 8d 0d 00 00
	00 00		 lea	 rcx, OFFSET FLAT:__3ACC9D4A_chrono
  00036	e8 00 00 00 00	 call	 __CheckForDebuggerJustMyCode
  0003b	48 8b 85 e0 00
	00 00		 mov	 rax, QWORD PTR this$[rbp]
  00042	48 8b 8d e8 00
	00 00		 mov	 rcx, QWORD PTR _Val$[rbp]
  00049	f2 0f 10 01	 movsd	 xmm0, QWORD PTR [rcx]
  0004d	f2 0f 11 00	 movsd	 QWORD PTR [rax], xmm0
  00051	48 8b 85 e0 00
	00 00		 mov	 rax, QWORD PTR this$[rbp]
  00058	48 8d a5 c8 00
	00 00		 lea	 rsp, QWORD PTR [rbp+200]
  0005f	5f		 pop	 rdi
  00060	5d		 pop	 rbp
  00061	c3		 ret	 0
??$?0N$0A@@?$duration@NU?$ratio@$00$00@std@@@chrono@std@@QEAA@AEBN@Z ENDP ; std::chrono::duration<double,std::ratio<1,1> >::duration<double,std::ratio<1,1> ><double,0>
_TEXT	ENDS
; Function compile flags: /Odtp /RTCsu /ZI
; File C:\Program Files (x86)\Microsoft Visual Studio\2019\Enterprise\VC\Tools\MSVC\14.27.29110\include\chrono
;	COMDAT ??$duration_cast@V?$duration@NU?$ratio@$00$00@std@@@chrono@std@@_JU?$ratio@$00$0DLJKMKAA@@3@$0A@@chrono@std@@YA?AV?$duration@NU?$ratio@$00$00@std@@@01@AEBV?$duration@_JU?$ratio@$00$0DLJKMKAA@@std@@@01@@Z
_TEXT	SEGMENT
_Num_is_one$ = 4
_Den_is_one$ = 36
$T1 = 264
$T2 = 296
$T3 = 328
$T4 = 360
__$ReturnUdt$ = 416
_Dur$ = 424
??$duration_cast@V?$duration@NU?$ratio@$00$00@std@@@chrono@std@@_JU?$ratio@$00$0DLJKMKAA@@3@$0A@@chrono@std@@YA?AV?$duration@NU?$ratio@$00$00@std@@@01@AEBV?$duration@_JU?$ratio@$00$0DLJKMKAA@@std@@@01@@Z PROC ; std::chrono::duration_cast<std::chrono::duration<double,std::ratio<1,1> >,__int64,std::ratio<1,1000000000>,0>, COMDAT

; 373  :         is_arithmetic_v<_Rep>&& is_arithmetic_v<typename _To::rep>) /* strengthened */ {

$LN9:
  00000	48 89 54 24 10	 mov	 QWORD PTR [rsp+16], rdx
  00005	48 89 4c 24 08	 mov	 QWORD PTR [rsp+8], rcx
  0000a	55		 push	 rbp
  0000b	57		 push	 rdi
  0000c	48 81 ec a8 01
	00 00		 sub	 rsp, 424		; 000001a8H
  00013	48 8d 6c 24 20	 lea	 rbp, QWORD PTR [rsp+32]
  00018	48 8b fc	 mov	 rdi, rsp
  0001b	b9 6a 00 00 00	 mov	 ecx, 106		; 0000006aH
  00020	b8 cc cc cc cc	 mov	 eax, -858993460		; ccccccccH
  00025	f3 ab		 rep stosd
  00027	48 8b 8c 24 c8
	01 00 00	 mov	 rcx, QWORD PTR [rsp+456]
  0002f	48 8d 0d 00 00
	00 00		 lea	 rcx, OFFSET FLAT:__3ACC9D4A_chrono
  00036	e8 00 00 00 00	 call	 __CheckForDebuggerJustMyCode

; 374  :         // convert duration to another duration; truncate
; 375  :         using _CF = ratio_divide<_Period, typename _To::period>;
; 376  : 
; 377  :         using _ToRep = typename _To::rep;
; 378  :         using _CR    = common_type_t<_ToRep, _Rep, intmax_t>;
; 379  : 
; 380  :         constexpr bool _Num_is_one = _CF::num == 1;

  0003b	c6 45 04 01	 mov	 BYTE PTR _Num_is_one$[rbp], 1

; 381  :         constexpr bool _Den_is_one = _CF::den == 1;

  0003f	c6 45 24 00	 mov	 BYTE PTR _Den_is_one$[rbp], 0

; 382  : 
; 383  :         if (_Den_is_one) {

  00043	33 c0		 xor	 eax, eax
  00045	85 c0		 test	 eax, eax
  00047	0f 84 86 00 00
	00		 je	 $LN2@duration_c

; 384  :             if (_Num_is_one) {

  0004d	33 c0		 xor	 eax, eax
  0004f	83 f8 01	 cmp	 eax, 1
  00052	74 3a		 je	 SHORT $LN4@duration_c

; 385  :                 return static_cast<_To>(static_cast<_ToRep>(_Dur.count()));

  00054	48 8b 8d a8 01
	00 00		 mov	 rcx, QWORD PTR _Dur$[rbp]
  0005b	e8 00 00 00 00	 call	 ?count@?$duration@_JU?$ratio@$00$0DLJKMKAA@@std@@@chrono@std@@QEBA_JXZ ; std::chrono::duration<__int64,std::ratio<1,1000000000> >::count
  00060	f2 48 0f 2a c0	 cvtsi2sd xmm0, rax
  00065	f2 0f 11 85 08
	01 00 00	 movsd	 QWORD PTR $T1[rbp], xmm0
  0006d	48 8d 95 08 01
	00 00		 lea	 rdx, QWORD PTR $T1[rbp]
  00074	48 8b 8d a0 01
	00 00		 mov	 rcx, QWORD PTR __$ReturnUdt$[rbp]
  0007b	e8 00 00 00 00	 call	 ??$?0N$0A@@?$duration@NU?$ratio@$00$00@std@@@chrono@std@@QEAA@AEBN@Z ; std::chrono::duration<double,std::ratio<1,1> >::duration<double,std::ratio<1,1> ><double,0>
  00080	48 8b 85 a0 01
	00 00		 mov	 rax, QWORD PTR __$ReturnUdt$[rbp]
  00087	e9 d0 00 00 00	 jmp	 $LN1@duration_c

; 386  :             } else {

  0008c	eb 40		 jmp	 SHORT $LN5@duration_c
$LN4@duration_c:

; 387  :                 return static_cast<_To>(

  0008e	48 8b 8d a8 01
	00 00		 mov	 rcx, QWORD PTR _Dur$[rbp]
  00095	e8 00 00 00 00	 call	 ?count@?$duration@_JU?$ratio@$00$0DLJKMKAA@@std@@@chrono@std@@QEBA_JXZ ; std::chrono::duration<__int64,std::ratio<1,1000000000> >::count
  0009a	f2 48 0f 2a c0	 cvtsi2sd xmm0, rax
  0009f	f2 0f 59 05 00
	00 00 00	 mulsd	 xmm0, QWORD PTR __real@3ff0000000000000
  000a7	f2 0f 11 85 28
	01 00 00	 movsd	 QWORD PTR $T2[rbp], xmm0
  000af	48 8d 95 28 01
	00 00		 lea	 rdx, QWORD PTR $T2[rbp]
  000b6	48 8b 8d a0 01
	00 00		 mov	 rcx, QWORD PTR __$ReturnUdt$[rbp]
  000bd	e8 00 00 00 00	 call	 ??$?0N$0A@@?$duration@NU?$ratio@$00$00@std@@@chrono@std@@QEAA@AEBN@Z ; std::chrono::duration<double,std::ratio<1,1> >::duration<double,std::ratio<1,1> ><double,0>
  000c2	48 8b 85 a0 01
	00 00		 mov	 rax, QWORD PTR __$ReturnUdt$[rbp]
  000c9	e9 8e 00 00 00	 jmp	 $LN1@duration_c
$LN5@duration_c:

; 388  :                     static_cast<_ToRep>(static_cast<_CR>(_Dur.count()) * static_cast<_CR>(_CF::num)));
; 389  :             }
; 390  :         } else {

  000ce	e9 89 00 00 00	 jmp	 $LN1@duration_c
$LN2@duration_c:

; 391  :             if (_Num_is_one) {

  000d3	33 c0		 xor	 eax, eax
  000d5	83 f8 01	 cmp	 eax, 1
  000d8	74 3f		 je	 SHORT $LN6@duration_c

; 392  :                 return static_cast<_To>(

  000da	48 8b 8d a8 01
	00 00		 mov	 rcx, QWORD PTR _Dur$[rbp]
  000e1	e8 00 00 00 00	 call	 ?count@?$duration@_JU?$ratio@$00$0DLJKMKAA@@std@@@chrono@std@@QEBA_JXZ ; std::chrono::duration<__int64,std::ratio<1,1000000000> >::count
  000e6	f2 48 0f 2a c0	 cvtsi2sd xmm0, rax
  000eb	f2 0f 5e 05 00
	00 00 00	 divsd	 xmm0, QWORD PTR __real@41cdcd6500000000
  000f3	f2 0f 11 85 48
	01 00 00	 movsd	 QWORD PTR $T3[rbp], xmm0
  000fb	48 8d 95 48 01
	00 00		 lea	 rdx, QWORD PTR $T3[rbp]
  00102	48 8b 8d a0 01
	00 00		 mov	 rcx, QWORD PTR __$ReturnUdt$[rbp]
  00109	e8 00 00 00 00	 call	 ??$?0N$0A@@?$duration@NU?$ratio@$00$00@std@@@chrono@std@@QEAA@AEBN@Z ; std::chrono::duration<double,std::ratio<1,1> >::duration<double,std::ratio<1,1> ><double,0>
  0010e	48 8b 85 a0 01
	00 00		 mov	 rax, QWORD PTR __$ReturnUdt$[rbp]
  00115	eb 45		 jmp	 SHORT $LN1@duration_c

; 393  :                     static_cast<_ToRep>(static_cast<_CR>(_Dur.count()) / static_cast<_CR>(_CF::den)));
; 394  :             } else {

  00117	eb 43		 jmp	 SHORT $LN1@duration_c
$LN6@duration_c:

; 395  :                 return static_cast<_To>(static_cast<_ToRep>(

  00119	48 8b 8d a8 01
	00 00		 mov	 rcx, QWORD PTR _Dur$[rbp]
  00120	e8 00 00 00 00	 call	 ?count@?$duration@_JU?$ratio@$00$0DLJKMKAA@@std@@@chrono@std@@QEBA_JXZ ; std::chrono::duration<__int64,std::ratio<1,1000000000> >::count
  00125	f2 48 0f 2a c0	 cvtsi2sd xmm0, rax
  0012a	f2 0f 59 05 00
	00 00 00	 mulsd	 xmm0, QWORD PTR __real@3ff0000000000000
  00132	f2 0f 5e 05 00
	00 00 00	 divsd	 xmm0, QWORD PTR __real@41cdcd6500000000
  0013a	f2 0f 11 85 68
	01 00 00	 movsd	 QWORD PTR $T4[rbp], xmm0
  00142	48 8d 95 68 01
	00 00		 lea	 rdx, QWORD PTR $T4[rbp]
  00149	48 8b 8d a0 01
	00 00		 mov	 rcx, QWORD PTR __$ReturnUdt$[rbp]
  00150	e8 00 00 00 00	 call	 ??$?0N$0A@@?$duration@NU?$ratio@$00$00@std@@@chrono@std@@QEAA@AEBN@Z ; std::chrono::duration<double,std::ratio<1,1> >::duration<double,std::ratio<1,1> ><double,0>
  00155	48 8b 85 a0 01
	00 00		 mov	 rax, QWORD PTR __$ReturnUdt$[rbp]
$LN1@duration_c:

; 396  :                     static_cast<_CR>(_Dur.count()) * static_cast<_CR>(_CF::num) / static_cast<_CR>(_CF::den)));
; 397  :             }
; 398  :         }
; 399  :     }

  0015c	48 8d a5 88 01
	00 00		 lea	 rsp, QWORD PTR [rbp+392]
  00163	5f		 pop	 rdi
  00164	5d		 pop	 rbp
  00165	c3		 ret	 0
??$duration_cast@V?$duration@NU?$ratio@$00$00@std@@@chrono@std@@_JU?$ratio@$00$0DLJKMKAA@@3@$0A@@chrono@std@@YA?AV?$duration@NU?$ratio@$00$00@std@@@01@AEBV?$duration@_JU?$ratio@$00$0DLJKMKAA@@std@@@01@@Z ENDP ; std::chrono::duration_cast<std::chrono::duration<double,std::ratio<1,1> >,__int64,std::ratio<1,1000000000>,0>
_TEXT	ENDS
; Function compile flags: /Odtp /RTCsu /ZI
; File C:\Program Files (x86)\Microsoft Visual Studio\2019\Enterprise\VC\Tools\MSVC\14.27.29110\include\chrono
;	COMDAT ?count@?$duration@NU?$ratio@$00$00@std@@@chrono@std@@QEBANXZ
_TEXT	SEGMENT
this$ = 224
?count@?$duration@NU?$ratio@$00$00@std@@@chrono@std@@QEBANXZ PROC ; std::chrono::duration<double,std::ratio<1,1> >::count, COMDAT

; 93   :         _NODISCARD constexpr _Rep count() const noexcept(is_arithmetic_v<_Rep>) /* strengthened */ {

$LN3:
  00000	48 89 4c 24 08	 mov	 QWORD PTR [rsp+8], rcx
  00005	55		 push	 rbp
  00006	57		 push	 rdi
  00007	48 81 ec f8 00
	00 00		 sub	 rsp, 248		; 000000f8H
  0000e	48 8d 6c 24 30	 lea	 rbp, QWORD PTR [rsp+48]
  00013	48 8b fc	 mov	 rdi, rsp
  00016	b9 3e 00 00 00	 mov	 ecx, 62			; 0000003eH
  0001b	b8 cc cc cc cc	 mov	 eax, -858993460		; ccccccccH
  00020	f3 ab		 rep stosd
  00022	48 8b 8c 24 18
	01 00 00	 mov	 rcx, QWORD PTR [rsp+280]
  0002a	48 8d 0d 00 00
	00 00		 lea	 rcx, OFFSET FLAT:__3ACC9D4A_chrono
  00031	e8 00 00 00 00	 call	 __CheckForDebuggerJustMyCode

; 94   :             return _MyRep;

  00036	48 8b 85 e0 00
	00 00		 mov	 rax, QWORD PTR this$[rbp]
  0003d	f2 0f 10 00	 movsd	 xmm0, QWORD PTR [rax]

; 95   :         }

  00041	48 8d a5 c8 00
	00 00		 lea	 rsp, QWORD PTR [rbp+200]
  00048	5f		 pop	 rdi
  00049	5d		 pop	 rbp
  0004a	c3		 ret	 0
?count@?$duration@NU?$ratio@$00$00@std@@@chrono@std@@QEBANXZ ENDP ; std::chrono::duration<double,std::ratio<1,1> >::count
_TEXT	ENDS
; Function compile flags: /Odtp /RTCsu /ZI
; File C:\Program Files (x86)\Microsoft Visual Studio\2019\Enterprise\VC\Tools\MSVC\14.27.29110\include\chrono
;	COMDAT ??$?0_J$0A@@?$duration@_JU?$ratio@$00$0DLJKMKAA@@std@@@chrono@std@@QEAA@AEB_J@Z
_TEXT	SEGMENT
this$ = 224
_Val$ = 232
??$?0_J$0A@@?$duration@_JU?$ratio@$00$0DLJKMKAA@@std@@@chrono@std@@QEAA@AEB_J@Z PROC ; std::chrono::duration<__int64,std::ratio<1,1000000000> >::duration<__int64,std::ratio<1,1000000000> ><__int64,0>, COMDAT

; 82   :             : _MyRep(static_cast<_Rep>(_Val)) {}

$LN3:
  00000	48 89 54 24 10	 mov	 QWORD PTR [rsp+16], rdx
  00005	48 89 4c 24 08	 mov	 QWORD PTR [rsp+8], rcx
  0000a	55		 push	 rbp
  0000b	57		 push	 rdi
  0000c	48 81 ec e8 00
	00 00		 sub	 rsp, 232		; 000000e8H
  00013	48 8d 6c 24 20	 lea	 rbp, QWORD PTR [rsp+32]
  00018	48 8b fc	 mov	 rdi, rsp
  0001b	b9 3a 00 00 00	 mov	 ecx, 58			; 0000003aH
  00020	b8 cc cc cc cc	 mov	 eax, -858993460		; ccccccccH
  00025	f3 ab		 rep stosd
  00027	48 8b 8c 24 08
	01 00 00	 mov	 rcx, QWORD PTR [rsp+264]
  0002f	48 8d 0d 00 00
	00 00		 lea	 rcx, OFFSET FLAT:__3ACC9D4A_chrono
  00036	e8 00 00 00 00	 call	 __CheckForDebuggerJustMyCode
  0003b	48 8b 85 e0 00
	00 00		 mov	 rax, QWORD PTR this$[rbp]
  00042	48 8b 8d e8 00
	00 00		 mov	 rcx, QWORD PTR _Val$[rbp]
  00049	48 8b 09	 mov	 rcx, QWORD PTR [rcx]
  0004c	48 89 08	 mov	 QWORD PTR [rax], rcx
  0004f	48 8b 85 e0 00
	00 00		 mov	 rax, QWORD PTR this$[rbp]
  00056	48 8d a5 c8 00
	00 00		 lea	 rsp, QWORD PTR [rbp+200]
  0005d	5f		 pop	 rdi
  0005e	5d		 pop	 rbp
  0005f	c3		 ret	 0
??$?0_J$0A@@?$duration@_JU?$ratio@$00$0DLJKMKAA@@std@@@chrono@std@@QEAA@AEB_J@Z ENDP ; std::chrono::duration<__int64,std::ratio<1,1000000000> >::duration<__int64,std::ratio<1,1000000000> ><__int64,0>
_TEXT	ENDS
; Function compile flags: /Odtp /RTCsu /ZI
; File C:\Program Files (x86)\Microsoft Visual Studio\2019\Enterprise\VC\Tools\MSVC\14.27.29110\include\chrono
;	COMDAT ?time_since_epoch@?$time_point@Usteady_clock@chrono@std@@V?$duration@_JU?$ratio@$00$0DLJKMKAA@@std@@@23@@chrono@std@@QEBA?AV?$duration@_JU?$ratio@$00$0DLJKMKAA@@std@@@23@XZ
_TEXT	SEGMENT
this$ = 224
__$ReturnUdt$ = 232
?time_since_epoch@?$time_point@Usteady_clock@chrono@std@@V?$duration@_JU?$ratio@$00$0DLJKMKAA@@std@@@23@@chrono@std@@QEBA?AV?$duration@_JU?$ratio@$00$0DLJKMKAA@@std@@@23@XZ PROC ; std::chrono::time_point<std::chrono::steady_clock,std::chrono::duration<__int64,std::ratio<1,1000000000> > >::time_since_epoch, COMDAT

; 194  :         _NODISCARD constexpr _Duration time_since_epoch() const noexcept(is_arithmetic_v<rep>) /* strengthened */ {

$LN3:
  00000	48 89 54 24 10	 mov	 QWORD PTR [rsp+16], rdx
  00005	48 89 4c 24 08	 mov	 QWORD PTR [rsp+8], rcx
  0000a	55		 push	 rbp
  0000b	57		 push	 rdi
  0000c	48 81 ec e8 00
	00 00		 sub	 rsp, 232		; 000000e8H
  00013	48 8d 6c 24 20	 lea	 rbp, QWORD PTR [rsp+32]
  00018	48 8b fc	 mov	 rdi, rsp
  0001b	b9 3a 00 00 00	 mov	 ecx, 58			; 0000003aH
  00020	b8 cc cc cc cc	 mov	 eax, -858993460		; ccccccccH
  00025	f3 ab		 rep stosd
  00027	48 8b 8c 24 08
	01 00 00	 mov	 rcx, QWORD PTR [rsp+264]
  0002f	48 8d 0d 00 00
	00 00		 lea	 rcx, OFFSET FLAT:__3ACC9D4A_chrono
  00036	e8 00 00 00 00	 call	 __CheckForDebuggerJustMyCode

; 195  :             return _MyDur;

  0003b	48 8b 85 e0 00
	00 00		 mov	 rax, QWORD PTR this$[rbp]
  00042	48 8b 00	 mov	 rax, QWORD PTR [rax]
  00045	48 8b 8d e8 00
	00 00		 mov	 rcx, QWORD PTR __$ReturnUdt$[rbp]
  0004c	48 89 01	 mov	 QWORD PTR [rcx], rax
  0004f	48 8b 85 e8 00
	00 00		 mov	 rax, QWORD PTR __$ReturnUdt$[rbp]

; 196  :         }

  00056	48 8d a5 c8 00
	00 00		 lea	 rsp, QWORD PTR [rbp+200]
  0005d	5f		 pop	 rdi
  0005e	5d		 pop	 rbp
  0005f	c3		 ret	 0
?time_since_epoch@?$time_point@Usteady_clock@chrono@std@@V?$duration@_JU?$ratio@$00$0DLJKMKAA@@std@@@23@@chrono@std@@QEBA?AV?$duration@_JU?$ratio@$00$0DLJKMKAA@@std@@@23@XZ ENDP ; std::chrono::time_point<std::chrono::steady_clock,std::chrono::duration<__int64,std::ratio<1,1000000000> > >::time_since_epoch
_TEXT	ENDS
; Function compile flags: /Odtp /RTCsu /ZI
; File C:\Program Files (x86)\Microsoft Visual Studio\2019\Enterprise\VC\Tools\MSVC\14.27.29110\include\chrono
;	COMDAT ??0?$time_point@Usteady_clock@chrono@std@@V?$duration@_JU?$ratio@$00$0DLJKMKAA@@std@@@23@@chrono@std@@QEAA@AEBV?$duration@_JU?$ratio@$00$0DLJKMKAA@@std@@@12@@Z
_TEXT	SEGMENT
this$ = 224
_Other$ = 232
??0?$time_point@Usteady_clock@chrono@std@@V?$duration@_JU?$ratio@$00$0DLJKMKAA@@std@@@23@@chrono@std@@QEAA@AEBV?$duration@_JU?$ratio@$00$0DLJKMKAA@@std@@@12@@Z PROC ; std::chrono::time_point<std::chrono::steady_clock,std::chrono::duration<__int64,std::ratio<1,1000000000> > >::time_point<std::chrono::steady_clock,std::chrono::duration<__int64,std::ratio<1,1000000000> > >, COMDAT

; 186  :         constexpr explicit time_point(const _Duration& _Other) noexcept(is_arithmetic_v<rep>) // strengthened

$LN3:
  00000	48 89 54 24 10	 mov	 QWORD PTR [rsp+16], rdx
  00005	48 89 4c 24 08	 mov	 QWORD PTR [rsp+8], rcx
  0000a	55		 push	 rbp
  0000b	57		 push	 rdi
  0000c	48 81 ec e8 00
	00 00		 sub	 rsp, 232		; 000000e8H
  00013	48 8d 6c 24 20	 lea	 rbp, QWORD PTR [rsp+32]
  00018	48 8b fc	 mov	 rdi, rsp
  0001b	b9 3a 00 00 00	 mov	 ecx, 58			; 0000003aH
  00020	b8 cc cc cc cc	 mov	 eax, -858993460		; ccccccccH
  00025	f3 ab		 rep stosd
  00027	48 8b 8c 24 08
	01 00 00	 mov	 rcx, QWORD PTR [rsp+264]
  0002f	48 8d 0d 00 00
	00 00		 lea	 rcx, OFFSET FLAT:__3ACC9D4A_chrono
  00036	e8 00 00 00 00	 call	 __CheckForDebuggerJustMyCode

; 187  :             : _MyDur(_Other) {}

  0003b	48 8b 85 e8 00
	00 00		 mov	 rax, QWORD PTR _Other$[rbp]
  00042	48 8b 00	 mov	 rax, QWORD PTR [rax]
  00045	48 8b 8d e0 00
	00 00		 mov	 rcx, QWORD PTR this$[rbp]
  0004c	48 89 01	 mov	 QWORD PTR [rcx], rax
  0004f	48 8b 85 e0 00
	00 00		 mov	 rax, QWORD PTR this$[rbp]
  00056	48 8d a5 c8 00
	00 00		 lea	 rsp, QWORD PTR [rbp+200]
  0005d	5f		 pop	 rdi
  0005e	5d		 pop	 rbp
  0005f	c3		 ret	 0
??0?$time_point@Usteady_clock@chrono@std@@V?$duration@_JU?$ratio@$00$0DLJKMKAA@@std@@@23@@chrono@std@@QEAA@AEBV?$duration@_JU?$ratio@$00$0DLJKMKAA@@std@@@12@@Z ENDP ; std::chrono::time_point<std::chrono::steady_clock,std::chrono::duration<__int64,std::ratio<1,1000000000> > >::time_point<std::chrono::steady_clock,std::chrono::duration<__int64,std::ratio<1,1000000000> > >
_TEXT	ENDS
; Function compile flags: /Odtp /RTCsu /ZI
; File C:\Program Files (x86)\Microsoft Visual Studio\2019\Enterprise\VC\Tools\MSVC\14.27.29110\include\chrono
;	COMDAT ?count@?$duration@_JU?$ratio@$00$0DLJKMKAA@@std@@@chrono@std@@QEBA_JXZ
_TEXT	SEGMENT
this$ = 224
?count@?$duration@_JU?$ratio@$00$0DLJKMKAA@@std@@@chrono@std@@QEBA_JXZ PROC ; std::chrono::duration<__int64,std::ratio<1,1000000000> >::count, COMDAT

; 93   :         _NODISCARD constexpr _Rep count() const noexcept(is_arithmetic_v<_Rep>) /* strengthened */ {

$LN3:
  00000	48 89 4c 24 08	 mov	 QWORD PTR [rsp+8], rcx
  00005	55		 push	 rbp
  00006	57		 push	 rdi
  00007	48 81 ec e8 00
	00 00		 sub	 rsp, 232		; 000000e8H
  0000e	48 8d 6c 24 20	 lea	 rbp, QWORD PTR [rsp+32]
  00013	48 8b fc	 mov	 rdi, rsp
  00016	b9 3a 00 00 00	 mov	 ecx, 58			; 0000003aH
  0001b	b8 cc cc cc cc	 mov	 eax, -858993460		; ccccccccH
  00020	f3 ab		 rep stosd
  00022	48 8b 8c 24 08
	01 00 00	 mov	 rcx, QWORD PTR [rsp+264]
  0002a	48 8d 0d 00 00
	00 00		 lea	 rcx, OFFSET FLAT:__3ACC9D4A_chrono
  00031	e8 00 00 00 00	 call	 __CheckForDebuggerJustMyCode

; 94   :             return _MyRep;

  00036	48 8b 85 e0 00
	00 00		 mov	 rax, QWORD PTR this$[rbp]
  0003d	48 8b 00	 mov	 rax, QWORD PTR [rax]

; 95   :         }

  00040	48 8d a5 c8 00
	00 00		 lea	 rsp, QWORD PTR [rbp+200]
  00047	5f		 pop	 rdi
  00048	5d		 pop	 rbp
  00049	c3		 ret	 0
?count@?$duration@_JU?$ratio@$00$0DLJKMKAA@@std@@@chrono@std@@QEBA_JXZ ENDP ; std::chrono::duration<__int64,std::ratio<1,1000000000> >::count
_TEXT	ENDS
; Function compile flags: /Odtp /RTCsu /ZI
; File C:\Program Files (x86)\Microsoft Visual Studio\2019\Enterprise\VC\Tools\MSVC\14.27.29110\include\chrono
;	COMDAT ?now@steady_clock@chrono@std@@SA?AV?$time_point@Usteady_clock@chrono@std@@V?$duration@_JU?$ratio@$00$0DLJKMKAA@@std@@@23@@23@XZ
_TEXT	SEGMENT
_Freq$ = 8
_Ctr$ = 40
_Whole$ = 72
_Part$ = 104
$T1 = 328
$T2 = 360
__$ReturnUdt$ = 416
?now@steady_clock@chrono@std@@SA?AV?$time_point@Usteady_clock@chrono@std@@V?$duration@_JU?$ratio@$00$0DLJKMKAA@@std@@@23@@23@XZ PROC ; std::chrono::steady_clock::now, COMDAT

; 606  :         _NODISCARD static time_point now() noexcept { // get current time

$LN3:
  00000	48 89 4c 24 08	 mov	 QWORD PTR [rsp+8], rcx
  00005	55		 push	 rbp
  00006	57		 push	 rdi
  00007	48 81 ec a8 01
	00 00		 sub	 rsp, 424		; 000001a8H
  0000e	48 8d 6c 24 20	 lea	 rbp, QWORD PTR [rsp+32]
  00013	48 8b fc	 mov	 rdi, rsp
  00016	b9 6a 00 00 00	 mov	 ecx, 106		; 0000006aH
  0001b	b8 cc cc cc cc	 mov	 eax, -858993460		; ccccccccH
  00020	f3 ab		 rep stosd
  00022	48 8b 8c 24 c8
	01 00 00	 mov	 rcx, QWORD PTR [rsp+456]
  0002a	48 8d 0d 00 00
	00 00		 lea	 rcx, OFFSET FLAT:__3ACC9D4A_chrono
  00031	e8 00 00 00 00	 call	 __CheckForDebuggerJustMyCode

; 607  :             const long long _Freq = _Query_perf_frequency(); // doesn't change after system boot

  00036	e8 00 00 00 00	 call	 _Query_perf_frequency
  0003b	48 89 45 08	 mov	 QWORD PTR _Freq$[rbp], rax

; 608  :             const long long _Ctr  = _Query_perf_counter();

  0003f	e8 00 00 00 00	 call	 _Query_perf_counter
  00044	48 89 45 28	 mov	 QWORD PTR _Ctr$[rbp], rax

; 609  :             static_assert(period::num == 1, "This assumes period::num == 1.");
; 610  :             // Instead of just having "(_Ctr * period::den) / _Freq",
; 611  :             // the algorithm below prevents overflow when _Ctr is sufficiently large.
; 612  :             // It assumes that _Freq * period::den does not overflow, which is currently true for nano period.
; 613  :             // It is not realistic for _Ctr to accumulate to large values from zero with this assumption,
; 614  :             // but the initial value of _Ctr could be large.
; 615  :             const long long _Whole = (_Ctr / _Freq) * period::den;

  00048	48 8b 45 28	 mov	 rax, QWORD PTR _Ctr$[rbp]
  0004c	48 99		 cdq
  0004e	48 f7 7d 08	 idiv	 QWORD PTR _Freq$[rbp]
  00052	48 69 c0 00 ca
	9a 3b		 imul	 rax, rax, 1000000000	; 3b9aca00H
  00059	48 89 45 48	 mov	 QWORD PTR _Whole$[rbp], rax

; 616  :             const long long _Part  = (_Ctr % _Freq) * period::den / _Freq;

  0005d	48 8b 45 28	 mov	 rax, QWORD PTR _Ctr$[rbp]
  00061	48 99		 cdq
  00063	48 f7 7d 08	 idiv	 QWORD PTR _Freq$[rbp]
  00067	48 8b c2	 mov	 rax, rdx
  0006a	48 69 c0 00 ca
	9a 3b		 imul	 rax, rax, 1000000000	; 3b9aca00H
  00071	48 99		 cdq
  00073	48 f7 7d 08	 idiv	 QWORD PTR _Freq$[rbp]
  00077	48 89 45 68	 mov	 QWORD PTR _Part$[rbp], rax

; 617  :             return time_point(duration(_Whole + _Part));

  0007b	48 8b 45 68	 mov	 rax, QWORD PTR _Part$[rbp]
  0007f	48 8b 4d 48	 mov	 rcx, QWORD PTR _Whole$[rbp]
  00083	48 03 c8	 add	 rcx, rax
  00086	48 8b c1	 mov	 rax, rcx
  00089	48 89 85 68 01
	00 00		 mov	 QWORD PTR $T2[rbp], rax
  00090	48 8d 95 68 01
	00 00		 lea	 rdx, QWORD PTR $T2[rbp]
  00097	48 8d 8d 48 01
	00 00		 lea	 rcx, QWORD PTR $T1[rbp]
  0009e	e8 00 00 00 00	 call	 ??$?0_J$0A@@?$duration@_JU?$ratio@$00$0DLJKMKAA@@std@@@chrono@std@@QEAA@AEB_J@Z ; std::chrono::duration<__int64,std::ratio<1,1000000000> >::duration<__int64,std::ratio<1,1000000000> ><__int64,0>
  000a3	48 8b d0	 mov	 rdx, rax
  000a6	48 8b 8d a0 01
	00 00		 mov	 rcx, QWORD PTR __$ReturnUdt$[rbp]
  000ad	e8 00 00 00 00	 call	 ??0?$time_point@Usteady_clock@chrono@std@@V?$duration@_JU?$ratio@$00$0DLJKMKAA@@std@@@23@@chrono@std@@QEAA@AEBV?$duration@_JU?$ratio@$00$0DLJKMKAA@@std@@@12@@Z ; std::chrono::time_point<std::chrono::steady_clock,std::chrono::duration<__int64,std::ratio<1,1000000000> > >::time_point<std::chrono::steady_clock,std::chrono::duration<__int64,std::ratio<1,1000000000> > >
  000b2	48 8b 85 a0 01
	00 00		 mov	 rax, QWORD PTR __$ReturnUdt$[rbp]

; 618  :         }

  000b9	48 8d a5 88 01
	00 00		 lea	 rsp, QWORD PTR [rbp+392]
  000c0	5f		 pop	 rdi
  000c1	5d		 pop	 rbp
  000c2	c3		 ret	 0
?now@steady_clock@chrono@std@@SA?AV?$time_point@Usteady_clock@chrono@std@@V?$duration@_JU?$ratio@$00$0DLJKMKAA@@std@@@23@@23@XZ ENDP ; std::chrono::steady_clock::now
_TEXT	ENDS
; Function compile flags: /Odtp /RTCsu /ZI
;	COMDAT ??1MFST@0@QEAA@XZ
_TEXT	SEGMENT
this$ = 224
??1MFST@0@QEAA@XZ PROC					; MFST::MFST::~MFST, COMDAT
$LN4:
  00000	48 89 4c 24 08	 mov	 QWORD PTR [rsp+8], rcx
  00005	55		 push	 rbp
  00006	57		 push	 rdi
  00007	48 81 ec e8 00
	00 00		 sub	 rsp, 232		; 000000e8H
  0000e	48 8d 6c 24 20	 lea	 rbp, QWORD PTR [rsp+32]
  00013	48 8b fc	 mov	 rdi, rsp
  00016	b9 3a 00 00 00	 mov	 ecx, 58			; 0000003aH
  0001b	b8 cc cc cc cc	 mov	 eax, -858993460		; ccccccccH
  00020	f3 ab		 rep stosd
  00022	48 8b 8c 24 08
	01 00 00	 mov	 rcx, QWORD PTR [rsp+264]
  0002a	48 8b 85 e0 00
	00 00		 mov	 rax, QWORD PTR this$[rbp]
  00031	48 05 80 00 00
	00		 add	 rax, 128		; 00000080H
  00037	48 8b c8	 mov	 rcx, rax
  0003a	e8 00 00 00 00	 call	 ??1?$Stack@UMFSTState@MFST@@@@QEAA@XZ
  0003f	48 8b 85 e0 00
	00 00		 mov	 rax, QWORD PTR this$[rbp]
  00046	48 83 c0 58	 add	 rax, 88			; 00000058H
  0004a	48 8b c8	 mov	 rcx, rax
  0004d	e8 00 00 00 00	 call	 ??1?$Stack@F@@QEAA@XZ
  00052	48 8d a5 c8 00
	00 00		 lea	 rsp, QWORD PTR [rbp+200]
  00059	5f		 pop	 rdi
  0005a	5d		 pop	 rbp
  0005b	c3		 ret	 0
??1MFST@0@QEAA@XZ ENDP					; MFST::MFST::~MFST
_TEXT	ENDS
; Function compile flags: /Odtp /RTCsu /ZI
;	COMDAT ??1?$Stack@UMFSTState@MFST@@@@QEAA@XZ
_TEXT	SEGMENT
this$ = 224
??1?$Stack@UMFSTState@MFST@@@@QEAA@XZ PROC		; Stack<MFST::MFSTState>::~Stack<MFST::MFSTState>, COMDAT
$LN4:
  00000	48 89 4c 24 08	 mov	 QWORD PTR [rsp+8], rcx
  00005	55		 push	 rbp
  00006	57		 push	 rdi
  00007	48 81 ec e8 00
	00 00		 sub	 rsp, 232		; 000000e8H
  0000e	48 8d 6c 24 20	 lea	 rbp, QWORD PTR [rsp+32]
  00013	48 8b fc	 mov	 rdi, rsp
  00016	b9 3a 00 00 00	 mov	 ecx, 58			; 0000003aH
  0001b	b8 cc cc cc cc	 mov	 eax, -858993460		; ccccccccH
  00020	f3 ab		 rep stosd
  00022	48 8b 8c 24 08
	01 00 00	 mov	 rcx, QWORD PTR [rsp+264]
  0002a	48 8b 85 e0 00
	00 00		 mov	 rax, QWORD PTR this$[rbp]
  00031	48 8b c8	 mov	 rcx, rax
  00034	e8 00 00 00 00	 call	 ??1?$stack@UMFSTState@MFST@@V?$deque@UMFSTState@MFST@@V?$allocator@UMFSTState@MFST@@@std@@@std@@@std@@QEAA@XZ
  00039	48 8d a5 c8 00
	00 00		 lea	 rsp, QWORD PTR [rbp+200]
  00040	5f		 pop	 rdi
  00041	5d		 pop	 rbp
  00042	c3		 ret	 0
??1?$Stack@UMFSTState@MFST@@@@QEAA@XZ ENDP		; Stack<MFST::MFSTState>::~Stack<MFST::MFSTState>
_TEXT	ENDS
; Function compile flags: /Odtp /RTCsu /ZI
;	COMDAT ??1?$stack@UMFSTState@MFST@@V?$deque@UMFSTState@MFST@@V?$allocator@UMFSTState@MFST@@@std@@@std@@@std@@QEAA@XZ
_TEXT	SEGMENT
this$ = 224
??1?$stack@UMFSTState@MFST@@V?$deque@UMFSTState@MFST@@V?$allocator@UMFSTState@MFST@@@std@@@std@@@std@@QEAA@XZ PROC ; std::stack<MFST::MFSTState,std::deque<MFST::MFSTState,std::allocator<MFST::MFSTState> > >::~stack<MFST::MFSTState,std::deque<MFST::MFSTState,std::allocator<MFST::MFSTState> > >, COMDAT
$LN3:
  00000	48 89 4c 24 08	 mov	 QWORD PTR [rsp+8], rcx
  00005	55		 push	 rbp
  00006	57		 push	 rdi
  00007	48 81 ec e8 00
	00 00		 sub	 rsp, 232		; 000000e8H
  0000e	48 8d 6c 24 20	 lea	 rbp, QWORD PTR [rsp+32]
  00013	48 8b fc	 mov	 rdi, rsp
  00016	b9 3a 00 00 00	 mov	 ecx, 58			; 0000003aH
  0001b	b8 cc cc cc cc	 mov	 eax, -858993460		; ccccccccH
  00020	f3 ab		 rep stosd
  00022	48 8b 8c 24 08
	01 00 00	 mov	 rcx, QWORD PTR [rsp+264]
  0002a	48 8b 85 e0 00
	00 00		 mov	 rax, QWORD PTR this$[rbp]
  00031	48 8b c8	 mov	 rcx, rax
  00034	e8 00 00 00 00	 call	 ??1?$deque@UMFSTState@MFST@@V?$allocator@UMFSTState@MFST@@@std@@@std@@QEAA@XZ ; std::deque<MFST::MFSTState,std::allocator<MFST::MFSTState> >::~deque<MFST::MFSTState,std::allocator<MFST::MFSTState> >
  00039	48 8d a5 c8 00
	00 00		 lea	 rsp, QWORD PTR [rbp+200]
  00040	5f		 pop	 rdi
  00041	5d		 pop	 rbp
  00042	c3		 ret	 0
??1?$stack@UMFSTState@MFST@@V?$deque@UMFSTState@MFST@@V?$allocator@UMFSTState@MFST@@@std@@@std@@@std@@QEAA@XZ ENDP ; std::stack<MFST::MFSTState,std::deque<MFST::MFSTState,std::allocator<MFST::MFSTState> > >::~stack<MFST::MFSTState,std::deque<MFST::MFSTState,std::allocator<MFST::MFSTState> > >
_TEXT	ENDS
; Function compile flags: /Odtp /RTCsu /ZI
; File C:\Program Files (x86)\Microsoft Visual Studio\2019\Enterprise\VC\Tools\MSVC\14.27.29110\include\xmemory
;	COMDAT ?_Get_first@?$_Compressed_pair@V?$allocator@UMFSTState@MFST@@@std@@V?$_Deque_val@U?$_Deque_simple_types@UMFSTState@MFST@@@std@@@2@$00@std@@QEAAAEAV?$allocator@UMFSTState@MFST@@@2@XZ
_TEXT	SEGMENT
this$ = 224
?_Get_first@?$_Compressed_pair@V?$allocator@UMFSTState@MFST@@@std@@V?$_Deque_val@U?$_Deque_simple_types@UMFSTState@MFST@@@std@@@2@$00@std@@QEAAAEAV?$allocator@UMFSTState@MFST@@@2@XZ PROC ; std::_Compressed_pair<std::allocator<MFST::MFSTState>,std::_Deque_val<std::_Deque_simple_types<MFST::MFSTState> >,1>::_Get_first, COMDAT

; 1343 :     constexpr _Ty1& _Get_first() noexcept {

$LN3:
  00000	48 89 4c 24 08	 mov	 QWORD PTR [rsp+8], rcx
  00005	55		 push	 rbp
  00006	57		 push	 rdi
  00007	48 81 ec e8 00
	00 00		 sub	 rsp, 232		; 000000e8H
  0000e	48 8d 6c 24 20	 lea	 rbp, QWORD PTR [rsp+32]
  00013	48 8b fc	 mov	 rdi, rsp
  00016	b9 3a 00 00 00	 mov	 ecx, 58			; 0000003aH
  0001b	b8 cc cc cc cc	 mov	 eax, -858993460		; ccccccccH
  00020	f3 ab		 rep stosd
  00022	48 8b 8c 24 08
	01 00 00	 mov	 rcx, QWORD PTR [rsp+264]
  0002a	48 8d 0d 00 00
	00 00		 lea	 rcx, OFFSET FLAT:__0C99713E_xmemory
  00031	e8 00 00 00 00	 call	 __CheckForDebuggerJustMyCode

; 1344 :         return *this;

  00036	48 8b 85 e0 00
	00 00		 mov	 rax, QWORD PTR this$[rbp]

; 1345 :     }

  0003d	48 8d a5 c8 00
	00 00		 lea	 rsp, QWORD PTR [rbp+200]
  00044	5f		 pop	 rdi
  00045	5d		 pop	 rbp
  00046	c3		 ret	 0
?_Get_first@?$_Compressed_pair@V?$allocator@UMFSTState@MFST@@@std@@V?$_Deque_val@U?$_Deque_simple_types@UMFSTState@MFST@@@std@@@2@$00@std@@QEAAAEAV?$allocator@UMFSTState@MFST@@@2@XZ ENDP ; std::_Compressed_pair<std::allocator<MFST::MFSTState>,std::_Deque_val<std::_Deque_simple_types<MFST::MFSTState> >,1>::_Get_first
_TEXT	ENDS
; Function compile flags: /Odtp /RTCsu /ZI
; File C:\Program Files (x86)\Microsoft Visual Studio\2019\Enterprise\VC\Tools\MSVC\14.27.29110\include\deque
;	COMDAT ?_Getblock@?$_Deque_val@U?$_Deque_simple_types@UMFSTState@MFST@@@std@@@std@@QEBA_K_K@Z
_TEXT	SEGMENT
this$ = 224
_Off$ = 232
?_Getblock@?$_Deque_val@U?$_Deque_simple_types@UMFSTState@MFST@@@std@@@std@@QEBA_K_K@Z PROC ; std::_Deque_val<std::_Deque_simple_types<MFST::MFSTState> >::_Getblock, COMDAT

; 545  :     size_type _Getblock(size_type _Off) const noexcept {

$LN3:
  00000	48 89 54 24 10	 mov	 QWORD PTR [rsp+16], rdx
  00005	48 89 4c 24 08	 mov	 QWORD PTR [rsp+8], rcx
  0000a	55		 push	 rbp
  0000b	57		 push	 rdi
  0000c	48 81 ec e8 00
	00 00		 sub	 rsp, 232		; 000000e8H
  00013	48 8d 6c 24 20	 lea	 rbp, QWORD PTR [rsp+32]
  00018	48 8b fc	 mov	 rdi, rsp
  0001b	b9 3a 00 00 00	 mov	 ecx, 58			; 0000003aH
  00020	b8 cc cc cc cc	 mov	 eax, -858993460		; ccccccccH
  00025	f3 ab		 rep stosd
  00027	48 8b 8c 24 08
	01 00 00	 mov	 rcx, QWORD PTR [rsp+264]
  0002f	48 8d 0d 00 00
	00 00		 lea	 rcx, OFFSET FLAT:__1C3F1DC9_deque
  00036	e8 00 00 00 00	 call	 __CheckForDebuggerJustMyCode

; 546  :         // NB: _Mapsize and _DEQUESIZ are guaranteed to be powers of 2
; 547  :         return (_Off / _DEQUESIZ) & (_Mapsize - 1);

  0003b	48 8b 85 e0 00
	00 00		 mov	 rax, QWORD PTR this$[rbp]
  00042	48 8b 40 10	 mov	 rax, QWORD PTR [rax+16]
  00046	48 ff c8	 dec	 rax
  00049	48 8b 8d e8 00
	00 00		 mov	 rcx, QWORD PTR _Off$[rbp]
  00050	48 23 c8	 and	 rcx, rax
  00053	48 8b c1	 mov	 rax, rcx

; 548  :     }

  00056	48 8d a5 c8 00
	00 00		 lea	 rsp, QWORD PTR [rbp+200]
  0005d	5f		 pop	 rdi
  0005e	5d		 pop	 rbp
  0005f	c3		 ret	 0
?_Getblock@?$_Deque_val@U?$_Deque_simple_types@UMFSTState@MFST@@@std@@@std@@QEBA_K_K@Z ENDP ; std::_Deque_val<std::_Deque_simple_types<MFST::MFSTState> >::_Getblock
_TEXT	ENDS
; Function compile flags: /Odtp /RTCsu /ZI
; File C:\Program Files (x86)\Microsoft Visual Studio\2019\Enterprise\VC\Tools\MSVC\14.27.29110\include\deque
;	COMDAT ?_Mysize@?$deque@UMFSTState@MFST@@V?$allocator@UMFSTState@MFST@@@std@@@std@@AEBAAEB_KXZ
_TEXT	SEGMENT
this$ = 224
?_Mysize@?$deque@UMFSTState@MFST@@V?$allocator@UMFSTState@MFST@@@std@@@std@@AEBAAEB_KXZ PROC ; std::deque<MFST::MFSTState,std::allocator<MFST::MFSTState> >::_Mysize, COMDAT

; 1560 :     const size_type& _Mysize() const noexcept {

$LN3:
  00000	48 89 4c 24 08	 mov	 QWORD PTR [rsp+8], rcx
  00005	55		 push	 rbp
  00006	57		 push	 rdi
  00007	48 81 ec e8 00
	00 00		 sub	 rsp, 232		; 000000e8H
  0000e	48 8d 6c 24 20	 lea	 rbp, QWORD PTR [rsp+32]
  00013	48 8b fc	 mov	 rdi, rsp
  00016	b9 3a 00 00 00	 mov	 ecx, 58			; 0000003aH
  0001b	b8 cc cc cc cc	 mov	 eax, -858993460		; ccccccccH
  00020	f3 ab		 rep stosd
  00022	48 8b 8c 24 08
	01 00 00	 mov	 rcx, QWORD PTR [rsp+264]
  0002a	48 8d 0d 00 00
	00 00		 lea	 rcx, OFFSET FLAT:__1C3F1DC9_deque
  00031	e8 00 00 00 00	 call	 __CheckForDebuggerJustMyCode

; 1561 :         return _Get_data()._Mysize;

  00036	48 8b 8d e0 00
	00 00		 mov	 rcx, QWORD PTR this$[rbp]
  0003d	e8 00 00 00 00	 call	 ?_Get_data@?$deque@UMFSTState@MFST@@V?$allocator@UMFSTState@MFST@@@std@@@std@@AEBAAEBV?$_Deque_val@U?$_Deque_simple_types@UMFSTState@MFST@@@std@@@2@XZ ; std::deque<MFST::MFSTState,std::allocator<MFST::MFSTState> >::_Get_data
  00042	48 83 c0 20	 add	 rax, 32			; 00000020H

; 1562 :     }

  00046	48 8d a5 c8 00
	00 00		 lea	 rsp, QWORD PTR [rbp+200]
  0004d	5f		 pop	 rdi
  0004e	5d		 pop	 rbp
  0004f	c3		 ret	 0
?_Mysize@?$deque@UMFSTState@MFST@@V?$allocator@UMFSTState@MFST@@@std@@@std@@AEBAAEB_KXZ ENDP ; std::deque<MFST::MFSTState,std::allocator<MFST::MFSTState> >::_Mysize
_TEXT	ENDS
; Function compile flags: /Odtp /RTCsu /ZI
; File C:\Program Files (x86)\Microsoft Visual Studio\2019\Enterprise\VC\Tools\MSVC\14.27.29110\include\deque
;	COMDAT ?_Mysize@?$deque@UMFSTState@MFST@@V?$allocator@UMFSTState@MFST@@@std@@@std@@AEAAAEA_KXZ
_TEXT	SEGMENT
this$ = 224
?_Mysize@?$deque@UMFSTState@MFST@@V?$allocator@UMFSTState@MFST@@@std@@@std@@AEAAAEA_KXZ PROC ; std::deque<MFST::MFSTState,std::allocator<MFST::MFSTState> >::_Mysize, COMDAT

; 1556 :     size_type& _Mysize() noexcept {

$LN3:
  00000	48 89 4c 24 08	 mov	 QWORD PTR [rsp+8], rcx
  00005	55		 push	 rbp
  00006	57		 push	 rdi
  00007	48 81 ec e8 00
	00 00		 sub	 rsp, 232		; 000000e8H
  0000e	48 8d 6c 24 20	 lea	 rbp, QWORD PTR [rsp+32]
  00013	48 8b fc	 mov	 rdi, rsp
  00016	b9 3a 00 00 00	 mov	 ecx, 58			; 0000003aH
  0001b	b8 cc cc cc cc	 mov	 eax, -858993460		; ccccccccH
  00020	f3 ab		 rep stosd
  00022	48 8b 8c 24 08
	01 00 00	 mov	 rcx, QWORD PTR [rsp+264]
  0002a	48 8d 0d 00 00
	00 00		 lea	 rcx, OFFSET FLAT:__1C3F1DC9_deque
  00031	e8 00 00 00 00	 call	 __CheckForDebuggerJustMyCode

; 1557 :         return _Get_data()._Mysize;

  00036	48 8b 8d e0 00
	00 00		 mov	 rcx, QWORD PTR this$[rbp]
  0003d	e8 00 00 00 00	 call	 ?_Get_data@?$deque@UMFSTState@MFST@@V?$allocator@UMFSTState@MFST@@@std@@@std@@AEAAAEAV?$_Deque_val@U?$_Deque_simple_types@UMFSTState@MFST@@@std@@@2@XZ ; std::deque<MFST::MFSTState,std::allocator<MFST::MFSTState> >::_Get_data
  00042	48 83 c0 20	 add	 rax, 32			; 00000020H

; 1558 :     }

  00046	48 8d a5 c8 00
	00 00		 lea	 rsp, QWORD PTR [rbp+200]
  0004d	5f		 pop	 rdi
  0004e	5d		 pop	 rbp
  0004f	c3		 ret	 0
?_Mysize@?$deque@UMFSTState@MFST@@V?$allocator@UMFSTState@MFST@@@std@@@std@@AEAAAEA_KXZ ENDP ; std::deque<MFST::MFSTState,std::allocator<MFST::MFSTState> >::_Mysize
_TEXT	ENDS
; Function compile flags: /Odtp /RTCsu /ZI
; File C:\Program Files (x86)\Microsoft Visual Studio\2019\Enterprise\VC\Tools\MSVC\14.27.29110\include\deque
;	COMDAT ?_Myoff@?$deque@UMFSTState@MFST@@V?$allocator@UMFSTState@MFST@@@std@@@std@@AEBAAEB_KXZ
_TEXT	SEGMENT
this$ = 224
?_Myoff@?$deque@UMFSTState@MFST@@V?$allocator@UMFSTState@MFST@@@std@@@std@@AEBAAEB_KXZ PROC ; std::deque<MFST::MFSTState,std::allocator<MFST::MFSTState> >::_Myoff, COMDAT

; 1552 :     const size_type& _Myoff() const noexcept {

$LN3:
  00000	48 89 4c 24 08	 mov	 QWORD PTR [rsp+8], rcx
  00005	55		 push	 rbp
  00006	57		 push	 rdi
  00007	48 81 ec e8 00
	00 00		 sub	 rsp, 232		; 000000e8H
  0000e	48 8d 6c 24 20	 lea	 rbp, QWORD PTR [rsp+32]
  00013	48 8b fc	 mov	 rdi, rsp
  00016	b9 3a 00 00 00	 mov	 ecx, 58			; 0000003aH
  0001b	b8 cc cc cc cc	 mov	 eax, -858993460		; ccccccccH
  00020	f3 ab		 rep stosd
  00022	48 8b 8c 24 08
	01 00 00	 mov	 rcx, QWORD PTR [rsp+264]
  0002a	48 8d 0d 00 00
	00 00		 lea	 rcx, OFFSET FLAT:__1C3F1DC9_deque
  00031	e8 00 00 00 00	 call	 __CheckForDebuggerJustMyCode

; 1553 :         return _Get_data()._Myoff;

  00036	48 8b 8d e0 00
	00 00		 mov	 rcx, QWORD PTR this$[rbp]
  0003d	e8 00 00 00 00	 call	 ?_Get_data@?$deque@UMFSTState@MFST@@V?$allocator@UMFSTState@MFST@@@std@@@std@@AEBAAEBV?$_Deque_val@U?$_Deque_simple_types@UMFSTState@MFST@@@std@@@2@XZ ; std::deque<MFST::MFSTState,std::allocator<MFST::MFSTState> >::_Get_data
  00042	48 83 c0 18	 add	 rax, 24

; 1554 :     }

  00046	48 8d a5 c8 00
	00 00		 lea	 rsp, QWORD PTR [rbp+200]
  0004d	5f		 pop	 rdi
  0004e	5d		 pop	 rbp
  0004f	c3		 ret	 0
?_Myoff@?$deque@UMFSTState@MFST@@V?$allocator@UMFSTState@MFST@@@std@@@std@@AEBAAEB_KXZ ENDP ; std::deque<MFST::MFSTState,std::allocator<MFST::MFSTState> >::_Myoff
_TEXT	ENDS
; Function compile flags: /Odtp /RTCsu /ZI
; File C:\Program Files (x86)\Microsoft Visual Studio\2019\Enterprise\VC\Tools\MSVC\14.27.29110\include\deque
;	COMDAT ?_Myoff@?$deque@UMFSTState@MFST@@V?$allocator@UMFSTState@MFST@@@std@@@std@@AEAAAEA_KXZ
_TEXT	SEGMENT
this$ = 224
?_Myoff@?$deque@UMFSTState@MFST@@V?$allocator@UMFSTState@MFST@@@std@@@std@@AEAAAEA_KXZ PROC ; std::deque<MFST::MFSTState,std::allocator<MFST::MFSTState> >::_Myoff, COMDAT

; 1548 :     size_type& _Myoff() noexcept {

$LN3:
  00000	48 89 4c 24 08	 mov	 QWORD PTR [rsp+8], rcx
  00005	55		 push	 rbp
  00006	57		 push	 rdi
  00007	48 81 ec e8 00
	00 00		 sub	 rsp, 232		; 000000e8H
  0000e	48 8d 6c 24 20	 lea	 rbp, QWORD PTR [rsp+32]
  00013	48 8b fc	 mov	 rdi, rsp
  00016	b9 3a 00 00 00	 mov	 ecx, 58			; 0000003aH
  0001b	b8 cc cc cc cc	 mov	 eax, -858993460		; ccccccccH
  00020	f3 ab		 rep stosd
  00022	48 8b 8c 24 08
	01 00 00	 mov	 rcx, QWORD PTR [rsp+264]
  0002a	48 8d 0d 00 00
	00 00		 lea	 rcx, OFFSET FLAT:__1C3F1DC9_deque
  00031	e8 00 00 00 00	 call	 __CheckForDebuggerJustMyCode

; 1549 :         return _Get_data()._Myoff;

  00036	48 8b 8d e0 00
	00 00		 mov	 rcx, QWORD PTR this$[rbp]
  0003d	e8 00 00 00 00	 call	 ?_Get_data@?$deque@UMFSTState@MFST@@V?$allocator@UMFSTState@MFST@@@std@@@std@@AEAAAEAV?$_Deque_val@U?$_Deque_simple_types@UMFSTState@MFST@@@std@@@2@XZ ; std::deque<MFST::MFSTState,std::allocator<MFST::MFSTState> >::_Get_data
  00042	48 83 c0 18	 add	 rax, 24

; 1550 :     }

  00046	48 8d a5 c8 00
	00 00		 lea	 rsp, QWORD PTR [rbp+200]
  0004d	5f		 pop	 rdi
  0004e	5d		 pop	 rbp
  0004f	c3		 ret	 0
?_Myoff@?$deque@UMFSTState@MFST@@V?$allocator@UMFSTState@MFST@@@std@@@std@@AEAAAEA_KXZ ENDP ; std::deque<MFST::MFSTState,std::allocator<MFST::MFSTState> >::_Myoff
_TEXT	ENDS
; Function compile flags: /Odtp /RTCsu /ZI
; File C:\Program Files (x86)\Microsoft Visual Studio\2019\Enterprise\VC\Tools\MSVC\14.27.29110\include\deque
;	COMDAT ?_Mapsize@?$deque@UMFSTState@MFST@@V?$allocator@UMFSTState@MFST@@@std@@@std@@AEAAAEA_KXZ
_TEXT	SEGMENT
this$ = 224
?_Mapsize@?$deque@UMFSTState@MFST@@V?$allocator@UMFSTState@MFST@@@std@@@std@@AEAAAEA_KXZ PROC ; std::deque<MFST::MFSTState,std::allocator<MFST::MFSTState> >::_Mapsize, COMDAT

; 1540 :     size_type& _Mapsize() noexcept {

$LN3:
  00000	48 89 4c 24 08	 mov	 QWORD PTR [rsp+8], rcx
  00005	55		 push	 rbp
  00006	57		 push	 rdi
  00007	48 81 ec e8 00
	00 00		 sub	 rsp, 232		; 000000e8H
  0000e	48 8d 6c 24 20	 lea	 rbp, QWORD PTR [rsp+32]
  00013	48 8b fc	 mov	 rdi, rsp
  00016	b9 3a 00 00 00	 mov	 ecx, 58			; 0000003aH
  0001b	b8 cc cc cc cc	 mov	 eax, -858993460		; ccccccccH
  00020	f3 ab		 rep stosd
  00022	48 8b 8c 24 08
	01 00 00	 mov	 rcx, QWORD PTR [rsp+264]
  0002a	48 8d 0d 00 00
	00 00		 lea	 rcx, OFFSET FLAT:__1C3F1DC9_deque
  00031	e8 00 00 00 00	 call	 __CheckForDebuggerJustMyCode

; 1541 :         return _Get_data()._Mapsize;

  00036	48 8b 8d e0 00
	00 00		 mov	 rcx, QWORD PTR this$[rbp]
  0003d	e8 00 00 00 00	 call	 ?_Get_data@?$deque@UMFSTState@MFST@@V?$allocator@UMFSTState@MFST@@@std@@@std@@AEAAAEAV?$_Deque_val@U?$_Deque_simple_types@UMFSTState@MFST@@@std@@@2@XZ ; std::deque<MFST::MFSTState,std::allocator<MFST::MFSTState> >::_Get_data
  00042	48 83 c0 10	 add	 rax, 16

; 1542 :     }

  00046	48 8d a5 c8 00
	00 00		 lea	 rsp, QWORD PTR [rbp+200]
  0004d	5f		 pop	 rdi
  0004e	5d		 pop	 rbp
  0004f	c3		 ret	 0
?_Mapsize@?$deque@UMFSTState@MFST@@V?$allocator@UMFSTState@MFST@@@std@@@std@@AEAAAEA_KXZ ENDP ; std::deque<MFST::MFSTState,std::allocator<MFST::MFSTState> >::_Mapsize
_TEXT	ENDS
; Function compile flags: /Odtp /RTCsu /ZI
; File C:\Program Files (x86)\Microsoft Visual Studio\2019\Enterprise\VC\Tools\MSVC\14.27.29110\include\deque
;	COMDAT ?_Map@?$deque@UMFSTState@MFST@@V?$allocator@UMFSTState@MFST@@@std@@@std@@AEAAAEAPEAPEAUMFSTState@MFST@@XZ
_TEXT	SEGMENT
this$ = 224
?_Map@?$deque@UMFSTState@MFST@@V?$allocator@UMFSTState@MFST@@@std@@@std@@AEAAAEAPEAPEAUMFSTState@MFST@@XZ PROC ; std::deque<MFST::MFSTState,std::allocator<MFST::MFSTState> >::_Map, COMDAT

; 1532 :     _Mapptr& _Map() noexcept {

$LN3:
  00000	48 89 4c 24 08	 mov	 QWORD PTR [rsp+8], rcx
  00005	55		 push	 rbp
  00006	57		 push	 rdi
  00007	48 81 ec e8 00
	00 00		 sub	 rsp, 232		; 000000e8H
  0000e	48 8d 6c 24 20	 lea	 rbp, QWORD PTR [rsp+32]
  00013	48 8b fc	 mov	 rdi, rsp
  00016	b9 3a 00 00 00	 mov	 ecx, 58			; 0000003aH
  0001b	b8 cc cc cc cc	 mov	 eax, -858993460		; ccccccccH
  00020	f3 ab		 rep stosd
  00022	48 8b 8c 24 08
	01 00 00	 mov	 rcx, QWORD PTR [rsp+264]
  0002a	48 8d 0d 00 00
	00 00		 lea	 rcx, OFFSET FLAT:__1C3F1DC9_deque
  00031	e8 00 00 00 00	 call	 __CheckForDebuggerJustMyCode

; 1533 :         return _Get_data()._Map;

  00036	48 8b 8d e0 00
	00 00		 mov	 rcx, QWORD PTR this$[rbp]
  0003d	e8 00 00 00 00	 call	 ?_Get_data@?$deque@UMFSTState@MFST@@V?$allocator@UMFSTState@MFST@@@std@@@std@@AEAAAEAV?$_Deque_val@U?$_Deque_simple_types@UMFSTState@MFST@@@std@@@2@XZ ; std::deque<MFST::MFSTState,std::allocator<MFST::MFSTState> >::_Get_data
  00042	48 83 c0 08	 add	 rax, 8

; 1534 :     }

  00046	48 8d a5 c8 00
	00 00		 lea	 rsp, QWORD PTR [rbp+200]
  0004d	5f		 pop	 rdi
  0004e	5d		 pop	 rbp
  0004f	c3		 ret	 0
?_Map@?$deque@UMFSTState@MFST@@V?$allocator@UMFSTState@MFST@@@std@@@std@@AEAAAEAPEAPEAUMFSTState@MFST@@XZ ENDP ; std::deque<MFST::MFSTState,std::allocator<MFST::MFSTState> >::_Map
_TEXT	ENDS
; Function compile flags: /Odtp /RTCsu /ZI
; File C:\Program Files (x86)\Microsoft Visual Studio\2019\Enterprise\VC\Tools\MSVC\14.27.29110\include\deque
;	COMDAT ?_Get_data@?$deque@UMFSTState@MFST@@V?$allocator@UMFSTState@MFST@@@std@@@std@@AEBAAEBV?$_Deque_val@U?$_Deque_simple_types@UMFSTState@MFST@@@std@@@2@XZ
_TEXT	SEGMENT
this$ = 224
?_Get_data@?$deque@UMFSTState@MFST@@V?$allocator@UMFSTState@MFST@@@std@@@std@@AEBAAEBV?$_Deque_val@U?$_Deque_simple_types@UMFSTState@MFST@@@std@@@2@XZ PROC ; std::deque<MFST::MFSTState,std::allocator<MFST::MFSTState> >::_Get_data, COMDAT

; 1528 :     const _Scary_val& _Get_data() const noexcept {

$LN3:
  00000	48 89 4c 24 08	 mov	 QWORD PTR [rsp+8], rcx
  00005	55		 push	 rbp
  00006	57		 push	 rdi
  00007	48 81 ec e8 00
	00 00		 sub	 rsp, 232		; 000000e8H
  0000e	48 8d 6c 24 20	 lea	 rbp, QWORD PTR [rsp+32]
  00013	48 8b fc	 mov	 rdi, rsp
  00016	b9 3a 00 00 00	 mov	 ecx, 58			; 0000003aH
  0001b	b8 cc cc cc cc	 mov	 eax, -858993460		; ccccccccH
  00020	f3 ab		 rep stosd
  00022	48 8b 8c 24 08
	01 00 00	 mov	 rcx, QWORD PTR [rsp+264]
  0002a	48 8d 0d 00 00
	00 00		 lea	 rcx, OFFSET FLAT:__1C3F1DC9_deque
  00031	e8 00 00 00 00	 call	 __CheckForDebuggerJustMyCode

; 1529 :         return _Mypair._Myval2;

  00036	48 8b 85 e0 00
	00 00		 mov	 rax, QWORD PTR this$[rbp]

; 1530 :     }

  0003d	48 8d a5 c8 00
	00 00		 lea	 rsp, QWORD PTR [rbp+200]
  00044	5f		 pop	 rdi
  00045	5d		 pop	 rbp
  00046	c3		 ret	 0
?_Get_data@?$deque@UMFSTState@MFST@@V?$allocator@UMFSTState@MFST@@@std@@@std@@AEBAAEBV?$_Deque_val@U?$_Deque_simple_types@UMFSTState@MFST@@@std@@@2@XZ ENDP ; std::deque<MFST::MFSTState,std::allocator<MFST::MFSTState> >::_Get_data
_TEXT	ENDS
; Function compile flags: /Odtp /RTCsu /ZI
; File C:\Program Files (x86)\Microsoft Visual Studio\2019\Enterprise\VC\Tools\MSVC\14.27.29110\include\deque
;	COMDAT ?_Get_data@?$deque@UMFSTState@MFST@@V?$allocator@UMFSTState@MFST@@@std@@@std@@AEAAAEAV?$_Deque_val@U?$_Deque_simple_types@UMFSTState@MFST@@@std@@@2@XZ
_TEXT	SEGMENT
this$ = 224
?_Get_data@?$deque@UMFSTState@MFST@@V?$allocator@UMFSTState@MFST@@@std@@@std@@AEAAAEAV?$_Deque_val@U?$_Deque_simple_types@UMFSTState@MFST@@@std@@@2@XZ PROC ; std::deque<MFST::MFSTState,std::allocator<MFST::MFSTState> >::_Get_data, COMDAT

; 1524 :     _Scary_val& _Get_data() noexcept {

$LN3:
  00000	48 89 4c 24 08	 mov	 QWORD PTR [rsp+8], rcx
  00005	55		 push	 rbp
  00006	57		 push	 rdi
  00007	48 81 ec e8 00
	00 00		 sub	 rsp, 232		; 000000e8H
  0000e	48 8d 6c 24 20	 lea	 rbp, QWORD PTR [rsp+32]
  00013	48 8b fc	 mov	 rdi, rsp
  00016	b9 3a 00 00 00	 mov	 ecx, 58			; 0000003aH
  0001b	b8 cc cc cc cc	 mov	 eax, -858993460		; ccccccccH
  00020	f3 ab		 rep stosd
  00022	48 8b 8c 24 08
	01 00 00	 mov	 rcx, QWORD PTR [rsp+264]
  0002a	48 8d 0d 00 00
	00 00		 lea	 rcx, OFFSET FLAT:__1C3F1DC9_deque
  00031	e8 00 00 00 00	 call	 __CheckForDebuggerJustMyCode

; 1525 :         return _Mypair._Myval2;

  00036	48 8b 85 e0 00
	00 00		 mov	 rax, QWORD PTR this$[rbp]

; 1526 :     }

  0003d	48 8d a5 c8 00
	00 00		 lea	 rsp, QWORD PTR [rbp+200]
  00044	5f		 pop	 rdi
  00045	5d		 pop	 rbp
  00046	c3		 ret	 0
?_Get_data@?$deque@UMFSTState@MFST@@V?$allocator@UMFSTState@MFST@@@std@@@std@@AEAAAEAV?$_Deque_val@U?$_Deque_simple_types@UMFSTState@MFST@@@std@@@2@XZ ENDP ; std::deque<MFST::MFSTState,std::allocator<MFST::MFSTState> >::_Get_data
_TEXT	ENDS
; Function compile flags: /Odtp /RTCsu /ZI
; File C:\Program Files (x86)\Microsoft Visual Studio\2019\Enterprise\VC\Tools\MSVC\14.27.29110\include\deque
;	COMDAT ?_Getal@?$deque@UMFSTState@MFST@@V?$allocator@UMFSTState@MFST@@@std@@@std@@AEAAAEAV?$allocator@UMFSTState@MFST@@@2@XZ
_TEXT	SEGMENT
this$ = 224
?_Getal@?$deque@UMFSTState@MFST@@V?$allocator@UMFSTState@MFST@@@std@@@std@@AEAAAEAV?$allocator@UMFSTState@MFST@@@2@XZ PROC ; std::deque<MFST::MFSTState,std::allocator<MFST::MFSTState> >::_Getal, COMDAT

; 1516 :     _Alty& _Getal() noexcept {

$LN3:
  00000	48 89 4c 24 08	 mov	 QWORD PTR [rsp+8], rcx
  00005	55		 push	 rbp
  00006	57		 push	 rdi
  00007	48 81 ec e8 00
	00 00		 sub	 rsp, 232		; 000000e8H
  0000e	48 8d 6c 24 20	 lea	 rbp, QWORD PTR [rsp+32]
  00013	48 8b fc	 mov	 rdi, rsp
  00016	b9 3a 00 00 00	 mov	 ecx, 58			; 0000003aH
  0001b	b8 cc cc cc cc	 mov	 eax, -858993460		; ccccccccH
  00020	f3 ab		 rep stosd
  00022	48 8b 8c 24 08
	01 00 00	 mov	 rcx, QWORD PTR [rsp+264]
  0002a	48 8d 0d 00 00
	00 00		 lea	 rcx, OFFSET FLAT:__1C3F1DC9_deque
  00031	e8 00 00 00 00	 call	 __CheckForDebuggerJustMyCode

; 1517 :         return _Mypair._Get_first();

  00036	48 8b 85 e0 00
	00 00		 mov	 rax, QWORD PTR this$[rbp]
  0003d	48 8b c8	 mov	 rcx, rax
  00040	e8 00 00 00 00	 call	 ?_Get_first@?$_Compressed_pair@V?$allocator@UMFSTState@MFST@@@std@@V?$_Deque_val@U?$_Deque_simple_types@UMFSTState@MFST@@@std@@@2@$00@std@@QEAAAEAV?$allocator@UMFSTState@MFST@@@2@XZ ; std::_Compressed_pair<std::allocator<MFST::MFSTState>,std::_Deque_val<std::_Deque_simple_types<MFST::MFSTState> >,1>::_Get_first
  00045	90		 npad	 1

; 1518 :     }

  00046	48 8d a5 c8 00
	00 00		 lea	 rsp, QWORD PTR [rbp+200]
  0004d	5f		 pop	 rdi
  0004e	5d		 pop	 rbp
  0004f	c3		 ret	 0
?_Getal@?$deque@UMFSTState@MFST@@V?$allocator@UMFSTState@MFST@@@std@@@std@@AEAAAEAV?$allocator@UMFSTState@MFST@@@2@XZ ENDP ; std::deque<MFST::MFSTState,std::allocator<MFST::MFSTState> >::_Getal
_TEXT	ENDS
; Function compile flags: /Odtp /RTCsu /ZI
; File C:\Program Files (x86)\Microsoft Visual Studio\2019\Enterprise\VC\Tools\MSVC\14.27.29110\include\deque
;	COMDAT ?_Orphan_all@?$deque@UMFSTState@MFST@@V?$allocator@UMFSTState@MFST@@@std@@@std@@AEAAXXZ
_TEXT	SEGMENT
this$ = 224
?_Orphan_all@?$deque@UMFSTState@MFST@@V?$allocator@UMFSTState@MFST@@@std@@@std@@AEAAXXZ PROC ; std::deque<MFST::MFSTState,std::allocator<MFST::MFSTState> >::_Orphan_all, COMDAT

; 1512 :     void _Orphan_all() noexcept {

$LN3:
  00000	48 89 4c 24 08	 mov	 QWORD PTR [rsp+8], rcx
  00005	55		 push	 rbp
  00006	57		 push	 rdi
  00007	48 81 ec e8 00
	00 00		 sub	 rsp, 232		; 000000e8H
  0000e	48 8d 6c 24 20	 lea	 rbp, QWORD PTR [rsp+32]
  00013	48 8b fc	 mov	 rdi, rsp
  00016	b9 3a 00 00 00	 mov	 ecx, 58			; 0000003aH
  0001b	b8 cc cc cc cc	 mov	 eax, -858993460		; ccccccccH
  00020	f3 ab		 rep stosd
  00022	48 8b 8c 24 08
	01 00 00	 mov	 rcx, QWORD PTR [rsp+264]
  0002a	48 8d 0d 00 00
	00 00		 lea	 rcx, OFFSET FLAT:__1C3F1DC9_deque
  00031	e8 00 00 00 00	 call	 __CheckForDebuggerJustMyCode

; 1513 :         _Get_data()._Orphan_all();

  00036	48 8b 8d e0 00
	00 00		 mov	 rcx, QWORD PTR this$[rbp]
  0003d	e8 00 00 00 00	 call	 ?_Get_data@?$deque@UMFSTState@MFST@@V?$allocator@UMFSTState@MFST@@@std@@@std@@AEAAAEAV?$_Deque_val@U?$_Deque_simple_types@UMFSTState@MFST@@@std@@@2@XZ ; std::deque<MFST::MFSTState,std::allocator<MFST::MFSTState> >::_Get_data
  00042	48 8b c8	 mov	 rcx, rax
  00045	e8 00 00 00 00	 call	 ?_Orphan_all@_Container_base12@std@@QEAAXXZ ; std::_Container_base12::_Orphan_all
  0004a	90		 npad	 1

; 1514 :     }

  0004b	48 8d a5 c8 00
	00 00		 lea	 rsp, QWORD PTR [rbp+200]
  00052	5f		 pop	 rdi
  00053	5d		 pop	 rbp
  00054	c3		 ret	 0
?_Orphan_all@?$deque@UMFSTState@MFST@@V?$allocator@UMFSTState@MFST@@@std@@@std@@AEAAXXZ ENDP ; std::deque<MFST::MFSTState,std::allocator<MFST::MFSTState> >::_Orphan_all
_TEXT	ENDS
; Function compile flags: /Odtp /RTCsu /ZI
; File C:\Program Files (x86)\Microsoft Visual Studio\2019\Enterprise\VC\Tools\MSVC\14.27.29110\include\deque
;	COMDAT ?_Getblock@?$deque@UMFSTState@MFST@@V?$allocator@UMFSTState@MFST@@@std@@@std@@AEBA_K_K@Z
_TEXT	SEGMENT
this$ = 224
_Off$ = 232
?_Getblock@?$deque@UMFSTState@MFST@@V?$allocator@UMFSTState@MFST@@@std@@@std@@AEBA_K_K@Z PROC ; std::deque<MFST::MFSTState,std::allocator<MFST::MFSTState> >::_Getblock, COMDAT

; 1508 :     size_type _Getblock(size_type _Off) const noexcept {

$LN3:
  00000	48 89 54 24 10	 mov	 QWORD PTR [rsp+16], rdx
  00005	48 89 4c 24 08	 mov	 QWORD PTR [rsp+8], rcx
  0000a	55		 push	 rbp
  0000b	57		 push	 rdi
  0000c	48 81 ec e8 00
	00 00		 sub	 rsp, 232		; 000000e8H
  00013	48 8d 6c 24 20	 lea	 rbp, QWORD PTR [rsp+32]
  00018	48 8b fc	 mov	 rdi, rsp
  0001b	b9 3a 00 00 00	 mov	 ecx, 58			; 0000003aH
  00020	b8 cc cc cc cc	 mov	 eax, -858993460		; ccccccccH
  00025	f3 ab		 rep stosd
  00027	48 8b 8c 24 08
	01 00 00	 mov	 rcx, QWORD PTR [rsp+264]
  0002f	48 8d 0d 00 00
	00 00		 lea	 rcx, OFFSET FLAT:__1C3F1DC9_deque
  00036	e8 00 00 00 00	 call	 __CheckForDebuggerJustMyCode

; 1509 :         return _Get_data()._Getblock(_Off);

  0003b	48 8b 8d e0 00
	00 00		 mov	 rcx, QWORD PTR this$[rbp]
  00042	e8 00 00 00 00	 call	 ?_Get_data@?$deque@UMFSTState@MFST@@V?$allocator@UMFSTState@MFST@@@std@@@std@@AEBAAEBV?$_Deque_val@U?$_Deque_simple_types@UMFSTState@MFST@@@std@@@2@XZ ; std::deque<MFST::MFSTState,std::allocator<MFST::MFSTState> >::_Get_data
  00047	48 8b 95 e8 00
	00 00		 mov	 rdx, QWORD PTR _Off$[rbp]
  0004e	48 8b c8	 mov	 rcx, rax
  00051	e8 00 00 00 00	 call	 ?_Getblock@?$_Deque_val@U?$_Deque_simple_types@UMFSTState@MFST@@@std@@@std@@QEBA_K_K@Z ; std::_Deque_val<std::_Deque_simple_types<MFST::MFSTState> >::_Getblock
  00056	90		 npad	 1

; 1510 :     }

  00057	48 8d a5 c8 00
	00 00		 lea	 rsp, QWORD PTR [rbp+200]
  0005e	5f		 pop	 rdi
  0005f	5d		 pop	 rbp
  00060	c3		 ret	 0
?_Getblock@?$deque@UMFSTState@MFST@@V?$allocator@UMFSTState@MFST@@@std@@@std@@AEBA_K_K@Z ENDP ; std::deque<MFST::MFSTState,std::allocator<MFST::MFSTState> >::_Getblock
_TEXT	ENDS
; Function compile flags: /Odtp /RTCsu /ZI
; File C:\Program Files (x86)\Microsoft Visual Studio\2019\Enterprise\VC\Tools\MSVC\14.27.29110\include\deque
;	COMDAT ?_Orphan_off@?$deque@UMFSTState@MFST@@V?$allocator@UMFSTState@MFST@@@std@@@std@@AEBAX_K@Z
_TEXT	SEGMENT
_Offhigh$ = 8
_Lock$ = 36
_Pnext$ = 72
_Pnextoff$4 = 104
tv65 = 312
tv71 = 320
__$ArrayPad$ = 328
this$ = 368
_Offlo$ = 376
?_Orphan_off@?$deque@UMFSTState@MFST@@V?$allocator@UMFSTState@MFST@@@std@@@std@@AEBAX_K@Z PROC ; std::deque<MFST::MFSTState,std::allocator<MFST::MFSTState> >::_Orphan_off, COMDAT

; 1488 :     void _Orphan_off(size_type _Offlo) const noexcept { // orphan iterators with specified offset(s)

$LN11:
  00000	48 89 54 24 10	 mov	 QWORD PTR [rsp+16], rdx
  00005	48 89 4c 24 08	 mov	 QWORD PTR [rsp+8], rcx
  0000a	55		 push	 rbp
  0000b	57		 push	 rdi
  0000c	48 81 ec 78 01
	00 00		 sub	 rsp, 376		; 00000178H
  00013	48 8d 6c 24 20	 lea	 rbp, QWORD PTR [rsp+32]
  00018	48 8b fc	 mov	 rdi, rsp
  0001b	b9 5e 00 00 00	 mov	 ecx, 94			; 0000005eH
  00020	b8 cc cc cc cc	 mov	 eax, -858993460		; ccccccccH
  00025	f3 ab		 rep stosd
  00027	48 8b 8c 24 98
	01 00 00	 mov	 rcx, QWORD PTR [rsp+408]
  0002f	48 8b 05 00 00
	00 00		 mov	 rax, QWORD PTR __security_cookie
  00036	48 33 c5	 xor	 rax, rbp
  00039	48 89 85 48 01
	00 00		 mov	 QWORD PTR __$ArrayPad$[rbp], rax
  00040	48 8d 0d 00 00
	00 00		 lea	 rcx, OFFSET FLAT:__1C3F1DC9_deque
  00047	e8 00 00 00 00	 call	 __CheckForDebuggerJustMyCode

; 1489 :         size_type _Offhigh = _Myoff() + _Mysize() <= _Offlo + 1 ? static_cast<size_type>(-1) : _Offlo;

  0004c	48 8b 8d 70 01
	00 00		 mov	 rcx, QWORD PTR this$[rbp]
  00053	e8 00 00 00 00	 call	 ?_Myoff@?$deque@UMFSTState@MFST@@V?$allocator@UMFSTState@MFST@@@std@@@std@@AEBAAEB_KXZ ; std::deque<MFST::MFSTState,std::allocator<MFST::MFSTState> >::_Myoff
  00058	48 89 85 38 01
	00 00		 mov	 QWORD PTR tv65[rbp], rax
  0005f	48 8b 8d 70 01
	00 00		 mov	 rcx, QWORD PTR this$[rbp]
  00066	e8 00 00 00 00	 call	 ?_Mysize@?$deque@UMFSTState@MFST@@V?$allocator@UMFSTState@MFST@@@std@@@std@@AEBAAEB_KXZ ; std::deque<MFST::MFSTState,std::allocator<MFST::MFSTState> >::_Mysize
  0006b	48 8b 8d 38 01
	00 00		 mov	 rcx, QWORD PTR tv65[rbp]
  00072	48 8b 09	 mov	 rcx, QWORD PTR [rcx]
  00075	48 03 08	 add	 rcx, QWORD PTR [rax]
  00078	48 8b c1	 mov	 rax, rcx
  0007b	48 8b 8d 78 01
	00 00		 mov	 rcx, QWORD PTR _Offlo$[rbp]
  00082	48 ff c1	 inc	 rcx
  00085	48 3b c1	 cmp	 rax, rcx
  00088	77 0d		 ja	 SHORT $LN9@Orphan_off
  0008a	48 c7 85 40 01
	00 00 ff ff ff
	ff		 mov	 QWORD PTR tv71[rbp], -1
  00095	eb 0e		 jmp	 SHORT $LN10@Orphan_off
$LN9@Orphan_off:
  00097	48 8b 85 78 01
	00 00		 mov	 rax, QWORD PTR _Offlo$[rbp]
  0009e	48 89 85 40 01
	00 00		 mov	 QWORD PTR tv71[rbp], rax
$LN10@Orphan_off:
  000a5	48 8b 85 40 01
	00 00		 mov	 rax, QWORD PTR tv71[rbp]
  000ac	48 89 45 08	 mov	 QWORD PTR _Offhigh$[rbp], rax

; 1490 :         if (_Offlo == _Myoff()) {

  000b0	48 8b 8d 70 01
	00 00		 mov	 rcx, QWORD PTR this$[rbp]
  000b7	e8 00 00 00 00	 call	 ?_Myoff@?$deque@UMFSTState@MFST@@V?$allocator@UMFSTState@MFST@@@std@@@std@@AEBAAEB_KXZ ; std::deque<MFST::MFSTState,std::allocator<MFST::MFSTState> >::_Myoff
  000bc	48 8b 00	 mov	 rax, QWORD PTR [rax]
  000bf	48 39 85 78 01
	00 00		 cmp	 QWORD PTR _Offlo$[rbp], rax
  000c6	75 0b		 jne	 SHORT $LN4@Orphan_off

; 1491 :             _Offlo = 0;

  000c8	48 c7 85 78 01
	00 00 00 00 00
	00		 mov	 QWORD PTR _Offlo$[rbp], 0
$LN4@Orphan_off:

; 1492 :         }
; 1493 : 
; 1494 :         _Lockit _Lock(_LOCK_DEBUG);

  000d3	ba 03 00 00 00	 mov	 edx, 3
  000d8	48 8d 4d 24	 lea	 rcx, QWORD PTR _Lock$[rbp]
  000dc	ff 15 00 00 00
	00		 call	 QWORD PTR __imp_??0_Lockit@std@@QEAA@H@Z

; 1495 :         _Iterator_base12** _Pnext = &_Get_data()._Myproxy->_Myfirstiter;

  000e2	48 8b 8d 70 01
	00 00		 mov	 rcx, QWORD PTR this$[rbp]
  000e9	e8 00 00 00 00	 call	 ?_Get_data@?$deque@UMFSTState@MFST@@V?$allocator@UMFSTState@MFST@@@std@@@std@@AEBAAEBV?$_Deque_val@U?$_Deque_simple_types@UMFSTState@MFST@@@std@@@2@XZ ; std::deque<MFST::MFSTState,std::allocator<MFST::MFSTState> >::_Get_data
  000ee	48 8b 00	 mov	 rax, QWORD PTR [rax]
  000f1	48 83 c0 08	 add	 rax, 8
  000f5	48 89 45 48	 mov	 QWORD PTR _Pnext$[rbp], rax
$LN2@Orphan_off:

; 1496 :         while (*_Pnext) {

  000f9	48 8b 45 48	 mov	 rax, QWORD PTR _Pnext$[rbp]
  000fd	48 83 38 00	 cmp	 QWORD PTR [rax], 0
  00101	74 59		 je	 SHORT $LN3@Orphan_off

; 1497 :             const auto _Pnextoff = static_cast<const_iterator&>(**_Pnext)._Myoff;

  00103	48 8b 45 48	 mov	 rax, QWORD PTR _Pnext$[rbp]
  00107	48 8b 00	 mov	 rax, QWORD PTR [rax]
  0010a	48 8b 40 10	 mov	 rax, QWORD PTR [rax+16]
  0010e	48 89 45 68	 mov	 QWORD PTR _Pnextoff$4[rbp], rax

; 1498 :             if (_Pnextoff < _Offlo || _Offhigh < _Pnextoff) {

  00112	48 8b 85 78 01
	00 00		 mov	 rax, QWORD PTR _Offlo$[rbp]
  00119	48 39 45 68	 cmp	 QWORD PTR _Pnextoff$4[rbp], rax
  0011d	72 0a		 jb	 SHORT $LN7@Orphan_off
  0011f	48 8b 45 68	 mov	 rax, QWORD PTR _Pnextoff$4[rbp]
  00123	48 39 45 08	 cmp	 QWORD PTR _Offhigh$[rbp], rax
  00127	73 11		 jae	 SHORT $LN5@Orphan_off
$LN7@Orphan_off:

; 1499 :                 _Pnext = &(*_Pnext)->_Mynextiter;

  00129	48 8b 45 48	 mov	 rax, QWORD PTR _Pnext$[rbp]
  0012d	48 8b 00	 mov	 rax, QWORD PTR [rax]
  00130	48 83 c0 08	 add	 rax, 8
  00134	48 89 45 48	 mov	 QWORD PTR _Pnext$[rbp], rax

; 1500 :             } else { // orphan the iterator

  00138	eb 20		 jmp	 SHORT $LN6@Orphan_off
$LN5@Orphan_off:

; 1501 :                 (*_Pnext)->_Myproxy = nullptr;

  0013a	48 8b 45 48	 mov	 rax, QWORD PTR _Pnext$[rbp]
  0013e	48 8b 00	 mov	 rax, QWORD PTR [rax]
  00141	48 c7 00 00 00
	00 00		 mov	 QWORD PTR [rax], 0

; 1502 :                 *_Pnext             = (*_Pnext)->_Mynextiter;

  00148	48 8b 45 48	 mov	 rax, QWORD PTR _Pnext$[rbp]
  0014c	48 8b 00	 mov	 rax, QWORD PTR [rax]
  0014f	48 8b 4d 48	 mov	 rcx, QWORD PTR _Pnext$[rbp]
  00153	48 8b 40 08	 mov	 rax, QWORD PTR [rax+8]
  00157	48 89 01	 mov	 QWORD PTR [rcx], rax
$LN6@Orphan_off:

; 1503 :             }
; 1504 :         }

  0015a	eb 9d		 jmp	 SHORT $LN2@Orphan_off
$LN3@Orphan_off:

; 1505 :     }

  0015c	48 8d 4d 24	 lea	 rcx, QWORD PTR _Lock$[rbp]
  00160	ff 15 00 00 00
	00		 call	 QWORD PTR __imp_??1_Lockit@std@@QEAA@XZ
  00166	48 8d 4d e0	 lea	 rcx, QWORD PTR [rbp-32]
  0016a	48 8d 15 00 00
	00 00		 lea	 rdx, OFFSET FLAT:?_Orphan_off@?$deque@UMFSTState@MFST@@V?$allocator@UMFSTState@MFST@@@std@@@std@@AEBAX_K@Z$rtcFrameData
  00171	e8 00 00 00 00	 call	 _RTC_CheckStackVars
  00176	90		 npad	 1
  00177	48 8b 8d 48 01
	00 00		 mov	 rcx, QWORD PTR __$ArrayPad$[rbp]
  0017e	48 33 cd	 xor	 rcx, rbp
  00181	e8 00 00 00 00	 call	 __security_check_cookie
  00186	48 8d a5 58 01
	00 00		 lea	 rsp, QWORD PTR [rbp+344]
  0018d	5f		 pop	 rdi
  0018e	5d		 pop	 rbp
  0018f	c3		 ret	 0
?_Orphan_off@?$deque@UMFSTState@MFST@@V?$allocator@UMFSTState@MFST@@@std@@@std@@AEBAX_K@Z ENDP ; std::deque<MFST::MFSTState,std::allocator<MFST::MFSTState> >::_Orphan_off
_TEXT	ENDS
; Function compile flags: /Odtp /RTCsu /ZI
; File C:\Program Files (x86)\Microsoft Visual Studio\2019\Enterprise\VC\Tools\MSVC\14.27.29110\include\deque
;	COMDAT ?_Tidy@?$deque@UMFSTState@MFST@@V?$allocator@UMFSTState@MFST@@@std@@@std@@AEAAXXZ
_TEXT	SEGMENT
_Almap$ = 4
_Block$4 = 40
tv145 = 248
tv134 = 248
__$ArrayPad$ = 256
this$ = 304
?_Tidy@?$deque@UMFSTState@MFST@@V?$allocator@UMFSTState@MFST@@@std@@@std@@AEAAXXZ PROC ; std::deque<MFST::MFSTState,std::allocator<MFST::MFSTState> >::_Tidy, COMDAT

; 1464 :     void _Tidy() noexcept { // free all storage

$LN10:
  00000	48 89 4c 24 08	 mov	 QWORD PTR [rsp+8], rcx
  00005	55		 push	 rbp
  00006	57		 push	 rdi
  00007	48 81 ec 38 01
	00 00		 sub	 rsp, 312		; 00000138H
  0000e	48 8d 6c 24 20	 lea	 rbp, QWORD PTR [rsp+32]
  00013	48 8b fc	 mov	 rdi, rsp
  00016	b9 4e 00 00 00	 mov	 ecx, 78			; 0000004eH
  0001b	b8 cc cc cc cc	 mov	 eax, -858993460		; ccccccccH
  00020	f3 ab		 rep stosd
  00022	48 8b 8c 24 58
	01 00 00	 mov	 rcx, QWORD PTR [rsp+344]
  0002a	48 8b 05 00 00
	00 00		 mov	 rax, QWORD PTR __security_cookie
  00031	48 33 c5	 xor	 rax, rbp
  00034	48 89 85 00 01
	00 00		 mov	 QWORD PTR __$ArrayPad$[rbp], rax
  0003b	48 8d 0d 00 00
	00 00		 lea	 rcx, OFFSET FLAT:__1C3F1DC9_deque
  00042	e8 00 00 00 00	 call	 __CheckForDebuggerJustMyCode

; 1465 :         _Orphan_all();

  00047	48 8b 8d 30 01
	00 00		 mov	 rcx, QWORD PTR this$[rbp]
  0004e	e8 00 00 00 00	 call	 ?_Orphan_all@?$deque@UMFSTState@MFST@@V?$allocator@UMFSTState@MFST@@@std@@@std@@AEAAXXZ ; std::deque<MFST::MFSTState,std::allocator<MFST::MFSTState> >::_Orphan_all

; 1466 : 
; 1467 :         _Alpty _Almap(_Getal());

  00053	48 8b 8d 30 01
	00 00		 mov	 rcx, QWORD PTR this$[rbp]
  0005a	e8 00 00 00 00	 call	 ?_Getal@?$deque@UMFSTState@MFST@@V?$allocator@UMFSTState@MFST@@@std@@@std@@AEAAAEAV?$allocator@UMFSTState@MFST@@@2@XZ ; std::deque<MFST::MFSTState,std::allocator<MFST::MFSTState> >::_Getal
  0005f	48 8b d0	 mov	 rdx, rax
  00062	48 8d 4d 04	 lea	 rcx, QWORD PTR _Almap$[rbp]
  00066	e8 00 00 00 00	 call	 ??$?0UMFSTState@MFST@@@?$allocator@PEAUMFSTState@MFST@@@std@@QEAA@AEBV?$allocator@UMFSTState@MFST@@@1@@Z ; std::allocator<MFST::MFSTState *>::allocator<MFST::MFSTState *><MFST::MFSTState>
$LN2@Tidy:

; 1468 :         while (!empty()) {

  0006b	48 8b 8d 30 01
	00 00		 mov	 rcx, QWORD PTR this$[rbp]
  00072	e8 00 00 00 00	 call	 ?empty@?$deque@UMFSTState@MFST@@V?$allocator@UMFSTState@MFST@@@std@@@std@@QEBA_NXZ ; std::deque<MFST::MFSTState,std::allocator<MFST::MFSTState> >::empty
  00077	0f b6 c0	 movzx	 eax, al
  0007a	85 c0		 test	 eax, eax
  0007c	75 0e		 jne	 SHORT $LN3@Tidy

; 1469 :             pop_back();

  0007e	48 8b 8d 30 01
	00 00		 mov	 rcx, QWORD PTR this$[rbp]
  00085	e8 00 00 00 00	 call	 ?pop_back@?$deque@UMFSTState@MFST@@V?$allocator@UMFSTState@MFST@@@std@@@std@@QEAAXXZ ; std::deque<MFST::MFSTState,std::allocator<MFST::MFSTState> >::pop_back

; 1470 :         }

  0008a	eb df		 jmp	 SHORT $LN2@Tidy
$LN3@Tidy:

; 1471 : 
; 1472 :         for (size_type _Block = _Mapsize(); 0 < _Block;) { // free storage for a block and destroy pointer

  0008c	48 8b 8d 30 01
	00 00		 mov	 rcx, QWORD PTR this$[rbp]
  00093	e8 00 00 00 00	 call	 ?_Mapsize@?$deque@UMFSTState@MFST@@V?$allocator@UMFSTState@MFST@@@std@@@std@@AEAAAEA_KXZ ; std::deque<MFST::MFSTState,std::allocator<MFST::MFSTState> >::_Mapsize
  00098	48 8b 00	 mov	 rax, QWORD PTR [rax]
  0009b	48 89 45 28	 mov	 QWORD PTR _Block$4[rbp], rax
$LN4@Tidy:
  0009f	48 83 7d 28 00	 cmp	 QWORD PTR _Block$4[rbp], 0
  000a4	0f 86 88 00 00
	00		 jbe	 $LN5@Tidy

; 1473 :             if (_Map()[--_Block]) { // free block and destroy its pointer

  000aa	48 8b 45 28	 mov	 rax, QWORD PTR _Block$4[rbp]
  000ae	48 ff c8	 dec	 rax
  000b1	48 89 45 28	 mov	 QWORD PTR _Block$4[rbp], rax
  000b5	48 8b 8d 30 01
	00 00		 mov	 rcx, QWORD PTR this$[rbp]
  000bc	e8 00 00 00 00	 call	 ?_Map@?$deque@UMFSTState@MFST@@V?$allocator@UMFSTState@MFST@@@std@@@std@@AEAAAEAPEAPEAUMFSTState@MFST@@XZ ; std::deque<MFST::MFSTState,std::allocator<MFST::MFSTState> >::_Map
  000c1	48 8b 00	 mov	 rax, QWORD PTR [rax]
  000c4	48 8b 4d 28	 mov	 rcx, QWORD PTR _Block$4[rbp]
  000c8	48 83 3c c8 00	 cmp	 QWORD PTR [rax+rcx*8], 0
  000cd	74 5e		 je	 SHORT $LN7@Tidy

; 1474 :                 _Getal().deallocate(_Map()[_Block], _DEQUESIZ);

  000cf	48 8b 8d 30 01
	00 00		 mov	 rcx, QWORD PTR this$[rbp]
  000d6	e8 00 00 00 00	 call	 ?_Map@?$deque@UMFSTState@MFST@@V?$allocator@UMFSTState@MFST@@@std@@@std@@AEAAAEAPEAPEAUMFSTState@MFST@@XZ ; std::deque<MFST::MFSTState,std::allocator<MFST::MFSTState> >::_Map
  000db	48 8b 00	 mov	 rax, QWORD PTR [rax]
  000de	48 89 85 f8 00
	00 00		 mov	 QWORD PTR tv145[rbp], rax
  000e5	48 8b 8d 30 01
	00 00		 mov	 rcx, QWORD PTR this$[rbp]
  000ec	e8 00 00 00 00	 call	 ?_Getal@?$deque@UMFSTState@MFST@@V?$allocator@UMFSTState@MFST@@@std@@@std@@AEAAAEAV?$allocator@UMFSTState@MFST@@@2@XZ ; std::deque<MFST::MFSTState,std::allocator<MFST::MFSTState> >::_Getal
  000f1	41 b8 01 00 00
	00		 mov	 r8d, 1
  000f7	48 8b 4d 28	 mov	 rcx, QWORD PTR _Block$4[rbp]
  000fb	48 8b 95 f8 00
	00 00		 mov	 rdx, QWORD PTR tv145[rbp]
  00102	48 8b 14 ca	 mov	 rdx, QWORD PTR [rdx+rcx*8]
  00106	48 8b c8	 mov	 rcx, rax
  00109	e8 00 00 00 00	 call	 ?deallocate@?$allocator@UMFSTState@MFST@@@std@@QEAAXQEAUMFSTState@MFST@@_K@Z ; std::allocator<MFST::MFSTState>::deallocate

; 1475 :                 _Destroy_in_place(_Map()[_Block]);

  0010e	48 8b 8d 30 01
	00 00		 mov	 rcx, QWORD PTR this$[rbp]
  00115	e8 00 00 00 00	 call	 ?_Map@?$deque@UMFSTState@MFST@@V?$allocator@UMFSTState@MFST@@@std@@@std@@AEAAAEAPEAPEAUMFSTState@MFST@@XZ ; std::deque<MFST::MFSTState,std::allocator<MFST::MFSTState> >::_Map
  0011a	48 8b 00	 mov	 rax, QWORD PTR [rax]
  0011d	48 8b 4d 28	 mov	 rcx, QWORD PTR _Block$4[rbp]
  00121	48 8d 04 c8	 lea	 rax, QWORD PTR [rax+rcx*8]
  00125	48 8b c8	 mov	 rcx, rax
  00128	e8 00 00 00 00	 call	 ??$_Destroy_in_place@PEAUMFSTState@MFST@@@std@@YAXAEAPEAUMFSTState@MFST@@@Z ; std::_Destroy_in_place<MFST::MFSTState *>
$LN7@Tidy:

; 1476 :             }
; 1477 :         }

  0012d	e9 6d ff ff ff	 jmp	 $LN4@Tidy
$LN5@Tidy:

; 1478 : 
; 1479 :         if (_Map() != _Mapptr()) {

  00132	48 8b 8d 30 01
	00 00		 mov	 rcx, QWORD PTR this$[rbp]
  00139	e8 00 00 00 00	 call	 ?_Map@?$deque@UMFSTState@MFST@@V?$allocator@UMFSTState@MFST@@@std@@@std@@AEAAAEAPEAPEAUMFSTState@MFST@@XZ ; std::deque<MFST::MFSTState,std::allocator<MFST::MFSTState> >::_Map
  0013e	48 83 38 00	 cmp	 QWORD PTR [rax], 0
  00142	74 35		 je	 SHORT $LN8@Tidy

; 1480 :             _Almap.deallocate(_Map(), _Mapsize()); // free storage for map

  00144	48 8b 8d 30 01
	00 00		 mov	 rcx, QWORD PTR this$[rbp]
  0014b	e8 00 00 00 00	 call	 ?_Mapsize@?$deque@UMFSTState@MFST@@V?$allocator@UMFSTState@MFST@@@std@@@std@@AEAAAEA_KXZ ; std::deque<MFST::MFSTState,std::allocator<MFST::MFSTState> >::_Mapsize
  00150	48 89 85 f8 00
	00 00		 mov	 QWORD PTR tv134[rbp], rax
  00157	48 8b 8d 30 01
	00 00		 mov	 rcx, QWORD PTR this$[rbp]
  0015e	e8 00 00 00 00	 call	 ?_Map@?$deque@UMFSTState@MFST@@V?$allocator@UMFSTState@MFST@@@std@@@std@@AEAAAEAPEAPEAUMFSTState@MFST@@XZ ; std::deque<MFST::MFSTState,std::allocator<MFST::MFSTState> >::_Map
  00163	48 8b 8d f8 00
	00 00		 mov	 rcx, QWORD PTR tv134[rbp]
  0016a	4c 8b 01	 mov	 r8, QWORD PTR [rcx]
  0016d	48 8b 10	 mov	 rdx, QWORD PTR [rax]
  00170	48 8d 4d 04	 lea	 rcx, QWORD PTR _Almap$[rbp]
  00174	e8 00 00 00 00	 call	 ?deallocate@?$allocator@PEAUMFSTState@MFST@@@std@@QEAAXQEAPEAUMFSTState@MFST@@_K@Z ; std::allocator<MFST::MFSTState *>::deallocate
$LN8@Tidy:

; 1481 :         }
; 1482 : 
; 1483 :         _Mapsize() = 0;

  00179	48 8b 8d 30 01
	00 00		 mov	 rcx, QWORD PTR this$[rbp]
  00180	e8 00 00 00 00	 call	 ?_Mapsize@?$deque@UMFSTState@MFST@@V?$allocator@UMFSTState@MFST@@@std@@@std@@AEAAAEA_KXZ ; std::deque<MFST::MFSTState,std::allocator<MFST::MFSTState> >::_Mapsize
  00185	48 c7 00 00 00
	00 00		 mov	 QWORD PTR [rax], 0

; 1484 :         _Map()     = _Mapptr();

  0018c	48 8b 8d 30 01
	00 00		 mov	 rcx, QWORD PTR this$[rbp]
  00193	e8 00 00 00 00	 call	 ?_Map@?$deque@UMFSTState@MFST@@V?$allocator@UMFSTState@MFST@@@std@@@std@@AEAAAEAPEAPEAUMFSTState@MFST@@XZ ; std::deque<MFST::MFSTState,std::allocator<MFST::MFSTState> >::_Map
  00198	48 c7 00 00 00
	00 00		 mov	 QWORD PTR [rax], 0

; 1485 :     }

  0019f	48 8d 4d e0	 lea	 rcx, QWORD PTR [rbp-32]
  001a3	48 8d 15 00 00
	00 00		 lea	 rdx, OFFSET FLAT:?_Tidy@?$deque@UMFSTState@MFST@@V?$allocator@UMFSTState@MFST@@@std@@@std@@AEAAXXZ$rtcFrameData
  001aa	e8 00 00 00 00	 call	 _RTC_CheckStackVars
  001af	90		 npad	 1
  001b0	48 8b 8d 00 01
	00 00		 mov	 rcx, QWORD PTR __$ArrayPad$[rbp]
  001b7	48 33 cd	 xor	 rcx, rbp
  001ba	e8 00 00 00 00	 call	 __security_check_cookie
  001bf	48 8d a5 18 01
	00 00		 lea	 rsp, QWORD PTR [rbp+280]
  001c6	5f		 pop	 rdi
  001c7	5d		 pop	 rbp
  001c8	c3		 ret	 0
?_Tidy@?$deque@UMFSTState@MFST@@V?$allocator@UMFSTState@MFST@@@std@@@std@@AEAAXXZ ENDP ; std::deque<MFST::MFSTState,std::allocator<MFST::MFSTState> >::_Tidy
_TEXT	ENDS
; Function compile flags: /Odtp /RTCsu /ZI
; File C:\Program Files (x86)\Microsoft Visual Studio\2019\Enterprise\VC\Tools\MSVC\14.27.29110\include\deque
;	COMDAT ?pop_back@?$deque@UMFSTState@MFST@@V?$allocator@UMFSTState@MFST@@@std@@@std@@QEAAXXZ
_TEXT	SEGMENT
_Newoff$1 = 8
_Block$2 = 40
tv141 = 248
tv94 = 248
tv84 = 248
this$ = 288
?pop_back@?$deque@UMFSTState@MFST@@V?$allocator@UMFSTState@MFST@@@std@@@std@@QEAAXXZ PROC ; std::deque<MFST::MFSTState,std::allocator<MFST::MFSTState> >::pop_back, COMDAT

; 1125 :     void pop_back() noexcept /* strengthened */ {

$LN10:
  00000	48 89 4c 24 08	 mov	 QWORD PTR [rsp+8], rcx
  00005	55		 push	 rbp
  00006	57		 push	 rdi
  00007	48 81 ec 38 01
	00 00		 sub	 rsp, 312		; 00000138H
  0000e	48 8d 6c 24 30	 lea	 rbp, QWORD PTR [rsp+48]
  00013	48 8b fc	 mov	 rdi, rsp
  00016	b9 4e 00 00 00	 mov	 ecx, 78			; 0000004eH
  0001b	b8 cc cc cc cc	 mov	 eax, -858993460		; ccccccccH
  00020	f3 ab		 rep stosd
  00022	48 8b 8c 24 58
	01 00 00	 mov	 rcx, QWORD PTR [rsp+344]
  0002a	48 8d 0d 00 00
	00 00		 lea	 rcx, OFFSET FLAT:__1C3F1DC9_deque
  00031	e8 00 00 00 00	 call	 __CheckForDebuggerJustMyCode

; 1126 : #if _ITERATOR_DEBUG_LEVEL == 2
; 1127 :         if (empty()) {

  00036	48 8b 8d 20 01
	00 00		 mov	 rcx, QWORD PTR this$[rbp]
  0003d	e8 00 00 00 00	 call	 ?empty@?$deque@UMFSTState@MFST@@V?$allocator@UMFSTState@MFST@@@std@@@std@@QEBA_NXZ ; std::deque<MFST::MFSTState,std::allocator<MFST::MFSTState> >::empty
  00042	0f b6 c0	 movzx	 eax, al
  00045	85 c0		 test	 eax, eax
  00047	74 70		 je	 SHORT $LN5@pop_back
$LN4@pop_back:

; 1128 :             _STL_REPORT_ERROR("deque empty before pop");

  00049	48 8d 05 00 00
	00 00		 lea	 rax, OFFSET FLAT:??_C@_0BH@EDKEEENI@deque?5empty?5before?5pop@
  00050	48 89 44 24 28	 mov	 QWORD PTR [rsp+40], rax
  00055	48 8d 05 00 00
	00 00		 lea	 rax, OFFSET FLAT:??_C@_02DKCKIIND@?$CFs@
  0005c	48 89 44 24 20	 mov	 QWORD PTR [rsp+32], rax
  00061	45 33 c9	 xor	 r9d, r9d
  00064	41 b8 68 04 00
	00		 mov	 r8d, 1128		; 00000468H
  0006a	48 8d 15 00 00
	00 00		 lea	 rdx, OFFSET FLAT:??_C@_0GH@OBALDB@C?3?2Program?5Files?5?$CIx86?$CJ?2Microsof@
  00071	b9 02 00 00 00	 mov	 ecx, 2
  00076	ff 15 00 00 00
	00		 call	 QWORD PTR __imp__CrtDbgReport
  0007c	83 f8 01	 cmp	 eax, 1
  0007f	75 03		 jne	 SHORT $LN9@pop_back
  00081	cc		 int	 3
  00082	33 c0		 xor	 eax, eax
$LN9@pop_back:
  00084	48 c7 44 24 20
	00 00 00 00	 mov	 QWORD PTR [rsp+32], 0
  0008d	41 b9 68 04 00
	00		 mov	 r9d, 1128		; 00000468H
  00093	4c 8d 05 00 00
	00 00		 lea	 r8, OFFSET FLAT:??_C@_1MO@ONLEFNNG@?$AAC?$AA?3?$AA?2?$AAP?$AAr?$AAo?$AAg?$AAr?$AAa?$AAm?$AA?5?$AAF?$AAi?$AAl?$AAe@
  0009a	48 8d 15 00 00
	00 00		 lea	 rdx, OFFSET FLAT:??_C@_1LG@NKGJEFF@?$AAs?$AAt?$AAd?$AA?3?$AA?3?$AAd?$AAe?$AAq?$AAu?$AAe?$AA?$DM?$AAs?$AAt?$AAr?$AAu@
  000a1	48 8d 0d 00 00
	00 00		 lea	 rcx, OFFSET FLAT:??_C@_1DC@NJAACHCD@?$AA?$CC?$AAd?$AAe?$AAq?$AAu?$AAe?$AA?5?$AAe?$AAm?$AAp?$AAt?$AAy?$AA?5?$AAb?$AAe@
  000a8	ff 15 00 00 00
	00		 call	 QWORD PTR __imp__invalid_parameter
  000ae	33 c0		 xor	 eax, eax
  000b0	85 c0		 test	 eax, eax
  000b2	75 95		 jne	 SHORT $LN4@pop_back

; 1129 :         } else { // something to erase, do it

  000b4	e9 f0 00 00 00	 jmp	 $LN6@pop_back
$LN5@pop_back:

; 1130 :             size_type _Newoff = _Myoff() + _Mysize() - 1;

  000b9	48 8b 8d 20 01
	00 00		 mov	 rcx, QWORD PTR this$[rbp]
  000c0	e8 00 00 00 00	 call	 ?_Myoff@?$deque@UMFSTState@MFST@@V?$allocator@UMFSTState@MFST@@@std@@@std@@AEAAAEA_KXZ ; std::deque<MFST::MFSTState,std::allocator<MFST::MFSTState> >::_Myoff
  000c5	48 89 85 f8 00
	00 00		 mov	 QWORD PTR tv84[rbp], rax
  000cc	48 8b 8d 20 01
	00 00		 mov	 rcx, QWORD PTR this$[rbp]
  000d3	e8 00 00 00 00	 call	 ?_Mysize@?$deque@UMFSTState@MFST@@V?$allocator@UMFSTState@MFST@@@std@@@std@@AEAAAEA_KXZ ; std::deque<MFST::MFSTState,std::allocator<MFST::MFSTState> >::_Mysize
  000d8	48 8b 8d f8 00
	00 00		 mov	 rcx, QWORD PTR tv84[rbp]
  000df	48 8b 09	 mov	 rcx, QWORD PTR [rcx]
  000e2	48 8b 00	 mov	 rax, QWORD PTR [rax]
  000e5	48 8d 44 01 ff	 lea	 rax, QWORD PTR [rcx+rax-1]
  000ea	48 89 45 08	 mov	 QWORD PTR _Newoff$1[rbp], rax

; 1131 :             _Orphan_off(_Newoff);

  000ee	48 8b 55 08	 mov	 rdx, QWORD PTR _Newoff$1[rbp]
  000f2	48 8b 8d 20 01
	00 00		 mov	 rcx, QWORD PTR this$[rbp]
  000f9	e8 00 00 00 00	 call	 ?_Orphan_off@?$deque@UMFSTState@MFST@@V?$allocator@UMFSTState@MFST@@@std@@@std@@AEBAX_K@Z ; std::deque<MFST::MFSTState,std::allocator<MFST::MFSTState> >::_Orphan_off

; 1132 :             size_type _Block = _Getblock(_Newoff);

  000fe	48 8b 55 08	 mov	 rdx, QWORD PTR _Newoff$1[rbp]
  00102	48 8b 8d 20 01
	00 00		 mov	 rcx, QWORD PTR this$[rbp]
  00109	e8 00 00 00 00	 call	 ?_Getblock@?$deque@UMFSTState@MFST@@V?$allocator@UMFSTState@MFST@@@std@@@std@@AEBA_K_K@Z ; std::deque<MFST::MFSTState,std::allocator<MFST::MFSTState> >::_Getblock
  0010e	48 89 45 28	 mov	 QWORD PTR _Block$2[rbp], rax

; 1133 :             _Alty_traits::destroy(_Getal(), _Unfancy(_Map()[_Block] + _Newoff % _DEQUESIZ));

  00112	48 8b 8d 20 01
	00 00		 mov	 rcx, QWORD PTR this$[rbp]
  00119	e8 00 00 00 00	 call	 ?_Map@?$deque@UMFSTState@MFST@@V?$allocator@UMFSTState@MFST@@@std@@@std@@AEAAAEAPEAPEAUMFSTState@MFST@@XZ ; std::deque<MFST::MFSTState,std::allocator<MFST::MFSTState> >::_Map
  0011e	48 8b 00	 mov	 rax, QWORD PTR [rax]
  00121	33 c9		 xor	 ecx, ecx
  00123	48 6b c9 30	 imul	 rcx, rcx, 48		; 00000030H
  00127	48 8b 55 28	 mov	 rdx, QWORD PTR _Block$2[rbp]
  0012b	48 03 0c d0	 add	 rcx, QWORD PTR [rax+rdx*8]
  0012f	48 8b c1	 mov	 rax, rcx
  00132	48 8b c8	 mov	 rcx, rax
  00135	e8 00 00 00 00	 call	 ??$_Unfancy@UMFSTState@MFST@@@std@@YAPEAUMFSTState@MFST@@PEAU12@@Z ; std::_Unfancy<MFST::MFSTState>
  0013a	48 89 85 f8 00
	00 00		 mov	 QWORD PTR tv94[rbp], rax
  00141	48 8b 8d 20 01
	00 00		 mov	 rcx, QWORD PTR this$[rbp]
  00148	e8 00 00 00 00	 call	 ?_Getal@?$deque@UMFSTState@MFST@@V?$allocator@UMFSTState@MFST@@@std@@@std@@AEAAAEAV?$allocator@UMFSTState@MFST@@@2@XZ ; std::deque<MFST::MFSTState,std::allocator<MFST::MFSTState> >::_Getal
  0014d	48 8b 8d f8 00
	00 00		 mov	 rcx, QWORD PTR tv94[rbp]
  00154	48 8b d1	 mov	 rdx, rcx
  00157	48 8b c8	 mov	 rcx, rax
  0015a	e8 00 00 00 00	 call	 ??$destroy@UMFSTState@MFST@@@?$_Default_allocator_traits@V?$allocator@UMFSTState@MFST@@@std@@@std@@SAXAEAV?$allocator@UMFSTState@MFST@@@1@QEAUMFSTState@MFST@@@Z ; std::_Default_allocator_traits<std::allocator<MFST::MFSTState> >::destroy<MFST::MFSTState>

; 1134 :             if (--_Mysize() == 0) {

  0015f	48 8b 8d 20 01
	00 00		 mov	 rcx, QWORD PTR this$[rbp]
  00166	e8 00 00 00 00	 call	 ?_Mysize@?$deque@UMFSTState@MFST@@V?$allocator@UMFSTState@MFST@@@std@@@std@@AEAAAEA_KXZ ; std::deque<MFST::MFSTState,std::allocator<MFST::MFSTState> >::_Mysize
  0016b	48 89 85 f8 00
	00 00		 mov	 QWORD PTR tv141[rbp], rax
  00172	48 8b 85 f8 00
	00 00		 mov	 rax, QWORD PTR tv141[rbp]
  00179	48 8b 00	 mov	 rax, QWORD PTR [rax]
  0017c	48 ff c8	 dec	 rax
  0017f	48 8b 8d f8 00
	00 00		 mov	 rcx, QWORD PTR tv141[rbp]
  00186	48 89 01	 mov	 QWORD PTR [rcx], rax
  00189	48 8b 85 f8 00
	00 00		 mov	 rax, QWORD PTR tv141[rbp]
  00190	48 83 38 00	 cmp	 QWORD PTR [rax], 0
  00194	75 13		 jne	 SHORT $LN6@pop_back

; 1135 :                 _Myoff() = 0;

  00196	48 8b 8d 20 01
	00 00		 mov	 rcx, QWORD PTR this$[rbp]
  0019d	e8 00 00 00 00	 call	 ?_Myoff@?$deque@UMFSTState@MFST@@V?$allocator@UMFSTState@MFST@@@std@@@std@@AEAAAEA_KXZ ; std::deque<MFST::MFSTState,std::allocator<MFST::MFSTState> >::_Myoff
  001a2	48 c7 00 00 00
	00 00		 mov	 QWORD PTR [rax], 0
$LN6@pop_back:

; 1136 :             }
; 1137 :         }
; 1138 : 
; 1139 : #else // _ITERATOR_DEBUG_LEVEL == 2
; 1140 :         size_type _Newoff = _Myoff() + _Mysize() - 1;
; 1141 :         size_type _Block  = _Getblock(_Newoff);
; 1142 :         _Alty_traits::destroy(_Getal(), _Unfancy(_Map()[_Block] + _Newoff % _DEQUESIZ));
; 1143 :         if (--_Mysize() == 0) {
; 1144 :             _Myoff() = 0;
; 1145 :         }
; 1146 : #endif // _ITERATOR_DEBUG_LEVEL == 2
; 1147 :     }

  001a9	48 8d a5 08 01
	00 00		 lea	 rsp, QWORD PTR [rbp+264]
  001b0	5f		 pop	 rdi
  001b1	5d		 pop	 rbp
  001b2	c3		 ret	 0
?pop_back@?$deque@UMFSTState@MFST@@V?$allocator@UMFSTState@MFST@@@std@@@std@@QEAAXXZ ENDP ; std::deque<MFST::MFSTState,std::allocator<MFST::MFSTState> >::pop_back
_TEXT	ENDS
; Function compile flags: /Odtp /RTCsu /ZI
; File C:\Program Files (x86)\Microsoft Visual Studio\2019\Enterprise\VC\Tools\MSVC\14.27.29110\include\deque
;	COMDAT ?empty@?$deque@UMFSTState@MFST@@V?$allocator@UMFSTState@MFST@@@std@@@std@@QEBA_NXZ
_TEXT	SEGMENT
tv67 = 192
this$ = 240
?empty@?$deque@UMFSTState@MFST@@V?$allocator@UMFSTState@MFST@@@std@@@std@@QEBA_NXZ PROC ; std::deque<MFST::MFSTState,std::allocator<MFST::MFSTState> >::empty, COMDAT

; 1008 :     _NODISCARD bool empty() const noexcept {

$LN5:
  00000	48 89 4c 24 08	 mov	 QWORD PTR [rsp+8], rcx
  00005	55		 push	 rbp
  00006	57		 push	 rdi
  00007	48 81 ec f8 00
	00 00		 sub	 rsp, 248		; 000000f8H
  0000e	48 8d 6c 24 20	 lea	 rbp, QWORD PTR [rsp+32]
  00013	48 8b fc	 mov	 rdi, rsp
  00016	b9 3e 00 00 00	 mov	 ecx, 62			; 0000003eH
  0001b	b8 cc cc cc cc	 mov	 eax, -858993460		; ccccccccH
  00020	f3 ab		 rep stosd
  00022	48 8b 8c 24 18
	01 00 00	 mov	 rcx, QWORD PTR [rsp+280]
  0002a	48 8d 0d 00 00
	00 00		 lea	 rcx, OFFSET FLAT:__1C3F1DC9_deque
  00031	e8 00 00 00 00	 call	 __CheckForDebuggerJustMyCode

; 1009 :         return _Mysize() == 0;

  00036	48 8b 8d f0 00
	00 00		 mov	 rcx, QWORD PTR this$[rbp]
  0003d	e8 00 00 00 00	 call	 ?_Mysize@?$deque@UMFSTState@MFST@@V?$allocator@UMFSTState@MFST@@@std@@@std@@AEBAAEB_KXZ ; std::deque<MFST::MFSTState,std::allocator<MFST::MFSTState> >::_Mysize
  00042	48 83 38 00	 cmp	 QWORD PTR [rax], 0
  00046	75 0c		 jne	 SHORT $LN3@empty
  00048	c7 85 c0 00 00
	00 01 00 00 00	 mov	 DWORD PTR tv67[rbp], 1
  00052	eb 0a		 jmp	 SHORT $LN4@empty
$LN3@empty:
  00054	c7 85 c0 00 00
	00 00 00 00 00	 mov	 DWORD PTR tv67[rbp], 0
$LN4@empty:
  0005e	0f b6 85 c0 00
	00 00		 movzx	 eax, BYTE PTR tv67[rbp]

; 1010 :     }

  00065	48 8d a5 d8 00
	00 00		 lea	 rsp, QWORD PTR [rbp+216]
  0006c	5f		 pop	 rdi
  0006d	5d		 pop	 rbp
  0006e	c3		 ret	 0
?empty@?$deque@UMFSTState@MFST@@V?$allocator@UMFSTState@MFST@@@std@@@std@@QEBA_NXZ ENDP ; std::deque<MFST::MFSTState,std::allocator<MFST::MFSTState> >::empty
_TEXT	ENDS
; Function compile flags: /Odtp /RTCsu /ZI
; File C:\Program Files (x86)\Microsoft Visual Studio\2019\Enterprise\VC\Tools\MSVC\14.27.29110\include\deque
;	COMDAT ??1?$deque@UMFSTState@MFST@@V?$allocator@UMFSTState@MFST@@@std@@@std@@QEAA@XZ
_TEXT	SEGMENT
_Proxy_allocator$ = 4
$T4 = 228
__$ArrayPad$ = 248
this$ = 288
??1?$deque@UMFSTState@MFST@@V?$allocator@UMFSTState@MFST@@@std@@@std@@QEAA@XZ PROC ; std::deque<MFST::MFSTState,std::allocator<MFST::MFSTState> >::~deque<MFST::MFSTState,std::allocator<MFST::MFSTState> >, COMDAT

; 868  :     ~deque() noexcept {

$LN3:
  00000	48 89 4c 24 08	 mov	 QWORD PTR [rsp+8], rcx
  00005	55		 push	 rbp
  00006	57		 push	 rdi
  00007	48 81 ec 28 01
	00 00		 sub	 rsp, 296		; 00000128H
  0000e	48 8d 6c 24 20	 lea	 rbp, QWORD PTR [rsp+32]
  00013	48 8b fc	 mov	 rdi, rsp
  00016	b9 4a 00 00 00	 mov	 ecx, 74			; 0000004aH
  0001b	b8 cc cc cc cc	 mov	 eax, -858993460		; ccccccccH
  00020	f3 ab		 rep stosd
  00022	48 8b 8c 24 48
	01 00 00	 mov	 rcx, QWORD PTR [rsp+328]
  0002a	48 8b 05 00 00
	00 00		 mov	 rax, QWORD PTR __security_cookie
  00031	48 33 c5	 xor	 rax, rbp
  00034	48 89 85 f8 00
	00 00		 mov	 QWORD PTR __$ArrayPad$[rbp], rax
  0003b	48 8d 0d 00 00
	00 00		 lea	 rcx, OFFSET FLAT:__1C3F1DC9_deque
  00042	e8 00 00 00 00	 call	 __CheckForDebuggerJustMyCode

; 869  :         _Tidy();

  00047	48 8b 8d 20 01
	00 00		 mov	 rcx, QWORD PTR this$[rbp]
  0004e	e8 00 00 00 00	 call	 ?_Tidy@?$deque@UMFSTState@MFST@@V?$allocator@UMFSTState@MFST@@@std@@@std@@AEAAXXZ ; std::deque<MFST::MFSTState,std::allocator<MFST::MFSTState> >::_Tidy

; 870  :         _Alproxy_ty _Proxy_allocator(_Getal());

  00053	48 8b 8d 20 01
	00 00		 mov	 rcx, QWORD PTR this$[rbp]
  0005a	e8 00 00 00 00	 call	 ?_Getal@?$deque@UMFSTState@MFST@@V?$allocator@UMFSTState@MFST@@@std@@@std@@AEAAAEAV?$allocator@UMFSTState@MFST@@@2@XZ ; std::deque<MFST::MFSTState,std::allocator<MFST::MFSTState> >::_Getal
  0005f	48 8b d0	 mov	 rdx, rax
  00062	48 8d 4d 04	 lea	 rcx, QWORD PTR _Proxy_allocator$[rbp]
  00066	e8 00 00 00 00	 call	 ??$?0UMFSTState@MFST@@@?$allocator@U_Container_proxy@std@@@std@@QEAA@AEBV?$allocator@UMFSTState@MFST@@@1@@Z ; std::allocator<std::_Container_proxy>::allocator<std::_Container_proxy><MFST::MFSTState>

; 871  :         _Delete_plain_internal(_Proxy_allocator, _STD exchange(_Get_data()._Myproxy, nullptr));

  0006b	48 c7 85 e4 00
	00 00 00 00 00
	00		 mov	 QWORD PTR $T4[rbp], 0
  00076	48 8b 8d 20 01
	00 00		 mov	 rcx, QWORD PTR this$[rbp]
  0007d	e8 00 00 00 00	 call	 ?_Get_data@?$deque@UMFSTState@MFST@@V?$allocator@UMFSTState@MFST@@@std@@@std@@AEAAAEAV?$_Deque_val@U?$_Deque_simple_types@UMFSTState@MFST@@@std@@@2@XZ ; std::deque<MFST::MFSTState,std::allocator<MFST::MFSTState> >::_Get_data
  00082	48 8d 95 e4 00
	00 00		 lea	 rdx, QWORD PTR $T4[rbp]
  00089	48 8b c8	 mov	 rcx, rax
  0008c	e8 00 00 00 00	 call	 ??$exchange@PEAU_Container_proxy@std@@$$T@std@@YAPEAU_Container_proxy@0@AEAPEAU10@$$QEA$$T@Z ; std::exchange<std::_Container_proxy *,std::nullptr_t>
  00091	48 8b d0	 mov	 rdx, rax
  00094	48 8d 4d 04	 lea	 rcx, QWORD PTR _Proxy_allocator$[rbp]
  00098	e8 00 00 00 00	 call	 ??$_Delete_plain_internal@V?$allocator@U_Container_proxy@std@@@std@@@std@@YAXAEAV?$allocator@U_Container_proxy@std@@@0@QEAU_Container_proxy@0@@Z ; std::_Delete_plain_internal<std::allocator<std::_Container_proxy> >

; 872  :     }

  0009d	48 8d 4d e0	 lea	 rcx, QWORD PTR [rbp-32]
  000a1	48 8d 15 00 00
	00 00		 lea	 rdx, OFFSET FLAT:??1?$deque@UMFSTState@MFST@@V?$allocator@UMFSTState@MFST@@@std@@@std@@QEAA@XZ$rtcFrameData
  000a8	e8 00 00 00 00	 call	 _RTC_CheckStackVars
  000ad	90		 npad	 1
  000ae	48 8b 8d f8 00
	00 00		 mov	 rcx, QWORD PTR __$ArrayPad$[rbp]
  000b5	48 33 cd	 xor	 rcx, rbp
  000b8	e8 00 00 00 00	 call	 __security_check_cookie
  000bd	48 8d a5 08 01
	00 00		 lea	 rsp, QWORD PTR [rbp+264]
  000c4	5f		 pop	 rdi
  000c5	5d		 pop	 rbp
  000c6	c3		 ret	 0
??1?$deque@UMFSTState@MFST@@V?$allocator@UMFSTState@MFST@@@std@@@std@@QEAA@XZ ENDP ; std::deque<MFST::MFSTState,std::allocator<MFST::MFSTState> >::~deque<MFST::MFSTState,std::allocator<MFST::MFSTState> >
_TEXT	ENDS
; Function compile flags: /Odtp /RTCsu /ZI
; File C:\Program Files (x86)\Microsoft Visual Studio\2019\Enterprise\VC\Tools\MSVC\14.27.29110\include\xmemory
;	COMDAT ?deallocate@?$allocator@PEAUMFSTState@MFST@@@std@@QEAAXQEAPEAUMFSTState@MFST@@_K@Z
_TEXT	SEGMENT
this$ = 224
_Ptr$ = 232
_Count$ = 240
?deallocate@?$allocator@PEAUMFSTState@MFST@@@std@@QEAAXQEAPEAUMFSTState@MFST@@_K@Z PROC ; std::allocator<MFST::MFSTState *>::deallocate, COMDAT

; 801  :     void deallocate(_Ty* const _Ptr, const size_t _Count) {

$LN3:
  00000	4c 89 44 24 18	 mov	 QWORD PTR [rsp+24], r8
  00005	48 89 54 24 10	 mov	 QWORD PTR [rsp+16], rdx
  0000a	48 89 4c 24 08	 mov	 QWORD PTR [rsp+8], rcx
  0000f	55		 push	 rbp
  00010	57		 push	 rdi
  00011	48 81 ec e8 00
	00 00		 sub	 rsp, 232		; 000000e8H
  00018	48 8d 6c 24 20	 lea	 rbp, QWORD PTR [rsp+32]
  0001d	48 8b fc	 mov	 rdi, rsp
  00020	b9 3a 00 00 00	 mov	 ecx, 58			; 0000003aH
  00025	b8 cc cc cc cc	 mov	 eax, -858993460		; ccccccccH
  0002a	f3 ab		 rep stosd
  0002c	48 8b 8c 24 08
	01 00 00	 mov	 rcx, QWORD PTR [rsp+264]
  00034	48 8d 0d 00 00
	00 00		 lea	 rcx, OFFSET FLAT:__0C99713E_xmemory
  0003b	e8 00 00 00 00	 call	 __CheckForDebuggerJustMyCode

; 802  :         // no overflow check on the following multiply; we assume _Allocate did that check
; 803  :         _Deallocate<_New_alignof<_Ty>>(_Ptr, sizeof(_Ty) * _Count);

  00040	48 8b 85 f0 00
	00 00		 mov	 rax, QWORD PTR _Count$[rbp]
  00047	48 c1 e0 03	 shl	 rax, 3
  0004b	48 8b d0	 mov	 rdx, rax
  0004e	48 8b 8d e8 00
	00 00		 mov	 rcx, QWORD PTR _Ptr$[rbp]
  00055	e8 00 00 00 00	 call	 ??$_Deallocate@$0BA@$0A@@std@@YAXPEAX_K@Z ; std::_Deallocate<16,0>

; 804  :     }

  0005a	48 8d a5 c8 00
	00 00		 lea	 rsp, QWORD PTR [rbp+200]
  00061	5f		 pop	 rdi
  00062	5d		 pop	 rbp
  00063	c3		 ret	 0
?deallocate@?$allocator@PEAUMFSTState@MFST@@@std@@QEAAXQEAPEAUMFSTState@MFST@@_K@Z ENDP ; std::allocator<MFST::MFSTState *>::deallocate
_TEXT	ENDS
; Function compile flags: /Odtp /RTCsu /ZI
; File C:\Program Files (x86)\Microsoft Visual Studio\2019\Enterprise\VC\Tools\MSVC\14.27.29110\include\xmemory
;	COMDAT ?deallocate@?$allocator@UMFSTState@MFST@@@std@@QEAAXQEAUMFSTState@MFST@@_K@Z
_TEXT	SEGMENT
this$ = 224
_Ptr$ = 232
_Count$ = 240
?deallocate@?$allocator@UMFSTState@MFST@@@std@@QEAAXQEAUMFSTState@MFST@@_K@Z PROC ; std::allocator<MFST::MFSTState>::deallocate, COMDAT

; 801  :     void deallocate(_Ty* const _Ptr, const size_t _Count) {

$LN3:
  00000	4c 89 44 24 18	 mov	 QWORD PTR [rsp+24], r8
  00005	48 89 54 24 10	 mov	 QWORD PTR [rsp+16], rdx
  0000a	48 89 4c 24 08	 mov	 QWORD PTR [rsp+8], rcx
  0000f	55		 push	 rbp
  00010	57		 push	 rdi
  00011	48 81 ec e8 00
	00 00		 sub	 rsp, 232		; 000000e8H
  00018	48 8d 6c 24 20	 lea	 rbp, QWORD PTR [rsp+32]
  0001d	48 8b fc	 mov	 rdi, rsp
  00020	b9 3a 00 00 00	 mov	 ecx, 58			; 0000003aH
  00025	b8 cc cc cc cc	 mov	 eax, -858993460		; ccccccccH
  0002a	f3 ab		 rep stosd
  0002c	48 8b 8c 24 08
	01 00 00	 mov	 rcx, QWORD PTR [rsp+264]
  00034	48 8d 0d 00 00
	00 00		 lea	 rcx, OFFSET FLAT:__0C99713E_xmemory
  0003b	e8 00 00 00 00	 call	 __CheckForDebuggerJustMyCode

; 802  :         // no overflow check on the following multiply; we assume _Allocate did that check
; 803  :         _Deallocate<_New_alignof<_Ty>>(_Ptr, sizeof(_Ty) * _Count);

  00040	48 6b 85 f0 00
	00 00 30	 imul	 rax, QWORD PTR _Count$[rbp], 48 ; 00000030H
  00048	48 8b d0	 mov	 rdx, rax
  0004b	48 8b 8d e8 00
	00 00		 mov	 rcx, QWORD PTR _Ptr$[rbp]
  00052	e8 00 00 00 00	 call	 ??$_Deallocate@$0BA@$0A@@std@@YAXPEAX_K@Z ; std::_Deallocate<16,0>

; 804  :     }

  00057	48 8d a5 c8 00
	00 00		 lea	 rsp, QWORD PTR [rbp+200]
  0005e	5f		 pop	 rdi
  0005f	5d		 pop	 rbp
  00060	c3		 ret	 0
?deallocate@?$allocator@UMFSTState@MFST@@@std@@QEAAXQEAUMFSTState@MFST@@_K@Z ENDP ; std::allocator<MFST::MFSTState>::deallocate
_TEXT	ENDS
; Function compile flags: /Odtp /RTCsu /ZI
;	COMDAT ??_GMFSTState@MFST@@QEAAPEAXI@Z
_TEXT	SEGMENT
this$ = 224
__flags$ = 232
??_GMFSTState@MFST@@QEAAPEAXI@Z PROC			; MFST::MFSTState::`scalar deleting destructor', COMDAT
$LN5:
  00000	89 54 24 10	 mov	 DWORD PTR [rsp+16], edx
  00004	48 89 4c 24 08	 mov	 QWORD PTR [rsp+8], rcx
  00009	55		 push	 rbp
  0000a	57		 push	 rdi
  0000b	48 81 ec e8 00
	00 00		 sub	 rsp, 232		; 000000e8H
  00012	48 8d 6c 24 20	 lea	 rbp, QWORD PTR [rsp+32]
  00017	48 8b fc	 mov	 rdi, rsp
  0001a	b9 3a 00 00 00	 mov	 ecx, 58			; 0000003aH
  0001f	b8 cc cc cc cc	 mov	 eax, -858993460		; ccccccccH
  00024	f3 ab		 rep stosd
  00026	48 8b 8c 24 08
	01 00 00	 mov	 rcx, QWORD PTR [rsp+264]
  0002e	48 8b 8d e0 00
	00 00		 mov	 rcx, QWORD PTR this$[rbp]
  00035	e8 00 00 00 00	 call	 ??1MFSTState@MFST@@QEAA@XZ
  0003a	8b 85 e8 00 00
	00		 mov	 eax, DWORD PTR __flags$[rbp]
  00040	83 e0 01	 and	 eax, 1
  00043	85 c0		 test	 eax, eax
  00045	74 11		 je	 SHORT $LN2@scalar
  00047	ba 30 00 00 00	 mov	 edx, 48			; 00000030H
  0004c	48 8b 8d e0 00
	00 00		 mov	 rcx, QWORD PTR this$[rbp]
  00053	e8 00 00 00 00	 call	 ??3@YAXPEAX_K@Z		; operator delete
$LN2@scalar:
  00058	48 8b 85 e0 00
	00 00		 mov	 rax, QWORD PTR this$[rbp]
  0005f	48 8d a5 c8 00
	00 00		 lea	 rsp, QWORD PTR [rbp+200]
  00066	5f		 pop	 rdi
  00067	5d		 pop	 rbp
  00068	c3		 ret	 0
??_GMFSTState@MFST@@QEAAPEAXI@Z ENDP			; MFST::MFSTState::`scalar deleting destructor'
_TEXT	ENDS
; Function compile flags: /Odtp /RTCsu /ZI
;	COMDAT ??1MFSTState@MFST@@QEAA@XZ
_TEXT	SEGMENT
this$ = 224
??1MFSTState@MFST@@QEAA@XZ PROC				; MFST::MFSTState::~MFSTState, COMDAT
$LN4:
  00000	48 89 4c 24 08	 mov	 QWORD PTR [rsp+8], rcx
  00005	55		 push	 rbp
  00006	57		 push	 rdi
  00007	48 81 ec e8 00
	00 00		 sub	 rsp, 232		; 000000e8H
  0000e	48 8d 6c 24 20	 lea	 rbp, QWORD PTR [rsp+32]
  00013	48 8b fc	 mov	 rdi, rsp
  00016	b9 3a 00 00 00	 mov	 ecx, 58			; 0000003aH
  0001b	b8 cc cc cc cc	 mov	 eax, -858993460		; ccccccccH
  00020	f3 ab		 rep stosd
  00022	48 8b 8c 24 08
	01 00 00	 mov	 rcx, QWORD PTR [rsp+264]
  0002a	48 8b 85 e0 00
	00 00		 mov	 rax, QWORD PTR this$[rbp]
  00031	48 83 c0 08	 add	 rax, 8
  00035	48 8b c8	 mov	 rcx, rax
  00038	e8 00 00 00 00	 call	 ??1?$Stack@F@@QEAA@XZ
  0003d	48 8d a5 c8 00
	00 00		 lea	 rsp, QWORD PTR [rbp+200]
  00044	5f		 pop	 rdi
  00045	5d		 pop	 rbp
  00046	c3		 ret	 0
??1MFSTState@MFST@@QEAA@XZ ENDP				; MFST::MFSTState::~MFSTState
_TEXT	ENDS
; Function compile flags: /Odtp /RTCsu /ZI
;	COMDAT ??1?$Stack@F@@QEAA@XZ
_TEXT	SEGMENT
this$ = 224
??1?$Stack@F@@QEAA@XZ PROC				; Stack<short>::~Stack<short>, COMDAT
$LN4:
  00000	48 89 4c 24 08	 mov	 QWORD PTR [rsp+8], rcx
  00005	55		 push	 rbp
  00006	57		 push	 rdi
  00007	48 81 ec e8 00
	00 00		 sub	 rsp, 232		; 000000e8H
  0000e	48 8d 6c 24 20	 lea	 rbp, QWORD PTR [rsp+32]
  00013	48 8b fc	 mov	 rdi, rsp
  00016	b9 3a 00 00 00	 mov	 ecx, 58			; 0000003aH
  0001b	b8 cc cc cc cc	 mov	 eax, -858993460		; ccccccccH
  00020	f3 ab		 rep stosd
  00022	48 8b 8c 24 08
	01 00 00	 mov	 rcx, QWORD PTR [rsp+264]
  0002a	48 8b 85 e0 00
	00 00		 mov	 rax, QWORD PTR this$[rbp]
  00031	48 8b c8	 mov	 rcx, rax
  00034	e8 00 00 00 00	 call	 ??1?$stack@FV?$deque@FV?$allocator@F@std@@@std@@@std@@QEAA@XZ
  00039	48 8d a5 c8 00
	00 00		 lea	 rsp, QWORD PTR [rbp+200]
  00040	5f		 pop	 rdi
  00041	5d		 pop	 rbp
  00042	c3		 ret	 0
??1?$Stack@F@@QEAA@XZ ENDP				; Stack<short>::~Stack<short>
_TEXT	ENDS
; Function compile flags: /Odtp /RTCsu /ZI
;	COMDAT ??1?$stack@FV?$deque@FV?$allocator@F@std@@@std@@@std@@QEAA@XZ
_TEXT	SEGMENT
this$ = 224
??1?$stack@FV?$deque@FV?$allocator@F@std@@@std@@@std@@QEAA@XZ PROC ; std::stack<short,std::deque<short,std::allocator<short> > >::~stack<short,std::deque<short,std::allocator<short> > >, COMDAT
$LN3:
  00000	48 89 4c 24 08	 mov	 QWORD PTR [rsp+8], rcx
  00005	55		 push	 rbp
  00006	57		 push	 rdi
  00007	48 81 ec e8 00
	00 00		 sub	 rsp, 232		; 000000e8H
  0000e	48 8d 6c 24 20	 lea	 rbp, QWORD PTR [rsp+32]
  00013	48 8b fc	 mov	 rdi, rsp
  00016	b9 3a 00 00 00	 mov	 ecx, 58			; 0000003aH
  0001b	b8 cc cc cc cc	 mov	 eax, -858993460		; ccccccccH
  00020	f3 ab		 rep stosd
  00022	48 8b 8c 24 08
	01 00 00	 mov	 rcx, QWORD PTR [rsp+264]
  0002a	48 8b 85 e0 00
	00 00		 mov	 rax, QWORD PTR this$[rbp]
  00031	48 8b c8	 mov	 rcx, rax
  00034	e8 00 00 00 00	 call	 ??1?$deque@FV?$allocator@F@std@@@std@@QEAA@XZ ; std::deque<short,std::allocator<short> >::~deque<short,std::allocator<short> >
  00039	48 8d a5 c8 00
	00 00		 lea	 rsp, QWORD PTR [rbp+200]
  00040	5f		 pop	 rdi
  00041	5d		 pop	 rbp
  00042	c3		 ret	 0
??1?$stack@FV?$deque@FV?$allocator@F@std@@@std@@@std@@QEAA@XZ ENDP ; std::stack<short,std::deque<short,std::allocator<short> > >::~stack<short,std::deque<short,std::allocator<short> > >
_TEXT	ENDS
; Function compile flags: /Odtp /RTCsu /ZI
; File C:\Program Files (x86)\Microsoft Visual Studio\2019\Enterprise\VC\Tools\MSVC\14.27.29110\include\xmemory
;	COMDAT ?_Get_first@?$_Compressed_pair@V?$allocator@F@std@@V?$_Deque_val@U?$_Deque_simple_types@F@std@@@2@$00@std@@QEAAAEAV?$allocator@F@2@XZ
_TEXT	SEGMENT
this$ = 224
?_Get_first@?$_Compressed_pair@V?$allocator@F@std@@V?$_Deque_val@U?$_Deque_simple_types@F@std@@@2@$00@std@@QEAAAEAV?$allocator@F@2@XZ PROC ; std::_Compressed_pair<std::allocator<short>,std::_Deque_val<std::_Deque_simple_types<short> >,1>::_Get_first, COMDAT

; 1343 :     constexpr _Ty1& _Get_first() noexcept {

$LN3:
  00000	48 89 4c 24 08	 mov	 QWORD PTR [rsp+8], rcx
  00005	55		 push	 rbp
  00006	57		 push	 rdi
  00007	48 81 ec e8 00
	00 00		 sub	 rsp, 232		; 000000e8H
  0000e	48 8d 6c 24 20	 lea	 rbp, QWORD PTR [rsp+32]
  00013	48 8b fc	 mov	 rdi, rsp
  00016	b9 3a 00 00 00	 mov	 ecx, 58			; 0000003aH
  0001b	b8 cc cc cc cc	 mov	 eax, -858993460		; ccccccccH
  00020	f3 ab		 rep stosd
  00022	48 8b 8c 24 08
	01 00 00	 mov	 rcx, QWORD PTR [rsp+264]
  0002a	48 8d 0d 00 00
	00 00		 lea	 rcx, OFFSET FLAT:__0C99713E_xmemory
  00031	e8 00 00 00 00	 call	 __CheckForDebuggerJustMyCode

; 1344 :         return *this;

  00036	48 8b 85 e0 00
	00 00		 mov	 rax, QWORD PTR this$[rbp]

; 1345 :     }

  0003d	48 8d a5 c8 00
	00 00		 lea	 rsp, QWORD PTR [rbp+200]
  00044	5f		 pop	 rdi
  00045	5d		 pop	 rbp
  00046	c3		 ret	 0
?_Get_first@?$_Compressed_pair@V?$allocator@F@std@@V?$_Deque_val@U?$_Deque_simple_types@F@std@@@2@$00@std@@QEAAAEAV?$allocator@F@2@XZ ENDP ; std::_Compressed_pair<std::allocator<short>,std::_Deque_val<std::_Deque_simple_types<short> >,1>::_Get_first
_TEXT	ENDS
; Function compile flags: /Odtp /RTCsu /ZI
; File C:\Program Files (x86)\Microsoft Visual Studio\2019\Enterprise\VC\Tools\MSVC\14.27.29110\include\deque
;	COMDAT ?_Getblock@?$_Deque_val@U?$_Deque_simple_types@F@std@@@std@@QEBA_K_K@Z
_TEXT	SEGMENT
this$ = 224
_Off$ = 232
?_Getblock@?$_Deque_val@U?$_Deque_simple_types@F@std@@@std@@QEBA_K_K@Z PROC ; std::_Deque_val<std::_Deque_simple_types<short> >::_Getblock, COMDAT

; 545  :     size_type _Getblock(size_type _Off) const noexcept {

$LN3:
  00000	48 89 54 24 10	 mov	 QWORD PTR [rsp+16], rdx
  00005	48 89 4c 24 08	 mov	 QWORD PTR [rsp+8], rcx
  0000a	55		 push	 rbp
  0000b	57		 push	 rdi
  0000c	48 81 ec e8 00
	00 00		 sub	 rsp, 232		; 000000e8H
  00013	48 8d 6c 24 20	 lea	 rbp, QWORD PTR [rsp+32]
  00018	48 8b fc	 mov	 rdi, rsp
  0001b	b9 3a 00 00 00	 mov	 ecx, 58			; 0000003aH
  00020	b8 cc cc cc cc	 mov	 eax, -858993460		; ccccccccH
  00025	f3 ab		 rep stosd
  00027	48 8b 8c 24 08
	01 00 00	 mov	 rcx, QWORD PTR [rsp+264]
  0002f	48 8d 0d 00 00
	00 00		 lea	 rcx, OFFSET FLAT:__1C3F1DC9_deque
  00036	e8 00 00 00 00	 call	 __CheckForDebuggerJustMyCode

; 546  :         // NB: _Mapsize and _DEQUESIZ are guaranteed to be powers of 2
; 547  :         return (_Off / _DEQUESIZ) & (_Mapsize - 1);

  0003b	33 d2		 xor	 edx, edx
  0003d	48 8b 85 e8 00
	00 00		 mov	 rax, QWORD PTR _Off$[rbp]
  00044	b9 08 00 00 00	 mov	 ecx, 8
  00049	48 f7 f1	 div	 rcx
  0004c	48 8b 8d e0 00
	00 00		 mov	 rcx, QWORD PTR this$[rbp]
  00053	48 8b 49 10	 mov	 rcx, QWORD PTR [rcx+16]
  00057	48 ff c9	 dec	 rcx
  0005a	48 23 c1	 and	 rax, rcx

; 548  :     }

  0005d	48 8d a5 c8 00
	00 00		 lea	 rsp, QWORD PTR [rbp+200]
  00064	5f		 pop	 rdi
  00065	5d		 pop	 rbp
  00066	c3		 ret	 0
?_Getblock@?$_Deque_val@U?$_Deque_simple_types@F@std@@@std@@QEBA_K_K@Z ENDP ; std::_Deque_val<std::_Deque_simple_types<short> >::_Getblock
_TEXT	ENDS
; Function compile flags: /Odtp /RTCsu /ZI
; File C:\Program Files (x86)\Microsoft Visual Studio\2019\Enterprise\VC\Tools\MSVC\14.27.29110\include\deque
;	COMDAT ?_Mysize@?$deque@FV?$allocator@F@std@@@std@@AEBAAEB_KXZ
_TEXT	SEGMENT
this$ = 224
?_Mysize@?$deque@FV?$allocator@F@std@@@std@@AEBAAEB_KXZ PROC ; std::deque<short,std::allocator<short> >::_Mysize, COMDAT

; 1560 :     const size_type& _Mysize() const noexcept {

$LN3:
  00000	48 89 4c 24 08	 mov	 QWORD PTR [rsp+8], rcx
  00005	55		 push	 rbp
  00006	57		 push	 rdi
  00007	48 81 ec e8 00
	00 00		 sub	 rsp, 232		; 000000e8H
  0000e	48 8d 6c 24 20	 lea	 rbp, QWORD PTR [rsp+32]
  00013	48 8b fc	 mov	 rdi, rsp
  00016	b9 3a 00 00 00	 mov	 ecx, 58			; 0000003aH
  0001b	b8 cc cc cc cc	 mov	 eax, -858993460		; ccccccccH
  00020	f3 ab		 rep stosd
  00022	48 8b 8c 24 08
	01 00 00	 mov	 rcx, QWORD PTR [rsp+264]
  0002a	48 8d 0d 00 00
	00 00		 lea	 rcx, OFFSET FLAT:__1C3F1DC9_deque
  00031	e8 00 00 00 00	 call	 __CheckForDebuggerJustMyCode

; 1561 :         return _Get_data()._Mysize;

  00036	48 8b 8d e0 00
	00 00		 mov	 rcx, QWORD PTR this$[rbp]
  0003d	e8 00 00 00 00	 call	 ?_Get_data@?$deque@FV?$allocator@F@std@@@std@@AEBAAEBV?$_Deque_val@U?$_Deque_simple_types@F@std@@@2@XZ ; std::deque<short,std::allocator<short> >::_Get_data
  00042	48 83 c0 20	 add	 rax, 32			; 00000020H

; 1562 :     }

  00046	48 8d a5 c8 00
	00 00		 lea	 rsp, QWORD PTR [rbp+200]
  0004d	5f		 pop	 rdi
  0004e	5d		 pop	 rbp
  0004f	c3		 ret	 0
?_Mysize@?$deque@FV?$allocator@F@std@@@std@@AEBAAEB_KXZ ENDP ; std::deque<short,std::allocator<short> >::_Mysize
_TEXT	ENDS
; Function compile flags: /Odtp /RTCsu /ZI
; File C:\Program Files (x86)\Microsoft Visual Studio\2019\Enterprise\VC\Tools\MSVC\14.27.29110\include\deque
;	COMDAT ?_Mysize@?$deque@FV?$allocator@F@std@@@std@@AEAAAEA_KXZ
_TEXT	SEGMENT
this$ = 224
?_Mysize@?$deque@FV?$allocator@F@std@@@std@@AEAAAEA_KXZ PROC ; std::deque<short,std::allocator<short> >::_Mysize, COMDAT

; 1556 :     size_type& _Mysize() noexcept {

$LN3:
  00000	48 89 4c 24 08	 mov	 QWORD PTR [rsp+8], rcx
  00005	55		 push	 rbp
  00006	57		 push	 rdi
  00007	48 81 ec e8 00
	00 00		 sub	 rsp, 232		; 000000e8H
  0000e	48 8d 6c 24 20	 lea	 rbp, QWORD PTR [rsp+32]
  00013	48 8b fc	 mov	 rdi, rsp
  00016	b9 3a 00 00 00	 mov	 ecx, 58			; 0000003aH
  0001b	b8 cc cc cc cc	 mov	 eax, -858993460		; ccccccccH
  00020	f3 ab		 rep stosd
  00022	48 8b 8c 24 08
	01 00 00	 mov	 rcx, QWORD PTR [rsp+264]
  0002a	48 8d 0d 00 00
	00 00		 lea	 rcx, OFFSET FLAT:__1C3F1DC9_deque
  00031	e8 00 00 00 00	 call	 __CheckForDebuggerJustMyCode

; 1557 :         return _Get_data()._Mysize;

  00036	48 8b 8d e0 00
	00 00		 mov	 rcx, QWORD PTR this$[rbp]
  0003d	e8 00 00 00 00	 call	 ?_Get_data@?$deque@FV?$allocator@F@std@@@std@@AEAAAEAV?$_Deque_val@U?$_Deque_simple_types@F@std@@@2@XZ ; std::deque<short,std::allocator<short> >::_Get_data
  00042	48 83 c0 20	 add	 rax, 32			; 00000020H

; 1558 :     }

  00046	48 8d a5 c8 00
	00 00		 lea	 rsp, QWORD PTR [rbp+200]
  0004d	5f		 pop	 rdi
  0004e	5d		 pop	 rbp
  0004f	c3		 ret	 0
?_Mysize@?$deque@FV?$allocator@F@std@@@std@@AEAAAEA_KXZ ENDP ; std::deque<short,std::allocator<short> >::_Mysize
_TEXT	ENDS
; Function compile flags: /Odtp /RTCsu /ZI
; File C:\Program Files (x86)\Microsoft Visual Studio\2019\Enterprise\VC\Tools\MSVC\14.27.29110\include\deque
;	COMDAT ?_Myoff@?$deque@FV?$allocator@F@std@@@std@@AEBAAEB_KXZ
_TEXT	SEGMENT
this$ = 224
?_Myoff@?$deque@FV?$allocator@F@std@@@std@@AEBAAEB_KXZ PROC ; std::deque<short,std::allocator<short> >::_Myoff, COMDAT

; 1552 :     const size_type& _Myoff() const noexcept {

$LN3:
  00000	48 89 4c 24 08	 mov	 QWORD PTR [rsp+8], rcx
  00005	55		 push	 rbp
  00006	57		 push	 rdi
  00007	48 81 ec e8 00
	00 00		 sub	 rsp, 232		; 000000e8H
  0000e	48 8d 6c 24 20	 lea	 rbp, QWORD PTR [rsp+32]
  00013	48 8b fc	 mov	 rdi, rsp
  00016	b9 3a 00 00 00	 mov	 ecx, 58			; 0000003aH
  0001b	b8 cc cc cc cc	 mov	 eax, -858993460		; ccccccccH
  00020	f3 ab		 rep stosd
  00022	48 8b 8c 24 08
	01 00 00	 mov	 rcx, QWORD PTR [rsp+264]
  0002a	48 8d 0d 00 00
	00 00		 lea	 rcx, OFFSET FLAT:__1C3F1DC9_deque
  00031	e8 00 00 00 00	 call	 __CheckForDebuggerJustMyCode

; 1553 :         return _Get_data()._Myoff;

  00036	48 8b 8d e0 00
	00 00		 mov	 rcx, QWORD PTR this$[rbp]
  0003d	e8 00 00 00 00	 call	 ?_Get_data@?$deque@FV?$allocator@F@std@@@std@@AEBAAEBV?$_Deque_val@U?$_Deque_simple_types@F@std@@@2@XZ ; std::deque<short,std::allocator<short> >::_Get_data
  00042	48 83 c0 18	 add	 rax, 24

; 1554 :     }

  00046	48 8d a5 c8 00
	00 00		 lea	 rsp, QWORD PTR [rbp+200]
  0004d	5f		 pop	 rdi
  0004e	5d		 pop	 rbp
  0004f	c3		 ret	 0
?_Myoff@?$deque@FV?$allocator@F@std@@@std@@AEBAAEB_KXZ ENDP ; std::deque<short,std::allocator<short> >::_Myoff
_TEXT	ENDS
; Function compile flags: /Odtp /RTCsu /ZI
; File C:\Program Files (x86)\Microsoft Visual Studio\2019\Enterprise\VC\Tools\MSVC\14.27.29110\include\deque
;	COMDAT ?_Myoff@?$deque@FV?$allocator@F@std@@@std@@AEAAAEA_KXZ
_TEXT	SEGMENT
this$ = 224
?_Myoff@?$deque@FV?$allocator@F@std@@@std@@AEAAAEA_KXZ PROC ; std::deque<short,std::allocator<short> >::_Myoff, COMDAT

; 1548 :     size_type& _Myoff() noexcept {

$LN3:
  00000	48 89 4c 24 08	 mov	 QWORD PTR [rsp+8], rcx
  00005	55		 push	 rbp
  00006	57		 push	 rdi
  00007	48 81 ec e8 00
	00 00		 sub	 rsp, 232		; 000000e8H
  0000e	48 8d 6c 24 20	 lea	 rbp, QWORD PTR [rsp+32]
  00013	48 8b fc	 mov	 rdi, rsp
  00016	b9 3a 00 00 00	 mov	 ecx, 58			; 0000003aH
  0001b	b8 cc cc cc cc	 mov	 eax, -858993460		; ccccccccH
  00020	f3 ab		 rep stosd
  00022	48 8b 8c 24 08
	01 00 00	 mov	 rcx, QWORD PTR [rsp+264]
  0002a	48 8d 0d 00 00
	00 00		 lea	 rcx, OFFSET FLAT:__1C3F1DC9_deque
  00031	e8 00 00 00 00	 call	 __CheckForDebuggerJustMyCode

; 1549 :         return _Get_data()._Myoff;

  00036	48 8b 8d e0 00
	00 00		 mov	 rcx, QWORD PTR this$[rbp]
  0003d	e8 00 00 00 00	 call	 ?_Get_data@?$deque@FV?$allocator@F@std@@@std@@AEAAAEAV?$_Deque_val@U?$_Deque_simple_types@F@std@@@2@XZ ; std::deque<short,std::allocator<short> >::_Get_data
  00042	48 83 c0 18	 add	 rax, 24

; 1550 :     }

  00046	48 8d a5 c8 00
	00 00		 lea	 rsp, QWORD PTR [rbp+200]
  0004d	5f		 pop	 rdi
  0004e	5d		 pop	 rbp
  0004f	c3		 ret	 0
?_Myoff@?$deque@FV?$allocator@F@std@@@std@@AEAAAEA_KXZ ENDP ; std::deque<short,std::allocator<short> >::_Myoff
_TEXT	ENDS
; Function compile flags: /Odtp /RTCsu /ZI
; File C:\Program Files (x86)\Microsoft Visual Studio\2019\Enterprise\VC\Tools\MSVC\14.27.29110\include\deque
;	COMDAT ?_Mapsize@?$deque@FV?$allocator@F@std@@@std@@AEAAAEA_KXZ
_TEXT	SEGMENT
this$ = 224
?_Mapsize@?$deque@FV?$allocator@F@std@@@std@@AEAAAEA_KXZ PROC ; std::deque<short,std::allocator<short> >::_Mapsize, COMDAT

; 1540 :     size_type& _Mapsize() noexcept {

$LN3:
  00000	48 89 4c 24 08	 mov	 QWORD PTR [rsp+8], rcx
  00005	55		 push	 rbp
  00006	57		 push	 rdi
  00007	48 81 ec e8 00
	00 00		 sub	 rsp, 232		; 000000e8H
  0000e	48 8d 6c 24 20	 lea	 rbp, QWORD PTR [rsp+32]
  00013	48 8b fc	 mov	 rdi, rsp
  00016	b9 3a 00 00 00	 mov	 ecx, 58			; 0000003aH
  0001b	b8 cc cc cc cc	 mov	 eax, -858993460		; ccccccccH
  00020	f3 ab		 rep stosd
  00022	48 8b 8c 24 08
	01 00 00	 mov	 rcx, QWORD PTR [rsp+264]
  0002a	48 8d 0d 00 00
	00 00		 lea	 rcx, OFFSET FLAT:__1C3F1DC9_deque
  00031	e8 00 00 00 00	 call	 __CheckForDebuggerJustMyCode

; 1541 :         return _Get_data()._Mapsize;

  00036	48 8b 8d e0 00
	00 00		 mov	 rcx, QWORD PTR this$[rbp]
  0003d	e8 00 00 00 00	 call	 ?_Get_data@?$deque@FV?$allocator@F@std@@@std@@AEAAAEAV?$_Deque_val@U?$_Deque_simple_types@F@std@@@2@XZ ; std::deque<short,std::allocator<short> >::_Get_data
  00042	48 83 c0 10	 add	 rax, 16

; 1542 :     }

  00046	48 8d a5 c8 00
	00 00		 lea	 rsp, QWORD PTR [rbp+200]
  0004d	5f		 pop	 rdi
  0004e	5d		 pop	 rbp
  0004f	c3		 ret	 0
?_Mapsize@?$deque@FV?$allocator@F@std@@@std@@AEAAAEA_KXZ ENDP ; std::deque<short,std::allocator<short> >::_Mapsize
_TEXT	ENDS
; Function compile flags: /Odtp /RTCsu /ZI
; File C:\Program Files (x86)\Microsoft Visual Studio\2019\Enterprise\VC\Tools\MSVC\14.27.29110\include\deque
;	COMDAT ?_Map@?$deque@FV?$allocator@F@std@@@std@@AEAAAEAPEAPEAFXZ
_TEXT	SEGMENT
this$ = 224
?_Map@?$deque@FV?$allocator@F@std@@@std@@AEAAAEAPEAPEAFXZ PROC ; std::deque<short,std::allocator<short> >::_Map, COMDAT

; 1532 :     _Mapptr& _Map() noexcept {

$LN3:
  00000	48 89 4c 24 08	 mov	 QWORD PTR [rsp+8], rcx
  00005	55		 push	 rbp
  00006	57		 push	 rdi
  00007	48 81 ec e8 00
	00 00		 sub	 rsp, 232		; 000000e8H
  0000e	48 8d 6c 24 20	 lea	 rbp, QWORD PTR [rsp+32]
  00013	48 8b fc	 mov	 rdi, rsp
  00016	b9 3a 00 00 00	 mov	 ecx, 58			; 0000003aH
  0001b	b8 cc cc cc cc	 mov	 eax, -858993460		; ccccccccH
  00020	f3 ab		 rep stosd
  00022	48 8b 8c 24 08
	01 00 00	 mov	 rcx, QWORD PTR [rsp+264]
  0002a	48 8d 0d 00 00
	00 00		 lea	 rcx, OFFSET FLAT:__1C3F1DC9_deque
  00031	e8 00 00 00 00	 call	 __CheckForDebuggerJustMyCode

; 1533 :         return _Get_data()._Map;

  00036	48 8b 8d e0 00
	00 00		 mov	 rcx, QWORD PTR this$[rbp]
  0003d	e8 00 00 00 00	 call	 ?_Get_data@?$deque@FV?$allocator@F@std@@@std@@AEAAAEAV?$_Deque_val@U?$_Deque_simple_types@F@std@@@2@XZ ; std::deque<short,std::allocator<short> >::_Get_data
  00042	48 83 c0 08	 add	 rax, 8

; 1534 :     }

  00046	48 8d a5 c8 00
	00 00		 lea	 rsp, QWORD PTR [rbp+200]
  0004d	5f		 pop	 rdi
  0004e	5d		 pop	 rbp
  0004f	c3		 ret	 0
?_Map@?$deque@FV?$allocator@F@std@@@std@@AEAAAEAPEAPEAFXZ ENDP ; std::deque<short,std::allocator<short> >::_Map
_TEXT	ENDS
; Function compile flags: /Odtp /RTCsu /ZI
; File C:\Program Files (x86)\Microsoft Visual Studio\2019\Enterprise\VC\Tools\MSVC\14.27.29110\include\deque
;	COMDAT ?_Get_data@?$deque@FV?$allocator@F@std@@@std@@AEBAAEBV?$_Deque_val@U?$_Deque_simple_types@F@std@@@2@XZ
_TEXT	SEGMENT
this$ = 224
?_Get_data@?$deque@FV?$allocator@F@std@@@std@@AEBAAEBV?$_Deque_val@U?$_Deque_simple_types@F@std@@@2@XZ PROC ; std::deque<short,std::allocator<short> >::_Get_data, COMDAT

; 1528 :     const _Scary_val& _Get_data() const noexcept {

$LN3:
  00000	48 89 4c 24 08	 mov	 QWORD PTR [rsp+8], rcx
  00005	55		 push	 rbp
  00006	57		 push	 rdi
  00007	48 81 ec e8 00
	00 00		 sub	 rsp, 232		; 000000e8H
  0000e	48 8d 6c 24 20	 lea	 rbp, QWORD PTR [rsp+32]
  00013	48 8b fc	 mov	 rdi, rsp
  00016	b9 3a 00 00 00	 mov	 ecx, 58			; 0000003aH
  0001b	b8 cc cc cc cc	 mov	 eax, -858993460		; ccccccccH
  00020	f3 ab		 rep stosd
  00022	48 8b 8c 24 08
	01 00 00	 mov	 rcx, QWORD PTR [rsp+264]
  0002a	48 8d 0d 00 00
	00 00		 lea	 rcx, OFFSET FLAT:__1C3F1DC9_deque
  00031	e8 00 00 00 00	 call	 __CheckForDebuggerJustMyCode

; 1529 :         return _Mypair._Myval2;

  00036	48 8b 85 e0 00
	00 00		 mov	 rax, QWORD PTR this$[rbp]

; 1530 :     }

  0003d	48 8d a5 c8 00
	00 00		 lea	 rsp, QWORD PTR [rbp+200]
  00044	5f		 pop	 rdi
  00045	5d		 pop	 rbp
  00046	c3		 ret	 0
?_Get_data@?$deque@FV?$allocator@F@std@@@std@@AEBAAEBV?$_Deque_val@U?$_Deque_simple_types@F@std@@@2@XZ ENDP ; std::deque<short,std::allocator<short> >::_Get_data
_TEXT	ENDS
; Function compile flags: /Odtp /RTCsu /ZI
; File C:\Program Files (x86)\Microsoft Visual Studio\2019\Enterprise\VC\Tools\MSVC\14.27.29110\include\deque
;	COMDAT ?_Get_data@?$deque@FV?$allocator@F@std@@@std@@AEAAAEAV?$_Deque_val@U?$_Deque_simple_types@F@std@@@2@XZ
_TEXT	SEGMENT
this$ = 224
?_Get_data@?$deque@FV?$allocator@F@std@@@std@@AEAAAEAV?$_Deque_val@U?$_Deque_simple_types@F@std@@@2@XZ PROC ; std::deque<short,std::allocator<short> >::_Get_data, COMDAT

; 1524 :     _Scary_val& _Get_data() noexcept {

$LN3:
  00000	48 89 4c 24 08	 mov	 QWORD PTR [rsp+8], rcx
  00005	55		 push	 rbp
  00006	57		 push	 rdi
  00007	48 81 ec e8 00
	00 00		 sub	 rsp, 232		; 000000e8H
  0000e	48 8d 6c 24 20	 lea	 rbp, QWORD PTR [rsp+32]
  00013	48 8b fc	 mov	 rdi, rsp
  00016	b9 3a 00 00 00	 mov	 ecx, 58			; 0000003aH
  0001b	b8 cc cc cc cc	 mov	 eax, -858993460		; ccccccccH
  00020	f3 ab		 rep stosd
  00022	48 8b 8c 24 08
	01 00 00	 mov	 rcx, QWORD PTR [rsp+264]
  0002a	48 8d 0d 00 00
	00 00		 lea	 rcx, OFFSET FLAT:__1C3F1DC9_deque
  00031	e8 00 00 00 00	 call	 __CheckForDebuggerJustMyCode

; 1525 :         return _Mypair._Myval2;

  00036	48 8b 85 e0 00
	00 00		 mov	 rax, QWORD PTR this$[rbp]

; 1526 :     }

  0003d	48 8d a5 c8 00
	00 00		 lea	 rsp, QWORD PTR [rbp+200]
  00044	5f		 pop	 rdi
  00045	5d		 pop	 rbp
  00046	c3		 ret	 0
?_Get_data@?$deque@FV?$allocator@F@std@@@std@@AEAAAEAV?$_Deque_val@U?$_Deque_simple_types@F@std@@@2@XZ ENDP ; std::deque<short,std::allocator<short> >::_Get_data
_TEXT	ENDS
; Function compile flags: /Odtp /RTCsu /ZI
; File C:\Program Files (x86)\Microsoft Visual Studio\2019\Enterprise\VC\Tools\MSVC\14.27.29110\include\deque
;	COMDAT ?_Getal@?$deque@FV?$allocator@F@std@@@std@@AEAAAEAV?$allocator@F@2@XZ
_TEXT	SEGMENT
this$ = 224
?_Getal@?$deque@FV?$allocator@F@std@@@std@@AEAAAEAV?$allocator@F@2@XZ PROC ; std::deque<short,std::allocator<short> >::_Getal, COMDAT

; 1516 :     _Alty& _Getal() noexcept {

$LN3:
  00000	48 89 4c 24 08	 mov	 QWORD PTR [rsp+8], rcx
  00005	55		 push	 rbp
  00006	57		 push	 rdi
  00007	48 81 ec e8 00
	00 00		 sub	 rsp, 232		; 000000e8H
  0000e	48 8d 6c 24 20	 lea	 rbp, QWORD PTR [rsp+32]
  00013	48 8b fc	 mov	 rdi, rsp
  00016	b9 3a 00 00 00	 mov	 ecx, 58			; 0000003aH
  0001b	b8 cc cc cc cc	 mov	 eax, -858993460		; ccccccccH
  00020	f3 ab		 rep stosd
  00022	48 8b 8c 24 08
	01 00 00	 mov	 rcx, QWORD PTR [rsp+264]
  0002a	48 8d 0d 00 00
	00 00		 lea	 rcx, OFFSET FLAT:__1C3F1DC9_deque
  00031	e8 00 00 00 00	 call	 __CheckForDebuggerJustMyCode

; 1517 :         return _Mypair._Get_first();

  00036	48 8b 85 e0 00
	00 00		 mov	 rax, QWORD PTR this$[rbp]
  0003d	48 8b c8	 mov	 rcx, rax
  00040	e8 00 00 00 00	 call	 ?_Get_first@?$_Compressed_pair@V?$allocator@F@std@@V?$_Deque_val@U?$_Deque_simple_types@F@std@@@2@$00@std@@QEAAAEAV?$allocator@F@2@XZ ; std::_Compressed_pair<std::allocator<short>,std::_Deque_val<std::_Deque_simple_types<short> >,1>::_Get_first
  00045	90		 npad	 1

; 1518 :     }

  00046	48 8d a5 c8 00
	00 00		 lea	 rsp, QWORD PTR [rbp+200]
  0004d	5f		 pop	 rdi
  0004e	5d		 pop	 rbp
  0004f	c3		 ret	 0
?_Getal@?$deque@FV?$allocator@F@std@@@std@@AEAAAEAV?$allocator@F@2@XZ ENDP ; std::deque<short,std::allocator<short> >::_Getal
_TEXT	ENDS
; Function compile flags: /Odtp /RTCsu /ZI
; File C:\Program Files (x86)\Microsoft Visual Studio\2019\Enterprise\VC\Tools\MSVC\14.27.29110\include\deque
;	COMDAT ?_Orphan_all@?$deque@FV?$allocator@F@std@@@std@@AEAAXXZ
_TEXT	SEGMENT
this$ = 224
?_Orphan_all@?$deque@FV?$allocator@F@std@@@std@@AEAAXXZ PROC ; std::deque<short,std::allocator<short> >::_Orphan_all, COMDAT

; 1512 :     void _Orphan_all() noexcept {

$LN3:
  00000	48 89 4c 24 08	 mov	 QWORD PTR [rsp+8], rcx
  00005	55		 push	 rbp
  00006	57		 push	 rdi
  00007	48 81 ec e8 00
	00 00		 sub	 rsp, 232		; 000000e8H
  0000e	48 8d 6c 24 20	 lea	 rbp, QWORD PTR [rsp+32]
  00013	48 8b fc	 mov	 rdi, rsp
  00016	b9 3a 00 00 00	 mov	 ecx, 58			; 0000003aH
  0001b	b8 cc cc cc cc	 mov	 eax, -858993460		; ccccccccH
  00020	f3 ab		 rep stosd
  00022	48 8b 8c 24 08
	01 00 00	 mov	 rcx, QWORD PTR [rsp+264]
  0002a	48 8d 0d 00 00
	00 00		 lea	 rcx, OFFSET FLAT:__1C3F1DC9_deque
  00031	e8 00 00 00 00	 call	 __CheckForDebuggerJustMyCode

; 1513 :         _Get_data()._Orphan_all();

  00036	48 8b 8d e0 00
	00 00		 mov	 rcx, QWORD PTR this$[rbp]
  0003d	e8 00 00 00 00	 call	 ?_Get_data@?$deque@FV?$allocator@F@std@@@std@@AEAAAEAV?$_Deque_val@U?$_Deque_simple_types@F@std@@@2@XZ ; std::deque<short,std::allocator<short> >::_Get_data
  00042	48 8b c8	 mov	 rcx, rax
  00045	e8 00 00 00 00	 call	 ?_Orphan_all@_Container_base12@std@@QEAAXXZ ; std::_Container_base12::_Orphan_all
  0004a	90		 npad	 1

; 1514 :     }

  0004b	48 8d a5 c8 00
	00 00		 lea	 rsp, QWORD PTR [rbp+200]
  00052	5f		 pop	 rdi
  00053	5d		 pop	 rbp
  00054	c3		 ret	 0
?_Orphan_all@?$deque@FV?$allocator@F@std@@@std@@AEAAXXZ ENDP ; std::deque<short,std::allocator<short> >::_Orphan_all
_TEXT	ENDS
; Function compile flags: /Odtp /RTCsu /ZI
; File C:\Program Files (x86)\Microsoft Visual Studio\2019\Enterprise\VC\Tools\MSVC\14.27.29110\include\deque
;	COMDAT ?_Getblock@?$deque@FV?$allocator@F@std@@@std@@AEBA_K_K@Z
_TEXT	SEGMENT
this$ = 224
_Off$ = 232
?_Getblock@?$deque@FV?$allocator@F@std@@@std@@AEBA_K_K@Z PROC ; std::deque<short,std::allocator<short> >::_Getblock, COMDAT

; 1508 :     size_type _Getblock(size_type _Off) const noexcept {

$LN3:
  00000	48 89 54 24 10	 mov	 QWORD PTR [rsp+16], rdx
  00005	48 89 4c 24 08	 mov	 QWORD PTR [rsp+8], rcx
  0000a	55		 push	 rbp
  0000b	57		 push	 rdi
  0000c	48 81 ec e8 00
	00 00		 sub	 rsp, 232		; 000000e8H
  00013	48 8d 6c 24 20	 lea	 rbp, QWORD PTR [rsp+32]
  00018	48 8b fc	 mov	 rdi, rsp
  0001b	b9 3a 00 00 00	 mov	 ecx, 58			; 0000003aH
  00020	b8 cc cc cc cc	 mov	 eax, -858993460		; ccccccccH
  00025	f3 ab		 rep stosd
  00027	48 8b 8c 24 08
	01 00 00	 mov	 rcx, QWORD PTR [rsp+264]
  0002f	48 8d 0d 00 00
	00 00		 lea	 rcx, OFFSET FLAT:__1C3F1DC9_deque
  00036	e8 00 00 00 00	 call	 __CheckForDebuggerJustMyCode

; 1509 :         return _Get_data()._Getblock(_Off);

  0003b	48 8b 8d e0 00
	00 00		 mov	 rcx, QWORD PTR this$[rbp]
  00042	e8 00 00 00 00	 call	 ?_Get_data@?$deque@FV?$allocator@F@std@@@std@@AEBAAEBV?$_Deque_val@U?$_Deque_simple_types@F@std@@@2@XZ ; std::deque<short,std::allocator<short> >::_Get_data
  00047	48 8b 95 e8 00
	00 00		 mov	 rdx, QWORD PTR _Off$[rbp]
  0004e	48 8b c8	 mov	 rcx, rax
  00051	e8 00 00 00 00	 call	 ?_Getblock@?$_Deque_val@U?$_Deque_simple_types@F@std@@@std@@QEBA_K_K@Z ; std::_Deque_val<std::_Deque_simple_types<short> >::_Getblock
  00056	90		 npad	 1

; 1510 :     }

  00057	48 8d a5 c8 00
	00 00		 lea	 rsp, QWORD PTR [rbp+200]
  0005e	5f		 pop	 rdi
  0005f	5d		 pop	 rbp
  00060	c3		 ret	 0
?_Getblock@?$deque@FV?$allocator@F@std@@@std@@AEBA_K_K@Z ENDP ; std::deque<short,std::allocator<short> >::_Getblock
_TEXT	ENDS
; Function compile flags: /Odtp /RTCsu /ZI
; File C:\Program Files (x86)\Microsoft Visual Studio\2019\Enterprise\VC\Tools\MSVC\14.27.29110\include\deque
;	COMDAT ?_Orphan_off@?$deque@FV?$allocator@F@std@@@std@@AEBAX_K@Z
_TEXT	SEGMENT
_Offhigh$ = 8
_Lock$ = 36
_Pnext$ = 72
_Pnextoff$4 = 104
tv65 = 312
tv71 = 320
__$ArrayPad$ = 328
this$ = 368
_Offlo$ = 376
?_Orphan_off@?$deque@FV?$allocator@F@std@@@std@@AEBAX_K@Z PROC ; std::deque<short,std::allocator<short> >::_Orphan_off, COMDAT

; 1488 :     void _Orphan_off(size_type _Offlo) const noexcept { // orphan iterators with specified offset(s)

$LN11:
  00000	48 89 54 24 10	 mov	 QWORD PTR [rsp+16], rdx
  00005	48 89 4c 24 08	 mov	 QWORD PTR [rsp+8], rcx
  0000a	55		 push	 rbp
  0000b	57		 push	 rdi
  0000c	48 81 ec 78 01
	00 00		 sub	 rsp, 376		; 00000178H
  00013	48 8d 6c 24 20	 lea	 rbp, QWORD PTR [rsp+32]
  00018	48 8b fc	 mov	 rdi, rsp
  0001b	b9 5e 00 00 00	 mov	 ecx, 94			; 0000005eH
  00020	b8 cc cc cc cc	 mov	 eax, -858993460		; ccccccccH
  00025	f3 ab		 rep stosd
  00027	48 8b 8c 24 98
	01 00 00	 mov	 rcx, QWORD PTR [rsp+408]
  0002f	48 8b 05 00 00
	00 00		 mov	 rax, QWORD PTR __security_cookie
  00036	48 33 c5	 xor	 rax, rbp
  00039	48 89 85 48 01
	00 00		 mov	 QWORD PTR __$ArrayPad$[rbp], rax
  00040	48 8d 0d 00 00
	00 00		 lea	 rcx, OFFSET FLAT:__1C3F1DC9_deque
  00047	e8 00 00 00 00	 call	 __CheckForDebuggerJustMyCode

; 1489 :         size_type _Offhigh = _Myoff() + _Mysize() <= _Offlo + 1 ? static_cast<size_type>(-1) : _Offlo;

  0004c	48 8b 8d 70 01
	00 00		 mov	 rcx, QWORD PTR this$[rbp]
  00053	e8 00 00 00 00	 call	 ?_Myoff@?$deque@FV?$allocator@F@std@@@std@@AEBAAEB_KXZ ; std::deque<short,std::allocator<short> >::_Myoff
  00058	48 89 85 38 01
	00 00		 mov	 QWORD PTR tv65[rbp], rax
  0005f	48 8b 8d 70 01
	00 00		 mov	 rcx, QWORD PTR this$[rbp]
  00066	e8 00 00 00 00	 call	 ?_Mysize@?$deque@FV?$allocator@F@std@@@std@@AEBAAEB_KXZ ; std::deque<short,std::allocator<short> >::_Mysize
  0006b	48 8b 8d 38 01
	00 00		 mov	 rcx, QWORD PTR tv65[rbp]
  00072	48 8b 09	 mov	 rcx, QWORD PTR [rcx]
  00075	48 03 08	 add	 rcx, QWORD PTR [rax]
  00078	48 8b c1	 mov	 rax, rcx
  0007b	48 8b 8d 78 01
	00 00		 mov	 rcx, QWORD PTR _Offlo$[rbp]
  00082	48 ff c1	 inc	 rcx
  00085	48 3b c1	 cmp	 rax, rcx
  00088	77 0d		 ja	 SHORT $LN9@Orphan_off
  0008a	48 c7 85 40 01
	00 00 ff ff ff
	ff		 mov	 QWORD PTR tv71[rbp], -1
  00095	eb 0e		 jmp	 SHORT $LN10@Orphan_off
$LN9@Orphan_off:
  00097	48 8b 85 78 01
	00 00		 mov	 rax, QWORD PTR _Offlo$[rbp]
  0009e	48 89 85 40 01
	00 00		 mov	 QWORD PTR tv71[rbp], rax
$LN10@Orphan_off:
  000a5	48 8b 85 40 01
	00 00		 mov	 rax, QWORD PTR tv71[rbp]
  000ac	48 89 45 08	 mov	 QWORD PTR _Offhigh$[rbp], rax

; 1490 :         if (_Offlo == _Myoff()) {

  000b0	48 8b 8d 70 01
	00 00		 mov	 rcx, QWORD PTR this$[rbp]
  000b7	e8 00 00 00 00	 call	 ?_Myoff@?$deque@FV?$allocator@F@std@@@std@@AEBAAEB_KXZ ; std::deque<short,std::allocator<short> >::_Myoff
  000bc	48 8b 00	 mov	 rax, QWORD PTR [rax]
  000bf	48 39 85 78 01
	00 00		 cmp	 QWORD PTR _Offlo$[rbp], rax
  000c6	75 0b		 jne	 SHORT $LN4@Orphan_off

; 1491 :             _Offlo = 0;

  000c8	48 c7 85 78 01
	00 00 00 00 00
	00		 mov	 QWORD PTR _Offlo$[rbp], 0
$LN4@Orphan_off:

; 1492 :         }
; 1493 : 
; 1494 :         _Lockit _Lock(_LOCK_DEBUG);

  000d3	ba 03 00 00 00	 mov	 edx, 3
  000d8	48 8d 4d 24	 lea	 rcx, QWORD PTR _Lock$[rbp]
  000dc	ff 15 00 00 00
	00		 call	 QWORD PTR __imp_??0_Lockit@std@@QEAA@H@Z

; 1495 :         _Iterator_base12** _Pnext = &_Get_data()._Myproxy->_Myfirstiter;

  000e2	48 8b 8d 70 01
	00 00		 mov	 rcx, QWORD PTR this$[rbp]
  000e9	e8 00 00 00 00	 call	 ?_Get_data@?$deque@FV?$allocator@F@std@@@std@@AEBAAEBV?$_Deque_val@U?$_Deque_simple_types@F@std@@@2@XZ ; std::deque<short,std::allocator<short> >::_Get_data
  000ee	48 8b 00	 mov	 rax, QWORD PTR [rax]
  000f1	48 83 c0 08	 add	 rax, 8
  000f5	48 89 45 48	 mov	 QWORD PTR _Pnext$[rbp], rax
$LN2@Orphan_off:

; 1496 :         while (*_Pnext) {

  000f9	48 8b 45 48	 mov	 rax, QWORD PTR _Pnext$[rbp]
  000fd	48 83 38 00	 cmp	 QWORD PTR [rax], 0
  00101	74 59		 je	 SHORT $LN3@Orphan_off

; 1497 :             const auto _Pnextoff = static_cast<const_iterator&>(**_Pnext)._Myoff;

  00103	48 8b 45 48	 mov	 rax, QWORD PTR _Pnext$[rbp]
  00107	48 8b 00	 mov	 rax, QWORD PTR [rax]
  0010a	48 8b 40 10	 mov	 rax, QWORD PTR [rax+16]
  0010e	48 89 45 68	 mov	 QWORD PTR _Pnextoff$4[rbp], rax

; 1498 :             if (_Pnextoff < _Offlo || _Offhigh < _Pnextoff) {

  00112	48 8b 85 78 01
	00 00		 mov	 rax, QWORD PTR _Offlo$[rbp]
  00119	48 39 45 68	 cmp	 QWORD PTR _Pnextoff$4[rbp], rax
  0011d	72 0a		 jb	 SHORT $LN7@Orphan_off
  0011f	48 8b 45 68	 mov	 rax, QWORD PTR _Pnextoff$4[rbp]
  00123	48 39 45 08	 cmp	 QWORD PTR _Offhigh$[rbp], rax
  00127	73 11		 jae	 SHORT $LN5@Orphan_off
$LN7@Orphan_off:

; 1499 :                 _Pnext = &(*_Pnext)->_Mynextiter;

  00129	48 8b 45 48	 mov	 rax, QWORD PTR _Pnext$[rbp]
  0012d	48 8b 00	 mov	 rax, QWORD PTR [rax]
  00130	48 83 c0 08	 add	 rax, 8
  00134	48 89 45 48	 mov	 QWORD PTR _Pnext$[rbp], rax

; 1500 :             } else { // orphan the iterator

  00138	eb 20		 jmp	 SHORT $LN6@Orphan_off
$LN5@Orphan_off:

; 1501 :                 (*_Pnext)->_Myproxy = nullptr;

  0013a	48 8b 45 48	 mov	 rax, QWORD PTR _Pnext$[rbp]
  0013e	48 8b 00	 mov	 rax, QWORD PTR [rax]
  00141	48 c7 00 00 00
	00 00		 mov	 QWORD PTR [rax], 0

; 1502 :                 *_Pnext             = (*_Pnext)->_Mynextiter;

  00148	48 8b 45 48	 mov	 rax, QWORD PTR _Pnext$[rbp]
  0014c	48 8b 00	 mov	 rax, QWORD PTR [rax]
  0014f	48 8b 4d 48	 mov	 rcx, QWORD PTR _Pnext$[rbp]
  00153	48 8b 40 08	 mov	 rax, QWORD PTR [rax+8]
  00157	48 89 01	 mov	 QWORD PTR [rcx], rax
$LN6@Orphan_off:

; 1503 :             }
; 1504 :         }

  0015a	eb 9d		 jmp	 SHORT $LN2@Orphan_off
$LN3@Orphan_off:

; 1505 :     }

  0015c	48 8d 4d 24	 lea	 rcx, QWORD PTR _Lock$[rbp]
  00160	ff 15 00 00 00
	00		 call	 QWORD PTR __imp_??1_Lockit@std@@QEAA@XZ
  00166	48 8d 4d e0	 lea	 rcx, QWORD PTR [rbp-32]
  0016a	48 8d 15 00 00
	00 00		 lea	 rdx, OFFSET FLAT:?_Orphan_off@?$deque@FV?$allocator@F@std@@@std@@AEBAX_K@Z$rtcFrameData
  00171	e8 00 00 00 00	 call	 _RTC_CheckStackVars
  00176	90		 npad	 1
  00177	48 8b 8d 48 01
	00 00		 mov	 rcx, QWORD PTR __$ArrayPad$[rbp]
  0017e	48 33 cd	 xor	 rcx, rbp
  00181	e8 00 00 00 00	 call	 __security_check_cookie
  00186	48 8d a5 58 01
	00 00		 lea	 rsp, QWORD PTR [rbp+344]
  0018d	5f		 pop	 rdi
  0018e	5d		 pop	 rbp
  0018f	c3		 ret	 0
?_Orphan_off@?$deque@FV?$allocator@F@std@@@std@@AEBAX_K@Z ENDP ; std::deque<short,std::allocator<short> >::_Orphan_off
_TEXT	ENDS
; Function compile flags: /Odtp /RTCsu /ZI
; File C:\Program Files (x86)\Microsoft Visual Studio\2019\Enterprise\VC\Tools\MSVC\14.27.29110\include\deque
;	COMDAT ?_Tidy@?$deque@FV?$allocator@F@std@@@std@@AEAAXXZ
_TEXT	SEGMENT
_Almap$ = 4
_Block$4 = 40
tv145 = 248
tv134 = 248
__$ArrayPad$ = 256
this$ = 304
?_Tidy@?$deque@FV?$allocator@F@std@@@std@@AEAAXXZ PROC	; std::deque<short,std::allocator<short> >::_Tidy, COMDAT

; 1464 :     void _Tidy() noexcept { // free all storage

$LN10:
  00000	48 89 4c 24 08	 mov	 QWORD PTR [rsp+8], rcx
  00005	55		 push	 rbp
  00006	57		 push	 rdi
  00007	48 81 ec 38 01
	00 00		 sub	 rsp, 312		; 00000138H
  0000e	48 8d 6c 24 20	 lea	 rbp, QWORD PTR [rsp+32]
  00013	48 8b fc	 mov	 rdi, rsp
  00016	b9 4e 00 00 00	 mov	 ecx, 78			; 0000004eH
  0001b	b8 cc cc cc cc	 mov	 eax, -858993460		; ccccccccH
  00020	f3 ab		 rep stosd
  00022	48 8b 8c 24 58
	01 00 00	 mov	 rcx, QWORD PTR [rsp+344]
  0002a	48 8b 05 00 00
	00 00		 mov	 rax, QWORD PTR __security_cookie
  00031	48 33 c5	 xor	 rax, rbp
  00034	48 89 85 00 01
	00 00		 mov	 QWORD PTR __$ArrayPad$[rbp], rax
  0003b	48 8d 0d 00 00
	00 00		 lea	 rcx, OFFSET FLAT:__1C3F1DC9_deque
  00042	e8 00 00 00 00	 call	 __CheckForDebuggerJustMyCode

; 1465 :         _Orphan_all();

  00047	48 8b 8d 30 01
	00 00		 mov	 rcx, QWORD PTR this$[rbp]
  0004e	e8 00 00 00 00	 call	 ?_Orphan_all@?$deque@FV?$allocator@F@std@@@std@@AEAAXXZ ; std::deque<short,std::allocator<short> >::_Orphan_all

; 1466 : 
; 1467 :         _Alpty _Almap(_Getal());

  00053	48 8b 8d 30 01
	00 00		 mov	 rcx, QWORD PTR this$[rbp]
  0005a	e8 00 00 00 00	 call	 ?_Getal@?$deque@FV?$allocator@F@std@@@std@@AEAAAEAV?$allocator@F@2@XZ ; std::deque<short,std::allocator<short> >::_Getal
  0005f	48 8b d0	 mov	 rdx, rax
  00062	48 8d 4d 04	 lea	 rcx, QWORD PTR _Almap$[rbp]
  00066	e8 00 00 00 00	 call	 ??$?0F@?$allocator@PEAF@std@@QEAA@AEBV?$allocator@F@1@@Z ; std::allocator<short *>::allocator<short *><short>
$LN2@Tidy:

; 1468 :         while (!empty()) {

  0006b	48 8b 8d 30 01
	00 00		 mov	 rcx, QWORD PTR this$[rbp]
  00072	e8 00 00 00 00	 call	 ?empty@?$deque@FV?$allocator@F@std@@@std@@QEBA_NXZ ; std::deque<short,std::allocator<short> >::empty
  00077	0f b6 c0	 movzx	 eax, al
  0007a	85 c0		 test	 eax, eax
  0007c	75 0e		 jne	 SHORT $LN3@Tidy

; 1469 :             pop_back();

  0007e	48 8b 8d 30 01
	00 00		 mov	 rcx, QWORD PTR this$[rbp]
  00085	e8 00 00 00 00	 call	 ?pop_back@?$deque@FV?$allocator@F@std@@@std@@QEAAXXZ ; std::deque<short,std::allocator<short> >::pop_back

; 1470 :         }

  0008a	eb df		 jmp	 SHORT $LN2@Tidy
$LN3@Tidy:

; 1471 : 
; 1472 :         for (size_type _Block = _Mapsize(); 0 < _Block;) { // free storage for a block and destroy pointer

  0008c	48 8b 8d 30 01
	00 00		 mov	 rcx, QWORD PTR this$[rbp]
  00093	e8 00 00 00 00	 call	 ?_Mapsize@?$deque@FV?$allocator@F@std@@@std@@AEAAAEA_KXZ ; std::deque<short,std::allocator<short> >::_Mapsize
  00098	48 8b 00	 mov	 rax, QWORD PTR [rax]
  0009b	48 89 45 28	 mov	 QWORD PTR _Block$4[rbp], rax
$LN4@Tidy:
  0009f	48 83 7d 28 00	 cmp	 QWORD PTR _Block$4[rbp], 0
  000a4	0f 86 88 00 00
	00		 jbe	 $LN5@Tidy

; 1473 :             if (_Map()[--_Block]) { // free block and destroy its pointer

  000aa	48 8b 45 28	 mov	 rax, QWORD PTR _Block$4[rbp]
  000ae	48 ff c8	 dec	 rax
  000b1	48 89 45 28	 mov	 QWORD PTR _Block$4[rbp], rax
  000b5	48 8b 8d 30 01
	00 00		 mov	 rcx, QWORD PTR this$[rbp]
  000bc	e8 00 00 00 00	 call	 ?_Map@?$deque@FV?$allocator@F@std@@@std@@AEAAAEAPEAPEAFXZ ; std::deque<short,std::allocator<short> >::_Map
  000c1	48 8b 00	 mov	 rax, QWORD PTR [rax]
  000c4	48 8b 4d 28	 mov	 rcx, QWORD PTR _Block$4[rbp]
  000c8	48 83 3c c8 00	 cmp	 QWORD PTR [rax+rcx*8], 0
  000cd	74 5e		 je	 SHORT $LN7@Tidy

; 1474 :                 _Getal().deallocate(_Map()[_Block], _DEQUESIZ);

  000cf	48 8b 8d 30 01
	00 00		 mov	 rcx, QWORD PTR this$[rbp]
  000d6	e8 00 00 00 00	 call	 ?_Map@?$deque@FV?$allocator@F@std@@@std@@AEAAAEAPEAPEAFXZ ; std::deque<short,std::allocator<short> >::_Map
  000db	48 8b 00	 mov	 rax, QWORD PTR [rax]
  000de	48 89 85 f8 00
	00 00		 mov	 QWORD PTR tv145[rbp], rax
  000e5	48 8b 8d 30 01
	00 00		 mov	 rcx, QWORD PTR this$[rbp]
  000ec	e8 00 00 00 00	 call	 ?_Getal@?$deque@FV?$allocator@F@std@@@std@@AEAAAEAV?$allocator@F@2@XZ ; std::deque<short,std::allocator<short> >::_Getal
  000f1	41 b8 08 00 00
	00		 mov	 r8d, 8
  000f7	48 8b 4d 28	 mov	 rcx, QWORD PTR _Block$4[rbp]
  000fb	48 8b 95 f8 00
	00 00		 mov	 rdx, QWORD PTR tv145[rbp]
  00102	48 8b 14 ca	 mov	 rdx, QWORD PTR [rdx+rcx*8]
  00106	48 8b c8	 mov	 rcx, rax
  00109	e8 00 00 00 00	 call	 ?deallocate@?$allocator@F@std@@QEAAXQEAF_K@Z ; std::allocator<short>::deallocate

; 1475 :                 _Destroy_in_place(_Map()[_Block]);

  0010e	48 8b 8d 30 01
	00 00		 mov	 rcx, QWORD PTR this$[rbp]
  00115	e8 00 00 00 00	 call	 ?_Map@?$deque@FV?$allocator@F@std@@@std@@AEAAAEAPEAPEAFXZ ; std::deque<short,std::allocator<short> >::_Map
  0011a	48 8b 00	 mov	 rax, QWORD PTR [rax]
  0011d	48 8b 4d 28	 mov	 rcx, QWORD PTR _Block$4[rbp]
  00121	48 8d 04 c8	 lea	 rax, QWORD PTR [rax+rcx*8]
  00125	48 8b c8	 mov	 rcx, rax
  00128	e8 00 00 00 00	 call	 ??$_Destroy_in_place@PEAF@std@@YAXAEAPEAF@Z ; std::_Destroy_in_place<short *>
$LN7@Tidy:

; 1476 :             }
; 1477 :         }

  0012d	e9 6d ff ff ff	 jmp	 $LN4@Tidy
$LN5@Tidy:

; 1478 : 
; 1479 :         if (_Map() != _Mapptr()) {

  00132	48 8b 8d 30 01
	00 00		 mov	 rcx, QWORD PTR this$[rbp]
  00139	e8 00 00 00 00	 call	 ?_Map@?$deque@FV?$allocator@F@std@@@std@@AEAAAEAPEAPEAFXZ ; std::deque<short,std::allocator<short> >::_Map
  0013e	48 83 38 00	 cmp	 QWORD PTR [rax], 0
  00142	74 35		 je	 SHORT $LN8@Tidy

; 1480 :             _Almap.deallocate(_Map(), _Mapsize()); // free storage for map

  00144	48 8b 8d 30 01
	00 00		 mov	 rcx, QWORD PTR this$[rbp]
  0014b	e8 00 00 00 00	 call	 ?_Mapsize@?$deque@FV?$allocator@F@std@@@std@@AEAAAEA_KXZ ; std::deque<short,std::allocator<short> >::_Mapsize
  00150	48 89 85 f8 00
	00 00		 mov	 QWORD PTR tv134[rbp], rax
  00157	48 8b 8d 30 01
	00 00		 mov	 rcx, QWORD PTR this$[rbp]
  0015e	e8 00 00 00 00	 call	 ?_Map@?$deque@FV?$allocator@F@std@@@std@@AEAAAEAPEAPEAFXZ ; std::deque<short,std::allocator<short> >::_Map
  00163	48 8b 8d f8 00
	00 00		 mov	 rcx, QWORD PTR tv134[rbp]
  0016a	4c 8b 01	 mov	 r8, QWORD PTR [rcx]
  0016d	48 8b 10	 mov	 rdx, QWORD PTR [rax]
  00170	48 8d 4d 04	 lea	 rcx, QWORD PTR _Almap$[rbp]
  00174	e8 00 00 00 00	 call	 ?deallocate@?$allocator@PEAF@std@@QEAAXQEAPEAF_K@Z ; std::allocator<short *>::deallocate
$LN8@Tidy:

; 1481 :         }
; 1482 : 
; 1483 :         _Mapsize() = 0;

  00179	48 8b 8d 30 01
	00 00		 mov	 rcx, QWORD PTR this$[rbp]
  00180	e8 00 00 00 00	 call	 ?_Mapsize@?$deque@FV?$allocator@F@std@@@std@@AEAAAEA_KXZ ; std::deque<short,std::allocator<short> >::_Mapsize
  00185	48 c7 00 00 00
	00 00		 mov	 QWORD PTR [rax], 0

; 1484 :         _Map()     = _Mapptr();

  0018c	48 8b 8d 30 01
	00 00		 mov	 rcx, QWORD PTR this$[rbp]
  00193	e8 00 00 00 00	 call	 ?_Map@?$deque@FV?$allocator@F@std@@@std@@AEAAAEAPEAPEAFXZ ; std::deque<short,std::allocator<short> >::_Map
  00198	48 c7 00 00 00
	00 00		 mov	 QWORD PTR [rax], 0

; 1485 :     }

  0019f	48 8d 4d e0	 lea	 rcx, QWORD PTR [rbp-32]
  001a3	48 8d 15 00 00
	00 00		 lea	 rdx, OFFSET FLAT:?_Tidy@?$deque@FV?$allocator@F@std@@@std@@AEAAXXZ$rtcFrameData
  001aa	e8 00 00 00 00	 call	 _RTC_CheckStackVars
  001af	90		 npad	 1
  001b0	48 8b 8d 00 01
	00 00		 mov	 rcx, QWORD PTR __$ArrayPad$[rbp]
  001b7	48 33 cd	 xor	 rcx, rbp
  001ba	e8 00 00 00 00	 call	 __security_check_cookie
  001bf	48 8d a5 18 01
	00 00		 lea	 rsp, QWORD PTR [rbp+280]
  001c6	5f		 pop	 rdi
  001c7	5d		 pop	 rbp
  001c8	c3		 ret	 0
?_Tidy@?$deque@FV?$allocator@F@std@@@std@@AEAAXXZ ENDP	; std::deque<short,std::allocator<short> >::_Tidy
_TEXT	ENDS
; Function compile flags: /Odtp /RTCsu /ZI
; File C:\Program Files (x86)\Microsoft Visual Studio\2019\Enterprise\VC\Tools\MSVC\14.27.29110\include\deque
;	COMDAT ?pop_back@?$deque@FV?$allocator@F@std@@@std@@QEAAXXZ
_TEXT	SEGMENT
_Newoff$1 = 8
_Block$2 = 40
tv149 = 248
tv141 = 248
tv84 = 248
tv94 = 256
this$ = 304
?pop_back@?$deque@FV?$allocator@F@std@@@std@@QEAAXXZ PROC ; std::deque<short,std::allocator<short> >::pop_back, COMDAT

; 1125 :     void pop_back() noexcept /* strengthened */ {

$LN10:
  00000	48 89 4c 24 08	 mov	 QWORD PTR [rsp+8], rcx
  00005	55		 push	 rbp
  00006	57		 push	 rdi
  00007	48 81 ec 48 01
	00 00		 sub	 rsp, 328		; 00000148H
  0000e	48 8d 6c 24 30	 lea	 rbp, QWORD PTR [rsp+48]
  00013	48 8b fc	 mov	 rdi, rsp
  00016	b9 52 00 00 00	 mov	 ecx, 82			; 00000052H
  0001b	b8 cc cc cc cc	 mov	 eax, -858993460		; ccccccccH
  00020	f3 ab		 rep stosd
  00022	48 8b 8c 24 68
	01 00 00	 mov	 rcx, QWORD PTR [rsp+360]
  0002a	48 8d 0d 00 00
	00 00		 lea	 rcx, OFFSET FLAT:__1C3F1DC9_deque
  00031	e8 00 00 00 00	 call	 __CheckForDebuggerJustMyCode

; 1126 : #if _ITERATOR_DEBUG_LEVEL == 2
; 1127 :         if (empty()) {

  00036	48 8b 8d 30 01
	00 00		 mov	 rcx, QWORD PTR this$[rbp]
  0003d	e8 00 00 00 00	 call	 ?empty@?$deque@FV?$allocator@F@std@@@std@@QEBA_NXZ ; std::deque<short,std::allocator<short> >::empty
  00042	0f b6 c0	 movzx	 eax, al
  00045	85 c0		 test	 eax, eax
  00047	74 70		 je	 SHORT $LN5@pop_back
$LN4@pop_back:

; 1128 :             _STL_REPORT_ERROR("deque empty before pop");

  00049	48 8d 05 00 00
	00 00		 lea	 rax, OFFSET FLAT:??_C@_0BH@EDKEEENI@deque?5empty?5before?5pop@
  00050	48 89 44 24 28	 mov	 QWORD PTR [rsp+40], rax
  00055	48 8d 05 00 00
	00 00		 lea	 rax, OFFSET FLAT:??_C@_02DKCKIIND@?$CFs@
  0005c	48 89 44 24 20	 mov	 QWORD PTR [rsp+32], rax
  00061	45 33 c9	 xor	 r9d, r9d
  00064	41 b8 68 04 00
	00		 mov	 r8d, 1128		; 00000468H
  0006a	48 8d 15 00 00
	00 00		 lea	 rdx, OFFSET FLAT:??_C@_0GH@OBALDB@C?3?2Program?5Files?5?$CIx86?$CJ?2Microsof@
  00071	b9 02 00 00 00	 mov	 ecx, 2
  00076	ff 15 00 00 00
	00		 call	 QWORD PTR __imp__CrtDbgReport
  0007c	83 f8 01	 cmp	 eax, 1
  0007f	75 03		 jne	 SHORT $LN9@pop_back
  00081	cc		 int	 3
  00082	33 c0		 xor	 eax, eax
$LN9@pop_back:
  00084	48 c7 44 24 20
	00 00 00 00	 mov	 QWORD PTR [rsp+32], 0
  0008d	41 b9 68 04 00
	00		 mov	 r9d, 1128		; 00000468H
  00093	4c 8d 05 00 00
	00 00		 lea	 r8, OFFSET FLAT:??_C@_1MO@ONLEFNNG@?$AAC?$AA?3?$AA?2?$AAP?$AAr?$AAo?$AAg?$AAr?$AAa?$AAm?$AA?5?$AAF?$AAi?$AAl?$AAe@
  0009a	48 8d 15 00 00
	00 00		 lea	 rdx, OFFSET FLAT:??_C@_1HC@BNLMFKHI@?$AAs?$AAt?$AAd?$AA?3?$AA?3?$AAd?$AAe?$AAq?$AAu?$AAe?$AA?$DM?$AAs?$AAh?$AAo?$AAr@
  000a1	48 8d 0d 00 00
	00 00		 lea	 rcx, OFFSET FLAT:??_C@_1DC@NJAACHCD@?$AA?$CC?$AAd?$AAe?$AAq?$AAu?$AAe?$AA?5?$AAe?$AAm?$AAp?$AAt?$AAy?$AA?5?$AAb?$AAe@
  000a8	ff 15 00 00 00
	00		 call	 QWORD PTR __imp__invalid_parameter
  000ae	33 c0		 xor	 eax, eax
  000b0	85 c0		 test	 eax, eax
  000b2	75 95		 jne	 SHORT $LN4@pop_back

; 1129 :         } else { // something to erase, do it

  000b4	e9 0a 01 00 00	 jmp	 $LN6@pop_back
$LN5@pop_back:

; 1130 :             size_type _Newoff = _Myoff() + _Mysize() - 1;

  000b9	48 8b 8d 30 01
	00 00		 mov	 rcx, QWORD PTR this$[rbp]
  000c0	e8 00 00 00 00	 call	 ?_Myoff@?$deque@FV?$allocator@F@std@@@std@@AEAAAEA_KXZ ; std::deque<short,std::allocator<short> >::_Myoff
  000c5	48 89 85 f8 00
	00 00		 mov	 QWORD PTR tv84[rbp], rax
  000cc	48 8b 8d 30 01
	00 00		 mov	 rcx, QWORD PTR this$[rbp]
  000d3	e8 00 00 00 00	 call	 ?_Mysize@?$deque@FV?$allocator@F@std@@@std@@AEAAAEA_KXZ ; std::deque<short,std::allocator<short> >::_Mysize
  000d8	48 8b 8d f8 00
	00 00		 mov	 rcx, QWORD PTR tv84[rbp]
  000df	48 8b 09	 mov	 rcx, QWORD PTR [rcx]
  000e2	48 8b 00	 mov	 rax, QWORD PTR [rax]
  000e5	48 8d 44 01 ff	 lea	 rax, QWORD PTR [rcx+rax-1]
  000ea	48 89 45 08	 mov	 QWORD PTR _Newoff$1[rbp], rax

; 1131 :             _Orphan_off(_Newoff);

  000ee	48 8b 55 08	 mov	 rdx, QWORD PTR _Newoff$1[rbp]
  000f2	48 8b 8d 30 01
	00 00		 mov	 rcx, QWORD PTR this$[rbp]
  000f9	e8 00 00 00 00	 call	 ?_Orphan_off@?$deque@FV?$allocator@F@std@@@std@@AEBAX_K@Z ; std::deque<short,std::allocator<short> >::_Orphan_off

; 1132 :             size_type _Block = _Getblock(_Newoff);

  000fe	48 8b 55 08	 mov	 rdx, QWORD PTR _Newoff$1[rbp]
  00102	48 8b 8d 30 01
	00 00		 mov	 rcx, QWORD PTR this$[rbp]
  00109	e8 00 00 00 00	 call	 ?_Getblock@?$deque@FV?$allocator@F@std@@@std@@AEBA_K_K@Z ; std::deque<short,std::allocator<short> >::_Getblock
  0010e	48 89 45 28	 mov	 QWORD PTR _Block$2[rbp], rax

; 1133 :             _Alty_traits::destroy(_Getal(), _Unfancy(_Map()[_Block] + _Newoff % _DEQUESIZ));

  00112	48 8b 8d 30 01
	00 00		 mov	 rcx, QWORD PTR this$[rbp]
  00119	e8 00 00 00 00	 call	 ?_Map@?$deque@FV?$allocator@F@std@@@std@@AEAAAEAPEAPEAFXZ ; std::deque<short,std::allocator<short> >::_Map
  0011e	48 8b 00	 mov	 rax, QWORD PTR [rax]
  00121	48 89 85 f8 00
	00 00		 mov	 QWORD PTR tv149[rbp], rax
  00128	33 d2		 xor	 edx, edx
  0012a	48 8b 45 08	 mov	 rax, QWORD PTR _Newoff$1[rbp]
  0012e	b9 08 00 00 00	 mov	 ecx, 8
  00133	48 f7 f1	 div	 rcx
  00136	48 8b c2	 mov	 rax, rdx
  00139	48 8b 4d 28	 mov	 rcx, QWORD PTR _Block$2[rbp]
  0013d	48 8b 95 f8 00
	00 00		 mov	 rdx, QWORD PTR tv149[rbp]
  00144	48 8b 0c ca	 mov	 rcx, QWORD PTR [rdx+rcx*8]
  00148	48 8d 04 41	 lea	 rax, QWORD PTR [rcx+rax*2]
  0014c	48 8b c8	 mov	 rcx, rax
  0014f	e8 00 00 00 00	 call	 ??$_Unfancy@F@std@@YAPEAFPEAF@Z ; std::_Unfancy<short>
  00154	48 89 85 00 01
	00 00		 mov	 QWORD PTR tv94[rbp], rax
  0015b	48 8b 8d 30 01
	00 00		 mov	 rcx, QWORD PTR this$[rbp]
  00162	e8 00 00 00 00	 call	 ?_Getal@?$deque@FV?$allocator@F@std@@@std@@AEAAAEAV?$allocator@F@2@XZ ; std::deque<short,std::allocator<short> >::_Getal
  00167	48 8b 8d 00 01
	00 00		 mov	 rcx, QWORD PTR tv94[rbp]
  0016e	48 8b d1	 mov	 rdx, rcx
  00171	48 8b c8	 mov	 rcx, rax
  00174	e8 00 00 00 00	 call	 ??$destroy@F@?$_Default_allocator_traits@V?$allocator@F@std@@@std@@SAXAEAV?$allocator@F@1@QEAF@Z ; std::_Default_allocator_traits<std::allocator<short> >::destroy<short>

; 1134 :             if (--_Mysize() == 0) {

  00179	48 8b 8d 30 01
	00 00		 mov	 rcx, QWORD PTR this$[rbp]
  00180	e8 00 00 00 00	 call	 ?_Mysize@?$deque@FV?$allocator@F@std@@@std@@AEAAAEA_KXZ ; std::deque<short,std::allocator<short> >::_Mysize
  00185	48 89 85 f8 00
	00 00		 mov	 QWORD PTR tv141[rbp], rax
  0018c	48 8b 85 f8 00
	00 00		 mov	 rax, QWORD PTR tv141[rbp]
  00193	48 8b 00	 mov	 rax, QWORD PTR [rax]
  00196	48 ff c8	 dec	 rax
  00199	48 8b 8d f8 00
	00 00		 mov	 rcx, QWORD PTR tv141[rbp]
  001a0	48 89 01	 mov	 QWORD PTR [rcx], rax
  001a3	48 8b 85 f8 00
	00 00		 mov	 rax, QWORD PTR tv141[rbp]
  001aa	48 83 38 00	 cmp	 QWORD PTR [rax], 0
  001ae	75 13		 jne	 SHORT $LN6@pop_back

; 1135 :                 _Myoff() = 0;

  001b0	48 8b 8d 30 01
	00 00		 mov	 rcx, QWORD PTR this$[rbp]
  001b7	e8 00 00 00 00	 call	 ?_Myoff@?$deque@FV?$allocator@F@std@@@std@@AEAAAEA_KXZ ; std::deque<short,std::allocator<short> >::_Myoff
  001bc	48 c7 00 00 00
	00 00		 mov	 QWORD PTR [rax], 0
$LN6@pop_back:

; 1136 :             }
; 1137 :         }
; 1138 : 
; 1139 : #else // _ITERATOR_DEBUG_LEVEL == 2
; 1140 :         size_type _Newoff = _Myoff() + _Mysize() - 1;
; 1141 :         size_type _Block  = _Getblock(_Newoff);
; 1142 :         _Alty_traits::destroy(_Getal(), _Unfancy(_Map()[_Block] + _Newoff % _DEQUESIZ));
; 1143 :         if (--_Mysize() == 0) {
; 1144 :             _Myoff() = 0;
; 1145 :         }
; 1146 : #endif // _ITERATOR_DEBUG_LEVEL == 2
; 1147 :     }

  001c3	48 8d a5 18 01
	00 00		 lea	 rsp, QWORD PTR [rbp+280]
  001ca	5f		 pop	 rdi
  001cb	5d		 pop	 rbp
  001cc	c3		 ret	 0
?pop_back@?$deque@FV?$allocator@F@std@@@std@@QEAAXXZ ENDP ; std::deque<short,std::allocator<short> >::pop_back
_TEXT	ENDS
; Function compile flags: /Odtp /RTCsu /ZI
; File C:\Program Files (x86)\Microsoft Visual Studio\2019\Enterprise\VC\Tools\MSVC\14.27.29110\include\deque
;	COMDAT ?empty@?$deque@FV?$allocator@F@std@@@std@@QEBA_NXZ
_TEXT	SEGMENT
tv67 = 192
this$ = 240
?empty@?$deque@FV?$allocator@F@std@@@std@@QEBA_NXZ PROC	; std::deque<short,std::allocator<short> >::empty, COMDAT

; 1008 :     _NODISCARD bool empty() const noexcept {

$LN5:
  00000	48 89 4c 24 08	 mov	 QWORD PTR [rsp+8], rcx
  00005	55		 push	 rbp
  00006	57		 push	 rdi
  00007	48 81 ec f8 00
	00 00		 sub	 rsp, 248		; 000000f8H
  0000e	48 8d 6c 24 20	 lea	 rbp, QWORD PTR [rsp+32]
  00013	48 8b fc	 mov	 rdi, rsp
  00016	b9 3e 00 00 00	 mov	 ecx, 62			; 0000003eH
  0001b	b8 cc cc cc cc	 mov	 eax, -858993460		; ccccccccH
  00020	f3 ab		 rep stosd
  00022	48 8b 8c 24 18
	01 00 00	 mov	 rcx, QWORD PTR [rsp+280]
  0002a	48 8d 0d 00 00
	00 00		 lea	 rcx, OFFSET FLAT:__1C3F1DC9_deque
  00031	e8 00 00 00 00	 call	 __CheckForDebuggerJustMyCode

; 1009 :         return _Mysize() == 0;

  00036	48 8b 8d f0 00
	00 00		 mov	 rcx, QWORD PTR this$[rbp]
  0003d	e8 00 00 00 00	 call	 ?_Mysize@?$deque@FV?$allocator@F@std@@@std@@AEBAAEB_KXZ ; std::deque<short,std::allocator<short> >::_Mysize
  00042	48 83 38 00	 cmp	 QWORD PTR [rax], 0
  00046	75 0c		 jne	 SHORT $LN3@empty
  00048	c7 85 c0 00 00
	00 01 00 00 00	 mov	 DWORD PTR tv67[rbp], 1
  00052	eb 0a		 jmp	 SHORT $LN4@empty
$LN3@empty:
  00054	c7 85 c0 00 00
	00 00 00 00 00	 mov	 DWORD PTR tv67[rbp], 0
$LN4@empty:
  0005e	0f b6 85 c0 00
	00 00		 movzx	 eax, BYTE PTR tv67[rbp]

; 1010 :     }

  00065	48 8d a5 d8 00
	00 00		 lea	 rsp, QWORD PTR [rbp+216]
  0006c	5f		 pop	 rdi
  0006d	5d		 pop	 rbp
  0006e	c3		 ret	 0
?empty@?$deque@FV?$allocator@F@std@@@std@@QEBA_NXZ ENDP	; std::deque<short,std::allocator<short> >::empty
_TEXT	ENDS
; Function compile flags: /Odtp /RTCsu /ZI
; File C:\Program Files (x86)\Microsoft Visual Studio\2019\Enterprise\VC\Tools\MSVC\14.27.29110\include\deque
;	COMDAT ??1?$deque@FV?$allocator@F@std@@@std@@QEAA@XZ
_TEXT	SEGMENT
_Proxy_allocator$ = 4
$T4 = 228
__$ArrayPad$ = 248
this$ = 288
??1?$deque@FV?$allocator@F@std@@@std@@QEAA@XZ PROC	; std::deque<short,std::allocator<short> >::~deque<short,std::allocator<short> >, COMDAT

; 868  :     ~deque() noexcept {

$LN3:
  00000	48 89 4c 24 08	 mov	 QWORD PTR [rsp+8], rcx
  00005	55		 push	 rbp
  00006	57		 push	 rdi
  00007	48 81 ec 28 01
	00 00		 sub	 rsp, 296		; 00000128H
  0000e	48 8d 6c 24 20	 lea	 rbp, QWORD PTR [rsp+32]
  00013	48 8b fc	 mov	 rdi, rsp
  00016	b9 4a 00 00 00	 mov	 ecx, 74			; 0000004aH
  0001b	b8 cc cc cc cc	 mov	 eax, -858993460		; ccccccccH
  00020	f3 ab		 rep stosd
  00022	48 8b 8c 24 48
	01 00 00	 mov	 rcx, QWORD PTR [rsp+328]
  0002a	48 8b 05 00 00
	00 00		 mov	 rax, QWORD PTR __security_cookie
  00031	48 33 c5	 xor	 rax, rbp
  00034	48 89 85 f8 00
	00 00		 mov	 QWORD PTR __$ArrayPad$[rbp], rax
  0003b	48 8d 0d 00 00
	00 00		 lea	 rcx, OFFSET FLAT:__1C3F1DC9_deque
  00042	e8 00 00 00 00	 call	 __CheckForDebuggerJustMyCode

; 869  :         _Tidy();

  00047	48 8b 8d 20 01
	00 00		 mov	 rcx, QWORD PTR this$[rbp]
  0004e	e8 00 00 00 00	 call	 ?_Tidy@?$deque@FV?$allocator@F@std@@@std@@AEAAXXZ ; std::deque<short,std::allocator<short> >::_Tidy

; 870  :         _Alproxy_ty _Proxy_allocator(_Getal());

  00053	48 8b 8d 20 01
	00 00		 mov	 rcx, QWORD PTR this$[rbp]
  0005a	e8 00 00 00 00	 call	 ?_Getal@?$deque@FV?$allocator@F@std@@@std@@AEAAAEAV?$allocator@F@2@XZ ; std::deque<short,std::allocator<short> >::_Getal
  0005f	48 8b d0	 mov	 rdx, rax
  00062	48 8d 4d 04	 lea	 rcx, QWORD PTR _Proxy_allocator$[rbp]
  00066	e8 00 00 00 00	 call	 ??$?0F@?$allocator@U_Container_proxy@std@@@std@@QEAA@AEBV?$allocator@F@1@@Z ; std::allocator<std::_Container_proxy>::allocator<std::_Container_proxy><short>

; 871  :         _Delete_plain_internal(_Proxy_allocator, _STD exchange(_Get_data()._Myproxy, nullptr));

  0006b	48 c7 85 e4 00
	00 00 00 00 00
	00		 mov	 QWORD PTR $T4[rbp], 0
  00076	48 8b 8d 20 01
	00 00		 mov	 rcx, QWORD PTR this$[rbp]
  0007d	e8 00 00 00 00	 call	 ?_Get_data@?$deque@FV?$allocator@F@std@@@std@@AEAAAEAV?$_Deque_val@U?$_Deque_simple_types@F@std@@@2@XZ ; std::deque<short,std::allocator<short> >::_Get_data
  00082	48 8d 95 e4 00
	00 00		 lea	 rdx, QWORD PTR $T4[rbp]
  00089	48 8b c8	 mov	 rcx, rax
  0008c	e8 00 00 00 00	 call	 ??$exchange@PEAU_Container_proxy@std@@$$T@std@@YAPEAU_Container_proxy@0@AEAPEAU10@$$QEA$$T@Z ; std::exchange<std::_Container_proxy *,std::nullptr_t>
  00091	48 8b d0	 mov	 rdx, rax
  00094	48 8d 4d 04	 lea	 rcx, QWORD PTR _Proxy_allocator$[rbp]
  00098	e8 00 00 00 00	 call	 ??$_Delete_plain_internal@V?$allocator@U_Container_proxy@std@@@std@@@std@@YAXAEAV?$allocator@U_Container_proxy@std@@@0@QEAU_Container_proxy@0@@Z ; std::_Delete_plain_internal<std::allocator<std::_Container_proxy> >

; 872  :     }

  0009d	48 8d 4d e0	 lea	 rcx, QWORD PTR [rbp-32]
  000a1	48 8d 15 00 00
	00 00		 lea	 rdx, OFFSET FLAT:??1?$deque@FV?$allocator@F@std@@@std@@QEAA@XZ$rtcFrameData
  000a8	e8 00 00 00 00	 call	 _RTC_CheckStackVars
  000ad	90		 npad	 1
  000ae	48 8b 8d f8 00
	00 00		 mov	 rcx, QWORD PTR __$ArrayPad$[rbp]
  000b5	48 33 cd	 xor	 rcx, rbp
  000b8	e8 00 00 00 00	 call	 __security_check_cookie
  000bd	48 8d a5 08 01
	00 00		 lea	 rsp, QWORD PTR [rbp+264]
  000c4	5f		 pop	 rdi
  000c5	5d		 pop	 rbp
  000c6	c3		 ret	 0
??1?$deque@FV?$allocator@F@std@@@std@@QEAA@XZ ENDP	; std::deque<short,std::allocator<short> >::~deque<short,std::allocator<short> >
_TEXT	ENDS
; Function compile flags: /Odtp /RTCsu /ZI
; File C:\Program Files (x86)\Microsoft Visual Studio\2019\Enterprise\VC\Tools\MSVC\14.27.29110\include\xmemory
;	COMDAT ?deallocate@?$allocator@PEAF@std@@QEAAXQEAPEAF_K@Z
_TEXT	SEGMENT
this$ = 224
_Ptr$ = 232
_Count$ = 240
?deallocate@?$allocator@PEAF@std@@QEAAXQEAPEAF_K@Z PROC	; std::allocator<short *>::deallocate, COMDAT

; 801  :     void deallocate(_Ty* const _Ptr, const size_t _Count) {

$LN3:
  00000	4c 89 44 24 18	 mov	 QWORD PTR [rsp+24], r8
  00005	48 89 54 24 10	 mov	 QWORD PTR [rsp+16], rdx
  0000a	48 89 4c 24 08	 mov	 QWORD PTR [rsp+8], rcx
  0000f	55		 push	 rbp
  00010	57		 push	 rdi
  00011	48 81 ec e8 00
	00 00		 sub	 rsp, 232		; 000000e8H
  00018	48 8d 6c 24 20	 lea	 rbp, QWORD PTR [rsp+32]
  0001d	48 8b fc	 mov	 rdi, rsp
  00020	b9 3a 00 00 00	 mov	 ecx, 58			; 0000003aH
  00025	b8 cc cc cc cc	 mov	 eax, -858993460		; ccccccccH
  0002a	f3 ab		 rep stosd
  0002c	48 8b 8c 24 08
	01 00 00	 mov	 rcx, QWORD PTR [rsp+264]
  00034	48 8d 0d 00 00
	00 00		 lea	 rcx, OFFSET FLAT:__0C99713E_xmemory
  0003b	e8 00 00 00 00	 call	 __CheckForDebuggerJustMyCode

; 802  :         // no overflow check on the following multiply; we assume _Allocate did that check
; 803  :         _Deallocate<_New_alignof<_Ty>>(_Ptr, sizeof(_Ty) * _Count);

  00040	48 8b 85 f0 00
	00 00		 mov	 rax, QWORD PTR _Count$[rbp]
  00047	48 c1 e0 03	 shl	 rax, 3
  0004b	48 8b d0	 mov	 rdx, rax
  0004e	48 8b 8d e8 00
	00 00		 mov	 rcx, QWORD PTR _Ptr$[rbp]
  00055	e8 00 00 00 00	 call	 ??$_Deallocate@$0BA@$0A@@std@@YAXPEAX_K@Z ; std::_Deallocate<16,0>

; 804  :     }

  0005a	48 8d a5 c8 00
	00 00		 lea	 rsp, QWORD PTR [rbp+200]
  00061	5f		 pop	 rdi
  00062	5d		 pop	 rbp
  00063	c3		 ret	 0
?deallocate@?$allocator@PEAF@std@@QEAAXQEAPEAF_K@Z ENDP	; std::allocator<short *>::deallocate
_TEXT	ENDS
; Function compile flags: /Odtp /RTCsu /ZI
; File C:\Program Files (x86)\Microsoft Visual Studio\2019\Enterprise\VC\Tools\MSVC\14.27.29110\include\xmemory
;	COMDAT ?deallocate@?$allocator@F@std@@QEAAXQEAF_K@Z
_TEXT	SEGMENT
this$ = 224
_Ptr$ = 232
_Count$ = 240
?deallocate@?$allocator@F@std@@QEAAXQEAF_K@Z PROC	; std::allocator<short>::deallocate, COMDAT

; 801  :     void deallocate(_Ty* const _Ptr, const size_t _Count) {

$LN3:
  00000	4c 89 44 24 18	 mov	 QWORD PTR [rsp+24], r8
  00005	48 89 54 24 10	 mov	 QWORD PTR [rsp+16], rdx
  0000a	48 89 4c 24 08	 mov	 QWORD PTR [rsp+8], rcx
  0000f	55		 push	 rbp
  00010	57		 push	 rdi
  00011	48 81 ec e8 00
	00 00		 sub	 rsp, 232		; 000000e8H
  00018	48 8d 6c 24 20	 lea	 rbp, QWORD PTR [rsp+32]
  0001d	48 8b fc	 mov	 rdi, rsp
  00020	b9 3a 00 00 00	 mov	 ecx, 58			; 0000003aH
  00025	b8 cc cc cc cc	 mov	 eax, -858993460		; ccccccccH
  0002a	f3 ab		 rep stosd
  0002c	48 8b 8c 24 08
	01 00 00	 mov	 rcx, QWORD PTR [rsp+264]
  00034	48 8d 0d 00 00
	00 00		 lea	 rcx, OFFSET FLAT:__0C99713E_xmemory
  0003b	e8 00 00 00 00	 call	 __CheckForDebuggerJustMyCode

; 802  :         // no overflow check on the following multiply; we assume _Allocate did that check
; 803  :         _Deallocate<_New_alignof<_Ty>>(_Ptr, sizeof(_Ty) * _Count);

  00040	48 8b 85 f0 00
	00 00		 mov	 rax, QWORD PTR _Count$[rbp]
  00047	48 d1 e0	 shl	 rax, 1
  0004a	48 8b d0	 mov	 rdx, rax
  0004d	48 8b 8d e8 00
	00 00		 mov	 rcx, QWORD PTR _Ptr$[rbp]
  00054	e8 00 00 00 00	 call	 ??$_Deallocate@$0BA@$0A@@std@@YAXPEAX_K@Z ; std::_Deallocate<16,0>

; 804  :     }

  00059	48 8d a5 c8 00
	00 00		 lea	 rsp, QWORD PTR [rbp+200]
  00060	5f		 pop	 rdi
  00061	5d		 pop	 rbp
  00062	c3		 ret	 0
?deallocate@?$allocator@F@std@@QEAAXQEAF_K@Z ENDP	; std::allocator<short>::deallocate
_TEXT	ENDS
; Function compile flags: /Odtp /RTCsu /ZI
; File C:\Program Files (x86)\Microsoft Visual Studio\2019\Enterprise\VC\Tools\MSVC\14.27.29110\include\xloctime
;	COMDAT ??$_Getvals@_W@?$time_get@_WV?$istreambuf_iterator@_WU?$char_traits@_W@std@@@std@@@std@@IEAAX_WAEBV_Locinfo@1@@Z
_TEXT	SEGMENT
$T1 = 200
tv93 = 264
tv85 = 264
this$ = 304
__formal$ = 312
_Lobj$ = 320
??$_Getvals@_W@?$time_get@_WV?$istreambuf_iterator@_WU?$char_traits@_W@std@@@std@@@std@@IEAAX_WAEBV_Locinfo@1@@Z PROC ; std::time_get<wchar_t,std::istreambuf_iterator<wchar_t,std::char_traits<wchar_t> > >::_Getvals<wchar_t>, COMDAT

; 176  :     void __CLR_OR_THIS_CALL _Getvals(_Elem2, const _Locinfo& _Lobj) { // get values

$LN5:
  00000	4c 89 44 24 18	 mov	 QWORD PTR [rsp+24], r8
  00005	66 89 54 24 10	 mov	 WORD PTR [rsp+16], dx
  0000a	48 89 4c 24 08	 mov	 QWORD PTR [rsp+8], rcx
  0000f	55		 push	 rbp
  00010	56		 push	 rsi
  00011	57		 push	 rdi
  00012	48 81 ec 30 01
	00 00		 sub	 rsp, 304		; 00000130H
  00019	48 8d 6c 24 20	 lea	 rbp, QWORD PTR [rsp+32]
  0001e	48 8b fc	 mov	 rdi, rsp
  00021	b9 4c 00 00 00	 mov	 ecx, 76			; 0000004cH
  00026	b8 cc cc cc cc	 mov	 eax, -858993460		; ccccccccH
  0002b	f3 ab		 rep stosd
  0002d	48 8b 8c 24 58
	01 00 00	 mov	 rcx, QWORD PTR [rsp+344]
  00035	48 8d 0d 00 00
	00 00		 lea	 rcx, OFFSET FLAT:__FDACCCE4_xloctime
  0003c	e8 00 00 00 00	 call	 __CheckForDebuggerJustMyCode

; 177  :         _Cvt = _Lobj._Getcvt();

  00041	48 8d 95 c8 00
	00 00		 lea	 rdx, QWORD PTR $T1[rbp]
  00048	48 8b 8d 40 01
	00 00		 mov	 rcx, QWORD PTR _Lobj$[rbp]
  0004f	ff 15 00 00 00
	00		 call	 QWORD PTR __imp_?_Getcvt@_Locinfo@std@@QEBA?AU_Cvtvec@@XZ
  00055	48 8b 8d 30 01
	00 00		 mov	 rcx, QWORD PTR this$[rbp]
  0005c	48 8d 79 2c	 lea	 rdi, QWORD PTR [rcx+44]
  00060	48 8b f0	 mov	 rsi, rax
  00063	b9 2c 00 00 00	 mov	 ecx, 44			; 0000002cH
  00068	f3 a4		 rep movsb

; 178  : 
; 179  :         if (is_same_v<_Elem2, wchar_t>) {

  0006a	33 c0		 xor	 eax, eax
  0006c	83 f8 01	 cmp	 eax, 1
  0006f	74 5c		 je	 SHORT $LN2@Getvals

; 180  :             _Days = reinterpret_cast<const _Elem*>(_Maklocwcs(reinterpret_cast<const wchar_t*>(_Lobj._W_Getdays())));

  00071	48 8b 8d 40 01
	00 00		 mov	 rcx, QWORD PTR _Lobj$[rbp]
  00078	ff 15 00 00 00
	00		 call	 QWORD PTR __imp_?_W_Getdays@_Locinfo@std@@QEBAPEBGXZ
  0007e	48 8b c8	 mov	 rcx, rax
  00081	e8 00 00 00 00	 call	 ?_Maklocwcs@std@@YAPEA_WPEB_W@Z ; std::_Maklocwcs
  00086	48 8b 8d 30 01
	00 00		 mov	 rcx, QWORD PTR this$[rbp]
  0008d	48 89 41 10	 mov	 QWORD PTR [rcx+16], rax

; 181  :             _Months =

  00091	48 8b 8d 40 01
	00 00		 mov	 rcx, QWORD PTR _Lobj$[rbp]
  00098	ff 15 00 00 00
	00		 call	 QWORD PTR __imp_?_W_Getmonths@_Locinfo@std@@QEBAPEBGXZ
  0009e	48 8b c8	 mov	 rcx, rax
  000a1	e8 00 00 00 00	 call	 ?_Maklocwcs@std@@YAPEA_WPEB_W@Z ; std::_Maklocwcs
  000a6	48 8b 8d 30 01
	00 00		 mov	 rcx, QWORD PTR this$[rbp]
  000ad	48 89 41 18	 mov	 QWORD PTR [rcx+24], rax

; 182  :                 reinterpret_cast<const _Elem*>(_Maklocwcs(reinterpret_cast<const wchar_t*>(_Lobj._W_Getmonths())));
; 183  :             _Ampm = reinterpret_cast<const _Elem*>(_Maklocwcs(L":AM:am:PM:pm"));

  000b1	48 8d 0d 00 00
	00 00		 lea	 rcx, OFFSET FLAT:??_C@_1BK@MHIKGOKE@?$AA?3?$AAA?$AAM?$AA?3?$AAa?$AAm?$AA?3?$AAP?$AAM?$AA?3?$AAp?$AAm@
  000b8	e8 00 00 00 00	 call	 ?_Maklocwcs@std@@YAPEA_WPEB_W@Z ; std::_Maklocwcs
  000bd	48 8b 8d 30 01
	00 00		 mov	 rcx, QWORD PTR this$[rbp]
  000c4	48 89 41 20	 mov	 QWORD PTR [rcx+32], rax

; 184  :         } else {

  000c8	e9 a3 00 00 00	 jmp	 $LN3@Getvals
$LN2@Getvals:

; 185  :             _Days   = _Maklocstr(_Lobj._Getdays(), static_cast<_Elem*>(nullptr), _Cvt);

  000cd	48 8b 85 30 01
	00 00		 mov	 rax, QWORD PTR this$[rbp]
  000d4	48 83 c0 2c	 add	 rax, 44			; 0000002cH
  000d8	48 89 85 08 01
	00 00		 mov	 QWORD PTR tv85[rbp], rax
  000df	48 8b 8d 40 01
	00 00		 mov	 rcx, QWORD PTR _Lobj$[rbp]
  000e6	ff 15 00 00 00
	00		 call	 QWORD PTR __imp_?_Getdays@_Locinfo@std@@QEBAPEBDXZ
  000ec	48 8b 8d 08 01
	00 00		 mov	 rcx, QWORD PTR tv85[rbp]
  000f3	4c 8b c1	 mov	 r8, rcx
  000f6	33 d2		 xor	 edx, edx
  000f8	48 8b c8	 mov	 rcx, rax
  000fb	e8 00 00 00 00	 call	 ??$_Maklocstr@_W@std@@YAPEA_WPEBDPEA_WAEBU_Cvtvec@@@Z ; std::_Maklocstr<wchar_t>
  00100	48 8b 8d 30 01
	00 00		 mov	 rcx, QWORD PTR this$[rbp]
  00107	48 89 41 10	 mov	 QWORD PTR [rcx+16], rax

; 186  :             _Months = _Maklocstr(_Lobj._Getmonths(), static_cast<_Elem*>(nullptr), _Cvt);

  0010b	48 8b 85 30 01
	00 00		 mov	 rax, QWORD PTR this$[rbp]
  00112	48 83 c0 2c	 add	 rax, 44			; 0000002cH
  00116	48 89 85 08 01
	00 00		 mov	 QWORD PTR tv93[rbp], rax
  0011d	48 8b 8d 40 01
	00 00		 mov	 rcx, QWORD PTR _Lobj$[rbp]
  00124	ff 15 00 00 00
	00		 call	 QWORD PTR __imp_?_Getmonths@_Locinfo@std@@QEBAPEBDXZ
  0012a	48 8b 8d 08 01
	00 00		 mov	 rcx, QWORD PTR tv93[rbp]
  00131	4c 8b c1	 mov	 r8, rcx
  00134	33 d2		 xor	 edx, edx
  00136	48 8b c8	 mov	 rcx, rax
  00139	e8 00 00 00 00	 call	 ??$_Maklocstr@_W@std@@YAPEA_WPEBDPEA_WAEBU_Cvtvec@@@Z ; std::_Maklocstr<wchar_t>
  0013e	48 8b 8d 30 01
	00 00		 mov	 rcx, QWORD PTR this$[rbp]
  00145	48 89 41 18	 mov	 QWORD PTR [rcx+24], rax

; 187  :             _Ampm   = _Maklocstr(":AM:am:PM:pm", static_cast<_Elem*>(nullptr), _Cvt);

  00149	48 8b 85 30 01
	00 00		 mov	 rax, QWORD PTR this$[rbp]
  00150	48 83 c0 2c	 add	 rax, 44			; 0000002cH
  00154	4c 8b c0	 mov	 r8, rax
  00157	33 d2		 xor	 edx, edx
  00159	48 8d 0d 00 00
	00 00		 lea	 rcx, OFFSET FLAT:??_C@_0N@LPFKKEBD@?3AM?3am?3PM?3pm@
  00160	e8 00 00 00 00	 call	 ??$_Maklocstr@_W@std@@YAPEA_WPEBDPEA_WAEBU_Cvtvec@@@Z ; std::_Maklocstr<wchar_t>
  00165	48 8b 8d 30 01
	00 00		 mov	 rcx, QWORD PTR this$[rbp]
  0016c	48 89 41 20	 mov	 QWORD PTR [rcx+32], rax
$LN3@Getvals:

; 188  :         }
; 189  :     }

  00170	48 8d a5 10 01
	00 00		 lea	 rsp, QWORD PTR [rbp+272]
  00177	5f		 pop	 rdi
  00178	5e		 pop	 rsi
  00179	5d		 pop	 rbp
  0017a	c3		 ret	 0
??$_Getvals@_W@?$time_get@_WV?$istreambuf_iterator@_WU?$char_traits@_W@std@@@std@@@std@@IEAAX_WAEBV_Locinfo@1@@Z ENDP ; std::time_get<wchar_t,std::istreambuf_iterator<wchar_t,std::char_traits<wchar_t> > >::_Getvals<wchar_t>
_TEXT	ENDS
; Function compile flags: /Odtp /RTCsu /ZI
; File C:\Program Files (x86)\Microsoft Visual Studio\2019\Enterprise\VC\Tools\MSVC\14.27.29110\include\xloctime
;	COMDAT ??$_Getvals@_W@?$time_get@DV?$istreambuf_iterator@DU?$char_traits@D@std@@@std@@@std@@IEAAX_WAEBV_Locinfo@1@@Z
_TEXT	SEGMENT
$T1 = 200
tv93 = 264
tv85 = 264
this$ = 304
__formal$ = 312
_Lobj$ = 320
??$_Getvals@_W@?$time_get@DV?$istreambuf_iterator@DU?$char_traits@D@std@@@std@@@std@@IEAAX_WAEBV_Locinfo@1@@Z PROC ; std::time_get<char,std::istreambuf_iterator<char,std::char_traits<char> > >::_Getvals<wchar_t>, COMDAT

; 176  :     void __CLR_OR_THIS_CALL _Getvals(_Elem2, const _Locinfo& _Lobj) { // get values

$LN5:
  00000	4c 89 44 24 18	 mov	 QWORD PTR [rsp+24], r8
  00005	66 89 54 24 10	 mov	 WORD PTR [rsp+16], dx
  0000a	48 89 4c 24 08	 mov	 QWORD PTR [rsp+8], rcx
  0000f	55		 push	 rbp
  00010	56		 push	 rsi
  00011	57		 push	 rdi
  00012	48 81 ec 30 01
	00 00		 sub	 rsp, 304		; 00000130H
  00019	48 8d 6c 24 20	 lea	 rbp, QWORD PTR [rsp+32]
  0001e	48 8b fc	 mov	 rdi, rsp
  00021	b9 4c 00 00 00	 mov	 ecx, 76			; 0000004cH
  00026	b8 cc cc cc cc	 mov	 eax, -858993460		; ccccccccH
  0002b	f3 ab		 rep stosd
  0002d	48 8b 8c 24 58
	01 00 00	 mov	 rcx, QWORD PTR [rsp+344]
  00035	48 8d 0d 00 00
	00 00		 lea	 rcx, OFFSET FLAT:__FDACCCE4_xloctime
  0003c	e8 00 00 00 00	 call	 __CheckForDebuggerJustMyCode

; 177  :         _Cvt = _Lobj._Getcvt();

  00041	48 8d 95 c8 00
	00 00		 lea	 rdx, QWORD PTR $T1[rbp]
  00048	48 8b 8d 40 01
	00 00		 mov	 rcx, QWORD PTR _Lobj$[rbp]
  0004f	ff 15 00 00 00
	00		 call	 QWORD PTR __imp_?_Getcvt@_Locinfo@std@@QEBA?AU_Cvtvec@@XZ
  00055	48 8b 8d 30 01
	00 00		 mov	 rcx, QWORD PTR this$[rbp]
  0005c	48 8d 79 2c	 lea	 rdi, QWORD PTR [rcx+44]
  00060	48 8b f0	 mov	 rsi, rax
  00063	b9 2c 00 00 00	 mov	 ecx, 44			; 0000002cH
  00068	f3 a4		 rep movsb

; 178  : 
; 179  :         if (is_same_v<_Elem2, wchar_t>) {

  0006a	33 c0		 xor	 eax, eax
  0006c	83 f8 01	 cmp	 eax, 1
  0006f	74 5c		 je	 SHORT $LN2@Getvals

; 180  :             _Days = reinterpret_cast<const _Elem*>(_Maklocwcs(reinterpret_cast<const wchar_t*>(_Lobj._W_Getdays())));

  00071	48 8b 8d 40 01
	00 00		 mov	 rcx, QWORD PTR _Lobj$[rbp]
  00078	ff 15 00 00 00
	00		 call	 QWORD PTR __imp_?_W_Getdays@_Locinfo@std@@QEBAPEBGXZ
  0007e	48 8b c8	 mov	 rcx, rax
  00081	e8 00 00 00 00	 call	 ?_Maklocwcs@std@@YAPEA_WPEB_W@Z ; std::_Maklocwcs
  00086	48 8b 8d 30 01
	00 00		 mov	 rcx, QWORD PTR this$[rbp]
  0008d	48 89 41 10	 mov	 QWORD PTR [rcx+16], rax

; 181  :             _Months =

  00091	48 8b 8d 40 01
	00 00		 mov	 rcx, QWORD PTR _Lobj$[rbp]
  00098	ff 15 00 00 00
	00		 call	 QWORD PTR __imp_?_W_Getmonths@_Locinfo@std@@QEBAPEBGXZ
  0009e	48 8b c8	 mov	 rcx, rax
  000a1	e8 00 00 00 00	 call	 ?_Maklocwcs@std@@YAPEA_WPEB_W@Z ; std::_Maklocwcs
  000a6	48 8b 8d 30 01
	00 00		 mov	 rcx, QWORD PTR this$[rbp]
  000ad	48 89 41 18	 mov	 QWORD PTR [rcx+24], rax

; 182  :                 reinterpret_cast<const _Elem*>(_Maklocwcs(reinterpret_cast<const wchar_t*>(_Lobj._W_Getmonths())));
; 183  :             _Ampm = reinterpret_cast<const _Elem*>(_Maklocwcs(L":AM:am:PM:pm"));

  000b1	48 8d 0d 00 00
	00 00		 lea	 rcx, OFFSET FLAT:??_C@_1BK@MHIKGOKE@?$AA?3?$AAA?$AAM?$AA?3?$AAa?$AAm?$AA?3?$AAP?$AAM?$AA?3?$AAp?$AAm@
  000b8	e8 00 00 00 00	 call	 ?_Maklocwcs@std@@YAPEA_WPEB_W@Z ; std::_Maklocwcs
  000bd	48 8b 8d 30 01
	00 00		 mov	 rcx, QWORD PTR this$[rbp]
  000c4	48 89 41 20	 mov	 QWORD PTR [rcx+32], rax

; 184  :         } else {

  000c8	e9 a3 00 00 00	 jmp	 $LN3@Getvals
$LN2@Getvals:

; 185  :             _Days   = _Maklocstr(_Lobj._Getdays(), static_cast<_Elem*>(nullptr), _Cvt);

  000cd	48 8b 85 30 01
	00 00		 mov	 rax, QWORD PTR this$[rbp]
  000d4	48 83 c0 2c	 add	 rax, 44			; 0000002cH
  000d8	48 89 85 08 01
	00 00		 mov	 QWORD PTR tv85[rbp], rax
  000df	48 8b 8d 40 01
	00 00		 mov	 rcx, QWORD PTR _Lobj$[rbp]
  000e6	ff 15 00 00 00
	00		 call	 QWORD PTR __imp_?_Getdays@_Locinfo@std@@QEBAPEBDXZ
  000ec	48 8b 8d 08 01
	00 00		 mov	 rcx, QWORD PTR tv85[rbp]
  000f3	4c 8b c1	 mov	 r8, rcx
  000f6	33 d2		 xor	 edx, edx
  000f8	48 8b c8	 mov	 rcx, rax
  000fb	e8 00 00 00 00	 call	 ??$_Maklocstr@D@std@@YAPEADPEBDPEADAEBU_Cvtvec@@@Z ; std::_Maklocstr<char>
  00100	48 8b 8d 30 01
	00 00		 mov	 rcx, QWORD PTR this$[rbp]
  00107	48 89 41 10	 mov	 QWORD PTR [rcx+16], rax

; 186  :             _Months = _Maklocstr(_Lobj._Getmonths(), static_cast<_Elem*>(nullptr), _Cvt);

  0010b	48 8b 85 30 01
	00 00		 mov	 rax, QWORD PTR this$[rbp]
  00112	48 83 c0 2c	 add	 rax, 44			; 0000002cH
  00116	48 89 85 08 01
	00 00		 mov	 QWORD PTR tv93[rbp], rax
  0011d	48 8b 8d 40 01
	00 00		 mov	 rcx, QWORD PTR _Lobj$[rbp]
  00124	ff 15 00 00 00
	00		 call	 QWORD PTR __imp_?_Getmonths@_Locinfo@std@@QEBAPEBDXZ
  0012a	48 8b 8d 08 01
	00 00		 mov	 rcx, QWORD PTR tv93[rbp]
  00131	4c 8b c1	 mov	 r8, rcx
  00134	33 d2		 xor	 edx, edx
  00136	48 8b c8	 mov	 rcx, rax
  00139	e8 00 00 00 00	 call	 ??$_Maklocstr@D@std@@YAPEADPEBDPEADAEBU_Cvtvec@@@Z ; std::_Maklocstr<char>
  0013e	48 8b 8d 30 01
	00 00		 mov	 rcx, QWORD PTR this$[rbp]
  00145	48 89 41 18	 mov	 QWORD PTR [rcx+24], rax

; 187  :             _Ampm   = _Maklocstr(":AM:am:PM:pm", static_cast<_Elem*>(nullptr), _Cvt);

  00149	48 8b 85 30 01
	00 00		 mov	 rax, QWORD PTR this$[rbp]
  00150	48 83 c0 2c	 add	 rax, 44			; 0000002cH
  00154	4c 8b c0	 mov	 r8, rax
  00157	33 d2		 xor	 edx, edx
  00159	48 8d 0d 00 00
	00 00		 lea	 rcx, OFFSET FLAT:??_C@_0N@LPFKKEBD@?3AM?3am?3PM?3pm@
  00160	e8 00 00 00 00	 call	 ??$_Maklocstr@D@std@@YAPEADPEBDPEADAEBU_Cvtvec@@@Z ; std::_Maklocstr<char>
  00165	48 8b 8d 30 01
	00 00		 mov	 rcx, QWORD PTR this$[rbp]
  0016c	48 89 41 20	 mov	 QWORD PTR [rcx+32], rax
$LN3@Getvals:

; 188  :         }
; 189  :     }

  00170	48 8d a5 10 01
	00 00		 lea	 rsp, QWORD PTR [rbp+272]
  00177	5f		 pop	 rdi
  00178	5e		 pop	 rsi
  00179	5d		 pop	 rbp
  0017a	c3		 ret	 0
??$_Getvals@_W@?$time_get@DV?$istreambuf_iterator@DU?$char_traits@D@std@@@std@@@std@@IEAAX_WAEBV_Locinfo@1@@Z ENDP ; std::time_get<char,std::istreambuf_iterator<char,std::char_traits<char> > >::_Getvals<wchar_t>
_TEXT	ENDS
; Function compile flags: /Odtp /RTCsu /ZI
; File C:\Program Files (x86)\Microsoft Visual Studio\2019\Enterprise\VC\Tools\MSVC\14.27.29110\include\xlocale
;	COMDAT ??$_Maklocstr@D@std@@YAPEADPEBDPEADAEBU_Cvtvec@@@Z
_TEXT	SEGMENT
_Count$ = 8
_Ptrdest$ = 40
_Ptrnext$1 = 72
_Ptr$ = 320
__formal$ = 328
__formal$ = 336
??$_Maklocstr@D@std@@YAPEADPEBDPEADAEBU_Cvtvec@@@Z PROC	; std::_Maklocstr<char>, COMDAT

; 563  : _Elem* __CRTDECL _Maklocstr(const char* _Ptr, _Elem*, const _Locinfo::_Cvtvec&) {

$LN7:
  00000	4c 89 44 24 18	 mov	 QWORD PTR [rsp+24], r8
  00005	48 89 54 24 10	 mov	 QWORD PTR [rsp+16], rdx
  0000a	48 89 4c 24 08	 mov	 QWORD PTR [rsp+8], rcx
  0000f	55		 push	 rbp
  00010	57		 push	 rdi
  00011	48 81 ec 58 01
	00 00		 sub	 rsp, 344		; 00000158H
  00018	48 8d 6c 24 30	 lea	 rbp, QWORD PTR [rsp+48]
  0001d	48 8b fc	 mov	 rdi, rsp
  00020	b9 56 00 00 00	 mov	 ecx, 86			; 00000056H
  00025	b8 cc cc cc cc	 mov	 eax, -858993460		; ccccccccH
  0002a	f3 ab		 rep stosd
  0002c	48 8b 8c 24 78
	01 00 00	 mov	 rcx, QWORD PTR [rsp+376]
  00034	48 8d 0d 00 00
	00 00		 lea	 rcx, OFFSET FLAT:__A7748393_xlocale
  0003b	e8 00 00 00 00	 call	 __CheckForDebuggerJustMyCode

; 564  :     // convert C string to _Elem sequence using _Cvtvec
; 565  :     size_t _Count = _CSTD strlen(_Ptr) + 1;

  00040	48 8b 8d 40 01
	00 00		 mov	 rcx, QWORD PTR _Ptr$[rbp]
  00047	e8 00 00 00 00	 call	 strlen
  0004c	48 ff c0	 inc	 rax
  0004f	48 89 45 08	 mov	 QWORD PTR _Count$[rbp], rax

; 566  : 
; 567  :     _Elem* _Ptrdest = static_cast<_Elem*>(_calloc_dbg(_Count, sizeof(_Elem), _CRT_BLOCK, __FILE__, __LINE__));

  00053	c7 44 24 20 37
	02 00 00	 mov	 DWORD PTR [rsp+32], 567	; 00000237H
  0005b	4c 8d 0d 00 00
	00 00		 lea	 r9, OFFSET FLAT:??_C@_0GJ@OPFKIEFE@C?3?2Program?5Files?5?$CIx86?$CJ?2Microsof@
  00062	41 b8 02 00 00
	00		 mov	 r8d, 2
  00068	ba 01 00 00 00	 mov	 edx, 1
  0006d	48 8b 4d 08	 mov	 rcx, QWORD PTR _Count$[rbp]
  00071	ff 15 00 00 00
	00		 call	 QWORD PTR __imp__calloc_dbg
  00077	48 89 45 28	 mov	 QWORD PTR _Ptrdest$[rbp], rax

; 568  : 
; 569  :     if (!_Ptrdest) {

  0007b	48 83 7d 28 00	 cmp	 QWORD PTR _Ptrdest$[rbp], 0
  00080	75 05		 jne	 SHORT $LN5@Maklocstr

; 570  :         _Xbad_alloc();

  00082	e8 00 00 00 00	 call	 ?_Xbad_alloc@std@@YAXXZ	; std::_Xbad_alloc
$LN5@Maklocstr:

; 571  :     }
; 572  : 
; 573  :     for (_Elem* _Ptrnext = _Ptrdest; 0 < _Count; --_Count, ++_Ptrnext, ++_Ptr) {

  00087	48 8b 45 28	 mov	 rax, QWORD PTR _Ptrdest$[rbp]
  0008b	48 89 45 48	 mov	 QWORD PTR _Ptrnext$1[rbp], rax
  0008f	eb 27		 jmp	 SHORT $LN4@Maklocstr
$LN2@Maklocstr:
  00091	48 8b 45 08	 mov	 rax, QWORD PTR _Count$[rbp]
  00095	48 ff c8	 dec	 rax
  00098	48 89 45 08	 mov	 QWORD PTR _Count$[rbp], rax
  0009c	48 8b 45 48	 mov	 rax, QWORD PTR _Ptrnext$1[rbp]
  000a0	48 ff c0	 inc	 rax
  000a3	48 89 45 48	 mov	 QWORD PTR _Ptrnext$1[rbp], rax
  000a7	48 8b 85 40 01
	00 00		 mov	 rax, QWORD PTR _Ptr$[rbp]
  000ae	48 ff c0	 inc	 rax
  000b1	48 89 85 40 01
	00 00		 mov	 QWORD PTR _Ptr$[rbp], rax
$LN4@Maklocstr:
  000b8	48 83 7d 08 00	 cmp	 QWORD PTR _Count$[rbp], 0
  000bd	76 12		 jbe	 SHORT $LN3@Maklocstr

; 574  :         *_Ptrnext = static_cast<_Elem>(static_cast<unsigned char>(*_Ptr));

  000bf	48 8b 45 48	 mov	 rax, QWORD PTR _Ptrnext$1[rbp]
  000c3	48 8b 8d 40 01
	00 00		 mov	 rcx, QWORD PTR _Ptr$[rbp]
  000ca	0f b6 09	 movzx	 ecx, BYTE PTR [rcx]
  000cd	88 08		 mov	 BYTE PTR [rax], cl

; 575  :     }

  000cf	eb c0		 jmp	 SHORT $LN2@Maklocstr
$LN3@Maklocstr:

; 576  : 
; 577  :     return _Ptrdest;

  000d1	48 8b 45 28	 mov	 rax, QWORD PTR _Ptrdest$[rbp]
$LN6@Maklocstr:

; 578  : }

  000d5	48 8d a5 28 01
	00 00		 lea	 rsp, QWORD PTR [rbp+296]
  000dc	5f		 pop	 rdi
  000dd	5d		 pop	 rbp
  000de	c3		 ret	 0
??$_Maklocstr@D@std@@YAPEADPEBDPEADAEBU_Cvtvec@@@Z ENDP	; std::_Maklocstr<char>
_TEXT	ENDS
; Function compile flags: /Odtp /RTCsu /ZI
; File C:\Program Files (x86)\Microsoft Visual Studio\2019\Enterprise\VC\Tools\MSVC\14.27.29110\include\xlocnum
;	COMDAT ?_Maklocwcs@std@@YAPEA_WPEB_W@Z
_TEXT	SEGMENT
_Count$ = 8
_Ptrdest$ = 40
_Ptr$ = 288
?_Maklocwcs@std@@YAPEA_WPEB_W@Z PROC			; std::_Maklocwcs, COMDAT

; 90   : inline wchar_t* _Maklocwcs(const wchar_t* _Ptr) { // copy NTWCS to allocated storage

$LN4:
  00000	48 89 4c 24 08	 mov	 QWORD PTR [rsp+8], rcx
  00005	55		 push	 rbp
  00006	57		 push	 rdi
  00007	48 81 ec 38 01
	00 00		 sub	 rsp, 312		; 00000138H
  0000e	48 8d 6c 24 30	 lea	 rbp, QWORD PTR [rsp+48]
  00013	48 8b fc	 mov	 rdi, rsp
  00016	b9 4e 00 00 00	 mov	 ecx, 78			; 0000004eH
  0001b	b8 cc cc cc cc	 mov	 eax, -858993460		; ccccccccH
  00020	f3 ab		 rep stosd
  00022	48 8b 8c 24 58
	01 00 00	 mov	 rcx, QWORD PTR [rsp+344]
  0002a	48 8d 0d 00 00
	00 00		 lea	 rcx, OFFSET FLAT:__39F3E584_xlocnum
  00031	e8 00 00 00 00	 call	 __CheckForDebuggerJustMyCode

; 91   :     const size_t _Count = _CSTD wcslen(_Ptr) + 1;

  00036	48 8b 8d 20 01
	00 00		 mov	 rcx, QWORD PTR _Ptr$[rbp]
  0003d	ff 15 00 00 00
	00		 call	 QWORD PTR __imp_wcslen
  00043	48 ff c0	 inc	 rax
  00046	48 89 45 08	 mov	 QWORD PTR _Count$[rbp], rax

; 92   : 
; 93   :     wchar_t* _Ptrdest = static_cast<wchar_t*>(_calloc_dbg(_Count, sizeof(wchar_t), _CRT_BLOCK, __FILE__, __LINE__));

  0004a	8b 05 00 00 00
	00		 mov	 eax, DWORD PTR ?__LINE__Var@?0??_Maklocwcs@std@@YAPEA_WPEB_W@Z@4JA
  00050	83 c0 03	 add	 eax, 3
  00053	89 44 24 20	 mov	 DWORD PTR [rsp+32], eax
  00057	4c 8d 0d 00 00
	00 00		 lea	 r9, OFFSET FLAT:??_C@_0GJ@GMBHIGPF@C?3?2Program?5Files?5?$CIx86?$CJ?2Microsof@
  0005e	41 b8 02 00 00
	00		 mov	 r8d, 2
  00064	ba 02 00 00 00	 mov	 edx, 2
  00069	48 8b 4d 08	 mov	 rcx, QWORD PTR _Count$[rbp]
  0006d	ff 15 00 00 00
	00		 call	 QWORD PTR __imp__calloc_dbg
  00073	48 89 45 28	 mov	 QWORD PTR _Ptrdest$[rbp], rax

; 94   : 
; 95   :     if (!_Ptrdest) {

  00077	48 83 7d 28 00	 cmp	 QWORD PTR _Ptrdest$[rbp], 0
  0007c	75 05		 jne	 SHORT $LN2@Maklocwcs

; 96   :         _Xbad_alloc();

  0007e	e8 00 00 00 00	 call	 ?_Xbad_alloc@std@@YAXXZ	; std::_Xbad_alloc
$LN2@Maklocwcs:

; 97   :     }
; 98   : 
; 99   :     _CSTD wmemcpy(_Ptrdest, _Ptr, _Count);

  00083	4c 8b 45 08	 mov	 r8, QWORD PTR _Count$[rbp]
  00087	48 8b 95 20 01
	00 00		 mov	 rdx, QWORD PTR _Ptr$[rbp]
  0008e	48 8b 4d 28	 mov	 rcx, QWORD PTR _Ptrdest$[rbp]
  00092	e8 00 00 00 00	 call	 wmemcpy

; 100  :     return _Ptrdest;

  00097	48 8b 45 28	 mov	 rax, QWORD PTR _Ptrdest$[rbp]
$LN3@Maklocwcs:

; 101  : }

  0009b	48 8d a5 08 01
	00 00		 lea	 rsp, QWORD PTR [rbp+264]
  000a2	5f		 pop	 rdi
  000a3	5d		 pop	 rbp
  000a4	c3		 ret	 0
?_Maklocwcs@std@@YAPEA_WPEB_W@Z ENDP			; std::_Maklocwcs
_TEXT	ENDS
; Function compile flags: /Odtp /RTCsu /ZI
; File C:\Program Files (x86)\Microsoft Visual Studio\2019\Enterprise\VC\Tools\MSVC\14.27.29110\include\xlocale
;	COMDAT ??$_Maklocstr@_W@std@@YAPEA_WPEBDPEA_WAEBU_Cvtvec@@@Z
_TEXT	SEGMENT
_Count$ = 8
_Count1$ = 40
_Wchars$ = 72
_Ptr1$ = 104
_Bytes$ = 132
_Wc$ = 164
_Mbst1$ = 200
_Ptrdest$ = 232
_Ptrnext$ = 264
_Mbst2$ = 296
__$ArrayPad$ = 504
_Ptr$ = 544
__formal$ = 552
_Cvt$ = 560
??$_Maklocstr@_W@std@@YAPEA_WPEBDPEA_WAEBU_Cvtvec@@@Z PROC ; std::_Maklocstr<wchar_t>, COMDAT

; 581  : inline wchar_t* __CRTDECL _Maklocstr(const char* _Ptr, wchar_t*, const _Locinfo::_Cvtvec& _Cvt) {

$LN12:
  00000	4c 89 44 24 18	 mov	 QWORD PTR [rsp+24], r8
  00005	48 89 54 24 10	 mov	 QWORD PTR [rsp+16], rdx
  0000a	48 89 4c 24 08	 mov	 QWORD PTR [rsp+8], rcx
  0000f	55		 push	 rbp
  00010	57		 push	 rdi
  00011	48 81 ec 38 02
	00 00		 sub	 rsp, 568		; 00000238H
  00018	48 8d 6c 24 30	 lea	 rbp, QWORD PTR [rsp+48]
  0001d	48 8b fc	 mov	 rdi, rsp
  00020	b9 8e 00 00 00	 mov	 ecx, 142		; 0000008eH
  00025	b8 cc cc cc cc	 mov	 eax, -858993460		; ccccccccH
  0002a	f3 ab		 rep stosd
  0002c	48 8b 8c 24 58
	02 00 00	 mov	 rcx, QWORD PTR [rsp+600]
  00034	48 8b 05 00 00
	00 00		 mov	 rax, QWORD PTR __security_cookie
  0003b	48 33 c5	 xor	 rax, rbp
  0003e	48 89 85 f8 01
	00 00		 mov	 QWORD PTR __$ArrayPad$[rbp], rax
  00045	48 8d 0d 00 00
	00 00		 lea	 rcx, OFFSET FLAT:__A7748393_xlocale
  0004c	e8 00 00 00 00	 call	 __CheckForDebuggerJustMyCode

; 582  :     // convert C string to wchar_t sequence using _Cvtvec
; 583  :     size_t _Count;
; 584  :     size_t _Count1;
; 585  :     size_t _Wchars;
; 586  :     const char* _Ptr1;
; 587  :     int _Bytes;
; 588  :     wchar_t _Wc;
; 589  :     mbstate_t _Mbst1 = {};

  00051	48 8d 85 c8 00
	00 00		 lea	 rax, QWORD PTR _Mbst1$[rbp]
  00058	48 8b f8	 mov	 rdi, rax
  0005b	33 c0		 xor	 eax, eax
  0005d	b9 08 00 00 00	 mov	 ecx, 8
  00062	f3 aa		 rep stosb

; 590  : 
; 591  :     _Count1 = _CSTD strlen(_Ptr) + 1;

  00064	48 8b 8d 20 02
	00 00		 mov	 rcx, QWORD PTR _Ptr$[rbp]
  0006b	e8 00 00 00 00	 call	 strlen
  00070	48 ff c0	 inc	 rax
  00073	48 89 45 28	 mov	 QWORD PTR _Count1$[rbp], rax

; 592  :     for (_Count = _Count1, _Wchars = 0, _Ptr1 = _Ptr; 0 < _Count; _Count -= _Bytes, _Ptr1 += _Bytes, ++_Wchars) {

  00077	48 8b 45 28	 mov	 rax, QWORD PTR _Count1$[rbp]
  0007b	48 89 45 08	 mov	 QWORD PTR _Count$[rbp], rax
  0007f	48 c7 45 48 00
	00 00 00	 mov	 QWORD PTR _Wchars$[rbp], 0
  00087	48 8b 85 20 02
	00 00		 mov	 rax, QWORD PTR _Ptr$[rbp]
  0008e	48 89 45 68	 mov	 QWORD PTR _Ptr1$[rbp], rax
  00092	eb 35		 jmp	 SHORT $LN4@Maklocstr
$LN2@Maklocstr:
  00094	48 63 85 84 00
	00 00		 movsxd	 rax, DWORD PTR _Bytes$[rbp]
  0009b	48 8b 4d 08	 mov	 rcx, QWORD PTR _Count$[rbp]
  0009f	48 2b c8	 sub	 rcx, rax
  000a2	48 8b c1	 mov	 rax, rcx
  000a5	48 89 45 08	 mov	 QWORD PTR _Count$[rbp], rax
  000a9	48 63 85 84 00
	00 00		 movsxd	 rax, DWORD PTR _Bytes$[rbp]
  000b0	48 8b 4d 68	 mov	 rcx, QWORD PTR _Ptr1$[rbp]
  000b4	48 03 c8	 add	 rcx, rax
  000b7	48 8b c1	 mov	 rax, rcx
  000ba	48 89 45 68	 mov	 QWORD PTR _Ptr1$[rbp], rax
  000be	48 8b 45 48	 mov	 rax, QWORD PTR _Wchars$[rbp]
  000c2	48 ff c0	 inc	 rax
  000c5	48 89 45 48	 mov	 QWORD PTR _Wchars$[rbp], rax
$LN4@Maklocstr:
  000c9	48 83 7d 08 00	 cmp	 QWORD PTR _Count$[rbp], 0
  000ce	76 3a		 jbe	 SHORT $LN3@Maklocstr

; 593  :         if ((_Bytes = _Mbrtowc(&_Wc, _Ptr1, _Count, &_Mbst1, &_Cvt)) <= 0) {

  000d0	48 8b 85 30 02
	00 00		 mov	 rax, QWORD PTR _Cvt$[rbp]
  000d7	48 89 44 24 20	 mov	 QWORD PTR [rsp+32], rax
  000dc	4c 8d 8d c8 00
	00 00		 lea	 r9, QWORD PTR _Mbst1$[rbp]
  000e3	4c 8b 45 08	 mov	 r8, QWORD PTR _Count$[rbp]
  000e7	48 8b 55 68	 mov	 rdx, QWORD PTR _Ptr1$[rbp]
  000eb	48 8d 8d a4 00
	00 00		 lea	 rcx, QWORD PTR _Wc$[rbp]
  000f2	e8 00 00 00 00	 call	 _Mbrtowc
  000f7	89 85 84 00 00
	00		 mov	 DWORD PTR _Bytes$[rbp], eax
  000fd	83 bd 84 00 00
	00 00		 cmp	 DWORD PTR _Bytes$[rbp], 0
  00104	7f 02		 jg	 SHORT $LN8@Maklocstr

; 594  :             break;

  00106	eb 02		 jmp	 SHORT $LN3@Maklocstr
$LN8@Maklocstr:

; 595  :         }
; 596  :     }

  00108	eb 8a		 jmp	 SHORT $LN2@Maklocstr
$LN3@Maklocstr:

; 597  : 
; 598  :     ++_Wchars; // count terminating nul

  0010a	48 8b 45 48	 mov	 rax, QWORD PTR _Wchars$[rbp]
  0010e	48 ff c0	 inc	 rax
  00111	48 89 45 48	 mov	 QWORD PTR _Wchars$[rbp], rax

; 599  : 
; 600  :     wchar_t* _Ptrdest = static_cast<wchar_t*>(_calloc_dbg(_Wchars, sizeof(wchar_t), _CRT_BLOCK, __FILE__, __LINE__));

  00115	c7 44 24 20 58
	02 00 00	 mov	 DWORD PTR [rsp+32], 600	; 00000258H
  0011d	4c 8d 0d 00 00
	00 00		 lea	 r9, OFFSET FLAT:??_C@_0GJ@OPFKIEFE@C?3?2Program?5Files?5?$CIx86?$CJ?2Microsof@
  00124	41 b8 02 00 00
	00		 mov	 r8d, 2
  0012a	ba 02 00 00 00	 mov	 edx, 2
  0012f	48 8b 4d 48	 mov	 rcx, QWORD PTR _Wchars$[rbp]
  00133	ff 15 00 00 00
	00		 call	 QWORD PTR __imp__calloc_dbg
  00139	48 89 85 e8 00
	00 00		 mov	 QWORD PTR _Ptrdest$[rbp], rax

; 601  : 
; 602  :     if (!_Ptrdest) {

  00140	48 83 bd e8 00
	00 00 00	 cmp	 QWORD PTR _Ptrdest$[rbp], 0
  00148	75 05		 jne	 SHORT $LN9@Maklocstr

; 603  :         _Xbad_alloc();

  0014a	e8 00 00 00 00	 call	 ?_Xbad_alloc@std@@YAXXZ	; std::_Xbad_alloc
$LN9@Maklocstr:

; 604  :     }
; 605  : 
; 606  :     wchar_t* _Ptrnext = _Ptrdest;

  0014f	48 8b 85 e8 00
	00 00		 mov	 rax, QWORD PTR _Ptrdest$[rbp]
  00156	48 89 85 08 01
	00 00		 mov	 QWORD PTR _Ptrnext$[rbp], rax

; 607  :     mbstate_t _Mbst2  = {};

  0015d	48 8d 85 28 01
	00 00		 lea	 rax, QWORD PTR _Mbst2$[rbp]
  00164	48 8b f8	 mov	 rdi, rax
  00167	33 c0		 xor	 eax, eax
  00169	b9 08 00 00 00	 mov	 ecx, 8
  0016e	f3 aa		 rep stosb

; 608  : 
; 609  :     for (; 0 < _Wchars; _Count -= _Bytes, _Ptr += _Bytes, --_Wchars, ++_Ptrnext) {

  00170	eb 4d		 jmp	 SHORT $LN7@Maklocstr
$LN5@Maklocstr:
  00172	48 63 85 84 00
	00 00		 movsxd	 rax, DWORD PTR _Bytes$[rbp]
  00179	48 8b 4d 08	 mov	 rcx, QWORD PTR _Count$[rbp]
  0017d	48 2b c8	 sub	 rcx, rax
  00180	48 8b c1	 mov	 rax, rcx
  00183	48 89 45 08	 mov	 QWORD PTR _Count$[rbp], rax
  00187	48 63 85 84 00
	00 00		 movsxd	 rax, DWORD PTR _Bytes$[rbp]
  0018e	48 8b 8d 20 02
	00 00		 mov	 rcx, QWORD PTR _Ptr$[rbp]
  00195	48 03 c8	 add	 rcx, rax
  00198	48 8b c1	 mov	 rax, rcx
  0019b	48 89 85 20 02
	00 00		 mov	 QWORD PTR _Ptr$[rbp], rax
  001a2	48 8b 45 48	 mov	 rax, QWORD PTR _Wchars$[rbp]
  001a6	48 ff c8	 dec	 rax
  001a9	48 89 45 48	 mov	 QWORD PTR _Wchars$[rbp], rax
  001ad	48 8b 85 08 01
	00 00		 mov	 rax, QWORD PTR _Ptrnext$[rbp]
  001b4	48 83 c0 02	 add	 rax, 2
  001b8	48 89 85 08 01
	00 00		 mov	 QWORD PTR _Ptrnext$[rbp], rax
$LN7@Maklocstr:
  001bf	48 83 7d 48 00	 cmp	 QWORD PTR _Wchars$[rbp], 0
  001c4	76 40		 jbe	 SHORT $LN6@Maklocstr

; 610  :         if ((_Bytes = _Mbrtowc(_Ptrnext, _Ptr, _Count1, &_Mbst2, &_Cvt)) <= 0) {

  001c6	48 8b 85 30 02
	00 00		 mov	 rax, QWORD PTR _Cvt$[rbp]
  001cd	48 89 44 24 20	 mov	 QWORD PTR [rsp+32], rax
  001d2	4c 8d 8d 28 01
	00 00		 lea	 r9, QWORD PTR _Mbst2$[rbp]
  001d9	4c 8b 45 28	 mov	 r8, QWORD PTR _Count1$[rbp]
  001dd	48 8b 95 20 02
	00 00		 mov	 rdx, QWORD PTR _Ptr$[rbp]
  001e4	48 8b 8d 08 01
	00 00		 mov	 rcx, QWORD PTR _Ptrnext$[rbp]
  001eb	e8 00 00 00 00	 call	 _Mbrtowc
  001f0	89 85 84 00 00
	00		 mov	 DWORD PTR _Bytes$[rbp], eax
  001f6	83 bd 84 00 00
	00 00		 cmp	 DWORD PTR _Bytes$[rbp], 0
  001fd	7f 02		 jg	 SHORT $LN10@Maklocstr

; 611  :             break;

  001ff	eb 05		 jmp	 SHORT $LN6@Maklocstr
$LN10@Maklocstr:

; 612  :         }
; 613  :     }

  00201	e9 6c ff ff ff	 jmp	 $LN5@Maklocstr
$LN6@Maklocstr:

; 614  : 
; 615  :     *_Ptrnext = L'\0';

  00206	33 c0		 xor	 eax, eax
  00208	48 8b 8d 08 01
	00 00		 mov	 rcx, QWORD PTR _Ptrnext$[rbp]
  0020f	66 89 01	 mov	 WORD PTR [rcx], ax

; 616  : 
; 617  :     return _Ptrdest;

  00212	48 8b 85 e8 00
	00 00		 mov	 rax, QWORD PTR _Ptrdest$[rbp]
$LN11@Maklocstr:

; 618  : }

  00219	48 8b f8	 mov	 rdi, rax
  0021c	48 8d 4d d0	 lea	 rcx, QWORD PTR [rbp-48]
  00220	48 8d 15 00 00
	00 00		 lea	 rdx, OFFSET FLAT:??$_Maklocstr@_W@std@@YAPEA_WPEBDPEA_WAEBU_Cvtvec@@@Z$rtcFrameData
  00227	e8 00 00 00 00	 call	 _RTC_CheckStackVars
  0022c	48 8b c7	 mov	 rax, rdi
  0022f	48 8b 8d f8 01
	00 00		 mov	 rcx, QWORD PTR __$ArrayPad$[rbp]
  00236	48 33 cd	 xor	 rcx, rbp
  00239	e8 00 00 00 00	 call	 __security_check_cookie
  0023e	48 8d a5 08 02
	00 00		 lea	 rsp, QWORD PTR [rbp+520]
  00245	5f		 pop	 rdi
  00246	5d		 pop	 rbp
  00247	c3		 ret	 0
??$_Maklocstr@_W@std@@YAPEA_WPEBDPEA_WAEBU_Cvtvec@@@Z ENDP ; std::_Maklocstr<wchar_t>
_TEXT	ENDS
; Function compile flags: /Odtp /RTCsu /ZI
; File C:\Program Files (x86)\Microsoft Visual Studio\2019\Enterprise\VC\Tools\MSVC\14.27.29110\include\xstring
;	COMDAT ?eof@?$_Narrow_char_traits@DH@std@@SAHXZ
_TEXT	SEGMENT
?eof@?$_Narrow_char_traits@DH@std@@SAHXZ PROC		; std::_Narrow_char_traits<char,int>::eof, COMDAT

; 400  :     _NODISCARD static constexpr int_type eof() noexcept {

$LN3:
  00000	40 55		 push	 rbp
  00002	57		 push	 rdi
  00003	48 81 ec e8 00
	00 00		 sub	 rsp, 232		; 000000e8H
  0000a	48 8d 6c 24 20	 lea	 rbp, QWORD PTR [rsp+32]
  0000f	48 8b fc	 mov	 rdi, rsp
  00012	b9 3a 00 00 00	 mov	 ecx, 58			; 0000003aH
  00017	b8 cc cc cc cc	 mov	 eax, -858993460		; ccccccccH
  0001c	f3 ab		 rep stosd
  0001e	48 8d 0d 00 00
	00 00		 lea	 rcx, OFFSET FLAT:__784AF7A2_xstring
  00025	e8 00 00 00 00	 call	 __CheckForDebuggerJustMyCode

; 401  :         return static_cast<int_type>(EOF);

  0002a	b8 ff ff ff ff	 mov	 eax, -1

; 402  :     }

  0002f	48 8d a5 c8 00
	00 00		 lea	 rsp, QWORD PTR [rbp+200]
  00036	5f		 pop	 rdi
  00037	5d		 pop	 rbp
  00038	c3		 ret	 0
?eof@?$_Narrow_char_traits@DH@std@@SAHXZ ENDP		; std::_Narrow_char_traits<char,int>::eof
_TEXT	ENDS
; Function compile flags: /Odtp /RTCsu /ZI
; File C:\Program Files (x86)\Microsoft Visual Studio\2019\Enterprise\VC\Tools\MSVC\14.27.29110\include\xstring
;	COMDAT ?eq_int_type@?$_Narrow_char_traits@DH@std@@SA_NAEBH0@Z
_TEXT	SEGMENT
tv65 = 192
_Left$ = 240
_Right$ = 248
?eq_int_type@?$_Narrow_char_traits@DH@std@@SA_NAEBH0@Z PROC ; std::_Narrow_char_traits<char,int>::eq_int_type, COMDAT

; 392  :     _NODISCARD static constexpr bool eq_int_type(const int_type& _Left, const int_type& _Right) noexcept {

$LN5:
  00000	48 89 54 24 10	 mov	 QWORD PTR [rsp+16], rdx
  00005	48 89 4c 24 08	 mov	 QWORD PTR [rsp+8], rcx
  0000a	55		 push	 rbp
  0000b	57		 push	 rdi
  0000c	48 81 ec f8 00
	00 00		 sub	 rsp, 248		; 000000f8H
  00013	48 8d 6c 24 20	 lea	 rbp, QWORD PTR [rsp+32]
  00018	48 8b fc	 mov	 rdi, rsp
  0001b	b9 3e 00 00 00	 mov	 ecx, 62			; 0000003eH
  00020	b8 cc cc cc cc	 mov	 eax, -858993460		; ccccccccH
  00025	f3 ab		 rep stosd
  00027	48 8b 8c 24 18
	01 00 00	 mov	 rcx, QWORD PTR [rsp+280]
  0002f	48 8d 0d 00 00
	00 00		 lea	 rcx, OFFSET FLAT:__784AF7A2_xstring
  00036	e8 00 00 00 00	 call	 __CheckForDebuggerJustMyCode

; 393  :         return _Left == _Right;

  0003b	48 8b 85 f0 00
	00 00		 mov	 rax, QWORD PTR _Left$[rbp]
  00042	48 8b 8d f8 00
	00 00		 mov	 rcx, QWORD PTR _Right$[rbp]
  00049	8b 09		 mov	 ecx, DWORD PTR [rcx]
  0004b	39 08		 cmp	 DWORD PTR [rax], ecx
  0004d	75 0c		 jne	 SHORT $LN3@eq_int_typ
  0004f	c7 85 c0 00 00
	00 01 00 00 00	 mov	 DWORD PTR tv65[rbp], 1
  00059	eb 0a		 jmp	 SHORT $LN4@eq_int_typ
$LN3@eq_int_typ:
  0005b	c7 85 c0 00 00
	00 00 00 00 00	 mov	 DWORD PTR tv65[rbp], 0
$LN4@eq_int_typ:
  00065	0f b6 85 c0 00
	00 00		 movzx	 eax, BYTE PTR tv65[rbp]

; 394  :     }

  0006c	48 8d a5 d8 00
	00 00		 lea	 rsp, QWORD PTR [rbp+216]
  00073	5f		 pop	 rdi
  00074	5d		 pop	 rbp
  00075	c3		 ret	 0
?eq_int_type@?$_Narrow_char_traits@DH@std@@SA_NAEBH0@Z ENDP ; std::_Narrow_char_traits<char,int>::eq_int_type
_TEXT	ENDS
; Function compile flags: /Odtp /RTCsu /ZI
; File C:\Program Files (x86)\Microsoft Visual Studio\2019\Enterprise\VC\Tools\MSVC\14.27.29110\include\xstring
;	COMDAT ?length@?$_Narrow_char_traits@DH@std@@SA_KQEBD@Z
_TEXT	SEGMENT
_First$ = 224
?length@?$_Narrow_char_traits@DH@std@@SA_KQEBD@Z PROC	; std::_Narrow_char_traits<char,int>::length, COMDAT

; 305  :     _NODISCARD static _CONSTEXPR17 size_t length(_In_z_ const _Elem* const _First) noexcept /* strengthened */ {

$LN3:
  00000	48 89 4c 24 08	 mov	 QWORD PTR [rsp+8], rcx
  00005	55		 push	 rbp
  00006	57		 push	 rdi
  00007	48 81 ec e8 00
	00 00		 sub	 rsp, 232		; 000000e8H
  0000e	48 8d 6c 24 20	 lea	 rbp, QWORD PTR [rsp+32]
  00013	48 8b fc	 mov	 rdi, rsp
  00016	b9 3a 00 00 00	 mov	 ecx, 58			; 0000003aH
  0001b	b8 cc cc cc cc	 mov	 eax, -858993460		; ccccccccH
  00020	f3 ab		 rep stosd
  00022	48 8b 8c 24 08
	01 00 00	 mov	 rcx, QWORD PTR [rsp+264]
  0002a	48 8d 0d 00 00
	00 00		 lea	 rcx, OFFSET FLAT:__784AF7A2_xstring
  00031	e8 00 00 00 00	 call	 __CheckForDebuggerJustMyCode

; 306  :         // find length of null-terminated string
; 307  : #if _HAS_CXX17
; 308  : #ifdef __cpp_char8_t
; 309  :         if constexpr (is_same_v<_Elem, char8_t>) {
; 310  : #if _HAS_U8_INTRINSICS
; 311  :             return __builtin_u8strlen(_First);
; 312  : #else // ^^^ use u8 intrinsics / no u8 intrinsics vvv
; 313  :             return _Char_traits<_Elem, _Int_type>::length(_First);
; 314  : #endif // _HAS_U8_INTRINSICS
; 315  :         } else
; 316  : #endif // __cpp_char8_t
; 317  :         {
; 318  :             return __builtin_strlen(_First);
; 319  :         }
; 320  : #else // _HAS_CXX17
; 321  :         return _CSTD strlen(reinterpret_cast<const char*>(_First));

  00036	48 8b 8d e0 00
	00 00		 mov	 rcx, QWORD PTR _First$[rbp]
  0003d	e8 00 00 00 00	 call	 strlen
  00042	90		 npad	 1

; 322  : #endif // _HAS_CXX17
; 323  :     }

  00043	48 8d a5 c8 00
	00 00		 lea	 rsp, QWORD PTR [rbp+200]
  0004a	5f		 pop	 rdi
  0004b	5d		 pop	 rbp
  0004c	c3		 ret	 0
?length@?$_Narrow_char_traits@DH@std@@SA_KQEBD@Z ENDP	; std::_Narrow_char_traits<char,int>::length
_TEXT	ENDS
; Function compile flags: /Odtp /RTCsu /ZI
; File C:\Program Files (x86)\Microsoft Visual Studio\2019\Enterprise\VC\Tools\MSVC\14.27.29110\include\xmemory
;	COMDAT ?_Orphan_all@_Container_base12@std@@QEAAXXZ
_TEXT	SEGMENT
_Lock$4 = 4
_Pnext$5 = 40
__$ArrayPad$ = 248
this$ = 288
?_Orphan_all@_Container_base12@std@@QEAAXXZ PROC	; std::_Container_base12::_Orphan_all, COMDAT

; 1205 : inline void _Container_base12::_Orphan_all() noexcept {

$LN7:
  00000	48 89 4c 24 08	 mov	 QWORD PTR [rsp+8], rcx
  00005	55		 push	 rbp
  00006	57		 push	 rdi
  00007	48 81 ec 28 01
	00 00		 sub	 rsp, 296		; 00000128H
  0000e	48 8d 6c 24 20	 lea	 rbp, QWORD PTR [rsp+32]
  00013	48 8b fc	 mov	 rdi, rsp
  00016	b9 4a 00 00 00	 mov	 ecx, 74			; 0000004aH
  0001b	b8 cc cc cc cc	 mov	 eax, -858993460		; ccccccccH
  00020	f3 ab		 rep stosd
  00022	48 8b 8c 24 48
	01 00 00	 mov	 rcx, QWORD PTR [rsp+328]
  0002a	48 8b 05 00 00
	00 00		 mov	 rax, QWORD PTR __security_cookie
  00031	48 33 c5	 xor	 rax, rbp
  00034	48 89 85 f8 00
	00 00		 mov	 QWORD PTR __$ArrayPad$[rbp], rax
  0003b	48 8d 0d 00 00
	00 00		 lea	 rcx, OFFSET FLAT:__0C99713E_xmemory
  00042	e8 00 00 00 00	 call	 __CheckForDebuggerJustMyCode

; 1206 : #if _ITERATOR_DEBUG_LEVEL == 2
; 1207 :     if (_Myproxy) { // proxy allocated, drain it

  00047	48 8b 85 20 01
	00 00		 mov	 rax, QWORD PTR this$[rbp]
  0004e	48 83 38 00	 cmp	 QWORD PTR [rax], 0
  00052	74 6b		 je	 SHORT $LN5@Orphan_all

; 1208 :         _Lockit _Lock(_LOCK_DEBUG);

  00054	ba 03 00 00 00	 mov	 edx, 3
  00059	48 8d 4d 04	 lea	 rcx, QWORD PTR _Lock$4[rbp]
  0005d	ff 15 00 00 00
	00		 call	 QWORD PTR __imp_??0_Lockit@std@@QEAA@H@Z

; 1209 : 
; 1210 :         for (auto _Pnext = &_Myproxy->_Myfirstiter; *_Pnext; *_Pnext = (*_Pnext)->_Mynextiter) {

  00063	48 8b 85 20 01
	00 00		 mov	 rax, QWORD PTR this$[rbp]
  0006a	48 8b 00	 mov	 rax, QWORD PTR [rax]
  0006d	48 83 c0 08	 add	 rax, 8
  00071	48 89 45 28	 mov	 QWORD PTR _Pnext$5[rbp], rax
  00075	eb 12		 jmp	 SHORT $LN4@Orphan_all
$LN2@Orphan_all:
  00077	48 8b 45 28	 mov	 rax, QWORD PTR _Pnext$5[rbp]
  0007b	48 8b 00	 mov	 rax, QWORD PTR [rax]
  0007e	48 8b 4d 28	 mov	 rcx, QWORD PTR _Pnext$5[rbp]
  00082	48 8b 40 08	 mov	 rax, QWORD PTR [rax+8]
  00086	48 89 01	 mov	 QWORD PTR [rcx], rax
$LN4@Orphan_all:
  00089	48 8b 45 28	 mov	 rax, QWORD PTR _Pnext$5[rbp]
  0008d	48 83 38 00	 cmp	 QWORD PTR [rax], 0
  00091	74 10		 je	 SHORT $LN3@Orphan_all

; 1211 :             (*_Pnext)->_Myproxy = nullptr;

  00093	48 8b 45 28	 mov	 rax, QWORD PTR _Pnext$5[rbp]
  00097	48 8b 00	 mov	 rax, QWORD PTR [rax]
  0009a	48 c7 00 00 00
	00 00		 mov	 QWORD PTR [rax], 0

; 1212 :         }

  000a1	eb d4		 jmp	 SHORT $LN2@Orphan_all
$LN3@Orphan_all:

; 1213 : 
; 1214 :         _Myproxy->_Myfirstiter = nullptr;

  000a3	48 8b 85 20 01
	00 00		 mov	 rax, QWORD PTR this$[rbp]
  000aa	48 8b 00	 mov	 rax, QWORD PTR [rax]
  000ad	48 c7 40 08 00
	00 00 00	 mov	 QWORD PTR [rax+8], 0

; 1215 :     }

  000b5	48 8d 4d 04	 lea	 rcx, QWORD PTR _Lock$4[rbp]
  000b9	ff 15 00 00 00
	00		 call	 QWORD PTR __imp_??1_Lockit@std@@QEAA@XZ
$LN5@Orphan_all:

; 1216 : #endif // _ITERATOR_DEBUG_LEVEL == 2
; 1217 : }

  000bf	48 8d 4d e0	 lea	 rcx, QWORD PTR [rbp-32]
  000c3	48 8d 15 00 00
	00 00		 lea	 rdx, OFFSET FLAT:?_Orphan_all@_Container_base12@std@@QEAAXXZ$rtcFrameData
  000ca	e8 00 00 00 00	 call	 _RTC_CheckStackVars
  000cf	90		 npad	 1
  000d0	48 8b 8d f8 00
	00 00		 mov	 rcx, QWORD PTR __$ArrayPad$[rbp]
  000d7	48 33 cd	 xor	 rcx, rbp
  000da	e8 00 00 00 00	 call	 __security_check_cookie
  000df	48 8d a5 08 01
	00 00		 lea	 rsp, QWORD PTR [rbp+264]
  000e6	5f		 pop	 rdi
  000e7	5d		 pop	 rbp
  000e8	c3		 ret	 0
?_Orphan_all@_Container_base12@std@@QEAAXXZ ENDP	; std::_Container_base12::_Orphan_all
_TEXT	ENDS
; Function compile flags: /Odtp /RTCsu /ZI
; File C:\Program Files (x86)\Microsoft Visual Studio\2019\Enterprise\VC\Tools\MSVC\14.27.29110\include\xmemory
;	COMDAT ?_Adjust_manually_vector_aligned@std@@YAXAEAPEAXAEA_K@Z
_TEXT	SEGMENT
_Ptr_user$ = 8
_Ptr_container$ = 40
_Min_back_shift$ = 72
_Back_shift$ = 104
_Ptr$ = 352
_Bytes$ = 360
?_Adjust_manually_vector_aligned@std@@YAXAEAPEAXAEA_K@Z PROC ; std::_Adjust_manually_vector_aligned, COMDAT

; 132  : inline void _Adjust_manually_vector_aligned(void*& _Ptr, size_t& _Bytes) {

$LN21:
  00000	48 89 54 24 10	 mov	 QWORD PTR [rsp+16], rdx
  00005	48 89 4c 24 08	 mov	 QWORD PTR [rsp+8], rcx
  0000a	55		 push	 rbp
  0000b	57		 push	 rdi
  0000c	48 81 ec 78 01
	00 00		 sub	 rsp, 376		; 00000178H
  00013	48 8d 6c 24 30	 lea	 rbp, QWORD PTR [rsp+48]
  00018	48 8b fc	 mov	 rdi, rsp
  0001b	b9 5e 00 00 00	 mov	 ecx, 94			; 0000005eH
  00020	b8 cc cc cc cc	 mov	 eax, -858993460		; ccccccccH
  00025	f3 ab		 rep stosd
  00027	48 8b 8c 24 98
	01 00 00	 mov	 rcx, QWORD PTR [rsp+408]
  0002f	48 8d 0d 00 00
	00 00		 lea	 rcx, OFFSET FLAT:__0C99713E_xmemory
  00036	e8 00 00 00 00	 call	 __CheckForDebuggerJustMyCode

; 133  :     // adjust parameters from _Allocate_manually_vector_aligned to pass to operator delete
; 134  :     _Bytes += _Non_user_size;

  0003b	48 8b 85 68 01
	00 00		 mov	 rax, QWORD PTR _Bytes$[rbp]
  00042	48 8b 00	 mov	 rax, QWORD PTR [rax]
  00045	48 83 c0 2f	 add	 rax, 47			; 0000002fH
  00049	48 8b 8d 68 01
	00 00		 mov	 rcx, QWORD PTR _Bytes$[rbp]
  00050	48 89 01	 mov	 QWORD PTR [rcx], rax

; 135  : 
; 136  :     const uintptr_t* const _Ptr_user = reinterpret_cast<uintptr_t*>(_Ptr);

  00053	48 8b 85 60 01
	00 00		 mov	 rax, QWORD PTR _Ptr$[rbp]
  0005a	48 8b 00	 mov	 rax, QWORD PTR [rax]
  0005d	48 89 45 08	 mov	 QWORD PTR _Ptr_user$[rbp], rax

; 137  :     const uintptr_t _Ptr_container   = _Ptr_user[-1];

  00061	b8 08 00 00 00	 mov	 eax, 8
  00066	48 6b c0 ff	 imul	 rax, rax, -1
  0006a	48 8b 4d 08	 mov	 rcx, QWORD PTR _Ptr_user$[rbp]
  0006e	48 8b 04 01	 mov	 rax, QWORD PTR [rcx+rax]
  00072	48 89 45 28	 mov	 QWORD PTR _Ptr_container$[rbp], rax
$LN4@Adjust_man:

; 138  : 
; 139  :     // If the following asserts, it likely means that we are performing
; 140  :     // an aligned delete on memory coming from an unaligned allocation.
; 141  :     _STL_ASSERT(_Ptr_user[-2] == _Big_allocation_sentinel, "invalid argument");

  00076	b8 08 00 00 00	 mov	 eax, 8
  0007b	48 6b c0 fe	 imul	 rax, rax, -2
  0007f	48 8b 4d 08	 mov	 rcx, QWORD PTR _Ptr_user$[rbp]
  00083	48 ba fa fa fa
	fa fa fa fa fa	 mov	 rdx, -361700864190383366 ; fafafafafafafafaH
  0008d	48 39 14 01	 cmp	 QWORD PTR [rcx+rax], rdx
  00091	75 02		 jne	 SHORT $LN14@Adjust_man
  00093	eb 77		 jmp	 SHORT $LN15@Adjust_man
$LN14@Adjust_man:
$LN7@Adjust_man:
  00095	8b 05 00 00 00
	00		 mov	 eax, DWORD PTR ?__LINE__Var@?0??_Adjust_manually_vector_aligned@std@@YAXAEAPEAXAEA_K@Z@4JA
  0009b	83 c0 09	 add	 eax, 9
  0009e	48 8d 0d 00 00
	00 00		 lea	 rcx, OFFSET FLAT:??_C@_0BB@FCMFBGOM@invalid?5argument@
  000a5	48 89 4c 24 28	 mov	 QWORD PTR [rsp+40], rcx
  000aa	48 8d 0d 00 00
	00 00		 lea	 rcx, OFFSET FLAT:??_C@_02DKCKIIND@?$CFs@
  000b1	48 89 4c 24 20	 mov	 QWORD PTR [rsp+32], rcx
  000b6	45 33 c9	 xor	 r9d, r9d
  000b9	44 8b c0	 mov	 r8d, eax
  000bc	48 8d 15 00 00
	00 00		 lea	 rdx, OFFSET FLAT:??_C@_0GJ@EHJGLGPD@C?3?2Program?5Files?5?$CIx86?$CJ?2Microsof@
  000c3	b9 02 00 00 00	 mov	 ecx, 2
  000c8	ff 15 00 00 00
	00		 call	 QWORD PTR __imp__CrtDbgReport
  000ce	83 f8 01	 cmp	 eax, 1
  000d1	75 03		 jne	 SHORT $LN19@Adjust_man
  000d3	cc		 int	 3
  000d4	33 c0		 xor	 eax, eax
$LN19@Adjust_man:
  000d6	8b 05 00 00 00
	00		 mov	 eax, DWORD PTR ?__LINE__Var@?0??_Adjust_manually_vector_aligned@std@@YAXAEAPEAXAEA_K@Z@4JA
  000dc	83 c0 09	 add	 eax, 9
  000df	48 c7 44 24 20
	00 00 00 00	 mov	 QWORD PTR [rsp+32], 0
  000e8	44 8b c8	 mov	 r9d, eax
  000eb	4c 8d 05 00 00
	00 00		 lea	 r8, OFFSET FLAT:??_C@_1NC@LBGPBFDE@?$AAC?$AA?3?$AA?2?$AAP?$AAr?$AAo?$AAg?$AAr?$AAa?$AAm?$AA?5?$AAF?$AAi?$AAl?$AAe@
  000f2	48 8d 15 00 00
	00 00		 lea	 rdx, OFFSET FLAT:??_C@_1EK@NIFDJFDG@?$AAs?$AAt?$AAd?$AA?3?$AA?3?$AA_?$AAA?$AAd?$AAj?$AAu?$AAs?$AAt?$AA_?$AAm?$AAa@
  000f9	48 8d 0d 00 00
	00 00		 lea	 rcx, OFFSET FLAT:??_C@_1CG@JNLFBNGN@?$AA?$CC?$AAi?$AAn?$AAv?$AAa?$AAl?$AAi?$AAd?$AA?5?$AAa?$AAr?$AAg?$AAu?$AAm?$AAe@
  00100	ff 15 00 00 00
	00		 call	 QWORD PTR __imp__invalid_parameter
  00106	33 c0		 xor	 eax, eax
  00108	85 c0		 test	 eax, eax
  0010a	75 89		 jne	 SHORT $LN7@Adjust_man
$LN15@Adjust_man:
  0010c	33 c0		 xor	 eax, eax
  0010e	85 c0		 test	 eax, eax
  00110	0f 85 60 ff ff
	ff		 jne	 $LN4@Adjust_man

; 142  : 
; 143  :     // Extra paranoia on aligned allocation/deallocation; ensure _Ptr_container is
; 144  :     // in range [_Min_back_shift, _Non_user_size]
; 145  : #ifdef _DEBUG
; 146  :     constexpr uintptr_t _Min_back_shift = 2 * sizeof(void*);

  00116	48 c7 45 48 10
	00 00 00	 mov	 QWORD PTR _Min_back_shift$[rbp], 16

; 147  : #else // ^^^ _DEBUG ^^^ // vvv !_DEBUG vvv
; 148  :     constexpr uintptr_t _Min_back_shift = sizeof(void*);
; 149  : #endif // _DEBUG
; 150  :     const uintptr_t _Back_shift = reinterpret_cast<uintptr_t>(_Ptr) - _Ptr_container;

  0011e	48 8b 85 60 01
	00 00		 mov	 rax, QWORD PTR _Ptr$[rbp]
  00125	48 8b 4d 28	 mov	 rcx, QWORD PTR _Ptr_container$[rbp]
  00129	48 8b 00	 mov	 rax, QWORD PTR [rax]
  0012c	48 2b c1	 sub	 rax, rcx
  0012f	48 89 45 68	 mov	 QWORD PTR _Back_shift$[rbp], rax
$LN10@Adjust_man:

; 151  :     _STL_VERIFY(_Back_shift >= _Min_back_shift && _Back_shift <= _Non_user_size, "invalid argument");

  00133	48 83 7d 68 10	 cmp	 QWORD PTR _Back_shift$[rbp], 16
  00138	72 09		 jb	 SHORT $LN16@Adjust_man
  0013a	48 83 7d 68 2f	 cmp	 QWORD PTR _Back_shift$[rbp], 47 ; 0000002fH
  0013f	77 02		 ja	 SHORT $LN16@Adjust_man
  00141	eb 77		 jmp	 SHORT $LN17@Adjust_man
$LN16@Adjust_man:
$LN13@Adjust_man:
  00143	8b 05 00 00 00
	00		 mov	 eax, DWORD PTR ?__LINE__Var@?0??_Adjust_manually_vector_aligned@std@@YAXAEAPEAXAEA_K@Z@4JA
  00149	83 c0 13	 add	 eax, 19
  0014c	48 8d 0d 00 00
	00 00		 lea	 rcx, OFFSET FLAT:??_C@_0BB@FCMFBGOM@invalid?5argument@
  00153	48 89 4c 24 28	 mov	 QWORD PTR [rsp+40], rcx
  00158	48 8d 0d 00 00
	00 00		 lea	 rcx, OFFSET FLAT:??_C@_02DKCKIIND@?$CFs@
  0015f	48 89 4c 24 20	 mov	 QWORD PTR [rsp+32], rcx
  00164	45 33 c9	 xor	 r9d, r9d
  00167	44 8b c0	 mov	 r8d, eax
  0016a	48 8d 15 00 00
	00 00		 lea	 rdx, OFFSET FLAT:??_C@_0GJ@EHJGLGPD@C?3?2Program?5Files?5?$CIx86?$CJ?2Microsof@
  00171	b9 02 00 00 00	 mov	 ecx, 2
  00176	ff 15 00 00 00
	00		 call	 QWORD PTR __imp__CrtDbgReport
  0017c	83 f8 01	 cmp	 eax, 1
  0017f	75 03		 jne	 SHORT $LN20@Adjust_man
  00181	cc		 int	 3
  00182	33 c0		 xor	 eax, eax
$LN20@Adjust_man:
  00184	8b 05 00 00 00
	00		 mov	 eax, DWORD PTR ?__LINE__Var@?0??_Adjust_manually_vector_aligned@std@@YAXAEAPEAXAEA_K@Z@4JA
  0018a	83 c0 13	 add	 eax, 19
  0018d	48 c7 44 24 20
	00 00 00 00	 mov	 QWORD PTR [rsp+32], 0
  00196	44 8b c8	 mov	 r9d, eax
  00199	4c 8d 05 00 00
	00 00		 lea	 r8, OFFSET FLAT:??_C@_1NC@LBGPBFDE@?$AAC?$AA?3?$AA?2?$AAP?$AAr?$AAo?$AAg?$AAr?$AAa?$AAm?$AA?5?$AAF?$AAi?$AAl?$AAe@
  001a0	48 8d 15 00 00
	00 00		 lea	 rdx, OFFSET FLAT:??_C@_1EK@NIFDJFDG@?$AAs?$AAt?$AAd?$AA?3?$AA?3?$AA_?$AAA?$AAd?$AAj?$AAu?$AAs?$AAt?$AA_?$AAm?$AAa@
  001a7	48 8d 0d 00 00
	00 00		 lea	 rcx, OFFSET FLAT:??_C@_1CG@JNLFBNGN@?$AA?$CC?$AAi?$AAn?$AAv?$AAa?$AAl?$AAi?$AAd?$AA?5?$AAa?$AAr?$AAg?$AAu?$AAm?$AAe@
  001ae	ff 15 00 00 00
	00		 call	 QWORD PTR __imp__invalid_parameter
  001b4	33 c0		 xor	 eax, eax
  001b6	85 c0		 test	 eax, eax
  001b8	75 89		 jne	 SHORT $LN13@Adjust_man
$LN17@Adjust_man:
  001ba	33 c0		 xor	 eax, eax
  001bc	85 c0		 test	 eax, eax
  001be	0f 85 6f ff ff
	ff		 jne	 $LN10@Adjust_man

; 152  :     _Ptr = reinterpret_cast<void*>(_Ptr_container);

  001c4	48 8b 85 60 01
	00 00		 mov	 rax, QWORD PTR _Ptr$[rbp]
  001cb	48 8b 4d 28	 mov	 rcx, QWORD PTR _Ptr_container$[rbp]
  001cf	48 89 08	 mov	 QWORD PTR [rax], rcx

; 153  : }

  001d2	48 8d a5 48 01
	00 00		 lea	 rsp, QWORD PTR [rbp+328]
  001d9	5f		 pop	 rdi
  001da	5d		 pop	 rbp
  001db	c3		 ret	 0
?_Adjust_manually_vector_aligned@std@@YAXAEAPEAXAEA_K@Z ENDP ; std::_Adjust_manually_vector_aligned
_TEXT	ENDS
; Function compile flags: /Odtp /RTCsu /ZI
; File C:\Program Files (x86)\Windows Kits\10\Include\10.0.18362.0\ucrt\wchar.h
;	COMDAT wmemcpy
_TEXT	SEGMENT
_S1$ = 224
_S2$ = 232
_N$ = 240
wmemcpy	PROC						; COMDAT

; 230  :     {

$LN4:
  00000	4c 89 44 24 18	 mov	 QWORD PTR [rsp+24], r8
  00005	48 89 54 24 10	 mov	 QWORD PTR [rsp+16], rdx
  0000a	48 89 4c 24 08	 mov	 QWORD PTR [rsp+8], rcx
  0000f	55		 push	 rbp
  00010	57		 push	 rdi
  00011	48 81 ec e8 00
	00 00		 sub	 rsp, 232		; 000000e8H
  00018	48 8d 6c 24 20	 lea	 rbp, QWORD PTR [rsp+32]
  0001d	48 8b fc	 mov	 rdi, rsp
  00020	b9 3a 00 00 00	 mov	 ecx, 58			; 0000003aH
  00025	b8 cc cc cc cc	 mov	 eax, -858993460		; ccccccccH
  0002a	f3 ab		 rep stosd
  0002c	48 8b 8c 24 08
	01 00 00	 mov	 rcx, QWORD PTR [rsp+264]
  00034	48 8d 0d 00 00
	00 00		 lea	 rcx, OFFSET FLAT:__534C724A_wchar@h
  0003b	e8 00 00 00 00	 call	 __CheckForDebuggerJustMyCode

; 231  :         #pragma warning(push)
; 232  :         #pragma warning(disable : 4995 4996 6386)
; 233  :         return (wchar_t*)memcpy(_S1, _S2, _N*sizeof(wchar_t));

  00040	48 8b 85 f0 00
	00 00		 mov	 rax, QWORD PTR _N$[rbp]
  00047	48 d1 e0	 shl	 rax, 1
  0004a	4c 8b c0	 mov	 r8, rax
  0004d	48 8b 95 e8 00
	00 00		 mov	 rdx, QWORD PTR _S2$[rbp]
  00054	48 8b 8d e0 00
	00 00		 mov	 rcx, QWORD PTR _S1$[rbp]
  0005b	e8 00 00 00 00	 call	 memcpy

; 234  :         #pragma warning(pop)
; 235  :     }

  00060	48 8d a5 c8 00
	00 00		 lea	 rsp, QWORD PTR [rbp+200]
  00067	5f		 pop	 rdi
  00068	5d		 pop	 rbp
  00069	c3		 ret	 0
wmemcpy	ENDP
_TEXT	ENDS
; Function compile flags: /Odtp /RTCsu /ZI
; File C:\Users\Skvortsoff\OneDrive\\GitHub\course_LP\course_LP\course_project.cpp
;	COMDAT ?__empty_global_delete@@YAXPEAX_K@Z
_TEXT	SEGMENT
__formal$ = 224
__formal$ = 232
?__empty_global_delete@@YAXPEAX_K@Z PROC		; __empty_global_delete, COMDAT

$LN4:
  00000	48 89 54 24 10	 mov	 QWORD PTR [rsp+16], rdx
  00005	48 89 4c 24 08	 mov	 QWORD PTR [rsp+8], rcx
  0000a	55		 push	 rbp
  0000b	57		 push	 rdi
  0000c	48 81 ec e8 00
	00 00		 sub	 rsp, 232		; 000000e8H
  00013	48 8d 6c 24 20	 lea	 rbp, QWORD PTR [rsp+32]
  00018	48 8b fc	 mov	 rdi, rsp
  0001b	b9 3a 00 00 00	 mov	 ecx, 58			; 0000003aH
  00020	b8 cc cc cc cc	 mov	 eax, -858993460		; ccccccccH
  00025	f3 ab		 rep stosd
  00027	48 8b 8c 24 08
	01 00 00	 mov	 rcx, QWORD PTR [rsp+264]
  0002f	48 8d 0d 00 00
	00 00		 lea	 rcx, OFFSET FLAT:__F3AAEC4C_course_project@cpp
  00036	e8 00 00 00 00	 call	 __CheckForDebuggerJustMyCode
  0003b	48 8d a5 c8 00
	00 00		 lea	 rsp, QWORD PTR [rbp+200]
  00042	5f		 pop	 rdi
  00043	5d		 pop	 rbp
  00044	c3		 ret	 0
?__empty_global_delete@@YAXPEAX_K@Z ENDP		; __empty_global_delete
_TEXT	ENDS
; Function compile flags: /Odtp /RTCsu /ZI
; File C:\Users\Skvortsoff\OneDrive\\GitHub\course_LP\course_LP\course_project.cpp
;	COMDAT ?__empty_global_delete@@YAXPEAX@Z
_TEXT	SEGMENT
__formal$ = 224
?__empty_global_delete@@YAXPEAX@Z PROC			; __empty_global_delete, COMDAT

$LN4:
  00000	48 89 4c 24 08	 mov	 QWORD PTR [rsp+8], rcx
  00005	55		 push	 rbp
  00006	57		 push	 rdi
  00007	48 81 ec e8 00
	00 00		 sub	 rsp, 232		; 000000e8H
  0000e	48 8d 6c 24 20	 lea	 rbp, QWORD PTR [rsp+32]
  00013	48 8b fc	 mov	 rdi, rsp
  00016	b9 3a 00 00 00	 mov	 ecx, 58			; 0000003aH
  0001b	b8 cc cc cc cc	 mov	 eax, -858993460		; ccccccccH
  00020	f3 ab		 rep stosd
  00022	48 8b 8c 24 08
	01 00 00	 mov	 rcx, QWORD PTR [rsp+264]
  0002a	48 8d 0d 00 00
	00 00		 lea	 rcx, OFFSET FLAT:__F3AAEC4C_course_project@cpp
  00031	e8 00 00 00 00	 call	 __CheckForDebuggerJustMyCode
  00036	48 8d a5 c8 00
	00 00		 lea	 rsp, QWORD PTR [rbp+200]
  0003d	5f		 pop	 rdi
  0003e	5d		 pop	 rbp
  0003f	c3		 ret	 0
?__empty_global_delete@@YAXPEAX@Z ENDP			; __empty_global_delete
_TEXT	ENDS
END
