; Listing generated by Microsoft (R) Optimizing Compiler Version 19.27.29112.0 

include listing.inc

INCLUDELIB MSVCRTD
INCLUDELIB OLDNAMES

PUBLIC	?main@GM@@3HA					; GM::main
PUBLIC	?ID@GM@@3HA					; GM::ID
_BSS	SEGMENT
?main@GM@@3HA DD 01H DUP (?)				; GM::main
_BSS	ENDS
msvcjmc	SEGMENT
__367CC694_corecrt_memcpy_s@h DB 01H
__F66CEB67_corecrt_stdio_config@h DB 01H
__5467428D_corecrt_wconio@h DB 01H
__4442441F_corecrt_wio@h DB 01H
__101834BA_corecrt_wstdio@h DB 01H
__DC9673E3_corecrt_wstring@h DB 01H
__45F4AF76_corecrt_wtime@h DB 01H
__186FF47F_stat@h DB 01H
__534C724A_wchar@h DB 01H
__62A468D7_tchar@h DB 01H
__FC8B975D_vcruntime_new@h DB 01H
__AD6A91B7_stdio@h DB 01H
__09340588_corecrt_math@h DB 01H
__24E9E95F_stdlib@h DB 01H
__51019776_cstdlib DB 01H
__5E219BC0_limits DB 01H
__B236D4B0_type_traits DB 01H
__B0C4CEA9_malloc@h DB 01H
__18D87206_vcruntime_exception@h DB 01H
__1302BCB8_exception DB 01H
__35D7DDB3_corecrt_memory@h DB 01H
__A29A7DFB_string@h DB 01H
__36E77527_xutility DB 01H
__0C99713E_xmemory DB 01H
__784AF7A2_xstring DB 01H
__7242C389_ctype@h DB 01H
__965C11D2_string DB 01H
__8AA3BE86_time@h DB 01H
__9A4C86E5_stdexcept DB 01H
__238A5427_xcall_once@h DB 01H
__3514C702_atomic DB 01H
__9CD74607_system_error DB 01H
__7B3ADE64_vcruntime_typeinfo@h DB 01H
__4638863E_typeinfo DB 01H
__E28F974E_memory DB 01H
__CECAC041_xfacet DB 01H
__59B165F6_xlocinfo DB 01H
__A7748393_xlocale DB 01H
__605412E5_xiosbase DB 01H
__8B7874EF_xlocmes DB 01H
__102707BA_cmath DB 01H
__39F3E584_xlocnum DB 01H
__1291F0BC_xlocmon DB 01H
__FDACCCE4_xloctime DB 01H
__D3011E72_ios DB 01H
__21FC1C84_fstream DB 01H
__7CEFA1A0_LT@h DB 01H
__4B315192_IT@h DB 01H
__BE522193_DP@h DB 01H
__20961129_GRB@h DB 01H
__22E0C0CC_MFST@h DB 01H
__656A90FE_DP@cpp DB 01H
__660C12FD_utility DB 01H
__D7B46C6D_istream DB 01H
__B4645957_ostream DB 01H
__496265E3_locale DB 01H
__98EC3E59_streambuf DB 01H
__274BC267_iterator DB 01H
__92C84E46_iosfwd DB 01H
__911385EF_xstddef DB 01H
__190E306E_xatomic@h DB 01H
msvcjmc	ENDS
_DATA	SEGMENT
?ID@GM@@3HA DD	0ffffffffH				; GM::ID
_DATA	ENDS
PUBLIC	?__empty_global_delete@@YAXPEAX@Z		; __empty_global_delete
PUBLIC	?__empty_global_delete@@YAXPEAX_K@Z		; __empty_global_delete
PUBLIC	wmemcpy
PUBLIC	?length@?$_Narrow_char_traits@DH@std@@SA_KQEBD@Z ; std::_Narrow_char_traits<char,int>::length
PUBLIC	?eq_int_type@?$_Narrow_char_traits@DH@std@@SA_NAEBH0@Z ; std::_Narrow_char_traits<char,int>::eq_int_type
PUBLIC	?eof@?$_Narrow_char_traits@DH@std@@SAHXZ	; std::_Narrow_char_traits<char,int>::eof
PUBLIC	??$_Maklocstr@_W@std@@YAPEA_WPEBDPEA_WAEBU_Cvtvec@@@Z ; std::_Maklocstr<wchar_t>
PUBLIC	?_Maklocwcs@std@@YAPEA_WPEB_W@Z			; std::_Maklocwcs
PUBLIC	??$_Maklocstr@D@std@@YAPEADPEBDPEADAEBU_Cvtvec@@@Z ; std::_Maklocstr<char>
PUBLIC	??$_Getvals@_W@?$time_get@DV?$istreambuf_iterator@DU?$char_traits@D@std@@@std@@@std@@IEAAX_WAEBV_Locinfo@1@@Z ; std::time_get<char,std::istreambuf_iterator<char,std::char_traits<char> > >::_Getvals<wchar_t>
PUBLIC	??$_Getvals@_W@?$time_get@_WV?$istreambuf_iterator@_WU?$char_traits@_W@std@@@std@@@std@@IEAAX_WAEBV_Locinfo@1@@Z ; std::time_get<wchar_t,std::istreambuf_iterator<wchar_t,std::char_traits<wchar_t> > >::_Getvals<wchar_t>
PUBLIC	??0Data@GM@@QEAA@XZ				; GM::Data::Data
PUBLIC	?token_rekognizer@GM@@YADPEADPEAUEntry@IT@@@Z	; GM::token_rekognizer
PUBLIC	?dataProcesing@GM@@YAXPEAEPEAV?$basic_fstream@DU?$char_traits@D@std@@@std@@PEAULexTable@LT@@PEAUIdTable@IT@@@Z ; GM::dataProcesing
PUBLIC	?IdentificatorCreate@GM@@YAXPEAUIdTable@IT@@PEAULexTable@LT@@AEAUData@1@PEAV?$basic_fstream@DU?$char_traits@D@std@@@std@@@Z ; GM::IdentificatorCreate
PUBLIC	?alphaCirillicDigit@GM@@YA_ND@Z			; GM::alphaCirillicDigit
PUBLIC	??$?6U?$char_traits@D@std@@@std@@YAAEAV?$basic_ostream@DU?$char_traits@D@std@@@0@AEAV10@PEBD@Z ; std::operator<<<std::char_traits<char> >
PUBLIC	??$strncpy_s@$0L@@@YAHAEAY0L@DPEBD_K@Z		; strncpy_s<11>
PUBLIC	??$strncpy_s@$0CB@@@YAHAEAY0CB@DPEBD_K@Z	; strncpy_s<33>
PUBLIC	??0_Sentry_base@?$basic_ostream@DU?$char_traits@D@std@@@std@@QEAA@AEAV12@@Z ; std::basic_ostream<char,std::char_traits<char> >::_Sentry_base::_Sentry_base
PUBLIC	??1_Sentry_base@?$basic_ostream@DU?$char_traits@D@std@@@std@@QEAA@XZ ; std::basic_ostream<char,std::char_traits<char> >::_Sentry_base::~_Sentry_base
PUBLIC	??0sentry@?$basic_ostream@DU?$char_traits@D@std@@@std@@QEAA@AEAV12@@Z ; std::basic_ostream<char,std::char_traits<char> >::sentry::sentry
PUBLIC	??1sentry@?$basic_ostream@DU?$char_traits@D@std@@@std@@QEAA@XZ ; std::basic_ostream<char,std::char_traits<char> >::sentry::~sentry
PUBLIC	??Bsentry@?$basic_ostream@DU?$char_traits@D@std@@@std@@QEBA_NXZ ; std::basic_ostream<char,std::char_traits<char> >::sentry::operator bool
PUBLIC	__JustMyCode_Default
PUBLIC	??_C@_0GJ@OPFKIEFE@C?3?2Program?5Files?5?$CIx86?$CJ?2Microsof@ ; `string'
PUBLIC	?__LINE__Var@?0??_Maklocwcs@std@@YAPEA_WPEB_W@Z@4JA ; `std::_Maklocwcs'::`1'::__LINE__Var
PUBLIC	??_C@_0GJ@GMBHIGPF@C?3?2Program?5Files?5?$CIx86?$CJ?2Microsof@ ; `string'
PUBLIC	_TI1?AUERROR@Error@@
PUBLIC	_CTA1?AUERROR@Error@@
PUBLIC	??_R0?AUERROR@Error@@@8				; Error::ERROR `RTTI Type Descriptor'
PUBLIC	_CT??_R0?AUERROR@Error@@@8208
PUBLIC	??_C@_0L@OEAAKCBM@?$CJ?5?s?q?e?w?e?m?$CB?6@	; `string'
PUBLIC	??_C@_0BI@KEJLDABE@?H?d?e?m?r?h?t?h?j?$OA?r?n?p?5?t?s?m?j?v?h?h?5?$CI@ ; `string'
PUBLIC	??_C@_0BK@HEGKBELI@?H?d?e?m?r?h?t?h?j?$OA?r?n?p?5?o?$OA?p?$OA?l?e?r?p?$OA?5?$CI@ ; `string'
PUBLIC	??_C@_0BM@LIHGGBDC@?H?d?e?m?r?h?t?h?j?$OA?r?n?p?5?o?e?p?e?l?e?m?m?m?n?i?5?$CI@ ; `string'
PUBLIC	??_C@_01GBGANLPD@0@				; `string'
PUBLIC	??_C@_01HIHLOKLC@1@				; `string'
PUBLIC	??_C@_0N@LPFKKEBD@?3AM?3am?3PM?3pm@		; `string'
PUBLIC	??_C@_1BK@MHIKGOKE@?$AA?3?$AAA?$AAM?$AA?3?$AAa?$AAm?$AA?3?$AAP?$AAM?$AA?3?$AAp?$AAm@ ; `string'
EXTRN	??_U@YAPEAX_K@Z:PROC				; operator new[]
EXTRN	??_V@YAXPEAX@Z:PROC				; operator delete[]
EXTRN	memcpy:PROC
EXTRN	memset:PROC
EXTRN	__imp_wcslen:PROC
EXTRN	__imp__calloc_dbg:PROC
EXTRN	?uncaught_exception@std@@YA_NXZ:PROC		; std::uncaught_exception
EXTRN	__imp_strncpy_s:PROC
EXTRN	strcpy:PROC
EXTRN	strlen:PROC
EXTRN	__imp_strncpy:PROC
EXTRN	?_Xbad_alloc@std@@YAXXZ:PROC			; std::_Xbad_alloc
EXTRN	__imp_isalpha:PROC
EXTRN	__imp_isdigit:PROC
EXTRN	_Mbrtowc:PROC
EXTRN	__imp_?_Getcvt@_Locinfo@std@@QEBA?AU_Cvtvec@@XZ:PROC
EXTRN	__imp_?_Getdays@_Locinfo@std@@QEBAPEBDXZ:PROC
EXTRN	__imp_?_Getmonths@_Locinfo@std@@QEBAPEBDXZ:PROC
EXTRN	__imp_?_W_Getdays@_Locinfo@std@@QEBAPEBGXZ:PROC
EXTRN	__imp_?_W_Getmonths@_Locinfo@std@@QEBAPEBGXZ:PROC
EXTRN	__imp_?good@ios_base@std@@QEBA_NXZ:PROC
EXTRN	__imp_?flags@ios_base@std@@QEBAHXZ:PROC
EXTRN	__imp_?width@ios_base@std@@QEBA_JXZ:PROC
EXTRN	__imp_?width@ios_base@std@@QEAA_J_J@Z:PROC
EXTRN	__imp_?sputc@?$basic_streambuf@DU?$char_traits@D@std@@@std@@QEAAHD@Z:PROC
EXTRN	__imp_?sputn@?$basic_streambuf@DU?$char_traits@D@std@@@std@@QEAA_JPEBD_J@Z:PROC
EXTRN	__imp_?setstate@?$basic_ios@DU?$char_traits@D@std@@@std@@QEAAXH_N@Z:PROC
EXTRN	__imp_?tie@?$basic_ios@DU?$char_traits@D@std@@@std@@QEBAPEAV?$basic_ostream@DU?$char_traits@D@std@@@2@XZ:PROC
EXTRN	__imp_?rdbuf@?$basic_ios@DU?$char_traits@D@std@@@std@@QEBAPEAV?$basic_streambuf@DU?$char_traits@D@std@@@2@XZ:PROC
EXTRN	__imp_?fill@?$basic_ios@DU?$char_traits@D@std@@@std@@QEBADXZ:PROC
EXTRN	__imp_?_Osfx@?$basic_ostream@DU?$char_traits@D@std@@@std@@QEAAXXZ:PROC
EXTRN	__imp_?flush@?$basic_ostream@DU?$char_traits@D@std@@@std@@QEAAAEAV12@XZ:PROC
EXTRN	?geterrorline@Error@@YA?AUERROR@1@HH@Z:PROC	; Error::geterrorline
EXTRN	?Create@LT@@YA?AUEntry@1@DH@Z:PROC		; LT::Create
EXTRN	?Add@LT@@YAXPEAULexTable@1@UEntry@1@@Z:PROC	; LT::Add
EXTRN	?Add@IT@@YAXAEAUIdTable@1@UEntry@1@@Z:PROC	; IT::Add
EXTRN	?IsId@IT@@YAHAEAUIdTable@1@AEAULexTable@LT@@QEAD2H_NW4IDDATATYPE@1@W4IDTYPE@1@@Z:PROC ; IT::IsId
EXTRN	?LiteralCreate@IT@@YAHUIdTable@1@ULexTable@LT@@PEADHAEA_N_N@Z:PROC ; IT::LiteralCreate
EXTRN	?Reset@IT@@YA?AUEntry@1@XZ:PROC			; IT::Reset
EXTRN	??0RELATION@FST@@QEAA@DF@Z:PROC			; FST::RELATION::RELATION
EXTRN	??0NODE@FST@@QEAA@XZ:PROC			; FST::NODE::NODE
EXTRN	??0NODE@FST@@QEAA@FURELATION@1@ZZ:PROC		; FST::NODE::NODE
EXTRN	??0FST@0@QEAA@PEADFUNODE@0@ZZ:PROC		; FST::FST::FST
EXTRN	?execute@FST@@YA_NAEAU11@@Z:PROC		; FST::execute
EXTRN	_CxxThrowException:PROC
EXTRN	_RTC_CheckStackVars:PROC
EXTRN	_RTC_InitBase:PROC
EXTRN	_RTC_Shutdown:PROC
EXTRN	__CheckForDebuggerJustMyCode:PROC
EXTRN	__CxxFrameHandler4:PROC
EXTRN	__GSHandlerCheck:PROC
EXTRN	__GSHandlerCheck_EH4:PROC
EXTRN	__chkstk:PROC
EXTRN	__security_check_cookie:PROC
EXTRN	??_7type_info@@6B@:BYTE				; type_info::`vftable'
EXTRN	__ImageBase:BYTE
EXTRN	__security_cookie:QWORD
;	COMDAT pdata
pdata	SEGMENT
$pdata$?__empty_global_delete@@YAXPEAX@Z DD imagerel $LN4
	DD	imagerel $LN4+64
	DD	imagerel $unwind$?__empty_global_delete@@YAXPEAX@Z
pdata	ENDS
;	COMDAT pdata
pdata	SEGMENT
$pdata$?__empty_global_delete@@YAXPEAX_K@Z DD imagerel $LN4
	DD	imagerel $LN4+69
	DD	imagerel $unwind$?__empty_global_delete@@YAXPEAX_K@Z
pdata	ENDS
;	COMDAT pdata
pdata	SEGMENT
$pdata$wmemcpy DD imagerel $LN4
	DD	imagerel $LN4+106
	DD	imagerel $unwind$wmemcpy
pdata	ENDS
;	COMDAT pdata
pdata	SEGMENT
$pdata$?length@?$_Narrow_char_traits@DH@std@@SA_KQEBD@Z DD imagerel $LN3
	DD	imagerel $LN3+77
	DD	imagerel $unwind$?length@?$_Narrow_char_traits@DH@std@@SA_KQEBD@Z
pdata	ENDS
;	COMDAT pdata
pdata	SEGMENT
$pdata$?eq_int_type@?$_Narrow_char_traits@DH@std@@SA_NAEBH0@Z DD imagerel $LN5
	DD	imagerel $LN5+118
	DD	imagerel $unwind$?eq_int_type@?$_Narrow_char_traits@DH@std@@SA_NAEBH0@Z
pdata	ENDS
;	COMDAT pdata
pdata	SEGMENT
$pdata$?eof@?$_Narrow_char_traits@DH@std@@SAHXZ DD imagerel $LN3
	DD	imagerel $LN3+57
	DD	imagerel $unwind$?eof@?$_Narrow_char_traits@DH@std@@SAHXZ
pdata	ENDS
;	COMDAT pdata
pdata	SEGMENT
$pdata$??$_Maklocstr@_W@std@@YAPEA_WPEBDPEA_WAEBU_Cvtvec@@@Z DD imagerel $LN12
	DD	imagerel $LN12+584
	DD	imagerel $unwind$??$_Maklocstr@_W@std@@YAPEA_WPEBDPEA_WAEBU_Cvtvec@@@Z
pdata	ENDS
;	COMDAT pdata
pdata	SEGMENT
$pdata$?_Maklocwcs@std@@YAPEA_WPEB_W@Z DD imagerel $LN4
	DD	imagerel $LN4+165
	DD	imagerel $unwind$?_Maklocwcs@std@@YAPEA_WPEB_W@Z
pdata	ENDS
;	COMDAT pdata
pdata	SEGMENT
$pdata$??$_Maklocstr@D@std@@YAPEADPEBDPEADAEBU_Cvtvec@@@Z DD imagerel $LN7
	DD	imagerel $LN7+223
	DD	imagerel $unwind$??$_Maklocstr@D@std@@YAPEADPEBDPEADAEBU_Cvtvec@@@Z
pdata	ENDS
;	COMDAT pdata
pdata	SEGMENT
$pdata$??$_Getvals@_W@?$time_get@DV?$istreambuf_iterator@DU?$char_traits@D@std@@@std@@@std@@IEAAX_WAEBV_Locinfo@1@@Z DD imagerel $LN5
	DD	imagerel $LN5+379
	DD	imagerel $unwind$??$_Getvals@_W@?$time_get@DV?$istreambuf_iterator@DU?$char_traits@D@std@@@std@@@std@@IEAAX_WAEBV_Locinfo@1@@Z
pdata	ENDS
;	COMDAT pdata
pdata	SEGMENT
$pdata$??$_Getvals@_W@?$time_get@_WV?$istreambuf_iterator@_WU?$char_traits@_W@std@@@std@@@std@@IEAAX_WAEBV_Locinfo@1@@Z DD imagerel $LN5
	DD	imagerel $LN5+379
	DD	imagerel $unwind$??$_Getvals@_W@?$time_get@_WV?$istreambuf_iterator@_WU?$char_traits@_W@std@@@std@@@std@@IEAAX_WAEBV_Locinfo@1@@Z
pdata	ENDS
;	COMDAT pdata
pdata	SEGMENT
$pdata$??0Data@GM@@QEAA@XZ DD imagerel $LN4
	DD	imagerel $LN4+267
	DD	imagerel $unwind$??0Data@GM@@QEAA@XZ
pdata	ENDS
;	COMDAT pdata
pdata	SEGMENT
$pdata$?token_rekognizer@GM@@YADPEADPEAUEntry@IT@@@Z DD imagerel $LN228
	DD	imagerel $LN228+29422
	DD	imagerel $unwind$?token_rekognizer@GM@@YADPEADPEAUEntry@IT@@@Z
pdata	ENDS
;	COMDAT pdata
pdata	SEGMENT
$pdata$?dataProcesing@GM@@YAXPEAEPEAV?$basic_fstream@DU?$char_traits@D@std@@@std@@PEAULexTable@LT@@PEAUIdTable@IT@@@Z DD imagerel $LN126
	DD	imagerel $LN126+3369
	DD	imagerel $unwind$?dataProcesing@GM@@YAXPEAEPEAV?$basic_fstream@DU?$char_traits@D@std@@@std@@PEAULexTable@LT@@PEAUIdTable@IT@@@Z
pdata	ENDS
;	COMDAT pdata
pdata	SEGMENT
$pdata$?IdentificatorCreate@GM@@YAXPEAUIdTable@IT@@PEAULexTable@LT@@AEAUData@1@PEAV?$basic_fstream@DU?$char_traits@D@std@@@std@@@Z DD imagerel $LN42
	DD	imagerel $LN42+2387
	DD	imagerel $unwind$?IdentificatorCreate@GM@@YAXPEAUIdTable@IT@@PEAULexTable@LT@@AEAUData@1@PEAV?$basic_fstream@DU?$char_traits@D@std@@@std@@@Z
pdata	ENDS
;	COMDAT pdata
pdata	SEGMENT
$pdata$?alphaCirillicDigit@GM@@YA_ND@Z DD imagerel $LN20
	DD	imagerel $LN20+163
	DD	imagerel $unwind$?alphaCirillicDigit@GM@@YA_ND@Z
pdata	ENDS
;	COMDAT pdata
pdata	SEGMENT
$pdata$??$?6U?$char_traits@D@std@@@std@@YAAEAV?$basic_ostream@DU?$char_traits@D@std@@@0@AEAV10@PEBD@Z DD imagerel $LN25
	DD	imagerel $LN25+1034
	DD	imagerel $unwind$??$?6U?$char_traits@D@std@@@std@@YAAEAV?$basic_ostream@DU?$char_traits@D@std@@@0@AEAV10@PEBD@Z
pdata	ENDS
;	COMDAT pdata
pdata	SEGMENT
$pdata$?dtor$0@?0???$?6U?$char_traits@D@std@@@std@@YAAEAV?$basic_ostream@DU?$char_traits@D@std@@@0@AEAV10@PEBD@Z@4HA DD imagerel ?dtor$0@?0???$?6U?$char_traits@D@std@@@std@@YAAEAV?$basic_ostream@DU?$char_traits@D@std@@@0@AEAV10@PEBD@Z@4HA
	DD	imagerel ?dtor$0@?0???$?6U?$char_traits@D@std@@@std@@YAAEAV?$basic_ostream@DU?$char_traits@D@std@@@0@AEAV10@PEBD@Z@4HA+36
	DD	imagerel $unwind$?dtor$0@?0???$?6U?$char_traits@D@std@@@std@@YAAEAV?$basic_ostream@DU?$char_traits@D@std@@@0@AEAV10@PEBD@Z@4HA
pdata	ENDS
;	COMDAT pdata
pdata	SEGMENT
$pdata$?catch$1@?0???$?6U?$char_traits@D@std@@@std@@YAAEAV?$basic_ostream@DU?$char_traits@D@std@@@0@AEAV10@PEBD@Z@4HA DD imagerel ?catch$1@?0???$?6U?$char_traits@D@std@@@std@@YAAEAV?$basic_ostream@DU?$char_traits@D@std@@@0@AEAV10@PEBD@Z@4HA
	DD	imagerel ?catch$1@?0???$?6U?$char_traits@D@std@@@std@@YAAEAV?$basic_ostream@DU?$char_traits@D@std@@@0@AEAV10@PEBD@Z@4HA+80
	DD	imagerel $unwind$?catch$1@?0???$?6U?$char_traits@D@std@@@std@@YAAEAV?$basic_ostream@DU?$char_traits@D@std@@@0@AEAV10@PEBD@Z@4HA
pdata	ENDS
;	COMDAT pdata
pdata	SEGMENT
$pdata$??$strncpy_s@$0L@@@YAHAEAY0L@DPEBD_K@Z DD imagerel $LN4
	DD	imagerel $LN4+106
	DD	imagerel $unwind$??$strncpy_s@$0L@@@YAHAEAY0L@DPEBD_K@Z
pdata	ENDS
;	COMDAT pdata
pdata	SEGMENT
$pdata$??$strncpy_s@$0CB@@@YAHAEAY0CB@DPEBD_K@Z DD imagerel $LN4
	DD	imagerel $LN4+106
	DD	imagerel $unwind$??$strncpy_s@$0CB@@@YAHAEAY0CB@DPEBD_K@Z
pdata	ENDS
;	COMDAT pdata
pdata	SEGMENT
$pdata$??0_Sentry_base@?$basic_ostream@DU?$char_traits@D@std@@@std@@QEAA@AEAV12@@Z DD imagerel $LN4
	DD	imagerel $LN4+171
	DD	imagerel $unwind$??0_Sentry_base@?$basic_ostream@DU?$char_traits@D@std@@@std@@QEAA@AEAV12@@Z
pdata	ENDS
;	COMDAT pdata
pdata	SEGMENT
$pdata$??1_Sentry_base@?$basic_ostream@DU?$char_traits@D@std@@@std@@QEAA@XZ DD imagerel $LN4
	DD	imagerel $LN4+143
	DD	imagerel $unwind$??1_Sentry_base@?$basic_ostream@DU?$char_traits@D@std@@@std@@QEAA@XZ
pdata	ENDS
;	COMDAT pdata
pdata	SEGMENT
$pdata$??0sentry@?$basic_ostream@DU?$char_traits@D@std@@@std@@QEAA@AEAV12@@Z DD imagerel $LN7
	DD	imagerel $LN7+284
	DD	imagerel $unwind$??0sentry@?$basic_ostream@DU?$char_traits@D@std@@@std@@QEAA@AEAV12@@Z
pdata	ENDS
;	COMDAT pdata
pdata	SEGMENT
$pdata$?dtor$0@?0???0sentry@?$basic_ostream@DU?$char_traits@D@std@@@std@@QEAA@AEAV12@@Z@4HA DD imagerel ?dtor$0@?0???0sentry@?$basic_ostream@DU?$char_traits@D@std@@@std@@QEAA@AEAV12@@Z@4HA
	DD	imagerel ?dtor$0@?0???0sentry@?$basic_ostream@DU?$char_traits@D@std@@@std@@QEAA@AEAV12@@Z@4HA+39
	DD	imagerel $unwind$?dtor$0@?0???0sentry@?$basic_ostream@DU?$char_traits@D@std@@@std@@QEAA@AEAV12@@Z@4HA
pdata	ENDS
;	COMDAT pdata
pdata	SEGMENT
$pdata$??1sentry@?$basic_ostream@DU?$char_traits@D@std@@@std@@QEAA@XZ DD imagerel $LN6
	DD	imagerel $LN6+139
	DD	imagerel $unwind$??1sentry@?$basic_ostream@DU?$char_traits@D@std@@@std@@QEAA@XZ
pdata	ENDS
;	COMDAT pdata
pdata	SEGMENT
$pdata$??Bsentry@?$basic_ostream@DU?$char_traits@D@std@@@std@@QEBA_NXZ DD imagerel $LN3
	DD	imagerel $LN3+75
	DD	imagerel $unwind$??Bsentry@?$basic_ostream@DU?$char_traits@D@std@@@std@@QEBA_NXZ
pdata	ENDS
;	COMDAT rtc$TMZ
rtc$TMZ	SEGMENT
_RTC_Shutdown.rtc$TMZ DQ FLAT:_RTC_Shutdown
rtc$TMZ	ENDS
;	COMDAT rtc$IMZ
rtc$IMZ	SEGMENT
_RTC_InitBase.rtc$IMZ DQ FLAT:_RTC_InitBase
rtc$IMZ	ENDS
;	COMDAT ??_C@_1BK@MHIKGOKE@?$AA?3?$AAA?$AAM?$AA?3?$AAa?$AAm?$AA?3?$AAP?$AAM?$AA?3?$AAp?$AAm@
CONST	SEGMENT
??_C@_1BK@MHIKGOKE@?$AA?3?$AAA?$AAM?$AA?3?$AAa?$AAm?$AA?3?$AAP?$AAM?$AA?3?$AAp?$AAm@ DB ':'
	DB	00H, 'A', 00H, 'M', 00H, ':', 00H, 'a', 00H, 'm', 00H, ':', 00H
	DB	'P', 00H, 'M', 00H, ':', 00H, 'p', 00H, 'm', 00H, 00H, 00H ; `string'
CONST	ENDS
;	COMDAT ??_C@_0N@LPFKKEBD@?3AM?3am?3PM?3pm@
CONST	SEGMENT
??_C@_0N@LPFKKEBD@?3AM?3am?3PM?3pm@ DB ':AM:am:PM:pm', 00H ; `string'
CONST	ENDS
;	COMDAT ??_C@_01HIHLOKLC@1@
CONST	SEGMENT
??_C@_01HIHLOKLC@1@ DB '1', 00H				; `string'
CONST	ENDS
;	COMDAT ??_C@_01GBGANLPD@0@
CONST	SEGMENT
??_C@_01GBGANLPD@0@ DB '0', 00H				; `string'
CONST	ENDS
;	COMDAT ??_C@_0BM@LIHGGBDC@?H?d?e?m?r?h?t?h?j?$OA?r?n?p?5?o?e?p?e?l?e?m?m?m?n?i?5?$CI@
CONST	SEGMENT
??_C@_0BM@LIHGGBDC@?H?d?e?m?r?h?t?h?j?$OA?r?n?p?5?o?e?p?e?l?e?m?m?m?n?i?5?$CI@ DB 0c8H
	DB	0e4H, 0e5H, 0edH, 0f2H, 0e8H, 0f4H, 0e8H, 0eaH, 0e0H, 0f2H, 0eeH
	DB	0f0H, ' ', 0efH, 0e5H, 0f0H, 0e5H, 0ecH, 0e5H, 0edH, 0edH, 0edH
	DB	0eeH, 0e9H, ' (', 00H			; `string'
CONST	ENDS
;	COMDAT ??_C@_0BK@HEGKBELI@?H?d?e?m?r?h?t?h?j?$OA?r?n?p?5?o?$OA?p?$OA?l?e?r?p?$OA?5?$CI@
CONST	SEGMENT
??_C@_0BK@HEGKBELI@?H?d?e?m?r?h?t?h?j?$OA?r?n?p?5?o?$OA?p?$OA?l?e?r?p?$OA?5?$CI@ DB 0c8H
	DB	0e4H, 0e5H, 0edH, 0f2H, 0e8H, 0f4H, 0e8H, 0eaH, 0e0H, 0f2H, 0eeH
	DB	0f0H, ' ', 0efH, 0e0H, 0f0H, 0e0H, 0ecH, 0e5H, 0f2H, 0f0H, 0e0H
	DB	' (', 00H					; `string'
CONST	ENDS
;	COMDAT ??_C@_0BI@KEJLDABE@?H?d?e?m?r?h?t?h?j?$OA?r?n?p?5?t?s?m?j?v?h?h?5?$CI@
CONST	SEGMENT
??_C@_0BI@KEJLDABE@?H?d?e?m?r?h?t?h?j?$OA?r?n?p?5?t?s?m?j?v?h?h?5?$CI@ DB 0c8H
	DB	0e4H, 0e5H, 0edH, 0f2H, 0e8H, 0f4H, 0e8H, 0eaH, 0e0H, 0f2H, 0eeH
	DB	0f0H, ' ', 0f4H, 0f3H, 0edH, 0eaH, 0f6H, 0e8H, 0e8H, ' (', 00H ; `string'
CONST	ENDS
;	COMDAT ??_C@_0L@OEAAKCBM@?$CJ?5?s?q?e?w?e?m?$CB?6@
CONST	SEGMENT
??_C@_0L@OEAAKCBM@?$CJ?5?s?q?e?w?e?m?$CB?6@ DB ') ', 0f3H, 0f1H, 0e5H, 0f7H
	DB	0e5H, 0edH, '!', 0aH, 00H			; `string'
CONST	ENDS
;	COMDAT _CT??_R0?AUERROR@Error@@@8208
xdata$x	SEGMENT
_CT??_R0?AUERROR@Error@@@8208 DD 00H
	DD	imagerel ??_R0?AUERROR@Error@@@8
	DD	00H
	DD	0ffffffffH
	ORG $+4
	DD	0d0H
	DD	00H
xdata$x	ENDS
;	COMDAT ??_R0?AUERROR@Error@@@8
data$r	SEGMENT
??_R0?AUERROR@Error@@@8 DQ FLAT:??_7type_info@@6B@	; Error::ERROR `RTTI Type Descriptor'
	DQ	0000000000000000H
	DB	'.?AUERROR@Error@@', 00H
data$r	ENDS
;	COMDAT _CTA1?AUERROR@Error@@
xdata$x	SEGMENT
_CTA1?AUERROR@Error@@ DD 01H
	DD	imagerel _CT??_R0?AUERROR@Error@@@8208
xdata$x	ENDS
;	COMDAT _TI1?AUERROR@Error@@
xdata$x	SEGMENT
_TI1?AUERROR@Error@@ DD 00H
	DD	00H
	DD	00H
	DD	imagerel _CTA1?AUERROR@Error@@
xdata$x	ENDS
;	COMDAT ??_C@_0GJ@GMBHIGPF@C?3?2Program?5Files?5?$CIx86?$CJ?2Microsof@
CONST	SEGMENT
??_C@_0GJ@GMBHIGPF@C?3?2Program?5Files?5?$CIx86?$CJ?2Microsof@ DB 'C:\Pro'
	DB	'gram Files (x86)\Microsoft Visual Studio\2019\Enterprise\VC\T'
	DB	'ools\MSVC\14.27.29110\include\xlocnum', 00H	; `string'
CONST	ENDS
;	COMDAT ?__LINE__Var@?0??_Maklocwcs@std@@YAPEA_WPEB_W@Z@4JA
_DATA	SEGMENT
?__LINE__Var@?0??_Maklocwcs@std@@YAPEA_WPEB_W@Z@4JA DD 05aH ; `std::_Maklocwcs'::`1'::__LINE__Var
_DATA	ENDS
;	COMDAT ??_C@_0GJ@OPFKIEFE@C?3?2Program?5Files?5?$CIx86?$CJ?2Microsof@
CONST	SEGMENT
??_C@_0GJ@OPFKIEFE@C?3?2Program?5Files?5?$CIx86?$CJ?2Microsof@ DB 'C:\Pro'
	DB	'gram Files (x86)\Microsoft Visual Studio\2019\Enterprise\VC\T'
	DB	'ools\MSVC\14.27.29110\include\xlocale', 00H	; `string'
CONST	ENDS
;	COMDAT xdata
xdata	SEGMENT
$unwind$??Bsentry@?$basic_ostream@DU?$char_traits@D@std@@@std@@QEBA_NXZ DD 025052a01H
	DD	010e2313H
	DD	07007001dH
	DD	05006H
xdata	ENDS
;	COMDAT xdata
xdata	SEGMENT
$ip2state$??1sentry@?$basic_ostream@DU?$char_traits@D@std@@@std@@QEAA@XZ DB 02H
	DB	00H
	DB	00H
xdata	ENDS
;	COMDAT xdata
xdata	SEGMENT
$cppxdata$??1sentry@?$basic_ostream@DU?$char_traits@D@std@@@std@@QEAA@XZ DB 060H
	DD	imagerel $ip2state$??1sentry@?$basic_ostream@DU?$char_traits@D@std@@@std@@QEAA@XZ
xdata	ENDS
;	COMDAT xdata
xdata	SEGMENT
$unwind$??1sentry@?$basic_ostream@DU?$char_traits@D@std@@@std@@QEAA@XZ DD 025052a19H
	DD	010e2313H
	DD	070070021H
	DD	05006H
	DD	imagerel __CxxFrameHandler4
	DD	imagerel $cppxdata$??1sentry@?$basic_ostream@DU?$char_traits@D@std@@@std@@QEAA@XZ
xdata	ENDS
;	COMDAT xdata
xdata	SEGMENT
$unwind$?dtor$0@?0???0sentry@?$basic_ostream@DU?$char_traits@D@std@@@std@@QEAA@AEAV12@@Z@4HA DD 031001H
	DD	0700c4210H
	DD	0500bH
xdata	ENDS
;	COMDAT xdata
xdata	SEGMENT
$ip2state$??0sentry@?$basic_ostream@DU?$char_traits@D@std@@@std@@QEAA@AEAV12@@Z DB 06H
	DB	00H
	DB	00H
	DB	09eH
	DB	02H
	DB	0f1H, 02H
	DB	00H
xdata	ENDS
;	COMDAT xdata
xdata	SEGMENT
$stateUnwindMap$??0sentry@?$basic_ostream@DU?$char_traits@D@std@@@std@@QEAA@AEAV12@@Z DB 02H
	DB	0eH
	DD	imagerel ?dtor$0@?0???0sentry@?$basic_ostream@DU?$char_traits@D@std@@@std@@QEAA@AEAV12@@Z@4HA
xdata	ENDS
;	COMDAT xdata
xdata	SEGMENT
$cppxdata$??0sentry@?$basic_ostream@DU?$char_traits@D@std@@@std@@QEAA@AEAV12@@Z DB 028H
	DD	imagerel $stateUnwindMap$??0sentry@?$basic_ostream@DU?$char_traits@D@std@@@std@@QEAA@AEAV12@@Z
	DD	imagerel $ip2state$??0sentry@?$basic_ostream@DU?$char_traits@D@std@@@std@@QEAA@AEAV12@@Z
xdata	ENDS
;	COMDAT xdata
xdata	SEGMENT
$unwind$??0sentry@?$basic_ostream@DU?$char_traits@D@std@@@std@@QEAA@AEAV12@@Z DD 025052f11H
	DD	01132318H
	DD	0700c0021H
	DD	0500bH
	DD	imagerel __CxxFrameHandler4
	DD	imagerel $cppxdata$??0sentry@?$basic_ostream@DU?$char_traits@D@std@@@std@@QEAA@AEAV12@@Z
xdata	ENDS
;	COMDAT xdata
xdata	SEGMENT
$ip2state$??1_Sentry_base@?$basic_ostream@DU?$char_traits@D@std@@@std@@QEAA@XZ DB 02H
	DB	00H
	DB	00H
xdata	ENDS
;	COMDAT xdata
xdata	SEGMENT
$cppxdata$??1_Sentry_base@?$basic_ostream@DU?$char_traits@D@std@@@std@@QEAA@XZ DB 060H
	DD	imagerel $ip2state$??1_Sentry_base@?$basic_ostream@DU?$char_traits@D@std@@@std@@QEAA@XZ
xdata	ENDS
;	COMDAT xdata
xdata	SEGMENT
$unwind$??1_Sentry_base@?$basic_ostream@DU?$char_traits@D@std@@@std@@QEAA@XZ DD 025052a19H
	DD	010e2313H
	DD	070070021H
	DD	05006H
	DD	imagerel __CxxFrameHandler4
	DD	imagerel $cppxdata$??1_Sentry_base@?$basic_ostream@DU?$char_traits@D@std@@@std@@QEAA@XZ
xdata	ENDS
;	COMDAT xdata
xdata	SEGMENT
$unwind$??0_Sentry_base@?$basic_ostream@DU?$char_traits@D@std@@@std@@QEAA@AEAV12@@Z DD 025052f01H
	DD	01132318H
	DD	0700c0021H
	DD	0500bH
xdata	ENDS
;	COMDAT xdata
xdata	SEGMENT
$unwind$??$strncpy_s@$0CB@@@YAHAEAY0CB@DPEBD_K@Z DD 025053401H
	DD	0118231dH
	DD	07011001dH
	DD	05010H
xdata	ENDS
;	COMDAT xdata
xdata	SEGMENT
$unwind$??$strncpy_s@$0L@@@YAHAEAY0L@DPEBD_K@Z DD 025053401H
	DD	0118231dH
	DD	07011001dH
	DD	05010H
xdata	ENDS
;	COMDAT xdata
xdata	SEGMENT
$unwind$?catch$1@?0???$?6U?$char_traits@D@std@@@std@@YAAEAV?$basic_ostream@DU?$char_traits@D@std@@@0@AEAV10@PEBD@Z@4HA DD 031001H
	DD	0700c4210H
	DD	0500bH
xdata	ENDS
;	COMDAT xdata
xdata	SEGMENT
$unwind$?dtor$0@?0???$?6U?$char_traits@D@std@@@std@@YAAEAV?$basic_ostream@DU?$char_traits@D@std@@@0@AEAV10@PEBD@Z@4HA DD 031001H
	DD	0700c4210H
	DD	0500bH
xdata	ENDS
;	COMDAT xdata
xdata	SEGMENT
$ip2state$??$?6U?$char_traits@D@std@@@std@@YAAEAV?$basic_ostream@DU?$char_traits@D@std@@@0@AEAV10@PEBD@Z DB 0aH
	DB	00H
	DB	00H
	DB	'9', 04H
	DB	02H
	DB	'<'
	DB	04H
	DB	095H, 09H
	DB	02H
	DB	't'
	DB	00H
xdata	ENDS
;	COMDAT xdata
xdata	SEGMENT
$handlerMap$??$?6U?$char_traits@D@std@@@std@@YAAEAV?$basic_ostream@DU?$char_traits@D@std@@@0@AEAV10@PEBD@Z DB 02H
	DB	01H
	DB	080H
	DD	imagerel ?catch$1@?0???$?6U?$char_traits@D@std@@@std@@YAAEAV?$basic_ostream@DU?$char_traits@D@std@@@0@AEAV10@PEBD@Z@4HA
xdata	ENDS
;	COMDAT xdata
xdata	SEGMENT
$tryMap$??$?6U?$char_traits@D@std@@@std@@YAAEAV?$basic_ostream@DU?$char_traits@D@std@@@0@AEAV10@PEBD@Z DB 02H
	DB	02H
	DB	02H
	DB	04H
	DD	imagerel $handlerMap$??$?6U?$char_traits@D@std@@@std@@YAAEAV?$basic_ostream@DU?$char_traits@D@std@@@0@AEAV10@PEBD@Z
xdata	ENDS
;	COMDAT xdata
xdata	SEGMENT
$stateUnwindMap$??$?6U?$char_traits@D@std@@@std@@YAAEAV?$basic_ostream@DU?$char_traits@D@std@@@0@AEAV10@PEBD@Z DB 06H
	DB	0eH
	DD	imagerel ?dtor$0@?0???$?6U?$char_traits@D@std@@@std@@YAAEAV?$basic_ostream@DU?$char_traits@D@std@@@0@AEAV10@PEBD@Z@4HA
	DB	028H
	DB	030H
xdata	ENDS
;	COMDAT xdata
xdata	SEGMENT
$cppxdata$??$?6U?$char_traits@D@std@@@std@@YAAEAV?$basic_ostream@DU?$char_traits@D@std@@@0@AEAV10@PEBD@Z DB 038H
	DD	imagerel $stateUnwindMap$??$?6U?$char_traits@D@std@@@std@@YAAEAV?$basic_ostream@DU?$char_traits@D@std@@@0@AEAV10@PEBD@Z
	DD	imagerel $tryMap$??$?6U?$char_traits@D@std@@@std@@YAAEAV?$basic_ostream@DU?$char_traits@D@std@@@0@AEAV10@PEBD@Z
	DD	imagerel $ip2state$??$?6U?$char_traits@D@std@@@std@@YAAEAV?$basic_ostream@DU?$char_traits@D@std@@@0@AEAV10@PEBD@Z
xdata	ENDS
;	COMDAT xdata
xdata	SEGMENT
$unwind$??$?6U?$char_traits@D@std@@@std@@YAAEAV?$basic_ostream@DU?$char_traits@D@std@@@0@AEAV10@PEBD@Z DD 025054019H
	DD	01132318H
	DD	0700c0045H
	DD	0500bH
	DD	imagerel __GSHandlerCheck_EH4
	DD	imagerel $cppxdata$??$?6U?$char_traits@D@std@@@std@@YAAEAV?$basic_ostream@DU?$char_traits@D@std@@@0@AEAV10@PEBD@Z
	DD	021bH
xdata	ENDS
;	COMDAT CONST
CONST	SEGMENT
??$?6U?$char_traits@D@std@@@std@@YAAEAV?$basic_ostream@DU?$char_traits@D@std@@@0@AEAV10@PEBD@Z$rtcName$0 DB 05fH ; std::operator<<<std::char_traits<char> >
	DB	04fH
	DB	06bH
	DB	00H
	ORG $+12
??$?6U?$char_traits@D@std@@@std@@YAAEAV?$basic_ostream@DU?$char_traits@D@std@@@0@AEAV10@PEBD@Z$rtcVarDesc DD 088H ; std::operator<<<std::char_traits<char> >
	DD	010H
	DQ	FLAT:??$?6U?$char_traits@D@std@@@std@@YAAEAV?$basic_ostream@DU?$char_traits@D@std@@@0@AEAV10@PEBD@Z$rtcName$0
	ORG $+48
??$?6U?$char_traits@D@std@@@std@@YAAEAV?$basic_ostream@DU?$char_traits@D@std@@@0@AEAV10@PEBD@Z$rtcFrameData DD 01H ; std::operator<<<std::char_traits<char> >
	DD	00H
	DQ	FLAT:??$?6U?$char_traits@D@std@@@std@@YAAEAV?$basic_ostream@DU?$char_traits@D@std@@@0@AEAV10@PEBD@Z$rtcVarDesc
CONST	ENDS
;	COMDAT xdata
xdata	SEGMENT
$unwind$?alphaCirillicDigit@GM@@YA_ND@Z DD 025052901H
	DD	010d2312H
	DD	07006001dH
	DD	05005H
xdata	ENDS
;	COMDAT xdata
xdata	SEGMENT
$unwind$?IdentificatorCreate@GM@@YAXPEAUIdTable@IT@@PEAULexTable@LT@@AEAUData@1@PEAV?$basic_fstream@DU?$char_traits@D@std@@@std@@@Z DD 045063a01H
	DD	011e4323H
	DD	07017018eH
	DD	050156016H
xdata	ENDS
;	COMDAT xdata
xdata	SEGMENT
$unwind$?dataProcesing@GM@@YAXPEAEPEAV?$basic_fstream@DU?$char_traits@D@std@@@std@@PEAULexTable@LT@@PEAUIdTable@IT@@@Z DD 035065119H
	DD	01243329H
	DD	0701782a6H
	DD	050156016H
	DD	imagerel __GSHandlerCheck
	DD	041528H
xdata	ENDS
;	COMDAT CONST
CONST	SEGMENT
?dataProcesing@GM@@YAXPEAEPEAV?$basic_fstream@DU?$char_traits@D@std@@@std@@PEAULexTable@LT@@PEAUIdTable@IT@@@Z$rtcName$0 DB 064H ; GM::dataProcesing
	DB	061H
	DB	074H
	DB	061H
	DB	00H
	ORG $+3
?dataProcesing@GM@@YAXPEAEPEAV?$basic_fstream@DU?$char_traits@D@std@@@std@@PEAULexTable@LT@@PEAUIdTable@IT@@@Z$rtcName$1 DB 065H ; GM::dataProcesing
	DB	06eH
	DB	074H
	DB	072H
	DB	079H
	DB	04cH
	DB	054H
	DB	00H
?dataProcesing@GM@@YAXPEAEPEAV?$basic_fstream@DU?$char_traits@D@std@@@std@@PEAULexTable@LT@@PEAUIdTable@IT@@@Z$rtcVarDesc DD 0c8H ; GM::dataProcesing
	DD	010H
	DQ	FLAT:?dataProcesing@GM@@YAXPEAEPEAV?$basic_fstream@DU?$char_traits@D@std@@@std@@PEAULexTable@LT@@PEAUIdTable@IT@@@Z$rtcName$1
	DD	078H
	DD	030H
	DQ	FLAT:?dataProcesing@GM@@YAXPEAEPEAV?$basic_fstream@DU?$char_traits@D@std@@@std@@PEAULexTable@LT@@PEAUIdTable@IT@@@Z$rtcName$0
	ORG $+96
?dataProcesing@GM@@YAXPEAEPEAV?$basic_fstream@DU?$char_traits@D@std@@@std@@PEAULexTable@LT@@PEAUIdTable@IT@@@Z$rtcFrameData DD 02H ; GM::dataProcesing
	DD	00H
	DQ	FLAT:?dataProcesing@GM@@YAXPEAEPEAV?$basic_fstream@DU?$char_traits@D@std@@@std@@PEAULexTable@LT@@PEAUIdTable@IT@@@Z$rtcVarDesc
CONST	ENDS
;	COMDAT xdata
xdata	SEGMENT
$unwind$?token_rekognizer@GM@@YADPEADPEAUEntry@IT@@@Z DD 0f5064a19H
	DD	011af322H
	DD	0700d14a4H
	DD	0500b600cH
	DD	imagerel __GSHandlerCheck
	DD	0a518H
xdata	ENDS
;	COMDAT CONST
CONST	SEGMENT
?token_rekognizer@GM@@YADPEADPEAUEntry@IT@@@Z$rtcName$0 DB 067H ; GM::token_rekognizer
	DB	072H
	DB	061H
	DB	070H
	DB	068H
	DB	00H
	ORG $+2
?token_rekognizer@GM@@YADPEADPEAUEntry@IT@@@Z$rtcName$1 DB 067H ; GM::token_rekognizer
	DB	072H
	DB	061H
	DB	070H
	DB	068H
	DB	00H
	ORG $+2
?token_rekognizer@GM@@YADPEADPEAUEntry@IT@@@Z$rtcName$2 DB 067H ; GM::token_rekognizer
	DB	072H
	DB	061H
	DB	070H
	DB	068H
	DB	00H
	ORG $+2
?token_rekognizer@GM@@YADPEADPEAUEntry@IT@@@Z$rtcName$3 DB 067H ; GM::token_rekognizer
	DB	072H
	DB	061H
	DB	070H
	DB	068H
	DB	00H
	ORG $+2
?token_rekognizer@GM@@YADPEADPEAUEntry@IT@@@Z$rtcName$4 DB 067H ; GM::token_rekognizer
	DB	072H
	DB	061H
	DB	070H
	DB	068H
	DB	00H
	ORG $+2
?token_rekognizer@GM@@YADPEADPEAUEntry@IT@@@Z$rtcName$5 DB 067H ; GM::token_rekognizer
	DB	072H
	DB	061H
	DB	070H
	DB	068H
	DB	00H
	ORG $+2
?token_rekognizer@GM@@YADPEADPEAUEntry@IT@@@Z$rtcName$6 DB 067H ; GM::token_rekognizer
	DB	072H
	DB	061H
	DB	070H
	DB	068H
	DB	00H
	ORG $+2
?token_rekognizer@GM@@YADPEADPEAUEntry@IT@@@Z$rtcName$7 DB 067H ; GM::token_rekognizer
	DB	072H
	DB	061H
	DB	070H
	DB	068H
	DB	05fH
	DB	069H
	DB	06eH
	DB	063H
	DB	00H
	ORG $+2
?token_rekognizer@GM@@YADPEADPEAUEntry@IT@@@Z$rtcName$8 DB 067H ; GM::token_rekognizer
	DB	072H
	DB	061H
	DB	070H
	DB	068H
	DB	00H
	ORG $+2
?token_rekognizer@GM@@YADPEADPEAUEntry@IT@@@Z$rtcName$9 DB 067H ; GM::token_rekognizer
	DB	072H
	DB	061H
	DB	070H
	DB	068H
	DB	00H
	ORG $+6
?token_rekognizer@GM@@YADPEADPEAUEntry@IT@@@Z$rtcName$10 DB 067H ; GM::token_rekognizer
	DB	072H
	DB	061H
	DB	070H
	DB	068H
	DB	05fH
	DB	064H
	DB	065H
	DB	063H
	DB	00H
	ORG $+2
?token_rekognizer@GM@@YADPEADPEAUEntry@IT@@@Z$rtcName$11 DB 067H ; GM::token_rekognizer
	DB	072H
	DB	061H
	DB	070H
	DB	068H
	DB	00H
	ORG $+2
?token_rekognizer@GM@@YADPEADPEAUEntry@IT@@@Z$rtcName$12 DB 067H ; GM::token_rekognizer
	DB	072H
	DB	061H
	DB	070H
	DB	068H
	DB	00H
	ORG $+6
?token_rekognizer@GM@@YADPEADPEAUEntry@IT@@@Z$rtcName$13 DB 067H ; GM::token_rekognizer
	DB	072H
	DB	061H
	DB	070H
	DB	068H
	DB	05fH
	DB	064H
	DB	069H
	DB	067H
	DB	069H
	DB	074H
	DB	05fH
	DB	064H
	DB	065H
	DB	063H
	DB	00H
?token_rekognizer@GM@@YADPEADPEAUEntry@IT@@@Z$rtcName$14 DB 067H ; GM::token_rekognizer
	DB	072H
	DB	061H
	DB	070H
	DB	068H
	DB	05fH
	DB	064H
	DB	069H
	DB	067H
	DB	069H
	DB	074H
	DB	05fH
	DB	06fH
	DB	063H
	DB	074H
	DB	00H
?token_rekognizer@GM@@YADPEADPEAUEntry@IT@@@Z$rtcName$15 DB 067H ; GM::token_rekognizer
	DB	072H
	DB	061H
	DB	070H
	DB	068H
	DB	05fH
	DB	064H
	DB	069H
	DB	067H
	DB	069H
	DB	074H
	DB	05fH
	DB	068H
	DB	065H
	DB	078H
	DB	00H
?token_rekognizer@GM@@YADPEADPEAUEntry@IT@@@Z$rtcName$16 DB 067H ; GM::token_rekognizer
	DB	072H
	DB	061H
	DB	070H
	DB	068H
	DB	05fH
	DB	064H
	DB	069H
	DB	067H
	DB	069H
	DB	074H
	DB	05fH
	DB	062H
	DB	069H
	DB	06eH
	DB	00H
?token_rekognizer@GM@@YADPEADPEAUEntry@IT@@@Z$rtcName$17 DB 067H ; GM::token_rekognizer
	DB	072H
	DB	061H
	DB	070H
	DB	068H
	DB	05fH
	DB	064H
	DB	069H
	DB	067H
	DB	069H
	DB	074H
	DB	05fH
	DB	066H
	DB	06cH
	DB	06fH
	DB	061H
	DB	074H
	DB	00H
	ORG $+2
?token_rekognizer@GM@@YADPEADPEAUEntry@IT@@@Z$rtcName$18 DB 067H ; GM::token_rekognizer
	DB	072H
	DB	061H
	DB	070H
	DB	068H
	DB	00H
	ORG $+6
?token_rekognizer@GM@@YADPEADPEAUEntry@IT@@@Z$rtcName$19 DB 067H ; GM::token_rekognizer
	DB	072H
	DB	061H
	DB	070H
	DB	068H
	DB	05fH
	DB	062H
	DB	06cH
	DB	00H
	ORG $+3
?token_rekognizer@GM@@YADPEADPEAUEntry@IT@@@Z$rtcName$21 DB 067H ; GM::token_rekognizer
	DB	072H
	DB	061H
	DB	070H
	DB	068H
	DB	06cH
	DB	00H
	ORG $+5
?token_rekognizer@GM@@YADPEADPEAUEntry@IT@@@Z$rtcName$20 DB 067H ; GM::token_rekognizer
	DB	072H
	DB	061H
	DB	070H
	DB	068H
	DB	05fH
	DB	06cH
	DB	065H
	DB	00H
	ORG $+3
?token_rekognizer@GM@@YADPEADPEAUEntry@IT@@@Z$rtcName$24 DB 067H ; GM::token_rekognizer
	DB	072H
	DB	061H
	DB	070H
	DB	068H
	DB	00H
	ORG $+6
?token_rekognizer@GM@@YADPEADPEAUEntry@IT@@@Z$rtcName$22 DB 067H ; GM::token_rekognizer
	DB	072H
	DB	061H
	DB	070H
	DB	068H
	DB	05fH
	DB	072H
	DB	00H
?token_rekognizer@GM@@YADPEADPEAUEntry@IT@@@Z$rtcName$23 DB 067H ; GM::token_rekognizer
	DB	072H
	DB	061H
	DB	070H
	DB	068H
	DB	05fH
	DB	06dH
	DB	065H
	DB	00H
	ORG $+3
?token_rekognizer@GM@@YADPEADPEAUEntry@IT@@@Z$rtcName$25 DB 067H ; GM::token_rekognizer
	DB	072H
	DB	061H
	DB	070H
	DB	068H
	DB	00H
	ORG $+6
?token_rekognizer@GM@@YADPEADPEAUEntry@IT@@@Z$rtcName$26 DB 067H ; GM::token_rekognizer
	DB	072H
	DB	061H
	DB	070H
	DB	068H
	DB	05fH
	DB	061H
	DB	073H
	DB	073H
	DB	069H
	DB	067H
	DB	06eH
	DB	00H
	ORG $+3
?token_rekognizer@GM@@YADPEADPEAUEntry@IT@@@Z$rtcName$27 DB 067H ; GM::token_rekognizer
	DB	072H
	DB	061H
	DB	070H
	DB	068H
	DB	00H
	ORG $+2
?token_rekognizer@GM@@YADPEADPEAUEntry@IT@@@Z$rtcName$28 DB 067H ; GM::token_rekognizer
	DB	072H
	DB	061H
	DB	070H
	DB	068H
	DB	00H
	ORG $+2
?token_rekognizer@GM@@YADPEADPEAUEntry@IT@@@Z$rtcName$29 DB 067H ; GM::token_rekognizer
	DB	072H
	DB	061H
	DB	070H
	DB	068H
	DB	05fH
	DB	062H
	DB	079H
	DB	074H
	DB	065H
	DB	00H
	ORG $+5
?token_rekognizer@GM@@YADPEADPEAUEntry@IT@@@Z$rtcName$30 DB 067H ; GM::token_rekognizer
	DB	072H
	DB	061H
	DB	070H
	DB	068H
	DB	05fH
	DB	062H
	DB	06fH
	DB	06fH
	DB	06cH
	DB	00H
	ORG $+5
?token_rekognizer@GM@@YADPEADPEAUEntry@IT@@@Z$rtcName$31 DB 067H ; GM::token_rekognizer
	DB	072H
	DB	061H
	DB	070H
	DB	068H
	DB	05fH
	DB	065H
	DB	06cH
	DB	073H
	DB	065H
	DB	00H
	ORG $+5
?token_rekognizer@GM@@YADPEADPEAUEntry@IT@@@Z$rtcName$32 DB 067H ; GM::token_rekognizer
	DB	072H
	DB	061H
	DB	070H
	DB	068H
	DB	05fH
	DB	066H
	DB	075H
	DB	06eH
	DB	063H
	DB	074H
	DB	069H
	DB	06fH
	DB	06eH
	DB	00H
	ORG $+1
?token_rekognizer@GM@@YADPEADPEAUEntry@IT@@@Z$rtcName$33 DB 067H ; GM::token_rekognizer
	DB	072H
	DB	061H
	DB	070H
	DB	068H
	DB	05fH
	DB	066H
	DB	06cH
	DB	06fH
	DB	061H
	DB	074H
	DB	00H
	ORG $+4
?token_rekognizer@GM@@YADPEADPEAUEntry@IT@@@Z$rtcName$34 DB 067H ; GM::token_rekognizer
	DB	072H
	DB	061H
	DB	070H
	DB	068H
	DB	05fH
	DB	066H
	DB	061H
	DB	06cH
	DB	073H
	DB	065H
	DB	00H
	ORG $+4
?token_rekognizer@GM@@YADPEADPEAUEntry@IT@@@Z$rtcName$35 DB 067H ; GM::token_rekognizer
	DB	072H
	DB	061H
	DB	070H
	DB	068H
	DB	05fH
	DB	069H
	DB	06eH
	DB	063H
	DB	06cH
	DB	075H
	DB	064H
	DB	065H
	DB	00H
	ORG $+2
?token_rekognizer@GM@@YADPEADPEAUEntry@IT@@@Z$rtcName$36 DB 067H ; GM::token_rekognizer
	DB	072H
	DB	061H
	DB	070H
	DB	068H
	DB	05fH
	DB	063H
	DB	061H
	DB	06eH
	DB	064H
	DB	069H
	DB	074H
	DB	069H
	DB	06fH
	DB	06eH
	DB	061H
	DB	06cH
	DB	00H
	ORG $+6
?token_rekognizer@GM@@YADPEADPEAUEntry@IT@@@Z$rtcName$37 DB 067H ; GM::token_rekognizer
	DB	072H
	DB	061H
	DB	070H
	DB	068H
	DB	05fH
	DB	069H
	DB	06eH
	DB	074H
	DB	00H
	ORG $+6
?token_rekognizer@GM@@YADPEADPEAUEntry@IT@@@Z$rtcName$38 DB 067H ; GM::token_rekognizer
	DB	072H
	DB	061H
	DB	070H
	DB	068H
	DB	05fH
	DB	06dH
	DB	061H
	DB	069H
	DB	06eH
	DB	00H
	ORG $+5
?token_rekognizer@GM@@YADPEADPEAUEntry@IT@@@Z$rtcName$39 DB 067H ; GM::token_rekognizer
	DB	072H
	DB	061H
	DB	070H
	DB	068H
	DB	05fH
	DB	06fH
	DB	076H
	DB	065H
	DB	072H
	DB	066H
	DB	06cH
	DB	06fH
	DB	077H
	DB	00H
	ORG $+1
?token_rekognizer@GM@@YADPEADPEAUEntry@IT@@@Z$rtcName$40 DB 067H ; GM::token_rekognizer
	DB	072H
	DB	061H
	DB	070H
	DB	068H
	DB	05fH
	DB	072H
	DB	061H
	DB	06eH
	DB	064H
	DB	06fH
	DB	06dH
	DB	00H
	ORG $+3
?token_rekognizer@GM@@YADPEADPEAUEntry@IT@@@Z$rtcName$41 DB 067H ; GM::token_rekognizer
	DB	072H
	DB	061H
	DB	070H
	DB	068H
	DB	05fH
	DB	072H
	DB	065H
	DB	074H
	DB	075H
	DB	072H
	DB	06eH
	DB	00H
	ORG $+3
?token_rekognizer@GM@@YADPEADPEAUEntry@IT@@@Z$rtcName$42 DB 067H ; GM::token_rekognizer
	DB	072H
	DB	061H
	DB	070H
	DB	068H
	DB	05fH
	DB	072H
	DB	065H
	DB	070H
	DB	065H
	DB	061H
	DB	074H
	DB	00H
	ORG $+3
?token_rekognizer@GM@@YADPEADPEAUEntry@IT@@@Z$rtcName$43 DB 067H ; GM::token_rekognizer
	DB	072H
	DB	061H
	DB	070H
	DB	068H
	DB	05fH
	DB	073H
	DB	074H
	DB	072H
	DB	069H
	DB	06eH
	DB	067H
	DB	00H
	ORG $+3
?token_rekognizer@GM@@YADPEADPEAUEntry@IT@@@Z$rtcName$44 DB 067H ; GM::token_rekognizer
	DB	072H
	DB	061H
	DB	070H
	DB	068H
	DB	05fH
	DB	073H
	DB	074H
	DB	072H
	DB	06cH
	DB	065H
	DB	06eH
	DB	00H
	ORG $+3
?token_rekognizer@GM@@YADPEADPEAUEntry@IT@@@Z$rtcName$45 DB 067H ; GM::token_rekognizer
	DB	072H
	DB	061H
	DB	070H
	DB	068H
	DB	05fH
	DB	073H
	DB	074H
	DB	072H
	DB	063H
	DB	061H
	DB	074H
	DB	00H
	ORG $+3
?token_rekognizer@GM@@YADPEADPEAUEntry@IT@@@Z$rtcName$46 DB 067H ; GM::token_rekognizer
	DB	072H
	DB	061H
	DB	070H
	DB	068H
	DB	05fH
	DB	073H
	DB	074H
	DB	072H
	DB	063H
	DB	06fH
	DB	070H
	DB	079H
	DB	00H
	ORG $+2
?token_rekognizer@GM@@YADPEADPEAUEntry@IT@@@Z$rtcName$47 DB 067H ; GM::token_rekognizer
	DB	072H
	DB	061H
	DB	070H
	DB	068H
	DB	05fH
	DB	074H
	DB	072H
	DB	075H
	DB	065H
	DB	00H
	ORG $+5
?token_rekognizer@GM@@YADPEADPEAUEntry@IT@@@Z$rtcName$48 DB 067H ; GM::token_rekognizer
	DB	072H
	DB	061H
	DB	070H
	DB	068H
	DB	05fH
	DB	075H
	DB	06eH
	DB	074H
	DB	069H
	DB	06cH
	DB	00H
	ORG $+4
?token_rekognizer@GM@@YADPEADPEAUEntry@IT@@@Z$rtcName$49 DB 067H ; GM::token_rekognizer
	DB	072H
	DB	061H
	DB	070H
	DB	068H
	DB	05fH
	DB	077H
	DB	072H
	DB	069H
	DB	074H
	DB	065H
	DB	06cH
	DB	069H
	DB	06eH
	DB	065H
	DB	00H
?token_rekognizer@GM@@YADPEADPEAUEntry@IT@@@Z$rtcName$50 DB 067H ; GM::token_rekognizer
	DB	072H
	DB	061H
	DB	070H
	DB	068H
	DB	05fH
	DB	077H
	DB	061H
	DB	072H
	DB	06eH
	DB	069H
	DB	06eH
	DB	073H
	DB	00H
	ORG $+2
?token_rekognizer@GM@@YADPEADPEAUEntry@IT@@@Z$rtcName$51 DB 067H ; GM::token_rekognizer
	DB	072H
	DB	061H
	DB	070H
	DB	068H
	DB	05fH
	DB	077H
	DB	072H
	DB	069H
	DB	074H
	DB	065H
	DB	00H
?token_rekognizer@GM@@YADPEADPEAUEntry@IT@@@Z$rtcName$52 DB 067H ; GM::token_rekognizer
	DB	072H
	DB	061H
	DB	070H
	DB	068H
	DB	00H
	ORG $+2
?token_rekognizer@GM@@YADPEADPEAUEntry@IT@@@Z$rtcName$53 DB 067H ; GM::token_rekognizer
	DB	072H
	DB	061H
	DB	070H
	DB	068H
	DB	00H
	ORG $+2
?token_rekognizer@GM@@YADPEADPEAUEntry@IT@@@Z$rtcName$54 DB 067H ; GM::token_rekognizer
	DB	072H
	DB	061H
	DB	070H
	DB	068H
	DB	00H
	ORG $+6
?token_rekognizer@GM@@YADPEADPEAUEntry@IT@@@Z$rtcName$55 DB 067H ; GM::token_rekognizer
	DB	072H
	DB	061H
	DB	070H
	DB	068H
	DB	05fH
	DB	063H
	DB	06fH
	DB	06eH
	DB	073H
	DB	074H
	DB	00H
	ORG $+4
?token_rekognizer@GM@@YADPEADPEAUEntry@IT@@@Z$rtcName$56 DB 067H ; GM::token_rekognizer
	DB	072H
	DB	061H
	DB	070H
	DB	068H
	DB	05fH
	DB	06cH
	DB	069H
	DB	074H
	DB	065H
	DB	072H
	DB	061H
	DB	06cH
	DB	00H
	ORG $+2
?token_rekognizer@GM@@YADPEADPEAUEntry@IT@@@Z$rtcName$57 DB 067H ; GM::token_rekognizer
	DB	072H
	DB	061H
	DB	070H
	DB	068H
	DB	05fH
	DB	069H
	DB	064H
	DB	065H
	DB	06eH
	DB	074H
	DB	069H
	DB	066H
	DB	069H
	DB	063H
	DB	061H
	DB	074H
	DB	06fH
	DB	072H
	DB	00H
	ORG $+4
?token_rekognizer@GM@@YADPEADPEAUEntry@IT@@@Z$rtcVarDesc DD 01358H ; GM::token_rekognizer
	DD	020H
	DQ	FLAT:?token_rekognizer@GM@@YADPEADPEAUEntry@IT@@@Z$rtcName$57
	DD	01318H
	DD	020H
	DQ	FLAT:?token_rekognizer@GM@@YADPEADPEAUEntry@IT@@@Z$rtcName$56
	DD	012d8H
	DD	020H
	DQ	FLAT:?token_rekognizer@GM@@YADPEADPEAUEntry@IT@@@Z$rtcName$55
	DD	01298H
	DD	020H
	DQ	FLAT:?token_rekognizer@GM@@YADPEADPEAUEntry@IT@@@Z$rtcName$54
	DD	01258H
	DD	020H
	DQ	FLAT:?token_rekognizer@GM@@YADPEADPEAUEntry@IT@@@Z$rtcName$53
	DD	01218H
	DD	020H
	DQ	FLAT:?token_rekognizer@GM@@YADPEADPEAUEntry@IT@@@Z$rtcName$52
	DD	011d8H
	DD	020H
	DQ	FLAT:?token_rekognizer@GM@@YADPEADPEAUEntry@IT@@@Z$rtcName$51
	DD	01198H
	DD	020H
	DQ	FLAT:?token_rekognizer@GM@@YADPEADPEAUEntry@IT@@@Z$rtcName$50
	DD	01158H
	DD	020H
	DQ	FLAT:?token_rekognizer@GM@@YADPEADPEAUEntry@IT@@@Z$rtcName$49
	DD	01118H
	DD	020H
	DQ	FLAT:?token_rekognizer@GM@@YADPEADPEAUEntry@IT@@@Z$rtcName$48
	DD	010d8H
	DD	020H
	DQ	FLAT:?token_rekognizer@GM@@YADPEADPEAUEntry@IT@@@Z$rtcName$47
	DD	01098H
	DD	020H
	DQ	FLAT:?token_rekognizer@GM@@YADPEADPEAUEntry@IT@@@Z$rtcName$46
	DD	01058H
	DD	020H
	DQ	FLAT:?token_rekognizer@GM@@YADPEADPEAUEntry@IT@@@Z$rtcName$45
	DD	01018H
	DD	020H
	DQ	FLAT:?token_rekognizer@GM@@YADPEADPEAUEntry@IT@@@Z$rtcName$44
	DD	0fd8H
	DD	020H
	DQ	FLAT:?token_rekognizer@GM@@YADPEADPEAUEntry@IT@@@Z$rtcName$43
	DD	0f98H
	DD	020H
	DQ	FLAT:?token_rekognizer@GM@@YADPEADPEAUEntry@IT@@@Z$rtcName$42
	DD	0f58H
	DD	020H
	DQ	FLAT:?token_rekognizer@GM@@YADPEADPEAUEntry@IT@@@Z$rtcName$41
	DD	0f18H
	DD	020H
	DQ	FLAT:?token_rekognizer@GM@@YADPEADPEAUEntry@IT@@@Z$rtcName$40
	DD	0ed8H
	DD	020H
	DQ	FLAT:?token_rekognizer@GM@@YADPEADPEAUEntry@IT@@@Z$rtcName$39
	DD	0e98H
	DD	020H
	DQ	FLAT:?token_rekognizer@GM@@YADPEADPEAUEntry@IT@@@Z$rtcName$38
	DD	0e58H
	DD	020H
	DQ	FLAT:?token_rekognizer@GM@@YADPEADPEAUEntry@IT@@@Z$rtcName$37
	DD	0e18H
	DD	020H
	DQ	FLAT:?token_rekognizer@GM@@YADPEADPEAUEntry@IT@@@Z$rtcName$36
	DD	0dd8H
	DD	020H
	DQ	FLAT:?token_rekognizer@GM@@YADPEADPEAUEntry@IT@@@Z$rtcName$35
	DD	0d98H
	DD	020H
	DQ	FLAT:?token_rekognizer@GM@@YADPEADPEAUEntry@IT@@@Z$rtcName$34
	DD	0d58H
	DD	020H
	DQ	FLAT:?token_rekognizer@GM@@YADPEADPEAUEntry@IT@@@Z$rtcName$33
	DD	0d18H
	DD	020H
	DQ	FLAT:?token_rekognizer@GM@@YADPEADPEAUEntry@IT@@@Z$rtcName$32
	DD	0cd8H
	DD	020H
	DQ	FLAT:?token_rekognizer@GM@@YADPEADPEAUEntry@IT@@@Z$rtcName$31
	DD	0c98H
	DD	020H
	DQ	FLAT:?token_rekognizer@GM@@YADPEADPEAUEntry@IT@@@Z$rtcName$30
	DD	0c58H
	DD	020H
	DQ	FLAT:?token_rekognizer@GM@@YADPEADPEAUEntry@IT@@@Z$rtcName$29
	DD	0c18H
	DD	020H
	DQ	FLAT:?token_rekognizer@GM@@YADPEADPEAUEntry@IT@@@Z$rtcName$28
	DD	0bd8H
	DD	020H
	DQ	FLAT:?token_rekognizer@GM@@YADPEADPEAUEntry@IT@@@Z$rtcName$27
	DD	0b98H
	DD	020H
	DQ	FLAT:?token_rekognizer@GM@@YADPEADPEAUEntry@IT@@@Z$rtcName$26
	DD	0b58H
	DD	020H
	DQ	FLAT:?token_rekognizer@GM@@YADPEADPEAUEntry@IT@@@Z$rtcName$25
	DD	0b18H
	DD	020H
	DQ	FLAT:?token_rekognizer@GM@@YADPEADPEAUEntry@IT@@@Z$rtcName$24
	DD	0ad8H
	DD	020H
	DQ	FLAT:?token_rekognizer@GM@@YADPEADPEAUEntry@IT@@@Z$rtcName$23
	DD	0a98H
	DD	020H
	DQ	FLAT:?token_rekognizer@GM@@YADPEADPEAUEntry@IT@@@Z$rtcName$22
	DD	0a58H
	DD	020H
	DQ	FLAT:?token_rekognizer@GM@@YADPEADPEAUEntry@IT@@@Z$rtcName$21
	DD	0a18H
	DD	020H
	DQ	FLAT:?token_rekognizer@GM@@YADPEADPEAUEntry@IT@@@Z$rtcName$20
	DD	09d8H
	DD	020H
	DQ	FLAT:?token_rekognizer@GM@@YADPEADPEAUEntry@IT@@@Z$rtcName$19
	DD	0998H
	DD	020H
	DQ	FLAT:?token_rekognizer@GM@@YADPEADPEAUEntry@IT@@@Z$rtcName$18
	DD	0958H
	DD	020H
	DQ	FLAT:?token_rekognizer@GM@@YADPEADPEAUEntry@IT@@@Z$rtcName$17
	DD	0918H
	DD	020H
	DQ	FLAT:?token_rekognizer@GM@@YADPEADPEAUEntry@IT@@@Z$rtcName$16
	DD	08d8H
	DD	020H
	DQ	FLAT:?token_rekognizer@GM@@YADPEADPEAUEntry@IT@@@Z$rtcName$15
	DD	0898H
	DD	020H
	DQ	FLAT:?token_rekognizer@GM@@YADPEADPEAUEntry@IT@@@Z$rtcName$14
	DD	0858H
	DD	020H
	DQ	FLAT:?token_rekognizer@GM@@YADPEADPEAUEntry@IT@@@Z$rtcName$13
	DD	0818H
	DD	020H
	DQ	FLAT:?token_rekognizer@GM@@YADPEADPEAUEntry@IT@@@Z$rtcName$12
	DD	07d8H
	DD	020H
	DQ	FLAT:?token_rekognizer@GM@@YADPEADPEAUEntry@IT@@@Z$rtcName$11
	DD	0798H
	DD	020H
	DQ	FLAT:?token_rekognizer@GM@@YADPEADPEAUEntry@IT@@@Z$rtcName$10
	DD	0758H
	DD	020H
	DQ	FLAT:?token_rekognizer@GM@@YADPEADPEAUEntry@IT@@@Z$rtcName$9
	DD	0718H
	DD	020H
	DQ	FLAT:?token_rekognizer@GM@@YADPEADPEAUEntry@IT@@@Z$rtcName$8
	DD	06d8H
	DD	020H
	DQ	FLAT:?token_rekognizer@GM@@YADPEADPEAUEntry@IT@@@Z$rtcName$7
	DD	0698H
	DD	020H
	DQ	FLAT:?token_rekognizer@GM@@YADPEADPEAUEntry@IT@@@Z$rtcName$6
	DD	0658H
	DD	020H
	DQ	FLAT:?token_rekognizer@GM@@YADPEADPEAUEntry@IT@@@Z$rtcName$5
	DD	0618H
	DD	020H
	DQ	FLAT:?token_rekognizer@GM@@YADPEADPEAUEntry@IT@@@Z$rtcName$4
	DD	05d8H
	DD	020H
	DQ	FLAT:?token_rekognizer@GM@@YADPEADPEAUEntry@IT@@@Z$rtcName$3
	DD	0598H
	DD	020H
	DQ	FLAT:?token_rekognizer@GM@@YADPEADPEAUEntry@IT@@@Z$rtcName$2
	DD	0558H
	DD	020H
	DQ	FLAT:?token_rekognizer@GM@@YADPEADPEAUEntry@IT@@@Z$rtcName$1
	DD	0518H
	DD	020H
	DQ	FLAT:?token_rekognizer@GM@@YADPEADPEAUEntry@IT@@@Z$rtcName$0
	ORG $+2784
?token_rekognizer@GM@@YADPEADPEAUEntry@IT@@@Z$rtcFrameData DD 03aH ; GM::token_rekognizer
	DD	00H
	DQ	FLAT:?token_rekognizer@GM@@YADPEADPEAUEntry@IT@@@Z$rtcVarDesc
CONST	ENDS
;	COMDAT xdata
xdata	SEGMENT
$unwind$??0Data@GM@@QEAA@XZ DD 025052a01H
	DD	010e2313H
	DD	07007001dH
	DD	05006H
xdata	ENDS
;	COMDAT xdata
xdata	SEGMENT
$unwind$??$_Getvals@_W@?$time_get@_WV?$istreambuf_iterator@_WU?$char_traits@_W@std@@@std@@@std@@IEAAX_WAEBV_Locinfo@1@@Z DD 025063501H
	DD	0119231eH
	DD	070120026H
	DD	050106011H
xdata	ENDS
;	COMDAT xdata
xdata	SEGMENT
$unwind$??$_Getvals@_W@?$time_get@DV?$istreambuf_iterator@DU?$char_traits@D@std@@@std@@@std@@IEAAX_WAEBV_Locinfo@1@@Z DD 025063501H
	DD	0119231eH
	DD	070120026H
	DD	050106011H
xdata	ENDS
;	COMDAT xdata
xdata	SEGMENT
$unwind$??$_Maklocstr@D@std@@YAPEADPEBDPEADAEBU_Cvtvec@@@Z DD 035053401H
	DD	0118331dH
	DD	07011002bH
	DD	05010H
xdata	ENDS
;	COMDAT xdata
xdata	SEGMENT
$unwind$?_Maklocwcs@std@@YAPEA_WPEB_W@Z DD 035052a01H
	DD	010e3313H
	DD	070070027H
	DD	05006H
xdata	ENDS
;	COMDAT xdata
xdata	SEGMENT
$unwind$??$_Maklocstr@_W@std@@YAPEA_WPEBDPEA_WAEBU_Cvtvec@@@Z DD 035054519H
	DD	0118331dH
	DD	070110047H
	DD	05010H
	DD	imagerel __GSHandlerCheck
	DD	0228H
xdata	ENDS
;	COMDAT CONST
CONST	SEGMENT
??$_Maklocstr@_W@std@@YAPEA_WPEBDPEA_WAEBU_Cvtvec@@@Z$rtcName$0 DB 05fH ; std::_Maklocstr<wchar_t>
	DB	057H
	DB	063H
	DB	00H
??$_Maklocstr@_W@std@@YAPEA_WPEBDPEA_WAEBU_Cvtvec@@@Z$rtcName$1 DB 05fH ; std::_Maklocstr<wchar_t>
	DB	04dH
	DB	062H
	DB	073H
	DB	074H
	DB	031H
	DB	00H
	ORG $+1
??$_Maklocstr@_W@std@@YAPEA_WPEBDPEA_WAEBU_Cvtvec@@@Z$rtcName$2 DB 05fH ; std::_Maklocstr<wchar_t>
	DB	04dH
	DB	062H
	DB	073H
	DB	074H
	DB	032H
	DB	00H
	ORG $+13
??$_Maklocstr@_W@std@@YAPEA_WPEBDPEA_WAEBU_Cvtvec@@@Z$rtcVarDesc DD 0158H ; std::_Maklocstr<wchar_t>
	DD	08H
	DQ	FLAT:??$_Maklocstr@_W@std@@YAPEA_WPEBDPEA_WAEBU_Cvtvec@@@Z$rtcName$2
	DD	0f8H
	DD	08H
	DQ	FLAT:??$_Maklocstr@_W@std@@YAPEA_WPEBDPEA_WAEBU_Cvtvec@@@Z$rtcName$1
	DD	0d4H
	DD	02H
	DQ	FLAT:??$_Maklocstr@_W@std@@YAPEA_WPEBDPEA_WAEBU_Cvtvec@@@Z$rtcName$0
	ORG $+144
??$_Maklocstr@_W@std@@YAPEA_WPEBDPEA_WAEBU_Cvtvec@@@Z$rtcFrameData DD 03H ; std::_Maklocstr<wchar_t>
	DD	00H
	DQ	FLAT:??$_Maklocstr@_W@std@@YAPEA_WPEBDPEA_WAEBU_Cvtvec@@@Z$rtcVarDesc
CONST	ENDS
;	COMDAT xdata
xdata	SEGMENT
$ip2state$?eof@?$_Narrow_char_traits@DH@std@@SAHXZ DB 02H
	DB	00H
	DB	00H
xdata	ENDS
;	COMDAT xdata
xdata	SEGMENT
$cppxdata$?eof@?$_Narrow_char_traits@DH@std@@SAHXZ DB 060H
	DD	imagerel $ip2state$?eof@?$_Narrow_char_traits@DH@std@@SAHXZ
xdata	ENDS
;	COMDAT xdata
xdata	SEGMENT
$unwind$?eof@?$_Narrow_char_traits@DH@std@@SAHXZ DD 025051e19H
	DD	010a230fH
	DD	07003001dH
	DD	05002H
	DD	imagerel __CxxFrameHandler4
	DD	imagerel $cppxdata$?eof@?$_Narrow_char_traits@DH@std@@SAHXZ
xdata	ENDS
;	COMDAT xdata
xdata	SEGMENT
$ip2state$?eq_int_type@?$_Narrow_char_traits@DH@std@@SA_NAEBH0@Z DB 02H
	DB	00H
	DB	00H
xdata	ENDS
;	COMDAT xdata
xdata	SEGMENT
$cppxdata$?eq_int_type@?$_Narrow_char_traits@DH@std@@SA_NAEBH0@Z DB 060H
	DD	imagerel $ip2state$?eq_int_type@?$_Narrow_char_traits@DH@std@@SA_NAEBH0@Z
xdata	ENDS
;	COMDAT xdata
xdata	SEGMENT
$unwind$?eq_int_type@?$_Narrow_char_traits@DH@std@@SA_NAEBH0@Z DD 025052f19H
	DD	01132318H
	DD	0700c001fH
	DD	0500bH
	DD	imagerel __CxxFrameHandler4
	DD	imagerel $cppxdata$?eq_int_type@?$_Narrow_char_traits@DH@std@@SA_NAEBH0@Z
xdata	ENDS
;	COMDAT xdata
xdata	SEGMENT
$ip2state$?length@?$_Narrow_char_traits@DH@std@@SA_KQEBD@Z DB 02H
	DB	00H
	DB	00H
xdata	ENDS
;	COMDAT xdata
xdata	SEGMENT
$cppxdata$?length@?$_Narrow_char_traits@DH@std@@SA_KQEBD@Z DB 060H
	DD	imagerel $ip2state$?length@?$_Narrow_char_traits@DH@std@@SA_KQEBD@Z
xdata	ENDS
;	COMDAT xdata
xdata	SEGMENT
$unwind$?length@?$_Narrow_char_traits@DH@std@@SA_KQEBD@Z DD 025052a19H
	DD	010e2313H
	DD	07007001dH
	DD	05006H
	DD	imagerel __CxxFrameHandler4
	DD	imagerel $cppxdata$?length@?$_Narrow_char_traits@DH@std@@SA_KQEBD@Z
xdata	ENDS
;	COMDAT xdata
xdata	SEGMENT
$unwind$wmemcpy DD 025053401H
	DD	0118231dH
	DD	07011001dH
	DD	05010H
xdata	ENDS
;	COMDAT xdata
xdata	SEGMENT
$unwind$?__empty_global_delete@@YAXPEAX_K@Z DD 025052f01H
	DD	01132318H
	DD	0700c001dH
	DD	0500bH
xdata	ENDS
;	COMDAT xdata
xdata	SEGMENT
$unwind$?__empty_global_delete@@YAXPEAX@Z DD 025052a01H
	DD	010e2313H
	DD	07007001dH
	DD	05006H
xdata	ENDS
; Function compile flags: /Odt
;	COMDAT __JustMyCode_Default
_TEXT	SEGMENT
__JustMyCode_Default PROC				; COMDAT
  00000	c2 00 00	 ret	 0
__JustMyCode_Default ENDP
_TEXT	ENDS
; Function compile flags: /Odtp /RTCsu /ZI
; File C:\Program Files (x86)\Microsoft Visual Studio\2019\Enterprise\VC\Tools\MSVC\14.27.29110\include\ostream
;	COMDAT ??Bsentry@?$basic_ostream@DU?$char_traits@D@std@@@std@@QEBA_NXZ
_TEXT	SEGMENT
this$ = 224
??Bsentry@?$basic_ostream@DU?$char_traits@D@std@@@std@@QEBA_NXZ PROC ; std::basic_ostream<char,std::char_traits<char> >::sentry::operator bool, COMDAT

; 125  :         explicit __CLR_OR_THIS_CALL operator bool() const {

$LN3:
  00000	48 89 4c 24 08	 mov	 QWORD PTR [rsp+8], rcx
  00005	55		 push	 rbp
  00006	57		 push	 rdi
  00007	48 81 ec e8 00
	00 00		 sub	 rsp, 232		; 000000e8H
  0000e	48 8d 6c 24 20	 lea	 rbp, QWORD PTR [rsp+32]
  00013	48 8b fc	 mov	 rdi, rsp
  00016	b9 3a 00 00 00	 mov	 ecx, 58			; 0000003aH
  0001b	b8 cc cc cc cc	 mov	 eax, -858993460		; ccccccccH
  00020	f3 ab		 rep stosd
  00022	48 8b 8c 24 08
	01 00 00	 mov	 rcx, QWORD PTR [rsp+264]
  0002a	48 8d 0d 00 00
	00 00		 lea	 rcx, OFFSET FLAT:__B4645957_ostream
  00031	e8 00 00 00 00	 call	 __CheckForDebuggerJustMyCode

; 126  :             return _Ok;

  00036	48 8b 85 e0 00
	00 00		 mov	 rax, QWORD PTR this$[rbp]
  0003d	0f b6 40 08	 movzx	 eax, BYTE PTR [rax+8]

; 127  :         }

  00041	48 8d a5 c8 00
	00 00		 lea	 rsp, QWORD PTR [rbp+200]
  00048	5f		 pop	 rdi
  00049	5d		 pop	 rbp
  0004a	c3		 ret	 0
??Bsentry@?$basic_ostream@DU?$char_traits@D@std@@@std@@QEBA_NXZ ENDP ; std::basic_ostream<char,std::char_traits<char> >::sentry::operator bool
_TEXT	ENDS
; Function compile flags: /Odtp /RTCsu /ZI
; File C:\Program Files (x86)\Microsoft Visual Studio\2019\Enterprise\VC\Tools\MSVC\14.27.29110\include\ostream
;	COMDAT ??1sentry@?$basic_ostream@DU?$char_traits@D@std@@@std@@QEAA@XZ
_TEXT	SEGMENT
_Zero_uncaught_exceptions$ = 4
tv72 = 212
this$ = 256
??1sentry@?$basic_ostream@DU?$char_traits@D@std@@@std@@QEAA@XZ PROC ; std::basic_ostream<char,std::char_traits<char> >::sentry::~sentry, COMDAT

; 110  :         __CLR_OR_THIS_CALL ~sentry() noexcept {

$LN6:
  00000	48 89 4c 24 08	 mov	 QWORD PTR [rsp+8], rcx
  00005	55		 push	 rbp
  00006	57		 push	 rdi
  00007	48 81 ec 08 01
	00 00		 sub	 rsp, 264		; 00000108H
  0000e	48 8d 6c 24 20	 lea	 rbp, QWORD PTR [rsp+32]
  00013	48 8b fc	 mov	 rdi, rsp
  00016	b9 42 00 00 00	 mov	 ecx, 66			; 00000042H
  0001b	b8 cc cc cc cc	 mov	 eax, -858993460		; ccccccccH
  00020	f3 ab		 rep stosd
  00022	48 8b 8c 24 28
	01 00 00	 mov	 rcx, QWORD PTR [rsp+296]
  0002a	48 8d 0d 00 00
	00 00		 lea	 rcx, OFFSET FLAT:__B4645957_ostream
  00031	e8 00 00 00 00	 call	 __CheckForDebuggerJustMyCode

; 111  : #if !_HAS_EXCEPTIONS
; 112  :             const bool _Zero_uncaught_exceptions = true;
; 113  : #elif _HAS_DEPRECATED_UNCAUGHT_EXCEPTION
; 114  :             const bool _Zero_uncaught_exceptions = !_STD uncaught_exception(); // TRANSITION, ArchivedOS-12000909

  00036	e8 00 00 00 00	 call	 ?uncaught_exception@std@@YA_NXZ ; std::uncaught_exception
  0003b	0f b6 c0	 movzx	 eax, al
  0003e	85 c0		 test	 eax, eax
  00040	75 09		 jne	 SHORT $LN4@sentry
  00042	c6 85 d4 00 00
	00 01		 mov	 BYTE PTR tv72[rbp], 1
  00049	eb 07		 jmp	 SHORT $LN5@sentry
$LN4@sentry:
  0004b	c6 85 d4 00 00
	00 00		 mov	 BYTE PTR tv72[rbp], 0
$LN5@sentry:
  00052	0f b6 85 d4 00
	00 00		 movzx	 eax, BYTE PTR tv72[rbp]
  00059	88 45 04	 mov	 BYTE PTR _Zero_uncaught_exceptions$[rbp], al

; 115  : #else // ^^^ _HAS_DEPRECATED_UNCAUGHT_EXCEPTION / !_HAS_DEPRECATED_UNCAUGHT_EXCEPTION vvv
; 116  :             const bool _Zero_uncaught_exceptions = _STD uncaught_exceptions() == 0;
; 117  : #endif // !_HAS_DEPRECATED_UNCAUGHT_EXCEPTION
; 118  : 
; 119  :             if (_Zero_uncaught_exceptions) {

  0005c	0f b6 45 04	 movzx	 eax, BYTE PTR _Zero_uncaught_exceptions$[rbp]
  00060	85 c0		 test	 eax, eax
  00062	74 10		 je	 SHORT $LN2@sentry

; 120  :                 this->_Myostr._Osfx();

  00064	48 8b 85 00 01
	00 00		 mov	 rax, QWORD PTR this$[rbp]
  0006b	48 8b 08	 mov	 rcx, QWORD PTR [rax]
  0006e	ff 15 00 00 00
	00		 call	 QWORD PTR __imp_?_Osfx@?$basic_ostream@DU?$char_traits@D@std@@@std@@QEAAXXZ
$LN2@sentry:

; 121  :             }
; 122  :         }

  00074	48 8b 8d 00 01
	00 00		 mov	 rcx, QWORD PTR this$[rbp]
  0007b	e8 00 00 00 00	 call	 ??1_Sentry_base@?$basic_ostream@DU?$char_traits@D@std@@@std@@QEAA@XZ ; std::basic_ostream<char,std::char_traits<char> >::_Sentry_base::~_Sentry_base
  00080	90		 npad	 1
  00081	48 8d a5 e8 00
	00 00		 lea	 rsp, QWORD PTR [rbp+232]
  00088	5f		 pop	 rdi
  00089	5d		 pop	 rbp
  0008a	c3		 ret	 0
??1sentry@?$basic_ostream@DU?$char_traits@D@std@@@std@@QEAA@XZ ENDP ; std::basic_ostream<char,std::char_traits<char> >::sentry::~sentry
_TEXT	ENDS
; Function compile flags: /Odtp /RTCsu /ZI
; File C:\Program Files (x86)\Microsoft Visual Studio\2019\Enterprise\VC\Tools\MSVC\14.27.29110\include\ostream
;	COMDAT ??0sentry@?$basic_ostream@DU?$char_traits@D@std@@@std@@QEAA@AEAV12@@Z
_TEXT	SEGMENT
_Tied$ = 8
this$ = 256
_Ostr$ = 264
??0sentry@?$basic_ostream@DU?$char_traits@D@std@@@std@@QEAA@AEAV12@@Z PROC ; std::basic_ostream<char,std::char_traits<char> >::sentry::sentry, COMDAT

; 92   :         explicit __CLR_OR_THIS_CALL sentry(basic_ostream& _Ostr) : _Sentry_base(_Ostr) {

$LN7:
  00000	48 89 54 24 10	 mov	 QWORD PTR [rsp+16], rdx
  00005	48 89 4c 24 08	 mov	 QWORD PTR [rsp+8], rcx
  0000a	55		 push	 rbp
  0000b	57		 push	 rdi
  0000c	48 81 ec 08 01
	00 00		 sub	 rsp, 264		; 00000108H
  00013	48 8d 6c 24 20	 lea	 rbp, QWORD PTR [rsp+32]
  00018	48 8b fc	 mov	 rdi, rsp
  0001b	b9 42 00 00 00	 mov	 ecx, 66			; 00000042H
  00020	b8 cc cc cc cc	 mov	 eax, -858993460		; ccccccccH
  00025	f3 ab		 rep stosd
  00027	48 8b 8c 24 28
	01 00 00	 mov	 rcx, QWORD PTR [rsp+296]
  0002f	48 8d 0d 00 00
	00 00		 lea	 rcx, OFFSET FLAT:__B4645957_ostream
  00036	e8 00 00 00 00	 call	 __CheckForDebuggerJustMyCode
  0003b	48 8b 95 08 01
	00 00		 mov	 rdx, QWORD PTR _Ostr$[rbp]
  00042	48 8b 8d 00 01
	00 00		 mov	 rcx, QWORD PTR this$[rbp]
  00049	e8 00 00 00 00	 call	 ??0_Sentry_base@?$basic_ostream@DU?$char_traits@D@std@@@std@@QEAA@AEAV12@@Z ; std::basic_ostream<char,std::char_traits<char> >::_Sentry_base::_Sentry_base
  0004e	90		 npad	 1

; 93   :             if (!_Ostr.good()) {

  0004f	48 8b 85 08 01
	00 00		 mov	 rax, QWORD PTR _Ostr$[rbp]
  00056	48 8b 00	 mov	 rax, QWORD PTR [rax]
  00059	48 63 40 04	 movsxd	 rax, DWORD PTR [rax+4]
  0005d	48 8b 8d 08 01
	00 00		 mov	 rcx, QWORD PTR _Ostr$[rbp]
  00064	48 03 c8	 add	 rcx, rax
  00067	48 8b c1	 mov	 rax, rcx
  0006a	48 8b c8	 mov	 rcx, rax
  0006d	ff 15 00 00 00
	00		 call	 QWORD PTR __imp_?good@ios_base@std@@QEBA_NXZ
  00073	0f b6 c0	 movzx	 eax, al
  00076	85 c0		 test	 eax, eax
  00078	75 10		 jne	 SHORT $LN2@sentry

; 94   :                 _Ok = false;

  0007a	48 8b 85 00 01
	00 00		 mov	 rax, QWORD PTR this$[rbp]
  00081	c6 40 08 00	 mov	 BYTE PTR [rax+8], 0

; 95   :                 return;

  00085	e9 81 00 00 00	 jmp	 $LN1@sentry
$LN2@sentry:

; 96   :             }
; 97   : 
; 98   :             const auto _Tied = _Ostr.tie();

  0008a	48 8b 85 08 01
	00 00		 mov	 rax, QWORD PTR _Ostr$[rbp]
  00091	48 8b 00	 mov	 rax, QWORD PTR [rax]
  00094	48 63 40 04	 movsxd	 rax, DWORD PTR [rax+4]
  00098	48 8b 8d 08 01
	00 00		 mov	 rcx, QWORD PTR _Ostr$[rbp]
  0009f	48 03 c8	 add	 rcx, rax
  000a2	48 8b c1	 mov	 rax, rcx
  000a5	48 8b c8	 mov	 rcx, rax
  000a8	ff 15 00 00 00
	00		 call	 QWORD PTR __imp_?tie@?$basic_ios@DU?$char_traits@D@std@@@std@@QEBAPEAV?$basic_ostream@DU?$char_traits@D@std@@@2@XZ
  000ae	48 89 45 08	 mov	 QWORD PTR _Tied$[rbp], rax

; 99   :             if (!_Tied || _Tied == &_Ostr) {

  000b2	48 83 7d 08 00	 cmp	 QWORD PTR _Tied$[rbp], 0
  000b7	74 0d		 je	 SHORT $LN4@sentry
  000b9	48 8b 85 08 01
	00 00		 mov	 rax, QWORD PTR _Ostr$[rbp]
  000c0	48 39 45 08	 cmp	 QWORD PTR _Tied$[rbp], rax
  000c4	75 0d		 jne	 SHORT $LN3@sentry
$LN4@sentry:

; 100  :                 _Ok = true;

  000c6	48 8b 85 00 01
	00 00		 mov	 rax, QWORD PTR this$[rbp]
  000cd	c6 40 08 01	 mov	 BYTE PTR [rax+8], 1

; 101  :                 return;

  000d1	eb 38		 jmp	 SHORT $LN1@sentry
$LN3@sentry:

; 102  :             }
; 103  : 
; 104  : 
; 105  :             _Tied->flush();

  000d3	48 8b 4d 08	 mov	 rcx, QWORD PTR _Tied$[rbp]
  000d7	ff 15 00 00 00
	00		 call	 QWORD PTR __imp_?flush@?$basic_ostream@DU?$char_traits@D@std@@@std@@QEAAAEAV12@XZ

; 106  :             _Ok = _Ostr.good(); // store test only after flushing tie

  000dd	48 8b 85 08 01
	00 00		 mov	 rax, QWORD PTR _Ostr$[rbp]
  000e4	48 8b 00	 mov	 rax, QWORD PTR [rax]
  000e7	48 63 40 04	 movsxd	 rax, DWORD PTR [rax+4]
  000eb	48 8b 8d 08 01
	00 00		 mov	 rcx, QWORD PTR _Ostr$[rbp]
  000f2	48 03 c8	 add	 rcx, rax
  000f5	48 8b c1	 mov	 rax, rcx
  000f8	48 8b c8	 mov	 rcx, rax
  000fb	ff 15 00 00 00
	00		 call	 QWORD PTR __imp_?good@ios_base@std@@QEBA_NXZ
  00101	48 8b 8d 00 01
	00 00		 mov	 rcx, QWORD PTR this$[rbp]
  00108	88 41 08	 mov	 BYTE PTR [rcx+8], al
$LN1@sentry:

; 107  :         }

  0010b	48 8b 85 00 01
	00 00		 mov	 rax, QWORD PTR this$[rbp]
  00112	48 8d a5 e8 00
	00 00		 lea	 rsp, QWORD PTR [rbp+232]
  00119	5f		 pop	 rdi
  0011a	5d		 pop	 rbp
  0011b	c3		 ret	 0
??0sentry@?$basic_ostream@DU?$char_traits@D@std@@@std@@QEAA@AEAV12@@Z ENDP ; std::basic_ostream<char,std::char_traits<char> >::sentry::sentry
_TEXT	ENDS
;	COMDAT text$x
text$x	SEGMENT
_Tied$ = 8
this$ = 256
_Ostr$ = 264
?dtor$0@?0???0sentry@?$basic_ostream@DU?$char_traits@D@std@@@std@@QEAA@AEAV12@@Z@4HA PROC ; `std::basic_ostream<char,std::char_traits<char> >::sentry::sentry'::`1'::dtor$0
  00000	48 89 4c 24 08	 mov	 QWORD PTR [rsp+8], rcx
  00005	48 89 54 24 10	 mov	 QWORD PTR [rsp+16], rdx
  0000a	55		 push	 rbp
  0000b	57		 push	 rdi
  0000c	48 83 ec 28	 sub	 rsp, 40			; 00000028H
  00010	48 8d 6a 20	 lea	 rbp, QWORD PTR [rdx+32]
  00014	48 8b 8d 00 01
	00 00		 mov	 rcx, QWORD PTR this$[rbp]
  0001b	e8 00 00 00 00	 call	 ??1_Sentry_base@?$basic_ostream@DU?$char_traits@D@std@@@std@@QEAA@XZ ; std::basic_ostream<char,std::char_traits<char> >::_Sentry_base::~_Sentry_base
  00020	48 83 c4 28	 add	 rsp, 40			; 00000028H
  00024	5f		 pop	 rdi
  00025	5d		 pop	 rbp
  00026	c3		 ret	 0
?dtor$0@?0???0sentry@?$basic_ostream@DU?$char_traits@D@std@@@std@@QEAA@AEAV12@@Z@4HA ENDP ; `std::basic_ostream<char,std::char_traits<char> >::sentry::sentry'::`1'::dtor$0
text$x	ENDS
; Function compile flags: /Odtp /RTCsu /ZI
;	COMDAT text$x
text$x	SEGMENT
_Tied$ = 8
this$ = 256
_Ostr$ = 264
?dtor$0@?0???0sentry@?$basic_ostream@DU?$char_traits@D@std@@@std@@QEAA@AEAV12@@Z@4HA PROC ; `std::basic_ostream<char,std::char_traits<char> >::sentry::sentry'::`1'::dtor$0
  00000	48 89 4c 24 08	 mov	 QWORD PTR [rsp+8], rcx
  00005	48 89 54 24 10	 mov	 QWORD PTR [rsp+16], rdx
  0000a	55		 push	 rbp
  0000b	57		 push	 rdi
  0000c	48 83 ec 28	 sub	 rsp, 40			; 00000028H
  00010	48 8d 6a 20	 lea	 rbp, QWORD PTR [rdx+32]
  00014	48 8b 8d 00 01
	00 00		 mov	 rcx, QWORD PTR this$[rbp]
  0001b	e8 00 00 00 00	 call	 ??1_Sentry_base@?$basic_ostream@DU?$char_traits@D@std@@@std@@QEAA@XZ ; std::basic_ostream<char,std::char_traits<char> >::_Sentry_base::~_Sentry_base
  00020	48 83 c4 28	 add	 rsp, 40			; 00000028H
  00024	5f		 pop	 rdi
  00025	5d		 pop	 rbp
  00026	c3		 ret	 0
?dtor$0@?0???0sentry@?$basic_ostream@DU?$char_traits@D@std@@@std@@QEAA@AEAV12@@Z@4HA ENDP ; `std::basic_ostream<char,std::char_traits<char> >::sentry::sentry'::`1'::dtor$0
text$x	ENDS
; Function compile flags: /Odtp /RTCsu /ZI
; File C:\Program Files (x86)\Microsoft Visual Studio\2019\Enterprise\VC\Tools\MSVC\14.27.29110\include\ostream
;	COMDAT ??1_Sentry_base@?$basic_ostream@DU?$char_traits@D@std@@@std@@QEAA@XZ
_TEXT	SEGMENT
_Rdbuf$ = 8
tv72 = 216
this$ = 256
??1_Sentry_base@?$basic_ostream@DU?$char_traits@D@std@@@std@@QEAA@XZ PROC ; std::basic_ostream<char,std::char_traits<char> >::_Sentry_base::~_Sentry_base, COMDAT

; 78   :         __CLR_OR_THIS_CALL ~_Sentry_base() noexcept { // destroy after unlocking

$LN4:
  00000	48 89 4c 24 08	 mov	 QWORD PTR [rsp+8], rcx
  00005	55		 push	 rbp
  00006	57		 push	 rdi
  00007	48 81 ec 08 01
	00 00		 sub	 rsp, 264		; 00000108H
  0000e	48 8d 6c 24 20	 lea	 rbp, QWORD PTR [rsp+32]
  00013	48 8b fc	 mov	 rdi, rsp
  00016	b9 42 00 00 00	 mov	 ecx, 66			; 00000042H
  0001b	b8 cc cc cc cc	 mov	 eax, -858993460		; ccccccccH
  00020	f3 ab		 rep stosd
  00022	48 8b 8c 24 28
	01 00 00	 mov	 rcx, QWORD PTR [rsp+296]
  0002a	48 8d 0d 00 00
	00 00		 lea	 rcx, OFFSET FLAT:__B4645957_ostream
  00031	e8 00 00 00 00	 call	 __CheckForDebuggerJustMyCode

; 79   :             const auto _Rdbuf = _Myostr.rdbuf();

  00036	48 8b 85 00 01
	00 00		 mov	 rax, QWORD PTR this$[rbp]
  0003d	48 8b 00	 mov	 rax, QWORD PTR [rax]
  00040	48 89 85 d8 00
	00 00		 mov	 QWORD PTR tv72[rbp], rax
  00047	48 8b 85 d8 00
	00 00		 mov	 rax, QWORD PTR tv72[rbp]
  0004e	48 8b 00	 mov	 rax, QWORD PTR [rax]
  00051	48 63 40 04	 movsxd	 rax, DWORD PTR [rax+4]
  00055	48 8b 8d d8 00
	00 00		 mov	 rcx, QWORD PTR tv72[rbp]
  0005c	48 03 c8	 add	 rcx, rax
  0005f	48 8b c1	 mov	 rax, rcx
  00062	48 8b c8	 mov	 rcx, rax
  00065	ff 15 00 00 00
	00		 call	 QWORD PTR __imp_?rdbuf@?$basic_ios@DU?$char_traits@D@std@@@std@@QEBAPEAV?$basic_streambuf@DU?$char_traits@D@std@@@2@XZ
  0006b	48 89 45 08	 mov	 QWORD PTR _Rdbuf$[rbp], rax

; 80   :             if (_Rdbuf) {

  0006f	48 83 7d 08 00	 cmp	 QWORD PTR _Rdbuf$[rbp], 0
  00074	74 0f		 je	 SHORT $LN2@Sentry_bas

; 81   :                 _Rdbuf->_Unlock();

  00076	48 8b 45 08	 mov	 rax, QWORD PTR _Rdbuf$[rbp]
  0007a	48 8b 00	 mov	 rax, QWORD PTR [rax]
  0007d	48 8b 4d 08	 mov	 rcx, QWORD PTR _Rdbuf$[rbp]
  00081	ff 50 10	 call	 QWORD PTR [rax+16]
  00084	90		 npad	 1
$LN2@Sentry_bas:

; 82   :             }
; 83   :         }

  00085	48 8d a5 e8 00
	00 00		 lea	 rsp, QWORD PTR [rbp+232]
  0008c	5f		 pop	 rdi
  0008d	5d		 pop	 rbp
  0008e	c3		 ret	 0
??1_Sentry_base@?$basic_ostream@DU?$char_traits@D@std@@@std@@QEAA@XZ ENDP ; std::basic_ostream<char,std::char_traits<char> >::_Sentry_base::~_Sentry_base
_TEXT	ENDS
; Function compile flags: /Odtp /RTCsu /ZI
; File C:\Program Files (x86)\Microsoft Visual Studio\2019\Enterprise\VC\Tools\MSVC\14.27.29110\include\ostream
;	COMDAT ??0_Sentry_base@?$basic_ostream@DU?$char_traits@D@std@@@std@@QEAA@AEAV12@@Z
_TEXT	SEGMENT
_Rdbuf$ = 8
tv73 = 216
this$ = 256
_Ostr$ = 264
??0_Sentry_base@?$basic_ostream@DU?$char_traits@D@std@@@std@@QEAA@AEAV12@@Z PROC ; std::basic_ostream<char,std::char_traits<char> >::_Sentry_base::_Sentry_base, COMDAT

; 71   :         __CLR_OR_THIS_CALL _Sentry_base(basic_ostream& _Ostr) : _Myostr(_Ostr) { // lock the stream buffer, if there

$LN4:
  00000	48 89 54 24 10	 mov	 QWORD PTR [rsp+16], rdx
  00005	48 89 4c 24 08	 mov	 QWORD PTR [rsp+8], rcx
  0000a	55		 push	 rbp
  0000b	57		 push	 rdi
  0000c	48 81 ec 08 01
	00 00		 sub	 rsp, 264		; 00000108H
  00013	48 8d 6c 24 20	 lea	 rbp, QWORD PTR [rsp+32]
  00018	48 8b fc	 mov	 rdi, rsp
  0001b	b9 42 00 00 00	 mov	 ecx, 66			; 00000042H
  00020	b8 cc cc cc cc	 mov	 eax, -858993460		; ccccccccH
  00025	f3 ab		 rep stosd
  00027	48 8b 8c 24 28
	01 00 00	 mov	 rcx, QWORD PTR [rsp+296]
  0002f	48 8d 0d 00 00
	00 00		 lea	 rcx, OFFSET FLAT:__B4645957_ostream
  00036	e8 00 00 00 00	 call	 __CheckForDebuggerJustMyCode
  0003b	48 8b 85 00 01
	00 00		 mov	 rax, QWORD PTR this$[rbp]
  00042	48 8b 8d 08 01
	00 00		 mov	 rcx, QWORD PTR _Ostr$[rbp]
  00049	48 89 08	 mov	 QWORD PTR [rax], rcx

; 72   :             const auto _Rdbuf = _Myostr.rdbuf();

  0004c	48 8b 85 00 01
	00 00		 mov	 rax, QWORD PTR this$[rbp]
  00053	48 8b 00	 mov	 rax, QWORD PTR [rax]
  00056	48 89 85 d8 00
	00 00		 mov	 QWORD PTR tv73[rbp], rax
  0005d	48 8b 85 d8 00
	00 00		 mov	 rax, QWORD PTR tv73[rbp]
  00064	48 8b 00	 mov	 rax, QWORD PTR [rax]
  00067	48 63 40 04	 movsxd	 rax, DWORD PTR [rax+4]
  0006b	48 8b 8d d8 00
	00 00		 mov	 rcx, QWORD PTR tv73[rbp]
  00072	48 03 c8	 add	 rcx, rax
  00075	48 8b c1	 mov	 rax, rcx
  00078	48 8b c8	 mov	 rcx, rax
  0007b	ff 15 00 00 00
	00		 call	 QWORD PTR __imp_?rdbuf@?$basic_ios@DU?$char_traits@D@std@@@std@@QEBAPEAV?$basic_streambuf@DU?$char_traits@D@std@@@2@XZ
  00081	48 89 45 08	 mov	 QWORD PTR _Rdbuf$[rbp], rax

; 73   :             if (_Rdbuf) {

  00085	48 83 7d 08 00	 cmp	 QWORD PTR _Rdbuf$[rbp], 0
  0008a	74 0e		 je	 SHORT $LN2@Sentry_bas

; 74   :                 _Rdbuf->_Lock();

  0008c	48 8b 45 08	 mov	 rax, QWORD PTR _Rdbuf$[rbp]
  00090	48 8b 00	 mov	 rax, QWORD PTR [rax]
  00093	48 8b 4d 08	 mov	 rcx, QWORD PTR _Rdbuf$[rbp]
  00097	ff 50 08	 call	 QWORD PTR [rax+8]
$LN2@Sentry_bas:

; 75   :             }
; 76   :         }

  0009a	48 8b 85 00 01
	00 00		 mov	 rax, QWORD PTR this$[rbp]
  000a1	48 8d a5 e8 00
	00 00		 lea	 rsp, QWORD PTR [rbp+232]
  000a8	5f		 pop	 rdi
  000a9	5d		 pop	 rbp
  000aa	c3		 ret	 0
??0_Sentry_base@?$basic_ostream@DU?$char_traits@D@std@@@std@@QEAA@AEAV12@@Z ENDP ; std::basic_ostream<char,std::char_traits<char> >::_Sentry_base::_Sentry_base
_TEXT	ENDS
; Function compile flags: /Odtp /RTCsu /ZI
; File C:\Program Files (x86)\Windows Kits\10\Include\10.0.18362.0\ucrt\string.h
;	COMDAT ??$strncpy_s@$0CB@@@YAHAEAY0CB@DPEBD_K@Z
_TEXT	SEGMENT
_Destination$ = 224
_Source$ = 232
_Count$ = 240
??$strncpy_s@$0CB@@@YAHAEAY0CB@DPEBD_K@Z PROC		; strncpy_s<33>, COMDAT

; 331  : __DEFINE_CPP_OVERLOAD_SECURE_FUNC_0_2(

$LN4:
  00000	4c 89 44 24 18	 mov	 QWORD PTR [rsp+24], r8
  00005	48 89 54 24 10	 mov	 QWORD PTR [rsp+16], rdx
  0000a	48 89 4c 24 08	 mov	 QWORD PTR [rsp+8], rcx
  0000f	55		 push	 rbp
  00010	57		 push	 rdi
  00011	48 81 ec e8 00
	00 00		 sub	 rsp, 232		; 000000e8H
  00018	48 8d 6c 24 20	 lea	 rbp, QWORD PTR [rsp+32]
  0001d	48 8b fc	 mov	 rdi, rsp
  00020	b9 3a 00 00 00	 mov	 ecx, 58			; 0000003aH
  00025	b8 cc cc cc cc	 mov	 eax, -858993460		; ccccccccH
  0002a	f3 ab		 rep stosd
  0002c	48 8b 8c 24 08
	01 00 00	 mov	 rcx, QWORD PTR [rsp+264]
  00034	48 8d 0d 00 00
	00 00		 lea	 rcx, OFFSET FLAT:__A29A7DFB_string@h
  0003b	e8 00 00 00 00	 call	 __CheckForDebuggerJustMyCode
  00040	4c 8b 8d f0 00
	00 00		 mov	 r9, QWORD PTR _Count$[rbp]
  00047	4c 8b 85 e8 00
	00 00		 mov	 r8, QWORD PTR _Source$[rbp]
  0004e	ba 21 00 00 00	 mov	 edx, 33			; 00000021H
  00053	48 8b 8d e0 00
	00 00		 mov	 rcx, QWORD PTR _Destination$[rbp]
  0005a	ff 15 00 00 00
	00		 call	 QWORD PTR __imp_strncpy_s
  00060	48 8d a5 c8 00
	00 00		 lea	 rsp, QWORD PTR [rbp+200]
  00067	5f		 pop	 rdi
  00068	5d		 pop	 rbp
  00069	c3		 ret	 0
??$strncpy_s@$0CB@@@YAHAEAY0CB@DPEBD_K@Z ENDP		; strncpy_s<33>
_TEXT	ENDS
; Function compile flags: /Odtp /RTCsu /ZI
; File C:\Program Files (x86)\Windows Kits\10\Include\10.0.18362.0\ucrt\string.h
;	COMDAT ??$strncpy_s@$0L@@@YAHAEAY0L@DPEBD_K@Z
_TEXT	SEGMENT
_Destination$ = 224
_Source$ = 232
_Count$ = 240
??$strncpy_s@$0L@@@YAHAEAY0L@DPEBD_K@Z PROC		; strncpy_s<11>, COMDAT

; 331  : __DEFINE_CPP_OVERLOAD_SECURE_FUNC_0_2(

$LN4:
  00000	4c 89 44 24 18	 mov	 QWORD PTR [rsp+24], r8
  00005	48 89 54 24 10	 mov	 QWORD PTR [rsp+16], rdx
  0000a	48 89 4c 24 08	 mov	 QWORD PTR [rsp+8], rcx
  0000f	55		 push	 rbp
  00010	57		 push	 rdi
  00011	48 81 ec e8 00
	00 00		 sub	 rsp, 232		; 000000e8H
  00018	48 8d 6c 24 20	 lea	 rbp, QWORD PTR [rsp+32]
  0001d	48 8b fc	 mov	 rdi, rsp
  00020	b9 3a 00 00 00	 mov	 ecx, 58			; 0000003aH
  00025	b8 cc cc cc cc	 mov	 eax, -858993460		; ccccccccH
  0002a	f3 ab		 rep stosd
  0002c	48 8b 8c 24 08
	01 00 00	 mov	 rcx, QWORD PTR [rsp+264]
  00034	48 8d 0d 00 00
	00 00		 lea	 rcx, OFFSET FLAT:__A29A7DFB_string@h
  0003b	e8 00 00 00 00	 call	 __CheckForDebuggerJustMyCode
  00040	4c 8b 8d f0 00
	00 00		 mov	 r9, QWORD PTR _Count$[rbp]
  00047	4c 8b 85 e8 00
	00 00		 mov	 r8, QWORD PTR _Source$[rbp]
  0004e	ba 0b 00 00 00	 mov	 edx, 11
  00053	48 8b 8d e0 00
	00 00		 mov	 rcx, QWORD PTR _Destination$[rbp]
  0005a	ff 15 00 00 00
	00		 call	 QWORD PTR __imp_strncpy_s
  00060	48 8d a5 c8 00
	00 00		 lea	 rsp, QWORD PTR [rbp+200]
  00067	5f		 pop	 rdi
  00068	5d		 pop	 rbp
  00069	c3		 ret	 0
??$strncpy_s@$0L@@@YAHAEAY0L@DPEBD_K@Z ENDP		; strncpy_s<11>
_TEXT	ENDS
; Function compile flags: /Odtp /RTCsu /ZI
; File C:\Program Files (x86)\Microsoft Visual Studio\2019\Enterprise\VC\Tools\MSVC\14.27.29110\include\ostream
;	COMDAT ??$?6U?$char_traits@D@std@@@std@@YAAEAV?$basic_ostream@DU?$char_traits@D@std@@@0@AEAV10@PEBD@Z
_TEXT	SEGMENT
_State$ = 4
_Count$ = 40
_Pad$ = 72
_Ok$ = 104
$T4 = 340
$T5 = 372
$T6 = 404
$T7 = 436
$T8 = 472
tv300 = 484
tv295 = 484
tv139 = 484
tv301 = 488
tv298 = 488
tv296 = 488
tv137 = 488
tv302 = 496
tv299 = 496
tv297 = 496
__$ArrayPad$ = 504
_Ostr$ = 544
_Val$ = 552
??$?6U?$char_traits@D@std@@@std@@YAAEAV?$basic_ostream@DU?$char_traits@D@std@@@0@AEAV10@PEBD@Z PROC ; std::operator<<<std::char_traits<char> >, COMDAT

; 735  :     const char* _Val) { // insert NTBS into char stream

$LN25:
  00000	48 89 54 24 10	 mov	 QWORD PTR [rsp+16], rdx
  00005	48 89 4c 24 08	 mov	 QWORD PTR [rsp+8], rcx
  0000a	55		 push	 rbp
  0000b	57		 push	 rdi
  0000c	48 81 ec 28 02
	00 00		 sub	 rsp, 552		; 00000228H
  00013	48 8d 6c 24 20	 lea	 rbp, QWORD PTR [rsp+32]
  00018	48 8b fc	 mov	 rdi, rsp
  0001b	b9 8a 00 00 00	 mov	 ecx, 138		; 0000008aH
  00020	b8 cc cc cc cc	 mov	 eax, -858993460		; ccccccccH
  00025	f3 ab		 rep stosd
  00027	48 8b 8c 24 48
	02 00 00	 mov	 rcx, QWORD PTR [rsp+584]
  0002f	48 8b 05 00 00
	00 00		 mov	 rax, QWORD PTR __security_cookie
  00036	48 33 c5	 xor	 rax, rbp
  00039	48 89 85 f8 01
	00 00		 mov	 QWORD PTR __$ArrayPad$[rbp], rax
  00040	48 8d 0d 00 00
	00 00		 lea	 rcx, OFFSET FLAT:__B4645957_ostream
  00047	e8 00 00 00 00	 call	 __CheckForDebuggerJustMyCode

; 736  :     using _Elem = char;
; 737  :     using _Myos = basic_ostream<_Elem, _Traits>;
; 738  : 
; 739  :     ios_base::iostate _State = ios_base::goodbit;

  0004c	c7 45 04 00 00
	00 00		 mov	 DWORD PTR _State$[rbp], 0

; 740  :     streamsize _Count        = static_cast<streamsize>(_Traits::length(_Val));

  00053	48 8b 8d 28 02
	00 00		 mov	 rcx, QWORD PTR _Val$[rbp]
  0005a	e8 00 00 00 00	 call	 ?length@?$_Narrow_char_traits@DH@std@@SA_KQEBD@Z ; std::_Narrow_char_traits<char,int>::length
  0005f	48 89 45 28	 mov	 QWORD PTR _Count$[rbp], rax

; 741  :     streamsize _Pad          = _Ostr.width() <= 0 || _Ostr.width() <= _Count ? 0 : _Ostr.width() - _Count;

  00063	48 8b 85 20 02
	00 00		 mov	 rax, QWORD PTR _Ostr$[rbp]
  0006a	48 8b 00	 mov	 rax, QWORD PTR [rax]
  0006d	48 63 40 04	 movsxd	 rax, DWORD PTR [rax+4]
  00071	48 8b 8d 20 02
	00 00		 mov	 rcx, QWORD PTR _Ostr$[rbp]
  00078	48 03 c8	 add	 rcx, rax
  0007b	48 8b c1	 mov	 rax, rcx
  0007e	48 8b c8	 mov	 rcx, rax
  00081	ff 15 00 00 00
	00		 call	 QWORD PTR __imp_?width@ios_base@std@@QEBA_JXZ
  00087	48 85 c0	 test	 rax, rax
  0008a	7e 5b		 jle	 SHORT $LN17@operator
  0008c	48 8b 85 20 02
	00 00		 mov	 rax, QWORD PTR _Ostr$[rbp]
  00093	48 8b 00	 mov	 rax, QWORD PTR [rax]
  00096	48 63 40 04	 movsxd	 rax, DWORD PTR [rax+4]
  0009a	48 8b 8d 20 02
	00 00		 mov	 rcx, QWORD PTR _Ostr$[rbp]
  000a1	48 03 c8	 add	 rcx, rax
  000a4	48 8b c1	 mov	 rax, rcx
  000a7	48 8b c8	 mov	 rcx, rax
  000aa	ff 15 00 00 00
	00		 call	 QWORD PTR __imp_?width@ios_base@std@@QEBA_JXZ
  000b0	48 3b 45 28	 cmp	 rax, QWORD PTR _Count$[rbp]
  000b4	7e 31		 jle	 SHORT $LN17@operator
  000b6	48 8b 85 20 02
	00 00		 mov	 rax, QWORD PTR _Ostr$[rbp]
  000bd	48 8b 00	 mov	 rax, QWORD PTR [rax]
  000c0	48 63 40 04	 movsxd	 rax, DWORD PTR [rax+4]
  000c4	48 8b 8d 20 02
	00 00		 mov	 rcx, QWORD PTR _Ostr$[rbp]
  000cb	48 03 c8	 add	 rcx, rax
  000ce	48 8b c1	 mov	 rax, rcx
  000d1	48 8b c8	 mov	 rcx, rax
  000d4	ff 15 00 00 00
	00		 call	 QWORD PTR __imp_?width@ios_base@std@@QEBA_JXZ
  000da	48 2b 45 28	 sub	 rax, QWORD PTR _Count$[rbp]
  000de	48 89 85 e8 01
	00 00		 mov	 QWORD PTR tv137[rbp], rax
  000e5	eb 0b		 jmp	 SHORT $LN18@operator
$LN17@operator:
  000e7	48 c7 85 e8 01
	00 00 00 00 00
	00		 mov	 QWORD PTR tv137[rbp], 0
$LN18@operator:
  000f2	48 8b 85 e8 01
	00 00		 mov	 rax, QWORD PTR tv137[rbp]
  000f9	48 89 45 48	 mov	 QWORD PTR _Pad$[rbp], rax

; 742  :     const typename _Myos::sentry _Ok(_Ostr);

  000fd	48 8b 95 20 02
	00 00		 mov	 rdx, QWORD PTR _Ostr$[rbp]
  00104	48 8d 4d 68	 lea	 rcx, QWORD PTR _Ok$[rbp]
  00108	e8 00 00 00 00	 call	 ??0sentry@?$basic_ostream@DU?$char_traits@D@std@@@std@@QEAA@AEAV12@@Z ; std::basic_ostream<char,std::char_traits<char> >::sentry::sentry
  0010d	90		 npad	 1

; 743  : 
; 744  :     if (!_Ok) {

  0010e	48 8d 4d 68	 lea	 rcx, QWORD PTR _Ok$[rbp]
  00112	e8 00 00 00 00	 call	 ??Bsentry@?$basic_ostream@DU?$char_traits@D@std@@@std@@QEBA_NXZ ; std::basic_ostream<char,std::char_traits<char> >::sentry::operator bool
  00117	0f b6 c0	 movzx	 eax, al
  0011a	85 c0		 test	 eax, eax
  0011c	75 0e		 jne	 SHORT $LN8@operator

; 745  :         _State |= ios_base::badbit;

  0011e	8b 45 04	 mov	 eax, DWORD PTR _State$[rbp]
  00121	83 c8 04	 or	 eax, 4
  00124	89 45 04	 mov	 DWORD PTR _State$[rbp], eax

; 746  :     } else { // state okay, insert

  00127	e9 67 02 00 00	 jmp	 $LN9@operator
$LN8@operator:

; 747  :         _TRY_IO_BEGIN
; 748  :         if ((_Ostr.flags() & ios_base::adjustfield) != ios_base::left) {

  0012c	48 8b 85 20 02
	00 00		 mov	 rax, QWORD PTR _Ostr$[rbp]
  00133	48 8b 00	 mov	 rax, QWORD PTR [rax]
  00136	48 63 40 04	 movsxd	 rax, DWORD PTR [rax+4]
  0013a	48 8b 8d 20 02
	00 00		 mov	 rcx, QWORD PTR _Ostr$[rbp]
  00141	48 03 c8	 add	 rcx, rax
  00144	48 8b c1	 mov	 rax, rcx
  00147	48 8b c8	 mov	 rcx, rax
  0014a	ff 15 00 00 00
	00		 call	 QWORD PTR __imp_?flags@ios_base@std@@QEBAHXZ
  00150	89 85 e4 01 00
	00		 mov	 DWORD PTR tv139[rbp], eax
  00156	8b 85 e4 01 00
	00		 mov	 eax, DWORD PTR tv139[rbp]
  0015c	25 c0 01 00 00	 and	 eax, 448		; 000001c0H
  00161	83 f8 40	 cmp	 eax, 64			; 00000040H
  00164	0f 84 c8 00 00
	00		 je	 $LN11@operator

; 749  :             for (; 0 < _Pad; --_Pad) { // pad on left

  0016a	eb 0b		 jmp	 SHORT $LN4@operator
$LN2@operator:
  0016c	48 8b 45 48	 mov	 rax, QWORD PTR _Pad$[rbp]
  00170	48 ff c8	 dec	 rax
  00173	48 89 45 48	 mov	 QWORD PTR _Pad$[rbp], rax
$LN4@operator:
  00177	48 83 7d 48 00	 cmp	 QWORD PTR _Pad$[rbp], 0
  0017c	0f 8e b0 00 00
	00		 jle	 $LN11@operator

; 750  :                 if (_Traits::eq_int_type(_Traits::eof(), _Ostr.rdbuf()->sputc(_Ostr.fill()))) {

  00182	48 8b 85 20 02
	00 00		 mov	 rax, QWORD PTR _Ostr$[rbp]
  00189	48 8b 00	 mov	 rax, QWORD PTR [rax]
  0018c	48 63 40 04	 movsxd	 rax, DWORD PTR [rax+4]
  00190	48 8b 8d 20 02
	00 00		 mov	 rcx, QWORD PTR _Ostr$[rbp]
  00197	48 03 c8	 add	 rcx, rax
  0019a	48 8b c1	 mov	 rax, rcx
  0019d	48 8b c8	 mov	 rcx, rax
  001a0	ff 15 00 00 00
	00		 call	 QWORD PTR __imp_?fill@?$basic_ios@DU?$char_traits@D@std@@@std@@QEBADXZ
  001a6	88 85 e4 01 00
	00		 mov	 BYTE PTR tv295[rbp], al
  001ac	48 8b 85 20 02
	00 00		 mov	 rax, QWORD PTR _Ostr$[rbp]
  001b3	48 8b 00	 mov	 rax, QWORD PTR [rax]
  001b6	48 63 40 04	 movsxd	 rax, DWORD PTR [rax+4]
  001ba	48 8b 8d 20 02
	00 00		 mov	 rcx, QWORD PTR _Ostr$[rbp]
  001c1	48 03 c8	 add	 rcx, rax
  001c4	48 8b c1	 mov	 rax, rcx
  001c7	48 8b c8	 mov	 rcx, rax
  001ca	ff 15 00 00 00
	00		 call	 QWORD PTR __imp_?rdbuf@?$basic_ios@DU?$char_traits@D@std@@@std@@QEBAPEAV?$basic_streambuf@DU?$char_traits@D@std@@@2@XZ
  001d0	48 89 85 e8 01
	00 00		 mov	 QWORD PTR tv296[rbp], rax
  001d7	0f b6 95 e4 01
	00 00		 movzx	 edx, BYTE PTR tv295[rbp]
  001de	48 8b 8d e8 01
	00 00		 mov	 rcx, QWORD PTR tv296[rbp]
  001e5	ff 15 00 00 00
	00		 call	 QWORD PTR __imp_?sputc@?$basic_streambuf@DU?$char_traits@D@std@@@std@@QEAAHD@Z
  001eb	89 85 f0 01 00
	00		 mov	 DWORD PTR tv297[rbp], eax
  001f1	8b 85 f0 01 00
	00		 mov	 eax, DWORD PTR tv297[rbp]
  001f7	89 85 54 01 00
	00		 mov	 DWORD PTR $T4[rbp], eax
  001fd	e8 00 00 00 00	 call	 ?eof@?$_Narrow_char_traits@DH@std@@SAHXZ ; std::_Narrow_char_traits<char,int>::eof
  00202	89 85 74 01 00
	00		 mov	 DWORD PTR $T5[rbp], eax
  00208	48 8d 95 54 01
	00 00		 lea	 rdx, QWORD PTR $T4[rbp]
  0020f	48 8d 8d 74 01
	00 00		 lea	 rcx, QWORD PTR $T5[rbp]
  00216	e8 00 00 00 00	 call	 ?eq_int_type@?$_Narrow_char_traits@DH@std@@SA_NAEBH0@Z ; std::_Narrow_char_traits<char,int>::eq_int_type
  0021b	0f b6 c0	 movzx	 eax, al
  0021e	85 c0		 test	 eax, eax
  00220	74 0b		 je	 SHORT $LN12@operator

; 751  :                     _State |= ios_base::badbit; // insertion failed, quit

  00222	8b 45 04	 mov	 eax, DWORD PTR _State$[rbp]
  00225	83 c8 04	 or	 eax, 4
  00228	89 45 04	 mov	 DWORD PTR _State$[rbp], eax

; 752  :                     break;

  0022b	eb 05		 jmp	 SHORT $LN11@operator
$LN12@operator:

; 753  :                 }
; 754  :             }

  0022d	e9 3a ff ff ff	 jmp	 $LN2@operator
$LN11@operator:

; 755  :         }
; 756  : 
; 757  :         if (_State == ios_base::goodbit && _Ostr.rdbuf()->sputn(_Val, _Count) != _Count) {

  00232	83 7d 04 00	 cmp	 DWORD PTR _State$[rbp], 0
  00236	75 60		 jne	 SHORT $LN13@operator
  00238	48 8b 85 20 02
	00 00		 mov	 rax, QWORD PTR _Ostr$[rbp]
  0023f	48 8b 00	 mov	 rax, QWORD PTR [rax]
  00242	48 63 40 04	 movsxd	 rax, DWORD PTR [rax+4]
  00246	48 8b 8d 20 02
	00 00		 mov	 rcx, QWORD PTR _Ostr$[rbp]
  0024d	48 03 c8	 add	 rcx, rax
  00250	48 8b c1	 mov	 rax, rcx
  00253	48 8b c8	 mov	 rcx, rax
  00256	ff 15 00 00 00
	00		 call	 QWORD PTR __imp_?rdbuf@?$basic_ios@DU?$char_traits@D@std@@@std@@QEBAPEAV?$basic_streambuf@DU?$char_traits@D@std@@@2@XZ
  0025c	48 89 85 e8 01
	00 00		 mov	 QWORD PTR tv298[rbp], rax
  00263	4c 8b 45 28	 mov	 r8, QWORD PTR _Count$[rbp]
  00267	48 8b 95 28 02
	00 00		 mov	 rdx, QWORD PTR _Val$[rbp]
  0026e	48 8b 8d e8 01
	00 00		 mov	 rcx, QWORD PTR tv298[rbp]
  00275	ff 15 00 00 00
	00		 call	 QWORD PTR __imp_?sputn@?$basic_streambuf@DU?$char_traits@D@std@@@std@@QEAA_JPEBD_J@Z
  0027b	48 89 85 f0 01
	00 00		 mov	 QWORD PTR tv299[rbp], rax
  00282	48 8b 45 28	 mov	 rax, QWORD PTR _Count$[rbp]
  00286	48 39 85 f0 01
	00 00		 cmp	 QWORD PTR tv299[rbp], rax
  0028d	74 09		 je	 SHORT $LN13@operator

; 758  :             _State |= ios_base::badbit;

  0028f	8b 45 04	 mov	 eax, DWORD PTR _State$[rbp]
  00292	83 c8 04	 or	 eax, 4
  00295	89 45 04	 mov	 DWORD PTR _State$[rbp], eax
$LN13@operator:

; 759  :         }
; 760  : 
; 761  :         if (_State == ios_base::goodbit) {

  00298	83 7d 04 00	 cmp	 DWORD PTR _State$[rbp], 0
  0029c	0f 85 c8 00 00
	00		 jne	 $LN14@operator

; 762  :             for (; 0 < _Pad; --_Pad) { // pad on right

  002a2	eb 0b		 jmp	 SHORT $LN7@operator
$LN5@operator:
  002a4	48 8b 45 48	 mov	 rax, QWORD PTR _Pad$[rbp]
  002a8	48 ff c8	 dec	 rax
  002ab	48 89 45 48	 mov	 QWORD PTR _Pad$[rbp], rax
$LN7@operator:
  002af	48 83 7d 48 00	 cmp	 QWORD PTR _Pad$[rbp], 0
  002b4	0f 8e b0 00 00
	00		 jle	 $LN14@operator

; 763  :                 if (_Traits::eq_int_type(_Traits::eof(), _Ostr.rdbuf()->sputc(_Ostr.fill()))) {

  002ba	48 8b 85 20 02
	00 00		 mov	 rax, QWORD PTR _Ostr$[rbp]
  002c1	48 8b 00	 mov	 rax, QWORD PTR [rax]
  002c4	48 63 40 04	 movsxd	 rax, DWORD PTR [rax+4]
  002c8	48 8b 8d 20 02
	00 00		 mov	 rcx, QWORD PTR _Ostr$[rbp]
  002cf	48 03 c8	 add	 rcx, rax
  002d2	48 8b c1	 mov	 rax, rcx
  002d5	48 8b c8	 mov	 rcx, rax
  002d8	ff 15 00 00 00
	00		 call	 QWORD PTR __imp_?fill@?$basic_ios@DU?$char_traits@D@std@@@std@@QEBADXZ
  002de	88 85 e4 01 00
	00		 mov	 BYTE PTR tv300[rbp], al
  002e4	48 8b 85 20 02
	00 00		 mov	 rax, QWORD PTR _Ostr$[rbp]
  002eb	48 8b 00	 mov	 rax, QWORD PTR [rax]
  002ee	48 63 40 04	 movsxd	 rax, DWORD PTR [rax+4]
  002f2	48 8b 8d 20 02
	00 00		 mov	 rcx, QWORD PTR _Ostr$[rbp]
  002f9	48 03 c8	 add	 rcx, rax
  002fc	48 8b c1	 mov	 rax, rcx
  002ff	48 8b c8	 mov	 rcx, rax
  00302	ff 15 00 00 00
	00		 call	 QWORD PTR __imp_?rdbuf@?$basic_ios@DU?$char_traits@D@std@@@std@@QEBAPEAV?$basic_streambuf@DU?$char_traits@D@std@@@2@XZ
  00308	48 89 85 e8 01
	00 00		 mov	 QWORD PTR tv301[rbp], rax
  0030f	0f b6 95 e4 01
	00 00		 movzx	 edx, BYTE PTR tv300[rbp]
  00316	48 8b 8d e8 01
	00 00		 mov	 rcx, QWORD PTR tv301[rbp]
  0031d	ff 15 00 00 00
	00		 call	 QWORD PTR __imp_?sputc@?$basic_streambuf@DU?$char_traits@D@std@@@std@@QEAAHD@Z
  00323	89 85 f0 01 00
	00		 mov	 DWORD PTR tv302[rbp], eax
  00329	8b 85 f0 01 00
	00		 mov	 eax, DWORD PTR tv302[rbp]
  0032f	89 85 94 01 00
	00		 mov	 DWORD PTR $T6[rbp], eax
  00335	e8 00 00 00 00	 call	 ?eof@?$_Narrow_char_traits@DH@std@@SAHXZ ; std::_Narrow_char_traits<char,int>::eof
  0033a	89 85 b4 01 00
	00		 mov	 DWORD PTR $T7[rbp], eax
  00340	48 8d 95 94 01
	00 00		 lea	 rdx, QWORD PTR $T6[rbp]
  00347	48 8d 8d b4 01
	00 00		 lea	 rcx, QWORD PTR $T7[rbp]
  0034e	e8 00 00 00 00	 call	 ?eq_int_type@?$_Narrow_char_traits@DH@std@@SA_NAEBH0@Z ; std::_Narrow_char_traits<char,int>::eq_int_type
  00353	0f b6 c0	 movzx	 eax, al
  00356	85 c0		 test	 eax, eax
  00358	74 0b		 je	 SHORT $LN15@operator

; 764  :                     _State |= ios_base::badbit; // insertion failed, quit

  0035a	8b 45 04	 mov	 eax, DWORD PTR _State$[rbp]
  0035d	83 c8 04	 or	 eax, 4
  00360	89 45 04	 mov	 DWORD PTR _State$[rbp], eax

; 765  :                     break;

  00363	eb 05		 jmp	 SHORT $LN14@operator
$LN15@operator:

; 766  :                 }
; 767  :             }

  00365	e9 3a ff ff ff	 jmp	 $LN5@operator
$LN14@operator:

; 768  :         }
; 769  : 
; 770  :         _Ostr.width(0);

  0036a	48 8b 85 20 02
	00 00		 mov	 rax, QWORD PTR _Ostr$[rbp]
  00371	48 8b 00	 mov	 rax, QWORD PTR [rax]
  00374	48 63 40 04	 movsxd	 rax, DWORD PTR [rax+4]
  00378	48 8b 8d 20 02
	00 00		 mov	 rcx, QWORD PTR _Ostr$[rbp]
  0037f	48 03 c8	 add	 rcx, rax
  00382	48 8b c1	 mov	 rax, rcx
  00385	33 d2		 xor	 edx, edx
  00387	48 8b c8	 mov	 rcx, rax
  0038a	ff 15 00 00 00
	00		 call	 QWORD PTR __imp_?width@ios_base@std@@QEAA_J_J@Z
  00390	90		 npad	 1
  00391	eb 00		 jmp	 SHORT $LN9@operator
$LN23@operator:
$LN9@operator:

; 771  :         _CATCH_IO_(ios_base, _Ostr)
; 772  :     }
; 773  : 
; 774  :     _Ostr.setstate(_State);

  00393	48 8b 85 20 02
	00 00		 mov	 rax, QWORD PTR _Ostr$[rbp]
  0039a	48 8b 00	 mov	 rax, QWORD PTR [rax]
  0039d	48 63 40 04	 movsxd	 rax, DWORD PTR [rax+4]
  003a1	48 8b 8d 20 02
	00 00		 mov	 rcx, QWORD PTR _Ostr$[rbp]
  003a8	48 03 c8	 add	 rcx, rax
  003ab	48 8b c1	 mov	 rax, rcx
  003ae	45 33 c0	 xor	 r8d, r8d
  003b1	8b 55 04	 mov	 edx, DWORD PTR _State$[rbp]
  003b4	48 8b c8	 mov	 rcx, rax
  003b7	ff 15 00 00 00
	00		 call	 QWORD PTR __imp_?setstate@?$basic_ios@DU?$char_traits@D@std@@@std@@QEAAXH_N@Z

; 775  :     return _Ostr;

  003bd	48 8b 85 20 02
	00 00		 mov	 rax, QWORD PTR _Ostr$[rbp]
  003c4	48 89 85 d8 01
	00 00		 mov	 QWORD PTR $T8[rbp], rax
  003cb	48 8d 4d 68	 lea	 rcx, QWORD PTR _Ok$[rbp]
  003cf	e8 00 00 00 00	 call	 ??1sentry@?$basic_ostream@DU?$char_traits@D@std@@@std@@QEAA@XZ ; std::basic_ostream<char,std::char_traits<char> >::sentry::~sentry
  003d4	48 8b 85 d8 01
	00 00		 mov	 rax, QWORD PTR $T8[rbp]

; 776  : }

  003db	48 8b f8	 mov	 rdi, rax
  003de	48 8d 4d e0	 lea	 rcx, QWORD PTR [rbp-32]
  003e2	48 8d 15 00 00
	00 00		 lea	 rdx, OFFSET FLAT:??$?6U?$char_traits@D@std@@@std@@YAAEAV?$basic_ostream@DU?$char_traits@D@std@@@0@AEAV10@PEBD@Z$rtcFrameData
  003e9	e8 00 00 00 00	 call	 _RTC_CheckStackVars
  003ee	48 8b c7	 mov	 rax, rdi
  003f1	48 8b 8d f8 01
	00 00		 mov	 rcx, QWORD PTR __$ArrayPad$[rbp]
  003f8	48 33 cd	 xor	 rcx, rbp
  003fb	e8 00 00 00 00	 call	 __security_check_cookie
  00400	48 8d a5 08 02
	00 00		 lea	 rsp, QWORD PTR [rbp+520]
  00407	5f		 pop	 rdi
  00408	5d		 pop	 rbp
  00409	c3		 ret	 0
??$?6U?$char_traits@D@std@@@std@@YAAEAV?$basic_ostream@DU?$char_traits@D@std@@@0@AEAV10@PEBD@Z ENDP ; std::operator<<<std::char_traits<char> >
_TEXT	ENDS
;	COMDAT text$x
text$x	SEGMENT
_State$ = 4
_Count$ = 40
_Pad$ = 72
_Ok$ = 104
$T4 = 340
$T5 = 372
$T6 = 404
$T7 = 436
$T8 = 472
tv300 = 484
tv295 = 484
tv139 = 484
tv301 = 488
tv298 = 488
tv296 = 488
tv137 = 488
tv302 = 496
tv299 = 496
tv297 = 496
__$ArrayPad$ = 504
_Ostr$ = 544
_Val$ = 552
?dtor$0@?0???$?6U?$char_traits@D@std@@@std@@YAAEAV?$basic_ostream@DU?$char_traits@D@std@@@0@AEAV10@PEBD@Z@4HA PROC ; `std::operator<<<std::char_traits<char> >'::`1'::dtor$0
  00000	48 89 4c 24 08	 mov	 QWORD PTR [rsp+8], rcx
  00005	48 89 54 24 10	 mov	 QWORD PTR [rsp+16], rdx
  0000a	55		 push	 rbp
  0000b	57		 push	 rdi
  0000c	48 83 ec 28	 sub	 rsp, 40			; 00000028H
  00010	48 8d 6a 20	 lea	 rbp, QWORD PTR [rdx+32]
  00014	48 8d 4d 68	 lea	 rcx, QWORD PTR _Ok$[rbp]
  00018	e8 00 00 00 00	 call	 ??1sentry@?$basic_ostream@DU?$char_traits@D@std@@@std@@QEAA@XZ ; std::basic_ostream<char,std::char_traits<char> >::sentry::~sentry
  0001d	48 83 c4 28	 add	 rsp, 40			; 00000028H
  00021	5f		 pop	 rdi
  00022	5d		 pop	 rbp
  00023	c3		 ret	 0
?dtor$0@?0???$?6U?$char_traits@D@std@@@std@@YAAEAV?$basic_ostream@DU?$char_traits@D@std@@@0@AEAV10@PEBD@Z@4HA ENDP ; `std::operator<<<std::char_traits<char> >'::`1'::dtor$0
text$x	ENDS
;	COMDAT text$x
text$x	SEGMENT
_State$ = 4
_Count$ = 40
_Pad$ = 72
_Ok$ = 104
$T4 = 340
$T5 = 372
$T6 = 404
$T7 = 436
$T8 = 472
tv300 = 484
tv295 = 484
tv139 = 484
tv301 = 488
tv298 = 488
tv296 = 488
tv137 = 488
tv302 = 496
tv299 = 496
tv297 = 496
__$ArrayPad$ = 504
_Ostr$ = 544
_Val$ = 552
?catch$1@?0???$?6U?$char_traits@D@std@@@std@@YAAEAV?$basic_ostream@DU?$char_traits@D@std@@@0@AEAV10@PEBD@Z@4HA PROC ; `std::operator<<<std::char_traits<char> >'::`1'::catch$1

; 771  :         _CATCH_IO_(ios_base, _Ostr)

  00000	48 89 4c 24 08	 mov	 QWORD PTR [rsp+8], rcx
  00005	48 89 54 24 10	 mov	 QWORD PTR [rsp+16], rdx
  0000a	55		 push	 rbp
  0000b	57		 push	 rdi
  0000c	48 83 ec 28	 sub	 rsp, 40			; 00000028H
  00010	48 8d 6a 20	 lea	 rbp, QWORD PTR [rdx+32]
__catch$??$?6U?$char_traits@D@std@@@std@@YAAEAV?$basic_ostream@DU?$char_traits@D@std@@@0@AEAV10@PEBD@Z$0:
  00014	48 8b 85 20 02
	00 00		 mov	 rax, QWORD PTR _Ostr$[rbp]
  0001b	48 8b 00	 mov	 rax, QWORD PTR [rax]
  0001e	48 63 40 04	 movsxd	 rax, DWORD PTR [rax+4]
  00022	48 8b 8d 20 02
	00 00		 mov	 rcx, QWORD PTR _Ostr$[rbp]
  00029	48 03 c8	 add	 rcx, rax
  0002c	48 8b c1	 mov	 rax, rcx
  0002f	41 b0 01	 mov	 r8b, 1
  00032	ba 04 00 00 00	 mov	 edx, 4
  00037	48 8b c8	 mov	 rcx, rax
  0003a	ff 15 00 00 00
	00		 call	 QWORD PTR __imp_?setstate@?$basic_ios@DU?$char_traits@D@std@@@std@@QEAAXH_N@Z
  00040	90		 npad	 1
  00041	48 8d 05 00 00
	00 00		 lea	 rax, $LN23@catch$1
  00048	48 83 c4 28	 add	 rsp, 40			; 00000028H
  0004c	5f		 pop	 rdi
  0004d	5d		 pop	 rbp
  0004e	c3		 ret	 0
  0004f	cc		 int	 3
?catch$1@?0???$?6U?$char_traits@D@std@@@std@@YAAEAV?$basic_ostream@DU?$char_traits@D@std@@@0@AEAV10@PEBD@Z@4HA ENDP ; `std::operator<<<std::char_traits<char> >'::`1'::catch$1
text$x	ENDS
; Function compile flags: /Odtp /RTCsu /ZI
;	COMDAT text$x
text$x	SEGMENT
_State$ = 4
_Count$ = 40
_Pad$ = 72
_Ok$ = 104
$T4 = 340
$T5 = 372
$T6 = 404
$T7 = 436
$T8 = 472
tv300 = 484
tv295 = 484
tv139 = 484
tv301 = 488
tv298 = 488
tv296 = 488
tv137 = 488
tv302 = 496
tv299 = 496
tv297 = 496
__$ArrayPad$ = 504
_Ostr$ = 544
_Val$ = 552
?dtor$0@?0???$?6U?$char_traits@D@std@@@std@@YAAEAV?$basic_ostream@DU?$char_traits@D@std@@@0@AEAV10@PEBD@Z@4HA PROC ; `std::operator<<<std::char_traits<char> >'::`1'::dtor$0
  00000	48 89 4c 24 08	 mov	 QWORD PTR [rsp+8], rcx
  00005	48 89 54 24 10	 mov	 QWORD PTR [rsp+16], rdx
  0000a	55		 push	 rbp
  0000b	57		 push	 rdi
  0000c	48 83 ec 28	 sub	 rsp, 40			; 00000028H
  00010	48 8d 6a 20	 lea	 rbp, QWORD PTR [rdx+32]
  00014	48 8d 4d 68	 lea	 rcx, QWORD PTR _Ok$[rbp]
  00018	e8 00 00 00 00	 call	 ??1sentry@?$basic_ostream@DU?$char_traits@D@std@@@std@@QEAA@XZ ; std::basic_ostream<char,std::char_traits<char> >::sentry::~sentry
  0001d	48 83 c4 28	 add	 rsp, 40			; 00000028H
  00021	5f		 pop	 rdi
  00022	5d		 pop	 rbp
  00023	c3		 ret	 0
?dtor$0@?0???$?6U?$char_traits@D@std@@@std@@YAAEAV?$basic_ostream@DU?$char_traits@D@std@@@0@AEAV10@PEBD@Z@4HA ENDP ; `std::operator<<<std::char_traits<char> >'::`1'::dtor$0
text$x	ENDS
; Function compile flags: /Odtp /RTCsu /ZI
;	COMDAT text$x
text$x	SEGMENT
_State$ = 4
_Count$ = 40
_Pad$ = 72
_Ok$ = 104
$T4 = 340
$T5 = 372
$T6 = 404
$T7 = 436
$T8 = 472
tv300 = 484
tv295 = 484
tv139 = 484
tv301 = 488
tv298 = 488
tv296 = 488
tv137 = 488
tv302 = 496
tv299 = 496
tv297 = 496
__$ArrayPad$ = 504
_Ostr$ = 544
_Val$ = 552
?catch$1@?0???$?6U?$char_traits@D@std@@@std@@YAAEAV?$basic_ostream@DU?$char_traits@D@std@@@0@AEAV10@PEBD@Z@4HA PROC ; `std::operator<<<std::char_traits<char> >'::`1'::catch$1

; 771  :         _CATCH_IO_(ios_base, _Ostr)

  00000	48 89 4c 24 08	 mov	 QWORD PTR [rsp+8], rcx
  00005	48 89 54 24 10	 mov	 QWORD PTR [rsp+16], rdx
  0000a	55		 push	 rbp
  0000b	57		 push	 rdi
  0000c	48 83 ec 28	 sub	 rsp, 40			; 00000028H
  00010	48 8d 6a 20	 lea	 rbp, QWORD PTR [rdx+32]
__catch$??$?6U?$char_traits@D@std@@@std@@YAAEAV?$basic_ostream@DU?$char_traits@D@std@@@0@AEAV10@PEBD@Z$0:
  00014	48 8b 85 20 02
	00 00		 mov	 rax, QWORD PTR _Ostr$[rbp]
  0001b	48 8b 00	 mov	 rax, QWORD PTR [rax]
  0001e	48 63 40 04	 movsxd	 rax, DWORD PTR [rax+4]
  00022	48 8b 8d 20 02
	00 00		 mov	 rcx, QWORD PTR _Ostr$[rbp]
  00029	48 03 c8	 add	 rcx, rax
  0002c	48 8b c1	 mov	 rax, rcx
  0002f	41 b0 01	 mov	 r8b, 1
  00032	ba 04 00 00 00	 mov	 edx, 4
  00037	48 8b c8	 mov	 rcx, rax
  0003a	ff 15 00 00 00
	00		 call	 QWORD PTR __imp_?setstate@?$basic_ios@DU?$char_traits@D@std@@@std@@QEAAXH_N@Z
  00040	90		 npad	 1
  00041	48 8d 05 00 00
	00 00		 lea	 rax, $LN23@catch$1
  00048	48 83 c4 28	 add	 rsp, 40			; 00000028H
  0004c	5f		 pop	 rdi
  0004d	5d		 pop	 rbp
  0004e	c3		 ret	 0
  0004f	cc		 int	 3
?catch$1@?0???$?6U?$char_traits@D@std@@@std@@YAAEAV?$basic_ostream@DU?$char_traits@D@std@@@0@AEAV10@PEBD@Z@4HA ENDP ; `std::operator<<<std::char_traits<char> >'::`1'::catch$1
text$x	ENDS
; Function compile flags: /Odtp /RTCsu /ZI
; File C:\Users\Skvortsoff\OneDrive\\GitHub\course_LP\course_LP\DP.cpp
;	COMDAT ?alphaCirillicDigit@GM@@YA_ND@Z
_TEXT	SEGMENT
symbol$ = 224
?alphaCirillicDigit@GM@@YA_ND@Z PROC			; GM::alphaCirillicDigit, COMDAT

; 1316 : 	bool alphaCirillicDigit(char symbol) {

$LN20:
  00000	88 4c 24 08	 mov	 BYTE PTR [rsp+8], cl
  00004	55		 push	 rbp
  00005	57		 push	 rdi
  00006	48 81 ec e8 00
	00 00		 sub	 rsp, 232		; 000000e8H
  0000d	48 8d 6c 24 20	 lea	 rbp, QWORD PTR [rsp+32]
  00012	48 8b fc	 mov	 rdi, rsp
  00015	b9 3a 00 00 00	 mov	 ecx, 58			; 0000003aH
  0001a	b8 cc cc cc cc	 mov	 eax, -858993460		; ccccccccH
  0001f	f3 ab		 rep stosd
  00021	0f b6 8c 24 08
	01 00 00	 movzx	 ecx, BYTE PTR [rsp+264]
  00029	48 8d 0d 00 00
	00 00		 lea	 rcx, OFFSET FLAT:__656A90FE_DP@cpp
  00030	e8 00 00 00 00	 call	 __CheckForDebuggerJustMyCode

; 1317 : 		if (isalpha(symbol))

  00035	0f be 85 e0 00
	00 00		 movsx	 eax, BYTE PTR symbol$[rbp]
  0003c	8b c8		 mov	 ecx, eax
  0003e	ff 15 00 00 00
	00		 call	 QWORD PTR __imp_isalpha
  00044	85 c0		 test	 eax, eax
  00046	74 06		 je	 SHORT $LN2@alphaCiril

; 1318 : 			return true;

  00048	b0 01		 mov	 al, 1
  0004a	eb 4d		 jmp	 SHORT $LN1@alphaCiril
  0004c	eb 4b		 jmp	 SHORT $LN3@alphaCiril
$LN2@alphaCiril:

; 1319 : 		else if (isdigit(symbol))

  0004e	0f be 85 e0 00
	00 00		 movsx	 eax, BYTE PTR symbol$[rbp]
  00055	8b c8		 mov	 ecx, eax
  00057	ff 15 00 00 00
	00		 call	 QWORD PTR __imp_isdigit
  0005d	85 c0		 test	 eax, eax
  0005f	74 06		 je	 SHORT $LN4@alphaCiril

; 1320 : 			return true;

  00061	b0 01		 mov	 al, 1
  00063	eb 34		 jmp	 SHORT $LN1@alphaCiril
  00065	eb 32		 jmp	 SHORT $LN5@alphaCiril
$LN4@alphaCiril:

; 1321 : 		else if (symbol >= '' && symbol <= '')

  00067	0f be 85 e0 00
	00 00		 movsx	 eax, BYTE PTR symbol$[rbp]
  0006e	83 f8 e0	 cmp	 eax, -32		; ffffffffffffffe0H
  00071	7c 12		 jl	 SHORT $LN6@alphaCiril
  00073	0f be 85 e0 00
	00 00		 movsx	 eax, BYTE PTR symbol$[rbp]
  0007a	83 f8 ff	 cmp	 eax, -1
  0007d	7f 06		 jg	 SHORT $LN6@alphaCiril

; 1322 : 			return true;

  0007f	b0 01		 mov	 al, 1
  00081	eb 16		 jmp	 SHORT $LN1@alphaCiril
  00083	eb 14		 jmp	 SHORT $LN7@alphaCiril
$LN6@alphaCiril:

; 1323 : 		else if (symbol == '$')

  00085	0f be 85 e0 00
	00 00		 movsx	 eax, BYTE PTR symbol$[rbp]
  0008c	83 f8 24	 cmp	 eax, 36			; 00000024H
  0008f	75 06		 jne	 SHORT $LN8@alphaCiril

; 1324 : 			return true;

  00091	b0 01		 mov	 al, 1
  00093	eb 04		 jmp	 SHORT $LN1@alphaCiril
  00095	eb 02		 jmp	 SHORT $LN9@alphaCiril
$LN8@alphaCiril:

; 1325 : 		else
; 1326 : 			return false;

  00097	32 c0		 xor	 al, al
$LN9@alphaCiril:
$LN7@alphaCiril:
$LN5@alphaCiril:
$LN3@alphaCiril:
$LN1@alphaCiril:

; 1327 : 	}

  00099	48 8d a5 c8 00
	00 00		 lea	 rsp, QWORD PTR [rbp+200]
  000a0	5f		 pop	 rdi
  000a1	5d		 pop	 rbp
  000a2	c3		 ret	 0
?alphaCirillicDigit@GM@@YA_ND@Z ENDP			; GM::alphaCirillicDigit
_TEXT	ENDS
; Function compile flags: /Odtp /RTCsu /ZI
; File C:\Users\Skvortsoff\OneDrive\\GitHub\course_LP\course_LP\DP.cpp
;	COMDAT ?IdentificatorCreate@GM@@YAXPEAUIdTable@IT@@PEAULexTable@LT@@AEAUData@1@PEAV?$basic_fstream@DU?$char_traits@D@std@@@std@@@Z
_TEXT	SEGMENT
$T1 = 976
$T2 = 1216
$T3 = 1448
$T4 = 1696
$T5 = 1936
$T6 = 2168
$T7 = 2416
$T8 = 2656
$T9 = 2888
tv441 = 3108
tv367 = 3108
tv190 = 3108
tv88 = 3108
tv70 = 3108
idtable$ = 3152
lextable$ = 3160
data$ = 3168
stream$ = 3176
?IdentificatorCreate@GM@@YAXPEAUIdTable@IT@@PEAULexTable@LT@@AEAUData@1@PEAV?$basic_fstream@DU?$char_traits@D@std@@@std@@@Z PROC ; GM::IdentificatorCreate, COMDAT

; 220  : 	{

$LN42:
  00000	4c 89 4c 24 20	 mov	 QWORD PTR [rsp+32], r9
  00005	4c 89 44 24 18	 mov	 QWORD PTR [rsp+24], r8
  0000a	48 89 54 24 10	 mov	 QWORD PTR [rsp+16], rdx
  0000f	48 89 4c 24 08	 mov	 QWORD PTR [rsp+8], rcx
  00014	55		 push	 rbp
  00015	56		 push	 rsi
  00016	57		 push	 rdi
  00017	48 81 ec 70 0c
	00 00		 sub	 rsp, 3184		; 00000c70H
  0001e	48 8d 6c 24 40	 lea	 rbp, QWORD PTR [rsp+64]
  00023	48 8b fc	 mov	 rdi, rsp
  00026	b9 1c 03 00 00	 mov	 ecx, 796		; 0000031cH
  0002b	b8 cc cc cc cc	 mov	 eax, -858993460		; ccccccccH
  00030	f3 ab		 rep stosd
  00032	48 8b 8c 24 98
	0c 00 00	 mov	 rcx, QWORD PTR [rsp+3224]
  0003a	48 8d 0d 00 00
	00 00		 lea	 rcx, OFFSET FLAT:__656A90FE_DP@cpp
  00041	e8 00 00 00 00	 call	 __CheckForDebuggerJustMyCode

; 221  : 
; 222  : 		switch (ENTRY.idtype) {

  00046	48 8b 85 50 0c
	00 00		 mov	 rax, QWORD PTR idtable$[rbp]
  0004d	48 63 40 04	 movsxd	 rax, DWORD PTR [rax+4]
  00051	48 69 c0 50 fe
	00 00		 imul	 rax, rax, 65104		; 0000fe50H
  00058	48 8b 8d 50 0c
	00 00		 mov	 rcx, QWORD PTR idtable$[rbp]
  0005f	48 8b 49 08	 mov	 rcx, QWORD PTR [rcx+8]
  00063	8b 44 01 44	 mov	 eax, DWORD PTR [rcx+rax+68]
  00067	89 85 24 0c 00
	00		 mov	 DWORD PTR tv70[rbp], eax
  0006d	83 bd 24 0c 00
	00 02		 cmp	 DWORD PTR tv70[rbp], 2
  00074	74 12		 je	 SHORT $LN4@Identifica
  00076	83 bd 24 0c 00
	00 06		 cmp	 DWORD PTR tv70[rbp], 6
  0007d	0f 84 b3 01 00
	00		 je	 $LN7@Identifica
  00083	e9 7a 03 00 00	 jmp	 $LN9@Identifica
$LN4@Identifica:

; 223  : 		case IT::IDTYPE::F:
; 224  : 		{	
; 225  : 			ID = IT::IsId(*idtable,*lextable, data.string, data.prefix, data.count_lines,&data.visibility_in_parametres, ENTRY.iddatatype, ENTRY.idtype);

  00088	48 8b 85 60 0c
	00 00		 mov	 rax, QWORD PTR data$[rbp]
  0008f	48 83 c0 29	 add	 rax, 41			; 00000029H
  00093	48 85 c0	 test	 rax, rax
  00096	74 09		 je	 SHORT $LN22@Identifica
  00098	c6 85 24 0c 00
	00 01		 mov	 BYTE PTR tv88[rbp], 1
  0009f	eb 07		 jmp	 SHORT $LN23@Identifica
$LN22@Identifica:
  000a1	c6 85 24 0c 00
	00 00		 mov	 BYTE PTR tv88[rbp], 0
$LN23@Identifica:
  000a8	48 8b 85 50 0c
	00 00		 mov	 rax, QWORD PTR idtable$[rbp]
  000af	48 63 40 04	 movsxd	 rax, DWORD PTR [rax+4]
  000b3	48 69 c0 50 fe
	00 00		 imul	 rax, rax, 65104		; 0000fe50H
  000ba	48 8b 8d 50 0c
	00 00		 mov	 rcx, QWORD PTR idtable$[rbp]
  000c1	48 8b 49 08	 mov	 rcx, QWORD PTR [rcx+8]
  000c5	48 8b 95 50 0c
	00 00		 mov	 rdx, QWORD PTR idtable$[rbp]
  000cc	48 63 52 04	 movsxd	 rdx, DWORD PTR [rdx+4]
  000d0	48 69 d2 50 fe
	00 00		 imul	 rdx, rdx, 65104		; 0000fe50H
  000d7	4c 8b 85 50 0c
	00 00		 mov	 r8, QWORD PTR idtable$[rbp]
  000de	4d 8b 40 08	 mov	 r8, QWORD PTR [r8+8]
  000e2	4c 8b 8d 60 0c
	00 00		 mov	 r9, QWORD PTR data$[rbp]
  000e9	49 83 c1 12	 add	 r9, 18
  000ed	8b 44 01 44	 mov	 eax, DWORD PTR [rcx+rax+68]
  000f1	89 44 24 38	 mov	 DWORD PTR [rsp+56], eax
  000f5	41 8b 44 10 40	 mov	 eax, DWORD PTR [r8+rdx+64]
  000fa	89 44 24 30	 mov	 DWORD PTR [rsp+48], eax
  000fe	0f b6 85 24 0c
	00 00		 movzx	 eax, BYTE PTR tv88[rbp]
  00105	88 44 24 28	 mov	 BYTE PTR [rsp+40], al
  00109	48 8b 85 60 0c
	00 00		 mov	 rax, QWORD PTR data$[rbp]
  00110	8b 40 04	 mov	 eax, DWORD PTR [rax+4]
  00113	89 44 24 20	 mov	 DWORD PTR [rsp+32], eax
  00117	48 8b 85 60 0c
	00 00		 mov	 rax, QWORD PTR data$[rbp]
  0011e	4c 8b 40 20	 mov	 r8, QWORD PTR [rax+32]
  00122	48 8b 95 58 0c
	00 00		 mov	 rdx, QWORD PTR lextable$[rbp]
  00129	48 8b 8d 50 0c
	00 00		 mov	 rcx, QWORD PTR idtable$[rbp]
  00130	e8 00 00 00 00	 call	 ?IsId@IT@@YAHAEAUIdTable@1@AEAULexTable@LT@@QEAD2H_NW4IDDATATYPE@1@W4IDTYPE@1@@Z ; IT::IsId
  00135	89 05 00 00 00
	00		 mov	 DWORD PTR ?ID@GM@@3HA, eax ; GM::ID

; 226  : 			if (strlen(data.string) > PREFIX_SIZE)

  0013b	48 8b 85 60 0c
	00 00		 mov	 rax, QWORD PTR data$[rbp]
  00142	48 8b 48 20	 mov	 rcx, QWORD PTR [rax+32]
  00146	e8 00 00 00 00	 call	 strlen
  0014b	48 83 f8 0a	 cmp	 rax, 10
  0014f	76 3c		 jbe	 SHORT $LN5@Identifica

; 227  : 				*stream << "  (" << data.string << ") !\n";

  00151	48 8b 85 68 0c
	00 00		 mov	 rax, QWORD PTR stream$[rbp]
  00158	48 83 c0 10	 add	 rax, 16
  0015c	48 8d 15 00 00
	00 00		 lea	 rdx, OFFSET FLAT:??_C@_0BI@KEJLDABE@?H?d?e?m?r?h?t?h?j?$OA?r?n?p?5?t?s?m?j?v?h?h?5?$CI@
  00163	48 8b c8	 mov	 rcx, rax
  00166	e8 00 00 00 00	 call	 ??$?6U?$char_traits@D@std@@@std@@YAAEAV?$basic_ostream@DU?$char_traits@D@std@@@0@AEAV10@PEBD@Z ; std::operator<<<std::char_traits<char> >
  0016b	48 8b 8d 60 0c
	00 00		 mov	 rcx, QWORD PTR data$[rbp]
  00172	48 8b 51 20	 mov	 rdx, QWORD PTR [rcx+32]
  00176	48 8b c8	 mov	 rcx, rax
  00179	e8 00 00 00 00	 call	 ??$?6U?$char_traits@D@std@@@std@@YAAEAV?$basic_ostream@DU?$char_traits@D@std@@@0@AEAV10@PEBD@Z ; std::operator<<<std::char_traits<char> >
  0017e	48 8d 15 00 00
	00 00		 lea	 rdx, OFFSET FLAT:??_C@_0L@OEAAKCBM@?$CJ?5?s?q?e?w?e?m?$CB?6@
  00185	48 8b c8	 mov	 rcx, rax
  00188	e8 00 00 00 00	 call	 ??$?6U?$char_traits@D@std@@@std@@YAAEAV?$basic_ostream@DU?$char_traits@D@std@@@0@AEAV10@PEBD@Z ; std::operator<<<std::char_traits<char> >
$LN5@Identifica:

; 228  : 			
; 229  : 			strncpy_s(data.prefix, data.string, PREFIX_SIZE);

  0018d	48 8b 85 60 0c
	00 00		 mov	 rax, QWORD PTR data$[rbp]
  00194	48 83 c0 12	 add	 rax, 18
  00198	41 b8 0a 00 00
	00		 mov	 r8d, 10
  0019e	48 8b 8d 60 0c
	00 00		 mov	 rcx, QWORD PTR data$[rbp]
  001a5	48 8b 51 20	 mov	 rdx, QWORD PTR [rcx+32]
  001a9	48 8b c8	 mov	 rcx, rax
  001ac	e8 00 00 00 00	 call	 ??$strncpy_s@$0L@@@YAHAEAY0L@DPEBD_K@Z ; strncpy_s<11>

; 230  : 			strncpy_s(ENTRY.id, data.string, ID_MAXSIZE);

  001b1	48 8b 85 50 0c
	00 00		 mov	 rax, QWORD PTR idtable$[rbp]
  001b8	48 63 40 04	 movsxd	 rax, DWORD PTR [rax+4]
  001bc	48 69 c0 50 fe
	00 00		 imul	 rax, rax, 65104		; 0000fe50H
  001c3	48 8b 8d 50 0c
	00 00		 mov	 rcx, QWORD PTR idtable$[rbp]
  001ca	48 8b 49 08	 mov	 rcx, QWORD PTR [rcx+8]
  001ce	48 8d 44 01 04	 lea	 rax, QWORD PTR [rcx+rax+4]
  001d3	41 b8 0a 00 00
	00		 mov	 r8d, 10
  001d9	48 8b 8d 60 0c
	00 00		 mov	 rcx, QWORD PTR data$[rbp]
  001e0	48 8b 51 20	 mov	 rdx, QWORD PTR [rcx+32]
  001e4	48 8b c8	 mov	 rcx, rax
  001e7	e8 00 00 00 00	 call	 ??$strncpy_s@$0L@@@YAHAEAY0L@DPEBD_K@Z ; strncpy_s<11>

; 231  : 			if(data.token != LEX_MAIN)

  001ec	48 8b 85 60 0c
	00 00		 mov	 rax, QWORD PTR data$[rbp]
  001f3	0f be 40 11	 movsx	 eax, BYTE PTR [rax+17]
  001f7	83 f8 6d	 cmp	 eax, 109		; 0000006dH
  001fa	74 0b		 je	 SHORT $LN6@Identifica

; 232  : 				data.visibility_in_parametres = true;

  001fc	48 8b 85 60 0c
	00 00		 mov	 rax, QWORD PTR data$[rbp]
  00203	c6 40 29 01	 mov	 BYTE PTR [rax+41], 1
$LN6@Identifica:

; 233  : 			ENTRY.idxfirstLE = data.count;

  00207	48 8b 85 50 0c
	00 00		 mov	 rax, QWORD PTR idtable$[rbp]
  0020e	48 63 40 04	 movsxd	 rax, DWORD PTR [rax+4]
  00212	48 69 c0 50 fe
	00 00		 imul	 rax, rax, 65104		; 0000fe50H
  00219	48 8b 8d 50 0c
	00 00		 mov	 rcx, QWORD PTR idtable$[rbp]
  00220	48 8b 49 08	 mov	 rcx, QWORD PTR [rcx+8]
  00224	48 8b 95 60 0c
	00 00		 mov	 rdx, QWORD PTR data$[rbp]
  0022b	8b 52 08	 mov	 edx, DWORD PTR [rdx+8]
  0022e	89 14 01	 mov	 DWORD PTR [rcx+rax], edx

; 234  : 			break;

  00231	e9 12 07 00 00	 jmp	 $LN2@Identifica
$LN7@Identifica:

; 235  : 		}
; 236  : 		case IT::IDTYPE::E:
; 237  : 		{
; 238  : 			ID = IT::IsId(*idtable, *lextable, data.string, data.prefix, data.count_lines, &data.visibility_in_parametres, ENTRY.iddatatype, ENTRY.idtype);

  00236	48 8b 85 60 0c
	00 00		 mov	 rax, QWORD PTR data$[rbp]
  0023d	48 83 c0 29	 add	 rax, 41			; 00000029H
  00241	48 85 c0	 test	 rax, rax
  00244	74 09		 je	 SHORT $LN24@Identifica
  00246	c6 85 24 0c 00
	00 01		 mov	 BYTE PTR tv190[rbp], 1
  0024d	eb 07		 jmp	 SHORT $LN25@Identifica
$LN24@Identifica:
  0024f	c6 85 24 0c 00
	00 00		 mov	 BYTE PTR tv190[rbp], 0
$LN25@Identifica:
  00256	48 8b 85 50 0c
	00 00		 mov	 rax, QWORD PTR idtable$[rbp]
  0025d	48 63 40 04	 movsxd	 rax, DWORD PTR [rax+4]
  00261	48 69 c0 50 fe
	00 00		 imul	 rax, rax, 65104		; 0000fe50H
  00268	48 8b 8d 50 0c
	00 00		 mov	 rcx, QWORD PTR idtable$[rbp]
  0026f	48 8b 49 08	 mov	 rcx, QWORD PTR [rcx+8]
  00273	48 8b 95 50 0c
	00 00		 mov	 rdx, QWORD PTR idtable$[rbp]
  0027a	48 63 52 04	 movsxd	 rdx, DWORD PTR [rdx+4]
  0027e	48 69 d2 50 fe
	00 00		 imul	 rdx, rdx, 65104		; 0000fe50H
  00285	4c 8b 85 50 0c
	00 00		 mov	 r8, QWORD PTR idtable$[rbp]
  0028c	4d 8b 40 08	 mov	 r8, QWORD PTR [r8+8]
  00290	4c 8b 8d 60 0c
	00 00		 mov	 r9, QWORD PTR data$[rbp]
  00297	49 83 c1 12	 add	 r9, 18
  0029b	8b 44 01 44	 mov	 eax, DWORD PTR [rcx+rax+68]
  0029f	89 44 24 38	 mov	 DWORD PTR [rsp+56], eax
  002a3	41 8b 44 10 40	 mov	 eax, DWORD PTR [r8+rdx+64]
  002a8	89 44 24 30	 mov	 DWORD PTR [rsp+48], eax
  002ac	0f b6 85 24 0c
	00 00		 movzx	 eax, BYTE PTR tv190[rbp]
  002b3	88 44 24 28	 mov	 BYTE PTR [rsp+40], al
  002b7	48 8b 85 60 0c
	00 00		 mov	 rax, QWORD PTR data$[rbp]
  002be	8b 40 04	 mov	 eax, DWORD PTR [rax+4]
  002c1	89 44 24 20	 mov	 DWORD PTR [rsp+32], eax
  002c5	48 8b 85 60 0c
	00 00		 mov	 rax, QWORD PTR data$[rbp]
  002cc	4c 8b 40 20	 mov	 r8, QWORD PTR [rax+32]
  002d0	48 8b 95 58 0c
	00 00		 mov	 rdx, QWORD PTR lextable$[rbp]
  002d7	48 8b 8d 50 0c
	00 00		 mov	 rcx, QWORD PTR idtable$[rbp]
  002de	e8 00 00 00 00	 call	 ?IsId@IT@@YAHAEAUIdTable@1@AEAULexTable@LT@@QEAD2H_NW4IDDATATYPE@1@W4IDTYPE@1@@Z ; IT::IsId
  002e3	89 05 00 00 00
	00		 mov	 DWORD PTR ?ID@GM@@3HA, eax ; GM::ID

; 239  : 			strncpy_s(ENTRY.extfunct, data.string, EXT_FUNCTION);

  002e9	48 8b 85 50 0c
	00 00		 mov	 rax, QWORD PTR idtable$[rbp]
  002f0	48 63 40 04	 movsxd	 rax, DWORD PTR [rax+4]
  002f4	48 69 c0 50 fe
	00 00		 imul	 rax, rax, 65104		; 0000fe50H
  002fb	48 8b 8d 50 0c
	00 00		 mov	 rcx, QWORD PTR idtable$[rbp]
  00302	48 8b 49 08	 mov	 rcx, QWORD PTR [rcx+8]
  00306	48 8d 44 01 1a	 lea	 rax, QWORD PTR [rcx+rax+26]
  0030b	41 b8 20 00 00
	00		 mov	 r8d, 32			; 00000020H
  00311	48 8b 8d 60 0c
	00 00		 mov	 rcx, QWORD PTR data$[rbp]
  00318	48 8b 51 20	 mov	 rdx, QWORD PTR [rcx+32]
  0031c	48 8b c8	 mov	 rcx, rax
  0031f	e8 00 00 00 00	 call	 ??$strncpy_s@$0CB@@@YAHAEAY0CB@DPEBD_K@Z ; strncpy_s<33>

; 240  : 			if (strlen(data.string) > EXT_FUNCTION)

  00324	48 8b 85 60 0c
	00 00		 mov	 rax, QWORD PTR data$[rbp]
  0032b	48 8b 48 20	 mov	 rcx, QWORD PTR [rax+32]
  0032f	e8 00 00 00 00	 call	 strlen
  00334	48 83 f8 20	 cmp	 rax, 32			; 00000020H
  00338	76 5e		 jbe	 SHORT $LN8@Identifica

; 241  : 				throw ERROR_THROW_LINE(134, data.count_lines)

  0033a	48 8b 85 60 0c
	00 00		 mov	 rax, QWORD PTR data$[rbp]
  00341	44 8b 40 04	 mov	 r8d, DWORD PTR [rax+4]
  00345	ba 86 00 00 00	 mov	 edx, 134		; 00000086H
  0034a	48 8d 8d a8 05
	00 00		 lea	 rcx, QWORD PTR $T3[rbp]
  00351	e8 00 00 00 00	 call	 ?geterrorline@Error@@YA?AUERROR@1@HH@Z ; Error::geterrorline
  00356	48 8d 8d c0 04
	00 00		 lea	 rcx, QWORD PTR $T2[rbp]
  0035d	48 8b f9	 mov	 rdi, rcx
  00360	48 8b f0	 mov	 rsi, rax
  00363	b9 d0 00 00 00	 mov	 ecx, 208		; 000000d0H
  00368	f3 a4		 rep movsb
  0036a	48 8d 85 d0 03
	00 00		 lea	 rax, QWORD PTR $T1[rbp]
  00371	48 8d 8d c0 04
	00 00		 lea	 rcx, QWORD PTR $T2[rbp]
  00378	48 8b f8	 mov	 rdi, rax
  0037b	48 8b f1	 mov	 rsi, rcx
  0037e	b9 d0 00 00 00	 mov	 ecx, 208		; 000000d0H
  00383	f3 a4		 rep movsb
  00385	48 8d 15 00 00
	00 00		 lea	 rdx, OFFSET FLAT:_TI1?AUERROR@Error@@
  0038c	48 8d 8d d0 03
	00 00		 lea	 rcx, QWORD PTR $T1[rbp]
  00393	e8 00 00 00 00	 call	 _CxxThrowException
$LN8@Identifica:

; 242  : 			strncpy_s(ENTRY.prefix, data.prefix, PREFIX_SIZE);

  00398	48 8b 85 60 0c
	00 00		 mov	 rax, QWORD PTR data$[rbp]
  0039f	48 83 c0 12	 add	 rax, 18
  003a3	48 8b 8d 50 0c
	00 00		 mov	 rcx, QWORD PTR idtable$[rbp]
  003aa	48 63 49 04	 movsxd	 rcx, DWORD PTR [rcx+4]
  003ae	48 69 c9 50 fe
	00 00		 imul	 rcx, rcx, 65104		; 0000fe50H
  003b5	48 8b 95 50 0c
	00 00		 mov	 rdx, QWORD PTR idtable$[rbp]
  003bc	48 8b 52 08	 mov	 rdx, QWORD PTR [rdx+8]
  003c0	48 8d 4c 0a 0f	 lea	 rcx, QWORD PTR [rdx+rcx+15]
  003c5	41 b8 0a 00 00
	00		 mov	 r8d, 10
  003cb	48 8b d0	 mov	 rdx, rax
  003ce	e8 00 00 00 00	 call	 ??$strncpy_s@$0L@@@YAHAEAY0L@DPEBD_K@Z ; strncpy_s<11>

; 243  : 			ENTRY.idxfirstLE = data.count;

  003d3	48 8b 85 50 0c
	00 00		 mov	 rax, QWORD PTR idtable$[rbp]
  003da	48 63 40 04	 movsxd	 rax, DWORD PTR [rax+4]
  003de	48 69 c0 50 fe
	00 00		 imul	 rax, rax, 65104		; 0000fe50H
  003e5	48 8b 8d 50 0c
	00 00		 mov	 rcx, QWORD PTR idtable$[rbp]
  003ec	48 8b 49 08	 mov	 rcx, QWORD PTR [rcx+8]
  003f0	48 8b 95 60 0c
	00 00		 mov	 rdx, QWORD PTR data$[rbp]
  003f7	8b 52 08	 mov	 edx, DWORD PTR [rdx+8]
  003fa	89 14 01	 mov	 DWORD PTR [rcx+rax], edx

; 244  : 			break;

  003fd	e9 46 05 00 00	 jmp	 $LN2@Identifica
$LN9@Identifica:

; 245  : 		}
; 246  : 
; 247  : 		default:
; 248  : 		{
; 249  : 			if (ENTRY.iddatatype)

  00402	48 8b 85 50 0c
	00 00		 mov	 rax, QWORD PTR idtable$[rbp]
  00409	48 63 40 04	 movsxd	 rax, DWORD PTR [rax+4]
  0040d	48 69 c0 50 fe
	00 00		 imul	 rax, rax, 65104		; 0000fe50H
  00414	48 8b 8d 50 0c
	00 00		 mov	 rcx, QWORD PTR idtable$[rbp]
  0041b	48 8b 49 08	 mov	 rcx, QWORD PTR [rcx+8]
  0041f	83 7c 01 40 00	 cmp	 DWORD PTR [rcx+rax+64], 0
  00424	0f 84 8c 03 00
	00		 je	 $LN10@Identifica

; 250  : 			{
; 251  : 				
; 252  : 				if (data.visibility_in_parametres) {

  0042a	48 8b 85 60 0c
	00 00		 mov	 rax, QWORD PTR data$[rbp]
  00431	0f b6 40 29	 movzx	 eax, BYTE PTR [rax+41]
  00435	85 c0		 test	 eax, eax
  00437	0f 84 0d 01 00
	00		 je	 $LN12@Identifica

; 253  : 					if(ENTRY.iddatatype == IT::STR)

  0043d	48 8b 85 50 0c
	00 00		 mov	 rax, QWORD PTR idtable$[rbp]
  00444	48 63 40 04	 movsxd	 rax, DWORD PTR [rax+4]
  00448	48 69 c0 50 fe
	00 00		 imul	 rax, rax, 65104		; 0000fe50H
  0044f	48 8b 8d 50 0c
	00 00		 mov	 rcx, QWORD PTR idtable$[rbp]
  00456	48 8b 49 08	 mov	 rcx, QWORD PTR [rcx+8]
  0045a	83 7c 01 40 02	 cmp	 DWORD PTR [rcx+rax+64], 2
  0045f	75 27		 jne	 SHORT $LN14@Identifica

; 254  : 						ENTRY.idtype = IT::IDTYPE::PA;

  00461	48 8b 85 50 0c
	00 00		 mov	 rax, QWORD PTR idtable$[rbp]
  00468	48 63 40 04	 movsxd	 rax, DWORD PTR [rax+4]
  0046c	48 69 c0 50 fe
	00 00		 imul	 rax, rax, 65104		; 0000fe50H
  00473	48 8b 8d 50 0c
	00 00		 mov	 rcx, QWORD PTR idtable$[rbp]
  0047a	48 8b 49 08	 mov	 rcx, QWORD PTR [rcx+8]
  0047e	c7 44 01 44 0b
	00 00 00	 mov	 DWORD PTR [rcx+rax+68], 11
  00486	eb 25		 jmp	 SHORT $LN15@Identifica
$LN14@Identifica:

; 255  : 					else
; 256  : 						ENTRY.idtype = IT::IDTYPE::P;

  00488	48 8b 85 50 0c
	00 00		 mov	 rax, QWORD PTR idtable$[rbp]
  0048f	48 63 40 04	 movsxd	 rax, DWORD PTR [rax+4]
  00493	48 69 c0 50 fe
	00 00		 imul	 rax, rax, 65104		; 0000fe50H
  0049a	48 8b 8d 50 0c
	00 00		 mov	 rcx, QWORD PTR idtable$[rbp]
  004a1	48 8b 49 08	 mov	 rcx, QWORD PTR [rcx+8]
  004a5	c7 44 01 44 03
	00 00 00	 mov	 DWORD PTR [rcx+rax+68], 3
$LN15@Identifica:

; 257  : 					idtable->table[data.positionfuncID].value.vint++;

  004ad	48 8b 85 60 0c
	00 00		 mov	 rax, QWORD PTR data$[rbp]
  004b4	48 0f be 40 1d	 movsx	 rax, BYTE PTR [rax+29]
  004b9	48 69 c0 50 fe
	00 00		 imul	 rax, rax, 65104		; 0000fe50H
  004c0	48 8b 8d 50 0c
	00 00		 mov	 rcx, QWORD PTR idtable$[rbp]
  004c7	48 8b 49 08	 mov	 rcx, QWORD PTR [rcx+8]
  004cb	8b 44 01 4c	 mov	 eax, DWORD PTR [rcx+rax+76]
  004cf	ff c0		 inc	 eax
  004d1	48 8b 8d 60 0c
	00 00		 mov	 rcx, QWORD PTR data$[rbp]
  004d8	48 0f be 49 1d	 movsx	 rcx, BYTE PTR [rcx+29]
  004dd	48 69 c9 50 fe
	00 00		 imul	 rcx, rcx, 65104		; 0000fe50H
  004e4	48 8b 95 50 0c
	00 00		 mov	 rdx, QWORD PTR idtable$[rbp]
  004eb	48 8b 52 08	 mov	 rdx, QWORD PTR [rdx+8]
  004ef	89 44 0a 4c	 mov	 DWORD PTR [rdx+rcx+76], eax

; 258  : 					if (strlen(data.string) > PREFIX_SIZE)

  004f3	48 8b 85 60 0c
	00 00		 mov	 rax, QWORD PTR data$[rbp]
  004fa	48 8b 48 20	 mov	 rcx, QWORD PTR [rax+32]
  004fe	e8 00 00 00 00	 call	 strlen
  00503	48 83 f8 0a	 cmp	 rax, 10
  00507	76 3c		 jbe	 SHORT $LN16@Identifica

; 259  : 						*stream << "  (" << data.string << ") !\n";

  00509	48 8b 85 68 0c
	00 00		 mov	 rax, QWORD PTR stream$[rbp]
  00510	48 83 c0 10	 add	 rax, 16
  00514	48 8d 15 00 00
	00 00		 lea	 rdx, OFFSET FLAT:??_C@_0BK@HEGKBELI@?H?d?e?m?r?h?t?h?j?$OA?r?n?p?5?o?$OA?p?$OA?l?e?r?p?$OA?5?$CI@
  0051b	48 8b c8	 mov	 rcx, rax
  0051e	e8 00 00 00 00	 call	 ??$?6U?$char_traits@D@std@@@std@@YAAEAV?$basic_ostream@DU?$char_traits@D@std@@@0@AEAV10@PEBD@Z ; std::operator<<<std::char_traits<char> >
  00523	48 8b 8d 60 0c
	00 00		 mov	 rcx, QWORD PTR data$[rbp]
  0052a	48 8b 51 20	 mov	 rdx, QWORD PTR [rcx+32]
  0052e	48 8b c8	 mov	 rcx, rax
  00531	e8 00 00 00 00	 call	 ??$?6U?$char_traits@D@std@@@std@@YAAEAV?$basic_ostream@DU?$char_traits@D@std@@@0@AEAV10@PEBD@Z ; std::operator<<<std::char_traits<char> >
  00536	48 8d 15 00 00
	00 00		 lea	 rdx, OFFSET FLAT:??_C@_0L@OEAAKCBM@?$CJ?5?s?q?e?w?e?m?$CB?6@
  0053d	48 8b c8	 mov	 rcx, rax
  00540	e8 00 00 00 00	 call	 ??$?6U?$char_traits@D@std@@@std@@YAAEAV?$basic_ostream@DU?$char_traits@D@std@@@0@AEAV10@PEBD@Z ; std::operator<<<std::char_traits<char> >
$LN16@Identifica:

; 260  : 				}

  00545	e9 12 01 00 00	 jmp	 $LN13@Identifica
$LN12@Identifica:

; 261  : 				else
; 262  : 				{
; 263  : 					if(ENTRY.idtype != IT::C)

  0054a	48 8b 85 50 0c
	00 00		 mov	 rax, QWORD PTR idtable$[rbp]
  00551	48 63 40 04	 movsxd	 rax, DWORD PTR [rax+4]
  00555	48 69 c0 50 fe
	00 00		 imul	 rax, rax, 65104		; 0000fe50H
  0055c	48 8b 8d 50 0c
	00 00		 mov	 rcx, QWORD PTR idtable$[rbp]
  00563	48 8b 49 08	 mov	 rcx, QWORD PTR [rcx+8]
  00567	83 7c 01 44 08	 cmp	 DWORD PTR [rcx+rax+68], 8
  0056c	74 25		 je	 SHORT $LN17@Identifica

; 264  : 						ENTRY.idtype = IT::IDTYPE::V;

  0056e	48 8b 85 50 0c
	00 00		 mov	 rax, QWORD PTR idtable$[rbp]
  00575	48 63 40 04	 movsxd	 rax, DWORD PTR [rax+4]
  00579	48 69 c0 50 fe
	00 00		 imul	 rax, rax, 65104		; 0000fe50H
  00580	48 8b 8d 50 0c
	00 00		 mov	 rcx, QWORD PTR idtable$[rbp]
  00587	48 8b 49 08	 mov	 rcx, QWORD PTR [rcx+8]
  0058b	c7 44 01 44 01
	00 00 00	 mov	 DWORD PTR [rcx+rax+68], 1
$LN17@Identifica:

; 265  : 					if (strlen(data.string) > PREFIX_SIZE)

  00593	48 8b 85 60 0c
	00 00		 mov	 rax, QWORD PTR data$[rbp]
  0059a	48 8b 48 20	 mov	 rcx, QWORD PTR [rax+32]
  0059e	e8 00 00 00 00	 call	 strlen
  005a3	48 83 f8 0a	 cmp	 rax, 10
  005a7	76 3c		 jbe	 SHORT $LN18@Identifica

; 266  : 						*stream << "  (" << data.string << ") !\n";

  005a9	48 8b 85 68 0c
	00 00		 mov	 rax, QWORD PTR stream$[rbp]
  005b0	48 83 c0 10	 add	 rax, 16
  005b4	48 8d 15 00 00
	00 00		 lea	 rdx, OFFSET FLAT:??_C@_0BM@LIHGGBDC@?H?d?e?m?r?h?t?h?j?$OA?r?n?p?5?o?e?p?e?l?e?m?m?m?n?i?5?$CI@
  005bb	48 8b c8	 mov	 rcx, rax
  005be	e8 00 00 00 00	 call	 ??$?6U?$char_traits@D@std@@@std@@YAAEAV?$basic_ostream@DU?$char_traits@D@std@@@0@AEAV10@PEBD@Z ; std::operator<<<std::char_traits<char> >
  005c3	48 8b 8d 60 0c
	00 00		 mov	 rcx, QWORD PTR data$[rbp]
  005ca	48 8b 51 20	 mov	 rdx, QWORD PTR [rcx+32]
  005ce	48 8b c8	 mov	 rcx, rax
  005d1	e8 00 00 00 00	 call	 ??$?6U?$char_traits@D@std@@@std@@YAAEAV?$basic_ostream@DU?$char_traits@D@std@@@0@AEAV10@PEBD@Z ; std::operator<<<std::char_traits<char> >
  005d6	48 8d 15 00 00
	00 00		 lea	 rdx, OFFSET FLAT:??_C@_0L@OEAAKCBM@?$CJ?5?s?q?e?w?e?m?$CB?6@
  005dd	48 8b c8	 mov	 rcx, rax
  005e0	e8 00 00 00 00	 call	 ??$?6U?$char_traits@D@std@@@std@@YAAEAV?$basic_ostream@DU?$char_traits@D@std@@@0@AEAV10@PEBD@Z ; std::operator<<<std::char_traits<char> >
$LN18@Identifica:

; 267  : 					if(!*data.prefix)

  005e5	b8 01 00 00 00	 mov	 eax, 1
  005ea	48 6b c0 00	 imul	 rax, rax, 0
  005ee	48 8b 8d 60 0c
	00 00		 mov	 rcx, QWORD PTR data$[rbp]
  005f5	0f be 44 01 12	 movsx	 eax, BYTE PTR [rcx+rax+18]
  005fa	85 c0		 test	 eax, eax
  005fc	75 5e		 jne	 SHORT $LN19@Identifica

; 268  : 						throw ERROR_THROW_LINE(137, data.count_lines)

  005fe	48 8b 85 60 0c
	00 00		 mov	 rax, QWORD PTR data$[rbp]
  00605	44 8b 40 04	 mov	 r8d, DWORD PTR [rax+4]
  00609	ba 89 00 00 00	 mov	 edx, 137		; 00000089H
  0060e	48 8d 8d 78 08
	00 00		 lea	 rcx, QWORD PTR $T6[rbp]
  00615	e8 00 00 00 00	 call	 ?geterrorline@Error@@YA?AUERROR@1@HH@Z ; Error::geterrorline
  0061a	48 8d 8d 90 07
	00 00		 lea	 rcx, QWORD PTR $T5[rbp]
  00621	48 8b f9	 mov	 rdi, rcx
  00624	48 8b f0	 mov	 rsi, rax
  00627	b9 d0 00 00 00	 mov	 ecx, 208		; 000000d0H
  0062c	f3 a4		 rep movsb
  0062e	48 8d 85 a0 06
	00 00		 lea	 rax, QWORD PTR $T4[rbp]
  00635	48 8d 8d 90 07
	00 00		 lea	 rcx, QWORD PTR $T5[rbp]
  0063c	48 8b f8	 mov	 rdi, rax
  0063f	48 8b f1	 mov	 rsi, rcx
  00642	b9 d0 00 00 00	 mov	 ecx, 208		; 000000d0H
  00647	f3 a4		 rep movsb
  00649	48 8d 15 00 00
	00 00		 lea	 rdx, OFFSET FLAT:_TI1?AUERROR@Error@@
  00650	48 8d 8d a0 06
	00 00		 lea	 rcx, QWORD PTR $T4[rbp]
  00657	e8 00 00 00 00	 call	 _CxxThrowException
$LN19@Identifica:
$LN13@Identifica:

; 269  : 				}
; 270  : 				ID = IT::IsId(*idtable, *lextable, data.string, data.prefix, data.count_lines, &data.visibility_in_parametres, ENTRY.iddatatype, ENTRY.idtype);

  0065c	48 8b 85 60 0c
	00 00		 mov	 rax, QWORD PTR data$[rbp]
  00663	48 83 c0 29	 add	 rax, 41			; 00000029H
  00667	48 85 c0	 test	 rax, rax
  0066a	74 09		 je	 SHORT $LN26@Identifica
  0066c	c6 85 24 0c 00
	00 01		 mov	 BYTE PTR tv367[rbp], 1
  00673	eb 07		 jmp	 SHORT $LN27@Identifica
$LN26@Identifica:
  00675	c6 85 24 0c 00
	00 00		 mov	 BYTE PTR tv367[rbp], 0
$LN27@Identifica:
  0067c	48 8b 85 50 0c
	00 00		 mov	 rax, QWORD PTR idtable$[rbp]
  00683	48 63 40 04	 movsxd	 rax, DWORD PTR [rax+4]
  00687	48 69 c0 50 fe
	00 00		 imul	 rax, rax, 65104		; 0000fe50H
  0068e	48 8b 8d 50 0c
	00 00		 mov	 rcx, QWORD PTR idtable$[rbp]
  00695	48 8b 49 08	 mov	 rcx, QWORD PTR [rcx+8]
  00699	48 8b 95 50 0c
	00 00		 mov	 rdx, QWORD PTR idtable$[rbp]
  006a0	48 63 52 04	 movsxd	 rdx, DWORD PTR [rdx+4]
  006a4	48 69 d2 50 fe
	00 00		 imul	 rdx, rdx, 65104		; 0000fe50H
  006ab	48 8b bd 50 0c
	00 00		 mov	 rdi, QWORD PTR idtable$[rbp]
  006b2	48 8b 7f 08	 mov	 rdi, QWORD PTR [rdi+8]
  006b6	48 8b b5 60 0c
	00 00		 mov	 rsi, QWORD PTR data$[rbp]
  006bd	48 83 c6 12	 add	 rsi, 18
  006c1	8b 44 01 44	 mov	 eax, DWORD PTR [rcx+rax+68]
  006c5	89 44 24 38	 mov	 DWORD PTR [rsp+56], eax
  006c9	8b 44 17 40	 mov	 eax, DWORD PTR [rdi+rdx+64]
  006cd	89 44 24 30	 mov	 DWORD PTR [rsp+48], eax
  006d1	0f b6 85 24 0c
	00 00		 movzx	 eax, BYTE PTR tv367[rbp]
  006d8	88 44 24 28	 mov	 BYTE PTR [rsp+40], al
  006dc	48 8b 85 60 0c
	00 00		 mov	 rax, QWORD PTR data$[rbp]
  006e3	8b 40 04	 mov	 eax, DWORD PTR [rax+4]
  006e6	89 44 24 20	 mov	 DWORD PTR [rsp+32], eax
  006ea	4c 8b ce	 mov	 r9, rsi
  006ed	48 8b 85 60 0c
	00 00		 mov	 rax, QWORD PTR data$[rbp]
  006f4	4c 8b 40 20	 mov	 r8, QWORD PTR [rax+32]
  006f8	48 8b 95 58 0c
	00 00		 mov	 rdx, QWORD PTR lextable$[rbp]
  006ff	48 8b 8d 50 0c
	00 00		 mov	 rcx, QWORD PTR idtable$[rbp]
  00706	e8 00 00 00 00	 call	 ?IsId@IT@@YAHAEAUIdTable@1@AEAULexTable@LT@@QEAD2H_NW4IDDATATYPE@1@W4IDTYPE@1@@Z ; IT::IsId
  0070b	89 05 00 00 00
	00		 mov	 DWORD PTR ?ID@GM@@3HA, eax ; GM::ID

; 271  : 				strncpy_s(ENTRY.id, data.string, ID_MAXSIZE);

  00711	48 8b 85 50 0c
	00 00		 mov	 rax, QWORD PTR idtable$[rbp]
  00718	48 63 40 04	 movsxd	 rax, DWORD PTR [rax+4]
  0071c	48 69 c0 50 fe
	00 00		 imul	 rax, rax, 65104		; 0000fe50H
  00723	48 8b 8d 50 0c
	00 00		 mov	 rcx, QWORD PTR idtable$[rbp]
  0072a	48 8b 49 08	 mov	 rcx, QWORD PTR [rcx+8]
  0072e	48 8d 44 01 04	 lea	 rax, QWORD PTR [rcx+rax+4]
  00733	41 b8 0a 00 00
	00		 mov	 r8d, 10
  00739	48 8b 8d 60 0c
	00 00		 mov	 rcx, QWORD PTR data$[rbp]
  00740	48 8b 51 20	 mov	 rdx, QWORD PTR [rcx+32]
  00744	48 8b c8	 mov	 rcx, rax
  00747	e8 00 00 00 00	 call	 ??$strncpy_s@$0L@@@YAHAEAY0L@DPEBD_K@Z ; strncpy_s<11>

; 272  : 				strncpy_s(ENTRY.prefix, data.prefix, PREFIX_SIZE);

  0074c	48 8b 85 60 0c
	00 00		 mov	 rax, QWORD PTR data$[rbp]
  00753	48 83 c0 12	 add	 rax, 18
  00757	48 8b 8d 50 0c
	00 00		 mov	 rcx, QWORD PTR idtable$[rbp]
  0075e	48 63 49 04	 movsxd	 rcx, DWORD PTR [rcx+4]
  00762	48 69 c9 50 fe
	00 00		 imul	 rcx, rcx, 65104		; 0000fe50H
  00769	48 8b 95 50 0c
	00 00		 mov	 rdx, QWORD PTR idtable$[rbp]
  00770	48 8b 52 08	 mov	 rdx, QWORD PTR [rdx+8]
  00774	48 8d 4c 0a 0f	 lea	 rcx, QWORD PTR [rdx+rcx+15]
  00779	41 b8 0a 00 00
	00		 mov	 r8d, 10
  0077f	48 8b d0	 mov	 rdx, rax
  00782	e8 00 00 00 00	 call	 ??$strncpy_s@$0L@@@YAHAEAY0L@DPEBD_K@Z ; strncpy_s<11>

; 273  : 				ENTRY.idxfirstLE = data.count;

  00787	48 8b 85 50 0c
	00 00		 mov	 rax, QWORD PTR idtable$[rbp]
  0078e	48 63 40 04	 movsxd	 rax, DWORD PTR [rax+4]
  00792	48 69 c0 50 fe
	00 00		 imul	 rax, rax, 65104		; 0000fe50H
  00799	48 8b 8d 50 0c
	00 00		 mov	 rcx, QWORD PTR idtable$[rbp]
  007a0	48 8b 49 08	 mov	 rcx, QWORD PTR [rcx+8]
  007a4	48 8b 95 60 0c
	00 00		 mov	 rdx, QWORD PTR data$[rbp]
  007ab	8b 52 08	 mov	 edx, DWORD PTR [rdx+8]
  007ae	89 14 01	 mov	 DWORD PTR [rcx+rax], edx

; 274  : 			}

  007b1	e9 92 01 00 00	 jmp	 $LN11@Identifica
$LN10@Identifica:

; 275  : 			else
; 276  : 			{
; 277  : 				strncpy_s(ENTRY.id, data.string, ID_MAXSIZE);

  007b6	48 8b 85 50 0c
	00 00		 mov	 rax, QWORD PTR idtable$[rbp]
  007bd	48 63 40 04	 movsxd	 rax, DWORD PTR [rax+4]
  007c1	48 69 c0 50 fe
	00 00		 imul	 rax, rax, 65104		; 0000fe50H
  007c8	48 8b 8d 50 0c
	00 00		 mov	 rcx, QWORD PTR idtable$[rbp]
  007cf	48 8b 49 08	 mov	 rcx, QWORD PTR [rcx+8]
  007d3	48 8d 44 01 04	 lea	 rax, QWORD PTR [rcx+rax+4]
  007d8	41 b8 0a 00 00
	00		 mov	 r8d, 10
  007de	48 8b 8d 60 0c
	00 00		 mov	 rcx, QWORD PTR data$[rbp]
  007e5	48 8b 51 20	 mov	 rdx, QWORD PTR [rcx+32]
  007e9	48 8b c8	 mov	 rcx, rax
  007ec	e8 00 00 00 00	 call	 ??$strncpy_s@$0L@@@YAHAEAY0L@DPEBD_K@Z ; strncpy_s<11>

; 278  : 				strncpy_s(ENTRY.prefix, data.prefix, PREFIX_SIZE);

  007f1	48 8b 85 60 0c
	00 00		 mov	 rax, QWORD PTR data$[rbp]
  007f8	48 83 c0 12	 add	 rax, 18
  007fc	48 8b 8d 50 0c
	00 00		 mov	 rcx, QWORD PTR idtable$[rbp]
  00803	48 63 49 04	 movsxd	 rcx, DWORD PTR [rcx+4]
  00807	48 69 c9 50 fe
	00 00		 imul	 rcx, rcx, 65104		; 0000fe50H
  0080e	48 8b 95 50 0c
	00 00		 mov	 rdx, QWORD PTR idtable$[rbp]
  00815	48 8b 52 08	 mov	 rdx, QWORD PTR [rdx+8]
  00819	48 8d 4c 0a 0f	 lea	 rcx, QWORD PTR [rdx+rcx+15]
  0081e	41 b8 0a 00 00
	00		 mov	 r8d, 10
  00824	48 8b d0	 mov	 rdx, rax
  00827	e8 00 00 00 00	 call	 ??$strncpy_s@$0L@@@YAHAEAY0L@DPEBD_K@Z ; strncpy_s<11>

; 279  : 				ID = IT::IsId(*idtable, *lextable, data.string, data.prefix, data.count_lines, &data.visibility_in_parametres, ENTRY.iddatatype, ENTRY.idtype);

  0082c	48 8b 85 60 0c
	00 00		 mov	 rax, QWORD PTR data$[rbp]
  00833	48 83 c0 29	 add	 rax, 41			; 00000029H
  00837	48 85 c0	 test	 rax, rax
  0083a	74 09		 je	 SHORT $LN28@Identifica
  0083c	c6 85 24 0c 00
	00 01		 mov	 BYTE PTR tv441[rbp], 1
  00843	eb 07		 jmp	 SHORT $LN29@Identifica
$LN28@Identifica:
  00845	c6 85 24 0c 00
	00 00		 mov	 BYTE PTR tv441[rbp], 0
$LN29@Identifica:
  0084c	48 8b 85 50 0c
	00 00		 mov	 rax, QWORD PTR idtable$[rbp]
  00853	48 63 40 04	 movsxd	 rax, DWORD PTR [rax+4]
  00857	48 69 c0 50 fe
	00 00		 imul	 rax, rax, 65104		; 0000fe50H
  0085e	48 8b 8d 50 0c
	00 00		 mov	 rcx, QWORD PTR idtable$[rbp]
  00865	48 8b 49 08	 mov	 rcx, QWORD PTR [rcx+8]
  00869	48 8b 95 50 0c
	00 00		 mov	 rdx, QWORD PTR idtable$[rbp]
  00870	48 63 52 04	 movsxd	 rdx, DWORD PTR [rdx+4]
  00874	48 69 d2 50 fe
	00 00		 imul	 rdx, rdx, 65104		; 0000fe50H
  0087b	48 8b bd 50 0c
	00 00		 mov	 rdi, QWORD PTR idtable$[rbp]
  00882	48 8b 7f 08	 mov	 rdi, QWORD PTR [rdi+8]
  00886	48 8b b5 60 0c
	00 00		 mov	 rsi, QWORD PTR data$[rbp]
  0088d	48 83 c6 12	 add	 rsi, 18
  00891	8b 44 01 44	 mov	 eax, DWORD PTR [rcx+rax+68]
  00895	89 44 24 38	 mov	 DWORD PTR [rsp+56], eax
  00899	8b 44 17 40	 mov	 eax, DWORD PTR [rdi+rdx+64]
  0089d	89 44 24 30	 mov	 DWORD PTR [rsp+48], eax
  008a1	0f b6 85 24 0c
	00 00		 movzx	 eax, BYTE PTR tv441[rbp]
  008a8	88 44 24 28	 mov	 BYTE PTR [rsp+40], al
  008ac	48 8b 85 60 0c
	00 00		 mov	 rax, QWORD PTR data$[rbp]
  008b3	8b 40 04	 mov	 eax, DWORD PTR [rax+4]
  008b6	89 44 24 20	 mov	 DWORD PTR [rsp+32], eax
  008ba	4c 8b ce	 mov	 r9, rsi
  008bd	48 8b 85 60 0c
	00 00		 mov	 rax, QWORD PTR data$[rbp]
  008c4	4c 8b 40 20	 mov	 r8, QWORD PTR [rax+32]
  008c8	48 8b 95 58 0c
	00 00		 mov	 rdx, QWORD PTR lextable$[rbp]
  008cf	48 8b 8d 50 0c
	00 00		 mov	 rcx, QWORD PTR idtable$[rbp]
  008d6	e8 00 00 00 00	 call	 ?IsId@IT@@YAHAEAUIdTable@1@AEAULexTable@LT@@QEAD2H_NW4IDDATATYPE@1@W4IDTYPE@1@@Z ; IT::IsId
  008db	89 05 00 00 00
	00		 mov	 DWORD PTR ?ID@GM@@3HA, eax ; GM::ID

; 280  : 				if (ID == TI_NULLIDX) throw ERROR_THROW_LINE(133, data.count_lines);

  008e1	83 3d 00 00 00
	00 ff		 cmp	 DWORD PTR ?ID@GM@@3HA, -1 ; GM::ID, ffffffffH
  008e8	75 5e		 jne	 SHORT $LN20@Identifica
  008ea	48 8b 85 60 0c
	00 00		 mov	 rax, QWORD PTR data$[rbp]
  008f1	44 8b 40 04	 mov	 r8d, DWORD PTR [rax+4]
  008f5	ba 85 00 00 00	 mov	 edx, 133		; 00000085H
  008fa	48 8d 8d 48 0b
	00 00		 lea	 rcx, QWORD PTR $T9[rbp]
  00901	e8 00 00 00 00	 call	 ?geterrorline@Error@@YA?AUERROR@1@HH@Z ; Error::geterrorline
  00906	48 8d 8d 60 0a
	00 00		 lea	 rcx, QWORD PTR $T8[rbp]
  0090d	48 8b f9	 mov	 rdi, rcx
  00910	48 8b f0	 mov	 rsi, rax
  00913	b9 d0 00 00 00	 mov	 ecx, 208		; 000000d0H
  00918	f3 a4		 rep movsb
  0091a	48 8d 85 70 09
	00 00		 lea	 rax, QWORD PTR $T7[rbp]
  00921	48 8d 8d 60 0a
	00 00		 lea	 rcx, QWORD PTR $T8[rbp]
  00928	48 8b f8	 mov	 rdi, rax
  0092b	48 8b f1	 mov	 rsi, rcx
  0092e	b9 d0 00 00 00	 mov	 ecx, 208		; 000000d0H
  00933	f3 a4		 rep movsb
  00935	48 8d 15 00 00
	00 00		 lea	 rdx, OFFSET FLAT:_TI1?AUERROR@Error@@
  0093c	48 8d 8d 70 09
	00 00		 lea	 rcx, QWORD PTR $T7[rbp]
  00943	e8 00 00 00 00	 call	 _CxxThrowException
$LN20@Identifica:
$LN11@Identifica:
$LN2@Identifica:
$LN21@Identifica:

; 281  : 			}
; 282  : 			break;
; 283  : 		}
; 284  : 		}
; 285  : 	}

  00948	48 8d a5 30 0c
	00 00		 lea	 rsp, QWORD PTR [rbp+3120]
  0094f	5f		 pop	 rdi
  00950	5e		 pop	 rsi
  00951	5d		 pop	 rbp
  00952	c3		 ret	 0
?IdentificatorCreate@GM@@YAXPEAUIdTable@IT@@PEAULexTable@LT@@AEAUData@1@PEAV?$basic_fstream@DU?$char_traits@D@std@@@std@@@Z ENDP ; GM::IdentificatorCreate
_TEXT	ENDS
; Function compile flags: /Odtp /RTCsu /ZI
; File C:\Users\Skvortsoff\OneDrive\\GitHub\course_LP\course_LP\DP.cpp
;	COMDAT ?dataProcesing@GM@@YAXPEAEPEAV?$basic_fstream@DU?$char_traits@D@std@@@std@@PEAULexTable@LT@@PEAUIdTable@IT@@@Z
_TEXT	SEGMENT
start$ = 8
end$ = 40
data$ = 72
entryLT$5 = 152
$T6 = 1744
$T7 = 1984
$T8 = 2216
$T9 = 2456
$T10 = 2496
$T11 = 2736
$T12 = 2968
$T13 = 3216
$T14 = 3456
$T15 = 3688
$T16 = 3936
$T17 = 69072
$T18 = 69312
$T19 = 69544
$T20 = 69792
$T21 = 70032
$T22 = 70264
$T23 = 70512
$T24 = 135640
$T25 = 135680
$T26 = 135920
$T27 = 136152
$T28 = 136400
$T29 = 136640
$T30 = 136872
$T31 = 137120
$T32 = 137168
$T33 = 137216
$T34 = 137256
$T35 = 202392
tv418 = 267508
tv269 = 267508
tv134 = 267508
__$ArrayPad$ = 267512
text$ = 267552
stream$ = 267560
lextable$ = 267568
idtable$ = 267576
?dataProcesing@GM@@YAXPEAEPEAV?$basic_fstream@DU?$char_traits@D@std@@@std@@PEAULexTable@LT@@PEAUIdTable@IT@@@Z PROC ; GM::dataProcesing, COMDAT

; 13   : 	{

$LN126:
  00000	4c 89 4c 24 20	 mov	 QWORD PTR [rsp+32], r9
  00005	4c 89 44 24 18	 mov	 QWORD PTR [rsp+24], r8
  0000a	48 89 54 24 10	 mov	 QWORD PTR [rsp+16], rdx
  0000f	48 89 4c 24 08	 mov	 QWORD PTR [rsp+8], rcx
  00014	55		 push	 rbp
  00015	56		 push	 rsi
  00016	57		 push	 rdi
  00017	b8 30 15 04 00	 mov	 eax, 267568		; 00041530H
  0001c	e8 00 00 00 00	 call	 __chkstk
  00021	48 2b e0	 sub	 rsp, rax
  00024	48 8d 6c 24 30	 lea	 rbp, QWORD PTR [rsp+48]
  00029	48 8b fc	 mov	 rdi, rsp
  0002c	b9 4c 05 01 00	 mov	 ecx, 66892		; 0001054cH
  00031	b8 cc cc cc cc	 mov	 eax, -858993460		; ccccccccH
  00036	f3 ab		 rep stosd
  00038	48 8b 8c 24 58
	15 04 00	 mov	 rcx, QWORD PTR [rsp+267608]
  00040	48 8b 05 00 00
	00 00		 mov	 rax, QWORD PTR __security_cookie
  00047	48 33 c5	 xor	 rax, rbp
  0004a	48 89 85 f8 14
	04 00		 mov	 QWORD PTR __$ArrayPad$[rbp], rax
  00051	48 8d 0d 00 00
	00 00		 lea	 rcx, OFFSET FLAT:__656A90FE_DP@cpp
  00058	e8 00 00 00 00	 call	 __CheckForDebuggerJustMyCode

; 14   : 		unsigned char* start = text;			//    

  0005d	48 8b 85 20 15
	04 00		 mov	 rax, QWORD PTR text$[rbp]
  00064	48 89 45 08	 mov	 QWORD PTR start$[rbp], rax

; 15   : 		unsigned char* end = start;				//     

  00068	48 8b 45 08	 mov	 rax, QWORD PTR start$[rbp]
  0006c	48 89 45 28	 mov	 QWORD PTR end$[rbp], rax

; 16   : 		Data data;	

  00070	48 8d 4d 48	 lea	 rcx, QWORD PTR data$[rbp]
  00074	e8 00 00 00 00	 call	 ??0Data@GM@@QEAA@XZ	; GM::Data::Data
$LN2@dataProces:

; 17   : 
; 18   : 		while (true)

  00079	33 c0		 xor	 eax, eax
  0007b	83 f8 01	 cmp	 eax, 1
  0007e	0f 84 b5 0a 00
	00		 je	 $LN3@dataProces

; 19   : 		{
; 20   : 			if (!*end) {

  00084	48 8b 45 28	 mov	 rax, QWORD PTR end$[rbp]
  00088	0f b6 00	 movzx	 eax, BYTE PTR [rax]
  0008b	85 c0		 test	 eax, eax
  0008d	75 64		 jne	 SHORT $LN8@dataProces

; 21   : 				if (data.braces)

  0008f	0f be 45 58	 movsx	 eax, BYTE PTR data$[rbp+16]
  00093	85 c0		 test	 eax, eax
  00095	74 57		 je	 SHORT $LN9@dataProces

; 22   : 					throw ERROR_THROW_LINE(135, data.count_lines);

  00097	44 8b 45 4c	 mov	 r8d, DWORD PTR data$[rbp+4]
  0009b	ba 87 00 00 00	 mov	 edx, 135		; 00000087H
  000a0	48 8d 8d a8 08
	00 00		 lea	 rcx, QWORD PTR $T8[rbp]
  000a7	e8 00 00 00 00	 call	 ?geterrorline@Error@@YA?AUERROR@1@HH@Z ; Error::geterrorline
  000ac	48 8d 8d c0 07
	00 00		 lea	 rcx, QWORD PTR $T7[rbp]
  000b3	48 8b f9	 mov	 rdi, rcx
  000b6	48 8b f0	 mov	 rsi, rax
  000b9	b9 d0 00 00 00	 mov	 ecx, 208		; 000000d0H
  000be	f3 a4		 rep movsb
  000c0	48 8d 85 d0 06
	00 00		 lea	 rax, QWORD PTR $T6[rbp]
  000c7	48 8d 8d c0 07
	00 00		 lea	 rcx, QWORD PTR $T7[rbp]
  000ce	48 8b f8	 mov	 rdi, rax
  000d1	48 8b f1	 mov	 rsi, rcx
  000d4	b9 d0 00 00 00	 mov	 ecx, 208		; 000000d0H
  000d9	f3 a4		 rep movsb
  000db	48 8d 15 00 00
	00 00		 lea	 rdx, OFFSET FLAT:_TI1?AUERROR@Error@@
  000e2	48 8d 8d d0 06
	00 00		 lea	 rcx, QWORD PTR $T6[rbp]
  000e9	e8 00 00 00 00	 call	 _CxxThrowException
$LN9@dataProces:

; 23   : 				break;

  000ee	e9 46 0a 00 00	 jmp	 $LN3@dataProces
$LN8@dataProces:

; 24   : 			}
; 25   : 			//if (*start == '|') {
; 26   : 			//	lextable->table->sn++;
; 27   : 			//	start++;
; 28   : 			//	end = start;
; 29   : 			//	continue;
; 30   : 			//}
; 31   : 			if (*end == '.')														// , - float

  000f3	48 8b 45 28	 mov	 rax, QWORD PTR end$[rbp]
  000f7	0f b6 00	 movzx	 eax, BYTE PTR [rax]
  000fa	83 f8 2e	 cmp	 eax, 46			; 0000002eH
  000fd	0f 85 8a 00 00
	00		 jne	 $LN10@dataProces

; 32   : 				if (isdigit(*(end + 1)))

  00103	48 8b 45 28	 mov	 rax, QWORD PTR end$[rbp]
  00107	0f b6 40 01	 movzx	 eax, BYTE PTR [rax+1]
  0010b	8b c8		 mov	 ecx, eax
  0010d	ff 15 00 00 00
	00		 call	 QWORD PTR __imp_isdigit
  00113	85 c0		 test	 eax, eax
  00115	74 0d		 je	 SHORT $LN11@dataProces

; 33   : 					end++;

  00117	48 8b 45 28	 mov	 rax, QWORD PTR end$[rbp]
  0011b	48 ff c0	 inc	 rax
  0011e	48 89 45 28	 mov	 QWORD PTR end$[rbp], rax
  00122	eb 69		 jmp	 SHORT $LN12@dataProces
$LN11@dataProces:

; 34   : 			else if((*end == 'x' || *end == 'b') && isdigit(*(end+1)))				// x- heximal, b- binary

  00124	48 8b 45 28	 mov	 rax, QWORD PTR end$[rbp]
  00128	0f b6 00	 movzx	 eax, BYTE PTR [rax]
  0012b	83 f8 78	 cmp	 eax, 120		; 00000078H
  0012e	74 0c		 je	 SHORT $LN15@dataProces
  00130	48 8b 45 28	 mov	 rax, QWORD PTR end$[rbp]
  00134	0f b6 00	 movzx	 eax, BYTE PTR [rax]
  00137	83 f8 62	 cmp	 eax, 98			; 00000062H
  0013a	75 21		 jne	 SHORT $LN13@dataProces
$LN15@dataProces:
  0013c	48 8b 45 28	 mov	 rax, QWORD PTR end$[rbp]
  00140	0f b6 40 01	 movzx	 eax, BYTE PTR [rax+1]
  00144	8b c8		 mov	 ecx, eax
  00146	ff 15 00 00 00
	00		 call	 QWORD PTR __imp_isdigit
  0014c	85 c0		 test	 eax, eax
  0014e	74 0d		 je	 SHORT $LN13@dataProces

; 35   : 				end++;

  00150	48 8b 45 28	 mov	 rax, QWORD PTR end$[rbp]
  00154	48 ff c0	 inc	 rax
  00157	48 89 45 28	 mov	 QWORD PTR end$[rbp], rax
  0015b	eb 30		 jmp	 SHORT $LN14@dataProces
$LN13@dataProces:

; 36   : 			else if(*end == '_')													// _ - identificator

  0015d	48 8b 45 28	 mov	 rax, QWORD PTR end$[rbp]
  00161	0f b6 00	 movzx	 eax, BYTE PTR [rax]
  00164	83 f8 5f	 cmp	 eax, 95			; 0000005fH
  00167	75 0d		 jne	 SHORT $LN16@dataProces

; 37   : 				end++;

  00169	48 8b 45 28	 mov	 rax, QWORD PTR end$[rbp]
  0016d	48 ff c0	 inc	 rax
  00170	48 89 45 28	 mov	 QWORD PTR end$[rbp], rax
  00174	eb 17		 jmp	 SHORT $LN17@dataProces
$LN16@dataProces:

; 38   : 			else if(*start == '$')													// _ - identificator

  00176	48 8b 45 08	 mov	 rax, QWORD PTR start$[rbp]
  0017a	0f b6 00	 movzx	 eax, BYTE PTR [rax]
  0017d	83 f8 24	 cmp	 eax, 36			; 00000024H
  00180	75 0b		 jne	 SHORT $LN18@dataProces

; 39   : 				end++;

  00182	48 8b 45 28	 mov	 rax, QWORD PTR end$[rbp]
  00186	48 ff c0	 inc	 rax
  00189	48 89 45 28	 mov	 QWORD PTR end$[rbp], rax
$LN18@dataProces:
$LN17@dataProces:
$LN14@dataProces:
$LN12@dataProces:
$LN10@dataProces:

; 40   : 
; 41   : 			switch (*start)

  0018d	48 8b 45 08	 mov	 rax, QWORD PTR start$[rbp]
  00191	0f b6 00	 movzx	 eax, BYTE PTR [rax]
  00194	89 85 f4 14 04
	00		 mov	 DWORD PTR tv134[rbp], eax
  0019a	8b 85 f4 14 04
	00		 mov	 eax, DWORD PTR tv134[rbp]
  001a0	83 e8 21	 sub	 eax, 33			; 00000021H
  001a3	89 85 f4 14 04
	00		 mov	 DWORD PTR tv134[rbp], eax
  001a9	83 bd f4 14 04
	00 5c		 cmp	 DWORD PTR tv134[rbp], 92 ; 0000005cH
  001b0	0f 87 fc 01 00
	00		 ja	 $LN4@dataProces
  001b6	48 63 85 f4 14
	04 00		 movsxd	 rax, DWORD PTR tv134[rbp]
  001bd	48 8d 0d 00 00
	00 00		 lea	 rcx, OFFSET FLAT:__ImageBase
  001c4	0f b6 84 01 00
	00 00 00	 movzx	 eax, BYTE PTR $LN124@dataProces[rcx+rax]
  001cc	8b 84 81 00 00
	00 00		 mov	 eax, DWORD PTR $LN125@dataProces[rcx+rax*4]
  001d3	48 03 c1	 add	 rax, rcx
  001d6	ff e0		 jmp	 rax
$LN19@dataProces:

; 42   : 			{
; 43   : 			case '=':
; 44   : 				if (*end == '=')

  001d8	48 8b 45 28	 mov	 rax, QWORD PTR end$[rbp]
  001dc	0f b6 00	 movzx	 eax, BYTE PTR [rax]
  001df	83 f8 3d	 cmp	 eax, 61			; 0000003dH
  001e2	75 0b		 jne	 SHORT $LN20@dataProces

; 45   : 					end++;

  001e4	48 8b 45 28	 mov	 rax, QWORD PTR end$[rbp]
  001e8	48 ff c0	 inc	 rax
  001eb	48 89 45 28	 mov	 QWORD PTR end$[rbp], rax
$LN20@dataProces:

; 46   : 				break;

  001ef	e9 be 01 00 00	 jmp	 $LN4@dataProces
$LN21@dataProces:

; 47   : 			case '!':
; 48   : 				if (*end == '=')

  001f4	48 8b 45 28	 mov	 rax, QWORD PTR end$[rbp]
  001f8	0f b6 00	 movzx	 eax, BYTE PTR [rax]
  001fb	83 f8 3d	 cmp	 eax, 61			; 0000003dH
  001fe	75 0b		 jne	 SHORT $LN22@dataProces

; 49   : 					end++;

  00200	48 8b 45 28	 mov	 rax, QWORD PTR end$[rbp]
  00204	48 ff c0	 inc	 rax
  00207	48 89 45 28	 mov	 QWORD PTR end$[rbp], rax
$LN22@dataProces:

; 50   : 				break;

  0020b	e9 a2 01 00 00	 jmp	 $LN4@dataProces
$LN23@dataProces:

; 51   : 			case '>':
; 52   : 				if (*end == '=')

  00210	48 8b 45 28	 mov	 rax, QWORD PTR end$[rbp]
  00214	0f b6 00	 movzx	 eax, BYTE PTR [rax]
  00217	83 f8 3d	 cmp	 eax, 61			; 0000003dH
  0021a	75 0d		 jne	 SHORT $LN24@dataProces

; 53   : 					end++;

  0021c	48 8b 45 28	 mov	 rax, QWORD PTR end$[rbp]
  00220	48 ff c0	 inc	 rax
  00223	48 89 45 28	 mov	 QWORD PTR end$[rbp], rax
  00227	eb 17		 jmp	 SHORT $LN25@dataProces
$LN24@dataProces:

; 54   : 				else if (*end == '>')

  00229	48 8b 45 28	 mov	 rax, QWORD PTR end$[rbp]
  0022d	0f b6 00	 movzx	 eax, BYTE PTR [rax]
  00230	83 f8 3e	 cmp	 eax, 62			; 0000003eH
  00233	75 0b		 jne	 SHORT $LN26@dataProces

; 55   : 					end++;

  00235	48 8b 45 28	 mov	 rax, QWORD PTR end$[rbp]
  00239	48 ff c0	 inc	 rax
  0023c	48 89 45 28	 mov	 QWORD PTR end$[rbp], rax
$LN26@dataProces:
$LN25@dataProces:

; 56   : 				break;

  00240	e9 6d 01 00 00	 jmp	 $LN4@dataProces
$LN27@dataProces:

; 57   : 			case '<':
; 58   : 				if (*end == '=')

  00245	48 8b 45 28	 mov	 rax, QWORD PTR end$[rbp]
  00249	0f b6 00	 movzx	 eax, BYTE PTR [rax]
  0024c	83 f8 3d	 cmp	 eax, 61			; 0000003dH
  0024f	75 0d		 jne	 SHORT $LN28@dataProces

; 59   : 					end++;

  00251	48 8b 45 28	 mov	 rax, QWORD PTR end$[rbp]
  00255	48 ff c0	 inc	 rax
  00258	48 89 45 28	 mov	 QWORD PTR end$[rbp], rax
  0025c	eb 17		 jmp	 SHORT $LN29@dataProces
$LN28@dataProces:

; 60   : 				else if (*end == '<')

  0025e	48 8b 45 28	 mov	 rax, QWORD PTR end$[rbp]
  00262	0f b6 00	 movzx	 eax, BYTE PTR [rax]
  00265	83 f8 3c	 cmp	 eax, 60			; 0000003cH
  00268	75 0b		 jne	 SHORT $LN30@dataProces

; 61   : 					end++;

  0026a	48 8b 45 28	 mov	 rax, QWORD PTR end$[rbp]
  0026e	48 ff c0	 inc	 rax
  00271	48 89 45 28	 mov	 QWORD PTR end$[rbp], rax
$LN30@dataProces:
$LN29@dataProces:

; 62   : 				break;

  00275	e9 38 01 00 00	 jmp	 $LN4@dataProces
$LN31@dataProces:

; 63   : 			case '-':
; 64   : 				if (*(start - 1) == '=') {

  0027a	48 8b 45 08	 mov	 rax, QWORD PTR start$[rbp]
  0027e	0f b6 40 ff	 movzx	 eax, BYTE PTR [rax-1]
  00282	83 f8 3d	 cmp	 eax, 61			; 0000003dH
  00285	75 11		 jne	 SHORT $LN32@dataProces

; 65   : 					start++;

  00287	48 8b 45 08	 mov	 rax, QWORD PTR start$[rbp]
  0028b	48 ff c0	 inc	 rax
  0028e	48 89 45 08	 mov	 QWORD PTR start$[rbp], rax

; 66   : 					data.negativeValue = true;

  00292	c6 45 70 01	 mov	 BYTE PTR data$[rbp+40], 1

; 67   : 				}

  00296	eb 18		 jmp	 SHORT $LN33@dataProces
$LN32@dataProces:

; 68   : 				else if(*(start + 1) == '-') {

  00298	48 8b 45 08	 mov	 rax, QWORD PTR start$[rbp]
  0029c	0f b6 40 01	 movzx	 eax, BYTE PTR [rax+1]
  002a0	83 f8 2d	 cmp	 eax, 45			; 0000002dH
  002a3	75 0b		 jne	 SHORT $LN34@dataProces

; 69   : 					end++;

  002a5	48 8b 45 28	 mov	 rax, QWORD PTR end$[rbp]
  002a9	48 ff c0	 inc	 rax
  002ac	48 89 45 28	 mov	 QWORD PTR end$[rbp], rax
$LN34@dataProces:
$LN33@dataProces:

; 70   : 				}
; 71   : 				break;

  002b0	e9 fd 00 00 00	 jmp	 $LN4@dataProces
$LN35@dataProces:

; 72   : 				case '+':
; 73   : 				if (*(start + 1) == '+') {

  002b5	48 8b 45 08	 mov	 rax, QWORD PTR start$[rbp]
  002b9	0f b6 40 01	 movzx	 eax, BYTE PTR [rax+1]
  002bd	83 f8 2b	 cmp	 eax, 43			; 0000002bH
  002c0	75 0b		 jne	 SHORT $LN36@dataProces

; 74   : 					end++;

  002c2	48 8b 45 28	 mov	 rax, QWORD PTR end$[rbp]
  002c6	48 ff c0	 inc	 rax
  002c9	48 89 45 28	 mov	 QWORD PTR end$[rbp], rax
$LN36@dataProces:

; 75   : 				}
; 76   : 				break;

  002cd	e9 e0 00 00 00	 jmp	 $LN4@dataProces
$LN37@dataProces:

; 77   : 			case '{':
; 78   : 				data.braces++;

  002d2	0f b6 45 58	 movzx	 eax, BYTE PTR data$[rbp+16]
  002d6	fe c0		 inc	 al
  002d8	88 45 58	 mov	 BYTE PTR data$[rbp+16], al

; 79   : 				break;

  002db	e9 d2 00 00 00	 jmp	 $LN4@dataProces
$LN38@dataProces:

; 80   : 			case '}':
; 81   : 				data.braces--;

  002e0	0f b6 45 58	 movzx	 eax, BYTE PTR data$[rbp+16]
  002e4	fe c8		 dec	 al
  002e6	88 45 58	 mov	 BYTE PTR data$[rbp+16], al

; 82   : 				if(!data.braces)

  002e9	0f be 45 58	 movsx	 eax, BYTE PTR data$[rbp+16]
  002ed	85 c0		 test	 eax, eax
  002ef	75 11		 jne	 SHORT $LN39@dataProces

; 83   : 					memset(data.prefix, 0, PREFIX_SIZE);

  002f1	41 b8 0a 00 00
	00		 mov	 r8d, 10
  002f7	33 d2		 xor	 edx, edx
  002f9	48 8d 4d 5a	 lea	 rcx, QWORD PTR data$[rbp+18]
  002fd	e8 00 00 00 00	 call	 memset
$LN39@dataProces:

; 84   : 				break;

  00302	e9 ab 00 00 00	 jmp	 $LN4@dataProces
$LN40@dataProces:

; 85   : 			case '[':
; 86   : 				if
; 87   : 					(
; 88   : 					idtable->table[idtable->current_size - 1].iddatatype &&
; 89   : 					idtable->table[idtable->current_size - 1].idtype == IT::V &&

  00307	48 8b 85 38 15
	04 00		 mov	 rax, QWORD PTR idtable$[rbp]
  0030e	8b 40 04	 mov	 eax, DWORD PTR [rax+4]
  00311	ff c8		 dec	 eax
  00313	48 98		 cdqe
  00315	48 69 c0 50 fe
	00 00		 imul	 rax, rax, 65104		; 0000fe50H
  0031c	48 8b 8d 38 15
	04 00		 mov	 rcx, QWORD PTR idtable$[rbp]
  00323	48 8b 49 08	 mov	 rcx, QWORD PTR [rcx+8]
  00327	83 7c 01 40 00	 cmp	 DWORD PTR [rcx+rax+64], 0
  0032c	0f 84 80 00 00
	00		 je	 $LN41@dataProces
  00332	48 8b 85 38 15
	04 00		 mov	 rax, QWORD PTR idtable$[rbp]
  00339	8b 40 04	 mov	 eax, DWORD PTR [rax+4]
  0033c	ff c8		 dec	 eax
  0033e	48 98		 cdqe
  00340	48 69 c0 50 fe
	00 00		 imul	 rax, rax, 65104		; 0000fe50H
  00347	48 8b 8d 38 15
	04 00		 mov	 rcx, QWORD PTR idtable$[rbp]
  0034e	48 8b 49 08	 mov	 rcx, QWORD PTR [rcx+8]
  00352	83 7c 01 44 01	 cmp	 DWORD PTR [rcx+rax+68], 1
  00357	75 59		 jne	 SHORT $LN41@dataProces
  00359	48 8b 85 38 15
	04 00		 mov	 rax, QWORD PTR idtable$[rbp]
  00360	8b 40 04	 mov	 eax, DWORD PTR [rax+4]
  00363	ff c8		 dec	 eax
  00365	48 98		 cdqe
  00367	48 69 c0 50 fe
	00 00		 imul	 rax, rax, 65104		; 0000fe50H
  0036e	48 8b 8d 38 15
	04 00		 mov	 rcx, QWORD PTR idtable$[rbp]
  00375	48 8b 49 08	 mov	 rcx, QWORD PTR [rcx+8]
  00379	48 8b 95 30 15
	04 00		 mov	 rdx, QWORD PTR lextable$[rbp]
  00380	8b 52 04	 mov	 edx, DWORD PTR [rdx+4]
  00383	ff ca		 dec	 edx
  00385	39 14 01	 cmp	 DWORD PTR [rcx+rax], edx
  00388	75 28		 jne	 SHORT $LN41@dataProces

; 90   : 					idtable->table[idtable->current_size - 1].idxfirstLE == lextable->size - 1
; 91   : 					)
; 92   : 					idtable->table[idtable->current_size-1].idtype = IT::A;

  0038a	48 8b 85 38 15
	04 00		 mov	 rax, QWORD PTR idtable$[rbp]
  00391	8b 40 04	 mov	 eax, DWORD PTR [rax+4]
  00394	ff c8		 dec	 eax
  00396	48 98		 cdqe
  00398	48 69 c0 50 fe
	00 00		 imul	 rax, rax, 65104		; 0000fe50H
  0039f	48 8b 8d 38 15
	04 00		 mov	 rcx, QWORD PTR idtable$[rbp]
  003a6	48 8b 49 08	 mov	 rcx, QWORD PTR [rcx+8]
  003aa	c7 44 01 44 07
	00 00 00	 mov	 DWORD PTR [rcx+rax+68], 7
$LN41@dataProces:
$LN4@dataProces:

; 93   : 				break;
; 94   : 			
; 95   : 			}
; 96   : 
; 97   : 			if ((!alphaCirillicDigit(*end) || !alphaCirillicDigit(*start)) && !data.switch_string)		//  ,     

  003b2	48 8b 45 28	 mov	 rax, QWORD PTR end$[rbp]
  003b6	0f b6 08	 movzx	 ecx, BYTE PTR [rax]
  003b9	e8 00 00 00 00	 call	 ?alphaCirillicDigit@GM@@YA_ND@Z ; GM::alphaCirillicDigit
  003be	0f b6 c0	 movzx	 eax, al
  003c1	85 c0		 test	 eax, eax
  003c3	74 17		 je	 SHORT $LN43@dataProces
  003c5	48 8b 45 08	 mov	 rax, QWORD PTR start$[rbp]
  003c9	0f b6 08	 movzx	 ecx, BYTE PTR [rax]
  003cc	e8 00 00 00 00	 call	 ?alphaCirillicDigit@GM@@YA_ND@Z ; GM::alphaCirillicDigit
  003d1	0f b6 c0	 movzx	 eax, al
  003d4	85 c0		 test	 eax, eax
  003d6	0f 85 e0 06 00
	00		 jne	 $LN42@dataProces
$LN43@dataProces:
  003dc	0f b6 45 48	 movzx	 eax, BYTE PTR data$[rbp]
  003e0	85 c0		 test	 eax, eax
  003e2	0f 85 d4 06 00
	00		 jne	 $LN42@dataProces

; 98   : 			{
; 99   : 				if (data.negativeValue) {

  003e8	0f b6 45 70	 movzx	 eax, BYTE PTR data$[rbp+40]
  003ec	85 c0		 test	 eax, eax
  003ee	74 0f		 je	 SHORT $LN44@dataProces

; 100  : 					start--;

  003f0	48 8b 45 08	 mov	 rax, QWORD PTR start$[rbp]
  003f4	48 ff c8	 dec	 rax
  003f7	48 89 45 08	 mov	 QWORD PTR start$[rbp], rax

; 101  : 					data.negativeValue = false;

  003fb	c6 45 70 00	 mov	 BYTE PTR data$[rbp+40], 0
$LN44@dataProces:

; 102  : 				}
; 103  : 
; 104  : 				data.string = new  char[end - start + 2];

  003ff	48 8b 45 08	 mov	 rax, QWORD PTR start$[rbp]
  00403	48 8b 4d 28	 mov	 rcx, QWORD PTR end$[rbp]
  00407	48 2b c8	 sub	 rcx, rax
  0040a	48 8b c1	 mov	 rax, rcx
  0040d	48 83 c0 02	 add	 rax, 2
  00411	48 8b c8	 mov	 rcx, rax
  00414	e8 00 00 00 00	 call	 ??_U@YAPEAX_K@Z		; operator new[]
  00419	48 89 85 98 09
	00 00		 mov	 QWORD PTR $T9[rbp], rax
  00420	48 8b 85 98 09
	00 00		 mov	 rax, QWORD PTR $T9[rbp]
  00427	48 89 45 68	 mov	 QWORD PTR data$[rbp+32], rax

; 105  : 				strncpy(data.string, (char*)start, end - start);

  0042b	48 8b 45 08	 mov	 rax, QWORD PTR start$[rbp]
  0042f	48 8b 4d 28	 mov	 rcx, QWORD PTR end$[rbp]
  00433	48 2b c8	 sub	 rcx, rax
  00436	48 8b c1	 mov	 rax, rcx
  00439	4c 8b c0	 mov	 r8, rax
  0043c	48 8b 55 08	 mov	 rdx, QWORD PTR start$[rbp]
  00440	48 8b 4d 68	 mov	 rcx, QWORD PTR data$[rbp+32]
  00444	ff 15 00 00 00
	00		 call	 QWORD PTR __imp_strncpy

; 106  : 				data.string[end - start] = STR_ENDL;

  0044a	48 8b 45 08	 mov	 rax, QWORD PTR start$[rbp]
  0044e	48 8b 4d 28	 mov	 rcx, QWORD PTR end$[rbp]
  00452	48 2b c8	 sub	 rcx, rax
  00455	48 8b c1	 mov	 rax, rcx
  00458	48 8b 4d 68	 mov	 rcx, QWORD PTR data$[rbp+32]
  0045c	c6 04 01 00	 mov	 BYTE PTR [rcx+rax], 0

; 107  : 
; 108  : 				if (*data.string == NEGATIVE && lextable->table[lextable->size - 1].lexema[0] == LEX_EQUALS)

  00460	48 8b 45 68	 mov	 rax, QWORD PTR data$[rbp+32]
  00464	0f be 00	 movsx	 eax, BYTE PTR [rax]
  00467	83 f8 2d	 cmp	 eax, 45			; 0000002dH
  0046a	75 39		 jne	 SHORT $LN45@dataProces
  0046c	48 8b 85 30 15
	04 00		 mov	 rax, QWORD PTR lextable$[rbp]
  00473	8b 40 04	 mov	 eax, DWORD PTR [rax+4]
  00476	ff c8		 dec	 eax
  00478	48 98		 cdqe
  0047a	48 6b c0 10	 imul	 rax, rax, 16
  0047e	48 8b 8d 30 15
	04 00		 mov	 rcx, QWORD PTR lextable$[rbp]
  00485	48 8b 49 08	 mov	 rcx, QWORD PTR [rcx+8]
  00489	48 03 c8	 add	 rcx, rax
  0048c	48 8b c1	 mov	 rax, rcx
  0048f	b9 01 00 00 00	 mov	 ecx, 1
  00494	48 6b c9 00	 imul	 rcx, rcx, 0
  00498	0f be 04 08	 movsx	 eax, BYTE PTR [rax+rcx]
  0049c	83 f8 63	 cmp	 eax, 99			; 00000063H
  0049f	75 04		 jne	 SHORT $LN45@dataProces

; 109  : 					data.negativeValue = true;

  004a1	c6 45 70 01	 mov	 BYTE PTR data$[rbp+40], 1
$LN45@dataProces:

; 110  : 
; 111  :  				data.token = TOKEN;												//   

  004a5	48 8b 85 38 15
	04 00		 mov	 rax, QWORD PTR idtable$[rbp]
  004ac	48 63 40 04	 movsxd	 rax, DWORD PTR [rax+4]
  004b0	48 69 c0 50 fe
	00 00		 imul	 rax, rax, 65104		; 0000fe50H
  004b7	48 8b 8d 38 15
	04 00		 mov	 rcx, QWORD PTR idtable$[rbp]
  004be	48 03 41 08	 add	 rax, QWORD PTR [rcx+8]
  004c2	48 8b d0	 mov	 rdx, rax
  004c5	48 8b 4d 68	 mov	 rcx, QWORD PTR data$[rbp+32]
  004c9	e8 00 00 00 00	 call	 ?token_rekognizer@GM@@YADPEADPEAUEntry@IT@@@Z ; GM::token_rekognizer
  004ce	88 45 59	 mov	 BYTE PTR data$[rbp+17], al

; 112  : 
; 113  : 				data.count = lextable->size;

  004d1	48 8b 85 30 15
	04 00		 mov	 rax, QWORD PTR lextable$[rbp]
  004d8	8b 40 04	 mov	 eax, DWORD PTR [rax+4]
  004db	89 45 50	 mov	 DWORD PTR data$[rbp+8], eax

; 114  : 				if (!data.token) 

  004de	0f be 45 59	 movsx	 eax, BYTE PTR data$[rbp+17]
  004e2	85 c0		 test	 eax, eax
  004e4	75 57		 jne	 SHORT $LN46@dataProces

; 115  : 				{
; 116  : 					throw ERROR_THROW_LINE(128, data.count_lines);				//     

  004e6	44 8b 45 4c	 mov	 r8d, DWORD PTR data$[rbp+4]
  004ea	ba 80 00 00 00	 mov	 edx, 128		; 00000080H
  004ef	48 8d 8d 98 0b
	00 00		 lea	 rcx, QWORD PTR $T12[rbp]
  004f6	e8 00 00 00 00	 call	 ?geterrorline@Error@@YA?AUERROR@1@HH@Z ; Error::geterrorline
  004fb	48 8d 8d b0 0a
	00 00		 lea	 rcx, QWORD PTR $T11[rbp]
  00502	48 8b f9	 mov	 rdi, rcx
  00505	48 8b f0	 mov	 rsi, rax
  00508	b9 d0 00 00 00	 mov	 ecx, 208		; 000000d0H
  0050d	f3 a4		 rep movsb
  0050f	48 8d 85 c0 09
	00 00		 lea	 rax, QWORD PTR $T10[rbp]
  00516	48 8d 8d b0 0a
	00 00		 lea	 rcx, QWORD PTR $T11[rbp]
  0051d	48 8b f8	 mov	 rdi, rax
  00520	48 8b f1	 mov	 rsi, rcx
  00523	b9 d0 00 00 00	 mov	 ecx, 208		; 000000d0H
  00528	f3 a4		 rep movsb
  0052a	48 8d 15 00 00
	00 00		 lea	 rdx, OFFSET FLAT:_TI1?AUERROR@Error@@
  00531	48 8d 8d c0 09
	00 00		 lea	 rcx, QWORD PTR $T10[rbp]
  00538	e8 00 00 00 00	 call	 _CxxThrowException
$LN46@dataProces:

; 117  : 				}
; 118  : 
; 119  : 				LT::Entry entryLT = LT::Create(data.token, data.count_lines);

  0053d	44 8b 45 4c	 mov	 r8d, DWORD PTR data$[rbp+4]
  00541	0f b6 55 59	 movzx	 edx, BYTE PTR data$[rbp+17]
  00545	48 8d 8d 98 00
	00 00		 lea	 rcx, QWORD PTR entryLT$5[rbp]
  0054c	e8 00 00 00 00	 call	 ?Create@LT@@YA?AUEntry@1@DH@Z ; LT::Create

; 120  : 
; 121  : 				switch (data.token) {

  00551	0f be 45 59	 movsx	 eax, BYTE PTR data$[rbp+17]
  00555	89 85 f4 14 04
	00		 mov	 DWORD PTR tv269[rbp], eax
  0055b	8b 85 f4 14 04
	00		 mov	 eax, DWORD PTR tv269[rbp]
  00561	83 e8 29	 sub	 eax, 41			; 00000029H
  00564	89 85 f4 14 04
	00		 mov	 DWORD PTR tv269[rbp], eax
  0056a	83 bd f4 14 04
	00 54		 cmp	 DWORD PTR tv269[rbp], 84 ; 00000054H
  00571	0f 87 f8 04 00
	00		 ja	 $LN6@dataProces
  00577	48 63 85 f4 14
	04 00		 movsxd	 rax, DWORD PTR tv269[rbp]
  0057e	48 8d 0d 00 00
	00 00		 lea	 rcx, OFFSET FLAT:__ImageBase
  00585	0f b6 84 01 00
	00 00 00	 movzx	 eax, BYTE PTR $LN122@dataProces[rcx+rax]
  0058d	8b 84 81 00 00
	00 00		 mov	 eax, DWORD PTR $LN123@dataProces[rcx+rax*4]
  00594	48 03 c1	 add	 rax, rcx
  00597	ff e0		 jmp	 rax
$LN47@dataProces:

; 122  : 				case LEX_FUNCTION:
; 123  : 					data.datatype = idtable->table[idtable->current_size].iddatatype;

  00599	48 8b 85 38 15
	04 00		 mov	 rax, QWORD PTR idtable$[rbp]
  005a0	48 63 40 04	 movsxd	 rax, DWORD PTR [rax+4]
  005a4	48 69 c0 50 fe
	00 00		 imul	 rax, rax, 65104		; 0000fe50H
  005ab	48 8b 8d 38 15
	04 00		 mov	 rcx, QWORD PTR idtable$[rbp]
  005b2	48 8b 49 08	 mov	 rcx, QWORD PTR [rcx+8]
  005b6	8b 44 01 40	 mov	 eax, DWORD PTR [rcx+rax+64]
  005ba	89 45 74	 mov	 DWORD PTR data$[rbp+44], eax

; 124  : 					data.visibility_in_parametres = true;

  005bd	c6 45 71 01	 mov	 BYTE PTR data$[rbp+41], 1

; 125  : 					data.positionfuncID = idtable->current_size;

  005c1	48 8b 85 38 15
	04 00		 mov	 rax, QWORD PTR idtable$[rbp]
  005c8	0f b6 40 04	 movzx	 eax, BYTE PTR [rax+4]
  005cc	88 45 65	 mov	 BYTE PTR data$[rbp+29], al

; 126  : 					if (data.braces)

  005cf	0f be 45 58	 movsx	 eax, BYTE PTR data$[rbp+16]
  005d3	85 c0		 test	 eax, eax
  005d5	74 57		 je	 SHORT $LN48@dataProces

; 127  : 						throw ERROR_THROW_LINE(135, data.count_lines);

  005d7	44 8b 45 4c	 mov	 r8d, DWORD PTR data$[rbp+4]
  005db	ba 87 00 00 00	 mov	 edx, 135		; 00000087H
  005e0	48 8d 8d 68 0e
	00 00		 lea	 rcx, QWORD PTR $T15[rbp]
  005e7	e8 00 00 00 00	 call	 ?geterrorline@Error@@YA?AUERROR@1@HH@Z ; Error::geterrorline
  005ec	48 8d 8d 80 0d
	00 00		 lea	 rcx, QWORD PTR $T14[rbp]
  005f3	48 8b f9	 mov	 rdi, rcx
  005f6	48 8b f0	 mov	 rsi, rax
  005f9	b9 d0 00 00 00	 mov	 ecx, 208		; 000000d0H
  005fe	f3 a4		 rep movsb
  00600	48 8d 85 90 0c
	00 00		 lea	 rax, QWORD PTR $T13[rbp]
  00607	48 8d 8d 80 0d
	00 00		 lea	 rcx, QWORD PTR $T14[rbp]
  0060e	48 8b f8	 mov	 rdi, rax
  00611	48 8b f1	 mov	 rsi, rcx
  00614	b9 d0 00 00 00	 mov	 ecx, 208		; 000000d0H
  00619	f3 a4		 rep movsb
  0061b	48 8d 15 00 00
	00 00		 lea	 rdx, OFFSET FLAT:_TI1?AUERROR@Error@@
  00622	48 8d 8d 90 0c
	00 00		 lea	 rcx, QWORD PTR $T13[rbp]
  00629	e8 00 00 00 00	 call	 _CxxThrowException
$LN48@dataProces:

; 128  : 					break;

  0062e	e9 3c 04 00 00	 jmp	 $LN6@dataProces
$LN49@dataProces:

; 129  : 				case LEX_SQUARE_LEFT:
; 130  : 					if (idtable->table[idtable->current_size-1].idtype == IT::P)

  00633	48 8b 85 38 15
	04 00		 mov	 rax, QWORD PTR idtable$[rbp]
  0063a	8b 40 04	 mov	 eax, DWORD PTR [rax+4]
  0063d	ff c8		 dec	 eax
  0063f	48 98		 cdqe
  00641	48 69 c0 50 fe
	00 00		 imul	 rax, rax, 65104		; 0000fe50H
  00648	48 8b 8d 38 15
	04 00		 mov	 rcx, QWORD PTR idtable$[rbp]
  0064f	48 8b 49 08	 mov	 rcx, QWORD PTR [rcx+8]
  00653	83 7c 01 44 03	 cmp	 DWORD PTR [rcx+rax+68], 3
  00658	75 28		 jne	 SHORT $LN50@dataProces

; 131  : 						idtable->table[idtable->current_size-1].idtype = IT::PA;

  0065a	48 8b 85 38 15
	04 00		 mov	 rax, QWORD PTR idtable$[rbp]
  00661	8b 40 04	 mov	 eax, DWORD PTR [rax+4]
  00664	ff c8		 dec	 eax
  00666	48 98		 cdqe
  00668	48 69 c0 50 fe
	00 00		 imul	 rax, rax, 65104		; 0000fe50H
  0066f	48 8b 8d 38 15
	04 00		 mov	 rcx, QWORD PTR idtable$[rbp]
  00676	48 8b 49 08	 mov	 rcx, QWORD PTR [rcx+8]
  0067a	c7 44 01 44 0b
	00 00 00	 mov	 DWORD PTR [rcx+rax+68], 11
$LN50@dataProces:

; 132  : 					break;

  00682	e9 e8 03 00 00	 jmp	 $LN6@dataProces
$LN51@dataProces:

; 133  : 				case LEX_RIGHTESIS:
; 134  : 				{
; 135  : 					data.visibility_in_parametres = false;

  00687	c6 45 71 00	 mov	 BYTE PTR data$[rbp+41], 0

; 136  : 					data.positionfuncID = -1;

  0068b	c6 45 65 ff	 mov	 BYTE PTR data$[rbp+29], -1

; 137  : 					break;

  0068f	e9 db 03 00 00	 jmp	 $LN6@dataProces
$LN52@dataProces:

; 138  : 				}
; 139  : 				case LEX_LITERAL:
; 140  : 					if (data.visibility_in_parametres)

  00694	0f b6 45 71	 movzx	 eax, BYTE PTR data$[rbp+41]
  00698	85 c0		 test	 eax, eax
  0069a	74 25		 je	 SHORT $LN53@dataProces

; 141  : 					idtable->table[idtable->current_size].idtype = IT::P;

  0069c	48 8b 85 38 15
	04 00		 mov	 rax, QWORD PTR idtable$[rbp]
  006a3	48 63 40 04	 movsxd	 rax, DWORD PTR [rax+4]
  006a7	48 69 c0 50 fe
	00 00		 imul	 rax, rax, 65104		; 0000fe50H
  006ae	48 8b 8d 38 15
	04 00		 mov	 rcx, QWORD PTR idtable$[rbp]
  006b5	48 8b 49 08	 mov	 rcx, QWORD PTR [rcx+8]
  006b9	c7 44 01 44 03
	00 00 00	 mov	 DWORD PTR [rcx+rax+68], 3
$LN53@dataProces:

; 142  : 					ID = LiteralCreate(*idtable,*lextable, data.string, data.count_lines, data.negativeValue, data.visibility_in_parametres);

  006c1	48 8d 85 d0 17
	02 00		 lea	 rax, QWORD PTR $T32[rbp]
  006c8	48 8b f8	 mov	 rdi, rax
  006cb	48 8b b5 30 15
	04 00		 mov	 rsi, QWORD PTR lextable$[rbp]
  006d2	b9 10 00 00 00	 mov	 ecx, 16
  006d7	f3 a4		 rep movsb
  006d9	48 8d 85 a0 17
	02 00		 lea	 rax, QWORD PTR $T31[rbp]
  006e0	48 8b f8	 mov	 rdi, rax
  006e3	48 8b b5 38 15
	04 00		 mov	 rsi, QWORD PTR idtable$[rbp]
  006ea	b9 10 00 00 00	 mov	 ecx, 16
  006ef	f3 a4		 rep movsb
  006f1	0f b6 45 71	 movzx	 eax, BYTE PTR data$[rbp+41]
  006f5	88 44 24 28	 mov	 BYTE PTR [rsp+40], al
  006f9	48 8d 45 70	 lea	 rax, QWORD PTR data$[rbp+40]
  006fd	48 89 44 24 20	 mov	 QWORD PTR [rsp+32], rax
  00702	44 8b 4d 4c	 mov	 r9d, DWORD PTR data$[rbp+4]
  00706	4c 8b 45 68	 mov	 r8, QWORD PTR data$[rbp+32]
  0070a	48 8d 95 d0 17
	02 00		 lea	 rdx, QWORD PTR $T32[rbp]
  00711	48 8d 8d a0 17
	02 00		 lea	 rcx, QWORD PTR $T31[rbp]
  00718	e8 00 00 00 00	 call	 ?LiteralCreate@IT@@YAHUIdTable@1@ULexTable@LT@@PEADHAEA_N_N@Z ; IT::LiteralCreate
  0071d	89 05 00 00 00
	00		 mov	 DWORD PTR ?ID@GM@@3HA, eax ; GM::ID

; 143  : 					if (ID == TI_NULLIDX) {

  00723	83 3d 00 00 00
	00 ff		 cmp	 DWORD PTR ?ID@GM@@3HA, -1 ; GM::ID, ffffffffH
  0072a	0f 85 83 00 00
	00		 jne	 $LN54@dataProces

; 144  : 						entryLT.idxTI = idtable->current_size;

  00730	48 8b 85 38 15
	04 00		 mov	 rax, QWORD PTR idtable$[rbp]
  00737	8b 40 04	 mov	 eax, DWORD PTR [rax+4]
  0073a	89 85 a4 00 00
	00		 mov	 DWORD PTR entryLT$5[rbp+12], eax

; 145  : 						idtable->table[idtable->current_size].idxfirstLE = lextable->size;

  00740	48 8b 85 38 15
	04 00		 mov	 rax, QWORD PTR idtable$[rbp]
  00747	48 63 40 04	 movsxd	 rax, DWORD PTR [rax+4]
  0074b	48 69 c0 50 fe
	00 00		 imul	 rax, rax, 65104		; 0000fe50H
  00752	48 8b 8d 38 15
	04 00		 mov	 rcx, QWORD PTR idtable$[rbp]
  00759	48 8b 49 08	 mov	 rcx, QWORD PTR [rcx+8]
  0075d	48 8b 95 30 15
	04 00		 mov	 rdx, QWORD PTR lextable$[rbp]
  00764	8b 52 04	 mov	 edx, DWORD PTR [rdx+4]
  00767	89 14 01	 mov	 DWORD PTR [rcx+rax], edx

; 146  : 						IT::Add(*idtable, ENTRY);

  0076a	48 8b 85 38 15
	04 00		 mov	 rax, QWORD PTR idtable$[rbp]
  00771	48 63 40 04	 movsxd	 rax, DWORD PTR [rax+4]
  00775	48 69 c0 50 fe
	00 00		 imul	 rax, rax, 65104		; 0000fe50H
  0077c	48 8b 8d 38 15
	04 00		 mov	 rcx, QWORD PTR idtable$[rbp]
  00783	48 03 41 08	 add	 rax, QWORD PTR [rcx+8]
  00787	48 8d 8d 98 16
	03 00		 lea	 rcx, QWORD PTR $T35[rbp]
  0078e	48 8b f9	 mov	 rdi, rcx
  00791	48 8b f0	 mov	 rsi, rax
  00794	b9 50 fe 00 00	 mov	 ecx, 65104		; 0000fe50H
  00799	f3 a4		 rep movsb
  0079b	48 8d 85 98 16
	03 00		 lea	 rax, QWORD PTR $T35[rbp]
  007a2	48 8b d0	 mov	 rdx, rax
  007a5	48 8b 8d 38 15
	04 00		 mov	 rcx, QWORD PTR idtable$[rbp]
  007ac	e8 00 00 00 00	 call	 ?Add@IT@@YAXAEAUIdTable@1@UEntry@1@@Z ; IT::Add

; 147  : 					}

  007b1	eb 42		 jmp	 SHORT $LN55@dataProces
$LN54@dataProces:

; 148  : 					else {
; 149  : 						entryLT.idxTI = ID;

  007b3	8b 05 00 00 00
	00		 mov	 eax, DWORD PTR ?ID@GM@@3HA ; GM::ID
  007b9	89 85 a4 00 00
	00		 mov	 DWORD PTR entryLT$5[rbp+12], eax

; 150  : 						idtable->table[idtable->current_size] = IT::Reset();

  007bf	48 8d 8d 60 0f
	00 00		 lea	 rcx, QWORD PTR $T16[rbp]
  007c6	e8 00 00 00 00	 call	 ?Reset@IT@@YA?AUEntry@1@XZ ; IT::Reset
  007cb	48 8b 8d 38 15
	04 00		 mov	 rcx, QWORD PTR idtable$[rbp]
  007d2	48 63 49 04	 movsxd	 rcx, DWORD PTR [rcx+4]
  007d6	48 69 c9 50 fe
	00 00		 imul	 rcx, rcx, 65104		; 0000fe50H
  007dd	48 8b 95 38 15
	04 00		 mov	 rdx, QWORD PTR idtable$[rbp]
  007e4	48 03 4a 08	 add	 rcx, QWORD PTR [rdx+8]
  007e8	48 8b f9	 mov	 rdi, rcx
  007eb	48 8b f0	 mov	 rsi, rax
  007ee	b9 50 fe 00 00	 mov	 ecx, 65104		; 0000fe50H
  007f3	f3 a4		 rep movsb
$LN55@dataProces:

; 151  : 					}
; 152  : 					break;

  007f5	e9 75 02 00 00	 jmp	 $LN6@dataProces
$LN56@dataProces:

; 153  : 				case LEX_INCORDEC:
; 154  : 				case EXPRESSIONS:
; 155  : 				case LOGICALS:
; 156  : 				case BINARY:
; 157  : 					entryLT.expression[0] = data.string[0];

  007fa	b8 01 00 00 00	 mov	 eax, 1
  007ff	48 6b c0 00	 imul	 rax, rax, 0
  00803	b9 01 00 00 00	 mov	 ecx, 1
  00808	48 6b c9 00	 imul	 rcx, rcx, 0
  0080c	48 8b 55 68	 mov	 rdx, QWORD PTR data$[rbp+32]
  00810	0f b6 04 02	 movzx	 eax, BYTE PTR [rdx+rax]
  00814	88 84 0d 9a 00
	00 00		 mov	 BYTE PTR entryLT$5[rbp+rcx+2], al

; 158  : 					entryLT.expression[1] = data.string[1];

  0081b	b8 01 00 00 00	 mov	 eax, 1
  00820	48 6b c0 01	 imul	 rax, rax, 1
  00824	b9 01 00 00 00	 mov	 ecx, 1
  00829	48 6b c9 01	 imul	 rcx, rcx, 1
  0082d	48 8b 55 68	 mov	 rdx, QWORD PTR data$[rbp+32]
  00831	0f b6 04 02	 movzx	 eax, BYTE PTR [rdx+rax]
  00835	88 84 0d 9a 00
	00 00		 mov	 BYTE PTR entryLT$5[rbp+rcx+2], al

; 159  : 					entryLT.expression[2] = STR_ENDL;

  0083c	b8 01 00 00 00	 mov	 eax, 1
  00841	48 6b c0 02	 imul	 rax, rax, 2
  00845	c6 84 05 9a 00
	00 00 00	 mov	 BYTE PTR entryLT$5[rbp+rax+2], 0

; 160  : 					break;

  0084d	e9 1d 02 00 00	 jmp	 $LN6@dataProces
$LN57@dataProces:

; 161  : 				case LEX_RETURN:
; 162  : 					data.check_type_return = true;

  00852	c6 45 72 01	 mov	 BYTE PTR data$[rbp+42], 1

; 163  : 					break;

  00856	e9 14 02 00 00	 jmp	 $LN6@dataProces
$LN58@dataProces:

; 164  : 				case LEX_RIGHTBRACE:
; 165  : 					if (data.braces <= -1)

  0085b	0f be 45 58	 movsx	 eax, BYTE PTR data$[rbp+16]
  0085f	83 f8 ff	 cmp	 eax, -1
  00862	7f 57		 jg	 SHORT $LN59@dataProces

; 166  : 						throw ERROR_THROW_LINE(136, data.count_lines);

  00864	44 8b 45 4c	 mov	 r8d, DWORD PTR data$[rbp+4]
  00868	ba 88 00 00 00	 mov	 edx, 136		; 00000088H
  0086d	48 8d 8d a8 0f
	01 00		 lea	 rcx, QWORD PTR $T19[rbp]
  00874	e8 00 00 00 00	 call	 ?geterrorline@Error@@YA?AUERROR@1@HH@Z ; Error::geterrorline
  00879	48 8d 8d c0 0e
	01 00		 lea	 rcx, QWORD PTR $T18[rbp]
  00880	48 8b f9	 mov	 rdi, rcx
  00883	48 8b f0	 mov	 rsi, rax
  00886	b9 d0 00 00 00	 mov	 ecx, 208		; 000000d0H
  0088b	f3 a4		 rep movsb
  0088d	48 8d 85 d0 0d
	01 00		 lea	 rax, QWORD PTR $T17[rbp]
  00894	48 8d 8d c0 0e
	01 00		 lea	 rcx, QWORD PTR $T18[rbp]
  0089b	48 8b f8	 mov	 rdi, rax
  0089e	48 8b f1	 mov	 rsi, rcx
  008a1	b9 d0 00 00 00	 mov	 ecx, 208		; 000000d0H
  008a6	f3 a4		 rep movsb
  008a8	48 8d 15 00 00
	00 00		 lea	 rdx, OFFSET FLAT:_TI1?AUERROR@Error@@
  008af	48 8d 8d d0 0d
	01 00		 lea	 rcx, QWORD PTR $T17[rbp]
  008b6	e8 00 00 00 00	 call	 _CxxThrowException
$LN59@dataProces:

; 167  : 						break;

  008bb	e9 af 01 00 00	 jmp	 $LN6@dataProces
$LN60@dataProces:

; 168  : 				case LEX_ID:
; 169  : 				case LEX_MAIN:
; 170  : 				case LEX_WRITE:
; 171  : 					if (ENTRY.idtype == IT::IDTYPE::F)

  008c0	48 8b 85 38 15
	04 00		 mov	 rax, QWORD PTR idtable$[rbp]
  008c7	48 63 40 04	 movsxd	 rax, DWORD PTR [rax+4]
  008cb	48 69 c0 50 fe
	00 00		 imul	 rax, rax, 65104		; 0000fe50H
  008d2	48 8b 8d 38 15
	04 00		 mov	 rcx, QWORD PTR idtable$[rbp]
  008d9	48 8b 49 08	 mov	 rcx, QWORD PTR [rcx+8]
  008dd	83 7c 01 44 02	 cmp	 DWORD PTR [rcx+rax+68], 2
  008e2	0f 85 96 00 00
	00		 jne	 $LN61@dataProces

; 172  : 						if (!(bool)ENTRY.iddatatype)

  008e8	48 8b 85 38 15
	04 00		 mov	 rax, QWORD PTR idtable$[rbp]
  008ef	48 63 40 04	 movsxd	 rax, DWORD PTR [rax+4]
  008f3	48 69 c0 50 fe
	00 00		 imul	 rax, rax, 65104		; 0000fe50H
  008fa	48 8b 8d 38 15
	04 00		 mov	 rcx, QWORD PTR idtable$[rbp]
  00901	48 8b 49 08	 mov	 rcx, QWORD PTR [rcx+8]
  00905	83 7c 01 40 00	 cmp	 DWORD PTR [rcx+rax+64], 0
  0090a	74 09		 je	 SHORT $LN78@dataProces
  0090c	c6 85 f4 14 04
	00 01		 mov	 BYTE PTR tv418[rbp], 1
  00913	eb 07		 jmp	 SHORT $LN79@dataProces
$LN78@dataProces:
  00915	c6 85 f4 14 04
	00 00		 mov	 BYTE PTR tv418[rbp], 0
$LN79@dataProces:
  0091c	0f b6 85 f4 14
	04 00		 movzx	 eax, BYTE PTR tv418[rbp]
  00923	85 c0		 test	 eax, eax
  00925	75 57		 jne	 SHORT $LN62@dataProces

; 173  : 							throw ERROR_THROW_LINE(127, data.count_lines);			//     

  00927	44 8b 45 4c	 mov	 r8d, DWORD PTR data$[rbp+4]
  0092b	ba 7f 00 00 00	 mov	 edx, 127		; 0000007fH
  00930	48 8d 8d 78 12
	01 00		 lea	 rcx, QWORD PTR $T22[rbp]
  00937	e8 00 00 00 00	 call	 ?geterrorline@Error@@YA?AUERROR@1@HH@Z ; Error::geterrorline
  0093c	48 8d 8d 90 11
	01 00		 lea	 rcx, QWORD PTR $T21[rbp]
  00943	48 8b f9	 mov	 rdi, rcx
  00946	48 8b f0	 mov	 rsi, rax
  00949	b9 d0 00 00 00	 mov	 ecx, 208		; 000000d0H
  0094e	f3 a4		 rep movsb
  00950	48 8d 85 a0 10
	01 00		 lea	 rax, QWORD PTR $T20[rbp]
  00957	48 8d 8d 90 11
	01 00		 lea	 rcx, QWORD PTR $T21[rbp]
  0095e	48 8b f8	 mov	 rdi, rax
  00961	48 8b f1	 mov	 rsi, rcx
  00964	b9 d0 00 00 00	 mov	 ecx, 208		; 000000d0H
  00969	f3 a4		 rep movsb
  0096b	48 8d 15 00 00
	00 00		 lea	 rdx, OFFSET FLAT:_TI1?AUERROR@Error@@
  00972	48 8d 8d a0 10
	01 00		 lea	 rcx, QWORD PTR $T20[rbp]
  00979	e8 00 00 00 00	 call	 _CxxThrowException
$LN62@dataProces:
$LN61@dataProces:

; 174  : 
; 175  : 					IdentificatorCreate(idtable,lextable, data, stream);

  0097e	4c 8b 8d 28 15
	04 00		 mov	 r9, QWORD PTR stream$[rbp]
  00985	4c 8d 45 48	 lea	 r8, QWORD PTR data$[rbp]
  00989	48 8b 95 30 15
	04 00		 mov	 rdx, QWORD PTR lextable$[rbp]
  00990	48 8b 8d 38 15
	04 00		 mov	 rcx, QWORD PTR idtable$[rbp]
  00997	e8 00 00 00 00	 call	 ?IdentificatorCreate@GM@@YAXPEAUIdTable@IT@@PEAULexTable@LT@@AEAUData@1@PEAV?$basic_fstream@DU?$char_traits@D@std@@@std@@@Z ; GM::IdentificatorCreate

; 176  : 					if ((ENTRY.iddatatype || data.token == LEX_MAIN))

  0099c	48 8b 85 38 15
	04 00		 mov	 rax, QWORD PTR idtable$[rbp]
  009a3	48 63 40 04	 movsxd	 rax, DWORD PTR [rax+4]
  009a7	48 69 c0 50 fe
	00 00		 imul	 rax, rax, 65104		; 0000fe50H
  009ae	48 8b 8d 38 15
	04 00		 mov	 rcx, QWORD PTR idtable$[rbp]
  009b5	48 8b 49 08	 mov	 rcx, QWORD PTR [rcx+8]
  009b9	83 7c 01 40 00	 cmp	 DWORD PTR [rcx+rax+64], 0
  009be	75 09		 jne	 SHORT $LN65@dataProces
  009c0	0f be 45 59	 movsx	 eax, BYTE PTR data$[rbp+17]
  009c4	83 f8 6d	 cmp	 eax, 109		; 0000006dH
  009c7	75 12		 jne	 SHORT $LN63@dataProces
$LN65@dataProces:

; 177  : 					{
; 178  : 						entryLT.idxTI = idtable->current_size;

  009c9	48 8b 85 38 15
	04 00		 mov	 rax, QWORD PTR idtable$[rbp]
  009d0	8b 40 04	 mov	 eax, DWORD PTR [rax+4]
  009d3	89 85 a4 00 00
	00		 mov	 DWORD PTR entryLT$5[rbp+12], eax

; 179  : 					}

  009d9	eb 0c		 jmp	 SHORT $LN64@dataProces
$LN63@dataProces:

; 180  : 					else
; 181  : 						entryLT.idxTI = ID;

  009db	8b 05 00 00 00
	00		 mov	 eax, DWORD PTR ?ID@GM@@3HA ; GM::ID
  009e1	89 85 a4 00 00
	00		 mov	 DWORD PTR entryLT$5[rbp+12], eax
$LN64@dataProces:

; 182  : 					if (ID == TI_NULLIDX)

  009e7	83 3d 00 00 00
	00 ff		 cmp	 DWORD PTR ?ID@GM@@3HA, -1 ; GM::ID, ffffffffH
  009ee	75 49		 jne	 SHORT $LN66@dataProces

; 183  : 						IT::Add(*idtable, ENTRY);

  009f0	48 8b 85 38 15
	04 00		 mov	 rax, QWORD PTR idtable$[rbp]
  009f7	48 63 40 04	 movsxd	 rax, DWORD PTR [rax+4]
  009fb	48 69 c0 50 fe
	00 00		 imul	 rax, rax, 65104		; 0000fe50H
  00a02	48 8b 8d 38 15
	04 00		 mov	 rcx, QWORD PTR idtable$[rbp]
  00a09	48 03 41 08	 add	 rax, QWORD PTR [rcx+8]
  00a0d	48 8d 8d 28 18
	02 00		 lea	 rcx, QWORD PTR $T34[rbp]
  00a14	48 8b f9	 mov	 rdi, rcx
  00a17	48 8b f0	 mov	 rsi, rax
  00a1a	b9 50 fe 00 00	 mov	 ecx, 65104		; 0000fe50H
  00a1f	f3 a4		 rep movsb
  00a21	48 8d 85 28 18
	02 00		 lea	 rax, QWORD PTR $T34[rbp]
  00a28	48 8b d0	 mov	 rdx, rax
  00a2b	48 8b 8d 38 15
	04 00		 mov	 rcx, QWORD PTR idtable$[rbp]
  00a32	e8 00 00 00 00	 call	 ?Add@IT@@YAXAEAUIdTable@1@UEntry@1@@Z ; IT::Add
  00a37	eb 36		 jmp	 SHORT $LN67@dataProces
$LN66@dataProces:

; 184  : 					else
; 185  : 						idtable->table[idtable->current_size] = IT::Reset();

  00a39	48 8d 8d 70 13
	01 00		 lea	 rcx, QWORD PTR $T23[rbp]
  00a40	e8 00 00 00 00	 call	 ?Reset@IT@@YA?AUEntry@1@XZ ; IT::Reset
  00a45	48 8b 8d 38 15
	04 00		 mov	 rcx, QWORD PTR idtable$[rbp]
  00a4c	48 63 49 04	 movsxd	 rcx, DWORD PTR [rcx+4]
  00a50	48 69 c9 50 fe
	00 00		 imul	 rcx, rcx, 65104		; 0000fe50H
  00a57	48 8b 95 38 15
	04 00		 mov	 rdx, QWORD PTR idtable$[rbp]
  00a5e	48 03 4a 08	 add	 rcx, QWORD PTR [rdx+8]
  00a62	48 8b f9	 mov	 rdi, rcx
  00a65	48 8b f0	 mov	 rsi, rax
  00a68	b9 50 fe 00 00	 mov	 ecx, 65104		; 0000fe50H
  00a6d	f3 a4		 rep movsb
$LN67@dataProces:
$LN6@dataProces:

; 186  : 					break;
; 187  : 				}
; 188  : 				
; 189  : 					LT::Add(lextable, entryLT);

  00a6f	48 8d 85 00 18
	02 00		 lea	 rax, QWORD PTR $T33[rbp]
  00a76	48 8d 8d 98 00
	00 00		 lea	 rcx, QWORD PTR entryLT$5[rbp]
  00a7d	48 8b f8	 mov	 rdi, rax
  00a80	48 8b f1	 mov	 rsi, rcx
  00a83	b9 10 00 00 00	 mov	 ecx, 16
  00a88	f3 a4		 rep movsb
  00a8a	48 8d 95 00 18
	02 00		 lea	 rdx, QWORD PTR $T33[rbp]
  00a91	48 8b 8d 30 15
	04 00		 mov	 rcx, QWORD PTR lextable$[rbp]
  00a98	e8 00 00 00 00	 call	 ?Add@LT@@YAXPEAULexTable@1@UEntry@1@@Z ; LT::Add

; 190  : 
; 191  : 				start = end;

  00a9d	48 8b 45 28	 mov	 rax, QWORD PTR end$[rbp]
  00aa1	48 89 45 08	 mov	 QWORD PTR start$[rbp], rax

; 192  : 				delete[] data.string;

  00aa5	48 8b 45 68	 mov	 rax, QWORD PTR data$[rbp+32]
  00aa9	48 89 85 d8 11
	02 00		 mov	 QWORD PTR $T24[rbp], rax
  00ab0	48 8b 8d d8 11
	02 00		 mov	 rcx, QWORD PTR $T24[rbp]
  00ab7	e8 00 00 00 00	 call	 ??_V@YAXPEAX@Z		; operator delete[]
$LN42@dataProces:

; 193  : 			}
; 194  : 
; 195  : 			if (*end == LITERAL) {

  00abc	48 8b 45 28	 mov	 rax, QWORD PTR end$[rbp]
  00ac0	0f b6 00	 movzx	 eax, BYTE PTR [rax]
  00ac3	83 f8 27	 cmp	 eax, 39			; 00000027H
  00ac6	75 12		 jne	 SHORT $LN68@dataProces

; 196  : 				if (data.switch_string)

  00ac8	0f b6 45 48	 movzx	 eax, BYTE PTR data$[rbp]
  00acc	85 c0		 test	 eax, eax
  00ace	74 06		 je	 SHORT $LN69@dataProces

; 197  : 					data.switch_string = false;

  00ad0	c6 45 48 00	 mov	 BYTE PTR data$[rbp], 0
  00ad4	eb 04		 jmp	 SHORT $LN70@dataProces
$LN69@dataProces:

; 198  : 				else
; 199  : 					data.switch_string = true;

  00ad6	c6 45 48 01	 mov	 BYTE PTR data$[rbp], 1
$LN70@dataProces:
$LN68@dataProces:

; 200  : 			}
; 201  : 
; 202  : 			if ((*end == SPACE || *end == SEPARATER) && !data.switch_string) {

  00ada	48 8b 45 28	 mov	 rax, QWORD PTR end$[rbp]
  00ade	0f b6 00	 movzx	 eax, BYTE PTR [rax]
  00ae1	83 f8 20	 cmp	 eax, 32			; 00000020H
  00ae4	74 0c		 je	 SHORT $LN72@dataProces
  00ae6	48 8b 45 28	 mov	 rax, QWORD PTR end$[rbp]
  00aea	0f b6 00	 movzx	 eax, BYTE PTR [rax]
  00aed	83 f8 7c	 cmp	 eax, 124		; 0000007cH
  00af0	75 37		 jne	 SHORT $LN71@dataProces
$LN72@dataProces:
  00af2	0f b6 45 48	 movzx	 eax, BYTE PTR data$[rbp]
  00af6	85 c0		 test	 eax, eax
  00af8	75 2f		 jne	 SHORT $LN71@dataProces

; 203  : 				if (*end == SEPARATER)

  00afa	48 8b 45 28	 mov	 rax, QWORD PTR end$[rbp]
  00afe	0f b6 00	 movzx	 eax, BYTE PTR [rax]
  00b01	83 f8 7c	 cmp	 eax, 124		; 0000007cH
  00b04	75 08		 jne	 SHORT $LN73@dataProces

; 204  : 					data.count_lines++;

  00b06	8b 45 4c	 mov	 eax, DWORD PTR data$[rbp+4]
  00b09	ff c0		 inc	 eax
  00b0b	89 45 4c	 mov	 DWORD PTR data$[rbp+4], eax
$LN73@dataProces:

; 205  : 				start = end;

  00b0e	48 8b 45 28	 mov	 rax, QWORD PTR end$[rbp]
  00b12	48 89 45 08	 mov	 QWORD PTR start$[rbp], rax

; 206  : 				start++;

  00b16	48 8b 45 08	 mov	 rax, QWORD PTR start$[rbp]
  00b1a	48 ff c0	 inc	 rax
  00b1d	48 89 45 08	 mov	 QWORD PTR start$[rbp], rax

; 207  : 				end = start;

  00b21	48 8b 45 08	 mov	 rax, QWORD PTR start$[rbp]
  00b25	48 89 45 28	 mov	 QWORD PTR end$[rbp], rax
$LN71@dataProces:

; 208  : 			}
; 209  : 			end++;

  00b29	48 8b 45 28	 mov	 rax, QWORD PTR end$[rbp]
  00b2d	48 ff c0	 inc	 rax
  00b30	48 89 45 28	 mov	 QWORD PTR end$[rbp], rax

; 210  : 		}

  00b34	e9 40 f5 ff ff	 jmp	 $LN2@dataProces
$LN3@dataProces:

; 211  : 		if (!main) {

  00b39	83 3d 00 00 00
	00 00		 cmp	 DWORD PTR ?main@GM@@3HA, 0 ; GM::main
  00b40	75 59		 jne	 SHORT $LN74@dataProces

; 212  : 			throw ERROR_THROW_LINE(143, data.count_lines);

  00b42	44 8b 45 4c	 mov	 r8d, DWORD PTR data$[rbp+4]
  00b46	ba 8f 00 00 00	 mov	 edx, 143		; 0000008fH
  00b4b	48 8d 8d d8 13
	02 00		 lea	 rcx, QWORD PTR $T27[rbp]
  00b52	e8 00 00 00 00	 call	 ?geterrorline@Error@@YA?AUERROR@1@HH@Z ; Error::geterrorline
  00b57	48 8d 8d f0 12
	02 00		 lea	 rcx, QWORD PTR $T26[rbp]
  00b5e	48 8b f9	 mov	 rdi, rcx
  00b61	48 8b f0	 mov	 rsi, rax
  00b64	b9 d0 00 00 00	 mov	 ecx, 208		; 000000d0H
  00b69	f3 a4		 rep movsb
  00b6b	48 8d 85 00 12
	02 00		 lea	 rax, QWORD PTR $T25[rbp]
  00b72	48 8d 8d f0 12
	02 00		 lea	 rcx, QWORD PTR $T26[rbp]
  00b79	48 8b f8	 mov	 rdi, rax
  00b7c	48 8b f1	 mov	 rsi, rcx
  00b7f	b9 d0 00 00 00	 mov	 ecx, 208		; 000000d0H
  00b84	f3 a4		 rep movsb
  00b86	48 8d 15 00 00
	00 00		 lea	 rdx, OFFSET FLAT:_TI1?AUERROR@Error@@
  00b8d	48 8d 8d 00 12
	02 00		 lea	 rcx, QWORD PTR $T25[rbp]
  00b94	e8 00 00 00 00	 call	 _CxxThrowException

; 213  : 		}

  00b99	eb 60		 jmp	 SHORT $LN75@dataProces
$LN74@dataProces:

; 214  : 		else if (main > 1) {

  00b9b	83 3d 00 00 00
	00 01		 cmp	 DWORD PTR ?main@GM@@3HA, 1 ; GM::main
  00ba2	7e 57		 jle	 SHORT $LN76@dataProces

; 215  : 			throw ERROR_THROW_LINE(146, data.count_lines);

  00ba4	44 8b 45 4c	 mov	 r8d, DWORD PTR data$[rbp+4]
  00ba8	ba 92 00 00 00	 mov	 edx, 146		; 00000092H
  00bad	48 8d 8d a8 16
	02 00		 lea	 rcx, QWORD PTR $T30[rbp]
  00bb4	e8 00 00 00 00	 call	 ?geterrorline@Error@@YA?AUERROR@1@HH@Z ; Error::geterrorline
  00bb9	48 8d 8d c0 15
	02 00		 lea	 rcx, QWORD PTR $T29[rbp]
  00bc0	48 8b f9	 mov	 rdi, rcx
  00bc3	48 8b f0	 mov	 rsi, rax
  00bc6	b9 d0 00 00 00	 mov	 ecx, 208		; 000000d0H
  00bcb	f3 a4		 rep movsb
  00bcd	48 8d 85 d0 14
	02 00		 lea	 rax, QWORD PTR $T28[rbp]
  00bd4	48 8d 8d c0 15
	02 00		 lea	 rcx, QWORD PTR $T29[rbp]
  00bdb	48 8b f8	 mov	 rdi, rax
  00bde	48 8b f1	 mov	 rsi, rcx
  00be1	b9 d0 00 00 00	 mov	 ecx, 208		; 000000d0H
  00be6	f3 a4		 rep movsb
  00be8	48 8d 15 00 00
	00 00		 lea	 rdx, OFFSET FLAT:_TI1?AUERROR@Error@@
  00bef	48 8d 8d d0 14
	02 00		 lea	 rcx, QWORD PTR $T28[rbp]
  00bf6	e8 00 00 00 00	 call	 _CxxThrowException
$LN76@dataProces:
$LN75@dataProces:
$LN77@dataProces:

; 216  : 		}
; 217  : 	}

  00bfb	48 8d 4d d0	 lea	 rcx, QWORD PTR [rbp-48]
  00bff	48 8d 15 00 00
	00 00		 lea	 rdx, OFFSET FLAT:?dataProcesing@GM@@YAXPEAEPEAV?$basic_fstream@DU?$char_traits@D@std@@@std@@PEAULexTable@LT@@PEAUIdTable@IT@@@Z$rtcFrameData
  00c06	e8 00 00 00 00	 call	 _RTC_CheckStackVars
  00c0b	48 8b 8d f8 14
	04 00		 mov	 rcx, QWORD PTR __$ArrayPad$[rbp]
  00c12	48 33 cd	 xor	 rcx, rbp
  00c15	e8 00 00 00 00	 call	 __security_check_cookie
  00c1a	48 8d a5 00 15
	04 00		 lea	 rsp, QWORD PTR [rbp+267520]
  00c21	5f		 pop	 rdi
  00c22	5e		 pop	 rsi
  00c23	5d		 pop	 rbp
  00c24	c3		 ret	 0
  00c25	0f 1f 00	 npad	 3
$LN125@dataProces:
  00c28	00 00 00 00	 DD	 $LN21@dataProces
  00c2c	00 00 00 00	 DD	 $LN35@dataProces
  00c30	00 00 00 00	 DD	 $LN31@dataProces
  00c34	00 00 00 00	 DD	 $LN27@dataProces
  00c38	00 00 00 00	 DD	 $LN19@dataProces
  00c3c	00 00 00 00	 DD	 $LN23@dataProces
  00c40	00 00 00 00	 DD	 $LN40@dataProces
  00c44	00 00 00 00	 DD	 $LN37@dataProces
  00c48	00 00 00 00	 DD	 $LN38@dataProces
  00c4c	00 00 00 00	 DD	 $LN4@dataProces
$LN124@dataProces:
  00c50	00		 DB	 0
  00c51	09		 DB	 9
  00c52	09		 DB	 9
  00c53	09		 DB	 9
  00c54	09		 DB	 9
  00c55	09		 DB	 9
  00c56	09		 DB	 9
  00c57	09		 DB	 9
  00c58	09		 DB	 9
  00c59	09		 DB	 9
  00c5a	01		 DB	 1
  00c5b	09		 DB	 9
  00c5c	02		 DB	 2
  00c5d	09		 DB	 9
  00c5e	09		 DB	 9
  00c5f	09		 DB	 9
  00c60	09		 DB	 9
  00c61	09		 DB	 9
  00c62	09		 DB	 9
  00c63	09		 DB	 9
  00c64	09		 DB	 9
  00c65	09		 DB	 9
  00c66	09		 DB	 9
  00c67	09		 DB	 9
  00c68	09		 DB	 9
  00c69	09		 DB	 9
  00c6a	09		 DB	 9
  00c6b	03		 DB	 3
  00c6c	04		 DB	 4
  00c6d	05		 DB	 5
  00c6e	09		 DB	 9
  00c6f	09		 DB	 9
  00c70	09		 DB	 9
  00c71	09		 DB	 9
  00c72	09		 DB	 9
  00c73	09		 DB	 9
  00c74	09		 DB	 9
  00c75	09		 DB	 9
  00c76	09		 DB	 9
  00c77	09		 DB	 9
  00c78	09		 DB	 9
  00c79	09		 DB	 9
  00c7a	09		 DB	 9
  00c7b	09		 DB	 9
  00c7c	09		 DB	 9
  00c7d	09		 DB	 9
  00c7e	09		 DB	 9
  00c7f	09		 DB	 9
  00c80	09		 DB	 9
  00c81	09		 DB	 9
  00c82	09		 DB	 9
  00c83	09		 DB	 9
  00c84	09		 DB	 9
  00c85	09		 DB	 9
  00c86	09		 DB	 9
  00c87	09		 DB	 9
  00c88	09		 DB	 9
  00c89	09		 DB	 9
  00c8a	06		 DB	 6
  00c8b	09		 DB	 9
  00c8c	09		 DB	 9
  00c8d	09		 DB	 9
  00c8e	09		 DB	 9
  00c8f	09		 DB	 9
  00c90	09		 DB	 9
  00c91	09		 DB	 9
  00c92	09		 DB	 9
  00c93	09		 DB	 9
  00c94	09		 DB	 9
  00c95	09		 DB	 9
  00c96	09		 DB	 9
  00c97	09		 DB	 9
  00c98	09		 DB	 9
  00c99	09		 DB	 9
  00c9a	09		 DB	 9
  00c9b	09		 DB	 9
  00c9c	09		 DB	 9
  00c9d	09		 DB	 9
  00c9e	09		 DB	 9
  00c9f	09		 DB	 9
  00ca0	09		 DB	 9
  00ca1	09		 DB	 9
  00ca2	09		 DB	 9
  00ca3	09		 DB	 9
  00ca4	09		 DB	 9
  00ca5	09		 DB	 9
  00ca6	09		 DB	 9
  00ca7	09		 DB	 9
  00ca8	09		 DB	 9
  00ca9	09		 DB	 9
  00caa	07		 DB	 7
  00cab	09		 DB	 9
  00cac	08		 DB	 8
  00cad	0f 1f 00	 npad	 3
$LN123@dataProces:
  00cb0	00 00 00 00	 DD	 $LN51@dataProces
  00cb4	00 00 00 00	 DD	 $LN49@dataProces
  00cb8	00 00 00 00	 DD	 $LN56@dataProces
  00cbc	00 00 00 00	 DD	 $LN47@dataProces
  00cc0	00 00 00 00	 DD	 $LN60@dataProces
  00cc4	00 00 00 00	 DD	 $LN52@dataProces
  00cc8	00 00 00 00	 DD	 $LN57@dataProces
  00ccc	00 00 00 00	 DD	 $LN58@dataProces
  00cd0	00 00 00 00	 DD	 $LN6@dataProces
$LN122@dataProces:
  00cd4	00		 DB	 0
  00cd5	08		 DB	 8
  00cd6	08		 DB	 8
  00cd7	08		 DB	 8
  00cd8	08		 DB	 8
  00cd9	08		 DB	 8
  00cda	08		 DB	 8
  00cdb	08		 DB	 8
  00cdc	08		 DB	 8
  00cdd	08		 DB	 8
  00cde	08		 DB	 8
  00cdf	08		 DB	 8
  00ce0	08		 DB	 8
  00ce1	08		 DB	 8
  00ce2	08		 DB	 8
  00ce3	08		 DB	 8
  00ce4	08		 DB	 8
  00ce5	08		 DB	 8
  00ce6	08		 DB	 8
  00ce7	08		 DB	 8
  00ce8	08		 DB	 8
  00ce9	08		 DB	 8
  00cea	08		 DB	 8
  00ceb	08		 DB	 8
  00cec	08		 DB	 8
  00ced	08		 DB	 8
  00cee	08		 DB	 8
  00cef	08		 DB	 8
  00cf0	08		 DB	 8
  00cf1	08		 DB	 8
  00cf2	08		 DB	 8
  00cf3	08		 DB	 8
  00cf4	08		 DB	 8
  00cf5	08		 DB	 8
  00cf6	08		 DB	 8
  00cf7	08		 DB	 8
  00cf8	08		 DB	 8
  00cf9	08		 DB	 8
  00cfa	08		 DB	 8
  00cfb	08		 DB	 8
  00cfc	08		 DB	 8
  00cfd	08		 DB	 8
  00cfe	08		 DB	 8
  00cff	08		 DB	 8
  00d00	08		 DB	 8
  00d01	08		 DB	 8
  00d02	08		 DB	 8
  00d03	08		 DB	 8
  00d04	08		 DB	 8
  00d05	08		 DB	 8
  00d06	01		 DB	 1
  00d07	08		 DB	 8
  00d08	08		 DB	 8
  00d09	08		 DB	 8
  00d0a	08		 DB	 8
  00d0b	08		 DB	 8
  00d0c	08		 DB	 8
  00d0d	02		 DB	 2
  00d0e	02		 DB	 2
  00d0f	08		 DB	 8
  00d10	08		 DB	 8
  00d11	03		 DB	 3
  00d12	08		 DB	 8
  00d13	08		 DB	 8
  00d14	04		 DB	 4
  00d15	08		 DB	 8
  00d16	08		 DB	 8
  00d17	05		 DB	 5
  00d18	04		 DB	 4
  00d19	02		 DB	 2
  00d1a	08		 DB	 8
  00d1b	08		 DB	 8
  00d1c	08		 DB	 8
  00d1d	06		 DB	 6
  00d1e	08		 DB	 8
  00d1f	08		 DB	 8
  00d20	08		 DB	 8
  00d21	02		 DB	 2
  00d22	04		 DB	 4
  00d23	08		 DB	 8
  00d24	08		 DB	 8
  00d25	08		 DB	 8
  00d26	08		 DB	 8
  00d27	08		 DB	 8
  00d28	07		 DB	 7
?dataProcesing@GM@@YAXPEAEPEAV?$basic_fstream@DU?$char_traits@D@std@@@std@@PEAULexTable@LT@@PEAUIdTable@IT@@@Z ENDP ; GM::dataProcesing
_TEXT	ENDS
; Function compile flags: /Odtp /RTCsu /ZI
; File C:\Users\Skvortsoff\OneDrive\\GitHub\course_LP\course_LP\DP.cpp
;	COMDAT ?token_rekognizer@GM@@YADPEADPEAUEntry@IT@@@Z
_TEXT	SEGMENT
result$ = 1028
graph$61 = 1064
graph$62 = 1128
graph$63 = 1192
graph$64 = 1256
graph$65 = 1320
graph$66 = 1384
graph$67 = 1448
graph_inc$68 = 1512
graph$69 = 1576
graph$70 = 1640
graph_dec$71 = 1704
graph$72 = 1768
graph$73 = 1832
graph_digit_dec$74 = 1896
graph_digit_oct$75 = 1960
graph_digit_hex$76 = 2024
graph_digit_bin$77 = 2088
graph_digit_float$78 = 2152
graph$79 = 2216
graph_bl$80 = 2280
graph_le$81 = 2344
graphl$82 = 2408
graph_r$83 = 2472
graph_me$84 = 2536
graph$85 = 2600
graph$86 = 2664
graph_assign$87 = 2728
graph$88 = 2792
graph$89 = 2856
graph_byte$90 = 2920
graph_bool$91 = 2984
graph_else$92 = 3048
graph_function$93 = 3112
graph_float$94 = 3176
graph_false$95 = 3240
graph_include$96 = 3304
graph_canditional$97 = 3368
graph_int$98 = 3432
graph_main$99 = 3496
graph_overflow$100 = 3560
graph_random$101 = 3624
graph_return$102 = 3688
graph_repeat$103 = 3752
graph_string$104 = 3816
graph_strlen$105 = 3880
graph_strcat$106 = 3944
graph_strcopy$107 = 4008
graph_true$108 = 4072
graph_until$109 = 4136
graph_writeline$110 = 4200
graph_warnins$111 = 4264
graph_write$112 = 4328
graph$113 = 4392
graph$114 = 4456
graph$115 = 4520
graph_const$116 = 4584
graph_literal$117 = 4648
graph_identificator$ = 4712
$T118 = 6312
$T119 = 6356
$T120 = 6392
$T121 = 6436
$T122 = 6472
$T123 = 6516
$T124 = 6552
$T125 = 6596
$T126 = 6632
$T127 = 6676
$T128 = 6712
$T129 = 6756
$T130 = 6792
$T131 = 6836
$T132 = 6872
$T133 = 6920
$T134 = 6964
$T135 = 7000
$T136 = 7044
$T137 = 7080
$T138 = 7124
$T139 = 7160
$T140 = 7204
$T141 = 7240
$T142 = 7288
$T143 = 7332
$T144 = 7368
$T145 = 7412
$T146 = 7448
$T147 = 7492
$T148 = 7528
$T149 = 7572
$T150 = 7608
$T151 = 7652
$T152 = 7684
$T153 = 7716
$T154 = 7748
$T155 = 7780
$T156 = 7812
$T157 = 7844
$T158 = 7876
$T159 = 7908
$T160 = 7940
$T161 = 7972
$T162 = 8008
$T163 = 8056
$T164 = 8100
$T165 = 8132
$T166 = 8164
$T167 = 8196
$T168 = 8228
$T169 = 8260
$T170 = 8292
$T171 = 8324
$T172 = 8360
$T173 = 8404
$T174 = 8440
$T175 = 8484
$T176 = 8516
$T177 = 8548
$T178 = 8580
$T179 = 8612
$T180 = 8644
$T181 = 8676
$T182 = 8708
$T183 = 8740
$T184 = 8772
$T185 = 8804
$T186 = 8836
$T187 = 8868
$T188 = 8900
$T189 = 8932
$T190 = 8964
$T191 = 9000
$T192 = 9044
$T193 = 9080
$T194 = 9124
$T195 = 9160
$T196 = 9204
$T197 = 9236
$T198 = 9272
$T199 = 9316
$T200 = 9352
$T201 = 9396
$T202 = 9432
$T203 = 9476
$T204 = 9508
$T205 = 9540
$T206 = 9572
$T207 = 9604
$T208 = 9636
$T209 = 9668
$T210 = 9700
$T211 = 9732
$T212 = 9764
$T213 = 9800
$T214 = 9844
$T215 = 9876
$T216 = 9908
$T217 = 9940
$T218 = 9972
$T219 = 10004
$T220 = 10036
$T221 = 10068
$T222 = 10100
$T223 = 10132
$T224 = 10164
$T225 = 10196
$T226 = 10232
$T227 = 10276
$T228 = 10312
$T229 = 10360
$T230 = 10404
$T231 = 10440
$T232 = 10484
$T233 = 10520
$T234 = 10568
$T235 = 10612
$T236 = 10648
$T237 = 10692
$T238 = 10728
$T239 = 10772
$T240 = 10808
$T241 = 10856
$T242 = 10900
$T243 = 10936
$T244 = 10980
$T245 = 11016
$T246 = 11064
$T247 = 11108
$T248 = 11144
$T249 = 11188
$T250 = 11224
$T251 = 11268
$T252 = 11304
$T253 = 11352
$T254 = 11396
$T255 = 11432
$T256 = 11476
$T257 = 11512
$T258 = 11556
$T259 = 11592
$T260 = 11640
$T261 = 11684
$T262 = 11720
$T263 = 11764
$T264 = 11800
$T265 = 11844
$T266 = 11880
$T267 = 11928
$T268 = 11972
$T269 = 12008
$T270 = 12052
$T271 = 12088
$T272 = 12132
$T273 = 12168
$T274 = 12212
$T275 = 12248
$T276 = 12296
$T277 = 12340
$T278 = 12376
$T279 = 12420
$T280 = 12456
$T281 = 12500
$T282 = 12536
$T283 = 12580
$T284 = 12616
$T285 = 12664
$T286 = 12708
$T287 = 12744
$T288 = 12788
$T289 = 12824
$T290 = 12868
$T291 = 12904
$T292 = 12948
$T293 = 12984
$T294 = 13032
$T295 = 13076
$T296 = 13112
$T297 = 13156
$T298 = 13192
$T299 = 13236
$T300 = 13272
$T301 = 13316
$T302 = 13352
$T303 = 13396
$T304 = 13432
$T305 = 13476
$T306 = 13512
$T307 = 13556
$T308 = 13592
$T309 = 13636
$T310 = 13672
$T311 = 13720
$T312 = 13764
$T313 = 13800
$T314 = 13844
$T315 = 13880
$T316 = 13924
$T317 = 13960
$T318 = 14004
$T319 = 14040
$T320 = 14084
$T321 = 14120
$T322 = 14168
$T323 = 14212
$T324 = 14248
$T325 = 14292
$T326 = 14328
$T327 = 14372
$T328 = 14408
$T329 = 14452
$T330 = 14488
$T331 = 14532
$T332 = 14568
$T333 = 14616
$T334 = 14660
$T335 = 14696
$T336 = 14740
$T337 = 14776
$T338 = 14820
$T339 = 14856
$T340 = 14900
$T341 = 14936
$T342 = 14980
$T343 = 15016
$T344 = 15060
$T345 = 15096
$T346 = 15140
$T347 = 15176
$T348 = 15224
$T349 = 15268
$T350 = 15304
$T351 = 15348
$T352 = 15384
$T353 = 15432
$T354 = 15476
$T355 = 15512
$T356 = 15556
$T357 = 15592
$T358 = 15636
$T359 = 15672
$T360 = 15716
$T361 = 15752
$T362 = 15800
$T363 = 15844
$T364 = 15880
$T365 = 15924
$T366 = 15960
$T367 = 16004
$T368 = 16040
$T369 = 16084
$T370 = 16120
$T371 = 16168
$T372 = 16212
$T373 = 16248
$T374 = 16292
$T375 = 16328
$T376 = 16372
$T377 = 16408
$T378 = 16452
$T379 = 16488
$T380 = 16532
$T381 = 16568
$T382 = 16612
$T383 = 16648
$T384 = 16692
$T385 = 16728
$T386 = 16772
$T387 = 16808
$T388 = 16856
$T389 = 16900
$T390 = 16936
$T391 = 16980
$T392 = 17016
$T393 = 17060
$T394 = 17096
$T395 = 17140
$T396 = 17176
$T397 = 17220
$T398 = 17256
$T399 = 17300
$T400 = 17336
$T401 = 17384
$T402 = 17428
$T403 = 17464
$T404 = 17508
$T405 = 17544
$T406 = 17588
$T407 = 17624
$T408 = 17668
$T409 = 17704
$T410 = 17748
$T411 = 17784
$T412 = 17828
$T413 = 17864
$T414 = 17912
$T415 = 17956
$T416 = 17992
$T417 = 18036
$T418 = 18072
$T419 = 18116
$T420 = 18152
$T421 = 18196
$T422 = 18232
$T423 = 18276
$T424 = 18312
$T425 = 18356
$T426 = 18392
$T427 = 18440
$T428 = 18484
$T429 = 18520
$T430 = 18564
$T431 = 18600
$T432 = 18644
$T433 = 18680
$T434 = 18724
$T435 = 18760
$T436 = 18804
$T437 = 18840
$T438 = 18884
$T439 = 18920
$T440 = 18968
$T441 = 19012
$T442 = 19048
$T443 = 19092
$T444 = 19128
$T445 = 19172
$T446 = 19208
$T447 = 19252
$T448 = 19288
$T449 = 19332
$T450 = 19368
$T451 = 19412
$T452 = 19448
$T453 = 19496
$T454 = 19540
$T455 = 19576
$T456 = 19620
$T457 = 19656
$T458 = 19700
$T459 = 19736
$T460 = 19780
$T461 = 19816
$T462 = 19860
$T463 = 19896
$T464 = 19940
$T465 = 19976
$T466 = 20024
$T467 = 20068
$T468 = 20104
$T469 = 20148
$T470 = 20184
$T471 = 20228
$T472 = 20264
$T473 = 20308
$T474 = 20344
$T475 = 20388
$T476 = 20424
$T477 = 20468
$T478 = 20504
$T479 = 20548
$T480 = 20584
$T481 = 20632
$T482 = 20676
$T483 = 20712
$T484 = 20756
$T485 = 20792
$T486 = 20836
$T487 = 20872
$T488 = 20916
$T489 = 20952
$T490 = 21000
$T491 = 21044
$T492 = 21080
$T493 = 21124
$T494 = 21160
$T495 = 21204
$T496 = 21240
$T497 = 21284
$T498 = 21320
$T499 = 21364
$T500 = 21400
$T501 = 21448
$T502 = 21492
$T503 = 21528
$T504 = 21572
$T505 = 21608
$T506 = 21652
$T507 = 21688
$T508 = 21732
$T509 = 21768
$T510 = 21812
$T511 = 21848
$T512 = 21892
$T513 = 21928
$T514 = 21972
$T515 = 22008
$T516 = 22052
$T517 = 22088
$T518 = 22132
$T519 = 22168
$T520 = 22216
$T521 = 22260
$T522 = 22296
$T523 = 22340
$T524 = 22376
$T525 = 22420
$T526 = 22456
$T527 = 22500
$T528 = 22536
$T529 = 22580
$T530 = 22616
$T531 = 22660
$T532 = 22696
$T533 = 22740
$T534 = 22776
$T535 = 22820
$T536 = 22856
$T537 = 22904
$T538 = 22948
$T539 = 22984
$T540 = 23028
$T541 = 23064
$T542 = 23108
$T543 = 23144
$T544 = 23188
$T545 = 23224
$T546 = 23268
$T547 = 23304
$T548 = 23348
$T549 = 23384
$T550 = 23428
$T551 = 23464
$T552 = 23508
$T553 = 23544
$T554 = 23588
$T555 = 23620
$T556 = 23652
$T557 = 23684
$T558 = 23716
$T559 = 23748
$T560 = 23780
$T561 = 23812
$T562 = 23844
$T563 = 23876
$T564 = 23908
$T565 = 23940
$T566 = 23972
$T567 = 24004
$T568 = 24036
$T569 = 24068
$T570 = 24100
$T571 = 24132
$T572 = 24164
$T573 = 24196
$T574 = 24228
$T575 = 24260
$T576 = 24292
$T577 = 24324
$T578 = 24356
$T579 = 24388
$T580 = 24420
$T581 = 24456
$T582 = 24500
$T583 = 24536
$T584 = 24584
$T585 = 24628
$T586 = 24660
$T587 = 24692
$T588 = 24724
$T589 = 24756
$T590 = 24788
$T591 = 24820
$T592 = 24852
$T593 = 24884
$T594 = 24916
$T595 = 24948
$T596 = 24980
$T597 = 25012
$T598 = 25044
$T599 = 25076
$T600 = 25108
$T601 = 25140
$T602 = 25172
$T603 = 25204
$T604 = 25236
$T605 = 25268
$T606 = 25300
$T607 = 25332
$T608 = 25364
$T609 = 25396
$T610 = 25428
$T611 = 25460
$T612 = 25492
$T613 = 25524
$T614 = 25556
$T615 = 25588
$T616 = 25620
$T617 = 25652
$T618 = 25684
$T619 = 25716
$T620 = 25748
$T621 = 25780
$T622 = 25812
$T623 = 25844
$T624 = 25876
$T625 = 25908
$T626 = 25940
$T627 = 25972
$T628 = 26004
$T629 = 26036
$T630 = 26068
$T631 = 26100
$T632 = 26132
$T633 = 26164
$T634 = 26196
$T635 = 26228
$T636 = 26260
$T637 = 26292
$T638 = 26324
$T639 = 26356
$T640 = 26388
$T641 = 26420
$T642 = 26452
$T643 = 26484
$T644 = 26516
$T645 = 26548
$T646 = 26580
$T647 = 26612
$T648 = 26644
$T649 = 26676
$T650 = 26708
$T651 = 26740
$T652 = 26772
$T653 = 26804
$T654 = 26836
$T655 = 26868
$T656 = 26900
$T657 = 26932
$T658 = 26964
$T659 = 26996
$T660 = 27028
$T661 = 27060
$T662 = 27092
$T663 = 27124
$T664 = 27156
$T665 = 27188
$T666 = 27220
$T667 = 27252
$T668 = 27284
$T669 = 27316
$T670 = 27348
$T671 = 27380
$T672 = 27412
$T673 = 27444
$T674 = 27476
$T675 = 27508
$T676 = 27540
$T677 = 27572
$T678 = 27604
$T679 = 27636
$T680 = 27668
$T681 = 27700
$T682 = 27732
$T683 = 27764
$T684 = 27796
$T685 = 27828
$T686 = 27860
$T687 = 27892
$T688 = 27924
$T689 = 27956
$T690 = 27988
$T691 = 28020
$T692 = 28052
$T693 = 28084
$T694 = 28116
$T695 = 28148
$T696 = 28180
$T697 = 28212
$T698 = 28244
$T699 = 28276
$T700 = 28308
$T701 = 28340
$T702 = 28372
$T703 = 28404
$T704 = 28436
$T705 = 28468
$T706 = 28500
$T707 = 28532
$T708 = 28564
$T709 = 28596
$T710 = 28628
$T711 = 28660
$T712 = 28692
$T713 = 28724
$T714 = 28756
$T715 = 28788
$T716 = 28820
$T717 = 28852
$T718 = 28884
$T719 = 28916
$T720 = 28948
$T721 = 28980
$T722 = 29012
$T723 = 29044
$T724 = 29076
$T725 = 29108
$T726 = 29140
$T727 = 29172
$T728 = 29204
$T729 = 29236
$T730 = 29268
$T731 = 29300
$T732 = 29332
$T733 = 29364
$T734 = 29396
$T735 = 29428
$T736 = 29460
$T737 = 29492
$T738 = 29524
$T739 = 29556
$T740 = 29592
$T741 = 29636
$T742 = 29672
$T743 = 29716
$T744 = 29748
$T745 = 29780
$T746 = 29812
$T747 = 29844
$T748 = 29876
$T749 = 29908
$T750 = 29940
$T751 = 29972
$T752 = 30004
$T753 = 30036
$T754 = 30068
$T755 = 30100
$T756 = 30132
$T757 = 30164
$T758 = 30196
$T759 = 30228
$T760 = 30260
$T761 = 30292
$T762 = 30324
$T763 = 30356
$T764 = 30388
$T765 = 30420
$T766 = 30452
$T767 = 30484
$T768 = 30516
$T769 = 30548
$T770 = 30592
$T771 = 30640
$T772 = 30688
$T773 = 30736
$T774 = 30784
$T775 = 30832
$T776 = 30880
$T777 = 30928
$T778 = 30976
$T779 = 31024
$T780 = 31072
$T781 = 31120
$T782 = 31168
$T783 = 31216
$T784 = 31264
$T785 = 31312
$T786 = 31360
$T787 = 31408
$T788 = 31456
$T789 = 31504
$T790 = 31552
$T791 = 31600
$T792 = 31648
$T793 = 31696
$T794 = 31744
$T795 = 31792
$T796 = 31840
$T797 = 31888
$T798 = 31936
$T799 = 31984
$T800 = 32032
$T801 = 32080
$T802 = 32128
$T803 = 32176
$T804 = 32224
$T805 = 32272
$T806 = 32320
$T807 = 32368
$T808 = 32416
$T809 = 32464
$T810 = 32512
$T811 = 32560
$T812 = 32608
$T813 = 32656
$T814 = 32704
$T815 = 32752
$T816 = 32800
$T817 = 32848
$T818 = 32896
$T819 = 32944
$T820 = 32992
$T821 = 33040
$T822 = 33088
$T823 = 33136
$T824 = 33184
$T825 = 33232
$T826 = 33280
$T827 = 33328
$T828 = 33376
$T829 = 33424
$T830 = 33472
$T831 = 33520
$T832 = 33568
$T833 = 33616
$T834 = 33664
$T835 = 33712
$T836 = 33760
$T837 = 33808
$T838 = 33856
$T839 = 33904
$T840 = 33952
$T841 = 34000
$T842 = 34048
$T843 = 34096
$T844 = 34144
$T845 = 34192
$T846 = 34240
$T847 = 34288
$T848 = 34336
$T849 = 34384
$T850 = 34432
$T851 = 34480
$T852 = 34528
$T853 = 34576
$T854 = 34624
$T855 = 34672
$T856 = 34720
$T857 = 34768
$T858 = 34816
$T859 = 34864
$T860 = 34912
$T861 = 34960
$T862 = 35008
$T863 = 35056
$T864 = 35104
$T865 = 35152
$T866 = 35200
$T867 = 35248
$T868 = 35296
$T869 = 35344
$T870 = 35392
$T871 = 35440
$T872 = 35488
$T873 = 35536
$T874 = 35584
$T875 = 35632
$T876 = 35680
$T877 = 35728
$T878 = 35776
$T879 = 35824
$T880 = 35872
$T881 = 35920
$T882 = 35968
$T883 = 36016
$T884 = 36064
$T885 = 36112
$T886 = 36160
$T887 = 36208
$T888 = 36256
$T889 = 36304
$T890 = 36352
$T891 = 36400
$T892 = 36448
$T893 = 36496
$T894 = 36544
$T895 = 36592
$T896 = 36640
$T897 = 36688
$T898 = 36736
$T899 = 36784
$T900 = 36832
$T901 = 36880
$T902 = 36928
$T903 = 36976
$T904 = 37024
$T905 = 37072
$T906 = 37120
$T907 = 37168
$T908 = 37216
$T909 = 37264
$T910 = 37312
$T911 = 37360
$T912 = 37408
$T913 = 37456
$T914 = 37504
$T915 = 37552
$T916 = 37600
$T917 = 37648
$T918 = 37696
$T919 = 37744
$T920 = 37792
$T921 = 37840
$T922 = 37888
$T923 = 37936
$T924 = 37984
$T925 = 38032
$T926 = 38080
$T927 = 38128
$T928 = 38176
$T929 = 38224
$T930 = 38272
$T931 = 38320
$T932 = 38368
$T933 = 38416
$T934 = 38464
$T935 = 38512
$T936 = 38560
$T937 = 38608
$T938 = 38656
$T939 = 38704
$T940 = 38752
$T941 = 38800
$T942 = 38848
$T943 = 38896
$T944 = 38944
$T945 = 38992
$T946 = 39040
$T947 = 39088
$T948 = 39136
$T949 = 39184
$T950 = 39232
$T951 = 39280
$T952 = 39328
$T953 = 39376
$T954 = 39424
$T955 = 39472
$T956 = 39520
$T957 = 39568
$T958 = 39616
$T959 = 39664
$T960 = 39712
$T961 = 39760
$T962 = 39808
$T963 = 39856
$T964 = 39904
$T965 = 39952
$T966 = 40000
$T967 = 40048
$T968 = 40096
$T969 = 40144
$T970 = 40192
$T971 = 40240
$T972 = 40288
$T973 = 40336
$T974 = 40384
$T975 = 40432
$T976 = 40480
$T977 = 40528
$T978 = 40576
$T979 = 40624
$T980 = 40672
$T981 = 40720
$T982 = 40768
tv67 = 40788
tv4115 = 40792
tv3157 = 40792
tv2966 = 40792
tv718 = 40792
tv677 = 40792
tv534 = 40792
tv440 = 40792
tv369 = 40792
tv4120 = 40800
tv3162 = 40800
tv2971 = 40800
tv723 = 40800
tv539 = 40800
tv445 = 40800
tv374 = 40800
tv4125 = 40808
tv3167 = 40808
tv2976 = 40808
tv728 = 40808
tv544 = 40808
tv482 = 40808
tv379 = 40808
tv4130 = 40816
tv3172 = 40816
tv2981 = 40816
tv733 = 40816
tv549 = 40816
tv487 = 40816
tv384 = 40816
tv4135 = 40824
tv3177 = 40824
tv2986 = 40824
tv738 = 40824
tv554 = 40824
tv492 = 40824
tv389 = 40824
tv4140 = 40832
tv3182 = 40832
tv2991 = 40832
tv743 = 40832
tv559 = 40832
tv497 = 40832
tv394 = 40832
tv4145 = 40840
tv3187 = 40840
tv2996 = 40840
tv748 = 40840
tv564 = 40840
tv502 = 40840
tv399 = 40840
tv4150 = 40848
tv3192 = 40848
tv3001 = 40848
tv753 = 40848
tv569 = 40848
tv404 = 40848
tv4155 = 40856
tv3197 = 40856
tv3006 = 40856
tv758 = 40856
tv574 = 40856
tv409 = 40856
tv4160 = 40864
tv3202 = 40864
tv3011 = 40864
tv772 = 40864
tv579 = 40864
tv414 = 40864
tv4165 = 40872
tv3207 = 40872
tv3016 = 40872
tv777 = 40872
tv584 = 40872
tv4170 = 40880
tv3212 = 40880
tv3021 = 40880
tv782 = 40880
tv589 = 40880
tv4175 = 40888
tv3217 = 40888
tv3026 = 40888
tv787 = 40888
tv594 = 40888
tv4180 = 40896
tv3222 = 40896
tv3031 = 40896
tv792 = 40896
tv599 = 40896
tv4185 = 40904
tv3227 = 40904
tv3036 = 40904
tv797 = 40904
tv604 = 40904
tv4190 = 40912
tv3264 = 40912
tv3073 = 40912
tv802 = 40912
tv4195 = 40920
tv3269 = 40920
tv3078 = 40920
tv807 = 40920
tv4200 = 40928
tv3274 = 40928
tv3083 = 40928
tv812 = 40928
tv4205 = 40936
tv3279 = 40936
tv3088 = 40936
tv817 = 40936
tv4210 = 40944
tv3284 = 40944
tv3093 = 40944
tv822 = 40944
tv4215 = 40952
tv3289 = 40952
tv3098 = 40952
tv4220 = 40960
tv3294 = 40960
tv3103 = 40960
tv4257 = 40968
tv3299 = 40968
tv3108 = 40968
tv4262 = 40976
tv3304 = 40976
tv3113 = 40976
tv4267 = 40984
tv3309 = 40984
tv3118 = 40984
tv4272 = 40992
tv3314 = 40992
tv3123 = 40992
tv3319 = 41000
tv3324 = 41008
tv3329 = 41016
tv3334 = 41024
tv3339 = 41032
tv3344 = 41040
tv3349 = 41048
tv3354 = 41056
tv3359 = 41064
tv3364 = 41072
tv3369 = 41080
tv3374 = 41088
tv3379 = 41096
tv3384 = 41104
tv3389 = 41112
tv3394 = 41120
tv3399 = 41128
tv3404 = 41136
tv3409 = 41144
tv3414 = 41152
tv3419 = 41160
tv3456 = 41168
tv3461 = 41176
tv3466 = 41184
tv3471 = 41192
tv3476 = 41200
tv3481 = 41208
tv3486 = 41216
tv3491 = 41224
tv3496 = 41232
tv3501 = 41240
tv3506 = 41248
tv3511 = 41256
tv3516 = 41264
tv3521 = 41272
tv3526 = 41280
tv3531 = 41288
tv3536 = 41296
tv3541 = 41304
tv3546 = 41312
tv3551 = 41320
tv3556 = 41328
tv3561 = 41336
tv3566 = 41344
tv3571 = 41352
tv3576 = 41360
tv3581 = 41368
tv3586 = 41376
tv3591 = 41384
tv3596 = 41392
tv3601 = 41400
tv3606 = 41408
tv3611 = 41416
tv3648 = 41424
tv3653 = 41432
tv3658 = 41440
tv3663 = 41448
tv3668 = 41456
tv3673 = 41464
tv3678 = 41472
tv3683 = 41480
tv3688 = 41488
tv3693 = 41496
tv3698 = 41504
tv3703 = 41512
tv3708 = 41520
tv3713 = 41528
tv3718 = 41536
tv3723 = 41544
tv3728 = 41552
tv3733 = 41560
tv3738 = 41568
tv3743 = 41576
tv3748 = 41584
tv3753 = 41592
tv3758 = 41600
tv3763 = 41608
tv3768 = 41616
tv3773 = 41624
tv3778 = 41632
tv3783 = 41640
tv3788 = 41648
tv3793 = 41656
tv3798 = 41664
tv3803 = 41672
tv3840 = 41680
tv3845 = 41688
tv3850 = 41696
tv3855 = 41704
tv3860 = 41712
tv3865 = 41720
tv3870 = 41728
tv3875 = 41736
tv3880 = 41744
tv3885 = 41752
tv3890 = 41760
tv3895 = 41768
tv3900 = 41776
tv3905 = 41784
tv3910 = 41792
tv3915 = 41800
tv3920 = 41808
tv3925 = 41816
tv3930 = 41824
tv3935 = 41832
tv3940 = 41840
tv3945 = 41848
tv3950 = 41856
tv3955 = 41864
tv3960 = 41872
tv3965 = 41880
tv3970 = 41888
tv3975 = 41896
tv3980 = 41904
tv3985 = 41912
tv3990 = 41920
tv3995 = 41928
tv4032 = 41936
tv4037 = 41944
tv4042 = 41952
tv4047 = 41960
tv4052 = 41968
tv4057 = 41976
tv4062 = 41984
tv4067 = 41992
tv4072 = 42000
tv4077 = 42008
tv4082 = 42016
__$ArrayPad$ = 42024
string$ = 42064
entry$ = 42072
?token_rekognizer@GM@@YADPEADPEAUEntry@IT@@@Z PROC	; GM::token_rekognizer, COMDAT

; 287  : 	char token_rekognizer(char* string, IT::Entry* entry) {

$LN228:
  00000	48 89 54 24 10	 mov	 QWORD PTR [rsp+16], rdx
  00005	48 89 4c 24 08	 mov	 QWORD PTR [rsp+8], rcx
  0000a	55		 push	 rbp
  0000b	56		 push	 rsi
  0000c	57		 push	 rdi
  0000d	b8 20 a5 00 00	 mov	 eax, 42272		; 0000a520H
  00012	e8 00 00 00 00	 call	 __chkstk
  00017	48 2b e0	 sub	 rsp, rax
  0001a	48 8d ac 24 f0
	00 00 00	 lea	 rbp, QWORD PTR [rsp+240]
  00022	48 8b fc	 mov	 rdi, rsp
  00025	b9 48 29 00 00	 mov	 ecx, 10568		; 00002948H
  0002a	b8 cc cc cc cc	 mov	 eax, -858993460		; ccccccccH
  0002f	f3 ab		 rep stosd
  00031	48 8b 8c 24 48
	a5 00 00	 mov	 rcx, QWORD PTR [rsp+42312]
  00039	48 8b 05 00 00
	00 00		 mov	 rax, QWORD PTR __security_cookie
  00040	48 33 c5	 xor	 rax, rbp
  00043	48 89 85 28 a4
	00 00		 mov	 QWORD PTR __$ArrayPad$[rbp], rax
  0004a	48 8d 0d 00 00
	00 00		 lea	 rcx, OFFSET FLAT:__656A90FE_DP@cpp
  00051	e8 00 00 00 00	 call	 __CheckForDebuggerJustMyCode

; 288  : 		bool result = false;

  00056	c6 85 04 04 00
	00 00		 mov	 BYTE PTR result$[rbp], 0

; 289  : 
; 290  : 		switch (string[0]) {

  0005d	b8 01 00 00 00	 mov	 eax, 1
  00062	48 6b c0 00	 imul	 rax, rax, 0
  00066	48 8b 8d 50 a4
	00 00		 mov	 rcx, QWORD PTR string$[rbp]
  0006d	0f be 04 01	 movsx	 eax, BYTE PTR [rcx+rax]
  00071	89 85 54 9f 00
	00		 mov	 DWORD PTR tv67[rbp], eax
  00077	8b 85 54 9f 00
	00		 mov	 eax, DWORD PTR tv67[rbp]
  0007d	83 e8 21	 sub	 eax, 33			; 00000021H
  00080	89 85 54 9f 00
	00		 mov	 DWORD PTR tv67[rbp], eax
  00086	83 bd 54 9f 00
	00 5d		 cmp	 DWORD PTR tv67[rbp], 93	; 0000005dH
  0008d	0f 87 d5 6c 00
	00		 ja	 $LN2@token_reko
  00093	48 63 85 54 9f
	00 00		 movsxd	 rax, DWORD PTR tv67[rbp]
  0009a	48 8d 0d 00 00
	00 00		 lea	 rcx, OFFSET FLAT:__ImageBase
  000a1	0f b6 84 01 00
	00 00 00	 movzx	 eax, BYTE PTR $LN226@token_reko[rcx+rax]
  000a9	8b 84 81 00 00
	00 00		 mov	 eax, DWORD PTR $LN227@token_reko[rcx+rax*4]
  000b0	48 03 c1	 add	 rax, rcx
  000b3	ff e0		 jmp	 rax
$LN4@token_reko:

; 291  : 
; 292  : 		case '|':
; 293  : 		{
; 294  : 			FST::FST graph(string, 1,

  000b5	45 33 c0	 xor	 r8d, r8d
  000b8	b2 7c		 mov	 dl, 124			; 0000007cH
  000ba	48 8d 8d d4 18
	00 00		 lea	 rcx, QWORD PTR $T119[rbp]
  000c1	e8 00 00 00 00	 call	 ??0RELATION@FST@@QEAA@DF@Z ; FST::RELATION::RELATION
  000c6	44 8b 00	 mov	 r8d, DWORD PTR [rax]
  000c9	ba 01 00 00 00	 mov	 edx, 1
  000ce	48 8d 8d a8 18
	00 00		 lea	 rcx, QWORD PTR $T118[rbp]
  000d5	e8 00 00 00 00	 call	 ??0NODE@FST@@QEAA@FURELATION@1@ZZ ; FST::NODE::NODE
  000da	48 8d 8d 80 77
	00 00		 lea	 rcx, QWORD PTR $T770[rbp]
  000e1	48 8b f9	 mov	 rdi, rcx
  000e4	48 8b f0	 mov	 rsi, rax
  000e7	b9 10 00 00 00	 mov	 ecx, 16
  000ec	f3 a4		 rep movsb
  000ee	4c 8d 8d 80 77
	00 00		 lea	 r9, QWORD PTR $T770[rbp]
  000f5	41 b8 01 00 00
	00		 mov	 r8d, 1
  000fb	48 8b 95 50 a4
	00 00		 mov	 rdx, QWORD PTR string$[rbp]
  00102	48 8d 8d 28 04
	00 00		 lea	 rcx, QWORD PTR graph$61[rbp]
  00109	e8 00 00 00 00	 call	 ??0FST@0@QEAA@PEADFUNODE@0@ZZ ; FST::FST::FST

; 295  : 				FST::NODE(1,
; 296  : 					FST::RELATION('|', 0)
; 297  : 				)
; 298  : 			);
; 299  : 			if (result = execute(graph)) {

  0010e	48 8d 8d 28 04
	00 00		 lea	 rcx, QWORD PTR graph$61[rbp]
  00115	e8 00 00 00 00	 call	 ?execute@FST@@YA_NAEAU11@@Z ; FST::execute
  0011a	88 85 04 04 00
	00		 mov	 BYTE PTR result$[rbp], al
  00120	0f b6 85 04 04
	00 00		 movzx	 eax, BYTE PTR result$[rbp]
  00127	85 c0		 test	 eax, eax
  00129	74 0c		 je	 SHORT $LN5@token_reko

; 300  : 				return LEX_NOT_EQUALS;

  0012b	b0 63		 mov	 al, 99			; 00000063H
  0012d	e9 98 70 00 00	 jmp	 $LN1@token_reko

; 301  : 				break;

  00132	e9 31 6c 00 00	 jmp	 $LN2@token_reko
$LN5@token_reko:

; 302  : 			}
; 303  : 			break;

  00137	e9 2c 6c 00 00	 jmp	 $LN2@token_reko
$LN6@token_reko:

; 304  : 		}
; 305  : 		case '&':
; 306  : 		{
; 307  : 			FST::FST graph(string, 1,

  0013c	45 33 c0	 xor	 r8d, r8d
  0013f	b2 26		 mov	 dl, 38			; 00000026H
  00141	48 8d 8d 24 19
	00 00		 lea	 rcx, QWORD PTR $T121[rbp]
  00148	e8 00 00 00 00	 call	 ??0RELATION@FST@@QEAA@DF@Z ; FST::RELATION::RELATION
  0014d	44 8b 00	 mov	 r8d, DWORD PTR [rax]
  00150	ba 01 00 00 00	 mov	 edx, 1
  00155	48 8d 8d f8 18
	00 00		 lea	 rcx, QWORD PTR $T120[rbp]
  0015c	e8 00 00 00 00	 call	 ??0NODE@FST@@QEAA@FURELATION@1@ZZ ; FST::NODE::NODE
  00161	48 8d 8d b0 77
	00 00		 lea	 rcx, QWORD PTR $T771[rbp]
  00168	48 8b f9	 mov	 rdi, rcx
  0016b	48 8b f0	 mov	 rsi, rax
  0016e	b9 10 00 00 00	 mov	 ecx, 16
  00173	f3 a4		 rep movsb
  00175	4c 8d 8d b0 77
	00 00		 lea	 r9, QWORD PTR $T771[rbp]
  0017c	41 b8 01 00 00
	00		 mov	 r8d, 1
  00182	48 8b 95 50 a4
	00 00		 mov	 rdx, QWORD PTR string$[rbp]
  00189	48 8d 8d 68 04
	00 00		 lea	 rcx, QWORD PTR graph$62[rbp]
  00190	e8 00 00 00 00	 call	 ??0FST@0@QEAA@PEADFUNODE@0@ZZ ; FST::FST::FST

; 308  : 				FST::NODE(1,
; 309  : 					FST::RELATION('&', 0)
; 310  : 				)
; 311  : 			);
; 312  : 			if (result = execute(graph)) {

  00195	48 8d 8d 68 04
	00 00		 lea	 rcx, QWORD PTR graph$62[rbp]
  0019c	e8 00 00 00 00	 call	 ?execute@FST@@YA_NAEAU11@@Z ; FST::execute
  001a1	88 85 04 04 00
	00		 mov	 BYTE PTR result$[rbp], al
  001a7	0f b6 85 04 04
	00 00		 movzx	 eax, BYTE PTR result$[rbp]
  001ae	85 c0		 test	 eax, eax
  001b0	74 0c		 je	 SHORT $LN7@token_reko

; 313  : 				return LEX_AND;

  001b2	b0 62		 mov	 al, 98			; 00000062H
  001b4	e9 11 70 00 00	 jmp	 $LN1@token_reko

; 314  : 				break;

  001b9	e9 aa 6b 00 00	 jmp	 $LN2@token_reko
$LN7@token_reko:

; 315  : 			}
; 316  : 			break;

  001be	e9 a5 6b 00 00	 jmp	 $LN2@token_reko
$LN8@token_reko:

; 317  : 		}
; 318  : 		case '(':
; 319  : 		{
; 320  : 			FST::FST graph(string, 1,

  001c3	45 33 c0	 xor	 r8d, r8d
  001c6	b2 28		 mov	 dl, 40			; 00000028H
  001c8	48 8d 8d 74 19
	00 00		 lea	 rcx, QWORD PTR $T123[rbp]
  001cf	e8 00 00 00 00	 call	 ??0RELATION@FST@@QEAA@DF@Z ; FST::RELATION::RELATION
  001d4	44 8b 00	 mov	 r8d, DWORD PTR [rax]
  001d7	ba 01 00 00 00	 mov	 edx, 1
  001dc	48 8d 8d 48 19
	00 00		 lea	 rcx, QWORD PTR $T122[rbp]
  001e3	e8 00 00 00 00	 call	 ??0NODE@FST@@QEAA@FURELATION@1@ZZ ; FST::NODE::NODE
  001e8	48 8d 8d e0 77
	00 00		 lea	 rcx, QWORD PTR $T772[rbp]
  001ef	48 8b f9	 mov	 rdi, rcx
  001f2	48 8b f0	 mov	 rsi, rax
  001f5	b9 10 00 00 00	 mov	 ecx, 16
  001fa	f3 a4		 rep movsb
  001fc	4c 8d 8d e0 77
	00 00		 lea	 r9, QWORD PTR $T772[rbp]
  00203	41 b8 01 00 00
	00		 mov	 r8d, 1
  00209	48 8b 95 50 a4
	00 00		 mov	 rdx, QWORD PTR string$[rbp]
  00210	48 8d 8d a8 04
	00 00		 lea	 rcx, QWORD PTR graph$63[rbp]
  00217	e8 00 00 00 00	 call	 ??0FST@0@QEAA@PEADFUNODE@0@ZZ ; FST::FST::FST

; 321  : 				FST::NODE(1,
; 322  : 					FST::RELATION('(', 0)
; 323  : 				)
; 324  : 			);
; 325  : 			if (result = execute(graph)) {

  0021c	48 8d 8d a8 04
	00 00		 lea	 rcx, QWORD PTR graph$63[rbp]
  00223	e8 00 00 00 00	 call	 ?execute@FST@@YA_NAEAU11@@Z ; FST::execute
  00228	88 85 04 04 00
	00		 mov	 BYTE PTR result$[rbp], al
  0022e	0f b6 85 04 04
	00 00		 movzx	 eax, BYTE PTR result$[rbp]
  00235	85 c0		 test	 eax, eax
  00237	74 0c		 je	 SHORT $LN9@token_reko

; 326  : 				return LEX_LEFTHESIS;

  00239	b0 28		 mov	 al, 40			; 00000028H
  0023b	e9 8a 6f 00 00	 jmp	 $LN1@token_reko

; 327  : 				break;

  00240	e9 23 6b 00 00	 jmp	 $LN2@token_reko
$LN9@token_reko:

; 328  : 			}
; 329  : 			break;

  00245	e9 1e 6b 00 00	 jmp	 $LN2@token_reko
$LN10@token_reko:

; 330  : 		}
; 331  : 		case ')':
; 332  : 		{
; 333  : 			FST::FST graph(string, 1,

  0024a	45 33 c0	 xor	 r8d, r8d
  0024d	b2 29		 mov	 dl, 41			; 00000029H
  0024f	48 8d 8d c4 19
	00 00		 lea	 rcx, QWORD PTR $T125[rbp]
  00256	e8 00 00 00 00	 call	 ??0RELATION@FST@@QEAA@DF@Z ; FST::RELATION::RELATION
  0025b	44 8b 00	 mov	 r8d, DWORD PTR [rax]
  0025e	ba 01 00 00 00	 mov	 edx, 1
  00263	48 8d 8d 98 19
	00 00		 lea	 rcx, QWORD PTR $T124[rbp]
  0026a	e8 00 00 00 00	 call	 ??0NODE@FST@@QEAA@FURELATION@1@ZZ ; FST::NODE::NODE
  0026f	48 8d 8d 10 78
	00 00		 lea	 rcx, QWORD PTR $T773[rbp]
  00276	48 8b f9	 mov	 rdi, rcx
  00279	48 8b f0	 mov	 rsi, rax
  0027c	b9 10 00 00 00	 mov	 ecx, 16
  00281	f3 a4		 rep movsb
  00283	4c 8d 8d 10 78
	00 00		 lea	 r9, QWORD PTR $T773[rbp]
  0028a	41 b8 01 00 00
	00		 mov	 r8d, 1
  00290	48 8b 95 50 a4
	00 00		 mov	 rdx, QWORD PTR string$[rbp]
  00297	48 8d 8d e8 04
	00 00		 lea	 rcx, QWORD PTR graph$64[rbp]
  0029e	e8 00 00 00 00	 call	 ??0FST@0@QEAA@PEADFUNODE@0@ZZ ; FST::FST::FST

; 334  : 				FST::NODE(1,
; 335  : 					FST::RELATION(')', 0)
; 336  : 				)
; 337  : 			);
; 338  : 			if (result = execute(graph)) {

  002a3	48 8d 8d e8 04
	00 00		 lea	 rcx, QWORD PTR graph$64[rbp]
  002aa	e8 00 00 00 00	 call	 ?execute@FST@@YA_NAEAU11@@Z ; FST::execute
  002af	88 85 04 04 00
	00		 mov	 BYTE PTR result$[rbp], al
  002b5	0f b6 85 04 04
	00 00		 movzx	 eax, BYTE PTR result$[rbp]
  002bc	85 c0		 test	 eax, eax
  002be	74 07		 je	 SHORT $LN11@token_reko

; 339  : 				return LEX_RIGHTESIS;

  002c0	b0 29		 mov	 al, 41			; 00000029H
  002c2	e9 03 6f 00 00	 jmp	 $LN1@token_reko
$LN11@token_reko:

; 340  : 			}
; 341  : 			break;

  002c7	e9 9c 6a 00 00	 jmp	 $LN2@token_reko
$LN12@token_reko:

; 342  : 		}
; 343  : 		case '[':
; 344  : 		{
; 345  : 			FST::FST graph(string, 1,

  002cc	45 33 c0	 xor	 r8d, r8d
  002cf	b2 5b		 mov	 dl, 91			; 0000005bH
  002d1	48 8d 8d 14 1a
	00 00		 lea	 rcx, QWORD PTR $T127[rbp]
  002d8	e8 00 00 00 00	 call	 ??0RELATION@FST@@QEAA@DF@Z ; FST::RELATION::RELATION
  002dd	44 8b 00	 mov	 r8d, DWORD PTR [rax]
  002e0	ba 01 00 00 00	 mov	 edx, 1
  002e5	48 8d 8d e8 19
	00 00		 lea	 rcx, QWORD PTR $T126[rbp]
  002ec	e8 00 00 00 00	 call	 ??0NODE@FST@@QEAA@FURELATION@1@ZZ ; FST::NODE::NODE
  002f1	48 8d 8d 40 78
	00 00		 lea	 rcx, QWORD PTR $T774[rbp]
  002f8	48 8b f9	 mov	 rdi, rcx
  002fb	48 8b f0	 mov	 rsi, rax
  002fe	b9 10 00 00 00	 mov	 ecx, 16
  00303	f3 a4		 rep movsb
  00305	4c 8d 8d 40 78
	00 00		 lea	 r9, QWORD PTR $T774[rbp]
  0030c	41 b8 01 00 00
	00		 mov	 r8d, 1
  00312	48 8b 95 50 a4
	00 00		 mov	 rdx, QWORD PTR string$[rbp]
  00319	48 8d 8d 28 05
	00 00		 lea	 rcx, QWORD PTR graph$65[rbp]
  00320	e8 00 00 00 00	 call	 ??0FST@0@QEAA@PEADFUNODE@0@ZZ ; FST::FST::FST

; 346  : 				FST::NODE(1,
; 347  : 					FST::RELATION('[', 0)
; 348  : 				)
; 349  : 			);
; 350  : 			if (result = execute(graph)) {

  00325	48 8d 8d 28 05
	00 00		 lea	 rcx, QWORD PTR graph$65[rbp]
  0032c	e8 00 00 00 00	 call	 ?execute@FST@@YA_NAEAU11@@Z ; FST::execute
  00331	88 85 04 04 00
	00		 mov	 BYTE PTR result$[rbp], al
  00337	0f b6 85 04 04
	00 00		 movzx	 eax, BYTE PTR result$[rbp]
  0033e	85 c0		 test	 eax, eax
  00340	74 07		 je	 SHORT $LN13@token_reko

; 351  : 				return LEX_SQUARE_LEFT;

  00342	b0 5b		 mov	 al, 91			; 0000005bH
  00344	e9 81 6e 00 00	 jmp	 $LN1@token_reko
$LN13@token_reko:

; 352  : 			}
; 353  : 			break;

  00349	e9 1a 6a 00 00	 jmp	 $LN2@token_reko
$LN14@token_reko:

; 354  : 		}
; 355  : 		case ']':
; 356  : 		{
; 357  : 			FST::FST graph(string, 1,

  0034e	45 33 c0	 xor	 r8d, r8d
  00351	b2 5d		 mov	 dl, 93			; 0000005dH
  00353	48 8d 8d 64 1a
	00 00		 lea	 rcx, QWORD PTR $T129[rbp]
  0035a	e8 00 00 00 00	 call	 ??0RELATION@FST@@QEAA@DF@Z ; FST::RELATION::RELATION
  0035f	44 8b 00	 mov	 r8d, DWORD PTR [rax]
  00362	ba 01 00 00 00	 mov	 edx, 1
  00367	48 8d 8d 38 1a
	00 00		 lea	 rcx, QWORD PTR $T128[rbp]
  0036e	e8 00 00 00 00	 call	 ??0NODE@FST@@QEAA@FURELATION@1@ZZ ; FST::NODE::NODE
  00373	48 8d 8d 70 78
	00 00		 lea	 rcx, QWORD PTR $T775[rbp]
  0037a	48 8b f9	 mov	 rdi, rcx
  0037d	48 8b f0	 mov	 rsi, rax
  00380	b9 10 00 00 00	 mov	 ecx, 16
  00385	f3 a4		 rep movsb
  00387	4c 8d 8d 70 78
	00 00		 lea	 r9, QWORD PTR $T775[rbp]
  0038e	41 b8 01 00 00
	00		 mov	 r8d, 1
  00394	48 8b 95 50 a4
	00 00		 mov	 rdx, QWORD PTR string$[rbp]
  0039b	48 8d 8d 68 05
	00 00		 lea	 rcx, QWORD PTR graph$66[rbp]
  003a2	e8 00 00 00 00	 call	 ??0FST@0@QEAA@PEADFUNODE@0@ZZ ; FST::FST::FST

; 358  : 				FST::NODE(1,
; 359  : 					FST::RELATION(']', 0)
; 360  : 				)
; 361  : 			);
; 362  : 			if (result = execute(graph)) {

  003a7	48 8d 8d 68 05
	00 00		 lea	 rcx, QWORD PTR graph$66[rbp]
  003ae	e8 00 00 00 00	 call	 ?execute@FST@@YA_NAEAU11@@Z ; FST::execute
  003b3	88 85 04 04 00
	00		 mov	 BYTE PTR result$[rbp], al
  003b9	0f b6 85 04 04
	00 00		 movzx	 eax, BYTE PTR result$[rbp]
  003c0	85 c0		 test	 eax, eax
  003c2	74 07		 je	 SHORT $LN15@token_reko

; 363  : 				return LEX_SQUARE_RIGHT;

  003c4	b0 5d		 mov	 al, 93			; 0000005dH
  003c6	e9 ff 6d 00 00	 jmp	 $LN1@token_reko
$LN15@token_reko:

; 364  : 			}
; 365  : 			break;

  003cb	e9 98 69 00 00	 jmp	 $LN2@token_reko
$LN16@token_reko:

; 366  : 		}
; 367  : 		case '*':
; 368  : 		{
; 369  : 			FST::FST graph(string, 1,

  003d0	45 33 c0	 xor	 r8d, r8d
  003d3	b2 2a		 mov	 dl, 42			; 0000002aH
  003d5	48 8d 8d b4 1a
	00 00		 lea	 rcx, QWORD PTR $T131[rbp]
  003dc	e8 00 00 00 00	 call	 ??0RELATION@FST@@QEAA@DF@Z ; FST::RELATION::RELATION
  003e1	44 8b 00	 mov	 r8d, DWORD PTR [rax]
  003e4	ba 01 00 00 00	 mov	 edx, 1
  003e9	48 8d 8d 88 1a
	00 00		 lea	 rcx, QWORD PTR $T130[rbp]
  003f0	e8 00 00 00 00	 call	 ??0NODE@FST@@QEAA@FURELATION@1@ZZ ; FST::NODE::NODE
  003f5	48 8d 8d a0 78
	00 00		 lea	 rcx, QWORD PTR $T776[rbp]
  003fc	48 8b f9	 mov	 rdi, rcx
  003ff	48 8b f0	 mov	 rsi, rax
  00402	b9 10 00 00 00	 mov	 ecx, 16
  00407	f3 a4		 rep movsb
  00409	4c 8d 8d a0 78
	00 00		 lea	 r9, QWORD PTR $T776[rbp]
  00410	41 b8 01 00 00
	00		 mov	 r8d, 1
  00416	48 8b 95 50 a4
	00 00		 mov	 rdx, QWORD PTR string$[rbp]
  0041d	48 8d 8d a8 05
	00 00		 lea	 rcx, QWORD PTR graph$67[rbp]
  00424	e8 00 00 00 00	 call	 ??0FST@0@QEAA@PEADFUNODE@0@ZZ ; FST::FST::FST

; 370  : 				FST::NODE(1,
; 371  : 					FST::RELATION('*', 0)
; 372  : 				)
; 373  : 			);
; 374  : 			if (result = execute(graph)) {

  00429	48 8d 8d a8 05
	00 00		 lea	 rcx, QWORD PTR graph$67[rbp]
  00430	e8 00 00 00 00	 call	 ?execute@FST@@YA_NAEAU11@@Z ; FST::execute
  00435	88 85 04 04 00
	00		 mov	 BYTE PTR result$[rbp], al
  0043b	0f b6 85 04 04
	00 00		 movzx	 eax, BYTE PTR result$[rbp]
  00442	85 c0		 test	 eax, eax
  00444	74 0c		 je	 SHORT $LN17@token_reko

; 375  : 				return LEX_STAR;

  00446	b0 76		 mov	 al, 118			; 00000076H
  00448	e9 7d 6d 00 00	 jmp	 $LN1@token_reko

; 376  : 				break;

  0044d	e9 16 69 00 00	 jmp	 $LN2@token_reko
$LN17@token_reko:

; 377  : 			}
; 378  : 			break;

  00452	e9 11 69 00 00	 jmp	 $LN2@token_reko
$LN18@token_reko:

; 379  : 		}
; 380  : 		case '+':
; 381  : 		{
; 382  : 			FST::FST graph_inc(string, 3,

  00457	48 8d 8d d8 1a
	00 00		 lea	 rcx, QWORD PTR $T132[rbp]
  0045e	e8 00 00 00 00	 call	 ??0NODE@FST@@QEAA@XZ	; FST::NODE::NODE
  00463	48 8d 8d 30 79
	00 00		 lea	 rcx, QWORD PTR $T779[rbp]
  0046a	48 8b f9	 mov	 rdi, rcx
  0046d	48 8b f0	 mov	 rsi, rax
  00470	b9 10 00 00 00	 mov	 ecx, 16
  00475	f3 a4		 rep movsb
  00477	66 41 b8 02 00	 mov	 r8w, 2
  0047c	b2 2b		 mov	 dl, 43			; 0000002bH
  0047e	48 8d 8d 34 1b
	00 00		 lea	 rcx, QWORD PTR $T134[rbp]
  00485	e8 00 00 00 00	 call	 ??0RELATION@FST@@QEAA@DF@Z ; FST::RELATION::RELATION
  0048a	44 8b 00	 mov	 r8d, DWORD PTR [rax]
  0048d	ba 01 00 00 00	 mov	 edx, 1
  00492	48 8d 8d 08 1b
	00 00		 lea	 rcx, QWORD PTR $T133[rbp]
  00499	e8 00 00 00 00	 call	 ??0NODE@FST@@QEAA@FURELATION@1@ZZ ; FST::NODE::NODE
  0049e	48 8d 8d 00 79
	00 00		 lea	 rcx, QWORD PTR $T778[rbp]
  004a5	48 8b f9	 mov	 rdi, rcx
  004a8	48 8b f0	 mov	 rsi, rax
  004ab	b9 10 00 00 00	 mov	 ecx, 16
  004b0	f3 a4		 rep movsb
  004b2	66 41 b8 01 00	 mov	 r8w, 1
  004b7	b2 2b		 mov	 dl, 43			; 0000002bH
  004b9	48 8d 8d 84 1b
	00 00		 lea	 rcx, QWORD PTR $T136[rbp]
  004c0	e8 00 00 00 00	 call	 ??0RELATION@FST@@QEAA@DF@Z ; FST::RELATION::RELATION
  004c5	44 8b 00	 mov	 r8d, DWORD PTR [rax]
  004c8	ba 01 00 00 00	 mov	 edx, 1
  004cd	48 8d 8d 58 1b
	00 00		 lea	 rcx, QWORD PTR $T135[rbp]
  004d4	e8 00 00 00 00	 call	 ??0NODE@FST@@QEAA@FURELATION@1@ZZ ; FST::NODE::NODE
  004d9	48 8d 8d d0 78
	00 00		 lea	 rcx, QWORD PTR $T777[rbp]
  004e0	48 8b f9	 mov	 rdi, rcx
  004e3	48 8b f0	 mov	 rsi, rax
  004e6	b9 10 00 00 00	 mov	 ecx, 16
  004eb	f3 a4		 rep movsb
  004ed	48 8d 85 30 79
	00 00		 lea	 rax, QWORD PTR $T779[rbp]
  004f4	48 89 44 24 28	 mov	 QWORD PTR [rsp+40], rax
  004f9	48 8d 85 00 79
	00 00		 lea	 rax, QWORD PTR $T778[rbp]
  00500	48 89 44 24 20	 mov	 QWORD PTR [rsp+32], rax
  00505	4c 8d 8d d0 78
	00 00		 lea	 r9, QWORD PTR $T777[rbp]
  0050c	41 b8 03 00 00
	00		 mov	 r8d, 3
  00512	48 8b 95 50 a4
	00 00		 mov	 rdx, QWORD PTR string$[rbp]
  00519	48 8d 8d e8 05
	00 00		 lea	 rcx, QWORD PTR graph_inc$68[rbp]
  00520	e8 00 00 00 00	 call	 ??0FST@0@QEAA@PEADFUNODE@0@ZZ ; FST::FST::FST

; 383  : 				FST::NODE(1,
; 384  : 					FST::RELATION('+', 1)
; 385  : 				),
; 386  : 				FST::NODE(1,
; 387  : 					FST::RELATION('+', 2)
; 388  : 				),
; 389  : 				FST::NODE()
; 390  : 			);
; 391  : 			if (result = execute(graph_inc)) {

  00525	48 8d 8d e8 05
	00 00		 lea	 rcx, QWORD PTR graph_inc$68[rbp]
  0052c	e8 00 00 00 00	 call	 ?execute@FST@@YA_NAEAU11@@Z ; FST::execute
  00531	88 85 04 04 00
	00		 mov	 BYTE PTR result$[rbp], al
  00537	0f b6 85 04 04
	00 00		 movzx	 eax, BYTE PTR result$[rbp]
  0053e	85 c0		 test	 eax, eax
  00540	74 07		 je	 SHORT $LN19@token_reko

; 392  : 				return LEX_INCORDEC;

  00542	b0 6e		 mov	 al, 110			; 0000006eH
  00544	e9 81 6c 00 00	 jmp	 $LN1@token_reko
$LN19@token_reko:

; 393  : 			}
; 394  : 			FST::FST graph(string, 1,

  00549	45 33 c0	 xor	 r8d, r8d
  0054c	b2 2b		 mov	 dl, 43			; 0000002bH
  0054e	48 8d 8d d4 1b
	00 00		 lea	 rcx, QWORD PTR $T138[rbp]
  00555	e8 00 00 00 00	 call	 ??0RELATION@FST@@QEAA@DF@Z ; FST::RELATION::RELATION
  0055a	44 8b 00	 mov	 r8d, DWORD PTR [rax]
  0055d	ba 01 00 00 00	 mov	 edx, 1
  00562	48 8d 8d a8 1b
	00 00		 lea	 rcx, QWORD PTR $T137[rbp]
  00569	e8 00 00 00 00	 call	 ??0NODE@FST@@QEAA@FURELATION@1@ZZ ; FST::NODE::NODE
  0056e	48 8d 8d 60 79
	00 00		 lea	 rcx, QWORD PTR $T780[rbp]
  00575	48 8b f9	 mov	 rdi, rcx
  00578	48 8b f0	 mov	 rsi, rax
  0057b	b9 10 00 00 00	 mov	 ecx, 16
  00580	f3 a4		 rep movsb
  00582	4c 8d 8d 60 79
	00 00		 lea	 r9, QWORD PTR $T780[rbp]
  00589	41 b8 01 00 00
	00		 mov	 r8d, 1
  0058f	48 8b 95 50 a4
	00 00		 mov	 rdx, QWORD PTR string$[rbp]
  00596	48 8d 8d 28 06
	00 00		 lea	 rcx, QWORD PTR graph$69[rbp]
  0059d	e8 00 00 00 00	 call	 ??0FST@0@QEAA@PEADFUNODE@0@ZZ ; FST::FST::FST

; 395  : 				FST::NODE(1,
; 396  : 					FST::RELATION('+', 0)
; 397  : 				)
; 398  : 			);
; 399  : 			if (result = execute(graph)) {

  005a2	48 8d 8d 28 06
	00 00		 lea	 rcx, QWORD PTR graph$69[rbp]
  005a9	e8 00 00 00 00	 call	 ?execute@FST@@YA_NAEAU11@@Z ; FST::execute
  005ae	88 85 04 04 00
	00		 mov	 BYTE PTR result$[rbp], al
  005b4	0f b6 85 04 04
	00 00		 movzx	 eax, BYTE PTR result$[rbp]
  005bb	85 c0		 test	 eax, eax
  005bd	74 07		 je	 SHORT $LN20@token_reko

; 400  : 				return LEX_PLUS;

  005bf	b0 76		 mov	 al, 118			; 00000076H
  005c1	e9 04 6c 00 00	 jmp	 $LN1@token_reko
$LN20@token_reko:

; 401  : 			}
; 402  : 			break;

  005c6	e9 9d 67 00 00	 jmp	 $LN2@token_reko
$LN21@token_reko:

; 403  : 		}
; 404  : 		case ',':
; 405  : 		{
; 406  : 			FST::FST graph(string, 1,

  005cb	45 33 c0	 xor	 r8d, r8d
  005ce	b2 2c		 mov	 dl, 44			; 0000002cH
  005d0	48 8d 8d 24 1c
	00 00		 lea	 rcx, QWORD PTR $T140[rbp]
  005d7	e8 00 00 00 00	 call	 ??0RELATION@FST@@QEAA@DF@Z ; FST::RELATION::RELATION
  005dc	44 8b 00	 mov	 r8d, DWORD PTR [rax]
  005df	ba 01 00 00 00	 mov	 edx, 1
  005e4	48 8d 8d f8 1b
	00 00		 lea	 rcx, QWORD PTR $T139[rbp]
  005eb	e8 00 00 00 00	 call	 ??0NODE@FST@@QEAA@FURELATION@1@ZZ ; FST::NODE::NODE
  005f0	48 8d 8d 90 79
	00 00		 lea	 rcx, QWORD PTR $T781[rbp]
  005f7	48 8b f9	 mov	 rdi, rcx
  005fa	48 8b f0	 mov	 rsi, rax
  005fd	b9 10 00 00 00	 mov	 ecx, 16
  00602	f3 a4		 rep movsb
  00604	4c 8d 8d 90 79
	00 00		 lea	 r9, QWORD PTR $T781[rbp]
  0060b	41 b8 01 00 00
	00		 mov	 r8d, 1
  00611	48 8b 95 50 a4
	00 00		 mov	 rdx, QWORD PTR string$[rbp]
  00618	48 8d 8d 68 06
	00 00		 lea	 rcx, QWORD PTR graph$70[rbp]
  0061f	e8 00 00 00 00	 call	 ??0FST@0@QEAA@PEADFUNODE@0@ZZ ; FST::FST::FST

; 407  : 				FST::NODE(1,
; 408  : 					FST::RELATION(',', 0)
; 409  : 				)
; 410  : 			);
; 411  : 			if (result = execute(graph)) {

  00624	48 8d 8d 68 06
	00 00		 lea	 rcx, QWORD PTR graph$70[rbp]
  0062b	e8 00 00 00 00	 call	 ?execute@FST@@YA_NAEAU11@@Z ; FST::execute
  00630	88 85 04 04 00
	00		 mov	 BYTE PTR result$[rbp], al
  00636	0f b6 85 04 04
	00 00		 movzx	 eax, BYTE PTR result$[rbp]
  0063d	85 c0		 test	 eax, eax
  0063f	74 0c		 je	 SHORT $LN22@token_reko

; 412  : 				return LEX_COMMA;

  00641	b0 2c		 mov	 al, 44			; 0000002cH
  00643	e9 82 6b 00 00	 jmp	 $LN1@token_reko

; 413  : 				break;

  00648	e9 1b 67 00 00	 jmp	 $LN2@token_reko
$LN22@token_reko:

; 414  : 			}
; 415  : 			break;

  0064d	e9 16 67 00 00	 jmp	 $LN2@token_reko
$LN23@token_reko:

; 416  : 		}
; 417  : 		case '-':
; 418  : 		{
; 419  : 			FST::FST graph_dec(string, 3,

  00652	48 8d 8d 48 1c
	00 00		 lea	 rcx, QWORD PTR $T141[rbp]
  00659	e8 00 00 00 00	 call	 ??0NODE@FST@@QEAA@XZ	; FST::NODE::NODE
  0065e	48 8d 8d 20 7a
	00 00		 lea	 rcx, QWORD PTR $T784[rbp]
  00665	48 8b f9	 mov	 rdi, rcx
  00668	48 8b f0	 mov	 rsi, rax
  0066b	b9 10 00 00 00	 mov	 ecx, 16
  00670	f3 a4		 rep movsb
  00672	66 41 b8 02 00	 mov	 r8w, 2
  00677	b2 2d		 mov	 dl, 45			; 0000002dH
  00679	48 8d 8d a4 1c
	00 00		 lea	 rcx, QWORD PTR $T143[rbp]
  00680	e8 00 00 00 00	 call	 ??0RELATION@FST@@QEAA@DF@Z ; FST::RELATION::RELATION
  00685	44 8b 00	 mov	 r8d, DWORD PTR [rax]
  00688	ba 01 00 00 00	 mov	 edx, 1
  0068d	48 8d 8d 78 1c
	00 00		 lea	 rcx, QWORD PTR $T142[rbp]
  00694	e8 00 00 00 00	 call	 ??0NODE@FST@@QEAA@FURELATION@1@ZZ ; FST::NODE::NODE
  00699	48 8d 8d f0 79
	00 00		 lea	 rcx, QWORD PTR $T783[rbp]
  006a0	48 8b f9	 mov	 rdi, rcx
  006a3	48 8b f0	 mov	 rsi, rax
  006a6	b9 10 00 00 00	 mov	 ecx, 16
  006ab	f3 a4		 rep movsb
  006ad	66 41 b8 01 00	 mov	 r8w, 1
  006b2	b2 2d		 mov	 dl, 45			; 0000002dH
  006b4	48 8d 8d f4 1c
	00 00		 lea	 rcx, QWORD PTR $T145[rbp]
  006bb	e8 00 00 00 00	 call	 ??0RELATION@FST@@QEAA@DF@Z ; FST::RELATION::RELATION
  006c0	44 8b 00	 mov	 r8d, DWORD PTR [rax]
  006c3	ba 01 00 00 00	 mov	 edx, 1
  006c8	48 8d 8d c8 1c
	00 00		 lea	 rcx, QWORD PTR $T144[rbp]
  006cf	e8 00 00 00 00	 call	 ??0NODE@FST@@QEAA@FURELATION@1@ZZ ; FST::NODE::NODE
  006d4	48 8d 8d c0 79
	00 00		 lea	 rcx, QWORD PTR $T782[rbp]
  006db	48 8b f9	 mov	 rdi, rcx
  006de	48 8b f0	 mov	 rsi, rax
  006e1	b9 10 00 00 00	 mov	 ecx, 16
  006e6	f3 a4		 rep movsb
  006e8	48 8d 85 20 7a
	00 00		 lea	 rax, QWORD PTR $T784[rbp]
  006ef	48 89 44 24 28	 mov	 QWORD PTR [rsp+40], rax
  006f4	48 8d 85 f0 79
	00 00		 lea	 rax, QWORD PTR $T783[rbp]
  006fb	48 89 44 24 20	 mov	 QWORD PTR [rsp+32], rax
  00700	4c 8d 8d c0 79
	00 00		 lea	 r9, QWORD PTR $T782[rbp]
  00707	41 b8 03 00 00
	00		 mov	 r8d, 3
  0070d	48 8b 95 50 a4
	00 00		 mov	 rdx, QWORD PTR string$[rbp]
  00714	48 8d 8d a8 06
	00 00		 lea	 rcx, QWORD PTR graph_dec$71[rbp]
  0071b	e8 00 00 00 00	 call	 ??0FST@0@QEAA@PEADFUNODE@0@ZZ ; FST::FST::FST

; 420  : 				FST::NODE(1,
; 421  : 					FST::RELATION('-', 1)
; 422  : 				),
; 423  : 				FST::NODE(1,
; 424  : 					FST::RELATION('-', 2)
; 425  : 				),
; 426  : 				FST::NODE()
; 427  : 			);
; 428  : 			if (result = execute(graph_dec)) {

  00720	48 8d 8d a8 06
	00 00		 lea	 rcx, QWORD PTR graph_dec$71[rbp]
  00727	e8 00 00 00 00	 call	 ?execute@FST@@YA_NAEAU11@@Z ; FST::execute
  0072c	88 85 04 04 00
	00		 mov	 BYTE PTR result$[rbp], al
  00732	0f b6 85 04 04
	00 00		 movzx	 eax, BYTE PTR result$[rbp]
  00739	85 c0		 test	 eax, eax
  0073b	74 07		 je	 SHORT $LN24@token_reko

; 429  : 				return LEX_INCORDEC;

  0073d	b0 6e		 mov	 al, 110			; 0000006eH
  0073f	e9 86 6a 00 00	 jmp	 $LN1@token_reko
$LN24@token_reko:

; 430  : 			}
; 431  : 			FST::FST graph(string, 1,

  00744	45 33 c0	 xor	 r8d, r8d
  00747	b2 2d		 mov	 dl, 45			; 0000002dH
  00749	48 8d 8d 44 1d
	00 00		 lea	 rcx, QWORD PTR $T147[rbp]
  00750	e8 00 00 00 00	 call	 ??0RELATION@FST@@QEAA@DF@Z ; FST::RELATION::RELATION
  00755	44 8b 00	 mov	 r8d, DWORD PTR [rax]
  00758	ba 01 00 00 00	 mov	 edx, 1
  0075d	48 8d 8d 18 1d
	00 00		 lea	 rcx, QWORD PTR $T146[rbp]
  00764	e8 00 00 00 00	 call	 ??0NODE@FST@@QEAA@FURELATION@1@ZZ ; FST::NODE::NODE
  00769	48 8d 8d 50 7a
	00 00		 lea	 rcx, QWORD PTR $T785[rbp]
  00770	48 8b f9	 mov	 rdi, rcx
  00773	48 8b f0	 mov	 rsi, rax
  00776	b9 10 00 00 00	 mov	 ecx, 16
  0077b	f3 a4		 rep movsb
  0077d	4c 8d 8d 50 7a
	00 00		 lea	 r9, QWORD PTR $T785[rbp]
  00784	41 b8 01 00 00
	00		 mov	 r8d, 1
  0078a	48 8b 95 50 a4
	00 00		 mov	 rdx, QWORD PTR string$[rbp]
  00791	48 8d 8d e8 06
	00 00		 lea	 rcx, QWORD PTR graph$72[rbp]
  00798	e8 00 00 00 00	 call	 ??0FST@0@QEAA@PEADFUNODE@0@ZZ ; FST::FST::FST

; 432  : 				FST::NODE(1,
; 433  : 					FST::RELATION('-', 0)
; 434  : 				)
; 435  : 			);
; 436  : 			if (result = execute(graph)) {

  0079d	48 8d 8d e8 06
	00 00		 lea	 rcx, QWORD PTR graph$72[rbp]
  007a4	e8 00 00 00 00	 call	 ?execute@FST@@YA_NAEAU11@@Z ; FST::execute
  007a9	88 85 04 04 00
	00		 mov	 BYTE PTR result$[rbp], al
  007af	0f b6 85 04 04
	00 00		 movzx	 eax, BYTE PTR result$[rbp]
  007b6	85 c0		 test	 eax, eax
  007b8	74 07		 je	 SHORT $LN25@token_reko

; 437  : 				return LEX_MINUS;

  007ba	b0 76		 mov	 al, 118			; 00000076H
  007bc	e9 09 6a 00 00	 jmp	 $LN1@token_reko
$LN25@token_reko:

; 438  : 			}
; 439  : 			break;

  007c1	e9 a2 65 00 00	 jmp	 $LN2@token_reko
$LN26@token_reko:

; 440  : 		}
; 441  : 		case '/':
; 442  : 		{
; 443  : 			FST::FST graph(string, 1,

  007c6	45 33 c0	 xor	 r8d, r8d
  007c9	b2 2f		 mov	 dl, 47			; 0000002fH
  007cb	48 8d 8d 94 1d
	00 00		 lea	 rcx, QWORD PTR $T149[rbp]
  007d2	e8 00 00 00 00	 call	 ??0RELATION@FST@@QEAA@DF@Z ; FST::RELATION::RELATION
  007d7	44 8b 00	 mov	 r8d, DWORD PTR [rax]
  007da	ba 01 00 00 00	 mov	 edx, 1
  007df	48 8d 8d 68 1d
	00 00		 lea	 rcx, QWORD PTR $T148[rbp]
  007e6	e8 00 00 00 00	 call	 ??0NODE@FST@@QEAA@FURELATION@1@ZZ ; FST::NODE::NODE
  007eb	48 8d 8d 80 7a
	00 00		 lea	 rcx, QWORD PTR $T786[rbp]
  007f2	48 8b f9	 mov	 rdi, rcx
  007f5	48 8b f0	 mov	 rsi, rax
  007f8	b9 10 00 00 00	 mov	 ecx, 16
  007fd	f3 a4		 rep movsb
  007ff	4c 8d 8d 80 7a
	00 00		 lea	 r9, QWORD PTR $T786[rbp]
  00806	41 b8 01 00 00
	00		 mov	 r8d, 1
  0080c	48 8b 95 50 a4
	00 00		 mov	 rdx, QWORD PTR string$[rbp]
  00813	48 8d 8d 28 07
	00 00		 lea	 rcx, QWORD PTR graph$73[rbp]
  0081a	e8 00 00 00 00	 call	 ??0FST@0@QEAA@PEADFUNODE@0@ZZ ; FST::FST::FST

; 444  : 				FST::NODE(1,
; 445  : 					FST::RELATION('/', 0)
; 446  : 				));
; 447  : 			if (result = execute(graph)) {

  0081f	48 8d 8d 28 07
	00 00		 lea	 rcx, QWORD PTR graph$73[rbp]
  00826	e8 00 00 00 00	 call	 ?execute@FST@@YA_NAEAU11@@Z ; FST::execute
  0082b	88 85 04 04 00
	00		 mov	 BYTE PTR result$[rbp], al
  00831	0f b6 85 04 04
	00 00		 movzx	 eax, BYTE PTR result$[rbp]
  00838	85 c0		 test	 eax, eax
  0083a	74 07		 je	 SHORT $LN27@token_reko

; 448  : 				return LEX_DIRSLASH;

  0083c	b0 76		 mov	 al, 118			; 00000076H
  0083e	e9 87 69 00 00	 jmp	 $LN1@token_reko
$LN27@token_reko:

; 449  : 			}
; 450  : 			break;

  00843	e9 20 65 00 00	 jmp	 $LN2@token_reko
$LN28@token_reko:

; 451  : 		}
; 452  : 		case '1':
; 453  : 		case '2':
; 454  : 		case '3':
; 455  : 		case '4':
; 456  : 		case '5':
; 457  : 		case '6':
; 458  : 		case '7':
; 459  : 		case '8':
; 460  : 		case '9':
; 461  : 		case '0':
; 462  : 		{
; 463  : 			FST::FST graph_digit_dec(string, 1,

  00848	45 33 c0	 xor	 r8d, r8d
  0084b	b2 2d		 mov	 dl, 45			; 0000002dH
  0084d	48 8d 8d e4 1d
	00 00		 lea	 rcx, QWORD PTR $T151[rbp]
  00854	e8 00 00 00 00	 call	 ??0RELATION@FST@@QEAA@DF@Z ; FST::RELATION::RELATION
  00859	48 89 85 58 9f
	00 00		 mov	 QWORD PTR tv369[rbp], rax
  00860	45 33 c0	 xor	 r8d, r8d
  00863	b2 30		 mov	 dl, 48			; 00000030H
  00865	48 8d 8d 04 1e
	00 00		 lea	 rcx, QWORD PTR $T152[rbp]
  0086c	e8 00 00 00 00	 call	 ??0RELATION@FST@@QEAA@DF@Z ; FST::RELATION::RELATION
  00871	48 89 85 60 9f
	00 00		 mov	 QWORD PTR tv374[rbp], rax
  00878	45 33 c0	 xor	 r8d, r8d
  0087b	b2 39		 mov	 dl, 57			; 00000039H
  0087d	48 8d 8d 24 1e
	00 00		 lea	 rcx, QWORD PTR $T153[rbp]
  00884	e8 00 00 00 00	 call	 ??0RELATION@FST@@QEAA@DF@Z ; FST::RELATION::RELATION
  00889	48 89 85 68 9f
	00 00		 mov	 QWORD PTR tv379[rbp], rax
  00890	45 33 c0	 xor	 r8d, r8d
  00893	b2 38		 mov	 dl, 56			; 00000038H
  00895	48 8d 8d 44 1e
	00 00		 lea	 rcx, QWORD PTR $T154[rbp]
  0089c	e8 00 00 00 00	 call	 ??0RELATION@FST@@QEAA@DF@Z ; FST::RELATION::RELATION
  008a1	48 89 85 70 9f
	00 00		 mov	 QWORD PTR tv384[rbp], rax
  008a8	45 33 c0	 xor	 r8d, r8d
  008ab	b2 37		 mov	 dl, 55			; 00000037H
  008ad	48 8d 8d 64 1e
	00 00		 lea	 rcx, QWORD PTR $T155[rbp]
  008b4	e8 00 00 00 00	 call	 ??0RELATION@FST@@QEAA@DF@Z ; FST::RELATION::RELATION
  008b9	48 89 85 78 9f
	00 00		 mov	 QWORD PTR tv389[rbp], rax
  008c0	45 33 c0	 xor	 r8d, r8d
  008c3	b2 36		 mov	 dl, 54			; 00000036H
  008c5	48 8d 8d 84 1e
	00 00		 lea	 rcx, QWORD PTR $T156[rbp]
  008cc	e8 00 00 00 00	 call	 ??0RELATION@FST@@QEAA@DF@Z ; FST::RELATION::RELATION
  008d1	48 89 85 80 9f
	00 00		 mov	 QWORD PTR tv394[rbp], rax
  008d8	45 33 c0	 xor	 r8d, r8d
  008db	b2 35		 mov	 dl, 53			; 00000035H
  008dd	48 8d 8d a4 1e
	00 00		 lea	 rcx, QWORD PTR $T157[rbp]
  008e4	e8 00 00 00 00	 call	 ??0RELATION@FST@@QEAA@DF@Z ; FST::RELATION::RELATION
  008e9	48 89 85 88 9f
	00 00		 mov	 QWORD PTR tv399[rbp], rax
  008f0	45 33 c0	 xor	 r8d, r8d
  008f3	b2 34		 mov	 dl, 52			; 00000034H
  008f5	48 8d 8d c4 1e
	00 00		 lea	 rcx, QWORD PTR $T158[rbp]
  008fc	e8 00 00 00 00	 call	 ??0RELATION@FST@@QEAA@DF@Z ; FST::RELATION::RELATION
  00901	48 89 85 90 9f
	00 00		 mov	 QWORD PTR tv404[rbp], rax
  00908	45 33 c0	 xor	 r8d, r8d
  0090b	b2 33		 mov	 dl, 51			; 00000033H
  0090d	48 8d 8d e4 1e
	00 00		 lea	 rcx, QWORD PTR $T159[rbp]
  00914	e8 00 00 00 00	 call	 ??0RELATION@FST@@QEAA@DF@Z ; FST::RELATION::RELATION
  00919	48 89 85 98 9f
	00 00		 mov	 QWORD PTR tv409[rbp], rax
  00920	45 33 c0	 xor	 r8d, r8d
  00923	b2 32		 mov	 dl, 50			; 00000032H
  00925	48 8d 8d 04 1f
	00 00		 lea	 rcx, QWORD PTR $T160[rbp]
  0092c	e8 00 00 00 00	 call	 ??0RELATION@FST@@QEAA@DF@Z ; FST::RELATION::RELATION
  00931	48 89 85 a0 9f
	00 00		 mov	 QWORD PTR tv414[rbp], rax
  00938	45 33 c0	 xor	 r8d, r8d
  0093b	b2 31		 mov	 dl, 49			; 00000031H
  0093d	48 8d 8d 24 1f
	00 00		 lea	 rcx, QWORD PTR $T161[rbp]
  00944	e8 00 00 00 00	 call	 ??0RELATION@FST@@QEAA@DF@Z ; FST::RELATION::RELATION
  00949	48 8b 8d 58 9f
	00 00		 mov	 rcx, QWORD PTR tv369[rbp]
  00950	8b 09		 mov	 ecx, DWORD PTR [rcx]
  00952	89 4c 24 60	 mov	 DWORD PTR [rsp+96], ecx
  00956	48 8b 8d 60 9f
	00 00		 mov	 rcx, QWORD PTR tv374[rbp]
  0095d	8b 09		 mov	 ecx, DWORD PTR [rcx]
  0095f	89 4c 24 58	 mov	 DWORD PTR [rsp+88], ecx
  00963	48 8b 8d 68 9f
	00 00		 mov	 rcx, QWORD PTR tv379[rbp]
  0096a	8b 09		 mov	 ecx, DWORD PTR [rcx]
  0096c	89 4c 24 50	 mov	 DWORD PTR [rsp+80], ecx
  00970	48 8b 8d 70 9f
	00 00		 mov	 rcx, QWORD PTR tv384[rbp]
  00977	8b 09		 mov	 ecx, DWORD PTR [rcx]
  00979	89 4c 24 48	 mov	 DWORD PTR [rsp+72], ecx
  0097d	48 8b 8d 78 9f
	00 00		 mov	 rcx, QWORD PTR tv389[rbp]
  00984	8b 09		 mov	 ecx, DWORD PTR [rcx]
  00986	89 4c 24 40	 mov	 DWORD PTR [rsp+64], ecx
  0098a	48 8b 8d 80 9f
	00 00		 mov	 rcx, QWORD PTR tv394[rbp]
  00991	8b 09		 mov	 ecx, DWORD PTR [rcx]
  00993	89 4c 24 38	 mov	 DWORD PTR [rsp+56], ecx
  00997	48 8b 8d 88 9f
	00 00		 mov	 rcx, QWORD PTR tv399[rbp]
  0099e	8b 09		 mov	 ecx, DWORD PTR [rcx]
  009a0	89 4c 24 30	 mov	 DWORD PTR [rsp+48], ecx
  009a4	48 8b 8d 90 9f
	00 00		 mov	 rcx, QWORD PTR tv404[rbp]
  009ab	8b 09		 mov	 ecx, DWORD PTR [rcx]
  009ad	89 4c 24 28	 mov	 DWORD PTR [rsp+40], ecx
  009b1	48 8b 8d 98 9f
	00 00		 mov	 rcx, QWORD PTR tv409[rbp]
  009b8	8b 09		 mov	 ecx, DWORD PTR [rcx]
  009ba	89 4c 24 20	 mov	 DWORD PTR [rsp+32], ecx
  009be	48 8b 8d a0 9f
	00 00		 mov	 rcx, QWORD PTR tv414[rbp]
  009c5	44 8b 09	 mov	 r9d, DWORD PTR [rcx]
  009c8	44 8b 00	 mov	 r8d, DWORD PTR [rax]
  009cb	ba 0b 00 00 00	 mov	 edx, 11
  009d0	48 8d 8d b8 1d
	00 00		 lea	 rcx, QWORD PTR $T150[rbp]
  009d7	e8 00 00 00 00	 call	 ??0NODE@FST@@QEAA@FURELATION@1@ZZ ; FST::NODE::NODE
  009dc	48 8d 8d b0 7a
	00 00		 lea	 rcx, QWORD PTR $T787[rbp]
  009e3	48 8b f9	 mov	 rdi, rcx
  009e6	48 8b f0	 mov	 rsi, rax
  009e9	b9 10 00 00 00	 mov	 ecx, 16
  009ee	f3 a4		 rep movsb
  009f0	4c 8d 8d b0 7a
	00 00		 lea	 r9, QWORD PTR $T787[rbp]
  009f7	41 b8 01 00 00
	00		 mov	 r8d, 1
  009fd	48 8b 95 50 a4
	00 00		 mov	 rdx, QWORD PTR string$[rbp]
  00a04	48 8d 8d 68 07
	00 00		 lea	 rcx, QWORD PTR graph_digit_dec$74[rbp]
  00a0b	e8 00 00 00 00	 call	 ??0FST@0@QEAA@PEADFUNODE@0@ZZ ; FST::FST::FST

; 464  : 				FST::NODE(11,
; 465  : 					FST::RELATION('1', 0),
; 466  : 					FST::RELATION('2', 0),
; 467  : 					FST::RELATION('3', 0),
; 468  : 					FST::RELATION('4', 0),
; 469  : 					FST::RELATION('5', 0),
; 470  : 					FST::RELATION('6', 0),
; 471  : 					FST::RELATION('7', 0),
; 472  : 					FST::RELATION('8', 0),
; 473  : 					FST::RELATION('9', 0),
; 474  : 					FST::RELATION('0', 0),
; 475  : 					FST::RELATION('-', 0)
; 476  : 				)
; 477  : 			);
; 478  : 			if (result = execute(graph_digit_dec)) {

  00a10	48 8d 8d 68 07
	00 00		 lea	 rcx, QWORD PTR graph_digit_dec$74[rbp]
  00a17	e8 00 00 00 00	 call	 ?execute@FST@@YA_NAEAU11@@Z ; FST::execute
  00a1c	88 85 04 04 00
	00		 mov	 BYTE PTR result$[rbp], al
  00a22	0f b6 85 04 04
	00 00		 movzx	 eax, BYTE PTR result$[rbp]
  00a29	85 c0		 test	 eax, eax
  00a2b	74 23		 je	 SHORT $LN29@token_reko

; 479  : 				entry->iddatatype = IT::IDDATATYPE::LONG;

  00a2d	48 8b 85 58 a4
	00 00		 mov	 rax, QWORD PTR entry$[rbp]
  00a34	c7 40 40 01 00
	00 00		 mov	 DWORD PTR [rax+64], 1

; 480  : 				entry->idcalculus = IT::CALCULUS::DEC;

  00a3b	48 8b 85 58 a4
	00 00		 mov	 rax, QWORD PTR entry$[rbp]
  00a42	c7 40 48 01 00
	00 00		 mov	 DWORD PTR [rax+72], 1

; 481  : 				return LEX_LITERAL;

  00a49	b0 6c		 mov	 al, 108			; 0000006cH
  00a4b	e9 7a 67 00 00	 jmp	 $LN1@token_reko
$LN29@token_reko:

; 482  : 			}
; 483  : 			FST::FST graph_digit_oct(string, 3,

  00a50	48 8d 8d 48 1f
	00 00		 lea	 rcx, QWORD PTR $T162[rbp]
  00a57	e8 00 00 00 00	 call	 ??0NODE@FST@@QEAA@XZ	; FST::NODE::NODE
  00a5c	48 8d 8d 40 7b
	00 00		 lea	 rcx, QWORD PTR $T790[rbp]
  00a63	48 8b f9	 mov	 rdi, rcx
  00a66	48 8b f0	 mov	 rsi, rax
  00a69	b9 10 00 00 00	 mov	 ecx, 16
  00a6e	f3 a4		 rep movsb
  00a70	66 41 b8 01 00	 mov	 r8w, 1
  00a75	b2 30		 mov	 dl, 48			; 00000030H
  00a77	48 8d 8d a4 1f
	00 00		 lea	 rcx, QWORD PTR $T164[rbp]
  00a7e	e8 00 00 00 00	 call	 ??0RELATION@FST@@QEAA@DF@Z ; FST::RELATION::RELATION
  00a83	48 89 85 58 9f
	00 00		 mov	 QWORD PTR tv440[rbp], rax
  00a8a	66 41 b8 01 00	 mov	 r8w, 1
  00a8f	b2 37		 mov	 dl, 55			; 00000037H
  00a91	48 8d 8d c4 1f
	00 00		 lea	 rcx, QWORD PTR $T165[rbp]
  00a98	e8 00 00 00 00	 call	 ??0RELATION@FST@@QEAA@DF@Z ; FST::RELATION::RELATION
  00a9d	48 89 85 60 9f
	00 00		 mov	 QWORD PTR tv445[rbp], rax
  00aa4	66 41 b8 01 00	 mov	 r8w, 1
  00aa9	b2 36		 mov	 dl, 54			; 00000036H
  00aab	48 8d 8d e4 1f
	00 00		 lea	 rcx, QWORD PTR $T166[rbp]
  00ab2	e8 00 00 00 00	 call	 ??0RELATION@FST@@QEAA@DF@Z ; FST::RELATION::RELATION
  00ab7	48 89 85 68 9f
	00 00		 mov	 QWORD PTR tv482[rbp], rax
  00abe	66 41 b8 01 00	 mov	 r8w, 1
  00ac3	b2 35		 mov	 dl, 53			; 00000035H
  00ac5	48 8d 8d 04 20
	00 00		 lea	 rcx, QWORD PTR $T167[rbp]
  00acc	e8 00 00 00 00	 call	 ??0RELATION@FST@@QEAA@DF@Z ; FST::RELATION::RELATION
  00ad1	48 89 85 70 9f
	00 00		 mov	 QWORD PTR tv487[rbp], rax
  00ad8	66 41 b8 01 00	 mov	 r8w, 1
  00add	b2 34		 mov	 dl, 52			; 00000034H
  00adf	48 8d 8d 24 20
	00 00		 lea	 rcx, QWORD PTR $T168[rbp]
  00ae6	e8 00 00 00 00	 call	 ??0RELATION@FST@@QEAA@DF@Z ; FST::RELATION::RELATION
  00aeb	48 89 85 78 9f
	00 00		 mov	 QWORD PTR tv492[rbp], rax
  00af2	66 41 b8 01 00	 mov	 r8w, 1
  00af7	b2 33		 mov	 dl, 51			; 00000033H
  00af9	48 8d 8d 44 20
	00 00		 lea	 rcx, QWORD PTR $T169[rbp]
  00b00	e8 00 00 00 00	 call	 ??0RELATION@FST@@QEAA@DF@Z ; FST::RELATION::RELATION
  00b05	48 89 85 80 9f
	00 00		 mov	 QWORD PTR tv497[rbp], rax
  00b0c	66 41 b8 01 00	 mov	 r8w, 1
  00b11	b2 32		 mov	 dl, 50			; 00000032H
  00b13	48 8d 8d 64 20
	00 00		 lea	 rcx, QWORD PTR $T170[rbp]
  00b1a	e8 00 00 00 00	 call	 ??0RELATION@FST@@QEAA@DF@Z ; FST::RELATION::RELATION
  00b1f	48 89 85 88 9f
	00 00		 mov	 QWORD PTR tv502[rbp], rax
  00b26	66 41 b8 01 00	 mov	 r8w, 1
  00b2b	b2 31		 mov	 dl, 49			; 00000031H
  00b2d	48 8d 8d 84 20
	00 00		 lea	 rcx, QWORD PTR $T171[rbp]
  00b34	e8 00 00 00 00	 call	 ??0RELATION@FST@@QEAA@DF@Z ; FST::RELATION::RELATION
  00b39	48 8b 8d 58 9f
	00 00		 mov	 rcx, QWORD PTR tv440[rbp]
  00b40	8b 09		 mov	 ecx, DWORD PTR [rcx]
  00b42	89 4c 24 48	 mov	 DWORD PTR [rsp+72], ecx
  00b46	48 8b 8d 60 9f
	00 00		 mov	 rcx, QWORD PTR tv445[rbp]
  00b4d	8b 09		 mov	 ecx, DWORD PTR [rcx]
  00b4f	89 4c 24 40	 mov	 DWORD PTR [rsp+64], ecx
  00b53	48 8b 8d 68 9f
	00 00		 mov	 rcx, QWORD PTR tv482[rbp]
  00b5a	8b 09		 mov	 ecx, DWORD PTR [rcx]
  00b5c	89 4c 24 38	 mov	 DWORD PTR [rsp+56], ecx
  00b60	48 8b 8d 70 9f
	00 00		 mov	 rcx, QWORD PTR tv487[rbp]
  00b67	8b 09		 mov	 ecx, DWORD PTR [rcx]
  00b69	89 4c 24 30	 mov	 DWORD PTR [rsp+48], ecx
  00b6d	48 8b 8d 78 9f
	00 00		 mov	 rcx, QWORD PTR tv492[rbp]
  00b74	8b 09		 mov	 ecx, DWORD PTR [rcx]
  00b76	89 4c 24 28	 mov	 DWORD PTR [rsp+40], ecx
  00b7a	48 8b 8d 80 9f
	00 00		 mov	 rcx, QWORD PTR tv497[rbp]
  00b81	8b 09		 mov	 ecx, DWORD PTR [rcx]
  00b83	89 4c 24 20	 mov	 DWORD PTR [rsp+32], ecx
  00b87	48 8b 8d 88 9f
	00 00		 mov	 rcx, QWORD PTR tv502[rbp]
  00b8e	44 8b 09	 mov	 r9d, DWORD PTR [rcx]
  00b91	44 8b 00	 mov	 r8d, DWORD PTR [rax]
  00b94	ba 0a 00 00 00	 mov	 edx, 10
  00b99	48 8d 8d 78 1f
	00 00		 lea	 rcx, QWORD PTR $T163[rbp]
  00ba0	e8 00 00 00 00	 call	 ??0NODE@FST@@QEAA@FURELATION@1@ZZ ; FST::NODE::NODE
  00ba5	48 8d 8d 10 7b
	00 00		 lea	 rcx, QWORD PTR $T789[rbp]
  00bac	48 8b f9	 mov	 rdi, rcx
  00baf	48 8b f0	 mov	 rsi, rax
  00bb2	b9 10 00 00 00	 mov	 ecx, 16
  00bb7	f3 a4		 rep movsb
  00bb9	66 41 b8 01 00	 mov	 r8w, 1
  00bbe	b2 30		 mov	 dl, 48			; 00000030H
  00bc0	48 8d 8d d4 20
	00 00		 lea	 rcx, QWORD PTR $T173[rbp]
  00bc7	e8 00 00 00 00	 call	 ??0RELATION@FST@@QEAA@DF@Z ; FST::RELATION::RELATION
  00bcc	44 8b 00	 mov	 r8d, DWORD PTR [rax]
  00bcf	ba 01 00 00 00	 mov	 edx, 1
  00bd4	48 8d 8d a8 20
	00 00		 lea	 rcx, QWORD PTR $T172[rbp]
  00bdb	e8 00 00 00 00	 call	 ??0NODE@FST@@QEAA@FURELATION@1@ZZ ; FST::NODE::NODE
  00be0	48 8d 8d e0 7a
	00 00		 lea	 rcx, QWORD PTR $T788[rbp]
  00be7	48 8b f9	 mov	 rdi, rcx
  00bea	48 8b f0	 mov	 rsi, rax
  00bed	b9 10 00 00 00	 mov	 ecx, 16
  00bf2	f3 a4		 rep movsb
  00bf4	48 8d 85 40 7b
	00 00		 lea	 rax, QWORD PTR $T790[rbp]
  00bfb	48 89 44 24 28	 mov	 QWORD PTR [rsp+40], rax
  00c00	48 8d 85 10 7b
	00 00		 lea	 rax, QWORD PTR $T789[rbp]
  00c07	48 89 44 24 20	 mov	 QWORD PTR [rsp+32], rax
  00c0c	4c 8d 8d e0 7a
	00 00		 lea	 r9, QWORD PTR $T788[rbp]
  00c13	41 b8 03 00 00
	00		 mov	 r8d, 3
  00c19	48 8b 95 50 a4
	00 00		 mov	 rdx, QWORD PTR string$[rbp]
  00c20	48 8d 8d a8 07
	00 00		 lea	 rcx, QWORD PTR graph_digit_oct$75[rbp]
  00c27	e8 00 00 00 00	 call	 ??0FST@0@QEAA@PEADFUNODE@0@ZZ ; FST::FST::FST

; 484  : 				FST::NODE(1, FST::RELATION('0', 1)),
; 485  : 				FST::NODE(10,
; 486  : 					FST::RELATION('1', 1),
; 487  : 					FST::RELATION('2', 1),
; 488  : 					FST::RELATION('3', 1),
; 489  : 					FST::RELATION('4', 1),
; 490  : 					FST::RELATION('5', 1),
; 491  : 					FST::RELATION('6', 1),
; 492  : 					FST::RELATION('7', 1),
; 493  : 					FST::RELATION('0', 1)
; 494  : 				),
; 495  : 				FST::NODE()
; 496  : 			);
; 497  : 			if (result = execute(graph_digit_oct)) {

  00c2c	48 8d 8d a8 07
	00 00		 lea	 rcx, QWORD PTR graph_digit_oct$75[rbp]
  00c33	e8 00 00 00 00	 call	 ?execute@FST@@YA_NAEAU11@@Z ; FST::execute
  00c38	88 85 04 04 00
	00		 mov	 BYTE PTR result$[rbp], al
  00c3e	0f b6 85 04 04
	00 00		 movzx	 eax, BYTE PTR result$[rbp]
  00c45	85 c0		 test	 eax, eax
  00c47	74 23		 je	 SHORT $LN30@token_reko

; 498  : 				entry->iddatatype = IT::IDDATATYPE::LONG;

  00c49	48 8b 85 58 a4
	00 00		 mov	 rax, QWORD PTR entry$[rbp]
  00c50	c7 40 40 01 00
	00 00		 mov	 DWORD PTR [rax+64], 1

; 499  : 				entry->idcalculus = IT::CALCULUS::OCT;

  00c57	48 8b 85 58 a4
	00 00		 mov	 rax, QWORD PTR entry$[rbp]
  00c5e	c7 40 48 02 00
	00 00		 mov	 DWORD PTR [rax+72], 2

; 500  : 				return LEX_LITERAL;

  00c65	b0 6c		 mov	 al, 108			; 0000006cH
  00c67	e9 5e 65 00 00	 jmp	 $LN1@token_reko
$LN30@token_reko:

; 501  : 			}
; 502  : 			FST::FST graph_digit_hex(string, 3,

  00c6c	66 41 b8 02 00	 mov	 r8w, 2
  00c71	b2 66		 mov	 dl, 102			; 00000066H
  00c73	48 8d 8d 24 21
	00 00		 lea	 rcx, QWORD PTR $T175[rbp]
  00c7a	e8 00 00 00 00	 call	 ??0RELATION@FST@@QEAA@DF@Z ; FST::RELATION::RELATION
  00c7f	48 89 85 58 9f
	00 00		 mov	 QWORD PTR tv534[rbp], rax
  00c86	66 41 b8 02 00	 mov	 r8w, 2
  00c8b	b2 65		 mov	 dl, 101			; 00000065H
  00c8d	48 8d 8d 44 21
	00 00		 lea	 rcx, QWORD PTR $T176[rbp]
  00c94	e8 00 00 00 00	 call	 ??0RELATION@FST@@QEAA@DF@Z ; FST::RELATION::RELATION
  00c99	48 89 85 60 9f
	00 00		 mov	 QWORD PTR tv539[rbp], rax
  00ca0	66 41 b8 02 00	 mov	 r8w, 2
  00ca5	b2 64		 mov	 dl, 100			; 00000064H
  00ca7	48 8d 8d 64 21
	00 00		 lea	 rcx, QWORD PTR $T177[rbp]
  00cae	e8 00 00 00 00	 call	 ??0RELATION@FST@@QEAA@DF@Z ; FST::RELATION::RELATION
  00cb3	48 89 85 68 9f
	00 00		 mov	 QWORD PTR tv544[rbp], rax
  00cba	66 41 b8 02 00	 mov	 r8w, 2
  00cbf	b2 63		 mov	 dl, 99			; 00000063H
  00cc1	48 8d 8d 84 21
	00 00		 lea	 rcx, QWORD PTR $T178[rbp]
  00cc8	e8 00 00 00 00	 call	 ??0RELATION@FST@@QEAA@DF@Z ; FST::RELATION::RELATION
  00ccd	48 89 85 70 9f
	00 00		 mov	 QWORD PTR tv549[rbp], rax
  00cd4	66 41 b8 02 00	 mov	 r8w, 2
  00cd9	b2 62		 mov	 dl, 98			; 00000062H
  00cdb	48 8d 8d a4 21
	00 00		 lea	 rcx, QWORD PTR $T179[rbp]
  00ce2	e8 00 00 00 00	 call	 ??0RELATION@FST@@QEAA@DF@Z ; FST::RELATION::RELATION
  00ce7	48 89 85 78 9f
	00 00		 mov	 QWORD PTR tv554[rbp], rax
  00cee	66 41 b8 02 00	 mov	 r8w, 2
  00cf3	b2 61		 mov	 dl, 97			; 00000061H
  00cf5	48 8d 8d c4 21
	00 00		 lea	 rcx, QWORD PTR $T180[rbp]
  00cfc	e8 00 00 00 00	 call	 ??0RELATION@FST@@QEAA@DF@Z ; FST::RELATION::RELATION
  00d01	48 89 85 80 9f
	00 00		 mov	 QWORD PTR tv559[rbp], rax
  00d08	66 41 b8 02 00	 mov	 r8w, 2
  00d0d	b2 39		 mov	 dl, 57			; 00000039H
  00d0f	48 8d 8d e4 21
	00 00		 lea	 rcx, QWORD PTR $T181[rbp]
  00d16	e8 00 00 00 00	 call	 ??0RELATION@FST@@QEAA@DF@Z ; FST::RELATION::RELATION
  00d1b	48 89 85 88 9f
	00 00		 mov	 QWORD PTR tv564[rbp], rax
  00d22	66 41 b8 02 00	 mov	 r8w, 2
  00d27	b2 38		 mov	 dl, 56			; 00000038H
  00d29	48 8d 8d 04 22
	00 00		 lea	 rcx, QWORD PTR $T182[rbp]
  00d30	e8 00 00 00 00	 call	 ??0RELATION@FST@@QEAA@DF@Z ; FST::RELATION::RELATION
  00d35	48 89 85 90 9f
	00 00		 mov	 QWORD PTR tv569[rbp], rax
  00d3c	66 41 b8 02 00	 mov	 r8w, 2
  00d41	b2 37		 mov	 dl, 55			; 00000037H
  00d43	48 8d 8d 24 22
	00 00		 lea	 rcx, QWORD PTR $T183[rbp]
  00d4a	e8 00 00 00 00	 call	 ??0RELATION@FST@@QEAA@DF@Z ; FST::RELATION::RELATION
  00d4f	48 89 85 98 9f
	00 00		 mov	 QWORD PTR tv574[rbp], rax
  00d56	66 41 b8 02 00	 mov	 r8w, 2
  00d5b	b2 36		 mov	 dl, 54			; 00000036H
  00d5d	48 8d 8d 44 22
	00 00		 lea	 rcx, QWORD PTR $T184[rbp]
  00d64	e8 00 00 00 00	 call	 ??0RELATION@FST@@QEAA@DF@Z ; FST::RELATION::RELATION
  00d69	48 89 85 a0 9f
	00 00		 mov	 QWORD PTR tv579[rbp], rax
  00d70	66 41 b8 02 00	 mov	 r8w, 2
  00d75	b2 35		 mov	 dl, 53			; 00000035H
  00d77	48 8d 8d 64 22
	00 00		 lea	 rcx, QWORD PTR $T185[rbp]
  00d7e	e8 00 00 00 00	 call	 ??0RELATION@FST@@QEAA@DF@Z ; FST::RELATION::RELATION
  00d83	48 89 85 a8 9f
	00 00		 mov	 QWORD PTR tv584[rbp], rax
  00d8a	66 41 b8 02 00	 mov	 r8w, 2
  00d8f	b2 34		 mov	 dl, 52			; 00000034H
  00d91	48 8d 8d 84 22
	00 00		 lea	 rcx, QWORD PTR $T186[rbp]
  00d98	e8 00 00 00 00	 call	 ??0RELATION@FST@@QEAA@DF@Z ; FST::RELATION::RELATION
  00d9d	48 89 85 b0 9f
	00 00		 mov	 QWORD PTR tv589[rbp], rax
  00da4	66 41 b8 02 00	 mov	 r8w, 2
  00da9	b2 33		 mov	 dl, 51			; 00000033H
  00dab	48 8d 8d a4 22
	00 00		 lea	 rcx, QWORD PTR $T187[rbp]
  00db2	e8 00 00 00 00	 call	 ??0RELATION@FST@@QEAA@DF@Z ; FST::RELATION::RELATION
  00db7	48 89 85 b8 9f
	00 00		 mov	 QWORD PTR tv594[rbp], rax
  00dbe	66 41 b8 02 00	 mov	 r8w, 2
  00dc3	b2 32		 mov	 dl, 50			; 00000032H
  00dc5	48 8d 8d c4 22
	00 00		 lea	 rcx, QWORD PTR $T188[rbp]
  00dcc	e8 00 00 00 00	 call	 ??0RELATION@FST@@QEAA@DF@Z ; FST::RELATION::RELATION
  00dd1	48 89 85 c0 9f
	00 00		 mov	 QWORD PTR tv599[rbp], rax
  00dd8	66 41 b8 02 00	 mov	 r8w, 2
  00ddd	b2 31		 mov	 dl, 49			; 00000031H
  00ddf	48 8d 8d e4 22
	00 00		 lea	 rcx, QWORD PTR $T189[rbp]
  00de6	e8 00 00 00 00	 call	 ??0RELATION@FST@@QEAA@DF@Z ; FST::RELATION::RELATION
  00deb	48 89 85 c8 9f
	00 00		 mov	 QWORD PTR tv604[rbp], rax
  00df2	66 41 b8 02 00	 mov	 r8w, 2
  00df7	b2 30		 mov	 dl, 48			; 00000030H
  00df9	48 8d 8d 04 23
	00 00		 lea	 rcx, QWORD PTR $T190[rbp]
  00e00	e8 00 00 00 00	 call	 ??0RELATION@FST@@QEAA@DF@Z ; FST::RELATION::RELATION
  00e05	48 8b 8d 58 9f
	00 00		 mov	 rcx, QWORD PTR tv534[rbp]
  00e0c	8b 09		 mov	 ecx, DWORD PTR [rcx]
  00e0e	89 8c 24 88 00
	00 00		 mov	 DWORD PTR [rsp+136], ecx
  00e15	48 8b 8d 60 9f
	00 00		 mov	 rcx, QWORD PTR tv539[rbp]
  00e1c	8b 09		 mov	 ecx, DWORD PTR [rcx]
  00e1e	89 8c 24 80 00
	00 00		 mov	 DWORD PTR [rsp+128], ecx
  00e25	48 8b 8d 68 9f
	00 00		 mov	 rcx, QWORD PTR tv544[rbp]
  00e2c	8b 09		 mov	 ecx, DWORD PTR [rcx]
  00e2e	89 4c 24 78	 mov	 DWORD PTR [rsp+120], ecx
  00e32	48 8b 8d 70 9f
	00 00		 mov	 rcx, QWORD PTR tv549[rbp]
  00e39	8b 09		 mov	 ecx, DWORD PTR [rcx]
  00e3b	89 4c 24 70	 mov	 DWORD PTR [rsp+112], ecx
  00e3f	48 8b 8d 78 9f
	00 00		 mov	 rcx, QWORD PTR tv554[rbp]
  00e46	8b 09		 mov	 ecx, DWORD PTR [rcx]
  00e48	89 4c 24 68	 mov	 DWORD PTR [rsp+104], ecx
  00e4c	48 8b 8d 80 9f
	00 00		 mov	 rcx, QWORD PTR tv559[rbp]
  00e53	8b 09		 mov	 ecx, DWORD PTR [rcx]
  00e55	89 4c 24 60	 mov	 DWORD PTR [rsp+96], ecx
  00e59	48 8b 8d 88 9f
	00 00		 mov	 rcx, QWORD PTR tv564[rbp]
  00e60	8b 09		 mov	 ecx, DWORD PTR [rcx]
  00e62	89 4c 24 58	 mov	 DWORD PTR [rsp+88], ecx
  00e66	48 8b 8d 90 9f
	00 00		 mov	 rcx, QWORD PTR tv569[rbp]
  00e6d	8b 09		 mov	 ecx, DWORD PTR [rcx]
  00e6f	89 4c 24 50	 mov	 DWORD PTR [rsp+80], ecx
  00e73	48 8b 8d 98 9f
	00 00		 mov	 rcx, QWORD PTR tv574[rbp]
  00e7a	8b 09		 mov	 ecx, DWORD PTR [rcx]
  00e7c	89 4c 24 48	 mov	 DWORD PTR [rsp+72], ecx
  00e80	48 8b 8d a0 9f
	00 00		 mov	 rcx, QWORD PTR tv579[rbp]
  00e87	8b 09		 mov	 ecx, DWORD PTR [rcx]
  00e89	89 4c 24 40	 mov	 DWORD PTR [rsp+64], ecx
  00e8d	48 8b 8d a8 9f
	00 00		 mov	 rcx, QWORD PTR tv584[rbp]
  00e94	8b 09		 mov	 ecx, DWORD PTR [rcx]
  00e96	89 4c 24 38	 mov	 DWORD PTR [rsp+56], ecx
  00e9a	48 8b 8d b0 9f
	00 00		 mov	 rcx, QWORD PTR tv589[rbp]
  00ea1	8b 09		 mov	 ecx, DWORD PTR [rcx]
  00ea3	89 4c 24 30	 mov	 DWORD PTR [rsp+48], ecx
  00ea7	48 8b 8d b8 9f
	00 00		 mov	 rcx, QWORD PTR tv594[rbp]
  00eae	8b 09		 mov	 ecx, DWORD PTR [rcx]
  00eb0	89 4c 24 28	 mov	 DWORD PTR [rsp+40], ecx
  00eb4	48 8b 8d c0 9f
	00 00		 mov	 rcx, QWORD PTR tv599[rbp]
  00ebb	8b 09		 mov	 ecx, DWORD PTR [rcx]
  00ebd	89 4c 24 20	 mov	 DWORD PTR [rsp+32], ecx
  00ec1	48 8b 8d c8 9f
	00 00		 mov	 rcx, QWORD PTR tv604[rbp]
  00ec8	44 8b 09	 mov	 r9d, DWORD PTR [rcx]
  00ecb	44 8b 00	 mov	 r8d, DWORD PTR [rax]
  00ece	ba 10 00 00 00	 mov	 edx, 16
  00ed3	48 8d 8d f8 20
	00 00		 lea	 rcx, QWORD PTR $T174[rbp]
  00eda	e8 00 00 00 00	 call	 ??0NODE@FST@@QEAA@FURELATION@1@ZZ ; FST::NODE::NODE
  00edf	48 8d 8d d0 7b
	00 00		 lea	 rcx, QWORD PTR $T793[rbp]
  00ee6	48 8b f9	 mov	 rdi, rcx
  00ee9	48 8b f0	 mov	 rsi, rax
  00eec	b9 10 00 00 00	 mov	 ecx, 16
  00ef1	f3 a4		 rep movsb
  00ef3	66 41 b8 02 00	 mov	 r8w, 2
  00ef8	b2 78		 mov	 dl, 120			; 00000078H
  00efa	48 8d 8d 54 23
	00 00		 lea	 rcx, QWORD PTR $T192[rbp]
  00f01	e8 00 00 00 00	 call	 ??0RELATION@FST@@QEAA@DF@Z ; FST::RELATION::RELATION
  00f06	44 8b 00	 mov	 r8d, DWORD PTR [rax]
  00f09	ba 01 00 00 00	 mov	 edx, 1
  00f0e	48 8d 8d 28 23
	00 00		 lea	 rcx, QWORD PTR $T191[rbp]
  00f15	e8 00 00 00 00	 call	 ??0NODE@FST@@QEAA@FURELATION@1@ZZ ; FST::NODE::NODE
  00f1a	48 8d 8d a0 7b
	00 00		 lea	 rcx, QWORD PTR $T792[rbp]
  00f21	48 8b f9	 mov	 rdi, rcx
  00f24	48 8b f0	 mov	 rsi, rax
  00f27	b9 10 00 00 00	 mov	 ecx, 16
  00f2c	f3 a4		 rep movsb
  00f2e	66 41 b8 01 00	 mov	 r8w, 1
  00f33	b2 30		 mov	 dl, 48			; 00000030H
  00f35	48 8d 8d a4 23
	00 00		 lea	 rcx, QWORD PTR $T194[rbp]
  00f3c	e8 00 00 00 00	 call	 ??0RELATION@FST@@QEAA@DF@Z ; FST::RELATION::RELATION
  00f41	44 8b 00	 mov	 r8d, DWORD PTR [rax]
  00f44	ba 01 00 00 00	 mov	 edx, 1
  00f49	48 8d 8d 78 23
	00 00		 lea	 rcx, QWORD PTR $T193[rbp]
  00f50	e8 00 00 00 00	 call	 ??0NODE@FST@@QEAA@FURELATION@1@ZZ ; FST::NODE::NODE
  00f55	48 8d 8d 70 7b
	00 00		 lea	 rcx, QWORD PTR $T791[rbp]
  00f5c	48 8b f9	 mov	 rdi, rcx
  00f5f	48 8b f0	 mov	 rsi, rax
  00f62	b9 10 00 00 00	 mov	 ecx, 16
  00f67	f3 a4		 rep movsb
  00f69	48 8d 85 d0 7b
	00 00		 lea	 rax, QWORD PTR $T793[rbp]
  00f70	48 89 44 24 28	 mov	 QWORD PTR [rsp+40], rax
  00f75	48 8d 85 a0 7b
	00 00		 lea	 rax, QWORD PTR $T792[rbp]
  00f7c	48 89 44 24 20	 mov	 QWORD PTR [rsp+32], rax
  00f81	4c 8d 8d 70 7b
	00 00		 lea	 r9, QWORD PTR $T791[rbp]
  00f88	41 b8 03 00 00
	00		 mov	 r8d, 3
  00f8e	48 8b 95 50 a4
	00 00		 mov	 rdx, QWORD PTR string$[rbp]
  00f95	48 8d 8d e8 07
	00 00		 lea	 rcx, QWORD PTR graph_digit_hex$76[rbp]
  00f9c	e8 00 00 00 00	 call	 ??0FST@0@QEAA@PEADFUNODE@0@ZZ ; FST::FST::FST

; 503  : 				FST::NODE(1, FST::RELATION('0', 1)),
; 504  : 				FST::NODE(1, FST::RELATION('x', 2)),
; 505  : 				FST::NODE(16,
; 506  : 					FST::RELATION('0', 2),
; 507  : 					FST::RELATION('1', 2),
; 508  : 					FST::RELATION('2', 2),
; 509  : 					FST::RELATION('3', 2),
; 510  : 					FST::RELATION('4', 2),
; 511  : 					FST::RELATION('5', 2),
; 512  : 					FST::RELATION('6', 2),
; 513  : 					FST::RELATION('7', 2),
; 514  : 					FST::RELATION('8', 2),
; 515  : 					FST::RELATION('9', 2),
; 516  : 					FST::RELATION('a', 2),
; 517  : 					FST::RELATION('b', 2),
; 518  : 					FST::RELATION('c', 2),
; 519  : 					FST::RELATION('d', 2),
; 520  : 					FST::RELATION('e', 2),
; 521  : 					FST::RELATION('f', 2)
; 522  : 
; 523  : 				)
; 524  : 			);
; 525  : 			if (result = execute(graph_digit_hex)) {

  00fa1	48 8d 8d e8 07
	00 00		 lea	 rcx, QWORD PTR graph_digit_hex$76[rbp]
  00fa8	e8 00 00 00 00	 call	 ?execute@FST@@YA_NAEAU11@@Z ; FST::execute
  00fad	88 85 04 04 00
	00		 mov	 BYTE PTR result$[rbp], al
  00fb3	0f b6 85 04 04
	00 00		 movzx	 eax, BYTE PTR result$[rbp]
  00fba	85 c0		 test	 eax, eax
  00fbc	74 23		 je	 SHORT $LN31@token_reko

; 526  : 				entry->iddatatype = IT::IDDATATYPE::LONG;

  00fbe	48 8b 85 58 a4
	00 00		 mov	 rax, QWORD PTR entry$[rbp]
  00fc5	c7 40 40 01 00
	00 00		 mov	 DWORD PTR [rax+64], 1

; 527  : 				entry->idcalculus = IT::CALCULUS::HEX;

  00fcc	48 8b 85 58 a4
	00 00		 mov	 rax, QWORD PTR entry$[rbp]
  00fd3	c7 40 48 03 00
	00 00		 mov	 DWORD PTR [rax+72], 3

; 528  : 				return LEX_LITERAL;

  00fda	b0 6c		 mov	 al, 108			; 0000006cH
  00fdc	e9 e9 61 00 00	 jmp	 $LN1@token_reko
$LN31@token_reko:

; 529  : 			}
; 530  : 			FST::FST graph_digit_bin(string, 3,

  00fe1	66 41 b8 02 00	 mov	 r8w, 2
  00fe6	b2 30		 mov	 dl, 48			; 00000030H
  00fe8	48 8d 8d f4 23
	00 00		 lea	 rcx, QWORD PTR $T196[rbp]
  00fef	e8 00 00 00 00	 call	 ??0RELATION@FST@@QEAA@DF@Z ; FST::RELATION::RELATION
  00ff4	48 89 85 58 9f
	00 00		 mov	 QWORD PTR tv677[rbp], rax
  00ffb	66 41 b8 02 00	 mov	 r8w, 2
  01000	b2 31		 mov	 dl, 49			; 00000031H
  01002	48 8d 8d 14 24
	00 00		 lea	 rcx, QWORD PTR $T197[rbp]
  01009	e8 00 00 00 00	 call	 ??0RELATION@FST@@QEAA@DF@Z ; FST::RELATION::RELATION
  0100e	48 8b 8d 58 9f
	00 00		 mov	 rcx, QWORD PTR tv677[rbp]
  01015	44 8b 09	 mov	 r9d, DWORD PTR [rcx]
  01018	44 8b 00	 mov	 r8d, DWORD PTR [rax]
  0101b	ba 02 00 00 00	 mov	 edx, 2
  01020	48 8d 8d c8 23
	00 00		 lea	 rcx, QWORD PTR $T195[rbp]
  01027	e8 00 00 00 00	 call	 ??0NODE@FST@@QEAA@FURELATION@1@ZZ ; FST::NODE::NODE
  0102c	48 8d 8d 60 7c
	00 00		 lea	 rcx, QWORD PTR $T796[rbp]
  01033	48 8b f9	 mov	 rdi, rcx
  01036	48 8b f0	 mov	 rsi, rax
  01039	b9 10 00 00 00	 mov	 ecx, 16
  0103e	f3 a4		 rep movsb
  01040	66 41 b8 02 00	 mov	 r8w, 2
  01045	b2 62		 mov	 dl, 98			; 00000062H
  01047	48 8d 8d 64 24
	00 00		 lea	 rcx, QWORD PTR $T199[rbp]
  0104e	e8 00 00 00 00	 call	 ??0RELATION@FST@@QEAA@DF@Z ; FST::RELATION::RELATION
  01053	44 8b 00	 mov	 r8d, DWORD PTR [rax]
  01056	ba 01 00 00 00	 mov	 edx, 1
  0105b	48 8d 8d 38 24
	00 00		 lea	 rcx, QWORD PTR $T198[rbp]
  01062	e8 00 00 00 00	 call	 ??0NODE@FST@@QEAA@FURELATION@1@ZZ ; FST::NODE::NODE
  01067	48 8d 8d 30 7c
	00 00		 lea	 rcx, QWORD PTR $T795[rbp]
  0106e	48 8b f9	 mov	 rdi, rcx
  01071	48 8b f0	 mov	 rsi, rax
  01074	b9 10 00 00 00	 mov	 ecx, 16
  01079	f3 a4		 rep movsb
  0107b	66 41 b8 01 00	 mov	 r8w, 1
  01080	b2 30		 mov	 dl, 48			; 00000030H
  01082	48 8d 8d b4 24
	00 00		 lea	 rcx, QWORD PTR $T201[rbp]
  01089	e8 00 00 00 00	 call	 ??0RELATION@FST@@QEAA@DF@Z ; FST::RELATION::RELATION
  0108e	44 8b 00	 mov	 r8d, DWORD PTR [rax]
  01091	ba 01 00 00 00	 mov	 edx, 1
  01096	48 8d 8d 88 24
	00 00		 lea	 rcx, QWORD PTR $T200[rbp]
  0109d	e8 00 00 00 00	 call	 ??0NODE@FST@@QEAA@FURELATION@1@ZZ ; FST::NODE::NODE
  010a2	48 8d 8d 00 7c
	00 00		 lea	 rcx, QWORD PTR $T794[rbp]
  010a9	48 8b f9	 mov	 rdi, rcx
  010ac	48 8b f0	 mov	 rsi, rax
  010af	b9 10 00 00 00	 mov	 ecx, 16
  010b4	f3 a4		 rep movsb
  010b6	48 8d 85 60 7c
	00 00		 lea	 rax, QWORD PTR $T796[rbp]
  010bd	48 89 44 24 28	 mov	 QWORD PTR [rsp+40], rax
  010c2	48 8d 85 30 7c
	00 00		 lea	 rax, QWORD PTR $T795[rbp]
  010c9	48 89 44 24 20	 mov	 QWORD PTR [rsp+32], rax
  010ce	4c 8d 8d 00 7c
	00 00		 lea	 r9, QWORD PTR $T794[rbp]
  010d5	41 b8 03 00 00
	00		 mov	 r8d, 3
  010db	48 8b 95 50 a4
	00 00		 mov	 rdx, QWORD PTR string$[rbp]
  010e2	48 8d 8d 28 08
	00 00		 lea	 rcx, QWORD PTR graph_digit_bin$77[rbp]
  010e9	e8 00 00 00 00	 call	 ??0FST@0@QEAA@PEADFUNODE@0@ZZ ; FST::FST::FST

; 531  : 				FST::NODE(1, FST::RELATION('0', 1)),
; 532  : 				FST::NODE(1, FST::RELATION('b', 2)),
; 533  : 				FST::NODE(2,
; 534  : 					FST::RELATION('1', 2),
; 535  : 					FST::RELATION('0', 2)
; 536  : 				)
; 537  : 			);
; 538  : 			if (result = execute(graph_digit_bin)) {

  010ee	48 8d 8d 28 08
	00 00		 lea	 rcx, QWORD PTR graph_digit_bin$77[rbp]
  010f5	e8 00 00 00 00	 call	 ?execute@FST@@YA_NAEAU11@@Z ; FST::execute
  010fa	88 85 04 04 00
	00		 mov	 BYTE PTR result$[rbp], al
  01100	0f b6 85 04 04
	00 00		 movzx	 eax, BYTE PTR result$[rbp]
  01107	85 c0		 test	 eax, eax
  01109	74 23		 je	 SHORT $LN32@token_reko

; 539  : 				entry->iddatatype = IT::IDDATATYPE::LONG;

  0110b	48 8b 85 58 a4
	00 00		 mov	 rax, QWORD PTR entry$[rbp]
  01112	c7 40 40 01 00
	00 00		 mov	 DWORD PTR [rax+64], 1

; 540  : 				entry->idcalculus = IT::CALCULUS::BIN;

  01119	48 8b 85 58 a4
	00 00		 mov	 rax, QWORD PTR entry$[rbp]
  01120	c7 40 48 04 00
	00 00		 mov	 DWORD PTR [rax+72], 4

; 541  : 				return LEX_LITERAL;

  01127	b0 6c		 mov	 al, 108			; 0000006cH
  01129	e9 9c 60 00 00	 jmp	 $LN1@token_reko
$LN32@token_reko:

; 542  : 			}
; 543  : 			FST::FST graph_digit_float(string, 2,

  0112e	66 41 b8 01 00	 mov	 r8w, 1
  01133	b2 30		 mov	 dl, 48			; 00000030H
  01135	48 8d 8d 04 25
	00 00		 lea	 rcx, QWORD PTR $T203[rbp]
  0113c	e8 00 00 00 00	 call	 ??0RELATION@FST@@QEAA@DF@Z ; FST::RELATION::RELATION
  01141	48 89 85 58 9f
	00 00		 mov	 QWORD PTR tv718[rbp], rax
  01148	66 41 b8 01 00	 mov	 r8w, 1
  0114d	b2 39		 mov	 dl, 57			; 00000039H
  0114f	48 8d 8d 24 25
	00 00		 lea	 rcx, QWORD PTR $T204[rbp]
  01156	e8 00 00 00 00	 call	 ??0RELATION@FST@@QEAA@DF@Z ; FST::RELATION::RELATION
  0115b	48 89 85 60 9f
	00 00		 mov	 QWORD PTR tv723[rbp], rax
  01162	66 41 b8 01 00	 mov	 r8w, 1
  01167	b2 38		 mov	 dl, 56			; 00000038H
  01169	48 8d 8d 44 25
	00 00		 lea	 rcx, QWORD PTR $T205[rbp]
  01170	e8 00 00 00 00	 call	 ??0RELATION@FST@@QEAA@DF@Z ; FST::RELATION::RELATION
  01175	48 89 85 68 9f
	00 00		 mov	 QWORD PTR tv728[rbp], rax
  0117c	66 41 b8 01 00	 mov	 r8w, 1
  01181	b2 37		 mov	 dl, 55			; 00000037H
  01183	48 8d 8d 64 25
	00 00		 lea	 rcx, QWORD PTR $T206[rbp]
  0118a	e8 00 00 00 00	 call	 ??0RELATION@FST@@QEAA@DF@Z ; FST::RELATION::RELATION
  0118f	48 89 85 70 9f
	00 00		 mov	 QWORD PTR tv733[rbp], rax
  01196	66 41 b8 01 00	 mov	 r8w, 1
  0119b	b2 36		 mov	 dl, 54			; 00000036H
  0119d	48 8d 8d 84 25
	00 00		 lea	 rcx, QWORD PTR $T207[rbp]
  011a4	e8 00 00 00 00	 call	 ??0RELATION@FST@@QEAA@DF@Z ; FST::RELATION::RELATION
  011a9	48 89 85 78 9f
	00 00		 mov	 QWORD PTR tv738[rbp], rax
  011b0	66 41 b8 01 00	 mov	 r8w, 1
  011b5	b2 35		 mov	 dl, 53			; 00000035H
  011b7	48 8d 8d a4 25
	00 00		 lea	 rcx, QWORD PTR $T208[rbp]
  011be	e8 00 00 00 00	 call	 ??0RELATION@FST@@QEAA@DF@Z ; FST::RELATION::RELATION
  011c3	48 89 85 80 9f
	00 00		 mov	 QWORD PTR tv743[rbp], rax
  011ca	66 41 b8 01 00	 mov	 r8w, 1
  011cf	b2 34		 mov	 dl, 52			; 00000034H
  011d1	48 8d 8d c4 25
	00 00		 lea	 rcx, QWORD PTR $T209[rbp]
  011d8	e8 00 00 00 00	 call	 ??0RELATION@FST@@QEAA@DF@Z ; FST::RELATION::RELATION
  011dd	48 89 85 88 9f
	00 00		 mov	 QWORD PTR tv748[rbp], rax
  011e4	66 41 b8 01 00	 mov	 r8w, 1
  011e9	b2 33		 mov	 dl, 51			; 00000033H
  011eb	48 8d 8d e4 25
	00 00		 lea	 rcx, QWORD PTR $T210[rbp]
  011f2	e8 00 00 00 00	 call	 ??0RELATION@FST@@QEAA@DF@Z ; FST::RELATION::RELATION
  011f7	48 89 85 90 9f
	00 00		 mov	 QWORD PTR tv753[rbp], rax
  011fe	66 41 b8 01 00	 mov	 r8w, 1
  01203	b2 32		 mov	 dl, 50			; 00000032H
  01205	48 8d 8d 04 26
	00 00		 lea	 rcx, QWORD PTR $T211[rbp]
  0120c	e8 00 00 00 00	 call	 ??0RELATION@FST@@QEAA@DF@Z ; FST::RELATION::RELATION
  01211	48 89 85 98 9f
	00 00		 mov	 QWORD PTR tv758[rbp], rax
  01218	66 41 b8 01 00	 mov	 r8w, 1
  0121d	b2 31		 mov	 dl, 49			; 00000031H
  0121f	48 8d 8d 24 26
	00 00		 lea	 rcx, QWORD PTR $T212[rbp]
  01226	e8 00 00 00 00	 call	 ??0RELATION@FST@@QEAA@DF@Z ; FST::RELATION::RELATION
  0122b	48 8b 8d 58 9f
	00 00		 mov	 rcx, QWORD PTR tv718[rbp]
  01232	8b 09		 mov	 ecx, DWORD PTR [rcx]
  01234	89 4c 24 58	 mov	 DWORD PTR [rsp+88], ecx
  01238	48 8b 8d 60 9f
	00 00		 mov	 rcx, QWORD PTR tv723[rbp]
  0123f	8b 09		 mov	 ecx, DWORD PTR [rcx]
  01241	89 4c 24 50	 mov	 DWORD PTR [rsp+80], ecx
  01245	48 8b 8d 68 9f
	00 00		 mov	 rcx, QWORD PTR tv728[rbp]
  0124c	8b 09		 mov	 ecx, DWORD PTR [rcx]
  0124e	89 4c 24 48	 mov	 DWORD PTR [rsp+72], ecx
  01252	48 8b 8d 70 9f
	00 00		 mov	 rcx, QWORD PTR tv733[rbp]
  01259	8b 09		 mov	 ecx, DWORD PTR [rcx]
  0125b	89 4c 24 40	 mov	 DWORD PTR [rsp+64], ecx
  0125f	48 8b 8d 78 9f
	00 00		 mov	 rcx, QWORD PTR tv738[rbp]
  01266	8b 09		 mov	 ecx, DWORD PTR [rcx]
  01268	89 4c 24 38	 mov	 DWORD PTR [rsp+56], ecx
  0126c	48 8b 8d 80 9f
	00 00		 mov	 rcx, QWORD PTR tv743[rbp]
  01273	8b 09		 mov	 ecx, DWORD PTR [rcx]
  01275	89 4c 24 30	 mov	 DWORD PTR [rsp+48], ecx
  01279	48 8b 8d 88 9f
	00 00		 mov	 rcx, QWORD PTR tv748[rbp]
  01280	8b 09		 mov	 ecx, DWORD PTR [rcx]
  01282	89 4c 24 28	 mov	 DWORD PTR [rsp+40], ecx
  01286	48 8b 8d 90 9f
	00 00		 mov	 rcx, QWORD PTR tv753[rbp]
  0128d	8b 09		 mov	 ecx, DWORD PTR [rcx]
  0128f	89 4c 24 20	 mov	 DWORD PTR [rsp+32], ecx
  01293	48 8b 8d 98 9f
	00 00		 mov	 rcx, QWORD PTR tv758[rbp]
  0129a	44 8b 09	 mov	 r9d, DWORD PTR [rcx]
  0129d	44 8b 00	 mov	 r8d, DWORD PTR [rax]
  012a0	ba 0a 00 00 00	 mov	 edx, 10
  012a5	48 8d 8d d8 24
	00 00		 lea	 rcx, QWORD PTR $T202[rbp]
  012ac	e8 00 00 00 00	 call	 ??0NODE@FST@@QEAA@FURELATION@1@ZZ ; FST::NODE::NODE
  012b1	48 8d 8d c0 7c
	00 00		 lea	 rcx, QWORD PTR $T798[rbp]
  012b8	48 8b f9	 mov	 rdi, rcx
  012bb	48 8b f0	 mov	 rsi, rax
  012be	b9 10 00 00 00	 mov	 ecx, 16
  012c3	f3 a4		 rep movsb
  012c5	66 41 b8 01 00	 mov	 r8w, 1
  012ca	b2 2e		 mov	 dl, 46			; 0000002eH
  012cc	48 8d 8d 74 26
	00 00		 lea	 rcx, QWORD PTR $T214[rbp]
  012d3	e8 00 00 00 00	 call	 ??0RELATION@FST@@QEAA@DF@Z ; FST::RELATION::RELATION
  012d8	48 89 85 a0 9f
	00 00		 mov	 QWORD PTR tv772[rbp], rax
  012df	45 33 c0	 xor	 r8d, r8d
  012e2	b2 2d		 mov	 dl, 45			; 0000002dH
  012e4	48 8d 8d 94 26
	00 00		 lea	 rcx, QWORD PTR $T215[rbp]
  012eb	e8 00 00 00 00	 call	 ??0RELATION@FST@@QEAA@DF@Z ; FST::RELATION::RELATION
  012f0	48 89 85 a8 9f
	00 00		 mov	 QWORD PTR tv777[rbp], rax
  012f7	45 33 c0	 xor	 r8d, r8d
  012fa	b2 30		 mov	 dl, 48			; 00000030H
  012fc	48 8d 8d b4 26
	00 00		 lea	 rcx, QWORD PTR $T216[rbp]
  01303	e8 00 00 00 00	 call	 ??0RELATION@FST@@QEAA@DF@Z ; FST::RELATION::RELATION
  01308	48 89 85 b0 9f
	00 00		 mov	 QWORD PTR tv782[rbp], rax
  0130f	45 33 c0	 xor	 r8d, r8d
  01312	b2 39		 mov	 dl, 57			; 00000039H
  01314	48 8d 8d d4 26
	00 00		 lea	 rcx, QWORD PTR $T217[rbp]
  0131b	e8 00 00 00 00	 call	 ??0RELATION@FST@@QEAA@DF@Z ; FST::RELATION::RELATION
  01320	48 89 85 b8 9f
	00 00		 mov	 QWORD PTR tv787[rbp], rax
  01327	45 33 c0	 xor	 r8d, r8d
  0132a	b2 38		 mov	 dl, 56			; 00000038H
  0132c	48 8d 8d f4 26
	00 00		 lea	 rcx, QWORD PTR $T218[rbp]
  01333	e8 00 00 00 00	 call	 ??0RELATION@FST@@QEAA@DF@Z ; FST::RELATION::RELATION
  01338	48 89 85 c0 9f
	00 00		 mov	 QWORD PTR tv792[rbp], rax
  0133f	45 33 c0	 xor	 r8d, r8d
  01342	b2 37		 mov	 dl, 55			; 00000037H
  01344	48 8d 8d 14 27
	00 00		 lea	 rcx, QWORD PTR $T219[rbp]
  0134b	e8 00 00 00 00	 call	 ??0RELATION@FST@@QEAA@DF@Z ; FST::RELATION::RELATION
  01350	48 89 85 c8 9f
	00 00		 mov	 QWORD PTR tv797[rbp], rax
  01357	45 33 c0	 xor	 r8d, r8d
  0135a	b2 36		 mov	 dl, 54			; 00000036H
  0135c	48 8d 8d 34 27
	00 00		 lea	 rcx, QWORD PTR $T220[rbp]
  01363	e8 00 00 00 00	 call	 ??0RELATION@FST@@QEAA@DF@Z ; FST::RELATION::RELATION
  01368	48 89 85 d0 9f
	00 00		 mov	 QWORD PTR tv802[rbp], rax
  0136f	45 33 c0	 xor	 r8d, r8d
  01372	b2 35		 mov	 dl, 53			; 00000035H
  01374	48 8d 8d 54 27
	00 00		 lea	 rcx, QWORD PTR $T221[rbp]
  0137b	e8 00 00 00 00	 call	 ??0RELATION@FST@@QEAA@DF@Z ; FST::RELATION::RELATION
  01380	48 89 85 d8 9f
	00 00		 mov	 QWORD PTR tv807[rbp], rax
  01387	45 33 c0	 xor	 r8d, r8d
  0138a	b2 34		 mov	 dl, 52			; 00000034H
  0138c	48 8d 8d 74 27
	00 00		 lea	 rcx, QWORD PTR $T222[rbp]
  01393	e8 00 00 00 00	 call	 ??0RELATION@FST@@QEAA@DF@Z ; FST::RELATION::RELATION
  01398	48 89 85 e0 9f
	00 00		 mov	 QWORD PTR tv812[rbp], rax
  0139f	45 33 c0	 xor	 r8d, r8d
  013a2	b2 33		 mov	 dl, 51			; 00000033H
  013a4	48 8d 8d 94 27
	00 00		 lea	 rcx, QWORD PTR $T223[rbp]
  013ab	e8 00 00 00 00	 call	 ??0RELATION@FST@@QEAA@DF@Z ; FST::RELATION::RELATION
  013b0	48 89 85 e8 9f
	00 00		 mov	 QWORD PTR tv817[rbp], rax
  013b7	45 33 c0	 xor	 r8d, r8d
  013ba	b2 32		 mov	 dl, 50			; 00000032H
  013bc	48 8d 8d b4 27
	00 00		 lea	 rcx, QWORD PTR $T224[rbp]
  013c3	e8 00 00 00 00	 call	 ??0RELATION@FST@@QEAA@DF@Z ; FST::RELATION::RELATION
  013c8	48 89 85 f0 9f
	00 00		 mov	 QWORD PTR tv822[rbp], rax
  013cf	45 33 c0	 xor	 r8d, r8d
  013d2	b2 31		 mov	 dl, 49			; 00000031H
  013d4	48 8d 8d d4 27
	00 00		 lea	 rcx, QWORD PTR $T225[rbp]
  013db	e8 00 00 00 00	 call	 ??0RELATION@FST@@QEAA@DF@Z ; FST::RELATION::RELATION
  013e0	48 8b 8d a0 9f
	00 00		 mov	 rcx, QWORD PTR tv772[rbp]
  013e7	8b 09		 mov	 ecx, DWORD PTR [rcx]
  013e9	89 4c 24 68	 mov	 DWORD PTR [rsp+104], ecx
  013ed	48 8b 8d a8 9f
	00 00		 mov	 rcx, QWORD PTR tv777[rbp]
  013f4	8b 09		 mov	 ecx, DWORD PTR [rcx]
  013f6	89 4c 24 60	 mov	 DWORD PTR [rsp+96], ecx
  013fa	48 8b 8d b0 9f
	00 00		 mov	 rcx, QWORD PTR tv782[rbp]
  01401	8b 09		 mov	 ecx, DWORD PTR [rcx]
  01403	89 4c 24 58	 mov	 DWORD PTR [rsp+88], ecx
  01407	48 8b 8d b8 9f
	00 00		 mov	 rcx, QWORD PTR tv787[rbp]
  0140e	8b 09		 mov	 ecx, DWORD PTR [rcx]
  01410	89 4c 24 50	 mov	 DWORD PTR [rsp+80], ecx
  01414	48 8b 8d c0 9f
	00 00		 mov	 rcx, QWORD PTR tv792[rbp]
  0141b	8b 09		 mov	 ecx, DWORD PTR [rcx]
  0141d	89 4c 24 48	 mov	 DWORD PTR [rsp+72], ecx
  01421	48 8b 8d c8 9f
	00 00		 mov	 rcx, QWORD PTR tv797[rbp]
  01428	8b 09		 mov	 ecx, DWORD PTR [rcx]
  0142a	89 4c 24 40	 mov	 DWORD PTR [rsp+64], ecx
  0142e	48 8b 8d d0 9f
	00 00		 mov	 rcx, QWORD PTR tv802[rbp]
  01435	8b 09		 mov	 ecx, DWORD PTR [rcx]
  01437	89 4c 24 38	 mov	 DWORD PTR [rsp+56], ecx
  0143b	48 8b 8d d8 9f
	00 00		 mov	 rcx, QWORD PTR tv807[rbp]
  01442	8b 09		 mov	 ecx, DWORD PTR [rcx]
  01444	89 4c 24 30	 mov	 DWORD PTR [rsp+48], ecx
  01448	48 8b 8d e0 9f
	00 00		 mov	 rcx, QWORD PTR tv812[rbp]
  0144f	8b 09		 mov	 ecx, DWORD PTR [rcx]
  01451	89 4c 24 28	 mov	 DWORD PTR [rsp+40], ecx
  01455	48 8b 8d e8 9f
	00 00		 mov	 rcx, QWORD PTR tv817[rbp]
  0145c	8b 09		 mov	 ecx, DWORD PTR [rcx]
  0145e	89 4c 24 20	 mov	 DWORD PTR [rsp+32], ecx
  01462	48 8b 8d f0 9f
	00 00		 mov	 rcx, QWORD PTR tv822[rbp]
  01469	44 8b 09	 mov	 r9d, DWORD PTR [rcx]
  0146c	44 8b 00	 mov	 r8d, DWORD PTR [rax]
  0146f	ba 0c 00 00 00	 mov	 edx, 12
  01474	48 8d 8d 48 26
	00 00		 lea	 rcx, QWORD PTR $T213[rbp]
  0147b	e8 00 00 00 00	 call	 ??0NODE@FST@@QEAA@FURELATION@1@ZZ ; FST::NODE::NODE
  01480	48 8d 8d 90 7c
	00 00		 lea	 rcx, QWORD PTR $T797[rbp]
  01487	48 8b f9	 mov	 rdi, rcx
  0148a	48 8b f0	 mov	 rsi, rax
  0148d	b9 10 00 00 00	 mov	 ecx, 16
  01492	f3 a4		 rep movsb
  01494	48 8d 85 c0 7c
	00 00		 lea	 rax, QWORD PTR $T798[rbp]
  0149b	48 89 44 24 20	 mov	 QWORD PTR [rsp+32], rax
  014a0	4c 8d 8d 90 7c
	00 00		 lea	 r9, QWORD PTR $T797[rbp]
  014a7	41 b8 02 00 00
	00		 mov	 r8d, 2
  014ad	48 8b 95 50 a4
	00 00		 mov	 rdx, QWORD PTR string$[rbp]
  014b4	48 8d 8d 68 08
	00 00		 lea	 rcx, QWORD PTR graph_digit_float$78[rbp]
  014bb	e8 00 00 00 00	 call	 ??0FST@0@QEAA@PEADFUNODE@0@ZZ ; FST::FST::FST

; 544  : 				FST::NODE(12,
; 545  : 					FST::RELATION('1', 0),
; 546  : 					FST::RELATION('2', 0),
; 547  : 					FST::RELATION('3', 0),
; 548  : 					FST::RELATION('4', 0),
; 549  : 					FST::RELATION('5', 0),
; 550  : 					FST::RELATION('6', 0),
; 551  : 					FST::RELATION('7', 0),
; 552  : 					FST::RELATION('8', 0),
; 553  : 					FST::RELATION('9', 0),
; 554  : 					FST::RELATION('0', 0),
; 555  : 					FST::RELATION('-', 0),
; 556  : 					FST::RELATION('.', 1)
; 557  : 				),
; 558  : 				FST::NODE(10,
; 559  : 					FST::RELATION('1', 1),
; 560  : 					FST::RELATION('2', 1),
; 561  : 					FST::RELATION('3', 1),
; 562  : 					FST::RELATION('4', 1),
; 563  : 					FST::RELATION('5', 1),
; 564  : 					FST::RELATION('6', 1),
; 565  : 					FST::RELATION('7', 1),
; 566  : 					FST::RELATION('8', 1),
; 567  : 					FST::RELATION('9', 1),
; 568  : 					FST::RELATION('0', 1)
; 569  : 				)
; 570  : 			);
; 571  : 			if (result = execute(graph_digit_float)) {

  014c0	48 8d 8d 68 08
	00 00		 lea	 rcx, QWORD PTR graph_digit_float$78[rbp]
  014c7	e8 00 00 00 00	 call	 ?execute@FST@@YA_NAEAU11@@Z ; FST::execute
  014cc	88 85 04 04 00
	00		 mov	 BYTE PTR result$[rbp], al
  014d2	0f b6 85 04 04
	00 00		 movzx	 eax, BYTE PTR result$[rbp]
  014d9	85 c0		 test	 eax, eax
  014db	74 15		 je	 SHORT $LN33@token_reko

; 572  : 				entry->iddatatype = IT::IDDATATYPE::FLOAT;

  014dd	48 8b 85 58 a4
	00 00		 mov	 rax, QWORD PTR entry$[rbp]
  014e4	c7 40 40 04 00
	00 00		 mov	 DWORD PTR [rax+64], 4

; 573  : 				return LEX_LITERAL;

  014eb	b0 6c		 mov	 al, 108			; 0000006cH
  014ed	e9 d8 5c 00 00	 jmp	 $LN1@token_reko
$LN33@token_reko:

; 574  : 			}
; 575  : 			break;

  014f2	e9 71 58 00 00	 jmp	 $LN2@token_reko
$LN34@token_reko:

; 576  : 		}
; 577  : 		case ';':
; 578  : 		{
; 579  : 			FST::FST graph(string, 1,

  014f7	45 33 c0	 xor	 r8d, r8d
  014fa	b2 3b		 mov	 dl, 59			; 0000003bH
  014fc	48 8d 8d 24 28
	00 00		 lea	 rcx, QWORD PTR $T227[rbp]
  01503	e8 00 00 00 00	 call	 ??0RELATION@FST@@QEAA@DF@Z ; FST::RELATION::RELATION
  01508	44 8b 00	 mov	 r8d, DWORD PTR [rax]
  0150b	ba 01 00 00 00	 mov	 edx, 1
  01510	48 8d 8d f8 27
	00 00		 lea	 rcx, QWORD PTR $T226[rbp]
  01517	e8 00 00 00 00	 call	 ??0NODE@FST@@QEAA@FURELATION@1@ZZ ; FST::NODE::NODE
  0151c	48 8d 8d f0 7c
	00 00		 lea	 rcx, QWORD PTR $T799[rbp]
  01523	48 8b f9	 mov	 rdi, rcx
  01526	48 8b f0	 mov	 rsi, rax
  01529	b9 10 00 00 00	 mov	 ecx, 16
  0152e	f3 a4		 rep movsb
  01530	4c 8d 8d f0 7c
	00 00		 lea	 r9, QWORD PTR $T799[rbp]
  01537	41 b8 01 00 00
	00		 mov	 r8d, 1
  0153d	48 8b 95 50 a4
	00 00		 mov	 rdx, QWORD PTR string$[rbp]
  01544	48 8d 8d a8 08
	00 00		 lea	 rcx, QWORD PTR graph$79[rbp]
  0154b	e8 00 00 00 00	 call	 ??0FST@0@QEAA@PEADFUNODE@0@ZZ ; FST::FST::FST

; 580  : 				FST::NODE(1,
; 581  : 					FST::RELATION(';', 0)
; 582  : 				));
; 583  : 			if (result = execute(graph)) {

  01550	48 8d 8d a8 08
	00 00		 lea	 rcx, QWORD PTR graph$79[rbp]
  01557	e8 00 00 00 00	 call	 ?execute@FST@@YA_NAEAU11@@Z ; FST::execute
  0155c	88 85 04 04 00
	00		 mov	 BYTE PTR result$[rbp], al
  01562	0f b6 85 04 04
	00 00		 movzx	 eax, BYTE PTR result$[rbp]
  01569	85 c0		 test	 eax, eax
  0156b	74 07		 je	 SHORT $LN35@token_reko

; 584  : 				return LEX_SEMICOLON;

  0156d	b0 3b		 mov	 al, 59			; 0000003bH
  0156f	e9 56 5c 00 00	 jmp	 $LN1@token_reko
$LN35@token_reko:

; 585  : 			}
; 586  : 			break;

  01574	e9 ef 57 00 00	 jmp	 $LN2@token_reko
$LN36@token_reko:

; 587  : 		}
; 588  : 		case '<':
; 589  : 		{
; 590  : 			FST::FST graph_bl(string, 3,

  01579	48 8d 8d 48 28
	00 00		 lea	 rcx, QWORD PTR $T228[rbp]
  01580	e8 00 00 00 00	 call	 ??0NODE@FST@@QEAA@XZ	; FST::NODE::NODE
  01585	48 8d 8d 80 7d
	00 00		 lea	 rcx, QWORD PTR $T802[rbp]
  0158c	48 8b f9	 mov	 rdi, rcx
  0158f	48 8b f0	 mov	 rsi, rax
  01592	b9 10 00 00 00	 mov	 ecx, 16
  01597	f3 a4		 rep movsb
  01599	66 41 b8 02 00	 mov	 r8w, 2
  0159e	b2 3c		 mov	 dl, 60			; 0000003cH
  015a0	48 8d 8d a4 28
	00 00		 lea	 rcx, QWORD PTR $T230[rbp]
  015a7	e8 00 00 00 00	 call	 ??0RELATION@FST@@QEAA@DF@Z ; FST::RELATION::RELATION
  015ac	44 8b 00	 mov	 r8d, DWORD PTR [rax]
  015af	ba 01 00 00 00	 mov	 edx, 1
  015b4	48 8d 8d 78 28
	00 00		 lea	 rcx, QWORD PTR $T229[rbp]
  015bb	e8 00 00 00 00	 call	 ??0NODE@FST@@QEAA@FURELATION@1@ZZ ; FST::NODE::NODE
  015c0	48 8d 8d 50 7d
	00 00		 lea	 rcx, QWORD PTR $T801[rbp]
  015c7	48 8b f9	 mov	 rdi, rcx
  015ca	48 8b f0	 mov	 rsi, rax
  015cd	b9 10 00 00 00	 mov	 ecx, 16
  015d2	f3 a4		 rep movsb
  015d4	66 41 b8 01 00	 mov	 r8w, 1
  015d9	b2 3c		 mov	 dl, 60			; 0000003cH
  015db	48 8d 8d f4 28
	00 00		 lea	 rcx, QWORD PTR $T232[rbp]
  015e2	e8 00 00 00 00	 call	 ??0RELATION@FST@@QEAA@DF@Z ; FST::RELATION::RELATION
  015e7	44 8b 00	 mov	 r8d, DWORD PTR [rax]
  015ea	ba 01 00 00 00	 mov	 edx, 1
  015ef	48 8d 8d c8 28
	00 00		 lea	 rcx, QWORD PTR $T231[rbp]
  015f6	e8 00 00 00 00	 call	 ??0NODE@FST@@QEAA@FURELATION@1@ZZ ; FST::NODE::NODE
  015fb	48 8d 8d 20 7d
	00 00		 lea	 rcx, QWORD PTR $T800[rbp]
  01602	48 8b f9	 mov	 rdi, rcx
  01605	48 8b f0	 mov	 rsi, rax
  01608	b9 10 00 00 00	 mov	 ecx, 16
  0160d	f3 a4		 rep movsb
  0160f	48 8d 85 80 7d
	00 00		 lea	 rax, QWORD PTR $T802[rbp]
  01616	48 89 44 24 28	 mov	 QWORD PTR [rsp+40], rax
  0161b	48 8d 85 50 7d
	00 00		 lea	 rax, QWORD PTR $T801[rbp]
  01622	48 89 44 24 20	 mov	 QWORD PTR [rsp+32], rax
  01627	4c 8d 8d 20 7d
	00 00		 lea	 r9, QWORD PTR $T800[rbp]
  0162e	41 b8 03 00 00
	00		 mov	 r8d, 3
  01634	48 8b 95 50 a4
	00 00		 mov	 rdx, QWORD PTR string$[rbp]
  0163b	48 8d 8d e8 08
	00 00		 lea	 rcx, QWORD PTR graph_bl$80[rbp]
  01642	e8 00 00 00 00	 call	 ??0FST@0@QEAA@PEADFUNODE@0@ZZ ; FST::FST::FST

; 591  : 				FST::NODE(1, FST::RELATION('<', 1)),
; 592  : 				FST::NODE(1, FST::RELATION('<', 2)),
; 593  : 				FST::NODE());
; 594  : 			if (result = execute(graph_bl)) {

  01647	48 8d 8d e8 08
	00 00		 lea	 rcx, QWORD PTR graph_bl$80[rbp]
  0164e	e8 00 00 00 00	 call	 ?execute@FST@@YA_NAEAU11@@Z ; FST::execute
  01653	88 85 04 04 00
	00		 mov	 BYTE PTR result$[rbp], al
  01659	0f b6 85 04 04
	00 00		 movzx	 eax, BYTE PTR result$[rbp]
  01660	85 c0		 test	 eax, eax
  01662	74 0c		 je	 SHORT $LN37@token_reko

; 595  : 				return LEX_SHR;

  01664	b0 62		 mov	 al, 98			; 00000062H
  01666	e9 5f 5b 00 00	 jmp	 $LN1@token_reko

; 596  : 				break;

  0166b	e9 f8 56 00 00	 jmp	 $LN2@token_reko
$LN37@token_reko:

; 597  : 			}
; 598  : 			FST::FST graph_le(string, 3,

  01670	48 8d 8d 18 29
	00 00		 lea	 rcx, QWORD PTR $T233[rbp]
  01677	e8 00 00 00 00	 call	 ??0NODE@FST@@QEAA@XZ	; FST::NODE::NODE
  0167c	48 8d 8d 10 7e
	00 00		 lea	 rcx, QWORD PTR $T805[rbp]
  01683	48 8b f9	 mov	 rdi, rcx
  01686	48 8b f0	 mov	 rsi, rax
  01689	b9 10 00 00 00	 mov	 ecx, 16
  0168e	f3 a4		 rep movsb
  01690	66 41 b8 02 00	 mov	 r8w, 2
  01695	b2 3d		 mov	 dl, 61			; 0000003dH
  01697	48 8d 8d 74 29
	00 00		 lea	 rcx, QWORD PTR $T235[rbp]
  0169e	e8 00 00 00 00	 call	 ??0RELATION@FST@@QEAA@DF@Z ; FST::RELATION::RELATION
  016a3	44 8b 00	 mov	 r8d, DWORD PTR [rax]
  016a6	ba 01 00 00 00	 mov	 edx, 1
  016ab	48 8d 8d 48 29
	00 00		 lea	 rcx, QWORD PTR $T234[rbp]
  016b2	e8 00 00 00 00	 call	 ??0NODE@FST@@QEAA@FURELATION@1@ZZ ; FST::NODE::NODE
  016b7	48 8d 8d e0 7d
	00 00		 lea	 rcx, QWORD PTR $T804[rbp]
  016be	48 8b f9	 mov	 rdi, rcx
  016c1	48 8b f0	 mov	 rsi, rax
  016c4	b9 10 00 00 00	 mov	 ecx, 16
  016c9	f3 a4		 rep movsb
  016cb	66 41 b8 01 00	 mov	 r8w, 1
  016d0	b2 3c		 mov	 dl, 60			; 0000003cH
  016d2	48 8d 8d c4 29
	00 00		 lea	 rcx, QWORD PTR $T237[rbp]
  016d9	e8 00 00 00 00	 call	 ??0RELATION@FST@@QEAA@DF@Z ; FST::RELATION::RELATION
  016de	44 8b 00	 mov	 r8d, DWORD PTR [rax]
  016e1	ba 01 00 00 00	 mov	 edx, 1
  016e6	48 8d 8d 98 29
	00 00		 lea	 rcx, QWORD PTR $T236[rbp]
  016ed	e8 00 00 00 00	 call	 ??0NODE@FST@@QEAA@FURELATION@1@ZZ ; FST::NODE::NODE
  016f2	48 8d 8d b0 7d
	00 00		 lea	 rcx, QWORD PTR $T803[rbp]
  016f9	48 8b f9	 mov	 rdi, rcx
  016fc	48 8b f0	 mov	 rsi, rax
  016ff	b9 10 00 00 00	 mov	 ecx, 16
  01704	f3 a4		 rep movsb
  01706	48 8d 85 10 7e
	00 00		 lea	 rax, QWORD PTR $T805[rbp]
  0170d	48 89 44 24 28	 mov	 QWORD PTR [rsp+40], rax
  01712	48 8d 85 e0 7d
	00 00		 lea	 rax, QWORD PTR $T804[rbp]
  01719	48 89 44 24 20	 mov	 QWORD PTR [rsp+32], rax
  0171e	4c 8d 8d b0 7d
	00 00		 lea	 r9, QWORD PTR $T803[rbp]
  01725	41 b8 03 00 00
	00		 mov	 r8d, 3
  0172b	48 8b 95 50 a4
	00 00		 mov	 rdx, QWORD PTR string$[rbp]
  01732	48 8d 8d 28 09
	00 00		 lea	 rcx, QWORD PTR graph_le$81[rbp]
  01739	e8 00 00 00 00	 call	 ??0FST@0@QEAA@PEADFUNODE@0@ZZ ; FST::FST::FST

; 599  : 				FST::NODE(1, FST::RELATION('<', 1)),
; 600  : 				FST::NODE(1, FST::RELATION('=', 2)),
; 601  : 				FST::NODE());
; 602  : 			if (result = execute(graph_le)) {

  0173e	48 8d 8d 28 09
	00 00		 lea	 rcx, QWORD PTR graph_le$81[rbp]
  01745	e8 00 00 00 00	 call	 ?execute@FST@@YA_NAEAU11@@Z ; FST::execute
  0174a	88 85 04 04 00
	00		 mov	 BYTE PTR result$[rbp], al
  01750	0f b6 85 04 04
	00 00		 movzx	 eax, BYTE PTR result$[rbp]
  01757	85 c0		 test	 eax, eax
  01759	74 0c		 je	 SHORT $LN38@token_reko

; 603  : 				return 	LOGICALS;

  0175b	b0 63		 mov	 al, 99			; 00000063H
  0175d	e9 68 5a 00 00	 jmp	 $LN1@token_reko

; 604  : 				break;

  01762	e9 01 56 00 00	 jmp	 $LN2@token_reko
$LN38@token_reko:

; 605  : 			}
; 606  : 			FST::FST graphl(string, 1,

  01767	45 33 c0	 xor	 r8d, r8d
  0176a	b2 3c		 mov	 dl, 60			; 0000003cH
  0176c	48 8d 8d 14 2a
	00 00		 lea	 rcx, QWORD PTR $T239[rbp]
  01773	e8 00 00 00 00	 call	 ??0RELATION@FST@@QEAA@DF@Z ; FST::RELATION::RELATION
  01778	44 8b 00	 mov	 r8d, DWORD PTR [rax]
  0177b	ba 01 00 00 00	 mov	 edx, 1
  01780	48 8d 8d e8 29
	00 00		 lea	 rcx, QWORD PTR $T238[rbp]
  01787	e8 00 00 00 00	 call	 ??0NODE@FST@@QEAA@FURELATION@1@ZZ ; FST::NODE::NODE
  0178c	48 8d 8d 40 7e
	00 00		 lea	 rcx, QWORD PTR $T806[rbp]
  01793	48 8b f9	 mov	 rdi, rcx
  01796	48 8b f0	 mov	 rsi, rax
  01799	b9 10 00 00 00	 mov	 ecx, 16
  0179e	f3 a4		 rep movsb
  017a0	4c 8d 8d 40 7e
	00 00		 lea	 r9, QWORD PTR $T806[rbp]
  017a7	41 b8 01 00 00
	00		 mov	 r8d, 1
  017ad	48 8b 95 50 a4
	00 00		 mov	 rdx, QWORD PTR string$[rbp]
  017b4	48 8d 8d 68 09
	00 00		 lea	 rcx, QWORD PTR graphl$82[rbp]
  017bb	e8 00 00 00 00	 call	 ??0FST@0@QEAA@PEADFUNODE@0@ZZ ; FST::FST::FST

; 607  : 				FST::NODE(1,
; 608  : 					FST::RELATION('<', 0)
; 609  : 				));
; 610  : 			if (result = execute(graphl)) {

  017c0	48 8d 8d 68 09
	00 00		 lea	 rcx, QWORD PTR graphl$82[rbp]
  017c7	e8 00 00 00 00	 call	 ?execute@FST@@YA_NAEAU11@@Z ; FST::execute
  017cc	88 85 04 04 00
	00		 mov	 BYTE PTR result$[rbp], al
  017d2	0f b6 85 04 04
	00 00		 movzx	 eax, BYTE PTR result$[rbp]
  017d9	85 c0		 test	 eax, eax
  017db	74 0c		 je	 SHORT $LN39@token_reko

; 611  : 				return LEX_LESS;

  017dd	b0 63		 mov	 al, 99			; 00000063H
  017df	e9 e6 59 00 00	 jmp	 $LN1@token_reko

; 612  : 				break;

  017e4	e9 7f 55 00 00	 jmp	 $LN2@token_reko
$LN39@token_reko:

; 613  : 			}
; 614  : 			break;

  017e9	e9 7a 55 00 00	 jmp	 $LN2@token_reko
$LN40@token_reko:

; 615  : 		}
; 616  : 		case '>':
; 617  : 		{
; 618  : 			FST::FST graph_r(string, 3,

  017ee	48 8d 8d 38 2a
	00 00		 lea	 rcx, QWORD PTR $T240[rbp]
  017f5	e8 00 00 00 00	 call	 ??0NODE@FST@@QEAA@XZ	; FST::NODE::NODE
  017fa	48 8d 8d d0 7e
	00 00		 lea	 rcx, QWORD PTR $T809[rbp]
  01801	48 8b f9	 mov	 rdi, rcx
  01804	48 8b f0	 mov	 rsi, rax
  01807	b9 10 00 00 00	 mov	 ecx, 16
  0180c	f3 a4		 rep movsb
  0180e	66 41 b8 02 00	 mov	 r8w, 2
  01813	b2 3e		 mov	 dl, 62			; 0000003eH
  01815	48 8d 8d 94 2a
	00 00		 lea	 rcx, QWORD PTR $T242[rbp]
  0181c	e8 00 00 00 00	 call	 ??0RELATION@FST@@QEAA@DF@Z ; FST::RELATION::RELATION
  01821	44 8b 00	 mov	 r8d, DWORD PTR [rax]
  01824	ba 01 00 00 00	 mov	 edx, 1
  01829	48 8d 8d 68 2a
	00 00		 lea	 rcx, QWORD PTR $T241[rbp]
  01830	e8 00 00 00 00	 call	 ??0NODE@FST@@QEAA@FURELATION@1@ZZ ; FST::NODE::NODE
  01835	48 8d 8d a0 7e
	00 00		 lea	 rcx, QWORD PTR $T808[rbp]
  0183c	48 8b f9	 mov	 rdi, rcx
  0183f	48 8b f0	 mov	 rsi, rax
  01842	b9 10 00 00 00	 mov	 ecx, 16
  01847	f3 a4		 rep movsb
  01849	66 41 b8 01 00	 mov	 r8w, 1
  0184e	b2 3e		 mov	 dl, 62			; 0000003eH
  01850	48 8d 8d e4 2a
	00 00		 lea	 rcx, QWORD PTR $T244[rbp]
  01857	e8 00 00 00 00	 call	 ??0RELATION@FST@@QEAA@DF@Z ; FST::RELATION::RELATION
  0185c	44 8b 00	 mov	 r8d, DWORD PTR [rax]
  0185f	ba 01 00 00 00	 mov	 edx, 1
  01864	48 8d 8d b8 2a
	00 00		 lea	 rcx, QWORD PTR $T243[rbp]
  0186b	e8 00 00 00 00	 call	 ??0NODE@FST@@QEAA@FURELATION@1@ZZ ; FST::NODE::NODE
  01870	48 8d 8d 70 7e
	00 00		 lea	 rcx, QWORD PTR $T807[rbp]
  01877	48 8b f9	 mov	 rdi, rcx
  0187a	48 8b f0	 mov	 rsi, rax
  0187d	b9 10 00 00 00	 mov	 ecx, 16
  01882	f3 a4		 rep movsb
  01884	48 8d 85 d0 7e
	00 00		 lea	 rax, QWORD PTR $T809[rbp]
  0188b	48 89 44 24 28	 mov	 QWORD PTR [rsp+40], rax
  01890	48 8d 85 a0 7e
	00 00		 lea	 rax, QWORD PTR $T808[rbp]
  01897	48 89 44 24 20	 mov	 QWORD PTR [rsp+32], rax
  0189c	4c 8d 8d 70 7e
	00 00		 lea	 r9, QWORD PTR $T807[rbp]
  018a3	41 b8 03 00 00
	00		 mov	 r8d, 3
  018a9	48 8b 95 50 a4
	00 00		 mov	 rdx, QWORD PTR string$[rbp]
  018b0	48 8d 8d a8 09
	00 00		 lea	 rcx, QWORD PTR graph_r$83[rbp]
  018b7	e8 00 00 00 00	 call	 ??0FST@0@QEAA@PEADFUNODE@0@ZZ ; FST::FST::FST

; 619  : 				FST::NODE(1, FST::RELATION('>', 1)),
; 620  : 				FST::NODE(1, FST::RELATION('>', 2)),
; 621  : 				FST::NODE());
; 622  : 			if (result = execute(graph_r)) {

  018bc	48 8d 8d a8 09
	00 00		 lea	 rcx, QWORD PTR graph_r$83[rbp]
  018c3	e8 00 00 00 00	 call	 ?execute@FST@@YA_NAEAU11@@Z ; FST::execute
  018c8	88 85 04 04 00
	00		 mov	 BYTE PTR result$[rbp], al
  018ce	0f b6 85 04 04
	00 00		 movzx	 eax, BYTE PTR result$[rbp]
  018d5	85 c0		 test	 eax, eax
  018d7	74 0c		 je	 SHORT $LN41@token_reko

; 623  : 				return LEX_SHR;

  018d9	b0 62		 mov	 al, 98			; 00000062H
  018db	e9 ea 58 00 00	 jmp	 $LN1@token_reko

; 624  : 				break;

  018e0	e9 83 54 00 00	 jmp	 $LN2@token_reko
$LN41@token_reko:

; 625  : 			}
; 626  : 			FST::FST graph_me(string, 3,

  018e5	48 8d 8d 08 2b
	00 00		 lea	 rcx, QWORD PTR $T245[rbp]
  018ec	e8 00 00 00 00	 call	 ??0NODE@FST@@QEAA@XZ	; FST::NODE::NODE
  018f1	48 8d 8d 60 7f
	00 00		 lea	 rcx, QWORD PTR $T812[rbp]
  018f8	48 8b f9	 mov	 rdi, rcx
  018fb	48 8b f0	 mov	 rsi, rax
  018fe	b9 10 00 00 00	 mov	 ecx, 16
  01903	f3 a4		 rep movsb
  01905	66 41 b8 02 00	 mov	 r8w, 2
  0190a	b2 3d		 mov	 dl, 61			; 0000003dH
  0190c	48 8d 8d 64 2b
	00 00		 lea	 rcx, QWORD PTR $T247[rbp]
  01913	e8 00 00 00 00	 call	 ??0RELATION@FST@@QEAA@DF@Z ; FST::RELATION::RELATION
  01918	44 8b 00	 mov	 r8d, DWORD PTR [rax]
  0191b	ba 01 00 00 00	 mov	 edx, 1
  01920	48 8d 8d 38 2b
	00 00		 lea	 rcx, QWORD PTR $T246[rbp]
  01927	e8 00 00 00 00	 call	 ??0NODE@FST@@QEAA@FURELATION@1@ZZ ; FST::NODE::NODE
  0192c	48 8d 8d 30 7f
	00 00		 lea	 rcx, QWORD PTR $T811[rbp]
  01933	48 8b f9	 mov	 rdi, rcx
  01936	48 8b f0	 mov	 rsi, rax
  01939	b9 10 00 00 00	 mov	 ecx, 16
  0193e	f3 a4		 rep movsb
  01940	66 41 b8 01 00	 mov	 r8w, 1
  01945	b2 3e		 mov	 dl, 62			; 0000003eH
  01947	48 8d 8d b4 2b
	00 00		 lea	 rcx, QWORD PTR $T249[rbp]
  0194e	e8 00 00 00 00	 call	 ??0RELATION@FST@@QEAA@DF@Z ; FST::RELATION::RELATION
  01953	44 8b 00	 mov	 r8d, DWORD PTR [rax]
  01956	ba 01 00 00 00	 mov	 edx, 1
  0195b	48 8d 8d 88 2b
	00 00		 lea	 rcx, QWORD PTR $T248[rbp]
  01962	e8 00 00 00 00	 call	 ??0NODE@FST@@QEAA@FURELATION@1@ZZ ; FST::NODE::NODE
  01967	48 8d 8d 00 7f
	00 00		 lea	 rcx, QWORD PTR $T810[rbp]
  0196e	48 8b f9	 mov	 rdi, rcx
  01971	48 8b f0	 mov	 rsi, rax
  01974	b9 10 00 00 00	 mov	 ecx, 16
  01979	f3 a4		 rep movsb
  0197b	48 8d 85 60 7f
	00 00		 lea	 rax, QWORD PTR $T812[rbp]
  01982	48 89 44 24 28	 mov	 QWORD PTR [rsp+40], rax
  01987	48 8d 85 30 7f
	00 00		 lea	 rax, QWORD PTR $T811[rbp]
  0198e	48 89 44 24 20	 mov	 QWORD PTR [rsp+32], rax
  01993	4c 8d 8d 00 7f
	00 00		 lea	 r9, QWORD PTR $T810[rbp]
  0199a	41 b8 03 00 00
	00		 mov	 r8d, 3
  019a0	48 8b 95 50 a4
	00 00		 mov	 rdx, QWORD PTR string$[rbp]
  019a7	48 8d 8d e8 09
	00 00		 lea	 rcx, QWORD PTR graph_me$84[rbp]
  019ae	e8 00 00 00 00	 call	 ??0FST@0@QEAA@PEADFUNODE@0@ZZ ; FST::FST::FST

; 627  : 				FST::NODE(1, FST::RELATION('>', 1)),
; 628  : 				FST::NODE(1, FST::RELATION('=', 2)),
; 629  : 				FST::NODE());
; 630  : 			if (result = execute(graph_me)) {

  019b3	48 8d 8d e8 09
	00 00		 lea	 rcx, QWORD PTR graph_me$84[rbp]
  019ba	e8 00 00 00 00	 call	 ?execute@FST@@YA_NAEAU11@@Z ; FST::execute
  019bf	88 85 04 04 00
	00		 mov	 BYTE PTR result$[rbp], al
  019c5	0f b6 85 04 04
	00 00		 movzx	 eax, BYTE PTR result$[rbp]
  019cc	85 c0		 test	 eax, eax
  019ce	74 0c		 je	 SHORT $LN42@token_reko

; 631  : 				return LOGICALS;

  019d0	b0 63		 mov	 al, 99			; 00000063H
  019d2	e9 f3 57 00 00	 jmp	 $LN1@token_reko

; 632  : 				break;

  019d7	e9 8c 53 00 00	 jmp	 $LN2@token_reko
$LN42@token_reko:

; 633  : 			}
; 634  : 
; 635  : 			FST::FST graph(string, 1,

  019dc	45 33 c0	 xor	 r8d, r8d
  019df	b2 3e		 mov	 dl, 62			; 0000003eH
  019e1	48 8d 8d 04 2c
	00 00		 lea	 rcx, QWORD PTR $T251[rbp]
  019e8	e8 00 00 00 00	 call	 ??0RELATION@FST@@QEAA@DF@Z ; FST::RELATION::RELATION
  019ed	44 8b 00	 mov	 r8d, DWORD PTR [rax]
  019f0	ba 01 00 00 00	 mov	 edx, 1
  019f5	48 8d 8d d8 2b
	00 00		 lea	 rcx, QWORD PTR $T250[rbp]
  019fc	e8 00 00 00 00	 call	 ??0NODE@FST@@QEAA@FURELATION@1@ZZ ; FST::NODE::NODE
  01a01	48 8d 8d 90 7f
	00 00		 lea	 rcx, QWORD PTR $T813[rbp]
  01a08	48 8b f9	 mov	 rdi, rcx
  01a0b	48 8b f0	 mov	 rsi, rax
  01a0e	b9 10 00 00 00	 mov	 ecx, 16
  01a13	f3 a4		 rep movsb
  01a15	4c 8d 8d 90 7f
	00 00		 lea	 r9, QWORD PTR $T813[rbp]
  01a1c	41 b8 01 00 00
	00		 mov	 r8d, 1
  01a22	48 8b 95 50 a4
	00 00		 mov	 rdx, QWORD PTR string$[rbp]
  01a29	48 8d 8d 28 0a
	00 00		 lea	 rcx, QWORD PTR graph$85[rbp]
  01a30	e8 00 00 00 00	 call	 ??0FST@0@QEAA@PEADFUNODE@0@ZZ ; FST::FST::FST

; 636  : 				FST::NODE(1,
; 637  : 					FST::RELATION('>', 0)
; 638  : 				));
; 639  : 			if (result = execute(graph)) {

  01a35	48 8d 8d 28 0a
	00 00		 lea	 rcx, QWORD PTR graph$85[rbp]
  01a3c	e8 00 00 00 00	 call	 ?execute@FST@@YA_NAEAU11@@Z ; FST::execute
  01a41	88 85 04 04 00
	00		 mov	 BYTE PTR result$[rbp], al
  01a47	0f b6 85 04 04
	00 00		 movzx	 eax, BYTE PTR result$[rbp]
  01a4e	85 c0		 test	 eax, eax
  01a50	74 0c		 je	 SHORT $LN43@token_reko

; 640  : 				return LEX_MORE;

  01a52	b0 63		 mov	 al, 99			; 00000063H
  01a54	e9 71 57 00 00	 jmp	 $LN1@token_reko

; 641  : 				break;

  01a59	e9 0a 53 00 00	 jmp	 $LN2@token_reko
$LN43@token_reko:

; 642  : 			}
; 643  : 			break;

  01a5e	e9 05 53 00 00	 jmp	 $LN2@token_reko
$LN44@token_reko:

; 644  : 		}
; 645  : 		case '=':
; 646  : 		{
; 647  : 			FST::FST graph(string, 3,

  01a63	48 8d 8d 28 2c
	00 00		 lea	 rcx, QWORD PTR $T252[rbp]
  01a6a	e8 00 00 00 00	 call	 ??0NODE@FST@@QEAA@XZ	; FST::NODE::NODE
  01a6f	48 8d 8d 20 80
	00 00		 lea	 rcx, QWORD PTR $T816[rbp]
  01a76	48 8b f9	 mov	 rdi, rcx
  01a79	48 8b f0	 mov	 rsi, rax
  01a7c	b9 10 00 00 00	 mov	 ecx, 16
  01a81	f3 a4		 rep movsb
  01a83	66 41 b8 02 00	 mov	 r8w, 2
  01a88	b2 3d		 mov	 dl, 61			; 0000003dH
  01a8a	48 8d 8d 84 2c
	00 00		 lea	 rcx, QWORD PTR $T254[rbp]
  01a91	e8 00 00 00 00	 call	 ??0RELATION@FST@@QEAA@DF@Z ; FST::RELATION::RELATION
  01a96	44 8b 00	 mov	 r8d, DWORD PTR [rax]
  01a99	ba 01 00 00 00	 mov	 edx, 1
  01a9e	48 8d 8d 58 2c
	00 00		 lea	 rcx, QWORD PTR $T253[rbp]
  01aa5	e8 00 00 00 00	 call	 ??0NODE@FST@@QEAA@FURELATION@1@ZZ ; FST::NODE::NODE
  01aaa	48 8d 8d f0 7f
	00 00		 lea	 rcx, QWORD PTR $T815[rbp]
  01ab1	48 8b f9	 mov	 rdi, rcx
  01ab4	48 8b f0	 mov	 rsi, rax
  01ab7	b9 10 00 00 00	 mov	 ecx, 16
  01abc	f3 a4		 rep movsb
  01abe	66 41 b8 01 00	 mov	 r8w, 1
  01ac3	b2 3d		 mov	 dl, 61			; 0000003dH
  01ac5	48 8d 8d d4 2c
	00 00		 lea	 rcx, QWORD PTR $T256[rbp]
  01acc	e8 00 00 00 00	 call	 ??0RELATION@FST@@QEAA@DF@Z ; FST::RELATION::RELATION
  01ad1	44 8b 00	 mov	 r8d, DWORD PTR [rax]
  01ad4	ba 01 00 00 00	 mov	 edx, 1
  01ad9	48 8d 8d a8 2c
	00 00		 lea	 rcx, QWORD PTR $T255[rbp]
  01ae0	e8 00 00 00 00	 call	 ??0NODE@FST@@QEAA@FURELATION@1@ZZ ; FST::NODE::NODE
  01ae5	48 8d 8d c0 7f
	00 00		 lea	 rcx, QWORD PTR $T814[rbp]
  01aec	48 8b f9	 mov	 rdi, rcx
  01aef	48 8b f0	 mov	 rsi, rax
  01af2	b9 10 00 00 00	 mov	 ecx, 16
  01af7	f3 a4		 rep movsb
  01af9	48 8d 85 20 80
	00 00		 lea	 rax, QWORD PTR $T816[rbp]
  01b00	48 89 44 24 28	 mov	 QWORD PTR [rsp+40], rax
  01b05	48 8d 85 f0 7f
	00 00		 lea	 rax, QWORD PTR $T815[rbp]
  01b0c	48 89 44 24 20	 mov	 QWORD PTR [rsp+32], rax
  01b11	4c 8d 8d c0 7f
	00 00		 lea	 r9, QWORD PTR $T814[rbp]
  01b18	41 b8 03 00 00
	00		 mov	 r8d, 3
  01b1e	48 8b 95 50 a4
	00 00		 mov	 rdx, QWORD PTR string$[rbp]
  01b25	48 8d 8d 68 0a
	00 00		 lea	 rcx, QWORD PTR graph$86[rbp]
  01b2c	e8 00 00 00 00	 call	 ??0FST@0@QEAA@PEADFUNODE@0@ZZ ; FST::FST::FST

; 648  : 				FST::NODE(1, FST::RELATION('=', 1)),
; 649  : 				FST::NODE(1, FST::RELATION('=', 2)),
; 650  : 				FST::NODE());
; 651  : 			if (result = execute(graph)) {

  01b31	48 8d 8d 68 0a
	00 00		 lea	 rcx, QWORD PTR graph$86[rbp]
  01b38	e8 00 00 00 00	 call	 ?execute@FST@@YA_NAEAU11@@Z ; FST::execute
  01b3d	88 85 04 04 00
	00		 mov	 BYTE PTR result$[rbp], al
  01b43	0f b6 85 04 04
	00 00		 movzx	 eax, BYTE PTR result$[rbp]
  01b4a	85 c0		 test	 eax, eax
  01b4c	74 07		 je	 SHORT $LN45@token_reko

; 652  : 				return LEX_EQUALS;

  01b4e	b0 63		 mov	 al, 99			; 00000063H
  01b50	e9 75 56 00 00	 jmp	 $LN1@token_reko
$LN45@token_reko:

; 653  : 			}
; 654  : 
; 655  : 			FST::FST graph_assign(string, 1,

  01b55	45 33 c0	 xor	 r8d, r8d
  01b58	b2 3d		 mov	 dl, 61			; 0000003dH
  01b5a	48 8d 8d 24 2d
	00 00		 lea	 rcx, QWORD PTR $T258[rbp]
  01b61	e8 00 00 00 00	 call	 ??0RELATION@FST@@QEAA@DF@Z ; FST::RELATION::RELATION
  01b66	44 8b 00	 mov	 r8d, DWORD PTR [rax]
  01b69	ba 01 00 00 00	 mov	 edx, 1
  01b6e	48 8d 8d f8 2c
	00 00		 lea	 rcx, QWORD PTR $T257[rbp]
  01b75	e8 00 00 00 00	 call	 ??0NODE@FST@@QEAA@FURELATION@1@ZZ ; FST::NODE::NODE
  01b7a	48 8d 8d 50 80
	00 00		 lea	 rcx, QWORD PTR $T817[rbp]
  01b81	48 8b f9	 mov	 rdi, rcx
  01b84	48 8b f0	 mov	 rsi, rax
  01b87	b9 10 00 00 00	 mov	 ecx, 16
  01b8c	f3 a4		 rep movsb
  01b8e	4c 8d 8d 50 80
	00 00		 lea	 r9, QWORD PTR $T817[rbp]
  01b95	41 b8 01 00 00
	00		 mov	 r8d, 1
  01b9b	48 8b 95 50 a4
	00 00		 mov	 rdx, QWORD PTR string$[rbp]
  01ba2	48 8d 8d a8 0a
	00 00		 lea	 rcx, QWORD PTR graph_assign$87[rbp]
  01ba9	e8 00 00 00 00	 call	 ??0FST@0@QEAA@PEADFUNODE@0@ZZ ; FST::FST::FST

; 656  : 				FST::NODE(1,
; 657  : 					FST::RELATION('=', 0)
; 658  : 				));
; 659  : 			if (result = execute(graph_assign)) {

  01bae	48 8d 8d a8 0a
	00 00		 lea	 rcx, QWORD PTR graph_assign$87[rbp]
  01bb5	e8 00 00 00 00	 call	 ?execute@FST@@YA_NAEAU11@@Z ; FST::execute
  01bba	88 85 04 04 00
	00		 mov	 BYTE PTR result$[rbp], al
  01bc0	0f b6 85 04 04
	00 00		 movzx	 eax, BYTE PTR result$[rbp]
  01bc7	85 c0		 test	 eax, eax
  01bc9	74 07		 je	 SHORT $LN46@token_reko

; 660  : 				return LEX_ASSIGN;

  01bcb	b0 3d		 mov	 al, 61			; 0000003dH
  01bcd	e9 f8 55 00 00	 jmp	 $LN1@token_reko
$LN46@token_reko:

; 661  : 			}
; 662  : 			break;

  01bd2	e9 91 51 00 00	 jmp	 $LN2@token_reko
$LN47@token_reko:

; 663  : 		}
; 664  : 		case '!':
; 665  : 		{
; 666  : 			FST::FST graph(string, 3,

  01bd7	48 8d 8d 48 2d
	00 00		 lea	 rcx, QWORD PTR $T259[rbp]
  01bde	e8 00 00 00 00	 call	 ??0NODE@FST@@QEAA@XZ	; FST::NODE::NODE
  01be3	48 8d 8d e0 80
	00 00		 lea	 rcx, QWORD PTR $T820[rbp]
  01bea	48 8b f9	 mov	 rdi, rcx
  01bed	48 8b f0	 mov	 rsi, rax
  01bf0	b9 10 00 00 00	 mov	 ecx, 16
  01bf5	f3 a4		 rep movsb
  01bf7	66 41 b8 02 00	 mov	 r8w, 2
  01bfc	b2 3d		 mov	 dl, 61			; 0000003dH
  01bfe	48 8d 8d a4 2d
	00 00		 lea	 rcx, QWORD PTR $T261[rbp]
  01c05	e8 00 00 00 00	 call	 ??0RELATION@FST@@QEAA@DF@Z ; FST::RELATION::RELATION
  01c0a	44 8b 00	 mov	 r8d, DWORD PTR [rax]
  01c0d	ba 01 00 00 00	 mov	 edx, 1
  01c12	48 8d 8d 78 2d
	00 00		 lea	 rcx, QWORD PTR $T260[rbp]
  01c19	e8 00 00 00 00	 call	 ??0NODE@FST@@QEAA@FURELATION@1@ZZ ; FST::NODE::NODE
  01c1e	48 8d 8d b0 80
	00 00		 lea	 rcx, QWORD PTR $T819[rbp]
  01c25	48 8b f9	 mov	 rdi, rcx
  01c28	48 8b f0	 mov	 rsi, rax
  01c2b	b9 10 00 00 00	 mov	 ecx, 16
  01c30	f3 a4		 rep movsb
  01c32	66 41 b8 01 00	 mov	 r8w, 1
  01c37	b2 21		 mov	 dl, 33			; 00000021H
  01c39	48 8d 8d f4 2d
	00 00		 lea	 rcx, QWORD PTR $T263[rbp]
  01c40	e8 00 00 00 00	 call	 ??0RELATION@FST@@QEAA@DF@Z ; FST::RELATION::RELATION
  01c45	44 8b 00	 mov	 r8d, DWORD PTR [rax]
  01c48	ba 01 00 00 00	 mov	 edx, 1
  01c4d	48 8d 8d c8 2d
	00 00		 lea	 rcx, QWORD PTR $T262[rbp]
  01c54	e8 00 00 00 00	 call	 ??0NODE@FST@@QEAA@FURELATION@1@ZZ ; FST::NODE::NODE
  01c59	48 8d 8d 80 80
	00 00		 lea	 rcx, QWORD PTR $T818[rbp]
  01c60	48 8b f9	 mov	 rdi, rcx
  01c63	48 8b f0	 mov	 rsi, rax
  01c66	b9 10 00 00 00	 mov	 ecx, 16
  01c6b	f3 a4		 rep movsb
  01c6d	48 8d 85 e0 80
	00 00		 lea	 rax, QWORD PTR $T820[rbp]
  01c74	48 89 44 24 28	 mov	 QWORD PTR [rsp+40], rax
  01c79	48 8d 85 b0 80
	00 00		 lea	 rax, QWORD PTR $T819[rbp]
  01c80	48 89 44 24 20	 mov	 QWORD PTR [rsp+32], rax
  01c85	4c 8d 8d 80 80
	00 00		 lea	 r9, QWORD PTR $T818[rbp]
  01c8c	41 b8 03 00 00
	00		 mov	 r8d, 3
  01c92	48 8b 95 50 a4
	00 00		 mov	 rdx, QWORD PTR string$[rbp]
  01c99	48 8d 8d e8 0a
	00 00		 lea	 rcx, QWORD PTR graph$88[rbp]
  01ca0	e8 00 00 00 00	 call	 ??0FST@0@QEAA@PEADFUNODE@0@ZZ ; FST::FST::FST

; 667  : 				FST::NODE(1, FST::RELATION('!', 1)),
; 668  : 				FST::NODE(1, FST::RELATION('=', 2)),
; 669  : 				FST::NODE());
; 670  : 			if (result = execute(graph)) {

  01ca5	48 8d 8d e8 0a
	00 00		 lea	 rcx, QWORD PTR graph$88[rbp]
  01cac	e8 00 00 00 00	 call	 ?execute@FST@@YA_NAEAU11@@Z ; FST::execute
  01cb1	88 85 04 04 00
	00		 mov	 BYTE PTR result$[rbp], al
  01cb7	0f b6 85 04 04
	00 00		 movzx	 eax, BYTE PTR result$[rbp]
  01cbe	85 c0		 test	 eax, eax
  01cc0	74 07		 je	 SHORT $LN48@token_reko

; 671  : 				return LEX_NOT_EQUALS;

  01cc2	b0 63		 mov	 al, 99			; 00000063H
  01cc4	e9 01 55 00 00	 jmp	 $LN1@token_reko
$LN48@token_reko:

; 672  : 			}
; 673  : 			break;

  01cc9	e9 9a 50 00 00	 jmp	 $LN2@token_reko
$LN49@token_reko:

; 674  : 		}
; 675  : 		case '^':
; 676  : 		{
; 677  : 			FST::FST graph(string, 1,

  01cce	45 33 c0	 xor	 r8d, r8d
  01cd1	b2 5e		 mov	 dl, 94			; 0000005eH
  01cd3	48 8d 8d 44 2e
	00 00		 lea	 rcx, QWORD PTR $T265[rbp]
  01cda	e8 00 00 00 00	 call	 ??0RELATION@FST@@QEAA@DF@Z ; FST::RELATION::RELATION
  01cdf	44 8b 00	 mov	 r8d, DWORD PTR [rax]
  01ce2	ba 01 00 00 00	 mov	 edx, 1
  01ce7	48 8d 8d 18 2e
	00 00		 lea	 rcx, QWORD PTR $T264[rbp]
  01cee	e8 00 00 00 00	 call	 ??0NODE@FST@@QEAA@FURELATION@1@ZZ ; FST::NODE::NODE
  01cf3	48 8d 8d 10 81
	00 00		 lea	 rcx, QWORD PTR $T821[rbp]
  01cfa	48 8b f9	 mov	 rdi, rcx
  01cfd	48 8b f0	 mov	 rsi, rax
  01d00	b9 10 00 00 00	 mov	 ecx, 16
  01d05	f3 a4		 rep movsb
  01d07	4c 8d 8d 10 81
	00 00		 lea	 r9, QWORD PTR $T821[rbp]
  01d0e	41 b8 01 00 00
	00		 mov	 r8d, 1
  01d14	48 8b 95 50 a4
	00 00		 mov	 rdx, QWORD PTR string$[rbp]
  01d1b	48 8d 8d 28 0b
	00 00		 lea	 rcx, QWORD PTR graph$89[rbp]
  01d22	e8 00 00 00 00	 call	 ??0FST@0@QEAA@PEADFUNODE@0@ZZ ; FST::FST::FST

; 678  : 				FST::NODE(1,
; 679  : 					FST::RELATION('^', 0)
; 680  : 				));
; 681  : 			if (result = execute(graph)) {

  01d27	48 8d 8d 28 0b
	00 00		 lea	 rcx, QWORD PTR graph$89[rbp]
  01d2e	e8 00 00 00 00	 call	 ?execute@FST@@YA_NAEAU11@@Z ; FST::execute
  01d33	88 85 04 04 00
	00		 mov	 BYTE PTR result$[rbp], al
  01d39	0f b6 85 04 04
	00 00		 movzx	 eax, BYTE PTR result$[rbp]
  01d40	85 c0		 test	 eax, eax
  01d42	74 0c		 je	 SHORT $LN50@token_reko

; 682  : 				return LEX_XOR;

  01d44	b0 62		 mov	 al, 98			; 00000062H
  01d46	e9 7f 54 00 00	 jmp	 $LN1@token_reko

; 683  : 				break;

  01d4b	e9 18 50 00 00	 jmp	 $LN2@token_reko
$LN50@token_reko:

; 684  : 			}
; 685  : 			break;

  01d50	e9 13 50 00 00	 jmp	 $LN2@token_reko
$LN51@token_reko:

; 686  : 		}
; 687  : 		case 'b':
; 688  : 		{
; 689  : 			FST::FST graph_byte(string, 5,

  01d55	48 8d 8d 68 2e
	00 00		 lea	 rcx, QWORD PTR $T266[rbp]
  01d5c	e8 00 00 00 00	 call	 ??0NODE@FST@@QEAA@XZ	; FST::NODE::NODE
  01d61	48 8d 8d 00 82
	00 00		 lea	 rcx, QWORD PTR $T826[rbp]
  01d68	48 8b f9	 mov	 rdi, rcx
  01d6b	48 8b f0	 mov	 rsi, rax
  01d6e	b9 10 00 00 00	 mov	 ecx, 16
  01d73	f3 a4		 rep movsb
  01d75	66 41 b8 04 00	 mov	 r8w, 4
  01d7a	b2 65		 mov	 dl, 101			; 00000065H
  01d7c	48 8d 8d c4 2e
	00 00		 lea	 rcx, QWORD PTR $T268[rbp]
  01d83	e8 00 00 00 00	 call	 ??0RELATION@FST@@QEAA@DF@Z ; FST::RELATION::RELATION
  01d88	44 8b 00	 mov	 r8d, DWORD PTR [rax]
  01d8b	ba 01 00 00 00	 mov	 edx, 1
  01d90	48 8d 8d 98 2e
	00 00		 lea	 rcx, QWORD PTR $T267[rbp]
  01d97	e8 00 00 00 00	 call	 ??0NODE@FST@@QEAA@FURELATION@1@ZZ ; FST::NODE::NODE
  01d9c	48 8d 8d d0 81
	00 00		 lea	 rcx, QWORD PTR $T825[rbp]
  01da3	48 8b f9	 mov	 rdi, rcx
  01da6	48 8b f0	 mov	 rsi, rax
  01da9	b9 10 00 00 00	 mov	 ecx, 16
  01dae	f3 a4		 rep movsb
  01db0	66 41 b8 03 00	 mov	 r8w, 3
  01db5	b2 74		 mov	 dl, 116			; 00000074H
  01db7	48 8d 8d 14 2f
	00 00		 lea	 rcx, QWORD PTR $T270[rbp]
  01dbe	e8 00 00 00 00	 call	 ??0RELATION@FST@@QEAA@DF@Z ; FST::RELATION::RELATION
  01dc3	44 8b 00	 mov	 r8d, DWORD PTR [rax]
  01dc6	ba 01 00 00 00	 mov	 edx, 1
  01dcb	48 8d 8d e8 2e
	00 00		 lea	 rcx, QWORD PTR $T269[rbp]
  01dd2	e8 00 00 00 00	 call	 ??0NODE@FST@@QEAA@FURELATION@1@ZZ ; FST::NODE::NODE
  01dd7	48 8d 8d a0 81
	00 00		 lea	 rcx, QWORD PTR $T824[rbp]
  01dde	48 8b f9	 mov	 rdi, rcx
  01de1	48 8b f0	 mov	 rsi, rax
  01de4	b9 10 00 00 00	 mov	 ecx, 16
  01de9	f3 a4		 rep movsb
  01deb	66 41 b8 02 00	 mov	 r8w, 2
  01df0	b2 79		 mov	 dl, 121			; 00000079H
  01df2	48 8d 8d 64 2f
	00 00		 lea	 rcx, QWORD PTR $T272[rbp]
  01df9	e8 00 00 00 00	 call	 ??0RELATION@FST@@QEAA@DF@Z ; FST::RELATION::RELATION
  01dfe	44 8b 00	 mov	 r8d, DWORD PTR [rax]
  01e01	ba 01 00 00 00	 mov	 edx, 1
  01e06	48 8d 8d 38 2f
	00 00		 lea	 rcx, QWORD PTR $T271[rbp]
  01e0d	e8 00 00 00 00	 call	 ??0NODE@FST@@QEAA@FURELATION@1@ZZ ; FST::NODE::NODE
  01e12	48 8d 8d 70 81
	00 00		 lea	 rcx, QWORD PTR $T823[rbp]
  01e19	48 8b f9	 mov	 rdi, rcx
  01e1c	48 8b f0	 mov	 rsi, rax
  01e1f	b9 10 00 00 00	 mov	 ecx, 16
  01e24	f3 a4		 rep movsb
  01e26	66 41 b8 01 00	 mov	 r8w, 1
  01e2b	b2 62		 mov	 dl, 98			; 00000062H
  01e2d	48 8d 8d b4 2f
	00 00		 lea	 rcx, QWORD PTR $T274[rbp]
  01e34	e8 00 00 00 00	 call	 ??0RELATION@FST@@QEAA@DF@Z ; FST::RELATION::RELATION
  01e39	44 8b 00	 mov	 r8d, DWORD PTR [rax]
  01e3c	ba 01 00 00 00	 mov	 edx, 1
  01e41	48 8d 8d 88 2f
	00 00		 lea	 rcx, QWORD PTR $T273[rbp]
  01e48	e8 00 00 00 00	 call	 ??0NODE@FST@@QEAA@FURELATION@1@ZZ ; FST::NODE::NODE
  01e4d	48 8d 8d 40 81
	00 00		 lea	 rcx, QWORD PTR $T822[rbp]
  01e54	48 8b f9	 mov	 rdi, rcx
  01e57	48 8b f0	 mov	 rsi, rax
  01e5a	b9 10 00 00 00	 mov	 ecx, 16
  01e5f	f3 a4		 rep movsb
  01e61	48 8d 85 00 82
	00 00		 lea	 rax, QWORD PTR $T826[rbp]
  01e68	48 89 44 24 38	 mov	 QWORD PTR [rsp+56], rax
  01e6d	48 8d 85 d0 81
	00 00		 lea	 rax, QWORD PTR $T825[rbp]
  01e74	48 89 44 24 30	 mov	 QWORD PTR [rsp+48], rax
  01e79	48 8d 85 a0 81
	00 00		 lea	 rax, QWORD PTR $T824[rbp]
  01e80	48 89 44 24 28	 mov	 QWORD PTR [rsp+40], rax
  01e85	48 8d 85 70 81
	00 00		 lea	 rax, QWORD PTR $T823[rbp]
  01e8c	48 89 44 24 20	 mov	 QWORD PTR [rsp+32], rax
  01e91	4c 8d 8d 40 81
	00 00		 lea	 r9, QWORD PTR $T822[rbp]
  01e98	41 b8 05 00 00
	00		 mov	 r8d, 5
  01e9e	48 8b 95 50 a4
	00 00		 mov	 rdx, QWORD PTR string$[rbp]
  01ea5	48 8d 8d 68 0b
	00 00		 lea	 rcx, QWORD PTR graph_byte$90[rbp]
  01eac	e8 00 00 00 00	 call	 ??0FST@0@QEAA@PEADFUNODE@0@ZZ ; FST::FST::FST

; 690  : 				FST::NODE(1, FST::RELATION('b', 1)),
; 691  : 				FST::NODE(1, FST::RELATION('y', 2)),
; 692  : 				FST::NODE(1, FST::RELATION('t', 3)),
; 693  : 				FST::NODE(1, FST::RELATION('e', 4)),
; 694  : 				FST::NODE());
; 695  : 			if (result = execute(graph_byte)) {

  01eb1	48 8d 8d 68 0b
	00 00		 lea	 rcx, QWORD PTR graph_byte$90[rbp]
  01eb8	e8 00 00 00 00	 call	 ?execute@FST@@YA_NAEAU11@@Z ; FST::execute
  01ebd	88 85 04 04 00
	00		 mov	 BYTE PTR result$[rbp], al
  01ec3	0f b6 85 04 04
	00 00		 movzx	 eax, BYTE PTR result$[rbp]
  01eca	85 c0		 test	 eax, eax
  01ecc	74 1a		 je	 SHORT $LN52@token_reko

; 696  : 				entry->iddatatype = IT::IDDATATYPE::CHAR;

  01ece	48 8b 85 58 a4
	00 00		 mov	 rax, QWORD PTR entry$[rbp]
  01ed5	c7 40 40 03 00
	00 00		 mov	 DWORD PTR [rax+64], 3

; 697  : 				return LEX_CHAR;

  01edc	b0 74		 mov	 al, 116			; 00000074H
  01ede	e9 e7 52 00 00	 jmp	 $LN1@token_reko

; 698  : 				break;

  01ee3	e9 80 4e 00 00	 jmp	 $LN2@token_reko
$LN52@token_reko:

; 699  : 			}
; 700  : 			FST::FST graph_bool(string, 5,

  01ee8	48 8d 8d d8 2f
	00 00		 lea	 rcx, QWORD PTR $T275[rbp]
  01eef	e8 00 00 00 00	 call	 ??0NODE@FST@@QEAA@XZ	; FST::NODE::NODE
  01ef4	48 8d 8d f0 82
	00 00		 lea	 rcx, QWORD PTR $T831[rbp]
  01efb	48 8b f9	 mov	 rdi, rcx
  01efe	48 8b f0	 mov	 rsi, rax
  01f01	b9 10 00 00 00	 mov	 ecx, 16
  01f06	f3 a4		 rep movsb
  01f08	66 41 b8 04 00	 mov	 r8w, 4
  01f0d	b2 6c		 mov	 dl, 108			; 0000006cH
  01f0f	48 8d 8d 34 30
	00 00		 lea	 rcx, QWORD PTR $T277[rbp]
  01f16	e8 00 00 00 00	 call	 ??0RELATION@FST@@QEAA@DF@Z ; FST::RELATION::RELATION
  01f1b	44 8b 00	 mov	 r8d, DWORD PTR [rax]
  01f1e	ba 01 00 00 00	 mov	 edx, 1
  01f23	48 8d 8d 08 30
	00 00		 lea	 rcx, QWORD PTR $T276[rbp]
  01f2a	e8 00 00 00 00	 call	 ??0NODE@FST@@QEAA@FURELATION@1@ZZ ; FST::NODE::NODE
  01f2f	48 8d 8d c0 82
	00 00		 lea	 rcx, QWORD PTR $T830[rbp]
  01f36	48 8b f9	 mov	 rdi, rcx
  01f39	48 8b f0	 mov	 rsi, rax
  01f3c	b9 10 00 00 00	 mov	 ecx, 16
  01f41	f3 a4		 rep movsb
  01f43	66 41 b8 03 00	 mov	 r8w, 3
  01f48	b2 6f		 mov	 dl, 111			; 0000006fH
  01f4a	48 8d 8d 84 30
	00 00		 lea	 rcx, QWORD PTR $T279[rbp]
  01f51	e8 00 00 00 00	 call	 ??0RELATION@FST@@QEAA@DF@Z ; FST::RELATION::RELATION
  01f56	44 8b 00	 mov	 r8d, DWORD PTR [rax]
  01f59	ba 01 00 00 00	 mov	 edx, 1
  01f5e	48 8d 8d 58 30
	00 00		 lea	 rcx, QWORD PTR $T278[rbp]
  01f65	e8 00 00 00 00	 call	 ??0NODE@FST@@QEAA@FURELATION@1@ZZ ; FST::NODE::NODE
  01f6a	48 8d 8d 90 82
	00 00		 lea	 rcx, QWORD PTR $T829[rbp]
  01f71	48 8b f9	 mov	 rdi, rcx
  01f74	48 8b f0	 mov	 rsi, rax
  01f77	b9 10 00 00 00	 mov	 ecx, 16
  01f7c	f3 a4		 rep movsb
  01f7e	66 41 b8 02 00	 mov	 r8w, 2
  01f83	b2 6f		 mov	 dl, 111			; 0000006fH
  01f85	48 8d 8d d4 30
	00 00		 lea	 rcx, QWORD PTR $T281[rbp]
  01f8c	e8 00 00 00 00	 call	 ??0RELATION@FST@@QEAA@DF@Z ; FST::RELATION::RELATION
  01f91	44 8b 00	 mov	 r8d, DWORD PTR [rax]
  01f94	ba 01 00 00 00	 mov	 edx, 1
  01f99	48 8d 8d a8 30
	00 00		 lea	 rcx, QWORD PTR $T280[rbp]
  01fa0	e8 00 00 00 00	 call	 ??0NODE@FST@@QEAA@FURELATION@1@ZZ ; FST::NODE::NODE
  01fa5	48 8d 8d 60 82
	00 00		 lea	 rcx, QWORD PTR $T828[rbp]
  01fac	48 8b f9	 mov	 rdi, rcx
  01faf	48 8b f0	 mov	 rsi, rax
  01fb2	b9 10 00 00 00	 mov	 ecx, 16
  01fb7	f3 a4		 rep movsb
  01fb9	66 41 b8 01 00	 mov	 r8w, 1
  01fbe	b2 62		 mov	 dl, 98			; 00000062H
  01fc0	48 8d 8d 24 31
	00 00		 lea	 rcx, QWORD PTR $T283[rbp]
  01fc7	e8 00 00 00 00	 call	 ??0RELATION@FST@@QEAA@DF@Z ; FST::RELATION::RELATION
  01fcc	44 8b 00	 mov	 r8d, DWORD PTR [rax]
  01fcf	ba 01 00 00 00	 mov	 edx, 1
  01fd4	48 8d 8d f8 30
	00 00		 lea	 rcx, QWORD PTR $T282[rbp]
  01fdb	e8 00 00 00 00	 call	 ??0NODE@FST@@QEAA@FURELATION@1@ZZ ; FST::NODE::NODE
  01fe0	48 8d 8d 30 82
	00 00		 lea	 rcx, QWORD PTR $T827[rbp]
  01fe7	48 8b f9	 mov	 rdi, rcx
  01fea	48 8b f0	 mov	 rsi, rax
  01fed	b9 10 00 00 00	 mov	 ecx, 16
  01ff2	f3 a4		 rep movsb
  01ff4	48 8d 85 f0 82
	00 00		 lea	 rax, QWORD PTR $T831[rbp]
  01ffb	48 89 44 24 38	 mov	 QWORD PTR [rsp+56], rax
  02000	48 8d 85 c0 82
	00 00		 lea	 rax, QWORD PTR $T830[rbp]
  02007	48 89 44 24 30	 mov	 QWORD PTR [rsp+48], rax
  0200c	48 8d 85 90 82
	00 00		 lea	 rax, QWORD PTR $T829[rbp]
  02013	48 89 44 24 28	 mov	 QWORD PTR [rsp+40], rax
  02018	48 8d 85 60 82
	00 00		 lea	 rax, QWORD PTR $T828[rbp]
  0201f	48 89 44 24 20	 mov	 QWORD PTR [rsp+32], rax
  02024	4c 8d 8d 30 82
	00 00		 lea	 r9, QWORD PTR $T827[rbp]
  0202b	41 b8 05 00 00
	00		 mov	 r8d, 5
  02031	48 8b 95 50 a4
	00 00		 mov	 rdx, QWORD PTR string$[rbp]
  02038	48 8d 8d a8 0b
	00 00		 lea	 rcx, QWORD PTR graph_bool$91[rbp]
  0203f	e8 00 00 00 00	 call	 ??0FST@0@QEAA@PEADFUNODE@0@ZZ ; FST::FST::FST

; 701  : 				FST::NODE(1, FST::RELATION('b', 1)),
; 702  : 				FST::NODE(1, FST::RELATION('o', 2)),
; 703  : 				FST::NODE(1, FST::RELATION('o', 3)),
; 704  : 				FST::NODE(1, FST::RELATION('l', 4)),
; 705  : 				FST::NODE());
; 706  : 			if (result = execute(graph_bool)) {

  02044	48 8d 8d a8 0b
	00 00		 lea	 rcx, QWORD PTR graph_bool$91[rbp]
  0204b	e8 00 00 00 00	 call	 ?execute@FST@@YA_NAEAU11@@Z ; FST::execute
  02050	88 85 04 04 00
	00		 mov	 BYTE PTR result$[rbp], al
  02056	0f b6 85 04 04
	00 00		 movzx	 eax, BYTE PTR result$[rbp]
  0205d	85 c0		 test	 eax, eax
  0205f	74 1a		 je	 SHORT $LN53@token_reko

; 707  : 				entry->iddatatype = IT::IDDATATYPE::BOOL;

  02061	48 8b 85 58 a4
	00 00		 mov	 rax, QWORD PTR entry$[rbp]
  02068	c7 40 40 05 00
	00 00		 mov	 DWORD PTR [rax+64], 5

; 708  : 				return LEX_BOOL;

  0206f	b0 74		 mov	 al, 116			; 00000074H
  02071	e9 54 51 00 00	 jmp	 $LN1@token_reko

; 709  : 				break;

  02076	e9 ed 4c 00 00	 jmp	 $LN2@token_reko
$LN53@token_reko:

; 710  : 			}
; 711  : 			break;

  0207b	e9 e8 4c 00 00	 jmp	 $LN2@token_reko
$LN54@token_reko:

; 712  : 		}
; 713  : 		case 'e':
; 714  : 		{
; 715  : 			FST::FST graph_else(string, 5,

  02080	48 8d 8d 48 31
	00 00		 lea	 rcx, QWORD PTR $T284[rbp]
  02087	e8 00 00 00 00	 call	 ??0NODE@FST@@QEAA@XZ	; FST::NODE::NODE
  0208c	48 8d 8d e0 83
	00 00		 lea	 rcx, QWORD PTR $T836[rbp]
  02093	48 8b f9	 mov	 rdi, rcx
  02096	48 8b f0	 mov	 rsi, rax
  02099	b9 10 00 00 00	 mov	 ecx, 16
  0209e	f3 a4		 rep movsb
  020a0	66 41 b8 04 00	 mov	 r8w, 4
  020a5	b2 65		 mov	 dl, 101			; 00000065H
  020a7	48 8d 8d a4 31
	00 00		 lea	 rcx, QWORD PTR $T286[rbp]
  020ae	e8 00 00 00 00	 call	 ??0RELATION@FST@@QEAA@DF@Z ; FST::RELATION::RELATION
  020b3	44 8b 00	 mov	 r8d, DWORD PTR [rax]
  020b6	ba 01 00 00 00	 mov	 edx, 1
  020bb	48 8d 8d 78 31
	00 00		 lea	 rcx, QWORD PTR $T285[rbp]
  020c2	e8 00 00 00 00	 call	 ??0NODE@FST@@QEAA@FURELATION@1@ZZ ; FST::NODE::NODE
  020c7	48 8d 8d b0 83
	00 00		 lea	 rcx, QWORD PTR $T835[rbp]
  020ce	48 8b f9	 mov	 rdi, rcx
  020d1	48 8b f0	 mov	 rsi, rax
  020d4	b9 10 00 00 00	 mov	 ecx, 16
  020d9	f3 a4		 rep movsb
  020db	66 41 b8 03 00	 mov	 r8w, 3
  020e0	b2 73		 mov	 dl, 115			; 00000073H
  020e2	48 8d 8d f4 31
	00 00		 lea	 rcx, QWORD PTR $T288[rbp]
  020e9	e8 00 00 00 00	 call	 ??0RELATION@FST@@QEAA@DF@Z ; FST::RELATION::RELATION
  020ee	44 8b 00	 mov	 r8d, DWORD PTR [rax]
  020f1	ba 01 00 00 00	 mov	 edx, 1
  020f6	48 8d 8d c8 31
	00 00		 lea	 rcx, QWORD PTR $T287[rbp]
  020fd	e8 00 00 00 00	 call	 ??0NODE@FST@@QEAA@FURELATION@1@ZZ ; FST::NODE::NODE
  02102	48 8d 8d 80 83
	00 00		 lea	 rcx, QWORD PTR $T834[rbp]
  02109	48 8b f9	 mov	 rdi, rcx
  0210c	48 8b f0	 mov	 rsi, rax
  0210f	b9 10 00 00 00	 mov	 ecx, 16
  02114	f3 a4		 rep movsb
  02116	66 41 b8 02 00	 mov	 r8w, 2
  0211b	b2 6c		 mov	 dl, 108			; 0000006cH
  0211d	48 8d 8d 44 32
	00 00		 lea	 rcx, QWORD PTR $T290[rbp]
  02124	e8 00 00 00 00	 call	 ??0RELATION@FST@@QEAA@DF@Z ; FST::RELATION::RELATION
  02129	44 8b 00	 mov	 r8d, DWORD PTR [rax]
  0212c	ba 01 00 00 00	 mov	 edx, 1
  02131	48 8d 8d 18 32
	00 00		 lea	 rcx, QWORD PTR $T289[rbp]
  02138	e8 00 00 00 00	 call	 ??0NODE@FST@@QEAA@FURELATION@1@ZZ ; FST::NODE::NODE
  0213d	48 8d 8d 50 83
	00 00		 lea	 rcx, QWORD PTR $T833[rbp]
  02144	48 8b f9	 mov	 rdi, rcx
  02147	48 8b f0	 mov	 rsi, rax
  0214a	b9 10 00 00 00	 mov	 ecx, 16
  0214f	f3 a4		 rep movsb
  02151	66 41 b8 01 00	 mov	 r8w, 1
  02156	b2 65		 mov	 dl, 101			; 00000065H
  02158	48 8d 8d 94 32
	00 00		 lea	 rcx, QWORD PTR $T292[rbp]
  0215f	e8 00 00 00 00	 call	 ??0RELATION@FST@@QEAA@DF@Z ; FST::RELATION::RELATION
  02164	44 8b 00	 mov	 r8d, DWORD PTR [rax]
  02167	ba 01 00 00 00	 mov	 edx, 1
  0216c	48 8d 8d 68 32
	00 00		 lea	 rcx, QWORD PTR $T291[rbp]
  02173	e8 00 00 00 00	 call	 ??0NODE@FST@@QEAA@FURELATION@1@ZZ ; FST::NODE::NODE
  02178	48 8d 8d 20 83
	00 00		 lea	 rcx, QWORD PTR $T832[rbp]
  0217f	48 8b f9	 mov	 rdi, rcx
  02182	48 8b f0	 mov	 rsi, rax
  02185	b9 10 00 00 00	 mov	 ecx, 16
  0218a	f3 a4		 rep movsb
  0218c	48 8d 85 e0 83
	00 00		 lea	 rax, QWORD PTR $T836[rbp]
  02193	48 89 44 24 38	 mov	 QWORD PTR [rsp+56], rax
  02198	48 8d 85 b0 83
	00 00		 lea	 rax, QWORD PTR $T835[rbp]
  0219f	48 89 44 24 30	 mov	 QWORD PTR [rsp+48], rax
  021a4	48 8d 85 80 83
	00 00		 lea	 rax, QWORD PTR $T834[rbp]
  021ab	48 89 44 24 28	 mov	 QWORD PTR [rsp+40], rax
  021b0	48 8d 85 50 83
	00 00		 lea	 rax, QWORD PTR $T833[rbp]
  021b7	48 89 44 24 20	 mov	 QWORD PTR [rsp+32], rax
  021bc	4c 8d 8d 20 83
	00 00		 lea	 r9, QWORD PTR $T832[rbp]
  021c3	41 b8 05 00 00
	00		 mov	 r8d, 5
  021c9	48 8b 95 50 a4
	00 00		 mov	 rdx, QWORD PTR string$[rbp]
  021d0	48 8d 8d e8 0b
	00 00		 lea	 rcx, QWORD PTR graph_else$92[rbp]
  021d7	e8 00 00 00 00	 call	 ??0FST@0@QEAA@PEADFUNODE@0@ZZ ; FST::FST::FST

; 716  : 				FST::NODE(1, FST::RELATION('e', 1)),
; 717  : 				FST::NODE(1, FST::RELATION('l', 2)),
; 718  : 				FST::NODE(1, FST::RELATION('s', 3)),
; 719  : 				FST::NODE(1, FST::RELATION('e', 4)),
; 720  : 				FST::NODE());
; 721  : 			if (result = execute(graph_else)) {

  021dc	48 8d 8d e8 0b
	00 00		 lea	 rcx, QWORD PTR graph_else$92[rbp]
  021e3	e8 00 00 00 00	 call	 ?execute@FST@@YA_NAEAU11@@Z ; FST::execute
  021e8	88 85 04 04 00
	00		 mov	 BYTE PTR result$[rbp], al
  021ee	0f b6 85 04 04
	00 00		 movzx	 eax, BYTE PTR result$[rbp]
  021f5	85 c0		 test	 eax, eax
  021f7	74 0c		 je	 SHORT $LN55@token_reko

; 722  : 				return LEX_ELSE;

  021f9	b0 65		 mov	 al, 101			; 00000065H
  021fb	e9 ca 4f 00 00	 jmp	 $LN1@token_reko

; 723  : 				break;

  02200	e9 63 4b 00 00	 jmp	 $LN2@token_reko
$LN55@token_reko:

; 724  : 			}
; 725  : 			break;

  02205	e9 5e 4b 00 00	 jmp	 $LN2@token_reko
$LN56@token_reko:

; 726  : 		}
; 727  : 		case 'f':
; 728  : 		{
; 729  : 			FST::FST graph_function(string, 9,

  0220a	48 8d 8d b8 32
	00 00		 lea	 rcx, QWORD PTR $T293[rbp]
  02211	e8 00 00 00 00	 call	 ??0NODE@FST@@QEAA@XZ	; FST::NODE::NODE
  02216	48 8d 8d 90 85
	00 00		 lea	 rcx, QWORD PTR $T845[rbp]
  0221d	48 8b f9	 mov	 rdi, rcx
  02220	48 8b f0	 mov	 rsi, rax
  02223	b9 10 00 00 00	 mov	 ecx, 16
  02228	f3 a4		 rep movsb
  0222a	66 41 b8 08 00	 mov	 r8w, 8
  0222f	b2 6e		 mov	 dl, 110			; 0000006eH
  02231	48 8d 8d 14 33
	00 00		 lea	 rcx, QWORD PTR $T295[rbp]
  02238	e8 00 00 00 00	 call	 ??0RELATION@FST@@QEAA@DF@Z ; FST::RELATION::RELATION
  0223d	44 8b 00	 mov	 r8d, DWORD PTR [rax]
  02240	ba 01 00 00 00	 mov	 edx, 1
  02245	48 8d 8d e8 32
	00 00		 lea	 rcx, QWORD PTR $T294[rbp]
  0224c	e8 00 00 00 00	 call	 ??0NODE@FST@@QEAA@FURELATION@1@ZZ ; FST::NODE::NODE
  02251	48 8d 8d 60 85
	00 00		 lea	 rcx, QWORD PTR $T844[rbp]
  02258	48 8b f9	 mov	 rdi, rcx
  0225b	48 8b f0	 mov	 rsi, rax
  0225e	b9 10 00 00 00	 mov	 ecx, 16
  02263	f3 a4		 rep movsb
  02265	66 41 b8 07 00	 mov	 r8w, 7
  0226a	b2 6f		 mov	 dl, 111			; 0000006fH
  0226c	48 8d 8d 64 33
	00 00		 lea	 rcx, QWORD PTR $T297[rbp]
  02273	e8 00 00 00 00	 call	 ??0RELATION@FST@@QEAA@DF@Z ; FST::RELATION::RELATION
  02278	44 8b 00	 mov	 r8d, DWORD PTR [rax]
  0227b	ba 01 00 00 00	 mov	 edx, 1
  02280	48 8d 8d 38 33
	00 00		 lea	 rcx, QWORD PTR $T296[rbp]
  02287	e8 00 00 00 00	 call	 ??0NODE@FST@@QEAA@FURELATION@1@ZZ ; FST::NODE::NODE
  0228c	48 8d 8d 30 85
	00 00		 lea	 rcx, QWORD PTR $T843[rbp]
  02293	48 8b f9	 mov	 rdi, rcx
  02296	48 8b f0	 mov	 rsi, rax
  02299	b9 10 00 00 00	 mov	 ecx, 16
  0229e	f3 a4		 rep movsb
  022a0	66 41 b8 06 00	 mov	 r8w, 6
  022a5	b2 69		 mov	 dl, 105			; 00000069H
  022a7	48 8d 8d b4 33
	00 00		 lea	 rcx, QWORD PTR $T299[rbp]
  022ae	e8 00 00 00 00	 call	 ??0RELATION@FST@@QEAA@DF@Z ; FST::RELATION::RELATION
  022b3	44 8b 00	 mov	 r8d, DWORD PTR [rax]
  022b6	ba 01 00 00 00	 mov	 edx, 1
  022bb	48 8d 8d 88 33
	00 00		 lea	 rcx, QWORD PTR $T298[rbp]
  022c2	e8 00 00 00 00	 call	 ??0NODE@FST@@QEAA@FURELATION@1@ZZ ; FST::NODE::NODE
  022c7	48 8d 8d 00 85
	00 00		 lea	 rcx, QWORD PTR $T842[rbp]
  022ce	48 8b f9	 mov	 rdi, rcx
  022d1	48 8b f0	 mov	 rsi, rax
  022d4	b9 10 00 00 00	 mov	 ecx, 16
  022d9	f3 a4		 rep movsb
  022db	66 41 b8 05 00	 mov	 r8w, 5
  022e0	b2 74		 mov	 dl, 116			; 00000074H
  022e2	48 8d 8d 04 34
	00 00		 lea	 rcx, QWORD PTR $T301[rbp]
  022e9	e8 00 00 00 00	 call	 ??0RELATION@FST@@QEAA@DF@Z ; FST::RELATION::RELATION
  022ee	44 8b 00	 mov	 r8d, DWORD PTR [rax]
  022f1	ba 01 00 00 00	 mov	 edx, 1
  022f6	48 8d 8d d8 33
	00 00		 lea	 rcx, QWORD PTR $T300[rbp]
  022fd	e8 00 00 00 00	 call	 ??0NODE@FST@@QEAA@FURELATION@1@ZZ ; FST::NODE::NODE
  02302	48 8d 8d d0 84
	00 00		 lea	 rcx, QWORD PTR $T841[rbp]
  02309	48 8b f9	 mov	 rdi, rcx
  0230c	48 8b f0	 mov	 rsi, rax
  0230f	b9 10 00 00 00	 mov	 ecx, 16
  02314	f3 a4		 rep movsb
  02316	66 41 b8 04 00	 mov	 r8w, 4
  0231b	b2 63		 mov	 dl, 99			; 00000063H
  0231d	48 8d 8d 54 34
	00 00		 lea	 rcx, QWORD PTR $T303[rbp]
  02324	e8 00 00 00 00	 call	 ??0RELATION@FST@@QEAA@DF@Z ; FST::RELATION::RELATION
  02329	44 8b 00	 mov	 r8d, DWORD PTR [rax]
  0232c	ba 01 00 00 00	 mov	 edx, 1
  02331	48 8d 8d 28 34
	00 00		 lea	 rcx, QWORD PTR $T302[rbp]
  02338	e8 00 00 00 00	 call	 ??0NODE@FST@@QEAA@FURELATION@1@ZZ ; FST::NODE::NODE
  0233d	48 8d 8d a0 84
	00 00		 lea	 rcx, QWORD PTR $T840[rbp]
  02344	48 8b f9	 mov	 rdi, rcx
  02347	48 8b f0	 mov	 rsi, rax
  0234a	b9 10 00 00 00	 mov	 ecx, 16
  0234f	f3 a4		 rep movsb
  02351	66 41 b8 03 00	 mov	 r8w, 3
  02356	b2 6e		 mov	 dl, 110			; 0000006eH
  02358	48 8d 8d a4 34
	00 00		 lea	 rcx, QWORD PTR $T305[rbp]
  0235f	e8 00 00 00 00	 call	 ??0RELATION@FST@@QEAA@DF@Z ; FST::RELATION::RELATION
  02364	44 8b 00	 mov	 r8d, DWORD PTR [rax]
  02367	ba 01 00 00 00	 mov	 edx, 1
  0236c	48 8d 8d 78 34
	00 00		 lea	 rcx, QWORD PTR $T304[rbp]
  02373	e8 00 00 00 00	 call	 ??0NODE@FST@@QEAA@FURELATION@1@ZZ ; FST::NODE::NODE
  02378	48 8d 8d 70 84
	00 00		 lea	 rcx, QWORD PTR $T839[rbp]
  0237f	48 8b f9	 mov	 rdi, rcx
  02382	48 8b f0	 mov	 rsi, rax
  02385	b9 10 00 00 00	 mov	 ecx, 16
  0238a	f3 a4		 rep movsb
  0238c	66 41 b8 02 00	 mov	 r8w, 2
  02391	b2 75		 mov	 dl, 117			; 00000075H
  02393	48 8d 8d f4 34
	00 00		 lea	 rcx, QWORD PTR $T307[rbp]
  0239a	e8 00 00 00 00	 call	 ??0RELATION@FST@@QEAA@DF@Z ; FST::RELATION::RELATION
  0239f	44 8b 00	 mov	 r8d, DWORD PTR [rax]
  023a2	ba 01 00 00 00	 mov	 edx, 1
  023a7	48 8d 8d c8 34
	00 00		 lea	 rcx, QWORD PTR $T306[rbp]
  023ae	e8 00 00 00 00	 call	 ??0NODE@FST@@QEAA@FURELATION@1@ZZ ; FST::NODE::NODE
  023b3	48 8d 8d 40 84
	00 00		 lea	 rcx, QWORD PTR $T838[rbp]
  023ba	48 8b f9	 mov	 rdi, rcx
  023bd	48 8b f0	 mov	 rsi, rax
  023c0	b9 10 00 00 00	 mov	 ecx, 16
  023c5	f3 a4		 rep movsb
  023c7	66 41 b8 01 00	 mov	 r8w, 1
  023cc	b2 66		 mov	 dl, 102			; 00000066H
  023ce	48 8d 8d 44 35
	00 00		 lea	 rcx, QWORD PTR $T309[rbp]
  023d5	e8 00 00 00 00	 call	 ??0RELATION@FST@@QEAA@DF@Z ; FST::RELATION::RELATION
  023da	44 8b 00	 mov	 r8d, DWORD PTR [rax]
  023dd	ba 01 00 00 00	 mov	 edx, 1
  023e2	48 8d 8d 18 35
	00 00		 lea	 rcx, QWORD PTR $T308[rbp]
  023e9	e8 00 00 00 00	 call	 ??0NODE@FST@@QEAA@FURELATION@1@ZZ ; FST::NODE::NODE
  023ee	48 8d 8d 10 84
	00 00		 lea	 rcx, QWORD PTR $T837[rbp]
  023f5	48 8b f9	 mov	 rdi, rcx
  023f8	48 8b f0	 mov	 rsi, rax
  023fb	b9 10 00 00 00	 mov	 ecx, 16
  02400	f3 a4		 rep movsb
  02402	48 8d 85 90 85
	00 00		 lea	 rax, QWORD PTR $T845[rbp]
  02409	48 89 44 24 58	 mov	 QWORD PTR [rsp+88], rax
  0240e	48 8d 85 60 85
	00 00		 lea	 rax, QWORD PTR $T844[rbp]
  02415	48 89 44 24 50	 mov	 QWORD PTR [rsp+80], rax
  0241a	48 8d 85 30 85
	00 00		 lea	 rax, QWORD PTR $T843[rbp]
  02421	48 89 44 24 48	 mov	 QWORD PTR [rsp+72], rax
  02426	48 8d 85 00 85
	00 00		 lea	 rax, QWORD PTR $T842[rbp]
  0242d	48 89 44 24 40	 mov	 QWORD PTR [rsp+64], rax
  02432	48 8d 85 d0 84
	00 00		 lea	 rax, QWORD PTR $T841[rbp]
  02439	48 89 44 24 38	 mov	 QWORD PTR [rsp+56], rax
  0243e	48 8d 85 a0 84
	00 00		 lea	 rax, QWORD PTR $T840[rbp]
  02445	48 89 44 24 30	 mov	 QWORD PTR [rsp+48], rax
  0244a	48 8d 85 70 84
	00 00		 lea	 rax, QWORD PTR $T839[rbp]
  02451	48 89 44 24 28	 mov	 QWORD PTR [rsp+40], rax
  02456	48 8d 85 40 84
	00 00		 lea	 rax, QWORD PTR $T838[rbp]
  0245d	48 89 44 24 20	 mov	 QWORD PTR [rsp+32], rax
  02462	4c 8d 8d 10 84
	00 00		 lea	 r9, QWORD PTR $T837[rbp]
  02469	41 b8 09 00 00
	00		 mov	 r8d, 9
  0246f	48 8b 95 50 a4
	00 00		 mov	 rdx, QWORD PTR string$[rbp]
  02476	48 8d 8d 28 0c
	00 00		 lea	 rcx, QWORD PTR graph_function$93[rbp]
  0247d	e8 00 00 00 00	 call	 ??0FST@0@QEAA@PEADFUNODE@0@ZZ ; FST::FST::FST

; 730  : 				FST::NODE(1, FST::RELATION('f', 1)),
; 731  : 				FST::NODE(1, FST::RELATION('u', 2)),
; 732  : 				FST::NODE(1, FST::RELATION('n', 3)),
; 733  : 				FST::NODE(1, FST::RELATION('c', 4)),
; 734  : 				FST::NODE(1, FST::RELATION('t', 5)),
; 735  : 				FST::NODE(1, FST::RELATION('i', 6)),
; 736  : 				FST::NODE(1, FST::RELATION('o', 7)),
; 737  : 				FST::NODE(1, FST::RELATION('n', 8)),
; 738  : 				FST::NODE());
; 739  : 			if (result = execute(graph_function)) {

  02482	48 8d 8d 28 0c
	00 00		 lea	 rcx, QWORD PTR graph_function$93[rbp]
  02489	e8 00 00 00 00	 call	 ?execute@FST@@YA_NAEAU11@@Z ; FST::execute
  0248e	88 85 04 04 00
	00		 mov	 BYTE PTR result$[rbp], al
  02494	0f b6 85 04 04
	00 00		 movzx	 eax, BYTE PTR result$[rbp]
  0249b	85 c0		 test	 eax, eax
  0249d	74 15		 je	 SHORT $LN57@token_reko

; 740  : 				entry->idtype = IT::IDTYPE::F;

  0249f	48 8b 85 58 a4
	00 00		 mov	 rax, QWORD PTR entry$[rbp]
  024a6	c7 40 44 02 00
	00 00		 mov	 DWORD PTR [rax+68], 2

; 741  : 				return LEX_FUNCTION;

  024ad	b0 66		 mov	 al, 102			; 00000066H
  024af	e9 16 4d 00 00	 jmp	 $LN1@token_reko
$LN57@token_reko:

; 742  : 			}
; 743  : 			FST::FST graph_float(string, 6,

  024b4	48 8d 8d 68 35
	00 00		 lea	 rcx, QWORD PTR $T310[rbp]
  024bb	e8 00 00 00 00	 call	 ??0NODE@FST@@QEAA@XZ	; FST::NODE::NODE
  024c0	48 8d 8d b0 86
	00 00		 lea	 rcx, QWORD PTR $T851[rbp]
  024c7	48 8b f9	 mov	 rdi, rcx
  024ca	48 8b f0	 mov	 rsi, rax
  024cd	b9 10 00 00 00	 mov	 ecx, 16
  024d2	f3 a4		 rep movsb
  024d4	66 41 b8 05 00	 mov	 r8w, 5
  024d9	b2 74		 mov	 dl, 116			; 00000074H
  024db	48 8d 8d c4 35
	00 00		 lea	 rcx, QWORD PTR $T312[rbp]
  024e2	e8 00 00 00 00	 call	 ??0RELATION@FST@@QEAA@DF@Z ; FST::RELATION::RELATION
  024e7	44 8b 00	 mov	 r8d, DWORD PTR [rax]
  024ea	ba 01 00 00 00	 mov	 edx, 1
  024ef	48 8d 8d 98 35
	00 00		 lea	 rcx, QWORD PTR $T311[rbp]
  024f6	e8 00 00 00 00	 call	 ??0NODE@FST@@QEAA@FURELATION@1@ZZ ; FST::NODE::NODE
  024fb	48 8d 8d 80 86
	00 00		 lea	 rcx, QWORD PTR $T850[rbp]
  02502	48 8b f9	 mov	 rdi, rcx
  02505	48 8b f0	 mov	 rsi, rax
  02508	b9 10 00 00 00	 mov	 ecx, 16
  0250d	f3 a4		 rep movsb
  0250f	66 41 b8 04 00	 mov	 r8w, 4
  02514	b2 61		 mov	 dl, 97			; 00000061H
  02516	48 8d 8d 14 36
	00 00		 lea	 rcx, QWORD PTR $T314[rbp]
  0251d	e8 00 00 00 00	 call	 ??0RELATION@FST@@QEAA@DF@Z ; FST::RELATION::RELATION
  02522	44 8b 00	 mov	 r8d, DWORD PTR [rax]
  02525	ba 01 00 00 00	 mov	 edx, 1
  0252a	48 8d 8d e8 35
	00 00		 lea	 rcx, QWORD PTR $T313[rbp]
  02531	e8 00 00 00 00	 call	 ??0NODE@FST@@QEAA@FURELATION@1@ZZ ; FST::NODE::NODE
  02536	48 8d 8d 50 86
	00 00		 lea	 rcx, QWORD PTR $T849[rbp]
  0253d	48 8b f9	 mov	 rdi, rcx
  02540	48 8b f0	 mov	 rsi, rax
  02543	b9 10 00 00 00	 mov	 ecx, 16
  02548	f3 a4		 rep movsb
  0254a	66 41 b8 03 00	 mov	 r8w, 3
  0254f	b2 6f		 mov	 dl, 111			; 0000006fH
  02551	48 8d 8d 64 36
	00 00		 lea	 rcx, QWORD PTR $T316[rbp]
  02558	e8 00 00 00 00	 call	 ??0RELATION@FST@@QEAA@DF@Z ; FST::RELATION::RELATION
  0255d	44 8b 00	 mov	 r8d, DWORD PTR [rax]
  02560	ba 01 00 00 00	 mov	 edx, 1
  02565	48 8d 8d 38 36
	00 00		 lea	 rcx, QWORD PTR $T315[rbp]
  0256c	e8 00 00 00 00	 call	 ??0NODE@FST@@QEAA@FURELATION@1@ZZ ; FST::NODE::NODE
  02571	48 8d 8d 20 86
	00 00		 lea	 rcx, QWORD PTR $T848[rbp]
  02578	48 8b f9	 mov	 rdi, rcx
  0257b	48 8b f0	 mov	 rsi, rax
  0257e	b9 10 00 00 00	 mov	 ecx, 16
  02583	f3 a4		 rep movsb
  02585	66 41 b8 02 00	 mov	 r8w, 2
  0258a	b2 6c		 mov	 dl, 108			; 0000006cH
  0258c	48 8d 8d b4 36
	00 00		 lea	 rcx, QWORD PTR $T318[rbp]
  02593	e8 00 00 00 00	 call	 ??0RELATION@FST@@QEAA@DF@Z ; FST::RELATION::RELATION
  02598	44 8b 00	 mov	 r8d, DWORD PTR [rax]
  0259b	ba 01 00 00 00	 mov	 edx, 1
  025a0	48 8d 8d 88 36
	00 00		 lea	 rcx, QWORD PTR $T317[rbp]
  025a7	e8 00 00 00 00	 call	 ??0NODE@FST@@QEAA@FURELATION@1@ZZ ; FST::NODE::NODE
  025ac	48 8d 8d f0 85
	00 00		 lea	 rcx, QWORD PTR $T847[rbp]
  025b3	48 8b f9	 mov	 rdi, rcx
  025b6	48 8b f0	 mov	 rsi, rax
  025b9	b9 10 00 00 00	 mov	 ecx, 16
  025be	f3 a4		 rep movsb
  025c0	66 41 b8 01 00	 mov	 r8w, 1
  025c5	b2 66		 mov	 dl, 102			; 00000066H
  025c7	48 8d 8d 04 37
	00 00		 lea	 rcx, QWORD PTR $T320[rbp]
  025ce	e8 00 00 00 00	 call	 ??0RELATION@FST@@QEAA@DF@Z ; FST::RELATION::RELATION
  025d3	44 8b 00	 mov	 r8d, DWORD PTR [rax]
  025d6	ba 01 00 00 00	 mov	 edx, 1
  025db	48 8d 8d d8 36
	00 00		 lea	 rcx, QWORD PTR $T319[rbp]
  025e2	e8 00 00 00 00	 call	 ??0NODE@FST@@QEAA@FURELATION@1@ZZ ; FST::NODE::NODE
  025e7	48 8d 8d c0 85
	00 00		 lea	 rcx, QWORD PTR $T846[rbp]
  025ee	48 8b f9	 mov	 rdi, rcx
  025f1	48 8b f0	 mov	 rsi, rax
  025f4	b9 10 00 00 00	 mov	 ecx, 16
  025f9	f3 a4		 rep movsb
  025fb	48 8d 85 b0 86
	00 00		 lea	 rax, QWORD PTR $T851[rbp]
  02602	48 89 44 24 40	 mov	 QWORD PTR [rsp+64], rax
  02607	48 8d 85 80 86
	00 00		 lea	 rax, QWORD PTR $T850[rbp]
  0260e	48 89 44 24 38	 mov	 QWORD PTR [rsp+56], rax
  02613	48 8d 85 50 86
	00 00		 lea	 rax, QWORD PTR $T849[rbp]
  0261a	48 89 44 24 30	 mov	 QWORD PTR [rsp+48], rax
  0261f	48 8d 85 20 86
	00 00		 lea	 rax, QWORD PTR $T848[rbp]
  02626	48 89 44 24 28	 mov	 QWORD PTR [rsp+40], rax
  0262b	48 8d 85 f0 85
	00 00		 lea	 rax, QWORD PTR $T847[rbp]
  02632	48 89 44 24 20	 mov	 QWORD PTR [rsp+32], rax
  02637	4c 8d 8d c0 85
	00 00		 lea	 r9, QWORD PTR $T846[rbp]
  0263e	41 b8 06 00 00
	00		 mov	 r8d, 6
  02644	48 8b 95 50 a4
	00 00		 mov	 rdx, QWORD PTR string$[rbp]
  0264b	48 8d 8d 68 0c
	00 00		 lea	 rcx, QWORD PTR graph_float$94[rbp]
  02652	e8 00 00 00 00	 call	 ??0FST@0@QEAA@PEADFUNODE@0@ZZ ; FST::FST::FST

; 744  : 				FST::NODE(1, FST::RELATION('f', 1)),
; 745  : 				FST::NODE(1, FST::RELATION('l', 2)),
; 746  : 				FST::NODE(1, FST::RELATION('o', 3)),
; 747  : 				FST::NODE(1, FST::RELATION('a', 4)),
; 748  : 				FST::NODE(1, FST::RELATION('t', 5)),
; 749  : 				FST::NODE());
; 750  : 			if (result = execute(graph_float)) {

  02657	48 8d 8d 68 0c
	00 00		 lea	 rcx, QWORD PTR graph_float$94[rbp]
  0265e	e8 00 00 00 00	 call	 ?execute@FST@@YA_NAEAU11@@Z ; FST::execute
  02663	88 85 04 04 00
	00		 mov	 BYTE PTR result$[rbp], al
  02669	0f b6 85 04 04
	00 00		 movzx	 eax, BYTE PTR result$[rbp]
  02670	85 c0		 test	 eax, eax
  02672	74 15		 je	 SHORT $LN58@token_reko

; 751  : 				entry->iddatatype = IT::IDDATATYPE::FLOAT;

  02674	48 8b 85 58 a4
	00 00		 mov	 rax, QWORD PTR entry$[rbp]
  0267b	c7 40 40 04 00
	00 00		 mov	 DWORD PTR [rax+64], 4

; 752  : 				return LEX_FLOAT;

  02682	b0 74		 mov	 al, 116			; 00000074H
  02684	e9 41 4b 00 00	 jmp	 $LN1@token_reko
$LN58@token_reko:

; 753  : 			}
; 754  : 			FST::FST graph_false(string, 6,

  02689	48 8d 8d 28 37
	00 00		 lea	 rcx, QWORD PTR $T321[rbp]
  02690	e8 00 00 00 00	 call	 ??0NODE@FST@@QEAA@XZ	; FST::NODE::NODE
  02695	48 8d 8d d0 87
	00 00		 lea	 rcx, QWORD PTR $T857[rbp]
  0269c	48 8b f9	 mov	 rdi, rcx
  0269f	48 8b f0	 mov	 rsi, rax
  026a2	b9 10 00 00 00	 mov	 ecx, 16
  026a7	f3 a4		 rep movsb
  026a9	66 41 b8 05 00	 mov	 r8w, 5
  026ae	b2 65		 mov	 dl, 101			; 00000065H
  026b0	48 8d 8d 84 37
	00 00		 lea	 rcx, QWORD PTR $T323[rbp]
  026b7	e8 00 00 00 00	 call	 ??0RELATION@FST@@QEAA@DF@Z ; FST::RELATION::RELATION
  026bc	44 8b 00	 mov	 r8d, DWORD PTR [rax]
  026bf	ba 01 00 00 00	 mov	 edx, 1
  026c4	48 8d 8d 58 37
	00 00		 lea	 rcx, QWORD PTR $T322[rbp]
  026cb	e8 00 00 00 00	 call	 ??0NODE@FST@@QEAA@FURELATION@1@ZZ ; FST::NODE::NODE
  026d0	48 8d 8d a0 87
	00 00		 lea	 rcx, QWORD PTR $T856[rbp]
  026d7	48 8b f9	 mov	 rdi, rcx
  026da	48 8b f0	 mov	 rsi, rax
  026dd	b9 10 00 00 00	 mov	 ecx, 16
  026e2	f3 a4		 rep movsb
  026e4	66 41 b8 04 00	 mov	 r8w, 4
  026e9	b2 73		 mov	 dl, 115			; 00000073H
  026eb	48 8d 8d d4 37
	00 00		 lea	 rcx, QWORD PTR $T325[rbp]
  026f2	e8 00 00 00 00	 call	 ??0RELATION@FST@@QEAA@DF@Z ; FST::RELATION::RELATION
  026f7	44 8b 00	 mov	 r8d, DWORD PTR [rax]
  026fa	ba 01 00 00 00	 mov	 edx, 1
  026ff	48 8d 8d a8 37
	00 00		 lea	 rcx, QWORD PTR $T324[rbp]
  02706	e8 00 00 00 00	 call	 ??0NODE@FST@@QEAA@FURELATION@1@ZZ ; FST::NODE::NODE
  0270b	48 8d 8d 70 87
	00 00		 lea	 rcx, QWORD PTR $T855[rbp]
  02712	48 8b f9	 mov	 rdi, rcx
  02715	48 8b f0	 mov	 rsi, rax
  02718	b9 10 00 00 00	 mov	 ecx, 16
  0271d	f3 a4		 rep movsb
  0271f	66 41 b8 03 00	 mov	 r8w, 3
  02724	b2 6c		 mov	 dl, 108			; 0000006cH
  02726	48 8d 8d 24 38
	00 00		 lea	 rcx, QWORD PTR $T327[rbp]
  0272d	e8 00 00 00 00	 call	 ??0RELATION@FST@@QEAA@DF@Z ; FST::RELATION::RELATION
  02732	44 8b 00	 mov	 r8d, DWORD PTR [rax]
  02735	ba 01 00 00 00	 mov	 edx, 1
  0273a	48 8d 8d f8 37
	00 00		 lea	 rcx, QWORD PTR $T326[rbp]
  02741	e8 00 00 00 00	 call	 ??0NODE@FST@@QEAA@FURELATION@1@ZZ ; FST::NODE::NODE
  02746	48 8d 8d 40 87
	00 00		 lea	 rcx, QWORD PTR $T854[rbp]
  0274d	48 8b f9	 mov	 rdi, rcx
  02750	48 8b f0	 mov	 rsi, rax
  02753	b9 10 00 00 00	 mov	 ecx, 16
  02758	f3 a4		 rep movsb
  0275a	66 41 b8 02 00	 mov	 r8w, 2
  0275f	b2 61		 mov	 dl, 97			; 00000061H
  02761	48 8d 8d 74 38
	00 00		 lea	 rcx, QWORD PTR $T329[rbp]
  02768	e8 00 00 00 00	 call	 ??0RELATION@FST@@QEAA@DF@Z ; FST::RELATION::RELATION
  0276d	44 8b 00	 mov	 r8d, DWORD PTR [rax]
  02770	ba 01 00 00 00	 mov	 edx, 1
  02775	48 8d 8d 48 38
	00 00		 lea	 rcx, QWORD PTR $T328[rbp]
  0277c	e8 00 00 00 00	 call	 ??0NODE@FST@@QEAA@FURELATION@1@ZZ ; FST::NODE::NODE
  02781	48 8d 8d 10 87
	00 00		 lea	 rcx, QWORD PTR $T853[rbp]
  02788	48 8b f9	 mov	 rdi, rcx
  0278b	48 8b f0	 mov	 rsi, rax
  0278e	b9 10 00 00 00	 mov	 ecx, 16
  02793	f3 a4		 rep movsb
  02795	66 41 b8 01 00	 mov	 r8w, 1
  0279a	b2 66		 mov	 dl, 102			; 00000066H
  0279c	48 8d 8d c4 38
	00 00		 lea	 rcx, QWORD PTR $T331[rbp]
  027a3	e8 00 00 00 00	 call	 ??0RELATION@FST@@QEAA@DF@Z ; FST::RELATION::RELATION
  027a8	44 8b 00	 mov	 r8d, DWORD PTR [rax]
  027ab	ba 01 00 00 00	 mov	 edx, 1
  027b0	48 8d 8d 98 38
	00 00		 lea	 rcx, QWORD PTR $T330[rbp]
  027b7	e8 00 00 00 00	 call	 ??0NODE@FST@@QEAA@FURELATION@1@ZZ ; FST::NODE::NODE
  027bc	48 8d 8d e0 86
	00 00		 lea	 rcx, QWORD PTR $T852[rbp]
  027c3	48 8b f9	 mov	 rdi, rcx
  027c6	48 8b f0	 mov	 rsi, rax
  027c9	b9 10 00 00 00	 mov	 ecx, 16
  027ce	f3 a4		 rep movsb
  027d0	48 8d 85 d0 87
	00 00		 lea	 rax, QWORD PTR $T857[rbp]
  027d7	48 89 44 24 40	 mov	 QWORD PTR [rsp+64], rax
  027dc	48 8d 85 a0 87
	00 00		 lea	 rax, QWORD PTR $T856[rbp]
  027e3	48 89 44 24 38	 mov	 QWORD PTR [rsp+56], rax
  027e8	48 8d 85 70 87
	00 00		 lea	 rax, QWORD PTR $T855[rbp]
  027ef	48 89 44 24 30	 mov	 QWORD PTR [rsp+48], rax
  027f4	48 8d 85 40 87
	00 00		 lea	 rax, QWORD PTR $T854[rbp]
  027fb	48 89 44 24 28	 mov	 QWORD PTR [rsp+40], rax
  02800	48 8d 85 10 87
	00 00		 lea	 rax, QWORD PTR $T853[rbp]
  02807	48 89 44 24 20	 mov	 QWORD PTR [rsp+32], rax
  0280c	4c 8d 8d e0 86
	00 00		 lea	 r9, QWORD PTR $T852[rbp]
  02813	41 b8 06 00 00
	00		 mov	 r8d, 6
  02819	48 8b 95 50 a4
	00 00		 mov	 rdx, QWORD PTR string$[rbp]
  02820	48 8d 8d a8 0c
	00 00		 lea	 rcx, QWORD PTR graph_false$95[rbp]
  02827	e8 00 00 00 00	 call	 ??0FST@0@QEAA@PEADFUNODE@0@ZZ ; FST::FST::FST

; 755  : 				FST::NODE(1, FST::RELATION('f', 1)),
; 756  : 				FST::NODE(1, FST::RELATION('a', 2)),
; 757  : 				FST::NODE(1, FST::RELATION('l', 3)),
; 758  : 				FST::NODE(1, FST::RELATION('s', 4)),
; 759  : 				FST::NODE(1, FST::RELATION('e', 5)),
; 760  : 				FST::NODE());
; 761  : 			if (result = execute(graph_false)) {

  0282c	48 8d 8d a8 0c
	00 00		 lea	 rcx, QWORD PTR graph_false$95[rbp]
  02833	e8 00 00 00 00	 call	 ?execute@FST@@YA_NAEAU11@@Z ; FST::execute
  02838	88 85 04 04 00
	00		 mov	 BYTE PTR result$[rbp], al
  0283e	0f b6 85 04 04
	00 00		 movzx	 eax, BYTE PTR result$[rbp]
  02845	85 c0		 test	 eax, eax
  02847	74 41		 je	 SHORT $LN59@token_reko

; 762  : 				entry->iddatatype = IT::IDDATATYPE::LONG;

  02849	48 8b 85 58 a4
	00 00		 mov	 rax, QWORD PTR entry$[rbp]
  02850	c7 40 40 01 00
	00 00		 mov	 DWORD PTR [rax+64], 1

; 763  : 				entry->idcalculus = IT::CALCULUS::DEC;

  02857	48 8b 85 58 a4
	00 00		 mov	 rax, QWORD PTR entry$[rbp]
  0285e	c7 40 48 01 00
	00 00		 mov	 DWORD PTR [rax+72], 1

; 764  : 				strcpy(string, "0");

  02865	48 8d 15 00 00
	00 00		 lea	 rdx, OFFSET FLAT:??_C@_01GBGANLPD@0@
  0286c	48 8b 8d 50 a4
	00 00		 mov	 rcx, QWORD PTR string$[rbp]
  02873	e8 00 00 00 00	 call	 strcpy

; 765  : 				entry->value.vbool = false;

  02878	48 8b 85 58 a4
	00 00		 mov	 rax, QWORD PTR entry$[rbp]
  0287f	c6 40 4c 00	 mov	 BYTE PTR [rax+76], 0

; 766  : 				return LEX_LITERAL;

  02883	b0 6c		 mov	 al, 108			; 0000006cH
  02885	e9 40 49 00 00	 jmp	 $LN1@token_reko
$LN59@token_reko:

; 767  : 			}
; 768  : 			break;

  0288a	e9 d9 44 00 00	 jmp	 $LN2@token_reko
$LN60@token_reko:

; 769  : 		}
; 770  : 		case 'i':
; 771  : 		{
; 772  : 			FST::FST graph_include(string, 8,

  0288f	48 8d 8d e8 38
	00 00		 lea	 rcx, QWORD PTR $T332[rbp]
  02896	e8 00 00 00 00	 call	 ??0NODE@FST@@QEAA@XZ	; FST::NODE::NODE
  0289b	48 8d 8d 50 89
	00 00		 lea	 rcx, QWORD PTR $T865[rbp]
  028a2	48 8b f9	 mov	 rdi, rcx
  028a5	48 8b f0	 mov	 rsi, rax
  028a8	b9 10 00 00 00	 mov	 ecx, 16
  028ad	f3 a4		 rep movsb
  028af	66 41 b8 07 00	 mov	 r8w, 7
  028b4	b2 65		 mov	 dl, 101			; 00000065H
  028b6	48 8d 8d 44 39
	00 00		 lea	 rcx, QWORD PTR $T334[rbp]
  028bd	e8 00 00 00 00	 call	 ??0RELATION@FST@@QEAA@DF@Z ; FST::RELATION::RELATION
  028c2	44 8b 00	 mov	 r8d, DWORD PTR [rax]
  028c5	ba 01 00 00 00	 mov	 edx, 1
  028ca	48 8d 8d 18 39
	00 00		 lea	 rcx, QWORD PTR $T333[rbp]
  028d1	e8 00 00 00 00	 call	 ??0NODE@FST@@QEAA@FURELATION@1@ZZ ; FST::NODE::NODE
  028d6	48 8d 8d 20 89
	00 00		 lea	 rcx, QWORD PTR $T864[rbp]
  028dd	48 8b f9	 mov	 rdi, rcx
  028e0	48 8b f0	 mov	 rsi, rax
  028e3	b9 10 00 00 00	 mov	 ecx, 16
  028e8	f3 a4		 rep movsb
  028ea	66 41 b8 06 00	 mov	 r8w, 6
  028ef	b2 64		 mov	 dl, 100			; 00000064H
  028f1	48 8d 8d 94 39
	00 00		 lea	 rcx, QWORD PTR $T336[rbp]
  028f8	e8 00 00 00 00	 call	 ??0RELATION@FST@@QEAA@DF@Z ; FST::RELATION::RELATION
  028fd	44 8b 00	 mov	 r8d, DWORD PTR [rax]
  02900	ba 01 00 00 00	 mov	 edx, 1
  02905	48 8d 8d 68 39
	00 00		 lea	 rcx, QWORD PTR $T335[rbp]
  0290c	e8 00 00 00 00	 call	 ??0NODE@FST@@QEAA@FURELATION@1@ZZ ; FST::NODE::NODE
  02911	48 8d 8d f0 88
	00 00		 lea	 rcx, QWORD PTR $T863[rbp]
  02918	48 8b f9	 mov	 rdi, rcx
  0291b	48 8b f0	 mov	 rsi, rax
  0291e	b9 10 00 00 00	 mov	 ecx, 16
  02923	f3 a4		 rep movsb
  02925	66 41 b8 05 00	 mov	 r8w, 5
  0292a	b2 75		 mov	 dl, 117			; 00000075H
  0292c	48 8d 8d e4 39
	00 00		 lea	 rcx, QWORD PTR $T338[rbp]
  02933	e8 00 00 00 00	 call	 ??0RELATION@FST@@QEAA@DF@Z ; FST::RELATION::RELATION
  02938	44 8b 00	 mov	 r8d, DWORD PTR [rax]
  0293b	ba 01 00 00 00	 mov	 edx, 1
  02940	48 8d 8d b8 39
	00 00		 lea	 rcx, QWORD PTR $T337[rbp]
  02947	e8 00 00 00 00	 call	 ??0NODE@FST@@QEAA@FURELATION@1@ZZ ; FST::NODE::NODE
  0294c	48 8d 8d c0 88
	00 00		 lea	 rcx, QWORD PTR $T862[rbp]
  02953	48 8b f9	 mov	 rdi, rcx
  02956	48 8b f0	 mov	 rsi, rax
  02959	b9 10 00 00 00	 mov	 ecx, 16
  0295e	f3 a4		 rep movsb
  02960	66 41 b8 04 00	 mov	 r8w, 4
  02965	b2 6c		 mov	 dl, 108			; 0000006cH
  02967	48 8d 8d 34 3a
	00 00		 lea	 rcx, QWORD PTR $T340[rbp]
  0296e	e8 00 00 00 00	 call	 ??0RELATION@FST@@QEAA@DF@Z ; FST::RELATION::RELATION
  02973	44 8b 00	 mov	 r8d, DWORD PTR [rax]
  02976	ba 01 00 00 00	 mov	 edx, 1
  0297b	48 8d 8d 08 3a
	00 00		 lea	 rcx, QWORD PTR $T339[rbp]
  02982	e8 00 00 00 00	 call	 ??0NODE@FST@@QEAA@FURELATION@1@ZZ ; FST::NODE::NODE
  02987	48 8d 8d 90 88
	00 00		 lea	 rcx, QWORD PTR $T861[rbp]
  0298e	48 8b f9	 mov	 rdi, rcx
  02991	48 8b f0	 mov	 rsi, rax
  02994	b9 10 00 00 00	 mov	 ecx, 16
  02999	f3 a4		 rep movsb
  0299b	66 41 b8 03 00	 mov	 r8w, 3
  029a0	b2 63		 mov	 dl, 99			; 00000063H
  029a2	48 8d 8d 84 3a
	00 00		 lea	 rcx, QWORD PTR $T342[rbp]
  029a9	e8 00 00 00 00	 call	 ??0RELATION@FST@@QEAA@DF@Z ; FST::RELATION::RELATION
  029ae	44 8b 00	 mov	 r8d, DWORD PTR [rax]
  029b1	ba 01 00 00 00	 mov	 edx, 1
  029b6	48 8d 8d 58 3a
	00 00		 lea	 rcx, QWORD PTR $T341[rbp]
  029bd	e8 00 00 00 00	 call	 ??0NODE@FST@@QEAA@FURELATION@1@ZZ ; FST::NODE::NODE
  029c2	48 8d 8d 60 88
	00 00		 lea	 rcx, QWORD PTR $T860[rbp]
  029c9	48 8b f9	 mov	 rdi, rcx
  029cc	48 8b f0	 mov	 rsi, rax
  029cf	b9 10 00 00 00	 mov	 ecx, 16
  029d4	f3 a4		 rep movsb
  029d6	66 41 b8 02 00	 mov	 r8w, 2
  029db	b2 6e		 mov	 dl, 110			; 0000006eH
  029dd	48 8d 8d d4 3a
	00 00		 lea	 rcx, QWORD PTR $T344[rbp]
  029e4	e8 00 00 00 00	 call	 ??0RELATION@FST@@QEAA@DF@Z ; FST::RELATION::RELATION
  029e9	44 8b 00	 mov	 r8d, DWORD PTR [rax]
  029ec	ba 01 00 00 00	 mov	 edx, 1
  029f1	48 8d 8d a8 3a
	00 00		 lea	 rcx, QWORD PTR $T343[rbp]
  029f8	e8 00 00 00 00	 call	 ??0NODE@FST@@QEAA@FURELATION@1@ZZ ; FST::NODE::NODE
  029fd	48 8d 8d 30 88
	00 00		 lea	 rcx, QWORD PTR $T859[rbp]
  02a04	48 8b f9	 mov	 rdi, rcx
  02a07	48 8b f0	 mov	 rsi, rax
  02a0a	b9 10 00 00 00	 mov	 ecx, 16
  02a0f	f3 a4		 rep movsb
  02a11	66 41 b8 01 00	 mov	 r8w, 1
  02a16	b2 69		 mov	 dl, 105			; 00000069H
  02a18	48 8d 8d 24 3b
	00 00		 lea	 rcx, QWORD PTR $T346[rbp]
  02a1f	e8 00 00 00 00	 call	 ??0RELATION@FST@@QEAA@DF@Z ; FST::RELATION::RELATION
  02a24	44 8b 00	 mov	 r8d, DWORD PTR [rax]
  02a27	ba 01 00 00 00	 mov	 edx, 1
  02a2c	48 8d 8d f8 3a
	00 00		 lea	 rcx, QWORD PTR $T345[rbp]
  02a33	e8 00 00 00 00	 call	 ??0NODE@FST@@QEAA@FURELATION@1@ZZ ; FST::NODE::NODE
  02a38	48 8d 8d 00 88
	00 00		 lea	 rcx, QWORD PTR $T858[rbp]
  02a3f	48 8b f9	 mov	 rdi, rcx
  02a42	48 8b f0	 mov	 rsi, rax
  02a45	b9 10 00 00 00	 mov	 ecx, 16
  02a4a	f3 a4		 rep movsb
  02a4c	48 8d 85 50 89
	00 00		 lea	 rax, QWORD PTR $T865[rbp]
  02a53	48 89 44 24 50	 mov	 QWORD PTR [rsp+80], rax
  02a58	48 8d 85 20 89
	00 00		 lea	 rax, QWORD PTR $T864[rbp]
  02a5f	48 89 44 24 48	 mov	 QWORD PTR [rsp+72], rax
  02a64	48 8d 85 f0 88
	00 00		 lea	 rax, QWORD PTR $T863[rbp]
  02a6b	48 89 44 24 40	 mov	 QWORD PTR [rsp+64], rax
  02a70	48 8d 85 c0 88
	00 00		 lea	 rax, QWORD PTR $T862[rbp]
  02a77	48 89 44 24 38	 mov	 QWORD PTR [rsp+56], rax
  02a7c	48 8d 85 90 88
	00 00		 lea	 rax, QWORD PTR $T861[rbp]
  02a83	48 89 44 24 30	 mov	 QWORD PTR [rsp+48], rax
  02a88	48 8d 85 60 88
	00 00		 lea	 rax, QWORD PTR $T860[rbp]
  02a8f	48 89 44 24 28	 mov	 QWORD PTR [rsp+40], rax
  02a94	48 8d 85 30 88
	00 00		 lea	 rax, QWORD PTR $T859[rbp]
  02a9b	48 89 44 24 20	 mov	 QWORD PTR [rsp+32], rax
  02aa0	4c 8d 8d 00 88
	00 00		 lea	 r9, QWORD PTR $T858[rbp]
  02aa7	41 b8 08 00 00
	00		 mov	 r8d, 8
  02aad	48 8b 95 50 a4
	00 00		 mov	 rdx, QWORD PTR string$[rbp]
  02ab4	48 8d 8d e8 0c
	00 00		 lea	 rcx, QWORD PTR graph_include$96[rbp]
  02abb	e8 00 00 00 00	 call	 ??0FST@0@QEAA@PEADFUNODE@0@ZZ ; FST::FST::FST

; 773  : 				FST::NODE(1, FST::RELATION('i', 1)),
; 774  : 				FST::NODE(1, FST::RELATION('n', 2)),
; 775  : 				FST::NODE(1, FST::RELATION('c', 3)),
; 776  : 				FST::NODE(1, FST::RELATION('l', 4)),
; 777  : 				FST::NODE(1, FST::RELATION('u', 5)),
; 778  : 				FST::NODE(1, FST::RELATION('d', 6)),
; 779  : 				FST::NODE(1, FST::RELATION('e', 7)),
; 780  : 				FST::NODE());
; 781  : 			if (result = execute(graph_include)) {

  02ac0	48 8d 8d e8 0c
	00 00		 lea	 rcx, QWORD PTR graph_include$96[rbp]
  02ac7	e8 00 00 00 00	 call	 ?execute@FST@@YA_NAEAU11@@Z ; FST::execute
  02acc	88 85 04 04 00
	00		 mov	 BYTE PTR result$[rbp], al
  02ad2	0f b6 85 04 04
	00 00		 movzx	 eax, BYTE PTR result$[rbp]
  02ad9	85 c0		 test	 eax, eax
  02adb	74 0c		 je	 SHORT $LN61@token_reko

; 782  : 				return LEX_ID;

  02add	b0 69		 mov	 al, 105			; 00000069H
  02adf	e9 e6 46 00 00	 jmp	 $LN1@token_reko

; 783  : 				break;

  02ae4	e9 7f 42 00 00	 jmp	 $LN2@token_reko
$LN61@token_reko:

; 784  : 			}
; 785  : 			FST::FST graph_canditional(string, 3,

  02ae9	48 8d 8d 48 3b
	00 00		 lea	 rcx, QWORD PTR $T347[rbp]
  02af0	e8 00 00 00 00	 call	 ??0NODE@FST@@QEAA@XZ	; FST::NODE::NODE
  02af5	48 8d 8d e0 89
	00 00		 lea	 rcx, QWORD PTR $T868[rbp]
  02afc	48 8b f9	 mov	 rdi, rcx
  02aff	48 8b f0	 mov	 rsi, rax
  02b02	b9 10 00 00 00	 mov	 ecx, 16
  02b07	f3 a4		 rep movsb
  02b09	66 41 b8 02 00	 mov	 r8w, 2
  02b0e	b2 66		 mov	 dl, 102			; 00000066H
  02b10	48 8d 8d a4 3b
	00 00		 lea	 rcx, QWORD PTR $T349[rbp]
  02b17	e8 00 00 00 00	 call	 ??0RELATION@FST@@QEAA@DF@Z ; FST::RELATION::RELATION
  02b1c	44 8b 00	 mov	 r8d, DWORD PTR [rax]
  02b1f	ba 01 00 00 00	 mov	 edx, 1
  02b24	48 8d 8d 78 3b
	00 00		 lea	 rcx, QWORD PTR $T348[rbp]
  02b2b	e8 00 00 00 00	 call	 ??0NODE@FST@@QEAA@FURELATION@1@ZZ ; FST::NODE::NODE
  02b30	48 8d 8d b0 89
	00 00		 lea	 rcx, QWORD PTR $T867[rbp]
  02b37	48 8b f9	 mov	 rdi, rcx
  02b3a	48 8b f0	 mov	 rsi, rax
  02b3d	b9 10 00 00 00	 mov	 ecx, 16
  02b42	f3 a4		 rep movsb
  02b44	66 41 b8 01 00	 mov	 r8w, 1
  02b49	b2 69		 mov	 dl, 105			; 00000069H
  02b4b	48 8d 8d f4 3b
	00 00		 lea	 rcx, QWORD PTR $T351[rbp]
  02b52	e8 00 00 00 00	 call	 ??0RELATION@FST@@QEAA@DF@Z ; FST::RELATION::RELATION
  02b57	44 8b 00	 mov	 r8d, DWORD PTR [rax]
  02b5a	ba 01 00 00 00	 mov	 edx, 1
  02b5f	48 8d 8d c8 3b
	00 00		 lea	 rcx, QWORD PTR $T350[rbp]
  02b66	e8 00 00 00 00	 call	 ??0NODE@FST@@QEAA@FURELATION@1@ZZ ; FST::NODE::NODE
  02b6b	48 8d 8d 80 89
	00 00		 lea	 rcx, QWORD PTR $T866[rbp]
  02b72	48 8b f9	 mov	 rdi, rcx
  02b75	48 8b f0	 mov	 rsi, rax
  02b78	b9 10 00 00 00	 mov	 ecx, 16
  02b7d	f3 a4		 rep movsb
  02b7f	48 8d 85 e0 89
	00 00		 lea	 rax, QWORD PTR $T868[rbp]
  02b86	48 89 44 24 28	 mov	 QWORD PTR [rsp+40], rax
  02b8b	48 8d 85 b0 89
	00 00		 lea	 rax, QWORD PTR $T867[rbp]
  02b92	48 89 44 24 20	 mov	 QWORD PTR [rsp+32], rax
  02b97	4c 8d 8d 80 89
	00 00		 lea	 r9, QWORD PTR $T866[rbp]
  02b9e	41 b8 03 00 00
	00		 mov	 r8d, 3
  02ba4	48 8b 95 50 a4
	00 00		 mov	 rdx, QWORD PTR string$[rbp]
  02bab	48 8d 8d 28 0d
	00 00		 lea	 rcx, QWORD PTR graph_canditional$97[rbp]
  02bb2	e8 00 00 00 00	 call	 ??0FST@0@QEAA@PEADFUNODE@0@ZZ ; FST::FST::FST

; 786  : 				FST::NODE(1, FST::RELATION('i', 1)),
; 787  : 				FST::NODE(1, FST::RELATION('f', 2)),
; 788  : 				FST::NODE());
; 789  : 			if (result = execute(graph_canditional)) {

  02bb7	48 8d 8d 28 0d
	00 00		 lea	 rcx, QWORD PTR graph_canditional$97[rbp]
  02bbe	e8 00 00 00 00	 call	 ?execute@FST@@YA_NAEAU11@@Z ; FST::execute
  02bc3	88 85 04 04 00
	00		 mov	 BYTE PTR result$[rbp], al
  02bc9	0f b6 85 04 04
	00 00		 movzx	 eax, BYTE PTR result$[rbp]
  02bd0	85 c0		 test	 eax, eax
  02bd2	74 0c		 je	 SHORT $LN62@token_reko

; 790  : 				return LEX_IF;

  02bd4	b0 7a		 mov	 al, 122			; 0000007aH
  02bd6	e9 ef 45 00 00	 jmp	 $LN1@token_reko

; 791  : 				break;

  02bdb	e9 88 41 00 00	 jmp	 $LN2@token_reko
$LN62@token_reko:

; 792  : 			}
; 793  : 			break;

  02be0	e9 83 41 00 00	 jmp	 $LN2@token_reko
$LN63@token_reko:

; 794  : 		}
; 795  : 		case 'l':
; 796  : 		{
; 797  : 			FST::FST graph_int(string, 5,

  02be5	48 8d 8d 18 3c
	00 00		 lea	 rcx, QWORD PTR $T352[rbp]
  02bec	e8 00 00 00 00	 call	 ??0NODE@FST@@QEAA@XZ	; FST::NODE::NODE
  02bf1	48 8d 8d d0 8a
	00 00		 lea	 rcx, QWORD PTR $T873[rbp]
  02bf8	48 8b f9	 mov	 rdi, rcx
  02bfb	48 8b f0	 mov	 rsi, rax
  02bfe	b9 10 00 00 00	 mov	 ecx, 16
  02c03	f3 a4		 rep movsb
  02c05	66 41 b8 04 00	 mov	 r8w, 4
  02c0a	b2 67		 mov	 dl, 103			; 00000067H
  02c0c	48 8d 8d 74 3c
	00 00		 lea	 rcx, QWORD PTR $T354[rbp]
  02c13	e8 00 00 00 00	 call	 ??0RELATION@FST@@QEAA@DF@Z ; FST::RELATION::RELATION
  02c18	44 8b 00	 mov	 r8d, DWORD PTR [rax]
  02c1b	ba 01 00 00 00	 mov	 edx, 1
  02c20	48 8d 8d 48 3c
	00 00		 lea	 rcx, QWORD PTR $T353[rbp]
  02c27	e8 00 00 00 00	 call	 ??0NODE@FST@@QEAA@FURELATION@1@ZZ ; FST::NODE::NODE
  02c2c	48 8d 8d a0 8a
	00 00		 lea	 rcx, QWORD PTR $T872[rbp]
  02c33	48 8b f9	 mov	 rdi, rcx
  02c36	48 8b f0	 mov	 rsi, rax
  02c39	b9 10 00 00 00	 mov	 ecx, 16
  02c3e	f3 a4		 rep movsb
  02c40	66 41 b8 03 00	 mov	 r8w, 3
  02c45	b2 6e		 mov	 dl, 110			; 0000006eH
  02c47	48 8d 8d c4 3c
	00 00		 lea	 rcx, QWORD PTR $T356[rbp]
  02c4e	e8 00 00 00 00	 call	 ??0RELATION@FST@@QEAA@DF@Z ; FST::RELATION::RELATION
  02c53	44 8b 00	 mov	 r8d, DWORD PTR [rax]
  02c56	ba 01 00 00 00	 mov	 edx, 1
  02c5b	48 8d 8d 98 3c
	00 00		 lea	 rcx, QWORD PTR $T355[rbp]
  02c62	e8 00 00 00 00	 call	 ??0NODE@FST@@QEAA@FURELATION@1@ZZ ; FST::NODE::NODE
  02c67	48 8d 8d 70 8a
	00 00		 lea	 rcx, QWORD PTR $T871[rbp]
  02c6e	48 8b f9	 mov	 rdi, rcx
  02c71	48 8b f0	 mov	 rsi, rax
  02c74	b9 10 00 00 00	 mov	 ecx, 16
  02c79	f3 a4		 rep movsb
  02c7b	66 41 b8 02 00	 mov	 r8w, 2
  02c80	b2 6f		 mov	 dl, 111			; 0000006fH
  02c82	48 8d 8d 14 3d
	00 00		 lea	 rcx, QWORD PTR $T358[rbp]
  02c89	e8 00 00 00 00	 call	 ??0RELATION@FST@@QEAA@DF@Z ; FST::RELATION::RELATION
  02c8e	44 8b 00	 mov	 r8d, DWORD PTR [rax]
  02c91	ba 01 00 00 00	 mov	 edx, 1
  02c96	48 8d 8d e8 3c
	00 00		 lea	 rcx, QWORD PTR $T357[rbp]
  02c9d	e8 00 00 00 00	 call	 ??0NODE@FST@@QEAA@FURELATION@1@ZZ ; FST::NODE::NODE
  02ca2	48 8d 8d 40 8a
	00 00		 lea	 rcx, QWORD PTR $T870[rbp]
  02ca9	48 8b f9	 mov	 rdi, rcx
  02cac	48 8b f0	 mov	 rsi, rax
  02caf	b9 10 00 00 00	 mov	 ecx, 16
  02cb4	f3 a4		 rep movsb
  02cb6	66 41 b8 01 00	 mov	 r8w, 1
  02cbb	b2 6c		 mov	 dl, 108			; 0000006cH
  02cbd	48 8d 8d 64 3d
	00 00		 lea	 rcx, QWORD PTR $T360[rbp]
  02cc4	e8 00 00 00 00	 call	 ??0RELATION@FST@@QEAA@DF@Z ; FST::RELATION::RELATION
  02cc9	44 8b 00	 mov	 r8d, DWORD PTR [rax]
  02ccc	ba 01 00 00 00	 mov	 edx, 1
  02cd1	48 8d 8d 38 3d
	00 00		 lea	 rcx, QWORD PTR $T359[rbp]
  02cd8	e8 00 00 00 00	 call	 ??0NODE@FST@@QEAA@FURELATION@1@ZZ ; FST::NODE::NODE
  02cdd	48 8d 8d 10 8a
	00 00		 lea	 rcx, QWORD PTR $T869[rbp]
  02ce4	48 8b f9	 mov	 rdi, rcx
  02ce7	48 8b f0	 mov	 rsi, rax
  02cea	b9 10 00 00 00	 mov	 ecx, 16
  02cef	f3 a4		 rep movsb
  02cf1	48 8d 85 d0 8a
	00 00		 lea	 rax, QWORD PTR $T873[rbp]
  02cf8	48 89 44 24 38	 mov	 QWORD PTR [rsp+56], rax
  02cfd	48 8d 85 a0 8a
	00 00		 lea	 rax, QWORD PTR $T872[rbp]
  02d04	48 89 44 24 30	 mov	 QWORD PTR [rsp+48], rax
  02d09	48 8d 85 70 8a
	00 00		 lea	 rax, QWORD PTR $T871[rbp]
  02d10	48 89 44 24 28	 mov	 QWORD PTR [rsp+40], rax
  02d15	48 8d 85 40 8a
	00 00		 lea	 rax, QWORD PTR $T870[rbp]
  02d1c	48 89 44 24 20	 mov	 QWORD PTR [rsp+32], rax
  02d21	4c 8d 8d 10 8a
	00 00		 lea	 r9, QWORD PTR $T869[rbp]
  02d28	41 b8 05 00 00
	00		 mov	 r8d, 5
  02d2e	48 8b 95 50 a4
	00 00		 mov	 rdx, QWORD PTR string$[rbp]
  02d35	48 8d 8d 68 0d
	00 00		 lea	 rcx, QWORD PTR graph_int$98[rbp]
  02d3c	e8 00 00 00 00	 call	 ??0FST@0@QEAA@PEADFUNODE@0@ZZ ; FST::FST::FST

; 798  : 				FST::NODE(1, FST::RELATION('l', 1)),
; 799  : 				FST::NODE(1, FST::RELATION('o', 2)),
; 800  : 				FST::NODE(1, FST::RELATION('n', 3)),
; 801  : 				FST::NODE(1, FST::RELATION('g', 4)),
; 802  : 				FST::NODE());
; 803  : 			if (result = execute(graph_int)) {

  02d41	48 8d 8d 68 0d
	00 00		 lea	 rcx, QWORD PTR graph_int$98[rbp]
  02d48	e8 00 00 00 00	 call	 ?execute@FST@@YA_NAEAU11@@Z ; FST::execute
  02d4d	88 85 04 04 00
	00		 mov	 BYTE PTR result$[rbp], al
  02d53	0f b6 85 04 04
	00 00		 movzx	 eax, BYTE PTR result$[rbp]
  02d5a	85 c0		 test	 eax, eax
  02d5c	74 1a		 je	 SHORT $LN64@token_reko

; 804  : 				entry->iddatatype = IT::IDDATATYPE::LONG;

  02d5e	48 8b 85 58 a4
	00 00		 mov	 rax, QWORD PTR entry$[rbp]
  02d65	c7 40 40 01 00
	00 00		 mov	 DWORD PTR [rax+64], 1

; 805  : 				return LEX_LONG;

  02d6c	b0 74		 mov	 al, 116			; 00000074H
  02d6e	e9 57 44 00 00	 jmp	 $LN1@token_reko

; 806  : 				break;

  02d73	e9 f0 3f 00 00	 jmp	 $LN2@token_reko
$LN64@token_reko:

; 807  : 			}
; 808  : 			break;

  02d78	e9 eb 3f 00 00	 jmp	 $LN2@token_reko
$LN65@token_reko:

; 809  : 		}
; 810  : 		case 'm':
; 811  : 		{
; 812  : 			FST::FST graph_main(string, 5,

  02d7d	48 8d 8d 88 3d
	00 00		 lea	 rcx, QWORD PTR $T361[rbp]
  02d84	e8 00 00 00 00	 call	 ??0NODE@FST@@QEAA@XZ	; FST::NODE::NODE
  02d89	48 8d 8d c0 8b
	00 00		 lea	 rcx, QWORD PTR $T878[rbp]
  02d90	48 8b f9	 mov	 rdi, rcx
  02d93	48 8b f0	 mov	 rsi, rax
  02d96	b9 10 00 00 00	 mov	 ecx, 16
  02d9b	f3 a4		 rep movsb
  02d9d	66 41 b8 04 00	 mov	 r8w, 4
  02da2	b2 6e		 mov	 dl, 110			; 0000006eH
  02da4	48 8d 8d e4 3d
	00 00		 lea	 rcx, QWORD PTR $T363[rbp]
  02dab	e8 00 00 00 00	 call	 ??0RELATION@FST@@QEAA@DF@Z ; FST::RELATION::RELATION
  02db0	44 8b 00	 mov	 r8d, DWORD PTR [rax]
  02db3	ba 01 00 00 00	 mov	 edx, 1
  02db8	48 8d 8d b8 3d
	00 00		 lea	 rcx, QWORD PTR $T362[rbp]
  02dbf	e8 00 00 00 00	 call	 ??0NODE@FST@@QEAA@FURELATION@1@ZZ ; FST::NODE::NODE
  02dc4	48 8d 8d 90 8b
	00 00		 lea	 rcx, QWORD PTR $T877[rbp]
  02dcb	48 8b f9	 mov	 rdi, rcx
  02dce	48 8b f0	 mov	 rsi, rax
  02dd1	b9 10 00 00 00	 mov	 ecx, 16
  02dd6	f3 a4		 rep movsb
  02dd8	66 41 b8 03 00	 mov	 r8w, 3
  02ddd	b2 69		 mov	 dl, 105			; 00000069H
  02ddf	48 8d 8d 34 3e
	00 00		 lea	 rcx, QWORD PTR $T365[rbp]
  02de6	e8 00 00 00 00	 call	 ??0RELATION@FST@@QEAA@DF@Z ; FST::RELATION::RELATION
  02deb	44 8b 00	 mov	 r8d, DWORD PTR [rax]
  02dee	ba 01 00 00 00	 mov	 edx, 1
  02df3	48 8d 8d 08 3e
	00 00		 lea	 rcx, QWORD PTR $T364[rbp]
  02dfa	e8 00 00 00 00	 call	 ??0NODE@FST@@QEAA@FURELATION@1@ZZ ; FST::NODE::NODE
  02dff	48 8d 8d 60 8b
	00 00		 lea	 rcx, QWORD PTR $T876[rbp]
  02e06	48 8b f9	 mov	 rdi, rcx
  02e09	48 8b f0	 mov	 rsi, rax
  02e0c	b9 10 00 00 00	 mov	 ecx, 16
  02e11	f3 a4		 rep movsb
  02e13	66 41 b8 02 00	 mov	 r8w, 2
  02e18	b2 61		 mov	 dl, 97			; 00000061H
  02e1a	48 8d 8d 84 3e
	00 00		 lea	 rcx, QWORD PTR $T367[rbp]
  02e21	e8 00 00 00 00	 call	 ??0RELATION@FST@@QEAA@DF@Z ; FST::RELATION::RELATION
  02e26	44 8b 00	 mov	 r8d, DWORD PTR [rax]
  02e29	ba 01 00 00 00	 mov	 edx, 1
  02e2e	48 8d 8d 58 3e
	00 00		 lea	 rcx, QWORD PTR $T366[rbp]
  02e35	e8 00 00 00 00	 call	 ??0NODE@FST@@QEAA@FURELATION@1@ZZ ; FST::NODE::NODE
  02e3a	48 8d 8d 30 8b
	00 00		 lea	 rcx, QWORD PTR $T875[rbp]
  02e41	48 8b f9	 mov	 rdi, rcx
  02e44	48 8b f0	 mov	 rsi, rax
  02e47	b9 10 00 00 00	 mov	 ecx, 16
  02e4c	f3 a4		 rep movsb
  02e4e	66 41 b8 01 00	 mov	 r8w, 1
  02e53	b2 6d		 mov	 dl, 109			; 0000006dH
  02e55	48 8d 8d d4 3e
	00 00		 lea	 rcx, QWORD PTR $T369[rbp]
  02e5c	e8 00 00 00 00	 call	 ??0RELATION@FST@@QEAA@DF@Z ; FST::RELATION::RELATION
  02e61	44 8b 00	 mov	 r8d, DWORD PTR [rax]
  02e64	ba 01 00 00 00	 mov	 edx, 1
  02e69	48 8d 8d a8 3e
	00 00		 lea	 rcx, QWORD PTR $T368[rbp]
  02e70	e8 00 00 00 00	 call	 ??0NODE@FST@@QEAA@FURELATION@1@ZZ ; FST::NODE::NODE
  02e75	48 8d 8d 00 8b
	00 00		 lea	 rcx, QWORD PTR $T874[rbp]
  02e7c	48 8b f9	 mov	 rdi, rcx
  02e7f	48 8b f0	 mov	 rsi, rax
  02e82	b9 10 00 00 00	 mov	 ecx, 16
  02e87	f3 a4		 rep movsb
  02e89	48 8d 85 c0 8b
	00 00		 lea	 rax, QWORD PTR $T878[rbp]
  02e90	48 89 44 24 38	 mov	 QWORD PTR [rsp+56], rax
  02e95	48 8d 85 90 8b
	00 00		 lea	 rax, QWORD PTR $T877[rbp]
  02e9c	48 89 44 24 30	 mov	 QWORD PTR [rsp+48], rax
  02ea1	48 8d 85 60 8b
	00 00		 lea	 rax, QWORD PTR $T876[rbp]
  02ea8	48 89 44 24 28	 mov	 QWORD PTR [rsp+40], rax
  02ead	48 8d 85 30 8b
	00 00		 lea	 rax, QWORD PTR $T875[rbp]
  02eb4	48 89 44 24 20	 mov	 QWORD PTR [rsp+32], rax
  02eb9	4c 8d 8d 00 8b
	00 00		 lea	 r9, QWORD PTR $T874[rbp]
  02ec0	41 b8 05 00 00
	00		 mov	 r8d, 5
  02ec6	48 8b 95 50 a4
	00 00		 mov	 rdx, QWORD PTR string$[rbp]
  02ecd	48 8d 8d a8 0d
	00 00		 lea	 rcx, QWORD PTR graph_main$99[rbp]
  02ed4	e8 00 00 00 00	 call	 ??0FST@0@QEAA@PEADFUNODE@0@ZZ ; FST::FST::FST

; 813  : 				FST::NODE(1, FST::RELATION('m', 1)),
; 814  : 				FST::NODE(1, FST::RELATION('a', 2)),
; 815  : 				FST::NODE(1, FST::RELATION('i', 3)),
; 816  : 				FST::NODE(1, FST::RELATION('n', 4)),
; 817  : 				FST::NODE());
; 818  : 			if (result = execute(graph_main)) {

  02ed9	48 8d 8d a8 0d
	00 00		 lea	 rcx, QWORD PTR graph_main$99[rbp]
  02ee0	e8 00 00 00 00	 call	 ?execute@FST@@YA_NAEAU11@@Z ; FST::execute
  02ee5	88 85 04 04 00
	00		 mov	 BYTE PTR result$[rbp], al
  02eeb	0f b6 85 04 04
	00 00		 movzx	 eax, BYTE PTR result$[rbp]
  02ef2	85 c0		 test	 eax, eax
  02ef4	74 3f		 je	 SHORT $LN66@token_reko

; 819  : 				entry->iddatatype = IT::IDDATATYPE::LONG;

  02ef6	48 8b 85 58 a4
	00 00		 mov	 rax, QWORD PTR entry$[rbp]
  02efd	c7 40 40 01 00
	00 00		 mov	 DWORD PTR [rax+64], 1

; 820  : 				entry->idtype = IT::IDTYPE::F;

  02f04	48 8b 85 58 a4
	00 00		 mov	 rax, QWORD PTR entry$[rbp]
  02f0b	c7 40 44 02 00
	00 00		 mov	 DWORD PTR [rax+68], 2

; 821  : 				main++;

  02f12	8b 05 00 00 00
	00		 mov	 eax, DWORD PTR ?main@GM@@3HA ; GM::main
  02f18	ff c0		 inc	 eax
  02f1a	89 05 00 00 00
	00		 mov	 DWORD PTR ?main@GM@@3HA, eax ; GM::main

; 822  : 				entry->value.vint = 0;

  02f20	48 8b 85 58 a4
	00 00		 mov	 rax, QWORD PTR entry$[rbp]
  02f27	c7 40 4c 00 00
	00 00		 mov	 DWORD PTR [rax+76], 0

; 823  : 				return LEX_MAIN;

  02f2e	b0 6d		 mov	 al, 109			; 0000006dH
  02f30	e9 95 42 00 00	 jmp	 $LN1@token_reko
$LN66@token_reko:

; 824  : 			}
; 825  : 			break;

  02f35	e9 2e 3e 00 00	 jmp	 $LN2@token_reko
$LN67@token_reko:

; 826  : 		}
; 827  : 		case 'o':
; 828  : 		{
; 829  : 			FST::FST graph_overflow(string, 9,

  02f3a	48 8d 8d f8 3e
	00 00		 lea	 rcx, QWORD PTR $T370[rbp]
  02f41	e8 00 00 00 00	 call	 ??0NODE@FST@@QEAA@XZ	; FST::NODE::NODE
  02f46	48 8d 8d 70 8d
	00 00		 lea	 rcx, QWORD PTR $T887[rbp]
  02f4d	48 8b f9	 mov	 rdi, rcx
  02f50	48 8b f0	 mov	 rsi, rax
  02f53	b9 10 00 00 00	 mov	 ecx, 16
  02f58	f3 a4		 rep movsb
  02f5a	66 41 b8 08 00	 mov	 r8w, 8
  02f5f	b2 77		 mov	 dl, 119			; 00000077H
  02f61	48 8d 8d 54 3f
	00 00		 lea	 rcx, QWORD PTR $T372[rbp]
  02f68	e8 00 00 00 00	 call	 ??0RELATION@FST@@QEAA@DF@Z ; FST::RELATION::RELATION
  02f6d	44 8b 00	 mov	 r8d, DWORD PTR [rax]
  02f70	ba 01 00 00 00	 mov	 edx, 1
  02f75	48 8d 8d 28 3f
	00 00		 lea	 rcx, QWORD PTR $T371[rbp]
  02f7c	e8 00 00 00 00	 call	 ??0NODE@FST@@QEAA@FURELATION@1@ZZ ; FST::NODE::NODE
  02f81	48 8d 8d 40 8d
	00 00		 lea	 rcx, QWORD PTR $T886[rbp]
  02f88	48 8b f9	 mov	 rdi, rcx
  02f8b	48 8b f0	 mov	 rsi, rax
  02f8e	b9 10 00 00 00	 mov	 ecx, 16
  02f93	f3 a4		 rep movsb
  02f95	66 41 b8 07 00	 mov	 r8w, 7
  02f9a	b2 6f		 mov	 dl, 111			; 0000006fH
  02f9c	48 8d 8d a4 3f
	00 00		 lea	 rcx, QWORD PTR $T374[rbp]
  02fa3	e8 00 00 00 00	 call	 ??0RELATION@FST@@QEAA@DF@Z ; FST::RELATION::RELATION
  02fa8	44 8b 00	 mov	 r8d, DWORD PTR [rax]
  02fab	ba 01 00 00 00	 mov	 edx, 1
  02fb0	48 8d 8d 78 3f
	00 00		 lea	 rcx, QWORD PTR $T373[rbp]
  02fb7	e8 00 00 00 00	 call	 ??0NODE@FST@@QEAA@FURELATION@1@ZZ ; FST::NODE::NODE
  02fbc	48 8d 8d 10 8d
	00 00		 lea	 rcx, QWORD PTR $T885[rbp]
  02fc3	48 8b f9	 mov	 rdi, rcx
  02fc6	48 8b f0	 mov	 rsi, rax
  02fc9	b9 10 00 00 00	 mov	 ecx, 16
  02fce	f3 a4		 rep movsb
  02fd0	66 41 b8 06 00	 mov	 r8w, 6
  02fd5	b2 6c		 mov	 dl, 108			; 0000006cH
  02fd7	48 8d 8d f4 3f
	00 00		 lea	 rcx, QWORD PTR $T376[rbp]
  02fde	e8 00 00 00 00	 call	 ??0RELATION@FST@@QEAA@DF@Z ; FST::RELATION::RELATION
  02fe3	44 8b 00	 mov	 r8d, DWORD PTR [rax]
  02fe6	ba 01 00 00 00	 mov	 edx, 1
  02feb	48 8d 8d c8 3f
	00 00		 lea	 rcx, QWORD PTR $T375[rbp]
  02ff2	e8 00 00 00 00	 call	 ??0NODE@FST@@QEAA@FURELATION@1@ZZ ; FST::NODE::NODE
  02ff7	48 8d 8d e0 8c
	00 00		 lea	 rcx, QWORD PTR $T884[rbp]
  02ffe	48 8b f9	 mov	 rdi, rcx
  03001	48 8b f0	 mov	 rsi, rax
  03004	b9 10 00 00 00	 mov	 ecx, 16
  03009	f3 a4		 rep movsb
  0300b	66 41 b8 05 00	 mov	 r8w, 5
  03010	b2 66		 mov	 dl, 102			; 00000066H
  03012	48 8d 8d 44 40
	00 00		 lea	 rcx, QWORD PTR $T378[rbp]
  03019	e8 00 00 00 00	 call	 ??0RELATION@FST@@QEAA@DF@Z ; FST::RELATION::RELATION
  0301e	44 8b 00	 mov	 r8d, DWORD PTR [rax]
  03021	ba 01 00 00 00	 mov	 edx, 1
  03026	48 8d 8d 18 40
	00 00		 lea	 rcx, QWORD PTR $T377[rbp]
  0302d	e8 00 00 00 00	 call	 ??0NODE@FST@@QEAA@FURELATION@1@ZZ ; FST::NODE::NODE
  03032	48 8d 8d b0 8c
	00 00		 lea	 rcx, QWORD PTR $T883[rbp]
  03039	48 8b f9	 mov	 rdi, rcx
  0303c	48 8b f0	 mov	 rsi, rax
  0303f	b9 10 00 00 00	 mov	 ecx, 16
  03044	f3 a4		 rep movsb
  03046	66 41 b8 04 00	 mov	 r8w, 4
  0304b	b2 72		 mov	 dl, 114			; 00000072H
  0304d	48 8d 8d 94 40
	00 00		 lea	 rcx, QWORD PTR $T380[rbp]
  03054	e8 00 00 00 00	 call	 ??0RELATION@FST@@QEAA@DF@Z ; FST::RELATION::RELATION
  03059	44 8b 00	 mov	 r8d, DWORD PTR [rax]
  0305c	ba 01 00 00 00	 mov	 edx, 1
  03061	48 8d 8d 68 40
	00 00		 lea	 rcx, QWORD PTR $T379[rbp]
  03068	e8 00 00 00 00	 call	 ??0NODE@FST@@QEAA@FURELATION@1@ZZ ; FST::NODE::NODE
  0306d	48 8d 8d 80 8c
	00 00		 lea	 rcx, QWORD PTR $T882[rbp]
  03074	48 8b f9	 mov	 rdi, rcx
  03077	48 8b f0	 mov	 rsi, rax
  0307a	b9 10 00 00 00	 mov	 ecx, 16
  0307f	f3 a4		 rep movsb
  03081	66 41 b8 03 00	 mov	 r8w, 3
  03086	b2 65		 mov	 dl, 101			; 00000065H
  03088	48 8d 8d e4 40
	00 00		 lea	 rcx, QWORD PTR $T382[rbp]
  0308f	e8 00 00 00 00	 call	 ??0RELATION@FST@@QEAA@DF@Z ; FST::RELATION::RELATION
  03094	44 8b 00	 mov	 r8d, DWORD PTR [rax]
  03097	ba 01 00 00 00	 mov	 edx, 1
  0309c	48 8d 8d b8 40
	00 00		 lea	 rcx, QWORD PTR $T381[rbp]
  030a3	e8 00 00 00 00	 call	 ??0NODE@FST@@QEAA@FURELATION@1@ZZ ; FST::NODE::NODE
  030a8	48 8d 8d 50 8c
	00 00		 lea	 rcx, QWORD PTR $T881[rbp]
  030af	48 8b f9	 mov	 rdi, rcx
  030b2	48 8b f0	 mov	 rsi, rax
  030b5	b9 10 00 00 00	 mov	 ecx, 16
  030ba	f3 a4		 rep movsb
  030bc	66 41 b8 02 00	 mov	 r8w, 2
  030c1	b2 76		 mov	 dl, 118			; 00000076H
  030c3	48 8d 8d 34 41
	00 00		 lea	 rcx, QWORD PTR $T384[rbp]
  030ca	e8 00 00 00 00	 call	 ??0RELATION@FST@@QEAA@DF@Z ; FST::RELATION::RELATION
  030cf	44 8b 00	 mov	 r8d, DWORD PTR [rax]
  030d2	ba 01 00 00 00	 mov	 edx, 1
  030d7	48 8d 8d 08 41
	00 00		 lea	 rcx, QWORD PTR $T383[rbp]
  030de	e8 00 00 00 00	 call	 ??0NODE@FST@@QEAA@FURELATION@1@ZZ ; FST::NODE::NODE
  030e3	48 8d 8d 20 8c
	00 00		 lea	 rcx, QWORD PTR $T880[rbp]
  030ea	48 8b f9	 mov	 rdi, rcx
  030ed	48 8b f0	 mov	 rsi, rax
  030f0	b9 10 00 00 00	 mov	 ecx, 16
  030f5	f3 a4		 rep movsb
  030f7	66 41 b8 01 00	 mov	 r8w, 1
  030fc	b2 6f		 mov	 dl, 111			; 0000006fH
  030fe	48 8d 8d 84 41
	00 00		 lea	 rcx, QWORD PTR $T386[rbp]
  03105	e8 00 00 00 00	 call	 ??0RELATION@FST@@QEAA@DF@Z ; FST::RELATION::RELATION
  0310a	44 8b 00	 mov	 r8d, DWORD PTR [rax]
  0310d	ba 01 00 00 00	 mov	 edx, 1
  03112	48 8d 8d 58 41
	00 00		 lea	 rcx, QWORD PTR $T385[rbp]
  03119	e8 00 00 00 00	 call	 ??0NODE@FST@@QEAA@FURELATION@1@ZZ ; FST::NODE::NODE
  0311e	48 8d 8d f0 8b
	00 00		 lea	 rcx, QWORD PTR $T879[rbp]
  03125	48 8b f9	 mov	 rdi, rcx
  03128	48 8b f0	 mov	 rsi, rax
  0312b	b9 10 00 00 00	 mov	 ecx, 16
  03130	f3 a4		 rep movsb
  03132	48 8d 85 70 8d
	00 00		 lea	 rax, QWORD PTR $T887[rbp]
  03139	48 89 44 24 58	 mov	 QWORD PTR [rsp+88], rax
  0313e	48 8d 85 40 8d
	00 00		 lea	 rax, QWORD PTR $T886[rbp]
  03145	48 89 44 24 50	 mov	 QWORD PTR [rsp+80], rax
  0314a	48 8d 85 10 8d
	00 00		 lea	 rax, QWORD PTR $T885[rbp]
  03151	48 89 44 24 48	 mov	 QWORD PTR [rsp+72], rax
  03156	48 8d 85 e0 8c
	00 00		 lea	 rax, QWORD PTR $T884[rbp]
  0315d	48 89 44 24 40	 mov	 QWORD PTR [rsp+64], rax
  03162	48 8d 85 b0 8c
	00 00		 lea	 rax, QWORD PTR $T883[rbp]
  03169	48 89 44 24 38	 mov	 QWORD PTR [rsp+56], rax
  0316e	48 8d 85 80 8c
	00 00		 lea	 rax, QWORD PTR $T882[rbp]
  03175	48 89 44 24 30	 mov	 QWORD PTR [rsp+48], rax
  0317a	48 8d 85 50 8c
	00 00		 lea	 rax, QWORD PTR $T881[rbp]
  03181	48 89 44 24 28	 mov	 QWORD PTR [rsp+40], rax
  03186	48 8d 85 20 8c
	00 00		 lea	 rax, QWORD PTR $T880[rbp]
  0318d	48 89 44 24 20	 mov	 QWORD PTR [rsp+32], rax
  03192	4c 8d 8d f0 8b
	00 00		 lea	 r9, QWORD PTR $T879[rbp]
  03199	41 b8 09 00 00
	00		 mov	 r8d, 9
  0319f	48 8b 95 50 a4
	00 00		 mov	 rdx, QWORD PTR string$[rbp]
  031a6	48 8d 8d e8 0d
	00 00		 lea	 rcx, QWORD PTR graph_overflow$100[rbp]
  031ad	e8 00 00 00 00	 call	 ??0FST@0@QEAA@PEADFUNODE@0@ZZ ; FST::FST::FST

; 830  : 				FST::NODE(1, FST::RELATION('o', 1)),
; 831  : 				FST::NODE(1, FST::RELATION('v', 2)),
; 832  : 				FST::NODE(1, FST::RELATION('e', 3)),
; 833  : 				FST::NODE(1, FST::RELATION('r', 4)),
; 834  : 				FST::NODE(1, FST::RELATION('f', 5)),
; 835  : 				FST::NODE(1, FST::RELATION('l', 6)),
; 836  : 				FST::NODE(1, FST::RELATION('o', 7)),
; 837  : 				FST::NODE(1, FST::RELATION('w', 8)),
; 838  : 				FST::NODE());
; 839  : 			if (result = execute(graph_overflow)) {

  031b2	48 8d 8d e8 0d
	00 00		 lea	 rcx, QWORD PTR graph_overflow$100[rbp]
  031b9	e8 00 00 00 00	 call	 ?execute@FST@@YA_NAEAU11@@Z ; FST::execute
  031be	88 85 04 04 00
	00		 mov	 BYTE PTR result$[rbp], al
  031c4	0f b6 85 04 04
	00 00		 movzx	 eax, BYTE PTR result$[rbp]
  031cb	85 c0		 test	 eax, eax
  031cd	74 0c		 je	 SHORT $LN68@token_reko

; 840  : 				return LEX_OVERFLOW;

  031cf	b0 6f		 mov	 al, 111			; 0000006fH
  031d1	e9 f4 3f 00 00	 jmp	 $LN1@token_reko

; 841  : 				break;

  031d6	e9 8d 3b 00 00	 jmp	 $LN2@token_reko
$LN68@token_reko:

; 842  : 			}
; 843  : 			break;

  031db	e9 88 3b 00 00	 jmp	 $LN2@token_reko
$LN69@token_reko:

; 844  : 		}
; 845  : 		case 'r':
; 846  : 		{
; 847  : 			FST::FST graph_random(string, 7,

  031e0	48 8d 8d a8 41
	00 00		 lea	 rcx, QWORD PTR $T387[rbp]
  031e7	e8 00 00 00 00	 call	 ??0NODE@FST@@QEAA@XZ	; FST::NODE::NODE
  031ec	48 8d 8d c0 8e
	00 00		 lea	 rcx, QWORD PTR $T894[rbp]
  031f3	48 8b f9	 mov	 rdi, rcx
  031f6	48 8b f0	 mov	 rsi, rax
  031f9	b9 10 00 00 00	 mov	 ecx, 16
  031fe	f3 a4		 rep movsb
  03200	66 41 b8 06 00	 mov	 r8w, 6
  03205	b2 6d		 mov	 dl, 109			; 0000006dH
  03207	48 8d 8d 04 42
	00 00		 lea	 rcx, QWORD PTR $T389[rbp]
  0320e	e8 00 00 00 00	 call	 ??0RELATION@FST@@QEAA@DF@Z ; FST::RELATION::RELATION
  03213	44 8b 00	 mov	 r8d, DWORD PTR [rax]
  03216	ba 01 00 00 00	 mov	 edx, 1
  0321b	48 8d 8d d8 41
	00 00		 lea	 rcx, QWORD PTR $T388[rbp]
  03222	e8 00 00 00 00	 call	 ??0NODE@FST@@QEAA@FURELATION@1@ZZ ; FST::NODE::NODE
  03227	48 8d 8d 90 8e
	00 00		 lea	 rcx, QWORD PTR $T893[rbp]
  0322e	48 8b f9	 mov	 rdi, rcx
  03231	48 8b f0	 mov	 rsi, rax
  03234	b9 10 00 00 00	 mov	 ecx, 16
  03239	f3 a4		 rep movsb
  0323b	66 41 b8 05 00	 mov	 r8w, 5
  03240	b2 6f		 mov	 dl, 111			; 0000006fH
  03242	48 8d 8d 54 42
	00 00		 lea	 rcx, QWORD PTR $T391[rbp]
  03249	e8 00 00 00 00	 call	 ??0RELATION@FST@@QEAA@DF@Z ; FST::RELATION::RELATION
  0324e	44 8b 00	 mov	 r8d, DWORD PTR [rax]
  03251	ba 01 00 00 00	 mov	 edx, 1
  03256	48 8d 8d 28 42
	00 00		 lea	 rcx, QWORD PTR $T390[rbp]
  0325d	e8 00 00 00 00	 call	 ??0NODE@FST@@QEAA@FURELATION@1@ZZ ; FST::NODE::NODE
  03262	48 8d 8d 60 8e
	00 00		 lea	 rcx, QWORD PTR $T892[rbp]
  03269	48 8b f9	 mov	 rdi, rcx
  0326c	48 8b f0	 mov	 rsi, rax
  0326f	b9 10 00 00 00	 mov	 ecx, 16
  03274	f3 a4		 rep movsb
  03276	66 41 b8 04 00	 mov	 r8w, 4
  0327b	b2 64		 mov	 dl, 100			; 00000064H
  0327d	48 8d 8d a4 42
	00 00		 lea	 rcx, QWORD PTR $T393[rbp]
  03284	e8 00 00 00 00	 call	 ??0RELATION@FST@@QEAA@DF@Z ; FST::RELATION::RELATION
  03289	44 8b 00	 mov	 r8d, DWORD PTR [rax]
  0328c	ba 01 00 00 00	 mov	 edx, 1
  03291	48 8d 8d 78 42
	00 00		 lea	 rcx, QWORD PTR $T392[rbp]
  03298	e8 00 00 00 00	 call	 ??0NODE@FST@@QEAA@FURELATION@1@ZZ ; FST::NODE::NODE
  0329d	48 8d 8d 30 8e
	00 00		 lea	 rcx, QWORD PTR $T891[rbp]
  032a4	48 8b f9	 mov	 rdi, rcx
  032a7	48 8b f0	 mov	 rsi, rax
  032aa	b9 10 00 00 00	 mov	 ecx, 16
  032af	f3 a4		 rep movsb
  032b1	66 41 b8 03 00	 mov	 r8w, 3
  032b6	b2 6e		 mov	 dl, 110			; 0000006eH
  032b8	48 8d 8d f4 42
	00 00		 lea	 rcx, QWORD PTR $T395[rbp]
  032bf	e8 00 00 00 00	 call	 ??0RELATION@FST@@QEAA@DF@Z ; FST::RELATION::RELATION
  032c4	44 8b 00	 mov	 r8d, DWORD PTR [rax]
  032c7	ba 01 00 00 00	 mov	 edx, 1
  032cc	48 8d 8d c8 42
	00 00		 lea	 rcx, QWORD PTR $T394[rbp]
  032d3	e8 00 00 00 00	 call	 ??0NODE@FST@@QEAA@FURELATION@1@ZZ ; FST::NODE::NODE
  032d8	48 8d 8d 00 8e
	00 00		 lea	 rcx, QWORD PTR $T890[rbp]
  032df	48 8b f9	 mov	 rdi, rcx
  032e2	48 8b f0	 mov	 rsi, rax
  032e5	b9 10 00 00 00	 mov	 ecx, 16
  032ea	f3 a4		 rep movsb
  032ec	66 41 b8 02 00	 mov	 r8w, 2
  032f1	b2 61		 mov	 dl, 97			; 00000061H
  032f3	48 8d 8d 44 43
	00 00		 lea	 rcx, QWORD PTR $T397[rbp]
  032fa	e8 00 00 00 00	 call	 ??0RELATION@FST@@QEAA@DF@Z ; FST::RELATION::RELATION
  032ff	44 8b 00	 mov	 r8d, DWORD PTR [rax]
  03302	ba 01 00 00 00	 mov	 edx, 1
  03307	48 8d 8d 18 43
	00 00		 lea	 rcx, QWORD PTR $T396[rbp]
  0330e	e8 00 00 00 00	 call	 ??0NODE@FST@@QEAA@FURELATION@1@ZZ ; FST::NODE::NODE
  03313	48 8d 8d d0 8d
	00 00		 lea	 rcx, QWORD PTR $T889[rbp]
  0331a	48 8b f9	 mov	 rdi, rcx
  0331d	48 8b f0	 mov	 rsi, rax
  03320	b9 10 00 00 00	 mov	 ecx, 16
  03325	f3 a4		 rep movsb
  03327	66 41 b8 01 00	 mov	 r8w, 1
  0332c	b2 72		 mov	 dl, 114			; 00000072H
  0332e	48 8d 8d 94 43
	00 00		 lea	 rcx, QWORD PTR $T399[rbp]
  03335	e8 00 00 00 00	 call	 ??0RELATION@FST@@QEAA@DF@Z ; FST::RELATION::RELATION
  0333a	44 8b 00	 mov	 r8d, DWORD PTR [rax]
  0333d	ba 01 00 00 00	 mov	 edx, 1
  03342	48 8d 8d 68 43
	00 00		 lea	 rcx, QWORD PTR $T398[rbp]
  03349	e8 00 00 00 00	 call	 ??0NODE@FST@@QEAA@FURELATION@1@ZZ ; FST::NODE::NODE
  0334e	48 8d 8d a0 8d
	00 00		 lea	 rcx, QWORD PTR $T888[rbp]
  03355	48 8b f9	 mov	 rdi, rcx
  03358	48 8b f0	 mov	 rsi, rax
  0335b	b9 10 00 00 00	 mov	 ecx, 16
  03360	f3 a4		 rep movsb
  03362	48 8d 85 c0 8e
	00 00		 lea	 rax, QWORD PTR $T894[rbp]
  03369	48 89 44 24 48	 mov	 QWORD PTR [rsp+72], rax
  0336e	48 8d 85 90 8e
	00 00		 lea	 rax, QWORD PTR $T893[rbp]
  03375	48 89 44 24 40	 mov	 QWORD PTR [rsp+64], rax
  0337a	48 8d 85 60 8e
	00 00		 lea	 rax, QWORD PTR $T892[rbp]
  03381	48 89 44 24 38	 mov	 QWORD PTR [rsp+56], rax
  03386	48 8d 85 30 8e
	00 00		 lea	 rax, QWORD PTR $T891[rbp]
  0338d	48 89 44 24 30	 mov	 QWORD PTR [rsp+48], rax
  03392	48 8d 85 00 8e
	00 00		 lea	 rax, QWORD PTR $T890[rbp]
  03399	48 89 44 24 28	 mov	 QWORD PTR [rsp+40], rax
  0339e	48 8d 85 d0 8d
	00 00		 lea	 rax, QWORD PTR $T889[rbp]
  033a5	48 89 44 24 20	 mov	 QWORD PTR [rsp+32], rax
  033aa	4c 8d 8d a0 8d
	00 00		 lea	 r9, QWORD PTR $T888[rbp]
  033b1	41 b8 07 00 00
	00		 mov	 r8d, 7
  033b7	48 8b 95 50 a4
	00 00		 mov	 rdx, QWORD PTR string$[rbp]
  033be	48 8d 8d 28 0e
	00 00		 lea	 rcx, QWORD PTR graph_random$101[rbp]
  033c5	e8 00 00 00 00	 call	 ??0FST@0@QEAA@PEADFUNODE@0@ZZ ; FST::FST::FST

; 848  : 				FST::NODE(1, FST::RELATION('r', 1)),
; 849  : 				FST::NODE(1, FST::RELATION('a', 2)),
; 850  : 				FST::NODE(1, FST::RELATION('n', 3)),
; 851  : 				FST::NODE(1, FST::RELATION('d', 4)),
; 852  : 				FST::NODE(1, FST::RELATION('o', 5)),
; 853  : 				FST::NODE(1, FST::RELATION('m', 6)),
; 854  : 				FST::NODE());
; 855  : 			if (result = execute(graph_random)) {

  033ca	48 8d 8d 28 0e
	00 00		 lea	 rcx, QWORD PTR graph_random$101[rbp]
  033d1	e8 00 00 00 00	 call	 ?execute@FST@@YA_NAEAU11@@Z ; FST::execute
  033d6	88 85 04 04 00
	00		 mov	 BYTE PTR result$[rbp], al
  033dc	0f b6 85 04 04
	00 00		 movzx	 eax, BYTE PTR result$[rbp]
  033e3	85 c0		 test	 eax, eax
  033e5	74 36		 je	 SHORT $LN70@token_reko

; 856  : 				entry->idtype = IT::IDTYPE::E;

  033e7	48 8b 85 58 a4
	00 00		 mov	 rax, QWORD PTR entry$[rbp]
  033ee	c7 40 44 06 00
	00 00		 mov	 DWORD PTR [rax+68], 6

; 857  : 				entry->iddatatype = IT::IDDATATYPE::LONG;

  033f5	48 8b 85 58 a4
	00 00		 mov	 rax, QWORD PTR entry$[rbp]
  033fc	c7 40 40 01 00
	00 00		 mov	 DWORD PTR [rax+64], 1

; 858  : 				entry->value.vint = 2;

  03403	48 8b 85 58 a4
	00 00		 mov	 rax, QWORD PTR entry$[rbp]
  0340a	c7 40 4c 02 00
	00 00		 mov	 DWORD PTR [rax+76], 2

; 859  : 				return LEX_ID;

  03411	b0 69		 mov	 al, 105			; 00000069H
  03413	e9 b2 3d 00 00	 jmp	 $LN1@token_reko

; 860  : 				break;

  03418	e9 4b 39 00 00	 jmp	 $LN2@token_reko
$LN70@token_reko:

; 861  : 			}
; 862  : 			FST::FST graph_return(string, 7,

  0341d	48 8d 8d b8 43
	00 00		 lea	 rcx, QWORD PTR $T400[rbp]
  03424	e8 00 00 00 00	 call	 ??0NODE@FST@@QEAA@XZ	; FST::NODE::NODE
  03429	48 8d 8d 10 90
	00 00		 lea	 rcx, QWORD PTR $T901[rbp]
  03430	48 8b f9	 mov	 rdi, rcx
  03433	48 8b f0	 mov	 rsi, rax
  03436	b9 10 00 00 00	 mov	 ecx, 16
  0343b	f3 a4		 rep movsb
  0343d	66 41 b8 06 00	 mov	 r8w, 6
  03442	b2 6e		 mov	 dl, 110			; 0000006eH
  03444	48 8d 8d 14 44
	00 00		 lea	 rcx, QWORD PTR $T402[rbp]
  0344b	e8 00 00 00 00	 call	 ??0RELATION@FST@@QEAA@DF@Z ; FST::RELATION::RELATION
  03450	44 8b 00	 mov	 r8d, DWORD PTR [rax]
  03453	ba 01 00 00 00	 mov	 edx, 1
  03458	48 8d 8d e8 43
	00 00		 lea	 rcx, QWORD PTR $T401[rbp]
  0345f	e8 00 00 00 00	 call	 ??0NODE@FST@@QEAA@FURELATION@1@ZZ ; FST::NODE::NODE
  03464	48 8d 8d e0 8f
	00 00		 lea	 rcx, QWORD PTR $T900[rbp]
  0346b	48 8b f9	 mov	 rdi, rcx
  0346e	48 8b f0	 mov	 rsi, rax
  03471	b9 10 00 00 00	 mov	 ecx, 16
  03476	f3 a4		 rep movsb
  03478	66 41 b8 05 00	 mov	 r8w, 5
  0347d	b2 72		 mov	 dl, 114			; 00000072H
  0347f	48 8d 8d 64 44
	00 00		 lea	 rcx, QWORD PTR $T404[rbp]
  03486	e8 00 00 00 00	 call	 ??0RELATION@FST@@QEAA@DF@Z ; FST::RELATION::RELATION
  0348b	44 8b 00	 mov	 r8d, DWORD PTR [rax]
  0348e	ba 01 00 00 00	 mov	 edx, 1
  03493	48 8d 8d 38 44
	00 00		 lea	 rcx, QWORD PTR $T403[rbp]
  0349a	e8 00 00 00 00	 call	 ??0NODE@FST@@QEAA@FURELATION@1@ZZ ; FST::NODE::NODE
  0349f	48 8d 8d b0 8f
	00 00		 lea	 rcx, QWORD PTR $T899[rbp]
  034a6	48 8b f9	 mov	 rdi, rcx
  034a9	48 8b f0	 mov	 rsi, rax
  034ac	b9 10 00 00 00	 mov	 ecx, 16
  034b1	f3 a4		 rep movsb
  034b3	66 41 b8 04 00	 mov	 r8w, 4
  034b8	b2 75		 mov	 dl, 117			; 00000075H
  034ba	48 8d 8d b4 44
	00 00		 lea	 rcx, QWORD PTR $T406[rbp]
  034c1	e8 00 00 00 00	 call	 ??0RELATION@FST@@QEAA@DF@Z ; FST::RELATION::RELATION
  034c6	44 8b 00	 mov	 r8d, DWORD PTR [rax]
  034c9	ba 01 00 00 00	 mov	 edx, 1
  034ce	48 8d 8d 88 44
	00 00		 lea	 rcx, QWORD PTR $T405[rbp]
  034d5	e8 00 00 00 00	 call	 ??0NODE@FST@@QEAA@FURELATION@1@ZZ ; FST::NODE::NODE
  034da	48 8d 8d 80 8f
	00 00		 lea	 rcx, QWORD PTR $T898[rbp]
  034e1	48 8b f9	 mov	 rdi, rcx
  034e4	48 8b f0	 mov	 rsi, rax
  034e7	b9 10 00 00 00	 mov	 ecx, 16
  034ec	f3 a4		 rep movsb
  034ee	66 41 b8 03 00	 mov	 r8w, 3
  034f3	b2 74		 mov	 dl, 116			; 00000074H
  034f5	48 8d 8d 04 45
	00 00		 lea	 rcx, QWORD PTR $T408[rbp]
  034fc	e8 00 00 00 00	 call	 ??0RELATION@FST@@QEAA@DF@Z ; FST::RELATION::RELATION
  03501	44 8b 00	 mov	 r8d, DWORD PTR [rax]
  03504	ba 01 00 00 00	 mov	 edx, 1
  03509	48 8d 8d d8 44
	00 00		 lea	 rcx, QWORD PTR $T407[rbp]
  03510	e8 00 00 00 00	 call	 ??0NODE@FST@@QEAA@FURELATION@1@ZZ ; FST::NODE::NODE
  03515	48 8d 8d 50 8f
	00 00		 lea	 rcx, QWORD PTR $T897[rbp]
  0351c	48 8b f9	 mov	 rdi, rcx
  0351f	48 8b f0	 mov	 rsi, rax
  03522	b9 10 00 00 00	 mov	 ecx, 16
  03527	f3 a4		 rep movsb
  03529	66 41 b8 02 00	 mov	 r8w, 2
  0352e	b2 65		 mov	 dl, 101			; 00000065H
  03530	48 8d 8d 54 45
	00 00		 lea	 rcx, QWORD PTR $T410[rbp]
  03537	e8 00 00 00 00	 call	 ??0RELATION@FST@@QEAA@DF@Z ; FST::RELATION::RELATION
  0353c	44 8b 00	 mov	 r8d, DWORD PTR [rax]
  0353f	ba 01 00 00 00	 mov	 edx, 1
  03544	48 8d 8d 28 45
	00 00		 lea	 rcx, QWORD PTR $T409[rbp]
  0354b	e8 00 00 00 00	 call	 ??0NODE@FST@@QEAA@FURELATION@1@ZZ ; FST::NODE::NODE
  03550	48 8d 8d 20 8f
	00 00		 lea	 rcx, QWORD PTR $T896[rbp]
  03557	48 8b f9	 mov	 rdi, rcx
  0355a	48 8b f0	 mov	 rsi, rax
  0355d	b9 10 00 00 00	 mov	 ecx, 16
  03562	f3 a4		 rep movsb
  03564	66 41 b8 01 00	 mov	 r8w, 1
  03569	b2 72		 mov	 dl, 114			; 00000072H
  0356b	48 8d 8d a4 45
	00 00		 lea	 rcx, QWORD PTR $T412[rbp]
  03572	e8 00 00 00 00	 call	 ??0RELATION@FST@@QEAA@DF@Z ; FST::RELATION::RELATION
  03577	44 8b 00	 mov	 r8d, DWORD PTR [rax]
  0357a	ba 01 00 00 00	 mov	 edx, 1
  0357f	48 8d 8d 78 45
	00 00		 lea	 rcx, QWORD PTR $T411[rbp]
  03586	e8 00 00 00 00	 call	 ??0NODE@FST@@QEAA@FURELATION@1@ZZ ; FST::NODE::NODE
  0358b	48 8d 8d f0 8e
	00 00		 lea	 rcx, QWORD PTR $T895[rbp]
  03592	48 8b f9	 mov	 rdi, rcx
  03595	48 8b f0	 mov	 rsi, rax
  03598	b9 10 00 00 00	 mov	 ecx, 16
  0359d	f3 a4		 rep movsb
  0359f	48 8d 85 10 90
	00 00		 lea	 rax, QWORD PTR $T901[rbp]
  035a6	48 89 44 24 48	 mov	 QWORD PTR [rsp+72], rax
  035ab	48 8d 85 e0 8f
	00 00		 lea	 rax, QWORD PTR $T900[rbp]
  035b2	48 89 44 24 40	 mov	 QWORD PTR [rsp+64], rax
  035b7	48 8d 85 b0 8f
	00 00		 lea	 rax, QWORD PTR $T899[rbp]
  035be	48 89 44 24 38	 mov	 QWORD PTR [rsp+56], rax
  035c3	48 8d 85 80 8f
	00 00		 lea	 rax, QWORD PTR $T898[rbp]
  035ca	48 89 44 24 30	 mov	 QWORD PTR [rsp+48], rax
  035cf	48 8d 85 50 8f
	00 00		 lea	 rax, QWORD PTR $T897[rbp]
  035d6	48 89 44 24 28	 mov	 QWORD PTR [rsp+40], rax
  035db	48 8d 85 20 8f
	00 00		 lea	 rax, QWORD PTR $T896[rbp]
  035e2	48 89 44 24 20	 mov	 QWORD PTR [rsp+32], rax
  035e7	4c 8d 8d f0 8e
	00 00		 lea	 r9, QWORD PTR $T895[rbp]
  035ee	41 b8 07 00 00
	00		 mov	 r8d, 7
  035f4	48 8b 95 50 a4
	00 00		 mov	 rdx, QWORD PTR string$[rbp]
  035fb	48 8d 8d 68 0e
	00 00		 lea	 rcx, QWORD PTR graph_return$102[rbp]
  03602	e8 00 00 00 00	 call	 ??0FST@0@QEAA@PEADFUNODE@0@ZZ ; FST::FST::FST

; 863  : 				FST::NODE(1, FST::RELATION('r', 1)),
; 864  : 				FST::NODE(1, FST::RELATION('e', 2)),
; 865  : 				FST::NODE(1, FST::RELATION('t', 3)),
; 866  : 				FST::NODE(1, FST::RELATION('u', 4)),
; 867  : 				FST::NODE(1, FST::RELATION('r', 5)),
; 868  : 				FST::NODE(1, FST::RELATION('n', 6)),
; 869  : 				FST::NODE());
; 870  : 			if (result = execute(graph_return)) {

  03607	48 8d 8d 68 0e
	00 00		 lea	 rcx, QWORD PTR graph_return$102[rbp]
  0360e	e8 00 00 00 00	 call	 ?execute@FST@@YA_NAEAU11@@Z ; FST::execute
  03613	88 85 04 04 00
	00		 mov	 BYTE PTR result$[rbp], al
  03619	0f b6 85 04 04
	00 00		 movzx	 eax, BYTE PTR result$[rbp]
  03620	85 c0		 test	 eax, eax
  03622	74 0c		 je	 SHORT $LN71@token_reko

; 871  : 				return LEX_RETURN;

  03624	b0 72		 mov	 al, 114			; 00000072H
  03626	e9 9f 3b 00 00	 jmp	 $LN1@token_reko

; 872  : 				break;

  0362b	e9 38 37 00 00	 jmp	 $LN2@token_reko
$LN71@token_reko:

; 873  : 			}
; 874  : 			FST::FST graph_repeat(string, 7,

  03630	48 8d 8d c8 45
	00 00		 lea	 rcx, QWORD PTR $T413[rbp]
  03637	e8 00 00 00 00	 call	 ??0NODE@FST@@QEAA@XZ	; FST::NODE::NODE
  0363c	48 8d 8d 60 91
	00 00		 lea	 rcx, QWORD PTR $T908[rbp]
  03643	48 8b f9	 mov	 rdi, rcx
  03646	48 8b f0	 mov	 rsi, rax
  03649	b9 10 00 00 00	 mov	 ecx, 16
  0364e	f3 a4		 rep movsb
  03650	66 41 b8 06 00	 mov	 r8w, 6
  03655	b2 74		 mov	 dl, 116			; 00000074H
  03657	48 8d 8d 24 46
	00 00		 lea	 rcx, QWORD PTR $T415[rbp]
  0365e	e8 00 00 00 00	 call	 ??0RELATION@FST@@QEAA@DF@Z ; FST::RELATION::RELATION
  03663	44 8b 00	 mov	 r8d, DWORD PTR [rax]
  03666	ba 01 00 00 00	 mov	 edx, 1
  0366b	48 8d 8d f8 45
	00 00		 lea	 rcx, QWORD PTR $T414[rbp]
  03672	e8 00 00 00 00	 call	 ??0NODE@FST@@QEAA@FURELATION@1@ZZ ; FST::NODE::NODE
  03677	48 8d 8d 30 91
	00 00		 lea	 rcx, QWORD PTR $T907[rbp]
  0367e	48 8b f9	 mov	 rdi, rcx
  03681	48 8b f0	 mov	 rsi, rax
  03684	b9 10 00 00 00	 mov	 ecx, 16
  03689	f3 a4		 rep movsb
  0368b	66 41 b8 05 00	 mov	 r8w, 5
  03690	b2 61		 mov	 dl, 97			; 00000061H
  03692	48 8d 8d 74 46
	00 00		 lea	 rcx, QWORD PTR $T417[rbp]
  03699	e8 00 00 00 00	 call	 ??0RELATION@FST@@QEAA@DF@Z ; FST::RELATION::RELATION
  0369e	44 8b 00	 mov	 r8d, DWORD PTR [rax]
  036a1	ba 01 00 00 00	 mov	 edx, 1
  036a6	48 8d 8d 48 46
	00 00		 lea	 rcx, QWORD PTR $T416[rbp]
  036ad	e8 00 00 00 00	 call	 ??0NODE@FST@@QEAA@FURELATION@1@ZZ ; FST::NODE::NODE
  036b2	48 8d 8d 00 91
	00 00		 lea	 rcx, QWORD PTR $T906[rbp]
  036b9	48 8b f9	 mov	 rdi, rcx
  036bc	48 8b f0	 mov	 rsi, rax
  036bf	b9 10 00 00 00	 mov	 ecx, 16
  036c4	f3 a4		 rep movsb
  036c6	66 41 b8 04 00	 mov	 r8w, 4
  036cb	b2 65		 mov	 dl, 101			; 00000065H
  036cd	48 8d 8d c4 46
	00 00		 lea	 rcx, QWORD PTR $T419[rbp]
  036d4	e8 00 00 00 00	 call	 ??0RELATION@FST@@QEAA@DF@Z ; FST::RELATION::RELATION
  036d9	44 8b 00	 mov	 r8d, DWORD PTR [rax]
  036dc	ba 01 00 00 00	 mov	 edx, 1
  036e1	48 8d 8d 98 46
	00 00		 lea	 rcx, QWORD PTR $T418[rbp]
  036e8	e8 00 00 00 00	 call	 ??0NODE@FST@@QEAA@FURELATION@1@ZZ ; FST::NODE::NODE
  036ed	48 8d 8d d0 90
	00 00		 lea	 rcx, QWORD PTR $T905[rbp]
  036f4	48 8b f9	 mov	 rdi, rcx
  036f7	48 8b f0	 mov	 rsi, rax
  036fa	b9 10 00 00 00	 mov	 ecx, 16
  036ff	f3 a4		 rep movsb
  03701	66 41 b8 03 00	 mov	 r8w, 3
  03706	b2 70		 mov	 dl, 112			; 00000070H
  03708	48 8d 8d 14 47
	00 00		 lea	 rcx, QWORD PTR $T421[rbp]
  0370f	e8 00 00 00 00	 call	 ??0RELATION@FST@@QEAA@DF@Z ; FST::RELATION::RELATION
  03714	44 8b 00	 mov	 r8d, DWORD PTR [rax]
  03717	ba 01 00 00 00	 mov	 edx, 1
  0371c	48 8d 8d e8 46
	00 00		 lea	 rcx, QWORD PTR $T420[rbp]
  03723	e8 00 00 00 00	 call	 ??0NODE@FST@@QEAA@FURELATION@1@ZZ ; FST::NODE::NODE
  03728	48 8d 8d a0 90
	00 00		 lea	 rcx, QWORD PTR $T904[rbp]
  0372f	48 8b f9	 mov	 rdi, rcx
  03732	48 8b f0	 mov	 rsi, rax
  03735	b9 10 00 00 00	 mov	 ecx, 16
  0373a	f3 a4		 rep movsb
  0373c	66 41 b8 02 00	 mov	 r8w, 2
  03741	b2 65		 mov	 dl, 101			; 00000065H
  03743	48 8d 8d 64 47
	00 00		 lea	 rcx, QWORD PTR $T423[rbp]
  0374a	e8 00 00 00 00	 call	 ??0RELATION@FST@@QEAA@DF@Z ; FST::RELATION::RELATION
  0374f	44 8b 00	 mov	 r8d, DWORD PTR [rax]
  03752	ba 01 00 00 00	 mov	 edx, 1
  03757	48 8d 8d 38 47
	00 00		 lea	 rcx, QWORD PTR $T422[rbp]
  0375e	e8 00 00 00 00	 call	 ??0NODE@FST@@QEAA@FURELATION@1@ZZ ; FST::NODE::NODE
  03763	48 8d 8d 70 90
	00 00		 lea	 rcx, QWORD PTR $T903[rbp]
  0376a	48 8b f9	 mov	 rdi, rcx
  0376d	48 8b f0	 mov	 rsi, rax
  03770	b9 10 00 00 00	 mov	 ecx, 16
  03775	f3 a4		 rep movsb
  03777	66 41 b8 01 00	 mov	 r8w, 1
  0377c	b2 72		 mov	 dl, 114			; 00000072H
  0377e	48 8d 8d b4 47
	00 00		 lea	 rcx, QWORD PTR $T425[rbp]
  03785	e8 00 00 00 00	 call	 ??0RELATION@FST@@QEAA@DF@Z ; FST::RELATION::RELATION
  0378a	44 8b 00	 mov	 r8d, DWORD PTR [rax]
  0378d	ba 01 00 00 00	 mov	 edx, 1
  03792	48 8d 8d 88 47
	00 00		 lea	 rcx, QWORD PTR $T424[rbp]
  03799	e8 00 00 00 00	 call	 ??0NODE@FST@@QEAA@FURELATION@1@ZZ ; FST::NODE::NODE
  0379e	48 8d 8d 40 90
	00 00		 lea	 rcx, QWORD PTR $T902[rbp]
  037a5	48 8b f9	 mov	 rdi, rcx
  037a8	48 8b f0	 mov	 rsi, rax
  037ab	b9 10 00 00 00	 mov	 ecx, 16
  037b0	f3 a4		 rep movsb
  037b2	48 8d 85 60 91
	00 00		 lea	 rax, QWORD PTR $T908[rbp]
  037b9	48 89 44 24 48	 mov	 QWORD PTR [rsp+72], rax
  037be	48 8d 85 30 91
	00 00		 lea	 rax, QWORD PTR $T907[rbp]
  037c5	48 89 44 24 40	 mov	 QWORD PTR [rsp+64], rax
  037ca	48 8d 85 00 91
	00 00		 lea	 rax, QWORD PTR $T906[rbp]
  037d1	48 89 44 24 38	 mov	 QWORD PTR [rsp+56], rax
  037d6	48 8d 85 d0 90
	00 00		 lea	 rax, QWORD PTR $T905[rbp]
  037dd	48 89 44 24 30	 mov	 QWORD PTR [rsp+48], rax
  037e2	48 8d 85 a0 90
	00 00		 lea	 rax, QWORD PTR $T904[rbp]
  037e9	48 89 44 24 28	 mov	 QWORD PTR [rsp+40], rax
  037ee	48 8d 85 70 90
	00 00		 lea	 rax, QWORD PTR $T903[rbp]
  037f5	48 89 44 24 20	 mov	 QWORD PTR [rsp+32], rax
  037fa	4c 8d 8d 40 90
	00 00		 lea	 r9, QWORD PTR $T902[rbp]
  03801	41 b8 07 00 00
	00		 mov	 r8d, 7
  03807	48 8b 95 50 a4
	00 00		 mov	 rdx, QWORD PTR string$[rbp]
  0380e	48 8d 8d a8 0e
	00 00		 lea	 rcx, QWORD PTR graph_repeat$103[rbp]
  03815	e8 00 00 00 00	 call	 ??0FST@0@QEAA@PEADFUNODE@0@ZZ ; FST::FST::FST

; 875  : 				FST::NODE(1, FST::RELATION('r', 1)),
; 876  : 				FST::NODE(1, FST::RELATION('e', 2)),
; 877  : 				FST::NODE(1, FST::RELATION('p', 3)),
; 878  : 				FST::NODE(1, FST::RELATION('e', 4)),
; 879  : 				FST::NODE(1, FST::RELATION('a', 5)),
; 880  : 				FST::NODE(1, FST::RELATION('t', 6)),
; 881  : 				FST::NODE());
; 882  : 			if (result = execute(graph_repeat)) {

  0381a	48 8d 8d a8 0e
	00 00		 lea	 rcx, QWORD PTR graph_repeat$103[rbp]
  03821	e8 00 00 00 00	 call	 ?execute@FST@@YA_NAEAU11@@Z ; FST::execute
  03826	88 85 04 04 00
	00		 mov	 BYTE PTR result$[rbp], al
  0382c	0f b6 85 04 04
	00 00		 movzx	 eax, BYTE PTR result$[rbp]
  03833	85 c0		 test	 eax, eax
  03835	74 0c		 je	 SHORT $LN72@token_reko

; 883  : 				return LEX_REPEAT;

  03837	b0 70		 mov	 al, 112			; 00000070H
  03839	e9 8c 39 00 00	 jmp	 $LN1@token_reko

; 884  : 				break;

  0383e	e9 25 35 00 00	 jmp	 $LN2@token_reko
$LN72@token_reko:

; 885  : 			}
; 886  : 			break;

  03843	e9 20 35 00 00	 jmp	 $LN2@token_reko
$LN73@token_reko:

; 887  : 		}
; 888  : 		case 's':
; 889  : 		{
; 890  : 			FST::FST graph_string(string, 7,

  03848	48 8d 8d d8 47
	00 00		 lea	 rcx, QWORD PTR $T426[rbp]
  0384f	e8 00 00 00 00	 call	 ??0NODE@FST@@QEAA@XZ	; FST::NODE::NODE
  03854	48 8d 8d b0 92
	00 00		 lea	 rcx, QWORD PTR $T915[rbp]
  0385b	48 8b f9	 mov	 rdi, rcx
  0385e	48 8b f0	 mov	 rsi, rax
  03861	b9 10 00 00 00	 mov	 ecx, 16
  03866	f3 a4		 rep movsb
  03868	66 41 b8 06 00	 mov	 r8w, 6
  0386d	b2 67		 mov	 dl, 103			; 00000067H
  0386f	48 8d 8d 34 48
	00 00		 lea	 rcx, QWORD PTR $T428[rbp]
  03876	e8 00 00 00 00	 call	 ??0RELATION@FST@@QEAA@DF@Z ; FST::RELATION::RELATION
  0387b	44 8b 00	 mov	 r8d, DWORD PTR [rax]
  0387e	ba 01 00 00 00	 mov	 edx, 1
  03883	48 8d 8d 08 48
	00 00		 lea	 rcx, QWORD PTR $T427[rbp]
  0388a	e8 00 00 00 00	 call	 ??0NODE@FST@@QEAA@FURELATION@1@ZZ ; FST::NODE::NODE
  0388f	48 8d 8d 80 92
	00 00		 lea	 rcx, QWORD PTR $T914[rbp]
  03896	48 8b f9	 mov	 rdi, rcx
  03899	48 8b f0	 mov	 rsi, rax
  0389c	b9 10 00 00 00	 mov	 ecx, 16
  038a1	f3 a4		 rep movsb
  038a3	66 41 b8 05 00	 mov	 r8w, 5
  038a8	b2 6e		 mov	 dl, 110			; 0000006eH
  038aa	48 8d 8d 84 48
	00 00		 lea	 rcx, QWORD PTR $T430[rbp]
  038b1	e8 00 00 00 00	 call	 ??0RELATION@FST@@QEAA@DF@Z ; FST::RELATION::RELATION
  038b6	44 8b 00	 mov	 r8d, DWORD PTR [rax]
  038b9	ba 01 00 00 00	 mov	 edx, 1
  038be	48 8d 8d 58 48
	00 00		 lea	 rcx, QWORD PTR $T429[rbp]
  038c5	e8 00 00 00 00	 call	 ??0NODE@FST@@QEAA@FURELATION@1@ZZ ; FST::NODE::NODE
  038ca	48 8d 8d 50 92
	00 00		 lea	 rcx, QWORD PTR $T913[rbp]
  038d1	48 8b f9	 mov	 rdi, rcx
  038d4	48 8b f0	 mov	 rsi, rax
  038d7	b9 10 00 00 00	 mov	 ecx, 16
  038dc	f3 a4		 rep movsb
  038de	66 41 b8 04 00	 mov	 r8w, 4
  038e3	b2 69		 mov	 dl, 105			; 00000069H
  038e5	48 8d 8d d4 48
	00 00		 lea	 rcx, QWORD PTR $T432[rbp]
  038ec	e8 00 00 00 00	 call	 ??0RELATION@FST@@QEAA@DF@Z ; FST::RELATION::RELATION
  038f1	44 8b 00	 mov	 r8d, DWORD PTR [rax]
  038f4	ba 01 00 00 00	 mov	 edx, 1
  038f9	48 8d 8d a8 48
	00 00		 lea	 rcx, QWORD PTR $T431[rbp]
  03900	e8 00 00 00 00	 call	 ??0NODE@FST@@QEAA@FURELATION@1@ZZ ; FST::NODE::NODE
  03905	48 8d 8d 20 92
	00 00		 lea	 rcx, QWORD PTR $T912[rbp]
  0390c	48 8b f9	 mov	 rdi, rcx
  0390f	48 8b f0	 mov	 rsi, rax
  03912	b9 10 00 00 00	 mov	 ecx, 16
  03917	f3 a4		 rep movsb
  03919	66 41 b8 03 00	 mov	 r8w, 3
  0391e	b2 72		 mov	 dl, 114			; 00000072H
  03920	48 8d 8d 24 49
	00 00		 lea	 rcx, QWORD PTR $T434[rbp]
  03927	e8 00 00 00 00	 call	 ??0RELATION@FST@@QEAA@DF@Z ; FST::RELATION::RELATION
  0392c	44 8b 00	 mov	 r8d, DWORD PTR [rax]
  0392f	ba 01 00 00 00	 mov	 edx, 1
  03934	48 8d 8d f8 48
	00 00		 lea	 rcx, QWORD PTR $T433[rbp]
  0393b	e8 00 00 00 00	 call	 ??0NODE@FST@@QEAA@FURELATION@1@ZZ ; FST::NODE::NODE
  03940	48 8d 8d f0 91
	00 00		 lea	 rcx, QWORD PTR $T911[rbp]
  03947	48 8b f9	 mov	 rdi, rcx
  0394a	48 8b f0	 mov	 rsi, rax
  0394d	b9 10 00 00 00	 mov	 ecx, 16
  03952	f3 a4		 rep movsb
  03954	66 41 b8 02 00	 mov	 r8w, 2
  03959	b2 74		 mov	 dl, 116			; 00000074H
  0395b	48 8d 8d 74 49
	00 00		 lea	 rcx, QWORD PTR $T436[rbp]
  03962	e8 00 00 00 00	 call	 ??0RELATION@FST@@QEAA@DF@Z ; FST::RELATION::RELATION
  03967	44 8b 00	 mov	 r8d, DWORD PTR [rax]
  0396a	ba 01 00 00 00	 mov	 edx, 1
  0396f	48 8d 8d 48 49
	00 00		 lea	 rcx, QWORD PTR $T435[rbp]
  03976	e8 00 00 00 00	 call	 ??0NODE@FST@@QEAA@FURELATION@1@ZZ ; FST::NODE::NODE
  0397b	48 8d 8d c0 91
	00 00		 lea	 rcx, QWORD PTR $T910[rbp]
  03982	48 8b f9	 mov	 rdi, rcx
  03985	48 8b f0	 mov	 rsi, rax
  03988	b9 10 00 00 00	 mov	 ecx, 16
  0398d	f3 a4		 rep movsb
  0398f	66 41 b8 01 00	 mov	 r8w, 1
  03994	b2 73		 mov	 dl, 115			; 00000073H
  03996	48 8d 8d c4 49
	00 00		 lea	 rcx, QWORD PTR $T438[rbp]
  0399d	e8 00 00 00 00	 call	 ??0RELATION@FST@@QEAA@DF@Z ; FST::RELATION::RELATION
  039a2	44 8b 00	 mov	 r8d, DWORD PTR [rax]
  039a5	ba 01 00 00 00	 mov	 edx, 1
  039aa	48 8d 8d 98 49
	00 00		 lea	 rcx, QWORD PTR $T437[rbp]
  039b1	e8 00 00 00 00	 call	 ??0NODE@FST@@QEAA@FURELATION@1@ZZ ; FST::NODE::NODE
  039b6	48 8d 8d 90 91
	00 00		 lea	 rcx, QWORD PTR $T909[rbp]
  039bd	48 8b f9	 mov	 rdi, rcx
  039c0	48 8b f0	 mov	 rsi, rax
  039c3	b9 10 00 00 00	 mov	 ecx, 16
  039c8	f3 a4		 rep movsb
  039ca	48 8d 85 b0 92
	00 00		 lea	 rax, QWORD PTR $T915[rbp]
  039d1	48 89 44 24 48	 mov	 QWORD PTR [rsp+72], rax
  039d6	48 8d 85 80 92
	00 00		 lea	 rax, QWORD PTR $T914[rbp]
  039dd	48 89 44 24 40	 mov	 QWORD PTR [rsp+64], rax
  039e2	48 8d 85 50 92
	00 00		 lea	 rax, QWORD PTR $T913[rbp]
  039e9	48 89 44 24 38	 mov	 QWORD PTR [rsp+56], rax
  039ee	48 8d 85 20 92
	00 00		 lea	 rax, QWORD PTR $T912[rbp]
  039f5	48 89 44 24 30	 mov	 QWORD PTR [rsp+48], rax
  039fa	48 8d 85 f0 91
	00 00		 lea	 rax, QWORD PTR $T911[rbp]
  03a01	48 89 44 24 28	 mov	 QWORD PTR [rsp+40], rax
  03a06	48 8d 85 c0 91
	00 00		 lea	 rax, QWORD PTR $T910[rbp]
  03a0d	48 89 44 24 20	 mov	 QWORD PTR [rsp+32], rax
  03a12	4c 8d 8d 90 91
	00 00		 lea	 r9, QWORD PTR $T909[rbp]
  03a19	41 b8 07 00 00
	00		 mov	 r8d, 7
  03a1f	48 8b 95 50 a4
	00 00		 mov	 rdx, QWORD PTR string$[rbp]
  03a26	48 8d 8d e8 0e
	00 00		 lea	 rcx, QWORD PTR graph_string$104[rbp]
  03a2d	e8 00 00 00 00	 call	 ??0FST@0@QEAA@PEADFUNODE@0@ZZ ; FST::FST::FST

; 891  : 				FST::NODE(1, FST::RELATION('s', 1)),
; 892  : 				FST::NODE(1, FST::RELATION('t', 2)),
; 893  : 				FST::NODE(1, FST::RELATION('r', 3)),
; 894  : 				FST::NODE(1, FST::RELATION('i', 4)),
; 895  : 				FST::NODE(1, FST::RELATION('n', 5)),
; 896  : 				FST::NODE(1, FST::RELATION('g', 6)),
; 897  : 				FST::NODE());
; 898  : 			if (result = execute(graph_string)) {

  03a32	48 8d 8d e8 0e
	00 00		 lea	 rcx, QWORD PTR graph_string$104[rbp]
  03a39	e8 00 00 00 00	 call	 ?execute@FST@@YA_NAEAU11@@Z ; FST::execute
  03a3e	88 85 04 04 00
	00		 mov	 BYTE PTR result$[rbp], al
  03a44	0f b6 85 04 04
	00 00		 movzx	 eax, BYTE PTR result$[rbp]
  03a4b	85 c0		 test	 eax, eax
  03a4d	74 1a		 je	 SHORT $LN74@token_reko

; 899  : 				entry->iddatatype = IT::IDDATATYPE::STR;

  03a4f	48 8b 85 58 a4
	00 00		 mov	 rax, QWORD PTR entry$[rbp]
  03a56	c7 40 40 02 00
	00 00		 mov	 DWORD PTR [rax+64], 2

; 900  : 				return LEX_STRING;

  03a5d	b0 74		 mov	 al, 116			; 00000074H
  03a5f	e9 66 37 00 00	 jmp	 $LN1@token_reko

; 901  : 				break;

  03a64	e9 ff 32 00 00	 jmp	 $LN2@token_reko
$LN74@token_reko:

; 902  : 			}
; 903  : 			FST::FST graph_strlen(string, 7,

  03a69	48 8d 8d e8 49
	00 00		 lea	 rcx, QWORD PTR $T439[rbp]
  03a70	e8 00 00 00 00	 call	 ??0NODE@FST@@QEAA@XZ	; FST::NODE::NODE
  03a75	48 8d 8d 00 94
	00 00		 lea	 rcx, QWORD PTR $T922[rbp]
  03a7c	48 8b f9	 mov	 rdi, rcx
  03a7f	48 8b f0	 mov	 rsi, rax
  03a82	b9 10 00 00 00	 mov	 ecx, 16
  03a87	f3 a4		 rep movsb
  03a89	66 41 b8 06 00	 mov	 r8w, 6
  03a8e	b2 6e		 mov	 dl, 110			; 0000006eH
  03a90	48 8d 8d 44 4a
	00 00		 lea	 rcx, QWORD PTR $T441[rbp]
  03a97	e8 00 00 00 00	 call	 ??0RELATION@FST@@QEAA@DF@Z ; FST::RELATION::RELATION
  03a9c	44 8b 00	 mov	 r8d, DWORD PTR [rax]
  03a9f	ba 01 00 00 00	 mov	 edx, 1
  03aa4	48 8d 8d 18 4a
	00 00		 lea	 rcx, QWORD PTR $T440[rbp]
  03aab	e8 00 00 00 00	 call	 ??0NODE@FST@@QEAA@FURELATION@1@ZZ ; FST::NODE::NODE
  03ab0	48 8d 8d d0 93
	00 00		 lea	 rcx, QWORD PTR $T921[rbp]
  03ab7	48 8b f9	 mov	 rdi, rcx
  03aba	48 8b f0	 mov	 rsi, rax
  03abd	b9 10 00 00 00	 mov	 ecx, 16
  03ac2	f3 a4		 rep movsb
  03ac4	66 41 b8 05 00	 mov	 r8w, 5
  03ac9	b2 65		 mov	 dl, 101			; 00000065H
  03acb	48 8d 8d 94 4a
	00 00		 lea	 rcx, QWORD PTR $T443[rbp]
  03ad2	e8 00 00 00 00	 call	 ??0RELATION@FST@@QEAA@DF@Z ; FST::RELATION::RELATION
  03ad7	44 8b 00	 mov	 r8d, DWORD PTR [rax]
  03ada	ba 01 00 00 00	 mov	 edx, 1
  03adf	48 8d 8d 68 4a
	00 00		 lea	 rcx, QWORD PTR $T442[rbp]
  03ae6	e8 00 00 00 00	 call	 ??0NODE@FST@@QEAA@FURELATION@1@ZZ ; FST::NODE::NODE
  03aeb	48 8d 8d a0 93
	00 00		 lea	 rcx, QWORD PTR $T920[rbp]
  03af2	48 8b f9	 mov	 rdi, rcx
  03af5	48 8b f0	 mov	 rsi, rax
  03af8	b9 10 00 00 00	 mov	 ecx, 16
  03afd	f3 a4		 rep movsb
  03aff	66 41 b8 04 00	 mov	 r8w, 4
  03b04	b2 6c		 mov	 dl, 108			; 0000006cH
  03b06	48 8d 8d e4 4a
	00 00		 lea	 rcx, QWORD PTR $T445[rbp]
  03b0d	e8 00 00 00 00	 call	 ??0RELATION@FST@@QEAA@DF@Z ; FST::RELATION::RELATION
  03b12	44 8b 00	 mov	 r8d, DWORD PTR [rax]
  03b15	ba 01 00 00 00	 mov	 edx, 1
  03b1a	48 8d 8d b8 4a
	00 00		 lea	 rcx, QWORD PTR $T444[rbp]
  03b21	e8 00 00 00 00	 call	 ??0NODE@FST@@QEAA@FURELATION@1@ZZ ; FST::NODE::NODE
  03b26	48 8d 8d 70 93
	00 00		 lea	 rcx, QWORD PTR $T919[rbp]
  03b2d	48 8b f9	 mov	 rdi, rcx
  03b30	48 8b f0	 mov	 rsi, rax
  03b33	b9 10 00 00 00	 mov	 ecx, 16
  03b38	f3 a4		 rep movsb
  03b3a	66 41 b8 03 00	 mov	 r8w, 3
  03b3f	b2 72		 mov	 dl, 114			; 00000072H
  03b41	48 8d 8d 34 4b
	00 00		 lea	 rcx, QWORD PTR $T447[rbp]
  03b48	e8 00 00 00 00	 call	 ??0RELATION@FST@@QEAA@DF@Z ; FST::RELATION::RELATION
  03b4d	44 8b 00	 mov	 r8d, DWORD PTR [rax]
  03b50	ba 01 00 00 00	 mov	 edx, 1
  03b55	48 8d 8d 08 4b
	00 00		 lea	 rcx, QWORD PTR $T446[rbp]
  03b5c	e8 00 00 00 00	 call	 ??0NODE@FST@@QEAA@FURELATION@1@ZZ ; FST::NODE::NODE
  03b61	48 8d 8d 40 93
	00 00		 lea	 rcx, QWORD PTR $T918[rbp]
  03b68	48 8b f9	 mov	 rdi, rcx
  03b6b	48 8b f0	 mov	 rsi, rax
  03b6e	b9 10 00 00 00	 mov	 ecx, 16
  03b73	f3 a4		 rep movsb
  03b75	66 41 b8 02 00	 mov	 r8w, 2
  03b7a	b2 74		 mov	 dl, 116			; 00000074H
  03b7c	48 8d 8d 84 4b
	00 00		 lea	 rcx, QWORD PTR $T449[rbp]
  03b83	e8 00 00 00 00	 call	 ??0RELATION@FST@@QEAA@DF@Z ; FST::RELATION::RELATION
  03b88	44 8b 00	 mov	 r8d, DWORD PTR [rax]
  03b8b	ba 01 00 00 00	 mov	 edx, 1
  03b90	48 8d 8d 58 4b
	00 00		 lea	 rcx, QWORD PTR $T448[rbp]
  03b97	e8 00 00 00 00	 call	 ??0NODE@FST@@QEAA@FURELATION@1@ZZ ; FST::NODE::NODE
  03b9c	48 8d 8d 10 93
	00 00		 lea	 rcx, QWORD PTR $T917[rbp]
  03ba3	48 8b f9	 mov	 rdi, rcx
  03ba6	48 8b f0	 mov	 rsi, rax
  03ba9	b9 10 00 00 00	 mov	 ecx, 16
  03bae	f3 a4		 rep movsb
  03bb0	66 41 b8 01 00	 mov	 r8w, 1
  03bb5	b2 73		 mov	 dl, 115			; 00000073H
  03bb7	48 8d 8d d4 4b
	00 00		 lea	 rcx, QWORD PTR $T451[rbp]
  03bbe	e8 00 00 00 00	 call	 ??0RELATION@FST@@QEAA@DF@Z ; FST::RELATION::RELATION
  03bc3	44 8b 00	 mov	 r8d, DWORD PTR [rax]
  03bc6	ba 01 00 00 00	 mov	 edx, 1
  03bcb	48 8d 8d a8 4b
	00 00		 lea	 rcx, QWORD PTR $T450[rbp]
  03bd2	e8 00 00 00 00	 call	 ??0NODE@FST@@QEAA@FURELATION@1@ZZ ; FST::NODE::NODE
  03bd7	48 8d 8d e0 92
	00 00		 lea	 rcx, QWORD PTR $T916[rbp]
  03bde	48 8b f9	 mov	 rdi, rcx
  03be1	48 8b f0	 mov	 rsi, rax
  03be4	b9 10 00 00 00	 mov	 ecx, 16
  03be9	f3 a4		 rep movsb
  03beb	48 8d 85 00 94
	00 00		 lea	 rax, QWORD PTR $T922[rbp]
  03bf2	48 89 44 24 48	 mov	 QWORD PTR [rsp+72], rax
  03bf7	48 8d 85 d0 93
	00 00		 lea	 rax, QWORD PTR $T921[rbp]
  03bfe	48 89 44 24 40	 mov	 QWORD PTR [rsp+64], rax
  03c03	48 8d 85 a0 93
	00 00		 lea	 rax, QWORD PTR $T920[rbp]
  03c0a	48 89 44 24 38	 mov	 QWORD PTR [rsp+56], rax
  03c0f	48 8d 85 70 93
	00 00		 lea	 rax, QWORD PTR $T919[rbp]
  03c16	48 89 44 24 30	 mov	 QWORD PTR [rsp+48], rax
  03c1b	48 8d 85 40 93
	00 00		 lea	 rax, QWORD PTR $T918[rbp]
  03c22	48 89 44 24 28	 mov	 QWORD PTR [rsp+40], rax
  03c27	48 8d 85 10 93
	00 00		 lea	 rax, QWORD PTR $T917[rbp]
  03c2e	48 89 44 24 20	 mov	 QWORD PTR [rsp+32], rax
  03c33	4c 8d 8d e0 92
	00 00		 lea	 r9, QWORD PTR $T916[rbp]
  03c3a	41 b8 07 00 00
	00		 mov	 r8d, 7
  03c40	48 8b 95 50 a4
	00 00		 mov	 rdx, QWORD PTR string$[rbp]
  03c47	48 8d 8d 28 0f
	00 00		 lea	 rcx, QWORD PTR graph_strlen$105[rbp]
  03c4e	e8 00 00 00 00	 call	 ??0FST@0@QEAA@PEADFUNODE@0@ZZ ; FST::FST::FST

; 904  : 				FST::NODE(1, FST::RELATION('s', 1)),
; 905  : 				FST::NODE(1, FST::RELATION('t', 2)),
; 906  : 				FST::NODE(1, FST::RELATION('r', 3)),
; 907  : 				FST::NODE(1, FST::RELATION('l', 4)),
; 908  : 				FST::NODE(1, FST::RELATION('e', 5)),
; 909  : 				FST::NODE(1, FST::RELATION('n', 6)),
; 910  : 				FST::NODE());
; 911  : 			if (result = execute(graph_strlen)) {

  03c53	48 8d 8d 28 0f
	00 00		 lea	 rcx, QWORD PTR graph_strlen$105[rbp]
  03c5a	e8 00 00 00 00	 call	 ?execute@FST@@YA_NAEAU11@@Z ; FST::execute
  03c5f	88 85 04 04 00
	00		 mov	 BYTE PTR result$[rbp], al
  03c65	0f b6 85 04 04
	00 00		 movzx	 eax, BYTE PTR result$[rbp]
  03c6c	85 c0		 test	 eax, eax
  03c6e	74 36		 je	 SHORT $LN75@token_reko

; 912  : 				entry->idtype = IT::IDTYPE::E;

  03c70	48 8b 85 58 a4
	00 00		 mov	 rax, QWORD PTR entry$[rbp]
  03c77	c7 40 44 06 00
	00 00		 mov	 DWORD PTR [rax+68], 6

; 913  : 				entry->iddatatype = IT::IDDATATYPE::LONG;

  03c7e	48 8b 85 58 a4
	00 00		 mov	 rax, QWORD PTR entry$[rbp]
  03c85	c7 40 40 01 00
	00 00		 mov	 DWORD PTR [rax+64], 1

; 914  : 				entry->value.vint = 1;

  03c8c	48 8b 85 58 a4
	00 00		 mov	 rax, QWORD PTR entry$[rbp]
  03c93	c7 40 4c 01 00
	00 00		 mov	 DWORD PTR [rax+76], 1

; 915  : 				return LEX_ID;

  03c9a	b0 69		 mov	 al, 105			; 00000069H
  03c9c	e9 29 35 00 00	 jmp	 $LN1@token_reko

; 916  : 				break;

  03ca1	e9 c2 30 00 00	 jmp	 $LN2@token_reko
$LN75@token_reko:

; 917  : 			}
; 918  : 			FST::FST graph_strcat(string, 7,

  03ca6	48 8d 8d f8 4b
	00 00		 lea	 rcx, QWORD PTR $T452[rbp]
  03cad	e8 00 00 00 00	 call	 ??0NODE@FST@@QEAA@XZ	; FST::NODE::NODE
  03cb2	48 8d 8d 50 95
	00 00		 lea	 rcx, QWORD PTR $T929[rbp]
  03cb9	48 8b f9	 mov	 rdi, rcx
  03cbc	48 8b f0	 mov	 rsi, rax
  03cbf	b9 10 00 00 00	 mov	 ecx, 16
  03cc4	f3 a4		 rep movsb
  03cc6	66 41 b8 06 00	 mov	 r8w, 6
  03ccb	b2 74		 mov	 dl, 116			; 00000074H
  03ccd	48 8d 8d 54 4c
	00 00		 lea	 rcx, QWORD PTR $T454[rbp]
  03cd4	e8 00 00 00 00	 call	 ??0RELATION@FST@@QEAA@DF@Z ; FST::RELATION::RELATION
  03cd9	44 8b 00	 mov	 r8d, DWORD PTR [rax]
  03cdc	ba 01 00 00 00	 mov	 edx, 1
  03ce1	48 8d 8d 28 4c
	00 00		 lea	 rcx, QWORD PTR $T453[rbp]
  03ce8	e8 00 00 00 00	 call	 ??0NODE@FST@@QEAA@FURELATION@1@ZZ ; FST::NODE::NODE
  03ced	48 8d 8d 20 95
	00 00		 lea	 rcx, QWORD PTR $T928[rbp]
  03cf4	48 8b f9	 mov	 rdi, rcx
  03cf7	48 8b f0	 mov	 rsi, rax
  03cfa	b9 10 00 00 00	 mov	 ecx, 16
  03cff	f3 a4		 rep movsb
  03d01	66 41 b8 05 00	 mov	 r8w, 5
  03d06	b2 61		 mov	 dl, 97			; 00000061H
  03d08	48 8d 8d a4 4c
	00 00		 lea	 rcx, QWORD PTR $T456[rbp]
  03d0f	e8 00 00 00 00	 call	 ??0RELATION@FST@@QEAA@DF@Z ; FST::RELATION::RELATION
  03d14	44 8b 00	 mov	 r8d, DWORD PTR [rax]
  03d17	ba 01 00 00 00	 mov	 edx, 1
  03d1c	48 8d 8d 78 4c
	00 00		 lea	 rcx, QWORD PTR $T455[rbp]
  03d23	e8 00 00 00 00	 call	 ??0NODE@FST@@QEAA@FURELATION@1@ZZ ; FST::NODE::NODE
  03d28	48 8d 8d f0 94
	00 00		 lea	 rcx, QWORD PTR $T927[rbp]
  03d2f	48 8b f9	 mov	 rdi, rcx
  03d32	48 8b f0	 mov	 rsi, rax
  03d35	b9 10 00 00 00	 mov	 ecx, 16
  03d3a	f3 a4		 rep movsb
  03d3c	66 41 b8 04 00	 mov	 r8w, 4
  03d41	b2 63		 mov	 dl, 99			; 00000063H
  03d43	48 8d 8d f4 4c
	00 00		 lea	 rcx, QWORD PTR $T458[rbp]
  03d4a	e8 00 00 00 00	 call	 ??0RELATION@FST@@QEAA@DF@Z ; FST::RELATION::RELATION
  03d4f	44 8b 00	 mov	 r8d, DWORD PTR [rax]
  03d52	ba 01 00 00 00	 mov	 edx, 1
  03d57	48 8d 8d c8 4c
	00 00		 lea	 rcx, QWORD PTR $T457[rbp]
  03d5e	e8 00 00 00 00	 call	 ??0NODE@FST@@QEAA@FURELATION@1@ZZ ; FST::NODE::NODE
  03d63	48 8d 8d c0 94
	00 00		 lea	 rcx, QWORD PTR $T926[rbp]
  03d6a	48 8b f9	 mov	 rdi, rcx
  03d6d	48 8b f0	 mov	 rsi, rax
  03d70	b9 10 00 00 00	 mov	 ecx, 16
  03d75	f3 a4		 rep movsb
  03d77	66 41 b8 03 00	 mov	 r8w, 3
  03d7c	b2 72		 mov	 dl, 114			; 00000072H
  03d7e	48 8d 8d 44 4d
	00 00		 lea	 rcx, QWORD PTR $T460[rbp]
  03d85	e8 00 00 00 00	 call	 ??0RELATION@FST@@QEAA@DF@Z ; FST::RELATION::RELATION
  03d8a	44 8b 00	 mov	 r8d, DWORD PTR [rax]
  03d8d	ba 01 00 00 00	 mov	 edx, 1
  03d92	48 8d 8d 18 4d
	00 00		 lea	 rcx, QWORD PTR $T459[rbp]
  03d99	e8 00 00 00 00	 call	 ??0NODE@FST@@QEAA@FURELATION@1@ZZ ; FST::NODE::NODE
  03d9e	48 8d 8d 90 94
	00 00		 lea	 rcx, QWORD PTR $T925[rbp]
  03da5	48 8b f9	 mov	 rdi, rcx
  03da8	48 8b f0	 mov	 rsi, rax
  03dab	b9 10 00 00 00	 mov	 ecx, 16
  03db0	f3 a4		 rep movsb
  03db2	66 41 b8 02 00	 mov	 r8w, 2
  03db7	b2 74		 mov	 dl, 116			; 00000074H
  03db9	48 8d 8d 94 4d
	00 00		 lea	 rcx, QWORD PTR $T462[rbp]
  03dc0	e8 00 00 00 00	 call	 ??0RELATION@FST@@QEAA@DF@Z ; FST::RELATION::RELATION
  03dc5	44 8b 00	 mov	 r8d, DWORD PTR [rax]
  03dc8	ba 01 00 00 00	 mov	 edx, 1
  03dcd	48 8d 8d 68 4d
	00 00		 lea	 rcx, QWORD PTR $T461[rbp]
  03dd4	e8 00 00 00 00	 call	 ??0NODE@FST@@QEAA@FURELATION@1@ZZ ; FST::NODE::NODE
  03dd9	48 8d 8d 60 94
	00 00		 lea	 rcx, QWORD PTR $T924[rbp]
  03de0	48 8b f9	 mov	 rdi, rcx
  03de3	48 8b f0	 mov	 rsi, rax
  03de6	b9 10 00 00 00	 mov	 ecx, 16
  03deb	f3 a4		 rep movsb
  03ded	66 41 b8 01 00	 mov	 r8w, 1
  03df2	b2 73		 mov	 dl, 115			; 00000073H
  03df4	48 8d 8d e4 4d
	00 00		 lea	 rcx, QWORD PTR $T464[rbp]
  03dfb	e8 00 00 00 00	 call	 ??0RELATION@FST@@QEAA@DF@Z ; FST::RELATION::RELATION
  03e00	44 8b 00	 mov	 r8d, DWORD PTR [rax]
  03e03	ba 01 00 00 00	 mov	 edx, 1
  03e08	48 8d 8d b8 4d
	00 00		 lea	 rcx, QWORD PTR $T463[rbp]
  03e0f	e8 00 00 00 00	 call	 ??0NODE@FST@@QEAA@FURELATION@1@ZZ ; FST::NODE::NODE
  03e14	48 8d 8d 30 94
	00 00		 lea	 rcx, QWORD PTR $T923[rbp]
  03e1b	48 8b f9	 mov	 rdi, rcx
  03e1e	48 8b f0	 mov	 rsi, rax
  03e21	b9 10 00 00 00	 mov	 ecx, 16
  03e26	f3 a4		 rep movsb
  03e28	48 8d 85 50 95
	00 00		 lea	 rax, QWORD PTR $T929[rbp]
  03e2f	48 89 44 24 48	 mov	 QWORD PTR [rsp+72], rax
  03e34	48 8d 85 20 95
	00 00		 lea	 rax, QWORD PTR $T928[rbp]
  03e3b	48 89 44 24 40	 mov	 QWORD PTR [rsp+64], rax
  03e40	48 8d 85 f0 94
	00 00		 lea	 rax, QWORD PTR $T927[rbp]
  03e47	48 89 44 24 38	 mov	 QWORD PTR [rsp+56], rax
  03e4c	48 8d 85 c0 94
	00 00		 lea	 rax, QWORD PTR $T926[rbp]
  03e53	48 89 44 24 30	 mov	 QWORD PTR [rsp+48], rax
  03e58	48 8d 85 90 94
	00 00		 lea	 rax, QWORD PTR $T925[rbp]
  03e5f	48 89 44 24 28	 mov	 QWORD PTR [rsp+40], rax
  03e64	48 8d 85 60 94
	00 00		 lea	 rax, QWORD PTR $T924[rbp]
  03e6b	48 89 44 24 20	 mov	 QWORD PTR [rsp+32], rax
  03e70	4c 8d 8d 30 94
	00 00		 lea	 r9, QWORD PTR $T923[rbp]
  03e77	41 b8 07 00 00
	00		 mov	 r8d, 7
  03e7d	48 8b 95 50 a4
	00 00		 mov	 rdx, QWORD PTR string$[rbp]
  03e84	48 8d 8d 68 0f
	00 00		 lea	 rcx, QWORD PTR graph_strcat$106[rbp]
  03e8b	e8 00 00 00 00	 call	 ??0FST@0@QEAA@PEADFUNODE@0@ZZ ; FST::FST::FST

; 919  : 				FST::NODE(1, FST::RELATION('s', 1)),
; 920  : 				FST::NODE(1, FST::RELATION('t', 2)),
; 921  : 				FST::NODE(1, FST::RELATION('r', 3)),
; 922  : 				FST::NODE(1, FST::RELATION('c', 4)),
; 923  : 				FST::NODE(1, FST::RELATION('a', 5)),
; 924  : 				FST::NODE(1, FST::RELATION('t', 6)),
; 925  : 				FST::NODE());
; 926  : 			if (result = execute(graph_strcat)) {

  03e90	48 8d 8d 68 0f
	00 00		 lea	 rcx, QWORD PTR graph_strcat$106[rbp]
  03e97	e8 00 00 00 00	 call	 ?execute@FST@@YA_NAEAU11@@Z ; FST::execute
  03e9c	88 85 04 04 00
	00		 mov	 BYTE PTR result$[rbp], al
  03ea2	0f b6 85 04 04
	00 00		 movzx	 eax, BYTE PTR result$[rbp]
  03ea9	85 c0		 test	 eax, eax
  03eab	74 36		 je	 SHORT $LN76@token_reko

; 927  : 				entry->idtype = IT::IDTYPE::E;

  03ead	48 8b 85 58 a4
	00 00		 mov	 rax, QWORD PTR entry$[rbp]
  03eb4	c7 40 44 06 00
	00 00		 mov	 DWORD PTR [rax+68], 6

; 928  : 				entry->iddatatype = IT::IDDATATYPE::STR;

  03ebb	48 8b 85 58 a4
	00 00		 mov	 rax, QWORD PTR entry$[rbp]
  03ec2	c7 40 40 02 00
	00 00		 mov	 DWORD PTR [rax+64], 2

; 929  : 				entry->value.vint = 2;

  03ec9	48 8b 85 58 a4
	00 00		 mov	 rax, QWORD PTR entry$[rbp]
  03ed0	c7 40 4c 02 00
	00 00		 mov	 DWORD PTR [rax+76], 2

; 930  : 				return LEX_ID;

  03ed7	b0 69		 mov	 al, 105			; 00000069H
  03ed9	e9 ec 32 00 00	 jmp	 $LN1@token_reko

; 931  : 				break;

  03ede	e9 85 2e 00 00	 jmp	 $LN2@token_reko
$LN76@token_reko:

; 932  : 			}
; 933  : 			FST::FST graph_strcopy(string, 8,

  03ee3	48 8d 8d 08 4e
	00 00		 lea	 rcx, QWORD PTR $T465[rbp]
  03eea	e8 00 00 00 00	 call	 ??0NODE@FST@@QEAA@XZ	; FST::NODE::NODE
  03eef	48 8d 8d d0 96
	00 00		 lea	 rcx, QWORD PTR $T937[rbp]
  03ef6	48 8b f9	 mov	 rdi, rcx
  03ef9	48 8b f0	 mov	 rsi, rax
  03efc	b9 10 00 00 00	 mov	 ecx, 16
  03f01	f3 a4		 rep movsb
  03f03	66 41 b8 07 00	 mov	 r8w, 7
  03f08	b2 79		 mov	 dl, 121			; 00000079H
  03f0a	48 8d 8d 64 4e
	00 00		 lea	 rcx, QWORD PTR $T467[rbp]
  03f11	e8 00 00 00 00	 call	 ??0RELATION@FST@@QEAA@DF@Z ; FST::RELATION::RELATION
  03f16	44 8b 00	 mov	 r8d, DWORD PTR [rax]
  03f19	ba 01 00 00 00	 mov	 edx, 1
  03f1e	48 8d 8d 38 4e
	00 00		 lea	 rcx, QWORD PTR $T466[rbp]
  03f25	e8 00 00 00 00	 call	 ??0NODE@FST@@QEAA@FURELATION@1@ZZ ; FST::NODE::NODE
  03f2a	48 8d 8d a0 96
	00 00		 lea	 rcx, QWORD PTR $T936[rbp]
  03f31	48 8b f9	 mov	 rdi, rcx
  03f34	48 8b f0	 mov	 rsi, rax
  03f37	b9 10 00 00 00	 mov	 ecx, 16
  03f3c	f3 a4		 rep movsb
  03f3e	66 41 b8 06 00	 mov	 r8w, 6
  03f43	b2 70		 mov	 dl, 112			; 00000070H
  03f45	48 8d 8d b4 4e
	00 00		 lea	 rcx, QWORD PTR $T469[rbp]
  03f4c	e8 00 00 00 00	 call	 ??0RELATION@FST@@QEAA@DF@Z ; FST::RELATION::RELATION
  03f51	44 8b 00	 mov	 r8d, DWORD PTR [rax]
  03f54	ba 01 00 00 00	 mov	 edx, 1
  03f59	48 8d 8d 88 4e
	00 00		 lea	 rcx, QWORD PTR $T468[rbp]
  03f60	e8 00 00 00 00	 call	 ??0NODE@FST@@QEAA@FURELATION@1@ZZ ; FST::NODE::NODE
  03f65	48 8d 8d 70 96
	00 00		 lea	 rcx, QWORD PTR $T935[rbp]
  03f6c	48 8b f9	 mov	 rdi, rcx
  03f6f	48 8b f0	 mov	 rsi, rax
  03f72	b9 10 00 00 00	 mov	 ecx, 16
  03f77	f3 a4		 rep movsb
  03f79	66 41 b8 05 00	 mov	 r8w, 5
  03f7e	b2 6f		 mov	 dl, 111			; 0000006fH
  03f80	48 8d 8d 04 4f
	00 00		 lea	 rcx, QWORD PTR $T471[rbp]
  03f87	e8 00 00 00 00	 call	 ??0RELATION@FST@@QEAA@DF@Z ; FST::RELATION::RELATION
  03f8c	44 8b 00	 mov	 r8d, DWORD PTR [rax]
  03f8f	ba 01 00 00 00	 mov	 edx, 1
  03f94	48 8d 8d d8 4e
	00 00		 lea	 rcx, QWORD PTR $T470[rbp]
  03f9b	e8 00 00 00 00	 call	 ??0NODE@FST@@QEAA@FURELATION@1@ZZ ; FST::NODE::NODE
  03fa0	48 8d 8d 40 96
	00 00		 lea	 rcx, QWORD PTR $T934[rbp]
  03fa7	48 8b f9	 mov	 rdi, rcx
  03faa	48 8b f0	 mov	 rsi, rax
  03fad	b9 10 00 00 00	 mov	 ecx, 16
  03fb2	f3 a4		 rep movsb
  03fb4	66 41 b8 04 00	 mov	 r8w, 4
  03fb9	b2 63		 mov	 dl, 99			; 00000063H
  03fbb	48 8d 8d 54 4f
	00 00		 lea	 rcx, QWORD PTR $T473[rbp]
  03fc2	e8 00 00 00 00	 call	 ??0RELATION@FST@@QEAA@DF@Z ; FST::RELATION::RELATION
  03fc7	44 8b 00	 mov	 r8d, DWORD PTR [rax]
  03fca	ba 01 00 00 00	 mov	 edx, 1
  03fcf	48 8d 8d 28 4f
	00 00		 lea	 rcx, QWORD PTR $T472[rbp]
  03fd6	e8 00 00 00 00	 call	 ??0NODE@FST@@QEAA@FURELATION@1@ZZ ; FST::NODE::NODE
  03fdb	48 8d 8d 10 96
	00 00		 lea	 rcx, QWORD PTR $T933[rbp]
  03fe2	48 8b f9	 mov	 rdi, rcx
  03fe5	48 8b f0	 mov	 rsi, rax
  03fe8	b9 10 00 00 00	 mov	 ecx, 16
  03fed	f3 a4		 rep movsb
  03fef	66 41 b8 03 00	 mov	 r8w, 3
  03ff4	b2 72		 mov	 dl, 114			; 00000072H
  03ff6	48 8d 8d a4 4f
	00 00		 lea	 rcx, QWORD PTR $T475[rbp]
  03ffd	e8 00 00 00 00	 call	 ??0RELATION@FST@@QEAA@DF@Z ; FST::RELATION::RELATION
  04002	44 8b 00	 mov	 r8d, DWORD PTR [rax]
  04005	ba 01 00 00 00	 mov	 edx, 1
  0400a	48 8d 8d 78 4f
	00 00		 lea	 rcx, QWORD PTR $T474[rbp]
  04011	e8 00 00 00 00	 call	 ??0NODE@FST@@QEAA@FURELATION@1@ZZ ; FST::NODE::NODE
  04016	48 8d 8d e0 95
	00 00		 lea	 rcx, QWORD PTR $T932[rbp]
  0401d	48 8b f9	 mov	 rdi, rcx
  04020	48 8b f0	 mov	 rsi, rax
  04023	b9 10 00 00 00	 mov	 ecx, 16
  04028	f3 a4		 rep movsb
  0402a	66 41 b8 02 00	 mov	 r8w, 2
  0402f	b2 74		 mov	 dl, 116			; 00000074H
  04031	48 8d 8d f4 4f
	00 00		 lea	 rcx, QWORD PTR $T477[rbp]
  04038	e8 00 00 00 00	 call	 ??0RELATION@FST@@QEAA@DF@Z ; FST::RELATION::RELATION
  0403d	44 8b 00	 mov	 r8d, DWORD PTR [rax]
  04040	ba 01 00 00 00	 mov	 edx, 1
  04045	48 8d 8d c8 4f
	00 00		 lea	 rcx, QWORD PTR $T476[rbp]
  0404c	e8 00 00 00 00	 call	 ??0NODE@FST@@QEAA@FURELATION@1@ZZ ; FST::NODE::NODE
  04051	48 8d 8d b0 95
	00 00		 lea	 rcx, QWORD PTR $T931[rbp]
  04058	48 8b f9	 mov	 rdi, rcx
  0405b	48 8b f0	 mov	 rsi, rax
  0405e	b9 10 00 00 00	 mov	 ecx, 16
  04063	f3 a4		 rep movsb
  04065	66 41 b8 01 00	 mov	 r8w, 1
  0406a	b2 73		 mov	 dl, 115			; 00000073H
  0406c	48 8d 8d 44 50
	00 00		 lea	 rcx, QWORD PTR $T479[rbp]
  04073	e8 00 00 00 00	 call	 ??0RELATION@FST@@QEAA@DF@Z ; FST::RELATION::RELATION
  04078	44 8b 00	 mov	 r8d, DWORD PTR [rax]
  0407b	ba 01 00 00 00	 mov	 edx, 1
  04080	48 8d 8d 18 50
	00 00		 lea	 rcx, QWORD PTR $T478[rbp]
  04087	e8 00 00 00 00	 call	 ??0NODE@FST@@QEAA@FURELATION@1@ZZ ; FST::NODE::NODE
  0408c	48 8d 8d 80 95
	00 00		 lea	 rcx, QWORD PTR $T930[rbp]
  04093	48 8b f9	 mov	 rdi, rcx
  04096	48 8b f0	 mov	 rsi, rax
  04099	b9 10 00 00 00	 mov	 ecx, 16
  0409e	f3 a4		 rep movsb
  040a0	48 8d 85 d0 96
	00 00		 lea	 rax, QWORD PTR $T937[rbp]
  040a7	48 89 44 24 50	 mov	 QWORD PTR [rsp+80], rax
  040ac	48 8d 85 a0 96
	00 00		 lea	 rax, QWORD PTR $T936[rbp]
  040b3	48 89 44 24 48	 mov	 QWORD PTR [rsp+72], rax
  040b8	48 8d 85 70 96
	00 00		 lea	 rax, QWORD PTR $T935[rbp]
  040bf	48 89 44 24 40	 mov	 QWORD PTR [rsp+64], rax
  040c4	48 8d 85 40 96
	00 00		 lea	 rax, QWORD PTR $T934[rbp]
  040cb	48 89 44 24 38	 mov	 QWORD PTR [rsp+56], rax
  040d0	48 8d 85 10 96
	00 00		 lea	 rax, QWORD PTR $T933[rbp]
  040d7	48 89 44 24 30	 mov	 QWORD PTR [rsp+48], rax
  040dc	48 8d 85 e0 95
	00 00		 lea	 rax, QWORD PTR $T932[rbp]
  040e3	48 89 44 24 28	 mov	 QWORD PTR [rsp+40], rax
  040e8	48 8d 85 b0 95
	00 00		 lea	 rax, QWORD PTR $T931[rbp]
  040ef	48 89 44 24 20	 mov	 QWORD PTR [rsp+32], rax
  040f4	4c 8d 8d 80 95
	00 00		 lea	 r9, QWORD PTR $T930[rbp]
  040fb	41 b8 08 00 00
	00		 mov	 r8d, 8
  04101	48 8b 95 50 a4
	00 00		 mov	 rdx, QWORD PTR string$[rbp]
  04108	48 8d 8d a8 0f
	00 00		 lea	 rcx, QWORD PTR graph_strcopy$107[rbp]
  0410f	e8 00 00 00 00	 call	 ??0FST@0@QEAA@PEADFUNODE@0@ZZ ; FST::FST::FST

; 934  : 				FST::NODE(1, FST::RELATION('s', 1)),
; 935  : 				FST::NODE(1, FST::RELATION('t', 2)),
; 936  : 				FST::NODE(1, FST::RELATION('r', 3)),
; 937  : 				FST::NODE(1, FST::RELATION('c', 4)),
; 938  : 				FST::NODE(1, FST::RELATION('o', 5)),
; 939  : 				FST::NODE(1, FST::RELATION('p', 6)),
; 940  : 				FST::NODE(1, FST::RELATION('y', 7)),
; 941  : 				FST::NODE());
; 942  : 			if (result = execute(graph_strcopy)) {

  04114	48 8d 8d a8 0f
	00 00		 lea	 rcx, QWORD PTR graph_strcopy$107[rbp]
  0411b	e8 00 00 00 00	 call	 ?execute@FST@@YA_NAEAU11@@Z ; FST::execute
  04120	88 85 04 04 00
	00		 mov	 BYTE PTR result$[rbp], al
  04126	0f b6 85 04 04
	00 00		 movzx	 eax, BYTE PTR result$[rbp]
  0412d	85 c0		 test	 eax, eax
  0412f	74 36		 je	 SHORT $LN77@token_reko

; 943  : 				entry->idtype = IT::IDTYPE::E;

  04131	48 8b 85 58 a4
	00 00		 mov	 rax, QWORD PTR entry$[rbp]
  04138	c7 40 44 06 00
	00 00		 mov	 DWORD PTR [rax+68], 6

; 944  : 				entry->iddatatype = IT::IDDATATYPE::STR;

  0413f	48 8b 85 58 a4
	00 00		 mov	 rax, QWORD PTR entry$[rbp]
  04146	c7 40 40 02 00
	00 00		 mov	 DWORD PTR [rax+64], 2

; 945  : 				entry->value.vint = 2;

  0414d	48 8b 85 58 a4
	00 00		 mov	 rax, QWORD PTR entry$[rbp]
  04154	c7 40 4c 02 00
	00 00		 mov	 DWORD PTR [rax+76], 2

; 946  : 				return LEX_ID;

  0415b	b0 69		 mov	 al, 105			; 00000069H
  0415d	e9 68 30 00 00	 jmp	 $LN1@token_reko

; 947  : 				break;

  04162	e9 01 2c 00 00	 jmp	 $LN2@token_reko
$LN77@token_reko:

; 948  : 			}
; 949  : 			break;

  04167	e9 fc 2b 00 00	 jmp	 $LN2@token_reko
$LN78@token_reko:

; 950  : 		}
; 951  : 		case 't':
; 952  : 		{
; 953  : 			FST::FST graph_true(string, 5,

  0416c	48 8d 8d 68 50
	00 00		 lea	 rcx, QWORD PTR $T480[rbp]
  04173	e8 00 00 00 00	 call	 ??0NODE@FST@@QEAA@XZ	; FST::NODE::NODE
  04178	48 8d 8d c0 97
	00 00		 lea	 rcx, QWORD PTR $T942[rbp]
  0417f	48 8b f9	 mov	 rdi, rcx
  04182	48 8b f0	 mov	 rsi, rax
  04185	b9 10 00 00 00	 mov	 ecx, 16
  0418a	f3 a4		 rep movsb
  0418c	66 41 b8 04 00	 mov	 r8w, 4
  04191	b2 65		 mov	 dl, 101			; 00000065H
  04193	48 8d 8d c4 50
	00 00		 lea	 rcx, QWORD PTR $T482[rbp]
  0419a	e8 00 00 00 00	 call	 ??0RELATION@FST@@QEAA@DF@Z ; FST::RELATION::RELATION
  0419f	44 8b 00	 mov	 r8d, DWORD PTR [rax]
  041a2	ba 01 00 00 00	 mov	 edx, 1
  041a7	48 8d 8d 98 50
	00 00		 lea	 rcx, QWORD PTR $T481[rbp]
  041ae	e8 00 00 00 00	 call	 ??0NODE@FST@@QEAA@FURELATION@1@ZZ ; FST::NODE::NODE
  041b3	48 8d 8d 90 97
	00 00		 lea	 rcx, QWORD PTR $T941[rbp]
  041ba	48 8b f9	 mov	 rdi, rcx
  041bd	48 8b f0	 mov	 rsi, rax
  041c0	b9 10 00 00 00	 mov	 ecx, 16
  041c5	f3 a4		 rep movsb
  041c7	66 41 b8 03 00	 mov	 r8w, 3
  041cc	b2 75		 mov	 dl, 117			; 00000075H
  041ce	48 8d 8d 14 51
	00 00		 lea	 rcx, QWORD PTR $T484[rbp]
  041d5	e8 00 00 00 00	 call	 ??0RELATION@FST@@QEAA@DF@Z ; FST::RELATION::RELATION
  041da	44 8b 00	 mov	 r8d, DWORD PTR [rax]
  041dd	ba 01 00 00 00	 mov	 edx, 1
  041e2	48 8d 8d e8 50
	00 00		 lea	 rcx, QWORD PTR $T483[rbp]
  041e9	e8 00 00 00 00	 call	 ??0NODE@FST@@QEAA@FURELATION@1@ZZ ; FST::NODE::NODE
  041ee	48 8d 8d 60 97
	00 00		 lea	 rcx, QWORD PTR $T940[rbp]
  041f5	48 8b f9	 mov	 rdi, rcx
  041f8	48 8b f0	 mov	 rsi, rax
  041fb	b9 10 00 00 00	 mov	 ecx, 16
  04200	f3 a4		 rep movsb
  04202	66 41 b8 02 00	 mov	 r8w, 2
  04207	b2 72		 mov	 dl, 114			; 00000072H
  04209	48 8d 8d 64 51
	00 00		 lea	 rcx, QWORD PTR $T486[rbp]
  04210	e8 00 00 00 00	 call	 ??0RELATION@FST@@QEAA@DF@Z ; FST::RELATION::RELATION
  04215	44 8b 00	 mov	 r8d, DWORD PTR [rax]
  04218	ba 01 00 00 00	 mov	 edx, 1
  0421d	48 8d 8d 38 51
	00 00		 lea	 rcx, QWORD PTR $T485[rbp]
  04224	e8 00 00 00 00	 call	 ??0NODE@FST@@QEAA@FURELATION@1@ZZ ; FST::NODE::NODE
  04229	48 8d 8d 30 97
	00 00		 lea	 rcx, QWORD PTR $T939[rbp]
  04230	48 8b f9	 mov	 rdi, rcx
  04233	48 8b f0	 mov	 rsi, rax
  04236	b9 10 00 00 00	 mov	 ecx, 16
  0423b	f3 a4		 rep movsb
  0423d	66 41 b8 01 00	 mov	 r8w, 1
  04242	b2 74		 mov	 dl, 116			; 00000074H
  04244	48 8d 8d b4 51
	00 00		 lea	 rcx, QWORD PTR $T488[rbp]
  0424b	e8 00 00 00 00	 call	 ??0RELATION@FST@@QEAA@DF@Z ; FST::RELATION::RELATION
  04250	44 8b 00	 mov	 r8d, DWORD PTR [rax]
  04253	ba 01 00 00 00	 mov	 edx, 1
  04258	48 8d 8d 88 51
	00 00		 lea	 rcx, QWORD PTR $T487[rbp]
  0425f	e8 00 00 00 00	 call	 ??0NODE@FST@@QEAA@FURELATION@1@ZZ ; FST::NODE::NODE
  04264	48 8d 8d 00 97
	00 00		 lea	 rcx, QWORD PTR $T938[rbp]
  0426b	48 8b f9	 mov	 rdi, rcx
  0426e	48 8b f0	 mov	 rsi, rax
  04271	b9 10 00 00 00	 mov	 ecx, 16
  04276	f3 a4		 rep movsb
  04278	48 8d 85 c0 97
	00 00		 lea	 rax, QWORD PTR $T942[rbp]
  0427f	48 89 44 24 38	 mov	 QWORD PTR [rsp+56], rax
  04284	48 8d 85 90 97
	00 00		 lea	 rax, QWORD PTR $T941[rbp]
  0428b	48 89 44 24 30	 mov	 QWORD PTR [rsp+48], rax
  04290	48 8d 85 60 97
	00 00		 lea	 rax, QWORD PTR $T940[rbp]
  04297	48 89 44 24 28	 mov	 QWORD PTR [rsp+40], rax
  0429c	48 8d 85 30 97
	00 00		 lea	 rax, QWORD PTR $T939[rbp]
  042a3	48 89 44 24 20	 mov	 QWORD PTR [rsp+32], rax
  042a8	4c 8d 8d 00 97
	00 00		 lea	 r9, QWORD PTR $T938[rbp]
  042af	41 b8 05 00 00
	00		 mov	 r8d, 5
  042b5	48 8b 95 50 a4
	00 00		 mov	 rdx, QWORD PTR string$[rbp]
  042bc	48 8d 8d e8 0f
	00 00		 lea	 rcx, QWORD PTR graph_true$108[rbp]
  042c3	e8 00 00 00 00	 call	 ??0FST@0@QEAA@PEADFUNODE@0@ZZ ; FST::FST::FST

; 954  : 				FST::NODE(1, FST::RELATION('t', 1)),
; 955  : 				FST::NODE(1, FST::RELATION('r', 2)),
; 956  : 				FST::NODE(1, FST::RELATION('u', 3)),
; 957  : 				FST::NODE(1, FST::RELATION('e', 4)),
; 958  : 				FST::NODE());
; 959  : 			if (result = execute(graph_true)) {

  042c8	48 8d 8d e8 0f
	00 00		 lea	 rcx, QWORD PTR graph_true$108[rbp]
  042cf	e8 00 00 00 00	 call	 ?execute@FST@@YA_NAEAU11@@Z ; FST::execute
  042d4	88 85 04 04 00
	00		 mov	 BYTE PTR result$[rbp], al
  042da	0f b6 85 04 04
	00 00		 movzx	 eax, BYTE PTR result$[rbp]
  042e1	85 c0		 test	 eax, eax
  042e3	74 41		 je	 SHORT $LN79@token_reko

; 960  : 				entry->iddatatype = IT::IDDATATYPE::LONG;

  042e5	48 8b 85 58 a4
	00 00		 mov	 rax, QWORD PTR entry$[rbp]
  042ec	c7 40 40 01 00
	00 00		 mov	 DWORD PTR [rax+64], 1

; 961  : 				entry->idcalculus = IT::CALCULUS::DEC;

  042f3	48 8b 85 58 a4
	00 00		 mov	 rax, QWORD PTR entry$[rbp]
  042fa	c7 40 48 01 00
	00 00		 mov	 DWORD PTR [rax+72], 1

; 962  : 				strcpy(string, "1");

  04301	48 8d 15 00 00
	00 00		 lea	 rdx, OFFSET FLAT:??_C@_01HIHLOKLC@1@
  04308	48 8b 8d 50 a4
	00 00		 mov	 rcx, QWORD PTR string$[rbp]
  0430f	e8 00 00 00 00	 call	 strcpy

; 963  : 				entry->value.vbool = true;

  04314	48 8b 85 58 a4
	00 00		 mov	 rax, QWORD PTR entry$[rbp]
  0431b	c6 40 4c 01	 mov	 BYTE PTR [rax+76], 1

; 964  : 				return LEX_LITERAL;

  0431f	b0 6c		 mov	 al, 108			; 0000006cH
  04321	e9 a4 2e 00 00	 jmp	 $LN1@token_reko
$LN79@token_reko:

; 965  : 			}
; 966  : 			break;

  04326	e9 3d 2a 00 00	 jmp	 $LN2@token_reko
$LN80@token_reko:

; 967  : 		}
; 968  : 		case 'u':
; 969  : 		{
; 970  : 			FST::FST graph_until(string, 6,

  0432b	48 8d 8d d8 51
	00 00		 lea	 rcx, QWORD PTR $T489[rbp]
  04332	e8 00 00 00 00	 call	 ??0NODE@FST@@QEAA@XZ	; FST::NODE::NODE
  04337	48 8d 8d e0 98
	00 00		 lea	 rcx, QWORD PTR $T948[rbp]
  0433e	48 8b f9	 mov	 rdi, rcx
  04341	48 8b f0	 mov	 rsi, rax
  04344	b9 10 00 00 00	 mov	 ecx, 16
  04349	f3 a4		 rep movsb
  0434b	66 41 b8 05 00	 mov	 r8w, 5
  04350	b2 6c		 mov	 dl, 108			; 0000006cH
  04352	48 8d 8d 34 52
	00 00		 lea	 rcx, QWORD PTR $T491[rbp]
  04359	e8 00 00 00 00	 call	 ??0RELATION@FST@@QEAA@DF@Z ; FST::RELATION::RELATION
  0435e	44 8b 00	 mov	 r8d, DWORD PTR [rax]
  04361	ba 01 00 00 00	 mov	 edx, 1
  04366	48 8d 8d 08 52
	00 00		 lea	 rcx, QWORD PTR $T490[rbp]
  0436d	e8 00 00 00 00	 call	 ??0NODE@FST@@QEAA@FURELATION@1@ZZ ; FST::NODE::NODE
  04372	48 8d 8d b0 98
	00 00		 lea	 rcx, QWORD PTR $T947[rbp]
  04379	48 8b f9	 mov	 rdi, rcx
  0437c	48 8b f0	 mov	 rsi, rax
  0437f	b9 10 00 00 00	 mov	 ecx, 16
  04384	f3 a4		 rep movsb
  04386	66 41 b8 04 00	 mov	 r8w, 4
  0438b	b2 69		 mov	 dl, 105			; 00000069H
  0438d	48 8d 8d 84 52
	00 00		 lea	 rcx, QWORD PTR $T493[rbp]
  04394	e8 00 00 00 00	 call	 ??0RELATION@FST@@QEAA@DF@Z ; FST::RELATION::RELATION
  04399	44 8b 00	 mov	 r8d, DWORD PTR [rax]
  0439c	ba 01 00 00 00	 mov	 edx, 1
  043a1	48 8d 8d 58 52
	00 00		 lea	 rcx, QWORD PTR $T492[rbp]
  043a8	e8 00 00 00 00	 call	 ??0NODE@FST@@QEAA@FURELATION@1@ZZ ; FST::NODE::NODE
  043ad	48 8d 8d 80 98
	00 00		 lea	 rcx, QWORD PTR $T946[rbp]
  043b4	48 8b f9	 mov	 rdi, rcx
  043b7	48 8b f0	 mov	 rsi, rax
  043ba	b9 10 00 00 00	 mov	 ecx, 16
  043bf	f3 a4		 rep movsb
  043c1	66 41 b8 03 00	 mov	 r8w, 3
  043c6	b2 74		 mov	 dl, 116			; 00000074H
  043c8	48 8d 8d d4 52
	00 00		 lea	 rcx, QWORD PTR $T495[rbp]
  043cf	e8 00 00 00 00	 call	 ??0RELATION@FST@@QEAA@DF@Z ; FST::RELATION::RELATION
  043d4	44 8b 00	 mov	 r8d, DWORD PTR [rax]
  043d7	ba 01 00 00 00	 mov	 edx, 1
  043dc	48 8d 8d a8 52
	00 00		 lea	 rcx, QWORD PTR $T494[rbp]
  043e3	e8 00 00 00 00	 call	 ??0NODE@FST@@QEAA@FURELATION@1@ZZ ; FST::NODE::NODE
  043e8	48 8d 8d 50 98
	00 00		 lea	 rcx, QWORD PTR $T945[rbp]
  043ef	48 8b f9	 mov	 rdi, rcx
  043f2	48 8b f0	 mov	 rsi, rax
  043f5	b9 10 00 00 00	 mov	 ecx, 16
  043fa	f3 a4		 rep movsb
  043fc	66 41 b8 02 00	 mov	 r8w, 2
  04401	b2 6e		 mov	 dl, 110			; 0000006eH
  04403	48 8d 8d 24 53
	00 00		 lea	 rcx, QWORD PTR $T497[rbp]
  0440a	e8 00 00 00 00	 call	 ??0RELATION@FST@@QEAA@DF@Z ; FST::RELATION::RELATION
  0440f	44 8b 00	 mov	 r8d, DWORD PTR [rax]
  04412	ba 01 00 00 00	 mov	 edx, 1
  04417	48 8d 8d f8 52
	00 00		 lea	 rcx, QWORD PTR $T496[rbp]
  0441e	e8 00 00 00 00	 call	 ??0NODE@FST@@QEAA@FURELATION@1@ZZ ; FST::NODE::NODE
  04423	48 8d 8d 20 98
	00 00		 lea	 rcx, QWORD PTR $T944[rbp]
  0442a	48 8b f9	 mov	 rdi, rcx
  0442d	48 8b f0	 mov	 rsi, rax
  04430	b9 10 00 00 00	 mov	 ecx, 16
  04435	f3 a4		 rep movsb
  04437	66 41 b8 01 00	 mov	 r8w, 1
  0443c	b2 75		 mov	 dl, 117			; 00000075H
  0443e	48 8d 8d 74 53
	00 00		 lea	 rcx, QWORD PTR $T499[rbp]
  04445	e8 00 00 00 00	 call	 ??0RELATION@FST@@QEAA@DF@Z ; FST::RELATION::RELATION
  0444a	44 8b 00	 mov	 r8d, DWORD PTR [rax]
  0444d	ba 01 00 00 00	 mov	 edx, 1
  04452	48 8d 8d 48 53
	00 00		 lea	 rcx, QWORD PTR $T498[rbp]
  04459	e8 00 00 00 00	 call	 ??0NODE@FST@@QEAA@FURELATION@1@ZZ ; FST::NODE::NODE
  0445e	48 8d 8d f0 97
	00 00		 lea	 rcx, QWORD PTR $T943[rbp]
  04465	48 8b f9	 mov	 rdi, rcx
  04468	48 8b f0	 mov	 rsi, rax
  0446b	b9 10 00 00 00	 mov	 ecx, 16
  04470	f3 a4		 rep movsb
  04472	48 8d 85 e0 98
	00 00		 lea	 rax, QWORD PTR $T948[rbp]
  04479	48 89 44 24 40	 mov	 QWORD PTR [rsp+64], rax
  0447e	48 8d 85 b0 98
	00 00		 lea	 rax, QWORD PTR $T947[rbp]
  04485	48 89 44 24 38	 mov	 QWORD PTR [rsp+56], rax
  0448a	48 8d 85 80 98
	00 00		 lea	 rax, QWORD PTR $T946[rbp]
  04491	48 89 44 24 30	 mov	 QWORD PTR [rsp+48], rax
  04496	48 8d 85 50 98
	00 00		 lea	 rax, QWORD PTR $T945[rbp]
  0449d	48 89 44 24 28	 mov	 QWORD PTR [rsp+40], rax
  044a2	48 8d 85 20 98
	00 00		 lea	 rax, QWORD PTR $T944[rbp]
  044a9	48 89 44 24 20	 mov	 QWORD PTR [rsp+32], rax
  044ae	4c 8d 8d f0 97
	00 00		 lea	 r9, QWORD PTR $T943[rbp]
  044b5	41 b8 06 00 00
	00		 mov	 r8d, 6
  044bb	48 8b 95 50 a4
	00 00		 mov	 rdx, QWORD PTR string$[rbp]
  044c2	48 8d 8d 28 10
	00 00		 lea	 rcx, QWORD PTR graph_until$109[rbp]
  044c9	e8 00 00 00 00	 call	 ??0FST@0@QEAA@PEADFUNODE@0@ZZ ; FST::FST::FST

; 971  : 				FST::NODE(1, FST::RELATION('u', 1)),
; 972  : 				FST::NODE(1, FST::RELATION('n', 2)),
; 973  : 				FST::NODE(1, FST::RELATION('t', 3)),
; 974  : 				FST::NODE(1, FST::RELATION('i', 4)),
; 975  : 				FST::NODE(1, FST::RELATION('l', 5)),
; 976  : 				FST::NODE());
; 977  : 			if (result = execute(graph_until)) {

  044ce	48 8d 8d 28 10
	00 00		 lea	 rcx, QWORD PTR graph_until$109[rbp]
  044d5	e8 00 00 00 00	 call	 ?execute@FST@@YA_NAEAU11@@Z ; FST::execute
  044da	88 85 04 04 00
	00		 mov	 BYTE PTR result$[rbp], al
  044e0	0f b6 85 04 04
	00 00		 movzx	 eax, BYTE PTR result$[rbp]
  044e7	85 c0		 test	 eax, eax
  044e9	74 0c		 je	 SHORT $LN81@token_reko

; 978  : 				return LEX_UNTIL;

  044eb	b0 75		 mov	 al, 117			; 00000075H
  044ed	e9 d8 2c 00 00	 jmp	 $LN1@token_reko

; 979  : 				break;

  044f2	e9 71 28 00 00	 jmp	 $LN2@token_reko
$LN81@token_reko:

; 980  : 			}
; 981  : 			break;

  044f7	e9 6c 28 00 00	 jmp	 $LN2@token_reko
$LN82@token_reko:

; 982  : 		}
; 983  : 		case 'w':
; 984  : 		{
; 985  : 			FST::FST graph_writeline(string, 10,

  044fc	48 8d 8d 98 53
	00 00		 lea	 rcx, QWORD PTR $T500[rbp]
  04503	e8 00 00 00 00	 call	 ??0NODE@FST@@QEAA@XZ	; FST::NODE::NODE
  04508	48 8d 8d c0 9a
	00 00		 lea	 rcx, QWORD PTR $T958[rbp]
  0450f	48 8b f9	 mov	 rdi, rcx
  04512	48 8b f0	 mov	 rsi, rax
  04515	b9 10 00 00 00	 mov	 ecx, 16
  0451a	f3 a4		 rep movsb
  0451c	66 41 b8 09 00	 mov	 r8w, 9
  04521	b2 65		 mov	 dl, 101			; 00000065H
  04523	48 8d 8d f4 53
	00 00		 lea	 rcx, QWORD PTR $T502[rbp]
  0452a	e8 00 00 00 00	 call	 ??0RELATION@FST@@QEAA@DF@Z ; FST::RELATION::RELATION
  0452f	44 8b 00	 mov	 r8d, DWORD PTR [rax]
  04532	ba 01 00 00 00	 mov	 edx, 1
  04537	48 8d 8d c8 53
	00 00		 lea	 rcx, QWORD PTR $T501[rbp]
  0453e	e8 00 00 00 00	 call	 ??0NODE@FST@@QEAA@FURELATION@1@ZZ ; FST::NODE::NODE
  04543	48 8d 8d 90 9a
	00 00		 lea	 rcx, QWORD PTR $T957[rbp]
  0454a	48 8b f9	 mov	 rdi, rcx
  0454d	48 8b f0	 mov	 rsi, rax
  04550	b9 10 00 00 00	 mov	 ecx, 16
  04555	f3 a4		 rep movsb
  04557	66 41 b8 08 00	 mov	 r8w, 8
  0455c	b2 6e		 mov	 dl, 110			; 0000006eH
  0455e	48 8d 8d 44 54
	00 00		 lea	 rcx, QWORD PTR $T504[rbp]
  04565	e8 00 00 00 00	 call	 ??0RELATION@FST@@QEAA@DF@Z ; FST::RELATION::RELATION
  0456a	44 8b 00	 mov	 r8d, DWORD PTR [rax]
  0456d	ba 01 00 00 00	 mov	 edx, 1
  04572	48 8d 8d 18 54
	00 00		 lea	 rcx, QWORD PTR $T503[rbp]
  04579	e8 00 00 00 00	 call	 ??0NODE@FST@@QEAA@FURELATION@1@ZZ ; FST::NODE::NODE
  0457e	48 8d 8d 60 9a
	00 00		 lea	 rcx, QWORD PTR $T956[rbp]
  04585	48 8b f9	 mov	 rdi, rcx
  04588	48 8b f0	 mov	 rsi, rax
  0458b	b9 10 00 00 00	 mov	 ecx, 16
  04590	f3 a4		 rep movsb
  04592	66 41 b8 07 00	 mov	 r8w, 7
  04597	b2 69		 mov	 dl, 105			; 00000069H
  04599	48 8d 8d 94 54
	00 00		 lea	 rcx, QWORD PTR $T506[rbp]
  045a0	e8 00 00 00 00	 call	 ??0RELATION@FST@@QEAA@DF@Z ; FST::RELATION::RELATION
  045a5	44 8b 00	 mov	 r8d, DWORD PTR [rax]
  045a8	ba 01 00 00 00	 mov	 edx, 1
  045ad	48 8d 8d 68 54
	00 00		 lea	 rcx, QWORD PTR $T505[rbp]
  045b4	e8 00 00 00 00	 call	 ??0NODE@FST@@QEAA@FURELATION@1@ZZ ; FST::NODE::NODE
  045b9	48 8d 8d 30 9a
	00 00		 lea	 rcx, QWORD PTR $T955[rbp]
  045c0	48 8b f9	 mov	 rdi, rcx
  045c3	48 8b f0	 mov	 rsi, rax
  045c6	b9 10 00 00 00	 mov	 ecx, 16
  045cb	f3 a4		 rep movsb
  045cd	66 41 b8 06 00	 mov	 r8w, 6
  045d2	b2 6c		 mov	 dl, 108			; 0000006cH
  045d4	48 8d 8d e4 54
	00 00		 lea	 rcx, QWORD PTR $T508[rbp]
  045db	e8 00 00 00 00	 call	 ??0RELATION@FST@@QEAA@DF@Z ; FST::RELATION::RELATION
  045e0	44 8b 00	 mov	 r8d, DWORD PTR [rax]
  045e3	ba 01 00 00 00	 mov	 edx, 1
  045e8	48 8d 8d b8 54
	00 00		 lea	 rcx, QWORD PTR $T507[rbp]
  045ef	e8 00 00 00 00	 call	 ??0NODE@FST@@QEAA@FURELATION@1@ZZ ; FST::NODE::NODE
  045f4	48 8d 8d 00 9a
	00 00		 lea	 rcx, QWORD PTR $T954[rbp]
  045fb	48 8b f9	 mov	 rdi, rcx
  045fe	48 8b f0	 mov	 rsi, rax
  04601	b9 10 00 00 00	 mov	 ecx, 16
  04606	f3 a4		 rep movsb
  04608	66 41 b8 05 00	 mov	 r8w, 5
  0460d	b2 65		 mov	 dl, 101			; 00000065H
  0460f	48 8d 8d 34 55
	00 00		 lea	 rcx, QWORD PTR $T510[rbp]
  04616	e8 00 00 00 00	 call	 ??0RELATION@FST@@QEAA@DF@Z ; FST::RELATION::RELATION
  0461b	44 8b 00	 mov	 r8d, DWORD PTR [rax]
  0461e	ba 01 00 00 00	 mov	 edx, 1
  04623	48 8d 8d 08 55
	00 00		 lea	 rcx, QWORD PTR $T509[rbp]
  0462a	e8 00 00 00 00	 call	 ??0NODE@FST@@QEAA@FURELATION@1@ZZ ; FST::NODE::NODE
  0462f	48 8d 8d d0 99
	00 00		 lea	 rcx, QWORD PTR $T953[rbp]
  04636	48 8b f9	 mov	 rdi, rcx
  04639	48 8b f0	 mov	 rsi, rax
  0463c	b9 10 00 00 00	 mov	 ecx, 16
  04641	f3 a4		 rep movsb
  04643	66 41 b8 04 00	 mov	 r8w, 4
  04648	b2 74		 mov	 dl, 116			; 00000074H
  0464a	48 8d 8d 84 55
	00 00		 lea	 rcx, QWORD PTR $T512[rbp]
  04651	e8 00 00 00 00	 call	 ??0RELATION@FST@@QEAA@DF@Z ; FST::RELATION::RELATION
  04656	44 8b 00	 mov	 r8d, DWORD PTR [rax]
  04659	ba 01 00 00 00	 mov	 edx, 1
  0465e	48 8d 8d 58 55
	00 00		 lea	 rcx, QWORD PTR $T511[rbp]
  04665	e8 00 00 00 00	 call	 ??0NODE@FST@@QEAA@FURELATION@1@ZZ ; FST::NODE::NODE
  0466a	48 8d 8d a0 99
	00 00		 lea	 rcx, QWORD PTR $T952[rbp]
  04671	48 8b f9	 mov	 rdi, rcx
  04674	48 8b f0	 mov	 rsi, rax
  04677	b9 10 00 00 00	 mov	 ecx, 16
  0467c	f3 a4		 rep movsb
  0467e	66 41 b8 03 00	 mov	 r8w, 3
  04683	b2 69		 mov	 dl, 105			; 00000069H
  04685	48 8d 8d d4 55
	00 00		 lea	 rcx, QWORD PTR $T514[rbp]
  0468c	e8 00 00 00 00	 call	 ??0RELATION@FST@@QEAA@DF@Z ; FST::RELATION::RELATION
  04691	44 8b 00	 mov	 r8d, DWORD PTR [rax]
  04694	ba 01 00 00 00	 mov	 edx, 1
  04699	48 8d 8d a8 55
	00 00		 lea	 rcx, QWORD PTR $T513[rbp]
  046a0	e8 00 00 00 00	 call	 ??0NODE@FST@@QEAA@FURELATION@1@ZZ ; FST::NODE::NODE
  046a5	48 8d 8d 70 99
	00 00		 lea	 rcx, QWORD PTR $T951[rbp]
  046ac	48 8b f9	 mov	 rdi, rcx
  046af	48 8b f0	 mov	 rsi, rax
  046b2	b9 10 00 00 00	 mov	 ecx, 16
  046b7	f3 a4		 rep movsb
  046b9	66 41 b8 02 00	 mov	 r8w, 2
  046be	b2 72		 mov	 dl, 114			; 00000072H
  046c0	48 8d 8d 24 56
	00 00		 lea	 rcx, QWORD PTR $T516[rbp]
  046c7	e8 00 00 00 00	 call	 ??0RELATION@FST@@QEAA@DF@Z ; FST::RELATION::RELATION
  046cc	44 8b 00	 mov	 r8d, DWORD PTR [rax]
  046cf	ba 01 00 00 00	 mov	 edx, 1
  046d4	48 8d 8d f8 55
	00 00		 lea	 rcx, QWORD PTR $T515[rbp]
  046db	e8 00 00 00 00	 call	 ??0NODE@FST@@QEAA@FURELATION@1@ZZ ; FST::NODE::NODE
  046e0	48 8d 8d 40 99
	00 00		 lea	 rcx, QWORD PTR $T950[rbp]
  046e7	48 8b f9	 mov	 rdi, rcx
  046ea	48 8b f0	 mov	 rsi, rax
  046ed	b9 10 00 00 00	 mov	 ecx, 16
  046f2	f3 a4		 rep movsb
  046f4	66 41 b8 01 00	 mov	 r8w, 1
  046f9	b2 77		 mov	 dl, 119			; 00000077H
  046fb	48 8d 8d 74 56
	00 00		 lea	 rcx, QWORD PTR $T518[rbp]
  04702	e8 00 00 00 00	 call	 ??0RELATION@FST@@QEAA@DF@Z ; FST::RELATION::RELATION
  04707	44 8b 00	 mov	 r8d, DWORD PTR [rax]
  0470a	ba 01 00 00 00	 mov	 edx, 1
  0470f	48 8d 8d 48 56
	00 00		 lea	 rcx, QWORD PTR $T517[rbp]
  04716	e8 00 00 00 00	 call	 ??0NODE@FST@@QEAA@FURELATION@1@ZZ ; FST::NODE::NODE
  0471b	48 8d 8d 10 99
	00 00		 lea	 rcx, QWORD PTR $T949[rbp]
  04722	48 8b f9	 mov	 rdi, rcx
  04725	48 8b f0	 mov	 rsi, rax
  04728	b9 10 00 00 00	 mov	 ecx, 16
  0472d	f3 a4		 rep movsb
  0472f	48 8d 85 c0 9a
	00 00		 lea	 rax, QWORD PTR $T958[rbp]
  04736	48 89 44 24 60	 mov	 QWORD PTR [rsp+96], rax
  0473b	48 8d 85 90 9a
	00 00		 lea	 rax, QWORD PTR $T957[rbp]
  04742	48 89 44 24 58	 mov	 QWORD PTR [rsp+88], rax
  04747	48 8d 85 60 9a
	00 00		 lea	 rax, QWORD PTR $T956[rbp]
  0474e	48 89 44 24 50	 mov	 QWORD PTR [rsp+80], rax
  04753	48 8d 85 30 9a
	00 00		 lea	 rax, QWORD PTR $T955[rbp]
  0475a	48 89 44 24 48	 mov	 QWORD PTR [rsp+72], rax
  0475f	48 8d 85 00 9a
	00 00		 lea	 rax, QWORD PTR $T954[rbp]
  04766	48 89 44 24 40	 mov	 QWORD PTR [rsp+64], rax
  0476b	48 8d 85 d0 99
	00 00		 lea	 rax, QWORD PTR $T953[rbp]
  04772	48 89 44 24 38	 mov	 QWORD PTR [rsp+56], rax
  04777	48 8d 85 a0 99
	00 00		 lea	 rax, QWORD PTR $T952[rbp]
  0477e	48 89 44 24 30	 mov	 QWORD PTR [rsp+48], rax
  04783	48 8d 85 70 99
	00 00		 lea	 rax, QWORD PTR $T951[rbp]
  0478a	48 89 44 24 28	 mov	 QWORD PTR [rsp+40], rax
  0478f	48 8d 85 40 99
	00 00		 lea	 rax, QWORD PTR $T950[rbp]
  04796	48 89 44 24 20	 mov	 QWORD PTR [rsp+32], rax
  0479b	4c 8d 8d 10 99
	00 00		 lea	 r9, QWORD PTR $T949[rbp]
  047a2	41 b8 0a 00 00
	00		 mov	 r8d, 10
  047a8	48 8b 95 50 a4
	00 00		 mov	 rdx, QWORD PTR string$[rbp]
  047af	48 8d 8d 68 10
	00 00		 lea	 rcx, QWORD PTR graph_writeline$110[rbp]
  047b6	e8 00 00 00 00	 call	 ??0FST@0@QEAA@PEADFUNODE@0@ZZ ; FST::FST::FST

; 986  : 				FST::NODE(1, FST::RELATION('w', 1)),
; 987  : 				FST::NODE(1, FST::RELATION('r', 2)),
; 988  : 				FST::NODE(1, FST::RELATION('i', 3)),
; 989  : 				FST::NODE(1, FST::RELATION('t', 4)),
; 990  : 				FST::NODE(1, FST::RELATION('e', 5)),
; 991  : 				FST::NODE(1, FST::RELATION('l', 6)),
; 992  : 				FST::NODE(1, FST::RELATION('i', 7)),
; 993  : 				FST::NODE(1, FST::RELATION('n', 8)),
; 994  : 				FST::NODE(1, FST::RELATION('e', 9)),
; 995  : 				FST::NODE());
; 996  : 			if (result = execute(graph_writeline)) {

  047bb	48 8d 8d 68 10
	00 00		 lea	 rcx, QWORD PTR graph_writeline$110[rbp]
  047c2	e8 00 00 00 00	 call	 ?execute@FST@@YA_NAEAU11@@Z ; FST::execute
  047c7	88 85 04 04 00
	00		 mov	 BYTE PTR result$[rbp], al
  047cd	0f b6 85 04 04
	00 00		 movzx	 eax, BYTE PTR result$[rbp]
  047d4	85 c0		 test	 eax, eax
  047d6	74 33		 je	 SHORT $LN83@token_reko

; 997  : 				entry->idtype = IT::IDTYPE::E;

  047d8	48 8b 85 58 a4
	00 00		 mov	 rax, QWORD PTR entry$[rbp]
  047df	c7 40 44 06 00
	00 00		 mov	 DWORD PTR [rax+68], 6

; 998  : 				entry->iddatatype = IT::STR;

  047e6	48 8b 85 58 a4
	00 00		 mov	 rax, QWORD PTR entry$[rbp]
  047ed	c7 40 40 02 00
	00 00		 mov	 DWORD PTR [rax+64], 2

; 999  : 				entry->value.vbool = 0;

  047f4	48 8b 85 58 a4
	00 00		 mov	 rax, QWORD PTR entry$[rbp]
  047fb	c6 40 4c 00	 mov	 BYTE PTR [rax+76], 0

; 1000 : 				return LEX_WRITEL;

  047ff	b0 77		 mov	 al, 119			; 00000077H
  04801	e9 c4 29 00 00	 jmp	 $LN1@token_reko

; 1001 : 				break;

  04806	e9 5d 25 00 00	 jmp	 $LN2@token_reko
$LN83@token_reko:

; 1002 : 			}
; 1003 : 			FST::FST graph_warnins(string, 9,

  0480b	48 8d 8d 98 56
	00 00		 lea	 rcx, QWORD PTR $T519[rbp]
  04812	e8 00 00 00 00	 call	 ??0NODE@FST@@QEAA@XZ	; FST::NODE::NODE
  04817	48 8d 8d 70 9c
	00 00		 lea	 rcx, QWORD PTR $T967[rbp]
  0481e	48 8b f9	 mov	 rdi, rcx
  04821	48 8b f0	 mov	 rsi, rax
  04824	b9 10 00 00 00	 mov	 ecx, 16
  04829	f3 a4		 rep movsb
  0482b	66 41 b8 08 00	 mov	 r8w, 8
  04830	b2 73		 mov	 dl, 115			; 00000073H
  04832	48 8d 8d f4 56
	00 00		 lea	 rcx, QWORD PTR $T521[rbp]
  04839	e8 00 00 00 00	 call	 ??0RELATION@FST@@QEAA@DF@Z ; FST::RELATION::RELATION
  0483e	44 8b 00	 mov	 r8d, DWORD PTR [rax]
  04841	ba 01 00 00 00	 mov	 edx, 1
  04846	48 8d 8d c8 56
	00 00		 lea	 rcx, QWORD PTR $T520[rbp]
  0484d	e8 00 00 00 00	 call	 ??0NODE@FST@@QEAA@FURELATION@1@ZZ ; FST::NODE::NODE
  04852	48 8d 8d 40 9c
	00 00		 lea	 rcx, QWORD PTR $T966[rbp]
  04859	48 8b f9	 mov	 rdi, rcx
  0485c	48 8b f0	 mov	 rsi, rax
  0485f	b9 10 00 00 00	 mov	 ecx, 16
  04864	f3 a4		 rep movsb
  04866	66 41 b8 07 00	 mov	 r8w, 7
  0486b	b2 67		 mov	 dl, 103			; 00000067H
  0486d	48 8d 8d 44 57
	00 00		 lea	 rcx, QWORD PTR $T523[rbp]
  04874	e8 00 00 00 00	 call	 ??0RELATION@FST@@QEAA@DF@Z ; FST::RELATION::RELATION
  04879	44 8b 00	 mov	 r8d, DWORD PTR [rax]
  0487c	ba 01 00 00 00	 mov	 edx, 1
  04881	48 8d 8d 18 57
	00 00		 lea	 rcx, QWORD PTR $T522[rbp]
  04888	e8 00 00 00 00	 call	 ??0NODE@FST@@QEAA@FURELATION@1@ZZ ; FST::NODE::NODE
  0488d	48 8d 8d 10 9c
	00 00		 lea	 rcx, QWORD PTR $T965[rbp]
  04894	48 8b f9	 mov	 rdi, rcx
  04897	48 8b f0	 mov	 rsi, rax
  0489a	b9 10 00 00 00	 mov	 ecx, 16
  0489f	f3 a4		 rep movsb
  048a1	66 41 b8 06 00	 mov	 r8w, 6
  048a6	b2 6e		 mov	 dl, 110			; 0000006eH
  048a8	48 8d 8d 94 57
	00 00		 lea	 rcx, QWORD PTR $T525[rbp]
  048af	e8 00 00 00 00	 call	 ??0RELATION@FST@@QEAA@DF@Z ; FST::RELATION::RELATION
  048b4	44 8b 00	 mov	 r8d, DWORD PTR [rax]
  048b7	ba 01 00 00 00	 mov	 edx, 1
  048bc	48 8d 8d 68 57
	00 00		 lea	 rcx, QWORD PTR $T524[rbp]
  048c3	e8 00 00 00 00	 call	 ??0NODE@FST@@QEAA@FURELATION@1@ZZ ; FST::NODE::NODE
  048c8	48 8d 8d e0 9b
	00 00		 lea	 rcx, QWORD PTR $T964[rbp]
  048cf	48 8b f9	 mov	 rdi, rcx
  048d2	48 8b f0	 mov	 rsi, rax
  048d5	b9 10 00 00 00	 mov	 ecx, 16
  048da	f3 a4		 rep movsb
  048dc	66 41 b8 05 00	 mov	 r8w, 5
  048e1	b2 69		 mov	 dl, 105			; 00000069H
  048e3	48 8d 8d e4 57
	00 00		 lea	 rcx, QWORD PTR $T527[rbp]
  048ea	e8 00 00 00 00	 call	 ??0RELATION@FST@@QEAA@DF@Z ; FST::RELATION::RELATION
  048ef	44 8b 00	 mov	 r8d, DWORD PTR [rax]
  048f2	ba 01 00 00 00	 mov	 edx, 1
  048f7	48 8d 8d b8 57
	00 00		 lea	 rcx, QWORD PTR $T526[rbp]
  048fe	e8 00 00 00 00	 call	 ??0NODE@FST@@QEAA@FURELATION@1@ZZ ; FST::NODE::NODE
  04903	48 8d 8d b0 9b
	00 00		 lea	 rcx, QWORD PTR $T963[rbp]
  0490a	48 8b f9	 mov	 rdi, rcx
  0490d	48 8b f0	 mov	 rsi, rax
  04910	b9 10 00 00 00	 mov	 ecx, 16
  04915	f3 a4		 rep movsb
  04917	66 41 b8 04 00	 mov	 r8w, 4
  0491c	b2 6e		 mov	 dl, 110			; 0000006eH
  0491e	48 8d 8d 34 58
	00 00		 lea	 rcx, QWORD PTR $T529[rbp]
  04925	e8 00 00 00 00	 call	 ??0RELATION@FST@@QEAA@DF@Z ; FST::RELATION::RELATION
  0492a	44 8b 00	 mov	 r8d, DWORD PTR [rax]
  0492d	ba 01 00 00 00	 mov	 edx, 1
  04932	48 8d 8d 08 58
	00 00		 lea	 rcx, QWORD PTR $T528[rbp]
  04939	e8 00 00 00 00	 call	 ??0NODE@FST@@QEAA@FURELATION@1@ZZ ; FST::NODE::NODE
  0493e	48 8d 8d 80 9b
	00 00		 lea	 rcx, QWORD PTR $T962[rbp]
  04945	48 8b f9	 mov	 rdi, rcx
  04948	48 8b f0	 mov	 rsi, rax
  0494b	b9 10 00 00 00	 mov	 ecx, 16
  04950	f3 a4		 rep movsb
  04952	66 41 b8 03 00	 mov	 r8w, 3
  04957	b2 72		 mov	 dl, 114			; 00000072H
  04959	48 8d 8d 84 58
	00 00		 lea	 rcx, QWORD PTR $T531[rbp]
  04960	e8 00 00 00 00	 call	 ??0RELATION@FST@@QEAA@DF@Z ; FST::RELATION::RELATION
  04965	44 8b 00	 mov	 r8d, DWORD PTR [rax]
  04968	ba 01 00 00 00	 mov	 edx, 1
  0496d	48 8d 8d 58 58
	00 00		 lea	 rcx, QWORD PTR $T530[rbp]
  04974	e8 00 00 00 00	 call	 ??0NODE@FST@@QEAA@FURELATION@1@ZZ ; FST::NODE::NODE
  04979	48 8d 8d 50 9b
	00 00		 lea	 rcx, QWORD PTR $T961[rbp]
  04980	48 8b f9	 mov	 rdi, rcx
  04983	48 8b f0	 mov	 rsi, rax
  04986	b9 10 00 00 00	 mov	 ecx, 16
  0498b	f3 a4		 rep movsb
  0498d	66 41 b8 02 00	 mov	 r8w, 2
  04992	b2 61		 mov	 dl, 97			; 00000061H
  04994	48 8d 8d d4 58
	00 00		 lea	 rcx, QWORD PTR $T533[rbp]
  0499b	e8 00 00 00 00	 call	 ??0RELATION@FST@@QEAA@DF@Z ; FST::RELATION::RELATION
  049a0	44 8b 00	 mov	 r8d, DWORD PTR [rax]
  049a3	ba 01 00 00 00	 mov	 edx, 1
  049a8	48 8d 8d a8 58
	00 00		 lea	 rcx, QWORD PTR $T532[rbp]
  049af	e8 00 00 00 00	 call	 ??0NODE@FST@@QEAA@FURELATION@1@ZZ ; FST::NODE::NODE
  049b4	48 8d 8d 20 9b
	00 00		 lea	 rcx, QWORD PTR $T960[rbp]
  049bb	48 8b f9	 mov	 rdi, rcx
  049be	48 8b f0	 mov	 rsi, rax
  049c1	b9 10 00 00 00	 mov	 ecx, 16
  049c6	f3 a4		 rep movsb
  049c8	66 41 b8 01 00	 mov	 r8w, 1
  049cd	b2 77		 mov	 dl, 119			; 00000077H
  049cf	48 8d 8d 24 59
	00 00		 lea	 rcx, QWORD PTR $T535[rbp]
  049d6	e8 00 00 00 00	 call	 ??0RELATION@FST@@QEAA@DF@Z ; FST::RELATION::RELATION
  049db	44 8b 00	 mov	 r8d, DWORD PTR [rax]
  049de	ba 01 00 00 00	 mov	 edx, 1
  049e3	48 8d 8d f8 58
	00 00		 lea	 rcx, QWORD PTR $T534[rbp]
  049ea	e8 00 00 00 00	 call	 ??0NODE@FST@@QEAA@FURELATION@1@ZZ ; FST::NODE::NODE
  049ef	48 8d 8d f0 9a
	00 00		 lea	 rcx, QWORD PTR $T959[rbp]
  049f6	48 8b f9	 mov	 rdi, rcx
  049f9	48 8b f0	 mov	 rsi, rax
  049fc	b9 10 00 00 00	 mov	 ecx, 16
  04a01	f3 a4		 rep movsb
  04a03	48 8d 85 70 9c
	00 00		 lea	 rax, QWORD PTR $T967[rbp]
  04a0a	48 89 44 24 58	 mov	 QWORD PTR [rsp+88], rax
  04a0f	48 8d 85 40 9c
	00 00		 lea	 rax, QWORD PTR $T966[rbp]
  04a16	48 89 44 24 50	 mov	 QWORD PTR [rsp+80], rax
  04a1b	48 8d 85 10 9c
	00 00		 lea	 rax, QWORD PTR $T965[rbp]
  04a22	48 89 44 24 48	 mov	 QWORD PTR [rsp+72], rax
  04a27	48 8d 85 e0 9b
	00 00		 lea	 rax, QWORD PTR $T964[rbp]
  04a2e	48 89 44 24 40	 mov	 QWORD PTR [rsp+64], rax
  04a33	48 8d 85 b0 9b
	00 00		 lea	 rax, QWORD PTR $T963[rbp]
  04a3a	48 89 44 24 38	 mov	 QWORD PTR [rsp+56], rax
  04a3f	48 8d 85 80 9b
	00 00		 lea	 rax, QWORD PTR $T962[rbp]
  04a46	48 89 44 24 30	 mov	 QWORD PTR [rsp+48], rax
  04a4b	48 8d 85 50 9b
	00 00		 lea	 rax, QWORD PTR $T961[rbp]
  04a52	48 89 44 24 28	 mov	 QWORD PTR [rsp+40], rax
  04a57	48 8d 85 20 9b
	00 00		 lea	 rax, QWORD PTR $T960[rbp]
  04a5e	48 89 44 24 20	 mov	 QWORD PTR [rsp+32], rax
  04a63	4c 8d 8d f0 9a
	00 00		 lea	 r9, QWORD PTR $T959[rbp]
  04a6a	41 b8 09 00 00
	00		 mov	 r8d, 9
  04a70	48 8b 95 50 a4
	00 00		 mov	 rdx, QWORD PTR string$[rbp]
  04a77	48 8d 8d a8 10
	00 00		 lea	 rcx, QWORD PTR graph_warnins$111[rbp]
  04a7e	e8 00 00 00 00	 call	 ??0FST@0@QEAA@PEADFUNODE@0@ZZ ; FST::FST::FST

; 1004 : 				FST::NODE(1, FST::RELATION('w', 1)),
; 1005 : 				FST::NODE(1, FST::RELATION('a', 2)),
; 1006 : 				FST::NODE(1, FST::RELATION('r', 3)),
; 1007 : 				FST::NODE(1, FST::RELATION('n', 4)),
; 1008 : 				FST::NODE(1, FST::RELATION('i', 5)),
; 1009 : 				FST::NODE(1, FST::RELATION('n', 6)),
; 1010 : 				FST::NODE(1, FST::RELATION('g', 7)),
; 1011 : 				FST::NODE(1, FST::RELATION('s', 8)),
; 1012 : 				FST::NODE());
; 1013 : 			if (result = execute(graph_writeline)) {

  04a83	48 8d 8d 68 10
	00 00		 lea	 rcx, QWORD PTR graph_writeline$110[rbp]
  04a8a	e8 00 00 00 00	 call	 ?execute@FST@@YA_NAEAU11@@Z ; FST::execute
  04a8f	88 85 04 04 00
	00		 mov	 BYTE PTR result$[rbp], al
  04a95	0f b6 85 04 04
	00 00		 movzx	 eax, BYTE PTR result$[rbp]
  04a9c	85 c0		 test	 eax, eax
  04a9e	74 33		 je	 SHORT $LN84@token_reko

; 1014 : 				entry->idtype = IT::IDTYPE::W;

  04aa0	48 8b 85 58 a4
	00 00		 mov	 rax, QWORD PTR entry$[rbp]
  04aa7	c7 40 44 09 00
	00 00		 mov	 DWORD PTR [rax+68], 9

; 1015 : 				entry->iddatatype = IT::BOOL;

  04aae	48 8b 85 58 a4
	00 00		 mov	 rax, QWORD PTR entry$[rbp]
  04ab5	c7 40 40 05 00
	00 00		 mov	 DWORD PTR [rax+64], 5

; 1016 : 				entry->value.vbool = 0;

  04abc	48 8b 85 58 a4
	00 00		 mov	 rax, QWORD PTR entry$[rbp]
  04ac3	c6 40 4c 00	 mov	 BYTE PTR [rax+76], 0

; 1017 : 				return LEX_WRITEL;

  04ac7	b0 77		 mov	 al, 119			; 00000077H
  04ac9	e9 fc 26 00 00	 jmp	 $LN1@token_reko

; 1018 : 				break;

  04ace	e9 95 22 00 00	 jmp	 $LN2@token_reko
$LN84@token_reko:

; 1019 : 			}
; 1020 : 			FST::FST graph_write(string, 6,

  04ad3	48 8d 8d 48 59
	00 00		 lea	 rcx, QWORD PTR $T536[rbp]
  04ada	e8 00 00 00 00	 call	 ??0NODE@FST@@QEAA@XZ	; FST::NODE::NODE
  04adf	48 8d 8d 90 9d
	00 00		 lea	 rcx, QWORD PTR $T973[rbp]
  04ae6	48 8b f9	 mov	 rdi, rcx
  04ae9	48 8b f0	 mov	 rsi, rax
  04aec	b9 10 00 00 00	 mov	 ecx, 16
  04af1	f3 a4		 rep movsb
  04af3	66 41 b8 05 00	 mov	 r8w, 5
  04af8	b2 65		 mov	 dl, 101			; 00000065H
  04afa	48 8d 8d a4 59
	00 00		 lea	 rcx, QWORD PTR $T538[rbp]
  04b01	e8 00 00 00 00	 call	 ??0RELATION@FST@@QEAA@DF@Z ; FST::RELATION::RELATION
  04b06	44 8b 00	 mov	 r8d, DWORD PTR [rax]
  04b09	ba 01 00 00 00	 mov	 edx, 1
  04b0e	48 8d 8d 78 59
	00 00		 lea	 rcx, QWORD PTR $T537[rbp]
  04b15	e8 00 00 00 00	 call	 ??0NODE@FST@@QEAA@FURELATION@1@ZZ ; FST::NODE::NODE
  04b1a	48 8d 8d 60 9d
	00 00		 lea	 rcx, QWORD PTR $T972[rbp]
  04b21	48 8b f9	 mov	 rdi, rcx
  04b24	48 8b f0	 mov	 rsi, rax
  04b27	b9 10 00 00 00	 mov	 ecx, 16
  04b2c	f3 a4		 rep movsb
  04b2e	66 41 b8 04 00	 mov	 r8w, 4
  04b33	b2 74		 mov	 dl, 116			; 00000074H
  04b35	48 8d 8d f4 59
	00 00		 lea	 rcx, QWORD PTR $T540[rbp]
  04b3c	e8 00 00 00 00	 call	 ??0RELATION@FST@@QEAA@DF@Z ; FST::RELATION::RELATION
  04b41	44 8b 00	 mov	 r8d, DWORD PTR [rax]
  04b44	ba 01 00 00 00	 mov	 edx, 1
  04b49	48 8d 8d c8 59
	00 00		 lea	 rcx, QWORD PTR $T539[rbp]
  04b50	e8 00 00 00 00	 call	 ??0NODE@FST@@QEAA@FURELATION@1@ZZ ; FST::NODE::NODE
  04b55	48 8d 8d 30 9d
	00 00		 lea	 rcx, QWORD PTR $T971[rbp]
  04b5c	48 8b f9	 mov	 rdi, rcx
  04b5f	48 8b f0	 mov	 rsi, rax
  04b62	b9 10 00 00 00	 mov	 ecx, 16
  04b67	f3 a4		 rep movsb
  04b69	66 41 b8 03 00	 mov	 r8w, 3
  04b6e	b2 69		 mov	 dl, 105			; 00000069H
  04b70	48 8d 8d 44 5a
	00 00		 lea	 rcx, QWORD PTR $T542[rbp]
  04b77	e8 00 00 00 00	 call	 ??0RELATION@FST@@QEAA@DF@Z ; FST::RELATION::RELATION
  04b7c	44 8b 00	 mov	 r8d, DWORD PTR [rax]
  04b7f	ba 01 00 00 00	 mov	 edx, 1
  04b84	48 8d 8d 18 5a
	00 00		 lea	 rcx, QWORD PTR $T541[rbp]
  04b8b	e8 00 00 00 00	 call	 ??0NODE@FST@@QEAA@FURELATION@1@ZZ ; FST::NODE::NODE
  04b90	48 8d 8d 00 9d
	00 00		 lea	 rcx, QWORD PTR $T970[rbp]
  04b97	48 8b f9	 mov	 rdi, rcx
  04b9a	48 8b f0	 mov	 rsi, rax
  04b9d	b9 10 00 00 00	 mov	 ecx, 16
  04ba2	f3 a4		 rep movsb
  04ba4	66 41 b8 02 00	 mov	 r8w, 2
  04ba9	b2 72		 mov	 dl, 114			; 00000072H
  04bab	48 8d 8d 94 5a
	00 00		 lea	 rcx, QWORD PTR $T544[rbp]
  04bb2	e8 00 00 00 00	 call	 ??0RELATION@FST@@QEAA@DF@Z ; FST::RELATION::RELATION
  04bb7	44 8b 00	 mov	 r8d, DWORD PTR [rax]
  04bba	ba 01 00 00 00	 mov	 edx, 1
  04bbf	48 8d 8d 68 5a
	00 00		 lea	 rcx, QWORD PTR $T543[rbp]
  04bc6	e8 00 00 00 00	 call	 ??0NODE@FST@@QEAA@FURELATION@1@ZZ ; FST::NODE::NODE
  04bcb	48 8d 8d d0 9c
	00 00		 lea	 rcx, QWORD PTR $T969[rbp]
  04bd2	48 8b f9	 mov	 rdi, rcx
  04bd5	48 8b f0	 mov	 rsi, rax
  04bd8	b9 10 00 00 00	 mov	 ecx, 16
  04bdd	f3 a4		 rep movsb
  04bdf	66 41 b8 01 00	 mov	 r8w, 1
  04be4	b2 77		 mov	 dl, 119			; 00000077H
  04be6	48 8d 8d e4 5a
	00 00		 lea	 rcx, QWORD PTR $T546[rbp]
  04bed	e8 00 00 00 00	 call	 ??0RELATION@FST@@QEAA@DF@Z ; FST::RELATION::RELATION
  04bf2	44 8b 00	 mov	 r8d, DWORD PTR [rax]
  04bf5	ba 01 00 00 00	 mov	 edx, 1
  04bfa	48 8d 8d b8 5a
	00 00		 lea	 rcx, QWORD PTR $T545[rbp]
  04c01	e8 00 00 00 00	 call	 ??0NODE@FST@@QEAA@FURELATION@1@ZZ ; FST::NODE::NODE
  04c06	48 8d 8d a0 9c
	00 00		 lea	 rcx, QWORD PTR $T968[rbp]
  04c0d	48 8b f9	 mov	 rdi, rcx
  04c10	48 8b f0	 mov	 rsi, rax
  04c13	b9 10 00 00 00	 mov	 ecx, 16
  04c18	f3 a4		 rep movsb
  04c1a	48 8d 85 90 9d
	00 00		 lea	 rax, QWORD PTR $T973[rbp]
  04c21	48 89 44 24 40	 mov	 QWORD PTR [rsp+64], rax
  04c26	48 8d 85 60 9d
	00 00		 lea	 rax, QWORD PTR $T972[rbp]
  04c2d	48 89 44 24 38	 mov	 QWORD PTR [rsp+56], rax
  04c32	48 8d 85 30 9d
	00 00		 lea	 rax, QWORD PTR $T971[rbp]
  04c39	48 89 44 24 30	 mov	 QWORD PTR [rsp+48], rax
  04c3e	48 8d 85 00 9d
	00 00		 lea	 rax, QWORD PTR $T970[rbp]
  04c45	48 89 44 24 28	 mov	 QWORD PTR [rsp+40], rax
  04c4a	48 8d 85 d0 9c
	00 00		 lea	 rax, QWORD PTR $T969[rbp]
  04c51	48 89 44 24 20	 mov	 QWORD PTR [rsp+32], rax
  04c56	4c 8d 8d a0 9c
	00 00		 lea	 r9, QWORD PTR $T968[rbp]
  04c5d	41 b8 06 00 00
	00		 mov	 r8d, 6
  04c63	48 8b 95 50 a4
	00 00		 mov	 rdx, QWORD PTR string$[rbp]
  04c6a	48 8d 8d e8 10
	00 00		 lea	 rcx, QWORD PTR graph_write$112[rbp]
  04c71	e8 00 00 00 00	 call	 ??0FST@0@QEAA@PEADFUNODE@0@ZZ ; FST::FST::FST

; 1021 : 				FST::NODE(1, FST::RELATION('w', 1)),
; 1022 : 				FST::NODE(1, FST::RELATION('r', 2)),
; 1023 : 				FST::NODE(1, FST::RELATION('i', 3)),
; 1024 : 				FST::NODE(1, FST::RELATION('t', 4)),
; 1025 : 				FST::NODE(1, FST::RELATION('e', 5)),
; 1026 : 				FST::NODE());
; 1027 : 			if (result = execute(graph_write)) {

  04c76	48 8d 8d e8 10
	00 00		 lea	 rcx, QWORD PTR graph_write$112[rbp]
  04c7d	e8 00 00 00 00	 call	 ?execute@FST@@YA_NAEAU11@@Z ; FST::execute
  04c82	88 85 04 04 00
	00		 mov	 BYTE PTR result$[rbp], al
  04c88	0f b6 85 04 04
	00 00		 movzx	 eax, BYTE PTR result$[rbp]
  04c8f	85 c0		 test	 eax, eax
  04c91	74 33		 je	 SHORT $LN85@token_reko

; 1028 : 				entry->idtype = IT::IDTYPE::E;

  04c93	48 8b 85 58 a4
	00 00		 mov	 rax, QWORD PTR entry$[rbp]
  04c9a	c7 40 44 06 00
	00 00		 mov	 DWORD PTR [rax+68], 6

; 1029 : 				entry->iddatatype = IT::STR;

  04ca1	48 8b 85 58 a4
	00 00		 mov	 rax, QWORD PTR entry$[rbp]
  04ca8	c7 40 40 02 00
	00 00		 mov	 DWORD PTR [rax+64], 2

; 1030 : 				entry->value.vbool = 1;

  04caf	48 8b 85 58 a4
	00 00		 mov	 rax, QWORD PTR entry$[rbp]
  04cb6	c6 40 4c 01	 mov	 BYTE PTR [rax+76], 1

; 1031 : 				return LEX_WRITEL;

  04cba	b0 77		 mov	 al, 119			; 00000077H
  04cbc	e9 09 25 00 00	 jmp	 $LN1@token_reko

; 1032 : 				break;

  04cc1	e9 a2 20 00 00	 jmp	 $LN2@token_reko
$LN85@token_reko:

; 1033 : 			}
; 1034 : 			break;

  04cc6	e9 9d 20 00 00	 jmp	 $LN2@token_reko
$LN86@token_reko:

; 1035 : 		}
; 1036 : 		case '{':
; 1037 : 		{
; 1038 : 			FST::FST graph(string, 1,

  04ccb	45 33 c0	 xor	 r8d, r8d
  04cce	b2 7b		 mov	 dl, 123			; 0000007bH
  04cd0	48 8d 8d 34 5b
	00 00		 lea	 rcx, QWORD PTR $T548[rbp]
  04cd7	e8 00 00 00 00	 call	 ??0RELATION@FST@@QEAA@DF@Z ; FST::RELATION::RELATION
  04cdc	44 8b 00	 mov	 r8d, DWORD PTR [rax]
  04cdf	ba 01 00 00 00	 mov	 edx, 1
  04ce4	48 8d 8d 08 5b
	00 00		 lea	 rcx, QWORD PTR $T547[rbp]
  04ceb	e8 00 00 00 00	 call	 ??0NODE@FST@@QEAA@FURELATION@1@ZZ ; FST::NODE::NODE
  04cf0	48 8d 8d c0 9d
	00 00		 lea	 rcx, QWORD PTR $T974[rbp]
  04cf7	48 8b f9	 mov	 rdi, rcx
  04cfa	48 8b f0	 mov	 rsi, rax
  04cfd	b9 10 00 00 00	 mov	 ecx, 16
  04d02	f3 a4		 rep movsb
  04d04	4c 8d 8d c0 9d
	00 00		 lea	 r9, QWORD PTR $T974[rbp]
  04d0b	41 b8 01 00 00
	00		 mov	 r8d, 1
  04d11	48 8b 95 50 a4
	00 00		 mov	 rdx, QWORD PTR string$[rbp]
  04d18	48 8d 8d 28 11
	00 00		 lea	 rcx, QWORD PTR graph$113[rbp]
  04d1f	e8 00 00 00 00	 call	 ??0FST@0@QEAA@PEADFUNODE@0@ZZ ; FST::FST::FST

; 1039 : 				FST::NODE(1,
; 1040 : 					FST::RELATION('{', 0)
; 1041 : 				));
; 1042 : 			if (result = execute(graph)) {

  04d24	48 8d 8d 28 11
	00 00		 lea	 rcx, QWORD PTR graph$113[rbp]
  04d2b	e8 00 00 00 00	 call	 ?execute@FST@@YA_NAEAU11@@Z ; FST::execute
  04d30	88 85 04 04 00
	00		 mov	 BYTE PTR result$[rbp], al
  04d36	0f b6 85 04 04
	00 00		 movzx	 eax, BYTE PTR result$[rbp]
  04d3d	85 c0		 test	 eax, eax
  04d3f	74 07		 je	 SHORT $LN87@token_reko

; 1043 : 				return LEX_LEFTBRACE;

  04d41	b0 7b		 mov	 al, 123			; 0000007bH
  04d43	e9 82 24 00 00	 jmp	 $LN1@token_reko
$LN87@token_reko:

; 1044 : 			}
; 1045 : 			break;

  04d48	e9 1b 20 00 00	 jmp	 $LN2@token_reko
$LN88@token_reko:

; 1046 : 		}
; 1047 : 		case '}':
; 1048 : 		{
; 1049 : 			FST::FST graph(string, 1,

  04d4d	45 33 c0	 xor	 r8d, r8d
  04d50	b2 7d		 mov	 dl, 125			; 0000007dH
  04d52	48 8d 8d 84 5b
	00 00		 lea	 rcx, QWORD PTR $T550[rbp]
  04d59	e8 00 00 00 00	 call	 ??0RELATION@FST@@QEAA@DF@Z ; FST::RELATION::RELATION
  04d5e	44 8b 00	 mov	 r8d, DWORD PTR [rax]
  04d61	ba 01 00 00 00	 mov	 edx, 1
  04d66	48 8d 8d 58 5b
	00 00		 lea	 rcx, QWORD PTR $T549[rbp]
  04d6d	e8 00 00 00 00	 call	 ??0NODE@FST@@QEAA@FURELATION@1@ZZ ; FST::NODE::NODE
  04d72	48 8d 8d f0 9d
	00 00		 lea	 rcx, QWORD PTR $T975[rbp]
  04d79	48 8b f9	 mov	 rdi, rcx
  04d7c	48 8b f0	 mov	 rsi, rax
  04d7f	b9 10 00 00 00	 mov	 ecx, 16
  04d84	f3 a4		 rep movsb
  04d86	4c 8d 8d f0 9d
	00 00		 lea	 r9, QWORD PTR $T975[rbp]
  04d8d	41 b8 01 00 00
	00		 mov	 r8d, 1
  04d93	48 8b 95 50 a4
	00 00		 mov	 rdx, QWORD PTR string$[rbp]
  04d9a	48 8d 8d 68 11
	00 00		 lea	 rcx, QWORD PTR graph$114[rbp]
  04da1	e8 00 00 00 00	 call	 ??0FST@0@QEAA@PEADFUNODE@0@ZZ ; FST::FST::FST

; 1050 : 				FST::NODE(1,
; 1051 : 					FST::RELATION('}', 0)
; 1052 : 				));
; 1053 : 			if (result = execute(graph)) {

  04da6	48 8d 8d 68 11
	00 00		 lea	 rcx, QWORD PTR graph$114[rbp]
  04dad	e8 00 00 00 00	 call	 ?execute@FST@@YA_NAEAU11@@Z ; FST::execute
  04db2	88 85 04 04 00
	00		 mov	 BYTE PTR result$[rbp], al
  04db8	0f b6 85 04 04
	00 00		 movzx	 eax, BYTE PTR result$[rbp]
  04dbf	85 c0		 test	 eax, eax
  04dc1	74 07		 je	 SHORT $LN89@token_reko

; 1054 : 				return LEX_RIGHTBRACE;

  04dc3	b0 7d		 mov	 al, 125			; 0000007dH
  04dc5	e9 00 24 00 00	 jmp	 $LN1@token_reko
$LN89@token_reko:

; 1055 : 			}
; 1056 : 			break;

  04dca	e9 99 1f 00 00	 jmp	 $LN2@token_reko
$LN90@token_reko:

; 1057 : 		}
; 1058 : 		case '~':
; 1059 : 		{
; 1060 : 			FST::FST graph(string, 1,

  04dcf	45 33 c0	 xor	 r8d, r8d
  04dd2	b2 7e		 mov	 dl, 126			; 0000007eH
  04dd4	48 8d 8d d4 5b
	00 00		 lea	 rcx, QWORD PTR $T552[rbp]
  04ddb	e8 00 00 00 00	 call	 ??0RELATION@FST@@QEAA@DF@Z ; FST::RELATION::RELATION
  04de0	44 8b 00	 mov	 r8d, DWORD PTR [rax]
  04de3	ba 01 00 00 00	 mov	 edx, 1
  04de8	48 8d 8d a8 5b
	00 00		 lea	 rcx, QWORD PTR $T551[rbp]
  04def	e8 00 00 00 00	 call	 ??0NODE@FST@@QEAA@FURELATION@1@ZZ ; FST::NODE::NODE
  04df4	48 8d 8d 20 9e
	00 00		 lea	 rcx, QWORD PTR $T976[rbp]
  04dfb	48 8b f9	 mov	 rdi, rcx
  04dfe	48 8b f0	 mov	 rsi, rax
  04e01	b9 10 00 00 00	 mov	 ecx, 16
  04e06	f3 a4		 rep movsb
  04e08	4c 8d 8d 20 9e
	00 00		 lea	 r9, QWORD PTR $T976[rbp]
  04e0f	41 b8 01 00 00
	00		 mov	 r8d, 1
  04e15	48 8b 95 50 a4
	00 00		 mov	 rdx, QWORD PTR string$[rbp]
  04e1c	48 8d 8d a8 11
	00 00		 lea	 rcx, QWORD PTR graph$115[rbp]
  04e23	e8 00 00 00 00	 call	 ??0FST@0@QEAA@PEADFUNODE@0@ZZ ; FST::FST::FST

; 1061 : 				FST::NODE(1,
; 1062 : 					FST::RELATION('~', 0)
; 1063 : 				));
; 1064 : 			if (result = execute(graph)) {

  04e28	48 8d 8d a8 11
	00 00		 lea	 rcx, QWORD PTR graph$115[rbp]
  04e2f	e8 00 00 00 00	 call	 ?execute@FST@@YA_NAEAU11@@Z ; FST::execute
  04e34	88 85 04 04 00
	00		 mov	 BYTE PTR result$[rbp], al
  04e3a	0f b6 85 04 04
	00 00		 movzx	 eax, BYTE PTR result$[rbp]
  04e41	85 c0		 test	 eax, eax
  04e43	74 0c		 je	 SHORT $LN91@token_reko

; 1065 : 				return LEX_INVERSION;

  04e45	b0 62		 mov	 al, 98			; 00000062H
  04e47	e9 7e 23 00 00	 jmp	 $LN1@token_reko

; 1066 : 				break;

  04e4c	e9 17 1f 00 00	 jmp	 $LN2@token_reko
$LN91@token_reko:

; 1067 : 			}
; 1068 : 			break;

  04e51	e9 12 1f 00 00	 jmp	 $LN2@token_reko
$LN92@token_reko:

; 1069 : 		}
; 1070 : 		case '$':
; 1071 : 		{
; 1072 : 			FST::FST graph_const(string, 2,

  04e56	66 41 b8 01 00	 mov	 r8w, 1
  04e5b	b2 5f		 mov	 dl, 95			; 0000005fH
  04e5d	48 8d 8d 24 5c
	00 00		 lea	 rcx, QWORD PTR $T554[rbp]
  04e64	e8 00 00 00 00	 call	 ??0RELATION@FST@@QEAA@DF@Z ; FST::RELATION::RELATION
  04e69	48 89 85 58 9f
	00 00		 mov	 QWORD PTR tv2966[rbp], rax
  04e70	66 41 b8 01 00	 mov	 r8w, 1
  04e75	b2 7a		 mov	 dl, 122			; 0000007aH
  04e77	48 8d 8d 44 5c
	00 00		 lea	 rcx, QWORD PTR $T555[rbp]
  04e7e	e8 00 00 00 00	 call	 ??0RELATION@FST@@QEAA@DF@Z ; FST::RELATION::RELATION
  04e83	48 89 85 60 9f
	00 00		 mov	 QWORD PTR tv2971[rbp], rax
  04e8a	66 41 b8 01 00	 mov	 r8w, 1
  04e8f	b2 79		 mov	 dl, 121			; 00000079H
  04e91	48 8d 8d 64 5c
	00 00		 lea	 rcx, QWORD PTR $T556[rbp]
  04e98	e8 00 00 00 00	 call	 ??0RELATION@FST@@QEAA@DF@Z ; FST::RELATION::RELATION
  04e9d	48 89 85 68 9f
	00 00		 mov	 QWORD PTR tv2976[rbp], rax
  04ea4	66 41 b8 01 00	 mov	 r8w, 1
  04ea9	b2 78		 mov	 dl, 120			; 00000078H
  04eab	48 8d 8d 84 5c
	00 00		 lea	 rcx, QWORD PTR $T557[rbp]
  04eb2	e8 00 00 00 00	 call	 ??0RELATION@FST@@QEAA@DF@Z ; FST::RELATION::RELATION
  04eb7	48 89 85 70 9f
	00 00		 mov	 QWORD PTR tv2981[rbp], rax
  04ebe	66 41 b8 01 00	 mov	 r8w, 1
  04ec3	b2 77		 mov	 dl, 119			; 00000077H
  04ec5	48 8d 8d a4 5c
	00 00		 lea	 rcx, QWORD PTR $T558[rbp]
  04ecc	e8 00 00 00 00	 call	 ??0RELATION@FST@@QEAA@DF@Z ; FST::RELATION::RELATION
  04ed1	48 89 85 78 9f
	00 00		 mov	 QWORD PTR tv2986[rbp], rax
  04ed8	66 41 b8 01 00	 mov	 r8w, 1
  04edd	b2 76		 mov	 dl, 118			; 00000076H
  04edf	48 8d 8d c4 5c
	00 00		 lea	 rcx, QWORD PTR $T559[rbp]
  04ee6	e8 00 00 00 00	 call	 ??0RELATION@FST@@QEAA@DF@Z ; FST::RELATION::RELATION
  04eeb	48 89 85 80 9f
	00 00		 mov	 QWORD PTR tv2991[rbp], rax
  04ef2	66 41 b8 01 00	 mov	 r8w, 1
  04ef7	b2 75		 mov	 dl, 117			; 00000075H
  04ef9	48 8d 8d e4 5c
	00 00		 lea	 rcx, QWORD PTR $T560[rbp]
  04f00	e8 00 00 00 00	 call	 ??0RELATION@FST@@QEAA@DF@Z ; FST::RELATION::RELATION
  04f05	48 89 85 88 9f
	00 00		 mov	 QWORD PTR tv2996[rbp], rax
  04f0c	66 41 b8 01 00	 mov	 r8w, 1
  04f11	b2 74		 mov	 dl, 116			; 00000074H
  04f13	48 8d 8d 04 5d
	00 00		 lea	 rcx, QWORD PTR $T561[rbp]
  04f1a	e8 00 00 00 00	 call	 ??0RELATION@FST@@QEAA@DF@Z ; FST::RELATION::RELATION
  04f1f	48 89 85 90 9f
	00 00		 mov	 QWORD PTR tv3001[rbp], rax
  04f26	66 41 b8 01 00	 mov	 r8w, 1
  04f2b	b2 73		 mov	 dl, 115			; 00000073H
  04f2d	48 8d 8d 24 5d
	00 00		 lea	 rcx, QWORD PTR $T562[rbp]
  04f34	e8 00 00 00 00	 call	 ??0RELATION@FST@@QEAA@DF@Z ; FST::RELATION::RELATION
  04f39	48 89 85 98 9f
	00 00		 mov	 QWORD PTR tv3006[rbp], rax
  04f40	66 41 b8 01 00	 mov	 r8w, 1
  04f45	b2 72		 mov	 dl, 114			; 00000072H
  04f47	48 8d 8d 44 5d
	00 00		 lea	 rcx, QWORD PTR $T563[rbp]
  04f4e	e8 00 00 00 00	 call	 ??0RELATION@FST@@QEAA@DF@Z ; FST::RELATION::RELATION
  04f53	48 89 85 a0 9f
	00 00		 mov	 QWORD PTR tv3011[rbp], rax
  04f5a	66 41 b8 01 00	 mov	 r8w, 1
  04f5f	b2 71		 mov	 dl, 113			; 00000071H
  04f61	48 8d 8d 64 5d
	00 00		 lea	 rcx, QWORD PTR $T564[rbp]
  04f68	e8 00 00 00 00	 call	 ??0RELATION@FST@@QEAA@DF@Z ; FST::RELATION::RELATION
  04f6d	48 89 85 a8 9f
	00 00		 mov	 QWORD PTR tv3016[rbp], rax
  04f74	66 41 b8 01 00	 mov	 r8w, 1
  04f79	b2 70		 mov	 dl, 112			; 00000070H
  04f7b	48 8d 8d 84 5d
	00 00		 lea	 rcx, QWORD PTR $T565[rbp]
  04f82	e8 00 00 00 00	 call	 ??0RELATION@FST@@QEAA@DF@Z ; FST::RELATION::RELATION
  04f87	48 89 85 b0 9f
	00 00		 mov	 QWORD PTR tv3021[rbp], rax
  04f8e	66 41 b8 01 00	 mov	 r8w, 1
  04f93	b2 6f		 mov	 dl, 111			; 0000006fH
  04f95	48 8d 8d a4 5d
	00 00		 lea	 rcx, QWORD PTR $T566[rbp]
  04f9c	e8 00 00 00 00	 call	 ??0RELATION@FST@@QEAA@DF@Z ; FST::RELATION::RELATION
  04fa1	48 89 85 b8 9f
	00 00		 mov	 QWORD PTR tv3026[rbp], rax
  04fa8	66 41 b8 01 00	 mov	 r8w, 1
  04fad	b2 6e		 mov	 dl, 110			; 0000006eH
  04faf	48 8d 8d c4 5d
	00 00		 lea	 rcx, QWORD PTR $T567[rbp]
  04fb6	e8 00 00 00 00	 call	 ??0RELATION@FST@@QEAA@DF@Z ; FST::RELATION::RELATION
  04fbb	48 89 85 c0 9f
	00 00		 mov	 QWORD PTR tv3031[rbp], rax
  04fc2	66 41 b8 01 00	 mov	 r8w, 1
  04fc7	b2 6d		 mov	 dl, 109			; 0000006dH
  04fc9	48 8d 8d e4 5d
	00 00		 lea	 rcx, QWORD PTR $T568[rbp]
  04fd0	e8 00 00 00 00	 call	 ??0RELATION@FST@@QEAA@DF@Z ; FST::RELATION::RELATION
  04fd5	48 89 85 c8 9f
	00 00		 mov	 QWORD PTR tv3036[rbp], rax
  04fdc	66 41 b8 01 00	 mov	 r8w, 1
  04fe1	b2 6c		 mov	 dl, 108			; 0000006cH
  04fe3	48 8d 8d 04 5e
	00 00		 lea	 rcx, QWORD PTR $T569[rbp]
  04fea	e8 00 00 00 00	 call	 ??0RELATION@FST@@QEAA@DF@Z ; FST::RELATION::RELATION
  04fef	48 89 85 d0 9f
	00 00		 mov	 QWORD PTR tv3073[rbp], rax
  04ff6	66 41 b8 01 00	 mov	 r8w, 1
  04ffb	b2 6b		 mov	 dl, 107			; 0000006bH
  04ffd	48 8d 8d 24 5e
	00 00		 lea	 rcx, QWORD PTR $T570[rbp]
  05004	e8 00 00 00 00	 call	 ??0RELATION@FST@@QEAA@DF@Z ; FST::RELATION::RELATION
  05009	48 89 85 d8 9f
	00 00		 mov	 QWORD PTR tv3078[rbp], rax
  05010	66 41 b8 01 00	 mov	 r8w, 1
  05015	b2 6a		 mov	 dl, 106			; 0000006aH
  05017	48 8d 8d 44 5e
	00 00		 lea	 rcx, QWORD PTR $T571[rbp]
  0501e	e8 00 00 00 00	 call	 ??0RELATION@FST@@QEAA@DF@Z ; FST::RELATION::RELATION
  05023	48 89 85 e0 9f
	00 00		 mov	 QWORD PTR tv3083[rbp], rax
  0502a	66 41 b8 01 00	 mov	 r8w, 1
  0502f	b2 69		 mov	 dl, 105			; 00000069H
  05031	48 8d 8d 64 5e
	00 00		 lea	 rcx, QWORD PTR $T572[rbp]
  05038	e8 00 00 00 00	 call	 ??0RELATION@FST@@QEAA@DF@Z ; FST::RELATION::RELATION
  0503d	48 89 85 e8 9f
	00 00		 mov	 QWORD PTR tv3088[rbp], rax
  05044	66 41 b8 01 00	 mov	 r8w, 1
  05049	b2 68		 mov	 dl, 104			; 00000068H
  0504b	48 8d 8d 84 5e
	00 00		 lea	 rcx, QWORD PTR $T573[rbp]
  05052	e8 00 00 00 00	 call	 ??0RELATION@FST@@QEAA@DF@Z ; FST::RELATION::RELATION
  05057	48 89 85 f0 9f
	00 00		 mov	 QWORD PTR tv3093[rbp], rax
  0505e	66 41 b8 01 00	 mov	 r8w, 1
  05063	b2 67		 mov	 dl, 103			; 00000067H
  05065	48 8d 8d a4 5e
	00 00		 lea	 rcx, QWORD PTR $T574[rbp]
  0506c	e8 00 00 00 00	 call	 ??0RELATION@FST@@QEAA@DF@Z ; FST::RELATION::RELATION
  05071	48 89 85 f8 9f
	00 00		 mov	 QWORD PTR tv3098[rbp], rax
  05078	66 41 b8 01 00	 mov	 r8w, 1
  0507d	b2 66		 mov	 dl, 102			; 00000066H
  0507f	48 8d 8d c4 5e
	00 00		 lea	 rcx, QWORD PTR $T575[rbp]
  05086	e8 00 00 00 00	 call	 ??0RELATION@FST@@QEAA@DF@Z ; FST::RELATION::RELATION
  0508b	48 89 85 00 a0
	00 00		 mov	 QWORD PTR tv3103[rbp], rax
  05092	66 41 b8 01 00	 mov	 r8w, 1
  05097	b2 65		 mov	 dl, 101			; 00000065H
  05099	48 8d 8d e4 5e
	00 00		 lea	 rcx, QWORD PTR $T576[rbp]
  050a0	e8 00 00 00 00	 call	 ??0RELATION@FST@@QEAA@DF@Z ; FST::RELATION::RELATION
  050a5	48 89 85 08 a0
	00 00		 mov	 QWORD PTR tv3108[rbp], rax
  050ac	66 41 b8 01 00	 mov	 r8w, 1
  050b1	b2 64		 mov	 dl, 100			; 00000064H
  050b3	48 8d 8d 04 5f
	00 00		 lea	 rcx, QWORD PTR $T577[rbp]
  050ba	e8 00 00 00 00	 call	 ??0RELATION@FST@@QEAA@DF@Z ; FST::RELATION::RELATION
  050bf	48 89 85 10 a0
	00 00		 mov	 QWORD PTR tv3113[rbp], rax
  050c6	66 41 b8 01 00	 mov	 r8w, 1
  050cb	b2 63		 mov	 dl, 99			; 00000063H
  050cd	48 8d 8d 24 5f
	00 00		 lea	 rcx, QWORD PTR $T578[rbp]
  050d4	e8 00 00 00 00	 call	 ??0RELATION@FST@@QEAA@DF@Z ; FST::RELATION::RELATION
  050d9	48 89 85 18 a0
	00 00		 mov	 QWORD PTR tv3118[rbp], rax
  050e0	66 41 b8 01 00	 mov	 r8w, 1
  050e5	b2 62		 mov	 dl, 98			; 00000062H
  050e7	48 8d 8d 44 5f
	00 00		 lea	 rcx, QWORD PTR $T579[rbp]
  050ee	e8 00 00 00 00	 call	 ??0RELATION@FST@@QEAA@DF@Z ; FST::RELATION::RELATION
  050f3	48 89 85 20 a0
	00 00		 mov	 QWORD PTR tv3123[rbp], rax
  050fa	66 41 b8 01 00	 mov	 r8w, 1
  050ff	b2 61		 mov	 dl, 97			; 00000061H
  05101	48 8d 8d 64 5f
	00 00		 lea	 rcx, QWORD PTR $T580[rbp]
  05108	e8 00 00 00 00	 call	 ??0RELATION@FST@@QEAA@DF@Z ; FST::RELATION::RELATION
  0510d	48 8b 8d 58 9f
	00 00		 mov	 rcx, QWORD PTR tv2966[rbp]
  05114	8b 09		 mov	 ecx, DWORD PTR [rcx]
  05116	89 8c 24 e0 00
	00 00		 mov	 DWORD PTR [rsp+224], ecx
  0511d	48 8b 8d 60 9f
	00 00		 mov	 rcx, QWORD PTR tv2971[rbp]
  05124	8b 09		 mov	 ecx, DWORD PTR [rcx]
  05126	89 8c 24 d8 00
	00 00		 mov	 DWORD PTR [rsp+216], ecx
  0512d	48 8b 8d 68 9f
	00 00		 mov	 rcx, QWORD PTR tv2976[rbp]
  05134	8b 09		 mov	 ecx, DWORD PTR [rcx]
  05136	89 8c 24 d0 00
	00 00		 mov	 DWORD PTR [rsp+208], ecx
  0513d	48 8b 8d 70 9f
	00 00		 mov	 rcx, QWORD PTR tv2981[rbp]
  05144	8b 09		 mov	 ecx, DWORD PTR [rcx]
  05146	89 8c 24 c8 00
	00 00		 mov	 DWORD PTR [rsp+200], ecx
  0514d	48 8b 8d 78 9f
	00 00		 mov	 rcx, QWORD PTR tv2986[rbp]
  05154	8b 09		 mov	 ecx, DWORD PTR [rcx]
  05156	89 8c 24 c0 00
	00 00		 mov	 DWORD PTR [rsp+192], ecx
  0515d	48 8b 8d 80 9f
	00 00		 mov	 rcx, QWORD PTR tv2991[rbp]
  05164	8b 09		 mov	 ecx, DWORD PTR [rcx]
  05166	89 8c 24 b8 00
	00 00		 mov	 DWORD PTR [rsp+184], ecx
  0516d	48 8b 8d 88 9f
	00 00		 mov	 rcx, QWORD PTR tv2996[rbp]
  05174	8b 09		 mov	 ecx, DWORD PTR [rcx]
  05176	89 8c 24 b0 00
	00 00		 mov	 DWORD PTR [rsp+176], ecx
  0517d	48 8b 8d 90 9f
	00 00		 mov	 rcx, QWORD PTR tv3001[rbp]
  05184	8b 09		 mov	 ecx, DWORD PTR [rcx]
  05186	89 8c 24 a8 00
	00 00		 mov	 DWORD PTR [rsp+168], ecx
  0518d	48 8b 8d 98 9f
	00 00		 mov	 rcx, QWORD PTR tv3006[rbp]
  05194	8b 09		 mov	 ecx, DWORD PTR [rcx]
  05196	89 8c 24 a0 00
	00 00		 mov	 DWORD PTR [rsp+160], ecx
  0519d	48 8b 8d a0 9f
	00 00		 mov	 rcx, QWORD PTR tv3011[rbp]
  051a4	8b 09		 mov	 ecx, DWORD PTR [rcx]
  051a6	89 8c 24 98 00
	00 00		 mov	 DWORD PTR [rsp+152], ecx
  051ad	48 8b 8d a8 9f
	00 00		 mov	 rcx, QWORD PTR tv3016[rbp]
  051b4	8b 09		 mov	 ecx, DWORD PTR [rcx]
  051b6	89 8c 24 90 00
	00 00		 mov	 DWORD PTR [rsp+144], ecx
  051bd	48 8b 8d b0 9f
	00 00		 mov	 rcx, QWORD PTR tv3021[rbp]
  051c4	8b 09		 mov	 ecx, DWORD PTR [rcx]
  051c6	89 8c 24 88 00
	00 00		 mov	 DWORD PTR [rsp+136], ecx
  051cd	48 8b 8d b8 9f
	00 00		 mov	 rcx, QWORD PTR tv3026[rbp]
  051d4	8b 09		 mov	 ecx, DWORD PTR [rcx]
  051d6	89 8c 24 80 00
	00 00		 mov	 DWORD PTR [rsp+128], ecx
  051dd	48 8b 8d c0 9f
	00 00		 mov	 rcx, QWORD PTR tv3031[rbp]
  051e4	8b 09		 mov	 ecx, DWORD PTR [rcx]
  051e6	89 4c 24 78	 mov	 DWORD PTR [rsp+120], ecx
  051ea	48 8b 8d c8 9f
	00 00		 mov	 rcx, QWORD PTR tv3036[rbp]
  051f1	8b 09		 mov	 ecx, DWORD PTR [rcx]
  051f3	89 4c 24 70	 mov	 DWORD PTR [rsp+112], ecx
  051f7	48 8b 8d d0 9f
	00 00		 mov	 rcx, QWORD PTR tv3073[rbp]
  051fe	8b 09		 mov	 ecx, DWORD PTR [rcx]
  05200	89 4c 24 68	 mov	 DWORD PTR [rsp+104], ecx
  05204	48 8b 8d d8 9f
	00 00		 mov	 rcx, QWORD PTR tv3078[rbp]
  0520b	8b 09		 mov	 ecx, DWORD PTR [rcx]
  0520d	89 4c 24 60	 mov	 DWORD PTR [rsp+96], ecx
  05211	48 8b 8d e0 9f
	00 00		 mov	 rcx, QWORD PTR tv3083[rbp]
  05218	8b 09		 mov	 ecx, DWORD PTR [rcx]
  0521a	89 4c 24 58	 mov	 DWORD PTR [rsp+88], ecx
  0521e	48 8b 8d e8 9f
	00 00		 mov	 rcx, QWORD PTR tv3088[rbp]
  05225	8b 09		 mov	 ecx, DWORD PTR [rcx]
  05227	89 4c 24 50	 mov	 DWORD PTR [rsp+80], ecx
  0522b	48 8b 8d f0 9f
	00 00		 mov	 rcx, QWORD PTR tv3093[rbp]
  05232	8b 09		 mov	 ecx, DWORD PTR [rcx]
  05234	89 4c 24 48	 mov	 DWORD PTR [rsp+72], ecx
  05238	48 8b 8d f8 9f
	00 00		 mov	 rcx, QWORD PTR tv3098[rbp]
  0523f	8b 09		 mov	 ecx, DWORD PTR [rcx]
  05241	89 4c 24 40	 mov	 DWORD PTR [rsp+64], ecx
  05245	48 8b 8d 00 a0
	00 00		 mov	 rcx, QWORD PTR tv3103[rbp]
  0524c	8b 09		 mov	 ecx, DWORD PTR [rcx]
  0524e	89 4c 24 38	 mov	 DWORD PTR [rsp+56], ecx
  05252	48 8b 8d 08 a0
	00 00		 mov	 rcx, QWORD PTR tv3108[rbp]
  05259	8b 09		 mov	 ecx, DWORD PTR [rcx]
  0525b	89 4c 24 30	 mov	 DWORD PTR [rsp+48], ecx
  0525f	48 8b 8d 10 a0
	00 00		 mov	 rcx, QWORD PTR tv3113[rbp]
  05266	8b 09		 mov	 ecx, DWORD PTR [rcx]
  05268	89 4c 24 28	 mov	 DWORD PTR [rsp+40], ecx
  0526c	48 8b 8d 18 a0
	00 00		 mov	 rcx, QWORD PTR tv3118[rbp]
  05273	8b 09		 mov	 ecx, DWORD PTR [rcx]
  05275	89 4c 24 20	 mov	 DWORD PTR [rsp+32], ecx
  05279	48 8b 8d 20 a0
	00 00		 mov	 rcx, QWORD PTR tv3123[rbp]
  05280	44 8b 09	 mov	 r9d, DWORD PTR [rcx]
  05283	44 8b 00	 mov	 r8d, DWORD PTR [rax]
  05286	ba 1a 00 00 00	 mov	 edx, 26
  0528b	48 8d 8d f8 5b
	00 00		 lea	 rcx, QWORD PTR $T553[rbp]
  05292	e8 00 00 00 00	 call	 ??0NODE@FST@@QEAA@FURELATION@1@ZZ ; FST::NODE::NODE
  05297	48 8d 8d 80 9e
	00 00		 lea	 rcx, QWORD PTR $T978[rbp]
  0529e	48 8b f9	 mov	 rdi, rcx
  052a1	48 8b f0	 mov	 rsi, rax
  052a4	b9 10 00 00 00	 mov	 ecx, 16
  052a9	f3 a4		 rep movsb
  052ab	66 41 b8 01 00	 mov	 r8w, 1
  052b0	b2 24		 mov	 dl, 36			; 00000024H
  052b2	48 8d 8d b4 5f
	00 00		 lea	 rcx, QWORD PTR $T582[rbp]
  052b9	e8 00 00 00 00	 call	 ??0RELATION@FST@@QEAA@DF@Z ; FST::RELATION::RELATION
  052be	44 8b 00	 mov	 r8d, DWORD PTR [rax]
  052c1	ba 01 00 00 00	 mov	 edx, 1
  052c6	48 8d 8d 88 5f
	00 00		 lea	 rcx, QWORD PTR $T581[rbp]
  052cd	e8 00 00 00 00	 call	 ??0NODE@FST@@QEAA@FURELATION@1@ZZ ; FST::NODE::NODE
  052d2	48 8d 8d 50 9e
	00 00		 lea	 rcx, QWORD PTR $T977[rbp]
  052d9	48 8b f9	 mov	 rdi, rcx
  052dc	48 8b f0	 mov	 rsi, rax
  052df	b9 10 00 00 00	 mov	 ecx, 16
  052e4	f3 a4		 rep movsb
  052e6	48 8d 85 80 9e
	00 00		 lea	 rax, QWORD PTR $T978[rbp]
  052ed	48 89 44 24 20	 mov	 QWORD PTR [rsp+32], rax
  052f2	4c 8d 8d 50 9e
	00 00		 lea	 r9, QWORD PTR $T977[rbp]
  052f9	41 b8 02 00 00
	00		 mov	 r8d, 2
  052ff	48 8b 95 50 a4
	00 00		 mov	 rdx, QWORD PTR string$[rbp]
  05306	48 8d 8d e8 11
	00 00		 lea	 rcx, QWORD PTR graph_const$116[rbp]
  0530d	e8 00 00 00 00	 call	 ??0FST@0@QEAA@PEADFUNODE@0@ZZ ; FST::FST::FST

; 1073 : 				FST::NODE(1, FST::RELATION('$', 1)),
; 1074 : 				FST::NODE(26,
; 1075 : 					FST::RELATION('a', 1),
; 1076 : 					FST::RELATION('b', 1),
; 1077 : 					FST::RELATION('c', 1),
; 1078 : 					FST::RELATION('d', 1),
; 1079 : 					FST::RELATION('e', 1),
; 1080 : 					FST::RELATION('f', 1),
; 1081 : 					FST::RELATION('g', 1),
; 1082 : 					FST::RELATION('h', 1),
; 1083 : 					FST::RELATION('i', 1),
; 1084 : 					FST::RELATION('j', 1),
; 1085 : 					FST::RELATION('k', 1),
; 1086 : 					FST::RELATION('l', 1),
; 1087 : 					FST::RELATION('m', 1),
; 1088 : 					FST::RELATION('n', 1),
; 1089 : 					FST::RELATION('o', 1),
; 1090 : 					FST::RELATION('p', 1),
; 1091 : 					FST::RELATION('q', 1),
; 1092 : 					FST::RELATION('r', 1),
; 1093 : 					FST::RELATION('s', 1),
; 1094 : 					FST::RELATION('t', 1),
; 1095 : 					FST::RELATION('u', 1),
; 1096 : 					FST::RELATION('v', 1),
; 1097 : 					FST::RELATION('w', 1),
; 1098 : 					FST::RELATION('x', 1),
; 1099 : 					FST::RELATION('y', 1),
; 1100 : 					FST::RELATION('z', 1),
; 1101 : 					FST::RELATION('_', 1))
; 1102 : 			);
; 1103 : 			if (result = execute(graph_const)) {

  05312	48 8d 8d e8 11
	00 00		 lea	 rcx, QWORD PTR graph_const$116[rbp]
  05319	e8 00 00 00 00	 call	 ?execute@FST@@YA_NAEAU11@@Z ; FST::execute
  0531e	88 85 04 04 00
	00		 mov	 BYTE PTR result$[rbp], al
  05324	0f b6 85 04 04
	00 00		 movzx	 eax, BYTE PTR result$[rbp]
  0532b	85 c0		 test	 eax, eax
  0532d	74 1a		 je	 SHORT $LN93@token_reko

; 1104 : 				entry->idtype = IT::IDTYPE::C;

  0532f	48 8b 85 58 a4
	00 00		 mov	 rax, QWORD PTR entry$[rbp]
  05336	c7 40 44 08 00
	00 00		 mov	 DWORD PTR [rax+68], 8

; 1105 : 				return LEX_ID;

  0533d	b0 69		 mov	 al, 105			; 00000069H
  0533f	e9 86 1e 00 00	 jmp	 $LN1@token_reko

; 1106 : 				break;

  05344	e9 1f 1a 00 00	 jmp	 $LN2@token_reko
$LN93@token_reko:

; 1107 : 			}
; 1108 : 			break;

  05349	e9 1a 1a 00 00	 jmp	 $LN2@token_reko
$LN94@token_reko:

; 1109 : 		}
; 1110 : 		case '\'':
; 1111 : 		{
; 1112 : 			FST::FST graph_literal(string, 3,

  0534e	48 8d 8d d8 5f
	00 00		 lea	 rcx, QWORD PTR $T583[rbp]
  05355	e8 00 00 00 00	 call	 ??0NODE@FST@@QEAA@XZ	; FST::NODE::NODE
  0535a	48 8d 8d 10 9f
	00 00		 lea	 rcx, QWORD PTR $T981[rbp]
  05361	48 8b f9	 mov	 rdi, rcx
  05364	48 8b f0	 mov	 rsi, rax
  05367	b9 10 00 00 00	 mov	 ecx, 16
  0536c	f3 a4		 rep movsb
  0536e	66 41 b8 02 00	 mov	 r8w, 2
  05373	b2 27		 mov	 dl, 39			; 00000027H
  05375	48 8d 8d 34 60
	00 00		 lea	 rcx, QWORD PTR $T585[rbp]
  0537c	e8 00 00 00 00	 call	 ??0RELATION@FST@@QEAA@DF@Z ; FST::RELATION::RELATION
  05381	48 89 85 58 9f
	00 00		 mov	 QWORD PTR tv3157[rbp], rax
  05388	66 41 b8 01 00	 mov	 r8w, 1
  0538d	b2 7e		 mov	 dl, 126			; 0000007eH
  0538f	48 8d 8d 54 60
	00 00		 lea	 rcx, QWORD PTR $T586[rbp]
  05396	e8 00 00 00 00	 call	 ??0RELATION@FST@@QEAA@DF@Z ; FST::RELATION::RELATION
  0539b	48 89 85 60 9f
	00 00		 mov	 QWORD PTR tv3162[rbp], rax
  053a2	66 41 b8 01 00	 mov	 r8w, 1
  053a7	b2 5c		 mov	 dl, 92			; 0000005cH
  053a9	48 8d 8d 74 60
	00 00		 lea	 rcx, QWORD PTR $T587[rbp]
  053b0	e8 00 00 00 00	 call	 ??0RELATION@FST@@QEAA@DF@Z ; FST::RELATION::RELATION
  053b5	48 89 85 68 9f
	00 00		 mov	 QWORD PTR tv3167[rbp], rax
  053bc	66 41 b8 01 00	 mov	 r8w, 1
  053c1	b2 5d		 mov	 dl, 93			; 0000005dH
  053c3	48 8d 8d 94 60
	00 00		 lea	 rcx, QWORD PTR $T588[rbp]
  053ca	e8 00 00 00 00	 call	 ??0RELATION@FST@@QEAA@DF@Z ; FST::RELATION::RELATION
  053cf	48 89 85 70 9f
	00 00		 mov	 QWORD PTR tv3172[rbp], rax
  053d6	66 41 b8 01 00	 mov	 r8w, 1
  053db	b2 5b		 mov	 dl, 91			; 0000005bH
  053dd	48 8d 8d b4 60
	00 00		 lea	 rcx, QWORD PTR $T589[rbp]
  053e4	e8 00 00 00 00	 call	 ??0RELATION@FST@@QEAA@DF@Z ; FST::RELATION::RELATION
  053e9	48 89 85 78 9f
	00 00		 mov	 QWORD PTR tv3177[rbp], rax
  053f0	66 41 b8 01 00	 mov	 r8w, 1
  053f5	b2 40		 mov	 dl, 64			; 00000040H
  053f7	48 8d 8d d4 60
	00 00		 lea	 rcx, QWORD PTR $T590[rbp]
  053fe	e8 00 00 00 00	 call	 ??0RELATION@FST@@QEAA@DF@Z ; FST::RELATION::RELATION
  05403	48 89 85 80 9f
	00 00		 mov	 QWORD PTR tv3182[rbp], rax
  0540a	66 41 b8 01 00	 mov	 r8w, 1
  0540f	b2 26		 mov	 dl, 38			; 00000026H
  05411	48 8d 8d f4 60
	00 00		 lea	 rcx, QWORD PTR $T591[rbp]
  05418	e8 00 00 00 00	 call	 ??0RELATION@FST@@QEAA@DF@Z ; FST::RELATION::RELATION
  0541d	48 89 85 88 9f
	00 00		 mov	 QWORD PTR tv3187[rbp], rax
  05424	66 41 b8 01 00	 mov	 r8w, 1
  05429	b2 23		 mov	 dl, 35			; 00000023H
  0542b	48 8d 8d 14 61
	00 00		 lea	 rcx, QWORD PTR $T592[rbp]
  05432	e8 00 00 00 00	 call	 ??0RELATION@FST@@QEAA@DF@Z ; FST::RELATION::RELATION
  05437	48 89 85 90 9f
	00 00		 mov	 QWORD PTR tv3192[rbp], rax
  0543e	66 41 b8 01 00	 mov	 r8w, 1
  05443	b2 b9		 mov	 dl, -71			; ffffffffffffffb9H
  05445	48 8d 8d 34 61
	00 00		 lea	 rcx, QWORD PTR $T593[rbp]
  0544c	e8 00 00 00 00	 call	 ??0RELATION@FST@@QEAA@DF@Z ; FST::RELATION::RELATION
  05451	48 89 85 98 9f
	00 00		 mov	 QWORD PTR tv3197[rbp], rax
  05458	66 41 b8 01 00	 mov	 r8w, 1
  0545d	b2 3e		 mov	 dl, 62			; 0000003eH
  0545f	48 8d 8d 54 61
	00 00		 lea	 rcx, QWORD PTR $T594[rbp]
  05466	e8 00 00 00 00	 call	 ??0RELATION@FST@@QEAA@DF@Z ; FST::RELATION::RELATION
  0546b	48 89 85 a0 9f
	00 00		 mov	 QWORD PTR tv3202[rbp], rax
  05472	66 41 b8 01 00	 mov	 r8w, 1
  05477	b2 3c		 mov	 dl, 60			; 0000003cH
  05479	48 8d 8d 74 61
	00 00		 lea	 rcx, QWORD PTR $T595[rbp]
  05480	e8 00 00 00 00	 call	 ??0RELATION@FST@@QEAA@DF@Z ; FST::RELATION::RELATION
  05485	48 89 85 a8 9f
	00 00		 mov	 QWORD PTR tv3207[rbp], rax
  0548c	66 41 b8 01 00	 mov	 r8w, 1
  05491	b2 2e		 mov	 dl, 46			; 0000002eH
  05493	48 8d 8d 94 61
	00 00		 lea	 rcx, QWORD PTR $T596[rbp]
  0549a	e8 00 00 00 00	 call	 ??0RELATION@FST@@QEAA@DF@Z ; FST::RELATION::RELATION
  0549f	48 89 85 b0 9f
	00 00		 mov	 QWORD PTR tv3212[rbp], rax
  054a6	66 41 b8 01 00	 mov	 r8w, 1
  054ab	b2 2c		 mov	 dl, 44			; 0000002cH
  054ad	48 8d 8d b4 61
	00 00		 lea	 rcx, QWORD PTR $T597[rbp]
  054b4	e8 00 00 00 00	 call	 ??0RELATION@FST@@QEAA@DF@Z ; FST::RELATION::RELATION
  054b9	48 89 85 b8 9f
	00 00		 mov	 QWORD PTR tv3217[rbp], rax
  054c0	66 41 b8 01 00	 mov	 r8w, 1
  054c5	b2 3f		 mov	 dl, 63			; 0000003fH
  054c7	48 8d 8d d4 61
	00 00		 lea	 rcx, QWORD PTR $T598[rbp]
  054ce	e8 00 00 00 00	 call	 ??0RELATION@FST@@QEAA@DF@Z ; FST::RELATION::RELATION
  054d3	48 89 85 c0 9f
	00 00		 mov	 QWORD PTR tv3222[rbp], rax
  054da	66 41 b8 01 00	 mov	 r8w, 1
  054df	b2 21		 mov	 dl, 33			; 00000021H
  054e1	48 8d 8d f4 61
	00 00		 lea	 rcx, QWORD PTR $T599[rbp]
  054e8	e8 00 00 00 00	 call	 ??0RELATION@FST@@QEAA@DF@Z ; FST::RELATION::RELATION
  054ed	48 89 85 c8 9f
	00 00		 mov	 QWORD PTR tv3227[rbp], rax
  054f4	66 41 b8 01 00	 mov	 r8w, 1
  054f9	b2 7d		 mov	 dl, 125			; 0000007dH
  054fb	48 8d 8d 14 62
	00 00		 lea	 rcx, QWORD PTR $T600[rbp]
  05502	e8 00 00 00 00	 call	 ??0RELATION@FST@@QEAA@DF@Z ; FST::RELATION::RELATION
  05507	48 89 85 d0 9f
	00 00		 mov	 QWORD PTR tv3264[rbp], rax
  0550e	66 41 b8 01 00	 mov	 r8w, 1
  05513	b2 7b		 mov	 dl, 123			; 0000007bH
  05515	48 8d 8d 34 62
	00 00		 lea	 rcx, QWORD PTR $T601[rbp]
  0551c	e8 00 00 00 00	 call	 ??0RELATION@FST@@QEAA@DF@Z ; FST::RELATION::RELATION
  05521	48 89 85 d8 9f
	00 00		 mov	 QWORD PTR tv3269[rbp], rax
  05528	66 41 b8 01 00	 mov	 r8w, 1
  0552d	b2 29		 mov	 dl, 41			; 00000029H
  0552f	48 8d 8d 54 62
	00 00		 lea	 rcx, QWORD PTR $T602[rbp]
  05536	e8 00 00 00 00	 call	 ??0RELATION@FST@@QEAA@DF@Z ; FST::RELATION::RELATION
  0553b	48 89 85 e0 9f
	00 00		 mov	 QWORD PTR tv3274[rbp], rax
  05542	66 41 b8 01 00	 mov	 r8w, 1
  05547	b2 28		 mov	 dl, 40			; 00000028H
  05549	48 8d 8d 74 62
	00 00		 lea	 rcx, QWORD PTR $T603[rbp]
  05550	e8 00 00 00 00	 call	 ??0RELATION@FST@@QEAA@DF@Z ; FST::RELATION::RELATION
  05555	48 89 85 e8 9f
	00 00		 mov	 QWORD PTR tv3279[rbp], rax
  0555c	66 41 b8 01 00	 mov	 r8w, 1
  05561	b2 3a		 mov	 dl, 58			; 0000003aH
  05563	48 8d 8d 94 62
	00 00		 lea	 rcx, QWORD PTR $T604[rbp]
  0556a	e8 00 00 00 00	 call	 ??0RELATION@FST@@QEAA@DF@Z ; FST::RELATION::RELATION
  0556f	48 89 85 f0 9f
	00 00		 mov	 QWORD PTR tv3284[rbp], rax
  05576	66 41 b8 01 00	 mov	 r8w, 1
  0557b	b2 3b		 mov	 dl, 59			; 0000003bH
  0557d	48 8d 8d b4 62
	00 00		 lea	 rcx, QWORD PTR $T605[rbp]
  05584	e8 00 00 00 00	 call	 ??0RELATION@FST@@QEAA@DF@Z ; FST::RELATION::RELATION
  05589	48 89 85 f8 9f
	00 00		 mov	 QWORD PTR tv3289[rbp], rax
  05590	66 41 b8 01 00	 mov	 r8w, 1
  05595	b2 2a		 mov	 dl, 42			; 0000002aH
  05597	48 8d 8d d4 62
	00 00		 lea	 rcx, QWORD PTR $T606[rbp]
  0559e	e8 00 00 00 00	 call	 ??0RELATION@FST@@QEAA@DF@Z ; FST::RELATION::RELATION
  055a3	48 89 85 00 a0
	00 00		 mov	 QWORD PTR tv3294[rbp], rax
  055aa	66 41 b8 01 00	 mov	 r8w, 1
  055af	b2 2b		 mov	 dl, 43			; 0000002bH
  055b1	48 8d 8d f4 62
	00 00		 lea	 rcx, QWORD PTR $T607[rbp]
  055b8	e8 00 00 00 00	 call	 ??0RELATION@FST@@QEAA@DF@Z ; FST::RELATION::RELATION
  055bd	48 89 85 08 a0
	00 00		 mov	 QWORD PTR tv3299[rbp], rax
  055c4	66 41 b8 01 00	 mov	 r8w, 1
  055c9	b2 3d		 mov	 dl, 61			; 0000003dH
  055cb	48 8d 8d 14 63
	00 00		 lea	 rcx, QWORD PTR $T608[rbp]
  055d2	e8 00 00 00 00	 call	 ??0RELATION@FST@@QEAA@DF@Z ; FST::RELATION::RELATION
  055d7	48 89 85 10 a0
	00 00		 mov	 QWORD PTR tv3304[rbp], rax
  055de	66 41 b8 01 00	 mov	 r8w, 1
  055e3	b2 2d		 mov	 dl, 45			; 0000002dH
  055e5	48 8d 8d 34 63
	00 00		 lea	 rcx, QWORD PTR $T609[rbp]
  055ec	e8 00 00 00 00	 call	 ??0RELATION@FST@@QEAA@DF@Z ; FST::RELATION::RELATION
  055f1	48 89 85 18 a0
	00 00		 mov	 QWORD PTR tv3309[rbp], rax
  055f8	66 41 b8 01 00	 mov	 r8w, 1
  055fd	b2 ff		 mov	 dl, -1
  055ff	48 8d 8d 54 63
	00 00		 lea	 rcx, QWORD PTR $T610[rbp]
  05606	e8 00 00 00 00	 call	 ??0RELATION@FST@@QEAA@DF@Z ; FST::RELATION::RELATION
  0560b	48 89 85 20 a0
	00 00		 mov	 QWORD PTR tv3314[rbp], rax
  05612	66 41 b8 01 00	 mov	 r8w, 1
  05617	b2 fe		 mov	 dl, -2
  05619	48 8d 8d 74 63
	00 00		 lea	 rcx, QWORD PTR $T611[rbp]
  05620	e8 00 00 00 00	 call	 ??0RELATION@FST@@QEAA@DF@Z ; FST::RELATION::RELATION
  05625	48 89 85 28 a0
	00 00		 mov	 QWORD PTR tv3319[rbp], rax
  0562c	66 41 b8 01 00	 mov	 r8w, 1
  05631	b2 fd		 mov	 dl, -3
  05633	48 8d 8d 94 63
	00 00		 lea	 rcx, QWORD PTR $T612[rbp]
  0563a	e8 00 00 00 00	 call	 ??0RELATION@FST@@QEAA@DF@Z ; FST::RELATION::RELATION
  0563f	48 89 85 30 a0
	00 00		 mov	 QWORD PTR tv3324[rbp], rax
  05646	66 41 b8 01 00	 mov	 r8w, 1
  0564b	b2 fa		 mov	 dl, -6
  0564d	48 8d 8d b4 63
	00 00		 lea	 rcx, QWORD PTR $T613[rbp]
  05654	e8 00 00 00 00	 call	 ??0RELATION@FST@@QEAA@DF@Z ; FST::RELATION::RELATION
  05659	48 89 85 38 a0
	00 00		 mov	 QWORD PTR tv3329[rbp], rax
  05660	66 41 b8 01 00	 mov	 r8w, 1
  05665	b2 fc		 mov	 dl, -4
  05667	48 8d 8d d4 63
	00 00		 lea	 rcx, QWORD PTR $T614[rbp]
  0566e	e8 00 00 00 00	 call	 ??0RELATION@FST@@QEAA@DF@Z ; FST::RELATION::RELATION
  05673	48 89 85 40 a0
	00 00		 mov	 QWORD PTR tv3334[rbp], rax
  0567a	66 41 b8 01 00	 mov	 r8w, 1
  0567f	b2 fb		 mov	 dl, -5
  05681	48 8d 8d f4 63
	00 00		 lea	 rcx, QWORD PTR $T615[rbp]
  05688	e8 00 00 00 00	 call	 ??0RELATION@FST@@QEAA@DF@Z ; FST::RELATION::RELATION
  0568d	48 89 85 48 a0
	00 00		 mov	 QWORD PTR tv3339[rbp], rax
  05694	66 41 b8 01 00	 mov	 r8w, 1
  05699	b2 f9		 mov	 dl, -7
  0569b	48 8d 8d 14 64
	00 00		 lea	 rcx, QWORD PTR $T616[rbp]
  056a2	e8 00 00 00 00	 call	 ??0RELATION@FST@@QEAA@DF@Z ; FST::RELATION::RELATION
  056a7	48 89 85 50 a0
	00 00		 mov	 QWORD PTR tv3344[rbp], rax
  056ae	66 41 b8 01 00	 mov	 r8w, 1
  056b3	b2 f8		 mov	 dl, -8
  056b5	48 8d 8d 34 64
	00 00		 lea	 rcx, QWORD PTR $T617[rbp]
  056bc	e8 00 00 00 00	 call	 ??0RELATION@FST@@QEAA@DF@Z ; FST::RELATION::RELATION
  056c1	48 89 85 58 a0
	00 00		 mov	 QWORD PTR tv3349[rbp], rax
  056c8	66 41 b8 01 00	 mov	 r8w, 1
  056cd	b2 f7		 mov	 dl, -9
  056cf	48 8d 8d 54 64
	00 00		 lea	 rcx, QWORD PTR $T618[rbp]
  056d6	e8 00 00 00 00	 call	 ??0RELATION@FST@@QEAA@DF@Z ; FST::RELATION::RELATION
  056db	48 89 85 60 a0
	00 00		 mov	 QWORD PTR tv3354[rbp], rax
  056e2	66 41 b8 01 00	 mov	 r8w, 1
  056e7	b2 f6		 mov	 dl, -10
  056e9	48 8d 8d 74 64
	00 00		 lea	 rcx, QWORD PTR $T619[rbp]
  056f0	e8 00 00 00 00	 call	 ??0RELATION@FST@@QEAA@DF@Z ; FST::RELATION::RELATION
  056f5	48 89 85 68 a0
	00 00		 mov	 QWORD PTR tv3359[rbp], rax
  056fc	66 41 b8 01 00	 mov	 r8w, 1
  05701	b2 f5		 mov	 dl, -11
  05703	48 8d 8d 94 64
	00 00		 lea	 rcx, QWORD PTR $T620[rbp]
  0570a	e8 00 00 00 00	 call	 ??0RELATION@FST@@QEAA@DF@Z ; FST::RELATION::RELATION
  0570f	48 89 85 70 a0
	00 00		 mov	 QWORD PTR tv3364[rbp], rax
  05716	66 41 b8 01 00	 mov	 r8w, 1
  0571b	b2 f4		 mov	 dl, -12
  0571d	48 8d 8d b4 64
	00 00		 lea	 rcx, QWORD PTR $T621[rbp]
  05724	e8 00 00 00 00	 call	 ??0RELATION@FST@@QEAA@DF@Z ; FST::RELATION::RELATION
  05729	48 89 85 78 a0
	00 00		 mov	 QWORD PTR tv3369[rbp], rax
  05730	66 41 b8 01 00	 mov	 r8w, 1
  05735	b2 f3		 mov	 dl, -13
  05737	48 8d 8d d4 64
	00 00		 lea	 rcx, QWORD PTR $T622[rbp]
  0573e	e8 00 00 00 00	 call	 ??0RELATION@FST@@QEAA@DF@Z ; FST::RELATION::RELATION
  05743	48 89 85 80 a0
	00 00		 mov	 QWORD PTR tv3374[rbp], rax
  0574a	66 41 b8 01 00	 mov	 r8w, 1
  0574f	b2 f2		 mov	 dl, -14
  05751	48 8d 8d f4 64
	00 00		 lea	 rcx, QWORD PTR $T623[rbp]
  05758	e8 00 00 00 00	 call	 ??0RELATION@FST@@QEAA@DF@Z ; FST::RELATION::RELATION
  0575d	48 89 85 88 a0
	00 00		 mov	 QWORD PTR tv3379[rbp], rax
  05764	66 41 b8 01 00	 mov	 r8w, 1
  05769	b2 f1		 mov	 dl, -15
  0576b	48 8d 8d 14 65
	00 00		 lea	 rcx, QWORD PTR $T624[rbp]
  05772	e8 00 00 00 00	 call	 ??0RELATION@FST@@QEAA@DF@Z ; FST::RELATION::RELATION
  05777	48 89 85 90 a0
	00 00		 mov	 QWORD PTR tv3384[rbp], rax
  0577e	66 41 b8 01 00	 mov	 r8w, 1
  05783	b2 f0		 mov	 dl, -16
  05785	48 8d 8d 34 65
	00 00		 lea	 rcx, QWORD PTR $T625[rbp]
  0578c	e8 00 00 00 00	 call	 ??0RELATION@FST@@QEAA@DF@Z ; FST::RELATION::RELATION
  05791	48 89 85 98 a0
	00 00		 mov	 QWORD PTR tv3389[rbp], rax
  05798	66 41 b8 01 00	 mov	 r8w, 1
  0579d	b2 ef		 mov	 dl, -17
  0579f	48 8d 8d 54 65
	00 00		 lea	 rcx, QWORD PTR $T626[rbp]
  057a6	e8 00 00 00 00	 call	 ??0RELATION@FST@@QEAA@DF@Z ; FST::RELATION::RELATION
  057ab	48 89 85 a0 a0
	00 00		 mov	 QWORD PTR tv3394[rbp], rax
  057b2	66 41 b8 01 00	 mov	 r8w, 1
  057b7	b2 ee		 mov	 dl, -18
  057b9	48 8d 8d 74 65
	00 00		 lea	 rcx, QWORD PTR $T627[rbp]
  057c0	e8 00 00 00 00	 call	 ??0RELATION@FST@@QEAA@DF@Z ; FST::RELATION::RELATION
  057c5	48 89 85 a8 a0
	00 00		 mov	 QWORD PTR tv3399[rbp], rax
  057cc	66 41 b8 01 00	 mov	 r8w, 1
  057d1	b2 ed		 mov	 dl, -19
  057d3	48 8d 8d 94 65
	00 00		 lea	 rcx, QWORD PTR $T628[rbp]
  057da	e8 00 00 00 00	 call	 ??0RELATION@FST@@QEAA@DF@Z ; FST::RELATION::RELATION
  057df	48 89 85 b0 a0
	00 00		 mov	 QWORD PTR tv3404[rbp], rax
  057e6	66 41 b8 01 00	 mov	 r8w, 1
  057eb	b2 ec		 mov	 dl, -20
  057ed	48 8d 8d b4 65
	00 00		 lea	 rcx, QWORD PTR $T629[rbp]
  057f4	e8 00 00 00 00	 call	 ??0RELATION@FST@@QEAA@DF@Z ; FST::RELATION::RELATION
  057f9	48 89 85 b8 a0
	00 00		 mov	 QWORD PTR tv3409[rbp], rax
  05800	66 41 b8 01 00	 mov	 r8w, 1
  05805	b2 eb		 mov	 dl, -21
  05807	48 8d 8d d4 65
	00 00		 lea	 rcx, QWORD PTR $T630[rbp]
  0580e	e8 00 00 00 00	 call	 ??0RELATION@FST@@QEAA@DF@Z ; FST::RELATION::RELATION
  05813	48 89 85 c0 a0
	00 00		 mov	 QWORD PTR tv3414[rbp], rax
  0581a	66 41 b8 01 00	 mov	 r8w, 1
  0581f	b2 ea		 mov	 dl, -22
  05821	48 8d 8d f4 65
	00 00		 lea	 rcx, QWORD PTR $T631[rbp]
  05828	e8 00 00 00 00	 call	 ??0RELATION@FST@@QEAA@DF@Z ; FST::RELATION::RELATION
  0582d	48 89 85 c8 a0
	00 00		 mov	 QWORD PTR tv3419[rbp], rax
  05834	66 41 b8 01 00	 mov	 r8w, 1
  05839	b2 e9		 mov	 dl, -23
  0583b	48 8d 8d 14 66
	00 00		 lea	 rcx, QWORD PTR $T632[rbp]
  05842	e8 00 00 00 00	 call	 ??0RELATION@FST@@QEAA@DF@Z ; FST::RELATION::RELATION
  05847	48 89 85 d0 a0
	00 00		 mov	 QWORD PTR tv3456[rbp], rax
  0584e	66 41 b8 01 00	 mov	 r8w, 1
  05853	b2 e8		 mov	 dl, -24
  05855	48 8d 8d 34 66
	00 00		 lea	 rcx, QWORD PTR $T633[rbp]
  0585c	e8 00 00 00 00	 call	 ??0RELATION@FST@@QEAA@DF@Z ; FST::RELATION::RELATION
  05861	48 89 85 d8 a0
	00 00		 mov	 QWORD PTR tv3461[rbp], rax
  05868	66 41 b8 01 00	 mov	 r8w, 1
  0586d	b2 e7		 mov	 dl, -25
  0586f	48 8d 8d 54 66
	00 00		 lea	 rcx, QWORD PTR $T634[rbp]
  05876	e8 00 00 00 00	 call	 ??0RELATION@FST@@QEAA@DF@Z ; FST::RELATION::RELATION
  0587b	48 89 85 e0 a0
	00 00		 mov	 QWORD PTR tv3466[rbp], rax
  05882	66 41 b8 01 00	 mov	 r8w, 1
  05887	b2 e6		 mov	 dl, -26
  05889	48 8d 8d 74 66
	00 00		 lea	 rcx, QWORD PTR $T635[rbp]
  05890	e8 00 00 00 00	 call	 ??0RELATION@FST@@QEAA@DF@Z ; FST::RELATION::RELATION
  05895	48 89 85 e8 a0
	00 00		 mov	 QWORD PTR tv3471[rbp], rax
  0589c	66 41 b8 01 00	 mov	 r8w, 1
  058a1	b2 b8		 mov	 dl, -72			; ffffffffffffffb8H
  058a3	48 8d 8d 94 66
	00 00		 lea	 rcx, QWORD PTR $T636[rbp]
  058aa	e8 00 00 00 00	 call	 ??0RELATION@FST@@QEAA@DF@Z ; FST::RELATION::RELATION
  058af	48 89 85 f0 a0
	00 00		 mov	 QWORD PTR tv3476[rbp], rax
  058b6	66 41 b8 01 00	 mov	 r8w, 1
  058bb	b2 e5		 mov	 dl, -27
  058bd	48 8d 8d b4 66
	00 00		 lea	 rcx, QWORD PTR $T637[rbp]
  058c4	e8 00 00 00 00	 call	 ??0RELATION@FST@@QEAA@DF@Z ; FST::RELATION::RELATION
  058c9	48 89 85 f8 a0
	00 00		 mov	 QWORD PTR tv3481[rbp], rax
  058d0	66 41 b8 01 00	 mov	 r8w, 1
  058d5	b2 e4		 mov	 dl, -28
  058d7	48 8d 8d d4 66
	00 00		 lea	 rcx, QWORD PTR $T638[rbp]
  058de	e8 00 00 00 00	 call	 ??0RELATION@FST@@QEAA@DF@Z ; FST::RELATION::RELATION
  058e3	48 89 85 00 a1
	00 00		 mov	 QWORD PTR tv3486[rbp], rax
  058ea	66 41 b8 01 00	 mov	 r8w, 1
  058ef	b2 e3		 mov	 dl, -29
  058f1	48 8d 8d f4 66
	00 00		 lea	 rcx, QWORD PTR $T639[rbp]
  058f8	e8 00 00 00 00	 call	 ??0RELATION@FST@@QEAA@DF@Z ; FST::RELATION::RELATION
  058fd	48 89 85 08 a1
	00 00		 mov	 QWORD PTR tv3491[rbp], rax
  05904	66 41 b8 01 00	 mov	 r8w, 1
  05909	b2 e2		 mov	 dl, -30
  0590b	48 8d 8d 14 67
	00 00		 lea	 rcx, QWORD PTR $T640[rbp]
  05912	e8 00 00 00 00	 call	 ??0RELATION@FST@@QEAA@DF@Z ; FST::RELATION::RELATION
  05917	48 89 85 10 a1
	00 00		 mov	 QWORD PTR tv3496[rbp], rax
  0591e	66 41 b8 01 00	 mov	 r8w, 1
  05923	b2 e1		 mov	 dl, -31
  05925	48 8d 8d 34 67
	00 00		 lea	 rcx, QWORD PTR $T641[rbp]
  0592c	e8 00 00 00 00	 call	 ??0RELATION@FST@@QEAA@DF@Z ; FST::RELATION::RELATION
  05931	48 89 85 18 a1
	00 00		 mov	 QWORD PTR tv3501[rbp], rax
  05938	66 41 b8 01 00	 mov	 r8w, 1
  0593d	b2 e0		 mov	 dl, -32			; ffffffffffffffe0H
  0593f	48 8d 8d 54 67
	00 00		 lea	 rcx, QWORD PTR $T642[rbp]
  05946	e8 00 00 00 00	 call	 ??0RELATION@FST@@QEAA@DF@Z ; FST::RELATION::RELATION
  0594b	48 89 85 20 a1
	00 00		 mov	 QWORD PTR tv3506[rbp], rax
  05952	66 41 b8 01 00	 mov	 r8w, 1
  05957	b2 df		 mov	 dl, -33			; ffffffffffffffdfH
  05959	48 8d 8d 74 67
	00 00		 lea	 rcx, QWORD PTR $T643[rbp]
  05960	e8 00 00 00 00	 call	 ??0RELATION@FST@@QEAA@DF@Z ; FST::RELATION::RELATION
  05965	48 89 85 28 a1
	00 00		 mov	 QWORD PTR tv3511[rbp], rax
  0596c	66 41 b8 01 00	 mov	 r8w, 1
  05971	b2 de		 mov	 dl, -34			; ffffffffffffffdeH
  05973	48 8d 8d 94 67
	00 00		 lea	 rcx, QWORD PTR $T644[rbp]
  0597a	e8 00 00 00 00	 call	 ??0RELATION@FST@@QEAA@DF@Z ; FST::RELATION::RELATION
  0597f	48 89 85 30 a1
	00 00		 mov	 QWORD PTR tv3516[rbp], rax
  05986	66 41 b8 01 00	 mov	 r8w, 1
  0598b	b2 dd		 mov	 dl, -35			; ffffffffffffffddH
  0598d	48 8d 8d b4 67
	00 00		 lea	 rcx, QWORD PTR $T645[rbp]
  05994	e8 00 00 00 00	 call	 ??0RELATION@FST@@QEAA@DF@Z ; FST::RELATION::RELATION
  05999	48 89 85 38 a1
	00 00		 mov	 QWORD PTR tv3521[rbp], rax
  059a0	66 41 b8 01 00	 mov	 r8w, 1
  059a5	b2 da		 mov	 dl, -38			; ffffffffffffffdaH
  059a7	48 8d 8d d4 67
	00 00		 lea	 rcx, QWORD PTR $T646[rbp]
  059ae	e8 00 00 00 00	 call	 ??0RELATION@FST@@QEAA@DF@Z ; FST::RELATION::RELATION
  059b3	48 89 85 40 a1
	00 00		 mov	 QWORD PTR tv3526[rbp], rax
  059ba	66 41 b8 01 00	 mov	 r8w, 1
  059bf	b2 dc		 mov	 dl, -36			; ffffffffffffffdcH
  059c1	48 8d 8d f4 67
	00 00		 lea	 rcx, QWORD PTR $T647[rbp]
  059c8	e8 00 00 00 00	 call	 ??0RELATION@FST@@QEAA@DF@Z ; FST::RELATION::RELATION
  059cd	48 89 85 48 a1
	00 00		 mov	 QWORD PTR tv3531[rbp], rax
  059d4	66 41 b8 01 00	 mov	 r8w, 1
  059d9	b2 db		 mov	 dl, -37			; ffffffffffffffdbH
  059db	48 8d 8d 14 68
	00 00		 lea	 rcx, QWORD PTR $T648[rbp]
  059e2	e8 00 00 00 00	 call	 ??0RELATION@FST@@QEAA@DF@Z ; FST::RELATION::RELATION
  059e7	48 89 85 50 a1
	00 00		 mov	 QWORD PTR tv3536[rbp], rax
  059ee	66 41 b8 01 00	 mov	 r8w, 1
  059f3	b2 d9		 mov	 dl, -39			; ffffffffffffffd9H
  059f5	48 8d 8d 34 68
	00 00		 lea	 rcx, QWORD PTR $T649[rbp]
  059fc	e8 00 00 00 00	 call	 ??0RELATION@FST@@QEAA@DF@Z ; FST::RELATION::RELATION
  05a01	48 89 85 58 a1
	00 00		 mov	 QWORD PTR tv3541[rbp], rax
  05a08	66 41 b8 01 00	 mov	 r8w, 1
  05a0d	b2 d8		 mov	 dl, -40			; ffffffffffffffd8H
  05a0f	48 8d 8d 54 68
	00 00		 lea	 rcx, QWORD PTR $T650[rbp]
  05a16	e8 00 00 00 00	 call	 ??0RELATION@FST@@QEAA@DF@Z ; FST::RELATION::RELATION
  05a1b	48 89 85 60 a1
	00 00		 mov	 QWORD PTR tv3546[rbp], rax
  05a22	66 41 b8 01 00	 mov	 r8w, 1
  05a27	b2 d7		 mov	 dl, -41			; ffffffffffffffd7H
  05a29	48 8d 8d 74 68
	00 00		 lea	 rcx, QWORD PTR $T651[rbp]
  05a30	e8 00 00 00 00	 call	 ??0RELATION@FST@@QEAA@DF@Z ; FST::RELATION::RELATION
  05a35	48 89 85 68 a1
	00 00		 mov	 QWORD PTR tv3551[rbp], rax
  05a3c	66 41 b8 01 00	 mov	 r8w, 1
  05a41	b2 d6		 mov	 dl, -42			; ffffffffffffffd6H
  05a43	48 8d 8d 94 68
	00 00		 lea	 rcx, QWORD PTR $T652[rbp]
  05a4a	e8 00 00 00 00	 call	 ??0RELATION@FST@@QEAA@DF@Z ; FST::RELATION::RELATION
  05a4f	48 89 85 70 a1
	00 00		 mov	 QWORD PTR tv3556[rbp], rax
  05a56	66 41 b8 01 00	 mov	 r8w, 1
  05a5b	b2 d5		 mov	 dl, -43			; ffffffffffffffd5H
  05a5d	48 8d 8d b4 68
	00 00		 lea	 rcx, QWORD PTR $T653[rbp]
  05a64	e8 00 00 00 00	 call	 ??0RELATION@FST@@QEAA@DF@Z ; FST::RELATION::RELATION
  05a69	48 89 85 78 a1
	00 00		 mov	 QWORD PTR tv3561[rbp], rax
  05a70	66 41 b8 01 00	 mov	 r8w, 1
  05a75	b2 d4		 mov	 dl, -44			; ffffffffffffffd4H
  05a77	48 8d 8d d4 68
	00 00		 lea	 rcx, QWORD PTR $T654[rbp]
  05a7e	e8 00 00 00 00	 call	 ??0RELATION@FST@@QEAA@DF@Z ; FST::RELATION::RELATION
  05a83	48 89 85 80 a1
	00 00		 mov	 QWORD PTR tv3566[rbp], rax
  05a8a	66 41 b8 01 00	 mov	 r8w, 1
  05a8f	b2 d3		 mov	 dl, -45			; ffffffffffffffd3H
  05a91	48 8d 8d f4 68
	00 00		 lea	 rcx, QWORD PTR $T655[rbp]
  05a98	e8 00 00 00 00	 call	 ??0RELATION@FST@@QEAA@DF@Z ; FST::RELATION::RELATION
  05a9d	48 89 85 88 a1
	00 00		 mov	 QWORD PTR tv3571[rbp], rax
  05aa4	66 41 b8 01 00	 mov	 r8w, 1
  05aa9	b2 d2		 mov	 dl, -46			; ffffffffffffffd2H
  05aab	48 8d 8d 14 69
	00 00		 lea	 rcx, QWORD PTR $T656[rbp]
  05ab2	e8 00 00 00 00	 call	 ??0RELATION@FST@@QEAA@DF@Z ; FST::RELATION::RELATION
  05ab7	48 89 85 90 a1
	00 00		 mov	 QWORD PTR tv3576[rbp], rax
  05abe	66 41 b8 01 00	 mov	 r8w, 1
  05ac3	b2 d1		 mov	 dl, -47			; ffffffffffffffd1H
  05ac5	48 8d 8d 34 69
	00 00		 lea	 rcx, QWORD PTR $T657[rbp]
  05acc	e8 00 00 00 00	 call	 ??0RELATION@FST@@QEAA@DF@Z ; FST::RELATION::RELATION
  05ad1	48 89 85 98 a1
	00 00		 mov	 QWORD PTR tv3581[rbp], rax
  05ad8	66 41 b8 01 00	 mov	 r8w, 1
  05add	b2 d0		 mov	 dl, -48			; ffffffffffffffd0H
  05adf	48 8d 8d 54 69
	00 00		 lea	 rcx, QWORD PTR $T658[rbp]
  05ae6	e8 00 00 00 00	 call	 ??0RELATION@FST@@QEAA@DF@Z ; FST::RELATION::RELATION
  05aeb	48 89 85 a0 a1
	00 00		 mov	 QWORD PTR tv3586[rbp], rax
  05af2	66 41 b8 01 00	 mov	 r8w, 1
  05af7	b2 cf		 mov	 dl, -49			; ffffffffffffffcfH
  05af9	48 8d 8d 74 69
	00 00		 lea	 rcx, QWORD PTR $T659[rbp]
  05b00	e8 00 00 00 00	 call	 ??0RELATION@FST@@QEAA@DF@Z ; FST::RELATION::RELATION
  05b05	48 89 85 a8 a1
	00 00		 mov	 QWORD PTR tv3591[rbp], rax
  05b0c	66 41 b8 01 00	 mov	 r8w, 1
  05b11	b2 ce		 mov	 dl, -50			; ffffffffffffffceH
  05b13	48 8d 8d 94 69
	00 00		 lea	 rcx, QWORD PTR $T660[rbp]
  05b1a	e8 00 00 00 00	 call	 ??0RELATION@FST@@QEAA@DF@Z ; FST::RELATION::RELATION
  05b1f	48 89 85 b0 a1
	00 00		 mov	 QWORD PTR tv3596[rbp], rax
  05b26	66 41 b8 01 00	 mov	 r8w, 1
  05b2b	b2 cd		 mov	 dl, -51			; ffffffffffffffcdH
  05b2d	48 8d 8d b4 69
	00 00		 lea	 rcx, QWORD PTR $T661[rbp]
  05b34	e8 00 00 00 00	 call	 ??0RELATION@FST@@QEAA@DF@Z ; FST::RELATION::RELATION
  05b39	48 89 85 b8 a1
	00 00		 mov	 QWORD PTR tv3601[rbp], rax
  05b40	66 41 b8 01 00	 mov	 r8w, 1
  05b45	b2 cc		 mov	 dl, -52			; ffffffffffffffccH
  05b47	48 8d 8d d4 69
	00 00		 lea	 rcx, QWORD PTR $T662[rbp]
  05b4e	e8 00 00 00 00	 call	 ??0RELATION@FST@@QEAA@DF@Z ; FST::RELATION::RELATION
  05b53	48 89 85 c0 a1
	00 00		 mov	 QWORD PTR tv3606[rbp], rax
  05b5a	66 41 b8 01 00	 mov	 r8w, 1
  05b5f	b2 cb		 mov	 dl, -53			; ffffffffffffffcbH
  05b61	48 8d 8d f4 69
	00 00		 lea	 rcx, QWORD PTR $T663[rbp]
  05b68	e8 00 00 00 00	 call	 ??0RELATION@FST@@QEAA@DF@Z ; FST::RELATION::RELATION
  05b6d	48 89 85 c8 a1
	00 00		 mov	 QWORD PTR tv3611[rbp], rax
  05b74	66 41 b8 01 00	 mov	 r8w, 1
  05b79	b2 ca		 mov	 dl, -54			; ffffffffffffffcaH
  05b7b	48 8d 8d 14 6a
	00 00		 lea	 rcx, QWORD PTR $T664[rbp]
  05b82	e8 00 00 00 00	 call	 ??0RELATION@FST@@QEAA@DF@Z ; FST::RELATION::RELATION
  05b87	48 89 85 d0 a1
	00 00		 mov	 QWORD PTR tv3648[rbp], rax
  05b8e	66 41 b8 01 00	 mov	 r8w, 1
  05b93	b2 c9		 mov	 dl, -55			; ffffffffffffffc9H
  05b95	48 8d 8d 34 6a
	00 00		 lea	 rcx, QWORD PTR $T665[rbp]
  05b9c	e8 00 00 00 00	 call	 ??0RELATION@FST@@QEAA@DF@Z ; FST::RELATION::RELATION
  05ba1	48 89 85 d8 a1
	00 00		 mov	 QWORD PTR tv3653[rbp], rax
  05ba8	66 41 b8 01 00	 mov	 r8w, 1
  05bad	b2 c8		 mov	 dl, -56			; ffffffffffffffc8H
  05baf	48 8d 8d 54 6a
	00 00		 lea	 rcx, QWORD PTR $T666[rbp]
  05bb6	e8 00 00 00 00	 call	 ??0RELATION@FST@@QEAA@DF@Z ; FST::RELATION::RELATION
  05bbb	48 89 85 e0 a1
	00 00		 mov	 QWORD PTR tv3658[rbp], rax
  05bc2	66 41 b8 01 00	 mov	 r8w, 1
  05bc7	b2 c7		 mov	 dl, -57			; ffffffffffffffc7H
  05bc9	48 8d 8d 74 6a
	00 00		 lea	 rcx, QWORD PTR $T667[rbp]
  05bd0	e8 00 00 00 00	 call	 ??0RELATION@FST@@QEAA@DF@Z ; FST::RELATION::RELATION
  05bd5	48 89 85 e8 a1
	00 00		 mov	 QWORD PTR tv3663[rbp], rax
  05bdc	66 41 b8 01 00	 mov	 r8w, 1
  05be1	b2 c6		 mov	 dl, -58			; ffffffffffffffc6H
  05be3	48 8d 8d 94 6a
	00 00		 lea	 rcx, QWORD PTR $T668[rbp]
  05bea	e8 00 00 00 00	 call	 ??0RELATION@FST@@QEAA@DF@Z ; FST::RELATION::RELATION
  05bef	48 89 85 f0 a1
	00 00		 mov	 QWORD PTR tv3668[rbp], rax
  05bf6	66 41 b8 01 00	 mov	 r8w, 1
  05bfb	b2 a8		 mov	 dl, -88			; ffffffffffffffa8H
  05bfd	48 8d 8d b4 6a
	00 00		 lea	 rcx, QWORD PTR $T669[rbp]
  05c04	e8 00 00 00 00	 call	 ??0RELATION@FST@@QEAA@DF@Z ; FST::RELATION::RELATION
  05c09	48 89 85 f8 a1
	00 00		 mov	 QWORD PTR tv3673[rbp], rax
  05c10	66 41 b8 01 00	 mov	 r8w, 1
  05c15	b2 c5		 mov	 dl, -59			; ffffffffffffffc5H
  05c17	48 8d 8d d4 6a
	00 00		 lea	 rcx, QWORD PTR $T670[rbp]
  05c1e	e8 00 00 00 00	 call	 ??0RELATION@FST@@QEAA@DF@Z ; FST::RELATION::RELATION
  05c23	48 89 85 00 a2
	00 00		 mov	 QWORD PTR tv3678[rbp], rax
  05c2a	66 41 b8 01 00	 mov	 r8w, 1
  05c2f	b2 c4		 mov	 dl, -60			; ffffffffffffffc4H
  05c31	48 8d 8d f4 6a
	00 00		 lea	 rcx, QWORD PTR $T671[rbp]
  05c38	e8 00 00 00 00	 call	 ??0RELATION@FST@@QEAA@DF@Z ; FST::RELATION::RELATION
  05c3d	48 89 85 08 a2
	00 00		 mov	 QWORD PTR tv3683[rbp], rax
  05c44	66 41 b8 01 00	 mov	 r8w, 1
  05c49	b2 c3		 mov	 dl, -61			; ffffffffffffffc3H
  05c4b	48 8d 8d 14 6b
	00 00		 lea	 rcx, QWORD PTR $T672[rbp]
  05c52	e8 00 00 00 00	 call	 ??0RELATION@FST@@QEAA@DF@Z ; FST::RELATION::RELATION
  05c57	48 89 85 10 a2
	00 00		 mov	 QWORD PTR tv3688[rbp], rax
  05c5e	66 41 b8 01 00	 mov	 r8w, 1
  05c63	b2 c2		 mov	 dl, -62			; ffffffffffffffc2H
  05c65	48 8d 8d 34 6b
	00 00		 lea	 rcx, QWORD PTR $T673[rbp]
  05c6c	e8 00 00 00 00	 call	 ??0RELATION@FST@@QEAA@DF@Z ; FST::RELATION::RELATION
  05c71	48 89 85 18 a2
	00 00		 mov	 QWORD PTR tv3693[rbp], rax
  05c78	66 41 b8 01 00	 mov	 r8w, 1
  05c7d	b2 c1		 mov	 dl, -63			; ffffffffffffffc1H
  05c7f	48 8d 8d 54 6b
	00 00		 lea	 rcx, QWORD PTR $T674[rbp]
  05c86	e8 00 00 00 00	 call	 ??0RELATION@FST@@QEAA@DF@Z ; FST::RELATION::RELATION
  05c8b	48 89 85 20 a2
	00 00		 mov	 QWORD PTR tv3698[rbp], rax
  05c92	66 41 b8 01 00	 mov	 r8w, 1
  05c97	b2 c0		 mov	 dl, -64			; ffffffffffffffc0H
  05c99	48 8d 8d 74 6b
	00 00		 lea	 rcx, QWORD PTR $T675[rbp]
  05ca0	e8 00 00 00 00	 call	 ??0RELATION@FST@@QEAA@DF@Z ; FST::RELATION::RELATION
  05ca5	48 89 85 28 a2
	00 00		 mov	 QWORD PTR tv3703[rbp], rax
  05cac	66 41 b8 01 00	 mov	 r8w, 1
  05cb1	b2 20		 mov	 dl, 32			; 00000020H
  05cb3	48 8d 8d 94 6b
	00 00		 lea	 rcx, QWORD PTR $T676[rbp]
  05cba	e8 00 00 00 00	 call	 ??0RELATION@FST@@QEAA@DF@Z ; FST::RELATION::RELATION
  05cbf	48 89 85 30 a2
	00 00		 mov	 QWORD PTR tv3708[rbp], rax
  05cc6	66 41 b8 01 00	 mov	 r8w, 1
  05ccb	b2 30		 mov	 dl, 48			; 00000030H
  05ccd	48 8d 8d b4 6b
	00 00		 lea	 rcx, QWORD PTR $T677[rbp]
  05cd4	e8 00 00 00 00	 call	 ??0RELATION@FST@@QEAA@DF@Z ; FST::RELATION::RELATION
  05cd9	48 89 85 38 a2
	00 00		 mov	 QWORD PTR tv3713[rbp], rax
  05ce0	66 41 b8 01 00	 mov	 r8w, 1
  05ce5	b2 39		 mov	 dl, 57			; 00000039H
  05ce7	48 8d 8d d4 6b
	00 00		 lea	 rcx, QWORD PTR $T678[rbp]
  05cee	e8 00 00 00 00	 call	 ??0RELATION@FST@@QEAA@DF@Z ; FST::RELATION::RELATION
  05cf3	48 89 85 40 a2
	00 00		 mov	 QWORD PTR tv3718[rbp], rax
  05cfa	66 41 b8 01 00	 mov	 r8w, 1
  05cff	b2 38		 mov	 dl, 56			; 00000038H
  05d01	48 8d 8d f4 6b
	00 00		 lea	 rcx, QWORD PTR $T679[rbp]
  05d08	e8 00 00 00 00	 call	 ??0RELATION@FST@@QEAA@DF@Z ; FST::RELATION::RELATION
  05d0d	48 89 85 48 a2
	00 00		 mov	 QWORD PTR tv3723[rbp], rax
  05d14	66 41 b8 01 00	 mov	 r8w, 1
  05d19	b2 37		 mov	 dl, 55			; 00000037H
  05d1b	48 8d 8d 14 6c
	00 00		 lea	 rcx, QWORD PTR $T680[rbp]
  05d22	e8 00 00 00 00	 call	 ??0RELATION@FST@@QEAA@DF@Z ; FST::RELATION::RELATION
  05d27	48 89 85 50 a2
	00 00		 mov	 QWORD PTR tv3728[rbp], rax
  05d2e	66 41 b8 01 00	 mov	 r8w, 1
  05d33	b2 36		 mov	 dl, 54			; 00000036H
  05d35	48 8d 8d 34 6c
	00 00		 lea	 rcx, QWORD PTR $T681[rbp]
  05d3c	e8 00 00 00 00	 call	 ??0RELATION@FST@@QEAA@DF@Z ; FST::RELATION::RELATION
  05d41	48 89 85 58 a2
	00 00		 mov	 QWORD PTR tv3733[rbp], rax
  05d48	66 41 b8 01 00	 mov	 r8w, 1
  05d4d	b2 35		 mov	 dl, 53			; 00000035H
  05d4f	48 8d 8d 54 6c
	00 00		 lea	 rcx, QWORD PTR $T682[rbp]
  05d56	e8 00 00 00 00	 call	 ??0RELATION@FST@@QEAA@DF@Z ; FST::RELATION::RELATION
  05d5b	48 89 85 60 a2
	00 00		 mov	 QWORD PTR tv3738[rbp], rax
  05d62	66 41 b8 01 00	 mov	 r8w, 1
  05d67	b2 34		 mov	 dl, 52			; 00000034H
  05d69	48 8d 8d 74 6c
	00 00		 lea	 rcx, QWORD PTR $T683[rbp]
  05d70	e8 00 00 00 00	 call	 ??0RELATION@FST@@QEAA@DF@Z ; FST::RELATION::RELATION
  05d75	48 89 85 68 a2
	00 00		 mov	 QWORD PTR tv3743[rbp], rax
  05d7c	66 41 b8 01 00	 mov	 r8w, 1
  05d81	b2 33		 mov	 dl, 51			; 00000033H
  05d83	48 8d 8d 94 6c
	00 00		 lea	 rcx, QWORD PTR $T684[rbp]
  05d8a	e8 00 00 00 00	 call	 ??0RELATION@FST@@QEAA@DF@Z ; FST::RELATION::RELATION
  05d8f	48 89 85 70 a2
	00 00		 mov	 QWORD PTR tv3748[rbp], rax
  05d96	66 41 b8 01 00	 mov	 r8w, 1
  05d9b	b2 32		 mov	 dl, 50			; 00000032H
  05d9d	48 8d 8d b4 6c
	00 00		 lea	 rcx, QWORD PTR $T685[rbp]
  05da4	e8 00 00 00 00	 call	 ??0RELATION@FST@@QEAA@DF@Z ; FST::RELATION::RELATION
  05da9	48 89 85 78 a2
	00 00		 mov	 QWORD PTR tv3753[rbp], rax
  05db0	66 41 b8 01 00	 mov	 r8w, 1
  05db5	b2 31		 mov	 dl, 49			; 00000031H
  05db7	48 8d 8d d4 6c
	00 00		 lea	 rcx, QWORD PTR $T686[rbp]
  05dbe	e8 00 00 00 00	 call	 ??0RELATION@FST@@QEAA@DF@Z ; FST::RELATION::RELATION
  05dc3	48 89 85 80 a2
	00 00		 mov	 QWORD PTR tv3758[rbp], rax
  05dca	66 41 b8 01 00	 mov	 r8w, 1
  05dcf	b2 5a		 mov	 dl, 90			; 0000005aH
  05dd1	48 8d 8d f4 6c
	00 00		 lea	 rcx, QWORD PTR $T687[rbp]
  05dd8	e8 00 00 00 00	 call	 ??0RELATION@FST@@QEAA@DF@Z ; FST::RELATION::RELATION
  05ddd	48 89 85 88 a2
	00 00		 mov	 QWORD PTR tv3763[rbp], rax
  05de4	66 41 b8 01 00	 mov	 r8w, 1
  05de9	b2 59		 mov	 dl, 89			; 00000059H
  05deb	48 8d 8d 14 6d
	00 00		 lea	 rcx, QWORD PTR $T688[rbp]
  05df2	e8 00 00 00 00	 call	 ??0RELATION@FST@@QEAA@DF@Z ; FST::RELATION::RELATION
  05df7	48 89 85 90 a2
	00 00		 mov	 QWORD PTR tv3768[rbp], rax
  05dfe	66 41 b8 01 00	 mov	 r8w, 1
  05e03	b2 58		 mov	 dl, 88			; 00000058H
  05e05	48 8d 8d 34 6d
	00 00		 lea	 rcx, QWORD PTR $T689[rbp]
  05e0c	e8 00 00 00 00	 call	 ??0RELATION@FST@@QEAA@DF@Z ; FST::RELATION::RELATION
  05e11	48 89 85 98 a2
	00 00		 mov	 QWORD PTR tv3773[rbp], rax
  05e18	66 41 b8 01 00	 mov	 r8w, 1
  05e1d	b2 57		 mov	 dl, 87			; 00000057H
  05e1f	48 8d 8d 54 6d
	00 00		 lea	 rcx, QWORD PTR $T690[rbp]
  05e26	e8 00 00 00 00	 call	 ??0RELATION@FST@@QEAA@DF@Z ; FST::RELATION::RELATION
  05e2b	48 89 85 a0 a2
	00 00		 mov	 QWORD PTR tv3778[rbp], rax
  05e32	66 41 b8 01 00	 mov	 r8w, 1
  05e37	b2 56		 mov	 dl, 86			; 00000056H
  05e39	48 8d 8d 74 6d
	00 00		 lea	 rcx, QWORD PTR $T691[rbp]
  05e40	e8 00 00 00 00	 call	 ??0RELATION@FST@@QEAA@DF@Z ; FST::RELATION::RELATION
  05e45	48 89 85 a8 a2
	00 00		 mov	 QWORD PTR tv3783[rbp], rax
  05e4c	66 41 b8 01 00	 mov	 r8w, 1
  05e51	b2 55		 mov	 dl, 85			; 00000055H
  05e53	48 8d 8d 94 6d
	00 00		 lea	 rcx, QWORD PTR $T692[rbp]
  05e5a	e8 00 00 00 00	 call	 ??0RELATION@FST@@QEAA@DF@Z ; FST::RELATION::RELATION
  05e5f	48 89 85 b0 a2
	00 00		 mov	 QWORD PTR tv3788[rbp], rax
  05e66	66 41 b8 01 00	 mov	 r8w, 1
  05e6b	b2 54		 mov	 dl, 84			; 00000054H
  05e6d	48 8d 8d b4 6d
	00 00		 lea	 rcx, QWORD PTR $T693[rbp]
  05e74	e8 00 00 00 00	 call	 ??0RELATION@FST@@QEAA@DF@Z ; FST::RELATION::RELATION
  05e79	48 89 85 b8 a2
	00 00		 mov	 QWORD PTR tv3793[rbp], rax
  05e80	66 41 b8 01 00	 mov	 r8w, 1
  05e85	b2 53		 mov	 dl, 83			; 00000053H
  05e87	48 8d 8d d4 6d
	00 00		 lea	 rcx, QWORD PTR $T694[rbp]
  05e8e	e8 00 00 00 00	 call	 ??0RELATION@FST@@QEAA@DF@Z ; FST::RELATION::RELATION
  05e93	48 89 85 c0 a2
	00 00		 mov	 QWORD PTR tv3798[rbp], rax
  05e9a	66 41 b8 01 00	 mov	 r8w, 1
  05e9f	b2 52		 mov	 dl, 82			; 00000052H
  05ea1	48 8d 8d f4 6d
	00 00		 lea	 rcx, QWORD PTR $T695[rbp]
  05ea8	e8 00 00 00 00	 call	 ??0RELATION@FST@@QEAA@DF@Z ; FST::RELATION::RELATION
  05ead	48 89 85 c8 a2
	00 00		 mov	 QWORD PTR tv3803[rbp], rax
  05eb4	66 41 b8 01 00	 mov	 r8w, 1
  05eb9	b2 51		 mov	 dl, 81			; 00000051H
  05ebb	48 8d 8d 14 6e
	00 00		 lea	 rcx, QWORD PTR $T696[rbp]
  05ec2	e8 00 00 00 00	 call	 ??0RELATION@FST@@QEAA@DF@Z ; FST::RELATION::RELATION
  05ec7	48 89 85 d0 a2
	00 00		 mov	 QWORD PTR tv3840[rbp], rax
  05ece	66 41 b8 01 00	 mov	 r8w, 1
  05ed3	b2 50		 mov	 dl, 80			; 00000050H
  05ed5	48 8d 8d 34 6e
	00 00		 lea	 rcx, QWORD PTR $T697[rbp]
  05edc	e8 00 00 00 00	 call	 ??0RELATION@FST@@QEAA@DF@Z ; FST::RELATION::RELATION
  05ee1	48 89 85 d8 a2
	00 00		 mov	 QWORD PTR tv3845[rbp], rax
  05ee8	66 41 b8 01 00	 mov	 r8w, 1
  05eed	b2 4f		 mov	 dl, 79			; 0000004fH
  05eef	48 8d 8d 54 6e
	00 00		 lea	 rcx, QWORD PTR $T698[rbp]
  05ef6	e8 00 00 00 00	 call	 ??0RELATION@FST@@QEAA@DF@Z ; FST::RELATION::RELATION
  05efb	48 89 85 e0 a2
	00 00		 mov	 QWORD PTR tv3850[rbp], rax
  05f02	66 41 b8 01 00	 mov	 r8w, 1
  05f07	b2 4e		 mov	 dl, 78			; 0000004eH
  05f09	48 8d 8d 74 6e
	00 00		 lea	 rcx, QWORD PTR $T699[rbp]
  05f10	e8 00 00 00 00	 call	 ??0RELATION@FST@@QEAA@DF@Z ; FST::RELATION::RELATION
  05f15	48 89 85 e8 a2
	00 00		 mov	 QWORD PTR tv3855[rbp], rax
  05f1c	66 41 b8 01 00	 mov	 r8w, 1
  05f21	b2 4d		 mov	 dl, 77			; 0000004dH
  05f23	48 8d 8d 94 6e
	00 00		 lea	 rcx, QWORD PTR $T700[rbp]
  05f2a	e8 00 00 00 00	 call	 ??0RELATION@FST@@QEAA@DF@Z ; FST::RELATION::RELATION
  05f2f	48 89 85 f0 a2
	00 00		 mov	 QWORD PTR tv3860[rbp], rax
  05f36	66 41 b8 01 00	 mov	 r8w, 1
  05f3b	b2 4c		 mov	 dl, 76			; 0000004cH
  05f3d	48 8d 8d b4 6e
	00 00		 lea	 rcx, QWORD PTR $T701[rbp]
  05f44	e8 00 00 00 00	 call	 ??0RELATION@FST@@QEAA@DF@Z ; FST::RELATION::RELATION
  05f49	48 89 85 f8 a2
	00 00		 mov	 QWORD PTR tv3865[rbp], rax
  05f50	66 41 b8 01 00	 mov	 r8w, 1
  05f55	b2 4b		 mov	 dl, 75			; 0000004bH
  05f57	48 8d 8d d4 6e
	00 00		 lea	 rcx, QWORD PTR $T702[rbp]
  05f5e	e8 00 00 00 00	 call	 ??0RELATION@FST@@QEAA@DF@Z ; FST::RELATION::RELATION
  05f63	48 89 85 00 a3
	00 00		 mov	 QWORD PTR tv3870[rbp], rax
  05f6a	66 41 b8 01 00	 mov	 r8w, 1
  05f6f	b2 4c		 mov	 dl, 76			; 0000004cH
  05f71	48 8d 8d f4 6e
	00 00		 lea	 rcx, QWORD PTR $T703[rbp]
  05f78	e8 00 00 00 00	 call	 ??0RELATION@FST@@QEAA@DF@Z ; FST::RELATION::RELATION
  05f7d	48 89 85 08 a3
	00 00		 mov	 QWORD PTR tv3875[rbp], rax
  05f84	66 41 b8 01 00	 mov	 r8w, 1
  05f89	b2 4a		 mov	 dl, 74			; 0000004aH
  05f8b	48 8d 8d 14 6f
	00 00		 lea	 rcx, QWORD PTR $T704[rbp]
  05f92	e8 00 00 00 00	 call	 ??0RELATION@FST@@QEAA@DF@Z ; FST::RELATION::RELATION
  05f97	48 89 85 10 a3
	00 00		 mov	 QWORD PTR tv3880[rbp], rax
  05f9e	66 41 b8 01 00	 mov	 r8w, 1
  05fa3	b2 49		 mov	 dl, 73			; 00000049H
  05fa5	48 8d 8d 34 6f
	00 00		 lea	 rcx, QWORD PTR $T705[rbp]
  05fac	e8 00 00 00 00	 call	 ??0RELATION@FST@@QEAA@DF@Z ; FST::RELATION::RELATION
  05fb1	48 89 85 18 a3
	00 00		 mov	 QWORD PTR tv3885[rbp], rax
  05fb8	66 41 b8 01 00	 mov	 r8w, 1
  05fbd	b2 48		 mov	 dl, 72			; 00000048H
  05fbf	48 8d 8d 54 6f
	00 00		 lea	 rcx, QWORD PTR $T706[rbp]
  05fc6	e8 00 00 00 00	 call	 ??0RELATION@FST@@QEAA@DF@Z ; FST::RELATION::RELATION
  05fcb	48 89 85 20 a3
	00 00		 mov	 QWORD PTR tv3890[rbp], rax
  05fd2	66 41 b8 01 00	 mov	 r8w, 1
  05fd7	b2 47		 mov	 dl, 71			; 00000047H
  05fd9	48 8d 8d 74 6f
	00 00		 lea	 rcx, QWORD PTR $T707[rbp]
  05fe0	e8 00 00 00 00	 call	 ??0RELATION@FST@@QEAA@DF@Z ; FST::RELATION::RELATION
  05fe5	48 89 85 28 a3
	00 00		 mov	 QWORD PTR tv3895[rbp], rax
  05fec	66 41 b8 01 00	 mov	 r8w, 1
  05ff1	b2 46		 mov	 dl, 70			; 00000046H
  05ff3	48 8d 8d 94 6f
	00 00		 lea	 rcx, QWORD PTR $T708[rbp]
  05ffa	e8 00 00 00 00	 call	 ??0RELATION@FST@@QEAA@DF@Z ; FST::RELATION::RELATION
  05fff	48 89 85 30 a3
	00 00		 mov	 QWORD PTR tv3900[rbp], rax
  06006	66 41 b8 01 00	 mov	 r8w, 1
  0600b	b2 45		 mov	 dl, 69			; 00000045H
  0600d	48 8d 8d b4 6f
	00 00		 lea	 rcx, QWORD PTR $T709[rbp]
  06014	e8 00 00 00 00	 call	 ??0RELATION@FST@@QEAA@DF@Z ; FST::RELATION::RELATION
  06019	48 89 85 38 a3
	00 00		 mov	 QWORD PTR tv3905[rbp], rax
  06020	66 41 b8 01 00	 mov	 r8w, 1
  06025	b2 44		 mov	 dl, 68			; 00000044H
  06027	48 8d 8d d4 6f
	00 00		 lea	 rcx, QWORD PTR $T710[rbp]
  0602e	e8 00 00 00 00	 call	 ??0RELATION@FST@@QEAA@DF@Z ; FST::RELATION::RELATION
  06033	48 89 85 40 a3
	00 00		 mov	 QWORD PTR tv3910[rbp], rax
  0603a	66 41 b8 01 00	 mov	 r8w, 1
  0603f	b2 43		 mov	 dl, 67			; 00000043H
  06041	48 8d 8d f4 6f
	00 00		 lea	 rcx, QWORD PTR $T711[rbp]
  06048	e8 00 00 00 00	 call	 ??0RELATION@FST@@QEAA@DF@Z ; FST::RELATION::RELATION
  0604d	48 89 85 48 a3
	00 00		 mov	 QWORD PTR tv3915[rbp], rax
  06054	66 41 b8 01 00	 mov	 r8w, 1
  06059	b2 42		 mov	 dl, 66			; 00000042H
  0605b	48 8d 8d 14 70
	00 00		 lea	 rcx, QWORD PTR $T712[rbp]
  06062	e8 00 00 00 00	 call	 ??0RELATION@FST@@QEAA@DF@Z ; FST::RELATION::RELATION
  06067	48 89 85 50 a3
	00 00		 mov	 QWORD PTR tv3920[rbp], rax
  0606e	66 41 b8 01 00	 mov	 r8w, 1
  06073	b2 41		 mov	 dl, 65			; 00000041H
  06075	48 8d 8d 34 70
	00 00		 lea	 rcx, QWORD PTR $T713[rbp]
  0607c	e8 00 00 00 00	 call	 ??0RELATION@FST@@QEAA@DF@Z ; FST::RELATION::RELATION
  06081	48 89 85 58 a3
	00 00		 mov	 QWORD PTR tv3925[rbp], rax
  06088	66 41 b8 01 00	 mov	 r8w, 1
  0608d	b2 7a		 mov	 dl, 122			; 0000007aH
  0608f	48 8d 8d 54 70
	00 00		 lea	 rcx, QWORD PTR $T714[rbp]
  06096	e8 00 00 00 00	 call	 ??0RELATION@FST@@QEAA@DF@Z ; FST::RELATION::RELATION
  0609b	48 89 85 60 a3
	00 00		 mov	 QWORD PTR tv3930[rbp], rax
  060a2	66 41 b8 01 00	 mov	 r8w, 1
  060a7	b2 79		 mov	 dl, 121			; 00000079H
  060a9	48 8d 8d 74 70
	00 00		 lea	 rcx, QWORD PTR $T715[rbp]
  060b0	e8 00 00 00 00	 call	 ??0RELATION@FST@@QEAA@DF@Z ; FST::RELATION::RELATION
  060b5	48 89 85 68 a3
	00 00		 mov	 QWORD PTR tv3935[rbp], rax
  060bc	66 41 b8 01 00	 mov	 r8w, 1
  060c1	b2 78		 mov	 dl, 120			; 00000078H
  060c3	48 8d 8d 94 70
	00 00		 lea	 rcx, QWORD PTR $T716[rbp]
  060ca	e8 00 00 00 00	 call	 ??0RELATION@FST@@QEAA@DF@Z ; FST::RELATION::RELATION
  060cf	48 89 85 70 a3
	00 00		 mov	 QWORD PTR tv3940[rbp], rax
  060d6	66 41 b8 01 00	 mov	 r8w, 1
  060db	b2 77		 mov	 dl, 119			; 00000077H
  060dd	48 8d 8d b4 70
	00 00		 lea	 rcx, QWORD PTR $T717[rbp]
  060e4	e8 00 00 00 00	 call	 ??0RELATION@FST@@QEAA@DF@Z ; FST::RELATION::RELATION
  060e9	48 89 85 78 a3
	00 00		 mov	 QWORD PTR tv3945[rbp], rax
  060f0	66 41 b8 01 00	 mov	 r8w, 1
  060f5	b2 76		 mov	 dl, 118			; 00000076H
  060f7	48 8d 8d d4 70
	00 00		 lea	 rcx, QWORD PTR $T718[rbp]
  060fe	e8 00 00 00 00	 call	 ??0RELATION@FST@@QEAA@DF@Z ; FST::RELATION::RELATION
  06103	48 89 85 80 a3
	00 00		 mov	 QWORD PTR tv3950[rbp], rax
  0610a	66 41 b8 01 00	 mov	 r8w, 1
  0610f	b2 75		 mov	 dl, 117			; 00000075H
  06111	48 8d 8d f4 70
	00 00		 lea	 rcx, QWORD PTR $T719[rbp]
  06118	e8 00 00 00 00	 call	 ??0RELATION@FST@@QEAA@DF@Z ; FST::RELATION::RELATION
  0611d	48 89 85 88 a3
	00 00		 mov	 QWORD PTR tv3955[rbp], rax
  06124	66 41 b8 01 00	 mov	 r8w, 1
  06129	b2 74		 mov	 dl, 116			; 00000074H
  0612b	48 8d 8d 14 71
	00 00		 lea	 rcx, QWORD PTR $T720[rbp]
  06132	e8 00 00 00 00	 call	 ??0RELATION@FST@@QEAA@DF@Z ; FST::RELATION::RELATION
  06137	48 89 85 90 a3
	00 00		 mov	 QWORD PTR tv3960[rbp], rax
  0613e	66 41 b8 01 00	 mov	 r8w, 1
  06143	b2 73		 mov	 dl, 115			; 00000073H
  06145	48 8d 8d 34 71
	00 00		 lea	 rcx, QWORD PTR $T721[rbp]
  0614c	e8 00 00 00 00	 call	 ??0RELATION@FST@@QEAA@DF@Z ; FST::RELATION::RELATION
  06151	48 89 85 98 a3
	00 00		 mov	 QWORD PTR tv3965[rbp], rax
  06158	66 41 b8 01 00	 mov	 r8w, 1
  0615d	b2 72		 mov	 dl, 114			; 00000072H
  0615f	48 8d 8d 54 71
	00 00		 lea	 rcx, QWORD PTR $T722[rbp]
  06166	e8 00 00 00 00	 call	 ??0RELATION@FST@@QEAA@DF@Z ; FST::RELATION::RELATION
  0616b	48 89 85 a0 a3
	00 00		 mov	 QWORD PTR tv3970[rbp], rax
  06172	66 41 b8 01 00	 mov	 r8w, 1
  06177	b2 71		 mov	 dl, 113			; 00000071H
  06179	48 8d 8d 74 71
	00 00		 lea	 rcx, QWORD PTR $T723[rbp]
  06180	e8 00 00 00 00	 call	 ??0RELATION@FST@@QEAA@DF@Z ; FST::RELATION::RELATION
  06185	48 89 85 a8 a3
	00 00		 mov	 QWORD PTR tv3975[rbp], rax
  0618c	66 41 b8 01 00	 mov	 r8w, 1
  06191	b2 70		 mov	 dl, 112			; 00000070H
  06193	48 8d 8d 94 71
	00 00		 lea	 rcx, QWORD PTR $T724[rbp]
  0619a	e8 00 00 00 00	 call	 ??0RELATION@FST@@QEAA@DF@Z ; FST::RELATION::RELATION
  0619f	48 89 85 b0 a3
	00 00		 mov	 QWORD PTR tv3980[rbp], rax
  061a6	66 41 b8 01 00	 mov	 r8w, 1
  061ab	b2 6f		 mov	 dl, 111			; 0000006fH
  061ad	48 8d 8d b4 71
	00 00		 lea	 rcx, QWORD PTR $T725[rbp]
  061b4	e8 00 00 00 00	 call	 ??0RELATION@FST@@QEAA@DF@Z ; FST::RELATION::RELATION
  061b9	48 89 85 b8 a3
	00 00		 mov	 QWORD PTR tv3985[rbp], rax
  061c0	66 41 b8 01 00	 mov	 r8w, 1
  061c5	b2 6e		 mov	 dl, 110			; 0000006eH
  061c7	48 8d 8d d4 71
	00 00		 lea	 rcx, QWORD PTR $T726[rbp]
  061ce	e8 00 00 00 00	 call	 ??0RELATION@FST@@QEAA@DF@Z ; FST::RELATION::RELATION
  061d3	48 89 85 c0 a3
	00 00		 mov	 QWORD PTR tv3990[rbp], rax
  061da	66 41 b8 01 00	 mov	 r8w, 1
  061df	b2 6d		 mov	 dl, 109			; 0000006dH
  061e1	48 8d 8d f4 71
	00 00		 lea	 rcx, QWORD PTR $T727[rbp]
  061e8	e8 00 00 00 00	 call	 ??0RELATION@FST@@QEAA@DF@Z ; FST::RELATION::RELATION
  061ed	48 89 85 c8 a3
	00 00		 mov	 QWORD PTR tv3995[rbp], rax
  061f4	66 41 b8 01 00	 mov	 r8w, 1
  061f9	b2 6c		 mov	 dl, 108			; 0000006cH
  061fb	48 8d 8d 14 72
	00 00		 lea	 rcx, QWORD PTR $T728[rbp]
  06202	e8 00 00 00 00	 call	 ??0RELATION@FST@@QEAA@DF@Z ; FST::RELATION::RELATION
  06207	48 89 85 d0 a3
	00 00		 mov	 QWORD PTR tv4032[rbp], rax
  0620e	66 41 b8 01 00	 mov	 r8w, 1
  06213	b2 6b		 mov	 dl, 107			; 0000006bH
  06215	48 8d 8d 34 72
	00 00		 lea	 rcx, QWORD PTR $T729[rbp]
  0621c	e8 00 00 00 00	 call	 ??0RELATION@FST@@QEAA@DF@Z ; FST::RELATION::RELATION
  06221	48 89 85 d8 a3
	00 00		 mov	 QWORD PTR tv4037[rbp], rax
  06228	66 41 b8 01 00	 mov	 r8w, 1
  0622d	b2 6a		 mov	 dl, 106			; 0000006aH
  0622f	48 8d 8d 54 72
	00 00		 lea	 rcx, QWORD PTR $T730[rbp]
  06236	e8 00 00 00 00	 call	 ??0RELATION@FST@@QEAA@DF@Z ; FST::RELATION::RELATION
  0623b	48 89 85 e0 a3
	00 00		 mov	 QWORD PTR tv4042[rbp], rax
  06242	66 41 b8 01 00	 mov	 r8w, 1
  06247	b2 69		 mov	 dl, 105			; 00000069H
  06249	48 8d 8d 74 72
	00 00		 lea	 rcx, QWORD PTR $T731[rbp]
  06250	e8 00 00 00 00	 call	 ??0RELATION@FST@@QEAA@DF@Z ; FST::RELATION::RELATION
  06255	48 89 85 e8 a3
	00 00		 mov	 QWORD PTR tv4047[rbp], rax
  0625c	66 41 b8 01 00	 mov	 r8w, 1
  06261	b2 68		 mov	 dl, 104			; 00000068H
  06263	48 8d 8d 94 72
	00 00		 lea	 rcx, QWORD PTR $T732[rbp]
  0626a	e8 00 00 00 00	 call	 ??0RELATION@FST@@QEAA@DF@Z ; FST::RELATION::RELATION
  0626f	48 89 85 f0 a3
	00 00		 mov	 QWORD PTR tv4052[rbp], rax
  06276	66 41 b8 01 00	 mov	 r8w, 1
  0627b	b2 67		 mov	 dl, 103			; 00000067H
  0627d	48 8d 8d b4 72
	00 00		 lea	 rcx, QWORD PTR $T733[rbp]
  06284	e8 00 00 00 00	 call	 ??0RELATION@FST@@QEAA@DF@Z ; FST::RELATION::RELATION
  06289	48 89 85 f8 a3
	00 00		 mov	 QWORD PTR tv4057[rbp], rax
  06290	66 41 b8 01 00	 mov	 r8w, 1
  06295	b2 66		 mov	 dl, 102			; 00000066H
  06297	48 8d 8d d4 72
	00 00		 lea	 rcx, QWORD PTR $T734[rbp]
  0629e	e8 00 00 00 00	 call	 ??0RELATION@FST@@QEAA@DF@Z ; FST::RELATION::RELATION
  062a3	48 89 85 00 a4
	00 00		 mov	 QWORD PTR tv4062[rbp], rax
  062aa	66 41 b8 01 00	 mov	 r8w, 1
  062af	b2 65		 mov	 dl, 101			; 00000065H
  062b1	48 8d 8d f4 72
	00 00		 lea	 rcx, QWORD PTR $T735[rbp]
  062b8	e8 00 00 00 00	 call	 ??0RELATION@FST@@QEAA@DF@Z ; FST::RELATION::RELATION
  062bd	48 89 85 08 a4
	00 00		 mov	 QWORD PTR tv4067[rbp], rax
  062c4	66 41 b8 01 00	 mov	 r8w, 1
  062c9	b2 64		 mov	 dl, 100			; 00000064H
  062cb	48 8d 8d 14 73
	00 00		 lea	 rcx, QWORD PTR $T736[rbp]
  062d2	e8 00 00 00 00	 call	 ??0RELATION@FST@@QEAA@DF@Z ; FST::RELATION::RELATION
  062d7	48 89 85 10 a4
	00 00		 mov	 QWORD PTR tv4072[rbp], rax
  062de	66 41 b8 01 00	 mov	 r8w, 1
  062e3	b2 63		 mov	 dl, 99			; 00000063H
  062e5	48 8d 8d 34 73
	00 00		 lea	 rcx, QWORD PTR $T737[rbp]
  062ec	e8 00 00 00 00	 call	 ??0RELATION@FST@@QEAA@DF@Z ; FST::RELATION::RELATION
  062f1	48 89 85 18 a4
	00 00		 mov	 QWORD PTR tv4077[rbp], rax
  062f8	66 41 b8 01 00	 mov	 r8w, 1
  062fd	b2 62		 mov	 dl, 98			; 00000062H
  062ff	48 8d 8d 54 73
	00 00		 lea	 rcx, QWORD PTR $T738[rbp]
  06306	e8 00 00 00 00	 call	 ??0RELATION@FST@@QEAA@DF@Z ; FST::RELATION::RELATION
  0630b	48 89 85 20 a4
	00 00		 mov	 QWORD PTR tv4082[rbp], rax
  06312	66 41 b8 01 00	 mov	 r8w, 1
  06317	b2 61		 mov	 dl, 97			; 00000061H
  06319	48 8d 8d 74 73
	00 00		 lea	 rcx, QWORD PTR $T739[rbp]
  06320	e8 00 00 00 00	 call	 ??0RELATION@FST@@QEAA@DF@Z ; FST::RELATION::RELATION
  06325	48 8b 8d 58 9f
	00 00		 mov	 rcx, QWORD PTR tv3157[rbp]
  0632c	8b 09		 mov	 ecx, DWORD PTR [rcx]
  0632e	89 8c 24 e0 04
	00 00		 mov	 DWORD PTR [rsp+1248], ecx
  06335	48 8b 8d 60 9f
	00 00		 mov	 rcx, QWORD PTR tv3162[rbp]
  0633c	8b 09		 mov	 ecx, DWORD PTR [rcx]
  0633e	89 8c 24 d8 04
	00 00		 mov	 DWORD PTR [rsp+1240], ecx
  06345	48 8b 8d 68 9f
	00 00		 mov	 rcx, QWORD PTR tv3167[rbp]
  0634c	8b 09		 mov	 ecx, DWORD PTR [rcx]
  0634e	89 8c 24 d0 04
	00 00		 mov	 DWORD PTR [rsp+1232], ecx
  06355	48 8b 8d 70 9f
	00 00		 mov	 rcx, QWORD PTR tv3172[rbp]
  0635c	8b 09		 mov	 ecx, DWORD PTR [rcx]
  0635e	89 8c 24 c8 04
	00 00		 mov	 DWORD PTR [rsp+1224], ecx
  06365	48 8b 8d 78 9f
	00 00		 mov	 rcx, QWORD PTR tv3177[rbp]
  0636c	8b 09		 mov	 ecx, DWORD PTR [rcx]
  0636e	89 8c 24 c0 04
	00 00		 mov	 DWORD PTR [rsp+1216], ecx
  06375	48 8b 8d 80 9f
	00 00		 mov	 rcx, QWORD PTR tv3182[rbp]
  0637c	8b 09		 mov	 ecx, DWORD PTR [rcx]
  0637e	89 8c 24 b8 04
	00 00		 mov	 DWORD PTR [rsp+1208], ecx
  06385	48 8b 8d 88 9f
	00 00		 mov	 rcx, QWORD PTR tv3187[rbp]
  0638c	8b 09		 mov	 ecx, DWORD PTR [rcx]
  0638e	89 8c 24 b0 04
	00 00		 mov	 DWORD PTR [rsp+1200], ecx
  06395	48 8b 8d 90 9f
	00 00		 mov	 rcx, QWORD PTR tv3192[rbp]
  0639c	8b 09		 mov	 ecx, DWORD PTR [rcx]
  0639e	89 8c 24 a8 04
	00 00		 mov	 DWORD PTR [rsp+1192], ecx
  063a5	48 8b 8d 98 9f
	00 00		 mov	 rcx, QWORD PTR tv3197[rbp]
  063ac	8b 09		 mov	 ecx, DWORD PTR [rcx]
  063ae	89 8c 24 a0 04
	00 00		 mov	 DWORD PTR [rsp+1184], ecx
  063b5	48 8b 8d a0 9f
	00 00		 mov	 rcx, QWORD PTR tv3202[rbp]
  063bc	8b 09		 mov	 ecx, DWORD PTR [rcx]
  063be	89 8c 24 98 04
	00 00		 mov	 DWORD PTR [rsp+1176], ecx
  063c5	48 8b 8d a8 9f
	00 00		 mov	 rcx, QWORD PTR tv3207[rbp]
  063cc	8b 09		 mov	 ecx, DWORD PTR [rcx]
  063ce	89 8c 24 90 04
	00 00		 mov	 DWORD PTR [rsp+1168], ecx
  063d5	48 8b 8d b0 9f
	00 00		 mov	 rcx, QWORD PTR tv3212[rbp]
  063dc	8b 09		 mov	 ecx, DWORD PTR [rcx]
  063de	89 8c 24 88 04
	00 00		 mov	 DWORD PTR [rsp+1160], ecx
  063e5	48 8b 8d b8 9f
	00 00		 mov	 rcx, QWORD PTR tv3217[rbp]
  063ec	8b 09		 mov	 ecx, DWORD PTR [rcx]
  063ee	89 8c 24 80 04
	00 00		 mov	 DWORD PTR [rsp+1152], ecx
  063f5	48 8b 8d c0 9f
	00 00		 mov	 rcx, QWORD PTR tv3222[rbp]
  063fc	8b 09		 mov	 ecx, DWORD PTR [rcx]
  063fe	89 8c 24 78 04
	00 00		 mov	 DWORD PTR [rsp+1144], ecx
  06405	48 8b 8d c8 9f
	00 00		 mov	 rcx, QWORD PTR tv3227[rbp]
  0640c	8b 09		 mov	 ecx, DWORD PTR [rcx]
  0640e	89 8c 24 70 04
	00 00		 mov	 DWORD PTR [rsp+1136], ecx
  06415	48 8b 8d d0 9f
	00 00		 mov	 rcx, QWORD PTR tv3264[rbp]
  0641c	8b 09		 mov	 ecx, DWORD PTR [rcx]
  0641e	89 8c 24 68 04
	00 00		 mov	 DWORD PTR [rsp+1128], ecx
  06425	48 8b 8d d8 9f
	00 00		 mov	 rcx, QWORD PTR tv3269[rbp]
  0642c	8b 09		 mov	 ecx, DWORD PTR [rcx]
  0642e	89 8c 24 60 04
	00 00		 mov	 DWORD PTR [rsp+1120], ecx
  06435	48 8b 8d e0 9f
	00 00		 mov	 rcx, QWORD PTR tv3274[rbp]
  0643c	8b 09		 mov	 ecx, DWORD PTR [rcx]
  0643e	89 8c 24 58 04
	00 00		 mov	 DWORD PTR [rsp+1112], ecx
  06445	48 8b 8d e8 9f
	00 00		 mov	 rcx, QWORD PTR tv3279[rbp]
  0644c	8b 09		 mov	 ecx, DWORD PTR [rcx]
  0644e	89 8c 24 50 04
	00 00		 mov	 DWORD PTR [rsp+1104], ecx
  06455	48 8b 8d f0 9f
	00 00		 mov	 rcx, QWORD PTR tv3284[rbp]
  0645c	8b 09		 mov	 ecx, DWORD PTR [rcx]
  0645e	89 8c 24 48 04
	00 00		 mov	 DWORD PTR [rsp+1096], ecx
  06465	48 8b 8d f8 9f
	00 00		 mov	 rcx, QWORD PTR tv3289[rbp]
  0646c	8b 09		 mov	 ecx, DWORD PTR [rcx]
  0646e	89 8c 24 40 04
	00 00		 mov	 DWORD PTR [rsp+1088], ecx
  06475	48 8b 8d 00 a0
	00 00		 mov	 rcx, QWORD PTR tv3294[rbp]
  0647c	8b 09		 mov	 ecx, DWORD PTR [rcx]
  0647e	89 8c 24 38 04
	00 00		 mov	 DWORD PTR [rsp+1080], ecx
  06485	48 8b 8d 08 a0
	00 00		 mov	 rcx, QWORD PTR tv3299[rbp]
  0648c	8b 09		 mov	 ecx, DWORD PTR [rcx]
  0648e	89 8c 24 30 04
	00 00		 mov	 DWORD PTR [rsp+1072], ecx
  06495	48 8b 8d 10 a0
	00 00		 mov	 rcx, QWORD PTR tv3304[rbp]
  0649c	8b 09		 mov	 ecx, DWORD PTR [rcx]
  0649e	89 8c 24 28 04
	00 00		 mov	 DWORD PTR [rsp+1064], ecx
  064a5	48 8b 8d 18 a0
	00 00		 mov	 rcx, QWORD PTR tv3309[rbp]
  064ac	8b 09		 mov	 ecx, DWORD PTR [rcx]
  064ae	89 8c 24 20 04
	00 00		 mov	 DWORD PTR [rsp+1056], ecx
  064b5	48 8b 8d 20 a0
	00 00		 mov	 rcx, QWORD PTR tv3314[rbp]
  064bc	8b 09		 mov	 ecx, DWORD PTR [rcx]
  064be	89 8c 24 18 04
	00 00		 mov	 DWORD PTR [rsp+1048], ecx
  064c5	48 8b 8d 28 a0
	00 00		 mov	 rcx, QWORD PTR tv3319[rbp]
  064cc	8b 09		 mov	 ecx, DWORD PTR [rcx]
  064ce	89 8c 24 10 04
	00 00		 mov	 DWORD PTR [rsp+1040], ecx
  064d5	48 8b 8d 30 a0
	00 00		 mov	 rcx, QWORD PTR tv3324[rbp]
  064dc	8b 09		 mov	 ecx, DWORD PTR [rcx]
  064de	89 8c 24 08 04
	00 00		 mov	 DWORD PTR [rsp+1032], ecx
  064e5	48 8b 8d 38 a0
	00 00		 mov	 rcx, QWORD PTR tv3329[rbp]
  064ec	8b 09		 mov	 ecx, DWORD PTR [rcx]
  064ee	89 8c 24 00 04
	00 00		 mov	 DWORD PTR [rsp+1024], ecx
  064f5	48 8b 8d 40 a0
	00 00		 mov	 rcx, QWORD PTR tv3334[rbp]
  064fc	8b 09		 mov	 ecx, DWORD PTR [rcx]
  064fe	89 8c 24 f8 03
	00 00		 mov	 DWORD PTR [rsp+1016], ecx
  06505	48 8b 8d 48 a0
	00 00		 mov	 rcx, QWORD PTR tv3339[rbp]
  0650c	8b 09		 mov	 ecx, DWORD PTR [rcx]
  0650e	89 8c 24 f0 03
	00 00		 mov	 DWORD PTR [rsp+1008], ecx
  06515	48 8b 8d 50 a0
	00 00		 mov	 rcx, QWORD PTR tv3344[rbp]
  0651c	8b 09		 mov	 ecx, DWORD PTR [rcx]
  0651e	89 8c 24 e8 03
	00 00		 mov	 DWORD PTR [rsp+1000], ecx
  06525	48 8b 8d 58 a0
	00 00		 mov	 rcx, QWORD PTR tv3349[rbp]
  0652c	8b 09		 mov	 ecx, DWORD PTR [rcx]
  0652e	89 8c 24 e0 03
	00 00		 mov	 DWORD PTR [rsp+992], ecx
  06535	48 8b 8d 60 a0
	00 00		 mov	 rcx, QWORD PTR tv3354[rbp]
  0653c	8b 09		 mov	 ecx, DWORD PTR [rcx]
  0653e	89 8c 24 d8 03
	00 00		 mov	 DWORD PTR [rsp+984], ecx
  06545	48 8b 8d 68 a0
	00 00		 mov	 rcx, QWORD PTR tv3359[rbp]
  0654c	8b 09		 mov	 ecx, DWORD PTR [rcx]
  0654e	89 8c 24 d0 03
	00 00		 mov	 DWORD PTR [rsp+976], ecx
  06555	48 8b 8d 70 a0
	00 00		 mov	 rcx, QWORD PTR tv3364[rbp]
  0655c	8b 09		 mov	 ecx, DWORD PTR [rcx]
  0655e	89 8c 24 c8 03
	00 00		 mov	 DWORD PTR [rsp+968], ecx
  06565	48 8b 8d 78 a0
	00 00		 mov	 rcx, QWORD PTR tv3369[rbp]
  0656c	8b 09		 mov	 ecx, DWORD PTR [rcx]
  0656e	89 8c 24 c0 03
	00 00		 mov	 DWORD PTR [rsp+960], ecx
  06575	48 8b 8d 80 a0
	00 00		 mov	 rcx, QWORD PTR tv3374[rbp]
  0657c	8b 09		 mov	 ecx, DWORD PTR [rcx]
  0657e	89 8c 24 b8 03
	00 00		 mov	 DWORD PTR [rsp+952], ecx
  06585	48 8b 8d 88 a0
	00 00		 mov	 rcx, QWORD PTR tv3379[rbp]
  0658c	8b 09		 mov	 ecx, DWORD PTR [rcx]
  0658e	89 8c 24 b0 03
	00 00		 mov	 DWORD PTR [rsp+944], ecx
  06595	48 8b 8d 90 a0
	00 00		 mov	 rcx, QWORD PTR tv3384[rbp]
  0659c	8b 09		 mov	 ecx, DWORD PTR [rcx]
  0659e	89 8c 24 a8 03
	00 00		 mov	 DWORD PTR [rsp+936], ecx
  065a5	48 8b 8d 98 a0
	00 00		 mov	 rcx, QWORD PTR tv3389[rbp]
  065ac	8b 09		 mov	 ecx, DWORD PTR [rcx]
  065ae	89 8c 24 a0 03
	00 00		 mov	 DWORD PTR [rsp+928], ecx
  065b5	48 8b 8d a0 a0
	00 00		 mov	 rcx, QWORD PTR tv3394[rbp]
  065bc	8b 09		 mov	 ecx, DWORD PTR [rcx]
  065be	89 8c 24 98 03
	00 00		 mov	 DWORD PTR [rsp+920], ecx
  065c5	48 8b 8d a8 a0
	00 00		 mov	 rcx, QWORD PTR tv3399[rbp]
  065cc	8b 09		 mov	 ecx, DWORD PTR [rcx]
  065ce	89 8c 24 90 03
	00 00		 mov	 DWORD PTR [rsp+912], ecx
  065d5	48 8b 8d b0 a0
	00 00		 mov	 rcx, QWORD PTR tv3404[rbp]
  065dc	8b 09		 mov	 ecx, DWORD PTR [rcx]
  065de	89 8c 24 88 03
	00 00		 mov	 DWORD PTR [rsp+904], ecx
  065e5	48 8b 8d b8 a0
	00 00		 mov	 rcx, QWORD PTR tv3409[rbp]
  065ec	8b 09		 mov	 ecx, DWORD PTR [rcx]
  065ee	89 8c 24 80 03
	00 00		 mov	 DWORD PTR [rsp+896], ecx
  065f5	48 8b 8d c0 a0
	00 00		 mov	 rcx, QWORD PTR tv3414[rbp]
  065fc	8b 09		 mov	 ecx, DWORD PTR [rcx]
  065fe	89 8c 24 78 03
	00 00		 mov	 DWORD PTR [rsp+888], ecx
  06605	48 8b 8d c8 a0
	00 00		 mov	 rcx, QWORD PTR tv3419[rbp]
  0660c	8b 09		 mov	 ecx, DWORD PTR [rcx]
  0660e	89 8c 24 70 03
	00 00		 mov	 DWORD PTR [rsp+880], ecx
  06615	48 8b 8d d0 a0
	00 00		 mov	 rcx, QWORD PTR tv3456[rbp]
  0661c	8b 09		 mov	 ecx, DWORD PTR [rcx]
  0661e	89 8c 24 68 03
	00 00		 mov	 DWORD PTR [rsp+872], ecx
  06625	48 8b 8d d8 a0
	00 00		 mov	 rcx, QWORD PTR tv3461[rbp]
  0662c	8b 09		 mov	 ecx, DWORD PTR [rcx]
  0662e	89 8c 24 60 03
	00 00		 mov	 DWORD PTR [rsp+864], ecx
  06635	48 8b 8d e0 a0
	00 00		 mov	 rcx, QWORD PTR tv3466[rbp]
  0663c	8b 09		 mov	 ecx, DWORD PTR [rcx]
  0663e	89 8c 24 58 03
	00 00		 mov	 DWORD PTR [rsp+856], ecx
  06645	48 8b 8d e8 a0
	00 00		 mov	 rcx, QWORD PTR tv3471[rbp]
  0664c	8b 09		 mov	 ecx, DWORD PTR [rcx]
  0664e	89 8c 24 50 03
	00 00		 mov	 DWORD PTR [rsp+848], ecx
  06655	48 8b 8d f0 a0
	00 00		 mov	 rcx, QWORD PTR tv3476[rbp]
  0665c	8b 09		 mov	 ecx, DWORD PTR [rcx]
  0665e	89 8c 24 48 03
	00 00		 mov	 DWORD PTR [rsp+840], ecx
  06665	48 8b 8d f8 a0
	00 00		 mov	 rcx, QWORD PTR tv3481[rbp]
  0666c	8b 09		 mov	 ecx, DWORD PTR [rcx]
  0666e	89 8c 24 40 03
	00 00		 mov	 DWORD PTR [rsp+832], ecx
  06675	48 8b 8d 00 a1
	00 00		 mov	 rcx, QWORD PTR tv3486[rbp]
  0667c	8b 09		 mov	 ecx, DWORD PTR [rcx]
  0667e	89 8c 24 38 03
	00 00		 mov	 DWORD PTR [rsp+824], ecx
  06685	48 8b 8d 08 a1
	00 00		 mov	 rcx, QWORD PTR tv3491[rbp]
  0668c	8b 09		 mov	 ecx, DWORD PTR [rcx]
  0668e	89 8c 24 30 03
	00 00		 mov	 DWORD PTR [rsp+816], ecx
  06695	48 8b 8d 10 a1
	00 00		 mov	 rcx, QWORD PTR tv3496[rbp]
  0669c	8b 09		 mov	 ecx, DWORD PTR [rcx]
  0669e	89 8c 24 28 03
	00 00		 mov	 DWORD PTR [rsp+808], ecx
  066a5	48 8b 8d 18 a1
	00 00		 mov	 rcx, QWORD PTR tv3501[rbp]
  066ac	8b 09		 mov	 ecx, DWORD PTR [rcx]
  066ae	89 8c 24 20 03
	00 00		 mov	 DWORD PTR [rsp+800], ecx
  066b5	48 8b 8d 20 a1
	00 00		 mov	 rcx, QWORD PTR tv3506[rbp]
  066bc	8b 09		 mov	 ecx, DWORD PTR [rcx]
  066be	89 8c 24 18 03
	00 00		 mov	 DWORD PTR [rsp+792], ecx
  066c5	48 8b 8d 28 a1
	00 00		 mov	 rcx, QWORD PTR tv3511[rbp]
  066cc	8b 09		 mov	 ecx, DWORD PTR [rcx]
  066ce	89 8c 24 10 03
	00 00		 mov	 DWORD PTR [rsp+784], ecx
  066d5	48 8b 8d 30 a1
	00 00		 mov	 rcx, QWORD PTR tv3516[rbp]
  066dc	8b 09		 mov	 ecx, DWORD PTR [rcx]
  066de	89 8c 24 08 03
	00 00		 mov	 DWORD PTR [rsp+776], ecx
  066e5	48 8b 8d 38 a1
	00 00		 mov	 rcx, QWORD PTR tv3521[rbp]
  066ec	8b 09		 mov	 ecx, DWORD PTR [rcx]
  066ee	89 8c 24 00 03
	00 00		 mov	 DWORD PTR [rsp+768], ecx
  066f5	48 8b 8d 40 a1
	00 00		 mov	 rcx, QWORD PTR tv3526[rbp]
  066fc	8b 09		 mov	 ecx, DWORD PTR [rcx]
  066fe	89 8c 24 f8 02
	00 00		 mov	 DWORD PTR [rsp+760], ecx
  06705	48 8b 8d 48 a1
	00 00		 mov	 rcx, QWORD PTR tv3531[rbp]
  0670c	8b 09		 mov	 ecx, DWORD PTR [rcx]
  0670e	89 8c 24 f0 02
	00 00		 mov	 DWORD PTR [rsp+752], ecx
  06715	48 8b 8d 50 a1
	00 00		 mov	 rcx, QWORD PTR tv3536[rbp]
  0671c	8b 09		 mov	 ecx, DWORD PTR [rcx]
  0671e	89 8c 24 e8 02
	00 00		 mov	 DWORD PTR [rsp+744], ecx
  06725	48 8b 8d 58 a1
	00 00		 mov	 rcx, QWORD PTR tv3541[rbp]
  0672c	8b 09		 mov	 ecx, DWORD PTR [rcx]
  0672e	89 8c 24 e0 02
	00 00		 mov	 DWORD PTR [rsp+736], ecx
  06735	48 8b 8d 60 a1
	00 00		 mov	 rcx, QWORD PTR tv3546[rbp]
  0673c	8b 09		 mov	 ecx, DWORD PTR [rcx]
  0673e	89 8c 24 d8 02
	00 00		 mov	 DWORD PTR [rsp+728], ecx
  06745	48 8b 8d 68 a1
	00 00		 mov	 rcx, QWORD PTR tv3551[rbp]
  0674c	8b 09		 mov	 ecx, DWORD PTR [rcx]
  0674e	89 8c 24 d0 02
	00 00		 mov	 DWORD PTR [rsp+720], ecx
  06755	48 8b 8d 70 a1
	00 00		 mov	 rcx, QWORD PTR tv3556[rbp]
  0675c	8b 09		 mov	 ecx, DWORD PTR [rcx]
  0675e	89 8c 24 c8 02
	00 00		 mov	 DWORD PTR [rsp+712], ecx
  06765	48 8b 8d 78 a1
	00 00		 mov	 rcx, QWORD PTR tv3561[rbp]
  0676c	8b 09		 mov	 ecx, DWORD PTR [rcx]
  0676e	89 8c 24 c0 02
	00 00		 mov	 DWORD PTR [rsp+704], ecx
  06775	48 8b 8d 80 a1
	00 00		 mov	 rcx, QWORD PTR tv3566[rbp]
  0677c	8b 09		 mov	 ecx, DWORD PTR [rcx]
  0677e	89 8c 24 b8 02
	00 00		 mov	 DWORD PTR [rsp+696], ecx
  06785	48 8b 8d 88 a1
	00 00		 mov	 rcx, QWORD PTR tv3571[rbp]
  0678c	8b 09		 mov	 ecx, DWORD PTR [rcx]
  0678e	89 8c 24 b0 02
	00 00		 mov	 DWORD PTR [rsp+688], ecx
  06795	48 8b 8d 90 a1
	00 00		 mov	 rcx, QWORD PTR tv3576[rbp]
  0679c	8b 09		 mov	 ecx, DWORD PTR [rcx]
  0679e	89 8c 24 a8 02
	00 00		 mov	 DWORD PTR [rsp+680], ecx
  067a5	48 8b 8d 98 a1
	00 00		 mov	 rcx, QWORD PTR tv3581[rbp]
  067ac	8b 09		 mov	 ecx, DWORD PTR [rcx]
  067ae	89 8c 24 a0 02
	00 00		 mov	 DWORD PTR [rsp+672], ecx
  067b5	48 8b 8d a0 a1
	00 00		 mov	 rcx, QWORD PTR tv3586[rbp]
  067bc	8b 09		 mov	 ecx, DWORD PTR [rcx]
  067be	89 8c 24 98 02
	00 00		 mov	 DWORD PTR [rsp+664], ecx
  067c5	48 8b 8d a8 a1
	00 00		 mov	 rcx, QWORD PTR tv3591[rbp]
  067cc	8b 09		 mov	 ecx, DWORD PTR [rcx]
  067ce	89 8c 24 90 02
	00 00		 mov	 DWORD PTR [rsp+656], ecx
  067d5	48 8b 8d b0 a1
	00 00		 mov	 rcx, QWORD PTR tv3596[rbp]
  067dc	8b 09		 mov	 ecx, DWORD PTR [rcx]
  067de	89 8c 24 88 02
	00 00		 mov	 DWORD PTR [rsp+648], ecx
  067e5	48 8b 8d b8 a1
	00 00		 mov	 rcx, QWORD PTR tv3601[rbp]
  067ec	8b 09		 mov	 ecx, DWORD PTR [rcx]
  067ee	89 8c 24 80 02
	00 00		 mov	 DWORD PTR [rsp+640], ecx
  067f5	48 8b 8d c0 a1
	00 00		 mov	 rcx, QWORD PTR tv3606[rbp]
  067fc	8b 09		 mov	 ecx, DWORD PTR [rcx]
  067fe	89 8c 24 78 02
	00 00		 mov	 DWORD PTR [rsp+632], ecx
  06805	48 8b 8d c8 a1
	00 00		 mov	 rcx, QWORD PTR tv3611[rbp]
  0680c	8b 09		 mov	 ecx, DWORD PTR [rcx]
  0680e	89 8c 24 70 02
	00 00		 mov	 DWORD PTR [rsp+624], ecx
  06815	48 8b 8d d0 a1
	00 00		 mov	 rcx, QWORD PTR tv3648[rbp]
  0681c	8b 09		 mov	 ecx, DWORD PTR [rcx]
  0681e	89 8c 24 68 02
	00 00		 mov	 DWORD PTR [rsp+616], ecx
  06825	48 8b 8d d8 a1
	00 00		 mov	 rcx, QWORD PTR tv3653[rbp]
  0682c	8b 09		 mov	 ecx, DWORD PTR [rcx]
  0682e	89 8c 24 60 02
	00 00		 mov	 DWORD PTR [rsp+608], ecx
  06835	48 8b 8d e0 a1
	00 00		 mov	 rcx, QWORD PTR tv3658[rbp]
  0683c	8b 09		 mov	 ecx, DWORD PTR [rcx]
  0683e	89 8c 24 58 02
	00 00		 mov	 DWORD PTR [rsp+600], ecx
  06845	48 8b 8d e8 a1
	00 00		 mov	 rcx, QWORD PTR tv3663[rbp]
  0684c	8b 09		 mov	 ecx, DWORD PTR [rcx]
  0684e	89 8c 24 50 02
	00 00		 mov	 DWORD PTR [rsp+592], ecx
  06855	48 8b 8d f0 a1
	00 00		 mov	 rcx, QWORD PTR tv3668[rbp]
  0685c	8b 09		 mov	 ecx, DWORD PTR [rcx]
  0685e	89 8c 24 48 02
	00 00		 mov	 DWORD PTR [rsp+584], ecx
  06865	48 8b 8d f8 a1
	00 00		 mov	 rcx, QWORD PTR tv3673[rbp]
  0686c	8b 09		 mov	 ecx, DWORD PTR [rcx]
  0686e	89 8c 24 40 02
	00 00		 mov	 DWORD PTR [rsp+576], ecx
  06875	48 8b 8d 00 a2
	00 00		 mov	 rcx, QWORD PTR tv3678[rbp]
  0687c	8b 09		 mov	 ecx, DWORD PTR [rcx]
  0687e	89 8c 24 38 02
	00 00		 mov	 DWORD PTR [rsp+568], ecx
  06885	48 8b 8d 08 a2
	00 00		 mov	 rcx, QWORD PTR tv3683[rbp]
  0688c	8b 09		 mov	 ecx, DWORD PTR [rcx]
  0688e	89 8c 24 30 02
	00 00		 mov	 DWORD PTR [rsp+560], ecx
  06895	48 8b 8d 10 a2
	00 00		 mov	 rcx, QWORD PTR tv3688[rbp]
  0689c	8b 09		 mov	 ecx, DWORD PTR [rcx]
  0689e	89 8c 24 28 02
	00 00		 mov	 DWORD PTR [rsp+552], ecx
  068a5	48 8b 8d 18 a2
	00 00		 mov	 rcx, QWORD PTR tv3693[rbp]
  068ac	8b 09		 mov	 ecx, DWORD PTR [rcx]
  068ae	89 8c 24 20 02
	00 00		 mov	 DWORD PTR [rsp+544], ecx
  068b5	48 8b 8d 20 a2
	00 00		 mov	 rcx, QWORD PTR tv3698[rbp]
  068bc	8b 09		 mov	 ecx, DWORD PTR [rcx]
  068be	89 8c 24 18 02
	00 00		 mov	 DWORD PTR [rsp+536], ecx
  068c5	48 8b 8d 28 a2
	00 00		 mov	 rcx, QWORD PTR tv3703[rbp]
  068cc	8b 09		 mov	 ecx, DWORD PTR [rcx]
  068ce	89 8c 24 10 02
	00 00		 mov	 DWORD PTR [rsp+528], ecx
  068d5	48 8b 8d 30 a2
	00 00		 mov	 rcx, QWORD PTR tv3708[rbp]
  068dc	8b 09		 mov	 ecx, DWORD PTR [rcx]
  068de	89 8c 24 08 02
	00 00		 mov	 DWORD PTR [rsp+520], ecx
  068e5	48 8b 8d 38 a2
	00 00		 mov	 rcx, QWORD PTR tv3713[rbp]
  068ec	8b 09		 mov	 ecx, DWORD PTR [rcx]
  068ee	89 8c 24 00 02
	00 00		 mov	 DWORD PTR [rsp+512], ecx
  068f5	48 8b 8d 40 a2
	00 00		 mov	 rcx, QWORD PTR tv3718[rbp]
  068fc	8b 09		 mov	 ecx, DWORD PTR [rcx]
  068fe	89 8c 24 f8 01
	00 00		 mov	 DWORD PTR [rsp+504], ecx
  06905	48 8b 8d 48 a2
	00 00		 mov	 rcx, QWORD PTR tv3723[rbp]
  0690c	8b 09		 mov	 ecx, DWORD PTR [rcx]
  0690e	89 8c 24 f0 01
	00 00		 mov	 DWORD PTR [rsp+496], ecx
  06915	48 8b 8d 50 a2
	00 00		 mov	 rcx, QWORD PTR tv3728[rbp]
  0691c	8b 09		 mov	 ecx, DWORD PTR [rcx]
  0691e	89 8c 24 e8 01
	00 00		 mov	 DWORD PTR [rsp+488], ecx
  06925	48 8b 8d 58 a2
	00 00		 mov	 rcx, QWORD PTR tv3733[rbp]
  0692c	8b 09		 mov	 ecx, DWORD PTR [rcx]
  0692e	89 8c 24 e0 01
	00 00		 mov	 DWORD PTR [rsp+480], ecx
  06935	48 8b 8d 60 a2
	00 00		 mov	 rcx, QWORD PTR tv3738[rbp]
  0693c	8b 09		 mov	 ecx, DWORD PTR [rcx]
  0693e	89 8c 24 d8 01
	00 00		 mov	 DWORD PTR [rsp+472], ecx
  06945	48 8b 8d 68 a2
	00 00		 mov	 rcx, QWORD PTR tv3743[rbp]
  0694c	8b 09		 mov	 ecx, DWORD PTR [rcx]
  0694e	89 8c 24 d0 01
	00 00		 mov	 DWORD PTR [rsp+464], ecx
  06955	48 8b 8d 70 a2
	00 00		 mov	 rcx, QWORD PTR tv3748[rbp]
  0695c	8b 09		 mov	 ecx, DWORD PTR [rcx]
  0695e	89 8c 24 c8 01
	00 00		 mov	 DWORD PTR [rsp+456], ecx
  06965	48 8b 8d 78 a2
	00 00		 mov	 rcx, QWORD PTR tv3753[rbp]
  0696c	8b 09		 mov	 ecx, DWORD PTR [rcx]
  0696e	89 8c 24 c0 01
	00 00		 mov	 DWORD PTR [rsp+448], ecx
  06975	48 8b 8d 80 a2
	00 00		 mov	 rcx, QWORD PTR tv3758[rbp]
  0697c	8b 09		 mov	 ecx, DWORD PTR [rcx]
  0697e	89 8c 24 b8 01
	00 00		 mov	 DWORD PTR [rsp+440], ecx
  06985	48 8b 8d 88 a2
	00 00		 mov	 rcx, QWORD PTR tv3763[rbp]
  0698c	8b 09		 mov	 ecx, DWORD PTR [rcx]
  0698e	89 8c 24 b0 01
	00 00		 mov	 DWORD PTR [rsp+432], ecx
  06995	48 8b 8d 90 a2
	00 00		 mov	 rcx, QWORD PTR tv3768[rbp]
  0699c	8b 09		 mov	 ecx, DWORD PTR [rcx]
  0699e	89 8c 24 a8 01
	00 00		 mov	 DWORD PTR [rsp+424], ecx
  069a5	48 8b 8d 98 a2
	00 00		 mov	 rcx, QWORD PTR tv3773[rbp]
  069ac	8b 09		 mov	 ecx, DWORD PTR [rcx]
  069ae	89 8c 24 a0 01
	00 00		 mov	 DWORD PTR [rsp+416], ecx
  069b5	48 8b 8d a0 a2
	00 00		 mov	 rcx, QWORD PTR tv3778[rbp]
  069bc	8b 09		 mov	 ecx, DWORD PTR [rcx]
  069be	89 8c 24 98 01
	00 00		 mov	 DWORD PTR [rsp+408], ecx
  069c5	48 8b 8d a8 a2
	00 00		 mov	 rcx, QWORD PTR tv3783[rbp]
  069cc	8b 09		 mov	 ecx, DWORD PTR [rcx]
  069ce	89 8c 24 90 01
	00 00		 mov	 DWORD PTR [rsp+400], ecx
  069d5	48 8b 8d b0 a2
	00 00		 mov	 rcx, QWORD PTR tv3788[rbp]
  069dc	8b 09		 mov	 ecx, DWORD PTR [rcx]
  069de	89 8c 24 88 01
	00 00		 mov	 DWORD PTR [rsp+392], ecx
  069e5	48 8b 8d b8 a2
	00 00		 mov	 rcx, QWORD PTR tv3793[rbp]
  069ec	8b 09		 mov	 ecx, DWORD PTR [rcx]
  069ee	89 8c 24 80 01
	00 00		 mov	 DWORD PTR [rsp+384], ecx
  069f5	48 8b 8d c0 a2
	00 00		 mov	 rcx, QWORD PTR tv3798[rbp]
  069fc	8b 09		 mov	 ecx, DWORD PTR [rcx]
  069fe	89 8c 24 78 01
	00 00		 mov	 DWORD PTR [rsp+376], ecx
  06a05	48 8b 8d c8 a2
	00 00		 mov	 rcx, QWORD PTR tv3803[rbp]
  06a0c	8b 09		 mov	 ecx, DWORD PTR [rcx]
  06a0e	89 8c 24 70 01
	00 00		 mov	 DWORD PTR [rsp+368], ecx
  06a15	48 8b 8d d0 a2
	00 00		 mov	 rcx, QWORD PTR tv3840[rbp]
  06a1c	8b 09		 mov	 ecx, DWORD PTR [rcx]
  06a1e	89 8c 24 68 01
	00 00		 mov	 DWORD PTR [rsp+360], ecx
  06a25	48 8b 8d d8 a2
	00 00		 mov	 rcx, QWORD PTR tv3845[rbp]
  06a2c	8b 09		 mov	 ecx, DWORD PTR [rcx]
  06a2e	89 8c 24 60 01
	00 00		 mov	 DWORD PTR [rsp+352], ecx
  06a35	48 8b 8d e0 a2
	00 00		 mov	 rcx, QWORD PTR tv3850[rbp]
  06a3c	8b 09		 mov	 ecx, DWORD PTR [rcx]
  06a3e	89 8c 24 58 01
	00 00		 mov	 DWORD PTR [rsp+344], ecx
  06a45	48 8b 8d e8 a2
	00 00		 mov	 rcx, QWORD PTR tv3855[rbp]
  06a4c	8b 09		 mov	 ecx, DWORD PTR [rcx]
  06a4e	89 8c 24 50 01
	00 00		 mov	 DWORD PTR [rsp+336], ecx
  06a55	48 8b 8d f0 a2
	00 00		 mov	 rcx, QWORD PTR tv3860[rbp]
  06a5c	8b 09		 mov	 ecx, DWORD PTR [rcx]
  06a5e	89 8c 24 48 01
	00 00		 mov	 DWORD PTR [rsp+328], ecx
  06a65	48 8b 8d f8 a2
	00 00		 mov	 rcx, QWORD PTR tv3865[rbp]
  06a6c	8b 09		 mov	 ecx, DWORD PTR [rcx]
  06a6e	89 8c 24 40 01
	00 00		 mov	 DWORD PTR [rsp+320], ecx
  06a75	48 8b 8d 00 a3
	00 00		 mov	 rcx, QWORD PTR tv3870[rbp]
  06a7c	8b 09		 mov	 ecx, DWORD PTR [rcx]
  06a7e	89 8c 24 38 01
	00 00		 mov	 DWORD PTR [rsp+312], ecx
  06a85	48 8b 8d 08 a3
	00 00		 mov	 rcx, QWORD PTR tv3875[rbp]
  06a8c	8b 09		 mov	 ecx, DWORD PTR [rcx]
  06a8e	89 8c 24 30 01
	00 00		 mov	 DWORD PTR [rsp+304], ecx
  06a95	48 8b 8d 10 a3
	00 00		 mov	 rcx, QWORD PTR tv3880[rbp]
  06a9c	8b 09		 mov	 ecx, DWORD PTR [rcx]
  06a9e	89 8c 24 28 01
	00 00		 mov	 DWORD PTR [rsp+296], ecx
  06aa5	48 8b 8d 18 a3
	00 00		 mov	 rcx, QWORD PTR tv3885[rbp]
  06aac	8b 09		 mov	 ecx, DWORD PTR [rcx]
  06aae	89 8c 24 20 01
	00 00		 mov	 DWORD PTR [rsp+288], ecx
  06ab5	48 8b 8d 20 a3
	00 00		 mov	 rcx, QWORD PTR tv3890[rbp]
  06abc	8b 09		 mov	 ecx, DWORD PTR [rcx]
  06abe	89 8c 24 18 01
	00 00		 mov	 DWORD PTR [rsp+280], ecx
  06ac5	48 8b 8d 28 a3
	00 00		 mov	 rcx, QWORD PTR tv3895[rbp]
  06acc	8b 09		 mov	 ecx, DWORD PTR [rcx]
  06ace	89 8c 24 10 01
	00 00		 mov	 DWORD PTR [rsp+272], ecx
  06ad5	48 8b 8d 30 a3
	00 00		 mov	 rcx, QWORD PTR tv3900[rbp]
  06adc	8b 09		 mov	 ecx, DWORD PTR [rcx]
  06ade	89 8c 24 08 01
	00 00		 mov	 DWORD PTR [rsp+264], ecx
  06ae5	48 8b 8d 38 a3
	00 00		 mov	 rcx, QWORD PTR tv3905[rbp]
  06aec	8b 09		 mov	 ecx, DWORD PTR [rcx]
  06aee	89 8c 24 00 01
	00 00		 mov	 DWORD PTR [rsp+256], ecx
  06af5	48 8b 8d 40 a3
	00 00		 mov	 rcx, QWORD PTR tv3910[rbp]
  06afc	8b 09		 mov	 ecx, DWORD PTR [rcx]
  06afe	89 8c 24 f8 00
	00 00		 mov	 DWORD PTR [rsp+248], ecx
  06b05	48 8b 8d 48 a3
	00 00		 mov	 rcx, QWORD PTR tv3915[rbp]
  06b0c	8b 09		 mov	 ecx, DWORD PTR [rcx]
  06b0e	89 8c 24 f0 00
	00 00		 mov	 DWORD PTR [rsp+240], ecx
  06b15	48 8b 8d 50 a3
	00 00		 mov	 rcx, QWORD PTR tv3920[rbp]
  06b1c	8b 09		 mov	 ecx, DWORD PTR [rcx]
  06b1e	89 8c 24 e8 00
	00 00		 mov	 DWORD PTR [rsp+232], ecx
  06b25	48 8b 8d 58 a3
	00 00		 mov	 rcx, QWORD PTR tv3925[rbp]
  06b2c	8b 09		 mov	 ecx, DWORD PTR [rcx]
  06b2e	89 8c 24 e0 00
	00 00		 mov	 DWORD PTR [rsp+224], ecx
  06b35	48 8b 8d 60 a3
	00 00		 mov	 rcx, QWORD PTR tv3930[rbp]
  06b3c	8b 09		 mov	 ecx, DWORD PTR [rcx]
  06b3e	89 8c 24 d8 00
	00 00		 mov	 DWORD PTR [rsp+216], ecx
  06b45	48 8b 8d 68 a3
	00 00		 mov	 rcx, QWORD PTR tv3935[rbp]
  06b4c	8b 09		 mov	 ecx, DWORD PTR [rcx]
  06b4e	89 8c 24 d0 00
	00 00		 mov	 DWORD PTR [rsp+208], ecx
  06b55	48 8b 8d 70 a3
	00 00		 mov	 rcx, QWORD PTR tv3940[rbp]
  06b5c	8b 09		 mov	 ecx, DWORD PTR [rcx]
  06b5e	89 8c 24 c8 00
	00 00		 mov	 DWORD PTR [rsp+200], ecx
  06b65	48 8b 8d 78 a3
	00 00		 mov	 rcx, QWORD PTR tv3945[rbp]
  06b6c	8b 09		 mov	 ecx, DWORD PTR [rcx]
  06b6e	89 8c 24 c0 00
	00 00		 mov	 DWORD PTR [rsp+192], ecx
  06b75	48 8b 8d 80 a3
	00 00		 mov	 rcx, QWORD PTR tv3950[rbp]
  06b7c	8b 09		 mov	 ecx, DWORD PTR [rcx]
  06b7e	89 8c 24 b8 00
	00 00		 mov	 DWORD PTR [rsp+184], ecx
  06b85	48 8b 8d 88 a3
	00 00		 mov	 rcx, QWORD PTR tv3955[rbp]
  06b8c	8b 09		 mov	 ecx, DWORD PTR [rcx]
  06b8e	89 8c 24 b0 00
	00 00		 mov	 DWORD PTR [rsp+176], ecx
  06b95	48 8b 8d 90 a3
	00 00		 mov	 rcx, QWORD PTR tv3960[rbp]
  06b9c	8b 09		 mov	 ecx, DWORD PTR [rcx]
  06b9e	89 8c 24 a8 00
	00 00		 mov	 DWORD PTR [rsp+168], ecx
  06ba5	48 8b 8d 98 a3
	00 00		 mov	 rcx, QWORD PTR tv3965[rbp]
  06bac	8b 09		 mov	 ecx, DWORD PTR [rcx]
  06bae	89 8c 24 a0 00
	00 00		 mov	 DWORD PTR [rsp+160], ecx
  06bb5	48 8b 8d a0 a3
	00 00		 mov	 rcx, QWORD PTR tv3970[rbp]
  06bbc	8b 09		 mov	 ecx, DWORD PTR [rcx]
  06bbe	89 8c 24 98 00
	00 00		 mov	 DWORD PTR [rsp+152], ecx
  06bc5	48 8b 8d a8 a3
	00 00		 mov	 rcx, QWORD PTR tv3975[rbp]
  06bcc	8b 09		 mov	 ecx, DWORD PTR [rcx]
  06bce	89 8c 24 90 00
	00 00		 mov	 DWORD PTR [rsp+144], ecx
  06bd5	48 8b 8d b0 a3
	00 00		 mov	 rcx, QWORD PTR tv3980[rbp]
  06bdc	8b 09		 mov	 ecx, DWORD PTR [rcx]
  06bde	89 8c 24 88 00
	00 00		 mov	 DWORD PTR [rsp+136], ecx
  06be5	48 8b 8d b8 a3
	00 00		 mov	 rcx, QWORD PTR tv3985[rbp]
  06bec	8b 09		 mov	 ecx, DWORD PTR [rcx]
  06bee	89 8c 24 80 00
	00 00		 mov	 DWORD PTR [rsp+128], ecx
  06bf5	48 8b 8d c0 a3
	00 00		 mov	 rcx, QWORD PTR tv3990[rbp]
  06bfc	8b 09		 mov	 ecx, DWORD PTR [rcx]
  06bfe	89 4c 24 78	 mov	 DWORD PTR [rsp+120], ecx
  06c02	48 8b 8d c8 a3
	00 00		 mov	 rcx, QWORD PTR tv3995[rbp]
  06c09	8b 09		 mov	 ecx, DWORD PTR [rcx]
  06c0b	89 4c 24 70	 mov	 DWORD PTR [rsp+112], ecx
  06c0f	48 8b 8d d0 a3
	00 00		 mov	 rcx, QWORD PTR tv4032[rbp]
  06c16	8b 09		 mov	 ecx, DWORD PTR [rcx]
  06c18	89 4c 24 68	 mov	 DWORD PTR [rsp+104], ecx
  06c1c	48 8b 8d d8 a3
	00 00		 mov	 rcx, QWORD PTR tv4037[rbp]
  06c23	8b 09		 mov	 ecx, DWORD PTR [rcx]
  06c25	89 4c 24 60	 mov	 DWORD PTR [rsp+96], ecx
  06c29	48 8b 8d e0 a3
	00 00		 mov	 rcx, QWORD PTR tv4042[rbp]
  06c30	8b 09		 mov	 ecx, DWORD PTR [rcx]
  06c32	89 4c 24 58	 mov	 DWORD PTR [rsp+88], ecx
  06c36	48 8b 8d e8 a3
	00 00		 mov	 rcx, QWORD PTR tv4047[rbp]
  06c3d	8b 09		 mov	 ecx, DWORD PTR [rcx]
  06c3f	89 4c 24 50	 mov	 DWORD PTR [rsp+80], ecx
  06c43	48 8b 8d f0 a3
	00 00		 mov	 rcx, QWORD PTR tv4052[rbp]
  06c4a	8b 09		 mov	 ecx, DWORD PTR [rcx]
  06c4c	89 4c 24 48	 mov	 DWORD PTR [rsp+72], ecx
  06c50	48 8b 8d f8 a3
	00 00		 mov	 rcx, QWORD PTR tv4057[rbp]
  06c57	8b 09		 mov	 ecx, DWORD PTR [rcx]
  06c59	89 4c 24 40	 mov	 DWORD PTR [rsp+64], ecx
  06c5d	48 8b 8d 00 a4
	00 00		 mov	 rcx, QWORD PTR tv4062[rbp]
  06c64	8b 09		 mov	 ecx, DWORD PTR [rcx]
  06c66	89 4c 24 38	 mov	 DWORD PTR [rsp+56], ecx
  06c6a	48 8b 8d 08 a4
	00 00		 mov	 rcx, QWORD PTR tv4067[rbp]
  06c71	8b 09		 mov	 ecx, DWORD PTR [rcx]
  06c73	89 4c 24 30	 mov	 DWORD PTR [rsp+48], ecx
  06c77	48 8b 8d 10 a4
	00 00		 mov	 rcx, QWORD PTR tv4072[rbp]
  06c7e	8b 09		 mov	 ecx, DWORD PTR [rcx]
  06c80	89 4c 24 28	 mov	 DWORD PTR [rsp+40], ecx
  06c84	48 8b 8d 18 a4
	00 00		 mov	 rcx, QWORD PTR tv4077[rbp]
  06c8b	8b 09		 mov	 ecx, DWORD PTR [rcx]
  06c8d	89 4c 24 20	 mov	 DWORD PTR [rsp+32], ecx
  06c91	48 8b 8d 20 a4
	00 00		 mov	 rcx, QWORD PTR tv4082[rbp]
  06c98	44 8b 09	 mov	 r9d, DWORD PTR [rcx]
  06c9b	44 8b 00	 mov	 r8d, DWORD PTR [rax]
  06c9e	ba 9b 00 00 00	 mov	 edx, 155		; 0000009bH
  06ca3	48 8d 8d 08 60
	00 00		 lea	 rcx, QWORD PTR $T584[rbp]
  06caa	e8 00 00 00 00	 call	 ??0NODE@FST@@QEAA@FURELATION@1@ZZ ; FST::NODE::NODE
  06caf	48 8d 8d e0 9e
	00 00		 lea	 rcx, QWORD PTR $T980[rbp]
  06cb6	48 8b f9	 mov	 rdi, rcx
  06cb9	48 8b f0	 mov	 rsi, rax
  06cbc	b9 10 00 00 00	 mov	 ecx, 16
  06cc1	f3 a4		 rep movsb
  06cc3	66 41 b8 01 00	 mov	 r8w, 1
  06cc8	b2 27		 mov	 dl, 39			; 00000027H
  06cca	48 8d 8d c4 73
	00 00		 lea	 rcx, QWORD PTR $T741[rbp]
  06cd1	e8 00 00 00 00	 call	 ??0RELATION@FST@@QEAA@DF@Z ; FST::RELATION::RELATION
  06cd6	44 8b 00	 mov	 r8d, DWORD PTR [rax]
  06cd9	ba 01 00 00 00	 mov	 edx, 1
  06cde	48 8d 8d 98 73
	00 00		 lea	 rcx, QWORD PTR $T740[rbp]
  06ce5	e8 00 00 00 00	 call	 ??0NODE@FST@@QEAA@FURELATION@1@ZZ ; FST::NODE::NODE
  06cea	48 8d 8d b0 9e
	00 00		 lea	 rcx, QWORD PTR $T979[rbp]
  06cf1	48 8b f9	 mov	 rdi, rcx
  06cf4	48 8b f0	 mov	 rsi, rax
  06cf7	b9 10 00 00 00	 mov	 ecx, 16
  06cfc	f3 a4		 rep movsb
  06cfe	48 8d 85 10 9f
	00 00		 lea	 rax, QWORD PTR $T981[rbp]
  06d05	48 89 44 24 28	 mov	 QWORD PTR [rsp+40], rax
  06d0a	48 8d 85 e0 9e
	00 00		 lea	 rax, QWORD PTR $T980[rbp]
  06d11	48 89 44 24 20	 mov	 QWORD PTR [rsp+32], rax
  06d16	4c 8d 8d b0 9e
	00 00		 lea	 r9, QWORD PTR $T979[rbp]
  06d1d	41 b8 03 00 00
	00		 mov	 r8d, 3
  06d23	48 8b 95 50 a4
	00 00		 mov	 rdx, QWORD PTR string$[rbp]
  06d2a	48 8d 8d 28 12
	00 00		 lea	 rcx, QWORD PTR graph_literal$117[rbp]
  06d31	e8 00 00 00 00	 call	 ??0FST@0@QEAA@PEADFUNODE@0@ZZ ; FST::FST::FST

; 1113 : 				FST::NODE(1, FST::RELATION('\'', 1)),
; 1114 : 				FST::NODE(155,
; 1115 : 					FST::RELATION('a', 1),
; 1116 : 					FST::RELATION('b', 1),
; 1117 : 					FST::RELATION('c', 1),
; 1118 : 					FST::RELATION('d', 1),
; 1119 : 					FST::RELATION('e', 1),
; 1120 : 					FST::RELATION('f', 1),
; 1121 : 					FST::RELATION('g', 1),
; 1122 : 					FST::RELATION('h', 1),
; 1123 : 					FST::RELATION('i', 1),
; 1124 : 					FST::RELATION('j', 1),
; 1125 : 					FST::RELATION('k', 1),
; 1126 : 					FST::RELATION('l', 1),
; 1127 : 					FST::RELATION('m', 1),
; 1128 : 					FST::RELATION('n', 1),
; 1129 : 					FST::RELATION('o', 1),
; 1130 : 					FST::RELATION('p', 1),
; 1131 : 					FST::RELATION('q', 1),
; 1132 : 					FST::RELATION('r', 1),
; 1133 : 					FST::RELATION('s', 1),
; 1134 : 					FST::RELATION('t', 1),
; 1135 : 					FST::RELATION('u', 1),
; 1136 : 					FST::RELATION('v', 1),
; 1137 : 					FST::RELATION('w', 1),
; 1138 : 					FST::RELATION('x', 1),
; 1139 : 					FST::RELATION('y', 1),
; 1140 : 					FST::RELATION('z', 1),
; 1141 : 					FST::RELATION('A', 1),
; 1142 : 					FST::RELATION('B', 1),
; 1143 : 					FST::RELATION('C', 1),
; 1144 : 					FST::RELATION('D', 1),
; 1145 : 					FST::RELATION('E', 1),
; 1146 : 					FST::RELATION('F', 1),
; 1147 : 					FST::RELATION('G', 1),
; 1148 : 					FST::RELATION('H', 1),
; 1149 : 					FST::RELATION('I', 1),
; 1150 : 					FST::RELATION('J', 1),
; 1151 : 					FST::RELATION('L', 1),
; 1152 : 					FST::RELATION('K', 1),
; 1153 : 					FST::RELATION('L', 1),
; 1154 : 					FST::RELATION('M', 1),
; 1155 : 					FST::RELATION('N', 1),
; 1156 : 					FST::RELATION('O', 1),
; 1157 : 					FST::RELATION('P', 1),
; 1158 : 					FST::RELATION('Q', 1),
; 1159 : 					FST::RELATION('R', 1),
; 1160 : 					FST::RELATION('S', 1),
; 1161 : 					FST::RELATION('T', 1),
; 1162 : 					FST::RELATION('U', 1),
; 1163 : 					FST::RELATION('V', 1),
; 1164 : 					FST::RELATION('W', 1),
; 1165 : 					FST::RELATION('X', 1),
; 1166 : 					FST::RELATION('Y', 1),
; 1167 : 					FST::RELATION('Z', 1),
; 1168 : 					FST::RELATION('1', 1),
; 1169 : 					FST::RELATION('2', 1),
; 1170 : 					FST::RELATION('3', 1),
; 1171 : 					FST::RELATION('4', 1),
; 1172 : 					FST::RELATION('5', 1),
; 1173 : 					FST::RELATION('6', 1),
; 1174 : 					FST::RELATION('7', 1),
; 1175 : 					FST::RELATION('8', 1),
; 1176 : 					FST::RELATION('9', 1),
; 1177 : 					FST::RELATION('0', 1),
; 1178 : 					FST::RELATION(' ', 1),
; 1179 : 					FST::RELATION('', 1),
; 1180 : 					FST::RELATION('', 1),
; 1181 : 					FST::RELATION('', 1),
; 1182 : 					FST::RELATION('', 1),
; 1183 : 					FST::RELATION('', 1),
; 1184 : 					FST::RELATION('', 1),
; 1185 : 					FST::RELATION('', 1),
; 1186 : 					FST::RELATION('', 1),
; 1187 : 					FST::RELATION('', 1),
; 1188 : 					FST::RELATION('', 1),
; 1189 : 					FST::RELATION('', 1),
; 1190 : 					FST::RELATION('', 1),
; 1191 : 					FST::RELATION('', 1),
; 1192 : 					FST::RELATION('', 1),
; 1193 : 					FST::RELATION('', 1),
; 1194 : 					FST::RELATION('', 1),
; 1195 : 					FST::RELATION('', 1),
; 1196 : 					FST::RELATION('', 1),
; 1197 : 					FST::RELATION('', 1),
; 1198 : 					FST::RELATION('', 1),
; 1199 : 					FST::RELATION('', 1),
; 1200 : 					FST::RELATION('', 1),
; 1201 : 					FST::RELATION('', 1),
; 1202 : 					FST::RELATION('', 1),
; 1203 : 					FST::RELATION('', 1),
; 1204 : 					FST::RELATION('', 1),
; 1205 : 					FST::RELATION('', 1),
; 1206 : 					FST::RELATION('', 1),
; 1207 : 					FST::RELATION('', 1),
; 1208 : 					FST::RELATION('', 1),
; 1209 : 					FST::RELATION('', 1),
; 1210 : 					FST::RELATION('', 1),
; 1211 : 					FST::RELATION('', 1),
; 1212 : 					FST::RELATION('', 1),
; 1213 : 					FST::RELATION('', 1),
; 1214 : 					FST::RELATION('', 1),
; 1215 : 					FST::RELATION('', 1),
; 1216 : 					FST::RELATION('', 1),
; 1217 : 					FST::RELATION('', 1),
; 1218 : 					FST::RELATION('', 1),
; 1219 : 					FST::RELATION('', 1),
; 1220 : 					FST::RELATION('', 1),
; 1221 : 					FST::RELATION('', 1),
; 1222 : 					FST::RELATION('', 1),
; 1223 : 					FST::RELATION('', 1),
; 1224 : 					FST::RELATION('', 1),
; 1225 : 					FST::RELATION('', 1),
; 1226 : 					FST::RELATION('', 1),
; 1227 : 					FST::RELATION('', 1),
; 1228 : 					FST::RELATION('', 1),
; 1229 : 					FST::RELATION('', 1),
; 1230 : 					FST::RELATION('', 1),
; 1231 : 					FST::RELATION('', 1),
; 1232 : 					FST::RELATION('', 1),
; 1233 : 					FST::RELATION('', 1),
; 1234 : 					FST::RELATION('', 1),
; 1235 : 					FST::RELATION('', 1),
; 1236 : 					FST::RELATION('', 1),
; 1237 : 					FST::RELATION('', 1),
; 1238 : 					FST::RELATION('', 1),
; 1239 : 					FST::RELATION('', 1),
; 1240 : 					FST::RELATION('', 1),
; 1241 : 					FST::RELATION('', 1),
; 1242 : 					FST::RELATION('', 1),
; 1243 : 					FST::RELATION('', 1),
; 1244 : 					FST::RELATION('', 1),
; 1245 : 					FST::RELATION('-', 1),
; 1246 : 					FST::RELATION('=', 1),
; 1247 : 					FST::RELATION('+', 1),
; 1248 : 					FST::RELATION('*', 1),
; 1249 : 					FST::RELATION(';', 1),
; 1250 : 					FST::RELATION(':', 1),
; 1251 : 					FST::RELATION('(', 1),
; 1252 : 					FST::RELATION(')', 1),
; 1253 : 					FST::RELATION('{', 1),
; 1254 : 					FST::RELATION('}', 1),
; 1255 : 					FST::RELATION('!', 1),
; 1256 : 					FST::RELATION('?', 1),
; 1257 : 					FST::RELATION(',', 1),
; 1258 : 					FST::RELATION('.', 1),
; 1259 : 					FST::RELATION('<', 1),
; 1260 : 					FST::RELATION('>', 1),
; 1261 : 					FST::RELATION('', 1),
; 1262 : 					FST::RELATION('#', 1),
; 1263 : 					FST::RELATION('&', 1),
; 1264 : 					FST::RELATION('@', 1),
; 1265 : 					FST::RELATION('[', 1),
; 1266 : 					FST::RELATION(']', 1),
; 1267 : 					FST::RELATION('\\', 1),
; 1268 : 					FST::RELATION('~', 1),
; 1269 : 					FST::RELATION('\'', 2)),
; 1270 : 				FST::NODE());
; 1271 : 			if (result = execute(graph_literal)) {

  06d36	48 8d 8d 28 12
	00 00		 lea	 rcx, QWORD PTR graph_literal$117[rbp]
  06d3d	e8 00 00 00 00	 call	 ?execute@FST@@YA_NAEAU11@@Z ; FST::execute
  06d42	88 85 04 04 00
	00		 mov	 BYTE PTR result$[rbp], al
  06d48	0f b6 85 04 04
	00 00		 movzx	 eax, BYTE PTR result$[rbp]
  06d4f	85 c0		 test	 eax, eax
  06d51	74 15		 je	 SHORT $LN95@token_reko

; 1272 : 				entry->iddatatype = IT::IDDATATYPE::STR;

  06d53	48 8b 85 58 a4
	00 00		 mov	 rax, QWORD PTR entry$[rbp]
  06d5a	c7 40 40 02 00
	00 00		 mov	 DWORD PTR [rax+64], 2

; 1273 : 				return LEX_LITERAL;

  06d61	b0 6c		 mov	 al, 108			; 0000006cH
  06d63	e9 62 04 00 00	 jmp	 $LN1@token_reko
$LN95@token_reko:
$LN2@token_reko:

; 1274 : 				break;
; 1275 : 			}
; 1276 : 		}
; 1277 : 		}
; 1278 : 		
; 1279 : 			FST::FST graph_identificator(string, 1,

  06d68	45 33 c0	 xor	 r8d, r8d
  06d6b	b2 5f		 mov	 dl, 95			; 0000005fH
  06d6d	48 8d 8d 14 74
	00 00		 lea	 rcx, QWORD PTR $T743[rbp]
  06d74	e8 00 00 00 00	 call	 ??0RELATION@FST@@QEAA@DF@Z ; FST::RELATION::RELATION
  06d79	48 89 85 58 9f
	00 00		 mov	 QWORD PTR tv4115[rbp], rax
  06d80	45 33 c0	 xor	 r8d, r8d
  06d83	b2 7a		 mov	 dl, 122			; 0000007aH
  06d85	48 8d 8d 34 74
	00 00		 lea	 rcx, QWORD PTR $T744[rbp]
  06d8c	e8 00 00 00 00	 call	 ??0RELATION@FST@@QEAA@DF@Z ; FST::RELATION::RELATION
  06d91	48 89 85 60 9f
	00 00		 mov	 QWORD PTR tv4120[rbp], rax
  06d98	45 33 c0	 xor	 r8d, r8d
  06d9b	b2 79		 mov	 dl, 121			; 00000079H
  06d9d	48 8d 8d 54 74
	00 00		 lea	 rcx, QWORD PTR $T745[rbp]
  06da4	e8 00 00 00 00	 call	 ??0RELATION@FST@@QEAA@DF@Z ; FST::RELATION::RELATION
  06da9	48 89 85 68 9f
	00 00		 mov	 QWORD PTR tv4125[rbp], rax
  06db0	45 33 c0	 xor	 r8d, r8d
  06db3	b2 78		 mov	 dl, 120			; 00000078H
  06db5	48 8d 8d 74 74
	00 00		 lea	 rcx, QWORD PTR $T746[rbp]
  06dbc	e8 00 00 00 00	 call	 ??0RELATION@FST@@QEAA@DF@Z ; FST::RELATION::RELATION
  06dc1	48 89 85 70 9f
	00 00		 mov	 QWORD PTR tv4130[rbp], rax
  06dc8	45 33 c0	 xor	 r8d, r8d
  06dcb	b2 77		 mov	 dl, 119			; 00000077H
  06dcd	48 8d 8d 94 74
	00 00		 lea	 rcx, QWORD PTR $T747[rbp]
  06dd4	e8 00 00 00 00	 call	 ??0RELATION@FST@@QEAA@DF@Z ; FST::RELATION::RELATION
  06dd9	48 89 85 78 9f
	00 00		 mov	 QWORD PTR tv4135[rbp], rax
  06de0	45 33 c0	 xor	 r8d, r8d
  06de3	b2 76		 mov	 dl, 118			; 00000076H
  06de5	48 8d 8d b4 74
	00 00		 lea	 rcx, QWORD PTR $T748[rbp]
  06dec	e8 00 00 00 00	 call	 ??0RELATION@FST@@QEAA@DF@Z ; FST::RELATION::RELATION
  06df1	48 89 85 80 9f
	00 00		 mov	 QWORD PTR tv4140[rbp], rax
  06df8	45 33 c0	 xor	 r8d, r8d
  06dfb	b2 75		 mov	 dl, 117			; 00000075H
  06dfd	48 8d 8d d4 74
	00 00		 lea	 rcx, QWORD PTR $T749[rbp]
  06e04	e8 00 00 00 00	 call	 ??0RELATION@FST@@QEAA@DF@Z ; FST::RELATION::RELATION
  06e09	48 89 85 88 9f
	00 00		 mov	 QWORD PTR tv4145[rbp], rax
  06e10	45 33 c0	 xor	 r8d, r8d
  06e13	b2 74		 mov	 dl, 116			; 00000074H
  06e15	48 8d 8d f4 74
	00 00		 lea	 rcx, QWORD PTR $T750[rbp]
  06e1c	e8 00 00 00 00	 call	 ??0RELATION@FST@@QEAA@DF@Z ; FST::RELATION::RELATION
  06e21	48 89 85 90 9f
	00 00		 mov	 QWORD PTR tv4150[rbp], rax
  06e28	45 33 c0	 xor	 r8d, r8d
  06e2b	b2 73		 mov	 dl, 115			; 00000073H
  06e2d	48 8d 8d 14 75
	00 00		 lea	 rcx, QWORD PTR $T751[rbp]
  06e34	e8 00 00 00 00	 call	 ??0RELATION@FST@@QEAA@DF@Z ; FST::RELATION::RELATION
  06e39	48 89 85 98 9f
	00 00		 mov	 QWORD PTR tv4155[rbp], rax
  06e40	45 33 c0	 xor	 r8d, r8d
  06e43	b2 72		 mov	 dl, 114			; 00000072H
  06e45	48 8d 8d 34 75
	00 00		 lea	 rcx, QWORD PTR $T752[rbp]
  06e4c	e8 00 00 00 00	 call	 ??0RELATION@FST@@QEAA@DF@Z ; FST::RELATION::RELATION
  06e51	48 89 85 a0 9f
	00 00		 mov	 QWORD PTR tv4160[rbp], rax
  06e58	45 33 c0	 xor	 r8d, r8d
  06e5b	b2 71		 mov	 dl, 113			; 00000071H
  06e5d	48 8d 8d 54 75
	00 00		 lea	 rcx, QWORD PTR $T753[rbp]
  06e64	e8 00 00 00 00	 call	 ??0RELATION@FST@@QEAA@DF@Z ; FST::RELATION::RELATION
  06e69	48 89 85 a8 9f
	00 00		 mov	 QWORD PTR tv4165[rbp], rax
  06e70	45 33 c0	 xor	 r8d, r8d
  06e73	b2 70		 mov	 dl, 112			; 00000070H
  06e75	48 8d 8d 74 75
	00 00		 lea	 rcx, QWORD PTR $T754[rbp]
  06e7c	e8 00 00 00 00	 call	 ??0RELATION@FST@@QEAA@DF@Z ; FST::RELATION::RELATION
  06e81	48 89 85 b0 9f
	00 00		 mov	 QWORD PTR tv4170[rbp], rax
  06e88	45 33 c0	 xor	 r8d, r8d
  06e8b	b2 6f		 mov	 dl, 111			; 0000006fH
  06e8d	48 8d 8d 94 75
	00 00		 lea	 rcx, QWORD PTR $T755[rbp]
  06e94	e8 00 00 00 00	 call	 ??0RELATION@FST@@QEAA@DF@Z ; FST::RELATION::RELATION
  06e99	48 89 85 b8 9f
	00 00		 mov	 QWORD PTR tv4175[rbp], rax
  06ea0	45 33 c0	 xor	 r8d, r8d
  06ea3	b2 6e		 mov	 dl, 110			; 0000006eH
  06ea5	48 8d 8d b4 75
	00 00		 lea	 rcx, QWORD PTR $T756[rbp]
  06eac	e8 00 00 00 00	 call	 ??0RELATION@FST@@QEAA@DF@Z ; FST::RELATION::RELATION
  06eb1	48 89 85 c0 9f
	00 00		 mov	 QWORD PTR tv4180[rbp], rax
  06eb8	45 33 c0	 xor	 r8d, r8d
  06ebb	b2 6d		 mov	 dl, 109			; 0000006dH
  06ebd	48 8d 8d d4 75
	00 00		 lea	 rcx, QWORD PTR $T757[rbp]
  06ec4	e8 00 00 00 00	 call	 ??0RELATION@FST@@QEAA@DF@Z ; FST::RELATION::RELATION
  06ec9	48 89 85 c8 9f
	00 00		 mov	 QWORD PTR tv4185[rbp], rax
  06ed0	45 33 c0	 xor	 r8d, r8d
  06ed3	b2 6c		 mov	 dl, 108			; 0000006cH
  06ed5	48 8d 8d f4 75
	00 00		 lea	 rcx, QWORD PTR $T758[rbp]
  06edc	e8 00 00 00 00	 call	 ??0RELATION@FST@@QEAA@DF@Z ; FST::RELATION::RELATION
  06ee1	48 89 85 d0 9f
	00 00		 mov	 QWORD PTR tv4190[rbp], rax
  06ee8	45 33 c0	 xor	 r8d, r8d
  06eeb	b2 6b		 mov	 dl, 107			; 0000006bH
  06eed	48 8d 8d 14 76
	00 00		 lea	 rcx, QWORD PTR $T759[rbp]
  06ef4	e8 00 00 00 00	 call	 ??0RELATION@FST@@QEAA@DF@Z ; FST::RELATION::RELATION
  06ef9	48 89 85 d8 9f
	00 00		 mov	 QWORD PTR tv4195[rbp], rax
  06f00	45 33 c0	 xor	 r8d, r8d
  06f03	b2 6a		 mov	 dl, 106			; 0000006aH
  06f05	48 8d 8d 34 76
	00 00		 lea	 rcx, QWORD PTR $T760[rbp]
  06f0c	e8 00 00 00 00	 call	 ??0RELATION@FST@@QEAA@DF@Z ; FST::RELATION::RELATION
  06f11	48 89 85 e0 9f
	00 00		 mov	 QWORD PTR tv4200[rbp], rax
  06f18	45 33 c0	 xor	 r8d, r8d
  06f1b	b2 69		 mov	 dl, 105			; 00000069H
  06f1d	48 8d 8d 54 76
	00 00		 lea	 rcx, QWORD PTR $T761[rbp]
  06f24	e8 00 00 00 00	 call	 ??0RELATION@FST@@QEAA@DF@Z ; FST::RELATION::RELATION
  06f29	48 89 85 e8 9f
	00 00		 mov	 QWORD PTR tv4205[rbp], rax
  06f30	45 33 c0	 xor	 r8d, r8d
  06f33	b2 68		 mov	 dl, 104			; 00000068H
  06f35	48 8d 8d 74 76
	00 00		 lea	 rcx, QWORD PTR $T762[rbp]
  06f3c	e8 00 00 00 00	 call	 ??0RELATION@FST@@QEAA@DF@Z ; FST::RELATION::RELATION
  06f41	48 89 85 f0 9f
	00 00		 mov	 QWORD PTR tv4210[rbp], rax
  06f48	45 33 c0	 xor	 r8d, r8d
  06f4b	b2 67		 mov	 dl, 103			; 00000067H
  06f4d	48 8d 8d 94 76
	00 00		 lea	 rcx, QWORD PTR $T763[rbp]
  06f54	e8 00 00 00 00	 call	 ??0RELATION@FST@@QEAA@DF@Z ; FST::RELATION::RELATION
  06f59	48 89 85 f8 9f
	00 00		 mov	 QWORD PTR tv4215[rbp], rax
  06f60	45 33 c0	 xor	 r8d, r8d
  06f63	b2 66		 mov	 dl, 102			; 00000066H
  06f65	48 8d 8d b4 76
	00 00		 lea	 rcx, QWORD PTR $T764[rbp]
  06f6c	e8 00 00 00 00	 call	 ??0RELATION@FST@@QEAA@DF@Z ; FST::RELATION::RELATION
  06f71	48 89 85 00 a0
	00 00		 mov	 QWORD PTR tv4220[rbp], rax
  06f78	45 33 c0	 xor	 r8d, r8d
  06f7b	b2 65		 mov	 dl, 101			; 00000065H
  06f7d	48 8d 8d d4 76
	00 00		 lea	 rcx, QWORD PTR $T765[rbp]
  06f84	e8 00 00 00 00	 call	 ??0RELATION@FST@@QEAA@DF@Z ; FST::RELATION::RELATION
  06f89	48 89 85 08 a0
	00 00		 mov	 QWORD PTR tv4257[rbp], rax
  06f90	45 33 c0	 xor	 r8d, r8d
  06f93	b2 64		 mov	 dl, 100			; 00000064H
  06f95	48 8d 8d f4 76
	00 00		 lea	 rcx, QWORD PTR $T766[rbp]
  06f9c	e8 00 00 00 00	 call	 ??0RELATION@FST@@QEAA@DF@Z ; FST::RELATION::RELATION
  06fa1	48 89 85 10 a0
	00 00		 mov	 QWORD PTR tv4262[rbp], rax
  06fa8	45 33 c0	 xor	 r8d, r8d
  06fab	b2 63		 mov	 dl, 99			; 00000063H
  06fad	48 8d 8d 14 77
	00 00		 lea	 rcx, QWORD PTR $T767[rbp]
  06fb4	e8 00 00 00 00	 call	 ??0RELATION@FST@@QEAA@DF@Z ; FST::RELATION::RELATION
  06fb9	48 89 85 18 a0
	00 00		 mov	 QWORD PTR tv4267[rbp], rax
  06fc0	45 33 c0	 xor	 r8d, r8d
  06fc3	b2 62		 mov	 dl, 98			; 00000062H
  06fc5	48 8d 8d 34 77
	00 00		 lea	 rcx, QWORD PTR $T768[rbp]
  06fcc	e8 00 00 00 00	 call	 ??0RELATION@FST@@QEAA@DF@Z ; FST::RELATION::RELATION
  06fd1	48 89 85 20 a0
	00 00		 mov	 QWORD PTR tv4272[rbp], rax
  06fd8	45 33 c0	 xor	 r8d, r8d
  06fdb	b2 61		 mov	 dl, 97			; 00000061H
  06fdd	48 8d 8d 54 77
	00 00		 lea	 rcx, QWORD PTR $T769[rbp]
  06fe4	e8 00 00 00 00	 call	 ??0RELATION@FST@@QEAA@DF@Z ; FST::RELATION::RELATION
  06fe9	48 8b 8d 58 9f
	00 00		 mov	 rcx, QWORD PTR tv4115[rbp]
  06ff0	8b 09		 mov	 ecx, DWORD PTR [rcx]
  06ff2	89 8c 24 e0 00
	00 00		 mov	 DWORD PTR [rsp+224], ecx
  06ff9	48 8b 8d 60 9f
	00 00		 mov	 rcx, QWORD PTR tv4120[rbp]
  07000	8b 09		 mov	 ecx, DWORD PTR [rcx]
  07002	89 8c 24 d8 00
	00 00		 mov	 DWORD PTR [rsp+216], ecx
  07009	48 8b 8d 68 9f
	00 00		 mov	 rcx, QWORD PTR tv4125[rbp]
  07010	8b 09		 mov	 ecx, DWORD PTR [rcx]
  07012	89 8c 24 d0 00
	00 00		 mov	 DWORD PTR [rsp+208], ecx
  07019	48 8b 8d 70 9f
	00 00		 mov	 rcx, QWORD PTR tv4130[rbp]
  07020	8b 09		 mov	 ecx, DWORD PTR [rcx]
  07022	89 8c 24 c8 00
	00 00		 mov	 DWORD PTR [rsp+200], ecx
  07029	48 8b 8d 78 9f
	00 00		 mov	 rcx, QWORD PTR tv4135[rbp]
  07030	8b 09		 mov	 ecx, DWORD PTR [rcx]
  07032	89 8c 24 c0 00
	00 00		 mov	 DWORD PTR [rsp+192], ecx
  07039	48 8b 8d 80 9f
	00 00		 mov	 rcx, QWORD PTR tv4140[rbp]
  07040	8b 09		 mov	 ecx, DWORD PTR [rcx]
  07042	89 8c 24 b8 00
	00 00		 mov	 DWORD PTR [rsp+184], ecx
  07049	48 8b 8d 88 9f
	00 00		 mov	 rcx, QWORD PTR tv4145[rbp]
  07050	8b 09		 mov	 ecx, DWORD PTR [rcx]
  07052	89 8c 24 b0 00
	00 00		 mov	 DWORD PTR [rsp+176], ecx
  07059	48 8b 8d 90 9f
	00 00		 mov	 rcx, QWORD PTR tv4150[rbp]
  07060	8b 09		 mov	 ecx, DWORD PTR [rcx]
  07062	89 8c 24 a8 00
	00 00		 mov	 DWORD PTR [rsp+168], ecx
  07069	48 8b 8d 98 9f
	00 00		 mov	 rcx, QWORD PTR tv4155[rbp]
  07070	8b 09		 mov	 ecx, DWORD PTR [rcx]
  07072	89 8c 24 a0 00
	00 00		 mov	 DWORD PTR [rsp+160], ecx
  07079	48 8b 8d a0 9f
	00 00		 mov	 rcx, QWORD PTR tv4160[rbp]
  07080	8b 09		 mov	 ecx, DWORD PTR [rcx]
  07082	89 8c 24 98 00
	00 00		 mov	 DWORD PTR [rsp+152], ecx
  07089	48 8b 8d a8 9f
	00 00		 mov	 rcx, QWORD PTR tv4165[rbp]
  07090	8b 09		 mov	 ecx, DWORD PTR [rcx]
  07092	89 8c 24 90 00
	00 00		 mov	 DWORD PTR [rsp+144], ecx
  07099	48 8b 8d b0 9f
	00 00		 mov	 rcx, QWORD PTR tv4170[rbp]
  070a0	8b 09		 mov	 ecx, DWORD PTR [rcx]
  070a2	89 8c 24 88 00
	00 00		 mov	 DWORD PTR [rsp+136], ecx
  070a9	48 8b 8d b8 9f
	00 00		 mov	 rcx, QWORD PTR tv4175[rbp]
  070b0	8b 09		 mov	 ecx, DWORD PTR [rcx]
  070b2	89 8c 24 80 00
	00 00		 mov	 DWORD PTR [rsp+128], ecx
  070b9	48 8b 8d c0 9f
	00 00		 mov	 rcx, QWORD PTR tv4180[rbp]
  070c0	8b 09		 mov	 ecx, DWORD PTR [rcx]
  070c2	89 4c 24 78	 mov	 DWORD PTR [rsp+120], ecx
  070c6	48 8b 8d c8 9f
	00 00		 mov	 rcx, QWORD PTR tv4185[rbp]
  070cd	8b 09		 mov	 ecx, DWORD PTR [rcx]
  070cf	89 4c 24 70	 mov	 DWORD PTR [rsp+112], ecx
  070d3	48 8b 8d d0 9f
	00 00		 mov	 rcx, QWORD PTR tv4190[rbp]
  070da	8b 09		 mov	 ecx, DWORD PTR [rcx]
  070dc	89 4c 24 68	 mov	 DWORD PTR [rsp+104], ecx
  070e0	48 8b 8d d8 9f
	00 00		 mov	 rcx, QWORD PTR tv4195[rbp]
  070e7	8b 09		 mov	 ecx, DWORD PTR [rcx]
  070e9	89 4c 24 60	 mov	 DWORD PTR [rsp+96], ecx
  070ed	48 8b 8d e0 9f
	00 00		 mov	 rcx, QWORD PTR tv4200[rbp]
  070f4	8b 09		 mov	 ecx, DWORD PTR [rcx]
  070f6	89 4c 24 58	 mov	 DWORD PTR [rsp+88], ecx
  070fa	48 8b 8d e8 9f
	00 00		 mov	 rcx, QWORD PTR tv4205[rbp]
  07101	8b 09		 mov	 ecx, DWORD PTR [rcx]
  07103	89 4c 24 50	 mov	 DWORD PTR [rsp+80], ecx
  07107	48 8b 8d f0 9f
	00 00		 mov	 rcx, QWORD PTR tv4210[rbp]
  0710e	8b 09		 mov	 ecx, DWORD PTR [rcx]
  07110	89 4c 24 48	 mov	 DWORD PTR [rsp+72], ecx
  07114	48 8b 8d f8 9f
	00 00		 mov	 rcx, QWORD PTR tv4215[rbp]
  0711b	8b 09		 mov	 ecx, DWORD PTR [rcx]
  0711d	89 4c 24 40	 mov	 DWORD PTR [rsp+64], ecx
  07121	48 8b 8d 00 a0
	00 00		 mov	 rcx, QWORD PTR tv4220[rbp]
  07128	8b 09		 mov	 ecx, DWORD PTR [rcx]
  0712a	89 4c 24 38	 mov	 DWORD PTR [rsp+56], ecx
  0712e	48 8b 8d 08 a0
	00 00		 mov	 rcx, QWORD PTR tv4257[rbp]
  07135	8b 09		 mov	 ecx, DWORD PTR [rcx]
  07137	89 4c 24 30	 mov	 DWORD PTR [rsp+48], ecx
  0713b	48 8b 8d 10 a0
	00 00		 mov	 rcx, QWORD PTR tv4262[rbp]
  07142	8b 09		 mov	 ecx, DWORD PTR [rcx]
  07144	89 4c 24 28	 mov	 DWORD PTR [rsp+40], ecx
  07148	48 8b 8d 18 a0
	00 00		 mov	 rcx, QWORD PTR tv4267[rbp]
  0714f	8b 09		 mov	 ecx, DWORD PTR [rcx]
  07151	89 4c 24 20	 mov	 DWORD PTR [rsp+32], ecx
  07155	48 8b 8d 20 a0
	00 00		 mov	 rcx, QWORD PTR tv4272[rbp]
  0715c	44 8b 09	 mov	 r9d, DWORD PTR [rcx]
  0715f	44 8b 00	 mov	 r8d, DWORD PTR [rax]
  07162	ba 1a 00 00 00	 mov	 edx, 26
  07167	48 8d 8d e8 73
	00 00		 lea	 rcx, QWORD PTR $T742[rbp]
  0716e	e8 00 00 00 00	 call	 ??0NODE@FST@@QEAA@FURELATION@1@ZZ ; FST::NODE::NODE
  07173	48 8d 8d 40 9f
	00 00		 lea	 rcx, QWORD PTR $T982[rbp]
  0717a	48 8b f9	 mov	 rdi, rcx
  0717d	48 8b f0	 mov	 rsi, rax
  07180	b9 10 00 00 00	 mov	 ecx, 16
  07185	f3 a4		 rep movsb
  07187	4c 8d 8d 40 9f
	00 00		 lea	 r9, QWORD PTR $T982[rbp]
  0718e	41 b8 01 00 00
	00		 mov	 r8d, 1
  07194	48 8b 95 50 a4
	00 00		 mov	 rdx, QWORD PTR string$[rbp]
  0719b	48 8d 8d 68 12
	00 00		 lea	 rcx, QWORD PTR graph_identificator$[rbp]
  071a2	e8 00 00 00 00	 call	 ??0FST@0@QEAA@PEADFUNODE@0@ZZ ; FST::FST::FST

; 1280 : 				FST::NODE(26,
; 1281 : 					FST::RELATION('a', 0),
; 1282 : 					FST::RELATION('b', 0),
; 1283 : 					FST::RELATION('c', 0),
; 1284 : 					FST::RELATION('d', 0),
; 1285 : 					FST::RELATION('e', 0),
; 1286 : 					FST::RELATION('f', 0),
; 1287 : 					FST::RELATION('g', 0),
; 1288 : 					FST::RELATION('h', 0),
; 1289 : 					FST::RELATION('i', 0),
; 1290 : 					FST::RELATION('j', 0),
; 1291 : 					FST::RELATION('k', 0),
; 1292 : 					FST::RELATION('l', 0),
; 1293 : 					FST::RELATION('m', 0),
; 1294 : 					FST::RELATION('n', 0),
; 1295 : 					FST::RELATION('o', 0),
; 1296 : 					FST::RELATION('p', 0),
; 1297 : 					FST::RELATION('q', 0),
; 1298 : 					FST::RELATION('r', 0),
; 1299 : 					FST::RELATION('s', 0),
; 1300 : 					FST::RELATION('t', 0),
; 1301 : 					FST::RELATION('u', 0),
; 1302 : 					FST::RELATION('v', 0),
; 1303 : 					FST::RELATION('w', 0),
; 1304 : 					FST::RELATION('x', 0),
; 1305 : 					FST::RELATION('y', 0),
; 1306 : 					FST::RELATION('z', 0),
; 1307 : 					FST::RELATION('_', 0))
; 1308 : 			);
; 1309 : 			if (result = execute(graph_identificator)) {

  071a7	48 8d 8d 68 12
	00 00		 lea	 rcx, QWORD PTR graph_identificator$[rbp]
  071ae	e8 00 00 00 00	 call	 ?execute@FST@@YA_NAEAU11@@Z ; FST::execute
  071b3	88 85 04 04 00
	00		 mov	 BYTE PTR result$[rbp], al
  071b9	0f b6 85 04 04
	00 00		 movzx	 eax, BYTE PTR result$[rbp]
  071c0	85 c0		 test	 eax, eax
  071c2	74 04		 je	 SHORT $LN96@token_reko

; 1310 : 				return LEX_ID;

  071c4	b0 69		 mov	 al, 105			; 00000069H
  071c6	eb 02		 jmp	 SHORT $LN1@token_reko
$LN96@token_reko:

; 1311 : 			}
; 1312 : 		
; 1313 : 		return 0;

  071c8	32 c0		 xor	 al, al
$LN1@token_reko:

; 1314 : 	}

  071ca	48 8b f8	 mov	 rdi, rax
  071cd	48 8d 8d 10 ff
	ff ff		 lea	 rcx, QWORD PTR [rbp-240]
  071d4	48 8d 15 00 00
	00 00		 lea	 rdx, OFFSET FLAT:?token_rekognizer@GM@@YADPEADPEAUEntry@IT@@@Z$rtcFrameData
  071db	e8 00 00 00 00	 call	 _RTC_CheckStackVars
  071e0	48 8b c7	 mov	 rax, rdi
  071e3	48 8b 8d 28 a4
	00 00		 mov	 rcx, QWORD PTR __$ArrayPad$[rbp]
  071ea	48 33 cd	 xor	 rcx, rbp
  071ed	e8 00 00 00 00	 call	 __security_check_cookie
  071f2	48 8d a5 30 a4
	00 00		 lea	 rsp, QWORD PTR [rbp+42032]
  071f9	5f		 pop	 rdi
  071fa	5e		 pop	 rsi
  071fb	5d		 pop	 rbp
  071fc	c3		 ret	 0
  071fd	0f 1f 00	 npad	 3
$LN227@token_reko:
  07200	00 00 00 00	 DD	 $LN47@token_reko
  07204	00 00 00 00	 DD	 $LN92@token_reko
  07208	00 00 00 00	 DD	 $LN6@token_reko
  0720c	00 00 00 00	 DD	 $LN94@token_reko
  07210	00 00 00 00	 DD	 $LN8@token_reko
  07214	00 00 00 00	 DD	 $LN10@token_reko
  07218	00 00 00 00	 DD	 $LN16@token_reko
  0721c	00 00 00 00	 DD	 $LN18@token_reko
  07220	00 00 00 00	 DD	 $LN21@token_reko
  07224	00 00 00 00	 DD	 $LN23@token_reko
  07228	00 00 00 00	 DD	 $LN26@token_reko
  0722c	00 00 00 00	 DD	 $LN28@token_reko
  07230	00 00 00 00	 DD	 $LN34@token_reko
  07234	00 00 00 00	 DD	 $LN36@token_reko
  07238	00 00 00 00	 DD	 $LN44@token_reko
  0723c	00 00 00 00	 DD	 $LN40@token_reko
  07240	00 00 00 00	 DD	 $LN12@token_reko
  07244	00 00 00 00	 DD	 $LN14@token_reko
  07248	00 00 00 00	 DD	 $LN49@token_reko
  0724c	00 00 00 00	 DD	 $LN51@token_reko
  07250	00 00 00 00	 DD	 $LN54@token_reko
  07254	00 00 00 00	 DD	 $LN56@token_reko
  07258	00 00 00 00	 DD	 $LN60@token_reko
  0725c	00 00 00 00	 DD	 $LN63@token_reko
  07260	00 00 00 00	 DD	 $LN65@token_reko
  07264	00 00 00 00	 DD	 $LN67@token_reko
  07268	00 00 00 00	 DD	 $LN69@token_reko
  0726c	00 00 00 00	 DD	 $LN73@token_reko
  07270	00 00 00 00	 DD	 $LN78@token_reko
  07274	00 00 00 00	 DD	 $LN80@token_reko
  07278	00 00 00 00	 DD	 $LN82@token_reko
  0727c	00 00 00 00	 DD	 $LN86@token_reko
  07280	00 00 00 00	 DD	 $LN4@token_reko
  07284	00 00 00 00	 DD	 $LN88@token_reko
  07288	00 00 00 00	 DD	 $LN90@token_reko
  0728c	00 00 00 00	 DD	 $LN2@token_reko
$LN226@token_reko:
  07290	00		 DB	 0
  07291	23		 DB	 35			; 00000023H
  07292	23		 DB	 35			; 00000023H
  07293	01		 DB	 1
  07294	23		 DB	 35			; 00000023H
  07295	02		 DB	 2
  07296	03		 DB	 3
  07297	04		 DB	 4
  07298	05		 DB	 5
  07299	06		 DB	 6
  0729a	07		 DB	 7
  0729b	08		 DB	 8
  0729c	09		 DB	 9
  0729d	23		 DB	 35			; 00000023H
  0729e	0a		 DB	 10
  0729f	0b		 DB	 11
  072a0	0b		 DB	 11
  072a1	0b		 DB	 11
  072a2	0b		 DB	 11
  072a3	0b		 DB	 11
  072a4	0b		 DB	 11
  072a5	0b		 DB	 11
  072a6	0b		 DB	 11
  072a7	0b		 DB	 11
  072a8	0b		 DB	 11
  072a9	23		 DB	 35			; 00000023H
  072aa	0c		 DB	 12
  072ab	0d		 DB	 13
  072ac	0e		 DB	 14
  072ad	0f		 DB	 15
  072ae	23		 DB	 35			; 00000023H
  072af	23		 DB	 35			; 00000023H
  072b0	23		 DB	 35			; 00000023H
  072b1	23		 DB	 35			; 00000023H
  072b2	23		 DB	 35			; 00000023H
  072b3	23		 DB	 35			; 00000023H
  072b4	23		 DB	 35			; 00000023H
  072b5	23		 DB	 35			; 00000023H
  072b6	23		 DB	 35			; 00000023H
  072b7	23		 DB	 35			; 00000023H
  072b8	23		 DB	 35			; 00000023H
  072b9	23		 DB	 35			; 00000023H
  072ba	23		 DB	 35			; 00000023H
  072bb	23		 DB	 35			; 00000023H
  072bc	23		 DB	 35			; 00000023H
  072bd	23		 DB	 35			; 00000023H
  072be	23		 DB	 35			; 00000023H
  072bf	23		 DB	 35			; 00000023H
  072c0	23		 DB	 35			; 00000023H
  072c1	23		 DB	 35			; 00000023H
  072c2	23		 DB	 35			; 00000023H
  072c3	23		 DB	 35			; 00000023H
  072c4	23		 DB	 35			; 00000023H
  072c5	23		 DB	 35			; 00000023H
  072c6	23		 DB	 35			; 00000023H
  072c7	23		 DB	 35			; 00000023H
  072c8	23		 DB	 35			; 00000023H
  072c9	23		 DB	 35			; 00000023H
  072ca	10		 DB	 16
  072cb	23		 DB	 35			; 00000023H
  072cc	11		 DB	 17
  072cd	12		 DB	 18
  072ce	23		 DB	 35			; 00000023H
  072cf	23		 DB	 35			; 00000023H
  072d0	23		 DB	 35			; 00000023H
  072d1	13		 DB	 19
  072d2	23		 DB	 35			; 00000023H
  072d3	23		 DB	 35			; 00000023H
  072d4	14		 DB	 20
  072d5	15		 DB	 21
  072d6	23		 DB	 35			; 00000023H
  072d7	23		 DB	 35			; 00000023H
  072d8	16		 DB	 22
  072d9	23		 DB	 35			; 00000023H
  072da	23		 DB	 35			; 00000023H
  072db	17		 DB	 23
  072dc	18		 DB	 24
  072dd	23		 DB	 35			; 00000023H
  072de	19		 DB	 25
  072df	23		 DB	 35			; 00000023H
  072e0	23		 DB	 35			; 00000023H
  072e1	1a		 DB	 26
  072e2	1b		 DB	 27
  072e3	1c		 DB	 28
  072e4	1d		 DB	 29
  072e5	23		 DB	 35			; 00000023H
  072e6	1e		 DB	 30
  072e7	23		 DB	 35			; 00000023H
  072e8	23		 DB	 35			; 00000023H
  072e9	23		 DB	 35			; 00000023H
  072ea	1f		 DB	 31
  072eb	20		 DB	 32			; 00000020H
  072ec	21		 DB	 33			; 00000021H
  072ed	22		 DB	 34			; 00000022H
?token_rekognizer@GM@@YADPEADPEAUEntry@IT@@@Z ENDP	; GM::token_rekognizer
_TEXT	ENDS
; Function compile flags: /Odtp /RTCsu /ZI
; File C:\Users\Skvortsoff\OneDrive\\GitHub\course_LP\course_LP\DP.h
;	COMDAT ??0Data@GM@@QEAA@XZ
_TEXT	SEGMENT
this$ = 224
??0Data@GM@@QEAA@XZ PROC				; GM::Data::Data, COMDAT

; 26   : 		Data() {

$LN4:
  00000	48 89 4c 24 08	 mov	 QWORD PTR [rsp+8], rcx
  00005	55		 push	 rbp
  00006	57		 push	 rdi
  00007	48 81 ec e8 00
	00 00		 sub	 rsp, 232		; 000000e8H
  0000e	48 8d 6c 24 20	 lea	 rbp, QWORD PTR [rsp+32]
  00013	48 8b fc	 mov	 rdi, rsp
  00016	b9 3a 00 00 00	 mov	 ecx, 58			; 0000003aH
  0001b	b8 cc cc cc cc	 mov	 eax, -858993460		; ccccccccH
  00020	f3 ab		 rep stosd
  00022	48 8b 8c 24 08
	01 00 00	 mov	 rcx, QWORD PTR [rsp+264]
  0002a	48 8d 0d 00 00
	00 00		 lea	 rcx, OFFSET FLAT:__BE522193_DP@h
  00031	e8 00 00 00 00	 call	 __CheckForDebuggerJustMyCode

; 20   : 		char* string = nullptr;					// ptr for string

  00036	48 8b 85 e0 00
	00 00		 mov	 rax, QWORD PTR this$[rbp]
  0003d	48 c7 40 20 00
	00 00 00	 mov	 QWORD PTR [rax+32], 0

; 21   : 		bool negativeValue = false;				// negative values for string or may be other types

  00045	48 8b 85 e0 00
	00 00		 mov	 rax, QWORD PTR this$[rbp]
  0004c	c6 40 28 00	 mov	 BYTE PTR [rax+40], 0

; 22   : 		bool visibility_in_parametres = false;

  00050	48 8b 85 e0 00
	00 00		 mov	 rax, QWORD PTR this$[rbp]
  00057	c6 40 29 00	 mov	 BYTE PTR [rax+41], 0

; 23   : 		bool check_type_return = false;

  0005b	48 8b 85 e0 00
	00 00		 mov	 rax, QWORD PTR this$[rbp]
  00062	c6 40 2a 00	 mov	 BYTE PTR [rax+42], 0

; 24   : 		IT::IDDATATYPE datatype = IT::NUL;

  00066	48 8b 85 e0 00
	00 00		 mov	 rax, QWORD PTR this$[rbp]
  0006d	c7 40 2c 00 00
	00 00		 mov	 DWORD PTR [rax+44], 0

; 27   : 			switch_string = false;

  00074	48 8b 85 e0 00
	00 00		 mov	 rax, QWORD PTR this$[rbp]
  0007b	c6 00 00	 mov	 BYTE PTR [rax], 0

; 28   : 			count_lines = 1;

  0007e	48 8b 85 e0 00
	00 00		 mov	 rax, QWORD PTR this$[rbp]
  00085	c7 40 04 01 00
	00 00		 mov	 DWORD PTR [rax+4], 1

; 29   : 			count = 0;

  0008c	48 8b 85 e0 00
	00 00		 mov	 rax, QWORD PTR this$[rbp]
  00093	c7 40 08 00 00
	00 00		 mov	 DWORD PTR [rax+8], 0

; 30   : 			token = 0;

  0009a	48 8b 85 e0 00
	00 00		 mov	 rax, QWORD PTR this$[rbp]
  000a1	c6 40 11 00	 mov	 BYTE PTR [rax+17], 0

; 31   : 			memset(prefix, 0, PREFIX_SIZE);

  000a5	48 8b 85 e0 00
	00 00		 mov	 rax, QWORD PTR this$[rbp]
  000ac	48 83 c0 12	 add	 rax, 18
  000b0	41 b8 0a 00 00
	00		 mov	 r8d, 10
  000b6	33 d2		 xor	 edx, edx
  000b8	48 8b c8	 mov	 rcx, rax
  000bb	e8 00 00 00 00	 call	 memset

; 32   : 			visibility_in_body = false;

  000c0	48 8b 85 e0 00
	00 00		 mov	 rax, QWORD PTR this$[rbp]
  000c7	c6 40 1e 00	 mov	 BYTE PTR [rax+30], 0

; 33   : 			visibility_in_parametres = false;

  000cb	48 8b 85 e0 00
	00 00		 mov	 rax, QWORD PTR this$[rbp]
  000d2	c6 40 29 00	 mov	 BYTE PTR [rax+41], 0

; 34   : 			countparametres = 0;

  000d6	48 8b 85 e0 00
	00 00		 mov	 rax, QWORD PTR this$[rbp]
  000dd	c7 40 0c 00 00
	00 00		 mov	 DWORD PTR [rax+12], 0

; 35   : 			positionfuncID = 0;

  000e4	48 8b 85 e0 00
	00 00		 mov	 rax, QWORD PTR this$[rbp]
  000eb	c6 40 1d 00	 mov	 BYTE PTR [rax+29], 0

; 36   : 			braces = 0;

  000ef	48 8b 85 e0 00
	00 00		 mov	 rax, QWORD PTR this$[rbp]
  000f6	c6 40 10 00	 mov	 BYTE PTR [rax+16], 0

; 37   : 		}

  000fa	48 8b 85 e0 00
	00 00		 mov	 rax, QWORD PTR this$[rbp]
  00101	48 8d a5 c8 00
	00 00		 lea	 rsp, QWORD PTR [rbp+200]
  00108	5f		 pop	 rdi
  00109	5d		 pop	 rbp
  0010a	c3		 ret	 0
??0Data@GM@@QEAA@XZ ENDP				; GM::Data::Data
_TEXT	ENDS
; Function compile flags: /Odtp /RTCsu /ZI
; File C:\Program Files (x86)\Microsoft Visual Studio\2019\Enterprise\VC\Tools\MSVC\14.27.29110\include\xloctime
;	COMDAT ??$_Getvals@_W@?$time_get@_WV?$istreambuf_iterator@_WU?$char_traits@_W@std@@@std@@@std@@IEAAX_WAEBV_Locinfo@1@@Z
_TEXT	SEGMENT
$T1 = 200
tv93 = 264
tv85 = 264
this$ = 304
__formal$ = 312
_Lobj$ = 320
??$_Getvals@_W@?$time_get@_WV?$istreambuf_iterator@_WU?$char_traits@_W@std@@@std@@@std@@IEAAX_WAEBV_Locinfo@1@@Z PROC ; std::time_get<wchar_t,std::istreambuf_iterator<wchar_t,std::char_traits<wchar_t> > >::_Getvals<wchar_t>, COMDAT

; 176  :     void __CLR_OR_THIS_CALL _Getvals(_Elem2, const _Locinfo& _Lobj) { // get values

$LN5:
  00000	4c 89 44 24 18	 mov	 QWORD PTR [rsp+24], r8
  00005	66 89 54 24 10	 mov	 WORD PTR [rsp+16], dx
  0000a	48 89 4c 24 08	 mov	 QWORD PTR [rsp+8], rcx
  0000f	55		 push	 rbp
  00010	56		 push	 rsi
  00011	57		 push	 rdi
  00012	48 81 ec 30 01
	00 00		 sub	 rsp, 304		; 00000130H
  00019	48 8d 6c 24 20	 lea	 rbp, QWORD PTR [rsp+32]
  0001e	48 8b fc	 mov	 rdi, rsp
  00021	b9 4c 00 00 00	 mov	 ecx, 76			; 0000004cH
  00026	b8 cc cc cc cc	 mov	 eax, -858993460		; ccccccccH
  0002b	f3 ab		 rep stosd
  0002d	48 8b 8c 24 58
	01 00 00	 mov	 rcx, QWORD PTR [rsp+344]
  00035	48 8d 0d 00 00
	00 00		 lea	 rcx, OFFSET FLAT:__FDACCCE4_xloctime
  0003c	e8 00 00 00 00	 call	 __CheckForDebuggerJustMyCode

; 177  :         _Cvt = _Lobj._Getcvt();

  00041	48 8d 95 c8 00
	00 00		 lea	 rdx, QWORD PTR $T1[rbp]
  00048	48 8b 8d 40 01
	00 00		 mov	 rcx, QWORD PTR _Lobj$[rbp]
  0004f	ff 15 00 00 00
	00		 call	 QWORD PTR __imp_?_Getcvt@_Locinfo@std@@QEBA?AU_Cvtvec@@XZ
  00055	48 8b 8d 30 01
	00 00		 mov	 rcx, QWORD PTR this$[rbp]
  0005c	48 8d 79 2c	 lea	 rdi, QWORD PTR [rcx+44]
  00060	48 8b f0	 mov	 rsi, rax
  00063	b9 2c 00 00 00	 mov	 ecx, 44			; 0000002cH
  00068	f3 a4		 rep movsb

; 178  : 
; 179  :         if (is_same_v<_Elem2, wchar_t>) {

  0006a	33 c0		 xor	 eax, eax
  0006c	83 f8 01	 cmp	 eax, 1
  0006f	74 5c		 je	 SHORT $LN2@Getvals

; 180  :             _Days = reinterpret_cast<const _Elem*>(_Maklocwcs(reinterpret_cast<const wchar_t*>(_Lobj._W_Getdays())));

  00071	48 8b 8d 40 01
	00 00		 mov	 rcx, QWORD PTR _Lobj$[rbp]
  00078	ff 15 00 00 00
	00		 call	 QWORD PTR __imp_?_W_Getdays@_Locinfo@std@@QEBAPEBGXZ
  0007e	48 8b c8	 mov	 rcx, rax
  00081	e8 00 00 00 00	 call	 ?_Maklocwcs@std@@YAPEA_WPEB_W@Z ; std::_Maklocwcs
  00086	48 8b 8d 30 01
	00 00		 mov	 rcx, QWORD PTR this$[rbp]
  0008d	48 89 41 10	 mov	 QWORD PTR [rcx+16], rax

; 181  :             _Months =

  00091	48 8b 8d 40 01
	00 00		 mov	 rcx, QWORD PTR _Lobj$[rbp]
  00098	ff 15 00 00 00
	00		 call	 QWORD PTR __imp_?_W_Getmonths@_Locinfo@std@@QEBAPEBGXZ
  0009e	48 8b c8	 mov	 rcx, rax
  000a1	e8 00 00 00 00	 call	 ?_Maklocwcs@std@@YAPEA_WPEB_W@Z ; std::_Maklocwcs
  000a6	48 8b 8d 30 01
	00 00		 mov	 rcx, QWORD PTR this$[rbp]
  000ad	48 89 41 18	 mov	 QWORD PTR [rcx+24], rax

; 182  :                 reinterpret_cast<const _Elem*>(_Maklocwcs(reinterpret_cast<const wchar_t*>(_Lobj._W_Getmonths())));
; 183  :             _Ampm = reinterpret_cast<const _Elem*>(_Maklocwcs(L":AM:am:PM:pm"));

  000b1	48 8d 0d 00 00
	00 00		 lea	 rcx, OFFSET FLAT:??_C@_1BK@MHIKGOKE@?$AA?3?$AAA?$AAM?$AA?3?$AAa?$AAm?$AA?3?$AAP?$AAM?$AA?3?$AAp?$AAm@
  000b8	e8 00 00 00 00	 call	 ?_Maklocwcs@std@@YAPEA_WPEB_W@Z ; std::_Maklocwcs
  000bd	48 8b 8d 30 01
	00 00		 mov	 rcx, QWORD PTR this$[rbp]
  000c4	48 89 41 20	 mov	 QWORD PTR [rcx+32], rax

; 184  :         } else {

  000c8	e9 a3 00 00 00	 jmp	 $LN3@Getvals
$LN2@Getvals:

; 185  :             _Days   = _Maklocstr(_Lobj._Getdays(), static_cast<_Elem*>(nullptr), _Cvt);

  000cd	48 8b 85 30 01
	00 00		 mov	 rax, QWORD PTR this$[rbp]
  000d4	48 83 c0 2c	 add	 rax, 44			; 0000002cH
  000d8	48 89 85 08 01
	00 00		 mov	 QWORD PTR tv85[rbp], rax
  000df	48 8b 8d 40 01
	00 00		 mov	 rcx, QWORD PTR _Lobj$[rbp]
  000e6	ff 15 00 00 00
	00		 call	 QWORD PTR __imp_?_Getdays@_Locinfo@std@@QEBAPEBDXZ
  000ec	48 8b 8d 08 01
	00 00		 mov	 rcx, QWORD PTR tv85[rbp]
  000f3	4c 8b c1	 mov	 r8, rcx
  000f6	33 d2		 xor	 edx, edx
  000f8	48 8b c8	 mov	 rcx, rax
  000fb	e8 00 00 00 00	 call	 ??$_Maklocstr@_W@std@@YAPEA_WPEBDPEA_WAEBU_Cvtvec@@@Z ; std::_Maklocstr<wchar_t>
  00100	48 8b 8d 30 01
	00 00		 mov	 rcx, QWORD PTR this$[rbp]
  00107	48 89 41 10	 mov	 QWORD PTR [rcx+16], rax

; 186  :             _Months = _Maklocstr(_Lobj._Getmonths(), static_cast<_Elem*>(nullptr), _Cvt);

  0010b	48 8b 85 30 01
	00 00		 mov	 rax, QWORD PTR this$[rbp]
  00112	48 83 c0 2c	 add	 rax, 44			; 0000002cH
  00116	48 89 85 08 01
	00 00		 mov	 QWORD PTR tv93[rbp], rax
  0011d	48 8b 8d 40 01
	00 00		 mov	 rcx, QWORD PTR _Lobj$[rbp]
  00124	ff 15 00 00 00
	00		 call	 QWORD PTR __imp_?_Getmonths@_Locinfo@std@@QEBAPEBDXZ
  0012a	48 8b 8d 08 01
	00 00		 mov	 rcx, QWORD PTR tv93[rbp]
  00131	4c 8b c1	 mov	 r8, rcx
  00134	33 d2		 xor	 edx, edx
  00136	48 8b c8	 mov	 rcx, rax
  00139	e8 00 00 00 00	 call	 ??$_Maklocstr@_W@std@@YAPEA_WPEBDPEA_WAEBU_Cvtvec@@@Z ; std::_Maklocstr<wchar_t>
  0013e	48 8b 8d 30 01
	00 00		 mov	 rcx, QWORD PTR this$[rbp]
  00145	48 89 41 18	 mov	 QWORD PTR [rcx+24], rax

; 187  :             _Ampm   = _Maklocstr(":AM:am:PM:pm", static_cast<_Elem*>(nullptr), _Cvt);

  00149	48 8b 85 30 01
	00 00		 mov	 rax, QWORD PTR this$[rbp]
  00150	48 83 c0 2c	 add	 rax, 44			; 0000002cH
  00154	4c 8b c0	 mov	 r8, rax
  00157	33 d2		 xor	 edx, edx
  00159	48 8d 0d 00 00
	00 00		 lea	 rcx, OFFSET FLAT:??_C@_0N@LPFKKEBD@?3AM?3am?3PM?3pm@
  00160	e8 00 00 00 00	 call	 ??$_Maklocstr@_W@std@@YAPEA_WPEBDPEA_WAEBU_Cvtvec@@@Z ; std::_Maklocstr<wchar_t>
  00165	48 8b 8d 30 01
	00 00		 mov	 rcx, QWORD PTR this$[rbp]
  0016c	48 89 41 20	 mov	 QWORD PTR [rcx+32], rax
$LN3@Getvals:

; 188  :         }
; 189  :     }

  00170	48 8d a5 10 01
	00 00		 lea	 rsp, QWORD PTR [rbp+272]
  00177	5f		 pop	 rdi
  00178	5e		 pop	 rsi
  00179	5d		 pop	 rbp
  0017a	c3		 ret	 0
??$_Getvals@_W@?$time_get@_WV?$istreambuf_iterator@_WU?$char_traits@_W@std@@@std@@@std@@IEAAX_WAEBV_Locinfo@1@@Z ENDP ; std::time_get<wchar_t,std::istreambuf_iterator<wchar_t,std::char_traits<wchar_t> > >::_Getvals<wchar_t>
_TEXT	ENDS
; Function compile flags: /Odtp /RTCsu /ZI
; File C:\Program Files (x86)\Microsoft Visual Studio\2019\Enterprise\VC\Tools\MSVC\14.27.29110\include\xloctime
;	COMDAT ??$_Getvals@_W@?$time_get@DV?$istreambuf_iterator@DU?$char_traits@D@std@@@std@@@std@@IEAAX_WAEBV_Locinfo@1@@Z
_TEXT	SEGMENT
$T1 = 200
tv93 = 264
tv85 = 264
this$ = 304
__formal$ = 312
_Lobj$ = 320
??$_Getvals@_W@?$time_get@DV?$istreambuf_iterator@DU?$char_traits@D@std@@@std@@@std@@IEAAX_WAEBV_Locinfo@1@@Z PROC ; std::time_get<char,std::istreambuf_iterator<char,std::char_traits<char> > >::_Getvals<wchar_t>, COMDAT

; 176  :     void __CLR_OR_THIS_CALL _Getvals(_Elem2, const _Locinfo& _Lobj) { // get values

$LN5:
  00000	4c 89 44 24 18	 mov	 QWORD PTR [rsp+24], r8
  00005	66 89 54 24 10	 mov	 WORD PTR [rsp+16], dx
  0000a	48 89 4c 24 08	 mov	 QWORD PTR [rsp+8], rcx
  0000f	55		 push	 rbp
  00010	56		 push	 rsi
  00011	57		 push	 rdi
  00012	48 81 ec 30 01
	00 00		 sub	 rsp, 304		; 00000130H
  00019	48 8d 6c 24 20	 lea	 rbp, QWORD PTR [rsp+32]
  0001e	48 8b fc	 mov	 rdi, rsp
  00021	b9 4c 00 00 00	 mov	 ecx, 76			; 0000004cH
  00026	b8 cc cc cc cc	 mov	 eax, -858993460		; ccccccccH
  0002b	f3 ab		 rep stosd
  0002d	48 8b 8c 24 58
	01 00 00	 mov	 rcx, QWORD PTR [rsp+344]
  00035	48 8d 0d 00 00
	00 00		 lea	 rcx, OFFSET FLAT:__FDACCCE4_xloctime
  0003c	e8 00 00 00 00	 call	 __CheckForDebuggerJustMyCode

; 177  :         _Cvt = _Lobj._Getcvt();

  00041	48 8d 95 c8 00
	00 00		 lea	 rdx, QWORD PTR $T1[rbp]
  00048	48 8b 8d 40 01
	00 00		 mov	 rcx, QWORD PTR _Lobj$[rbp]
  0004f	ff 15 00 00 00
	00		 call	 QWORD PTR __imp_?_Getcvt@_Locinfo@std@@QEBA?AU_Cvtvec@@XZ
  00055	48 8b 8d 30 01
	00 00		 mov	 rcx, QWORD PTR this$[rbp]
  0005c	48 8d 79 2c	 lea	 rdi, QWORD PTR [rcx+44]
  00060	48 8b f0	 mov	 rsi, rax
  00063	b9 2c 00 00 00	 mov	 ecx, 44			; 0000002cH
  00068	f3 a4		 rep movsb

; 178  : 
; 179  :         if (is_same_v<_Elem2, wchar_t>) {

  0006a	33 c0		 xor	 eax, eax
  0006c	83 f8 01	 cmp	 eax, 1
  0006f	74 5c		 je	 SHORT $LN2@Getvals

; 180  :             _Days = reinterpret_cast<const _Elem*>(_Maklocwcs(reinterpret_cast<const wchar_t*>(_Lobj._W_Getdays())));

  00071	48 8b 8d 40 01
	00 00		 mov	 rcx, QWORD PTR _Lobj$[rbp]
  00078	ff 15 00 00 00
	00		 call	 QWORD PTR __imp_?_W_Getdays@_Locinfo@std@@QEBAPEBGXZ
  0007e	48 8b c8	 mov	 rcx, rax
  00081	e8 00 00 00 00	 call	 ?_Maklocwcs@std@@YAPEA_WPEB_W@Z ; std::_Maklocwcs
  00086	48 8b 8d 30 01
	00 00		 mov	 rcx, QWORD PTR this$[rbp]
  0008d	48 89 41 10	 mov	 QWORD PTR [rcx+16], rax

; 181  :             _Months =

  00091	48 8b 8d 40 01
	00 00		 mov	 rcx, QWORD PTR _Lobj$[rbp]
  00098	ff 15 00 00 00
	00		 call	 QWORD PTR __imp_?_W_Getmonths@_Locinfo@std@@QEBAPEBGXZ
  0009e	48 8b c8	 mov	 rcx, rax
  000a1	e8 00 00 00 00	 call	 ?_Maklocwcs@std@@YAPEA_WPEB_W@Z ; std::_Maklocwcs
  000a6	48 8b 8d 30 01
	00 00		 mov	 rcx, QWORD PTR this$[rbp]
  000ad	48 89 41 18	 mov	 QWORD PTR [rcx+24], rax

; 182  :                 reinterpret_cast<const _Elem*>(_Maklocwcs(reinterpret_cast<const wchar_t*>(_Lobj._W_Getmonths())));
; 183  :             _Ampm = reinterpret_cast<const _Elem*>(_Maklocwcs(L":AM:am:PM:pm"));

  000b1	48 8d 0d 00 00
	00 00		 lea	 rcx, OFFSET FLAT:??_C@_1BK@MHIKGOKE@?$AA?3?$AAA?$AAM?$AA?3?$AAa?$AAm?$AA?3?$AAP?$AAM?$AA?3?$AAp?$AAm@
  000b8	e8 00 00 00 00	 call	 ?_Maklocwcs@std@@YAPEA_WPEB_W@Z ; std::_Maklocwcs
  000bd	48 8b 8d 30 01
	00 00		 mov	 rcx, QWORD PTR this$[rbp]
  000c4	48 89 41 20	 mov	 QWORD PTR [rcx+32], rax

; 184  :         } else {

  000c8	e9 a3 00 00 00	 jmp	 $LN3@Getvals
$LN2@Getvals:

; 185  :             _Days   = _Maklocstr(_Lobj._Getdays(), static_cast<_Elem*>(nullptr), _Cvt);

  000cd	48 8b 85 30 01
	00 00		 mov	 rax, QWORD PTR this$[rbp]
  000d4	48 83 c0 2c	 add	 rax, 44			; 0000002cH
  000d8	48 89 85 08 01
	00 00		 mov	 QWORD PTR tv85[rbp], rax
  000df	48 8b 8d 40 01
	00 00		 mov	 rcx, QWORD PTR _Lobj$[rbp]
  000e6	ff 15 00 00 00
	00		 call	 QWORD PTR __imp_?_Getdays@_Locinfo@std@@QEBAPEBDXZ
  000ec	48 8b 8d 08 01
	00 00		 mov	 rcx, QWORD PTR tv85[rbp]
  000f3	4c 8b c1	 mov	 r8, rcx
  000f6	33 d2		 xor	 edx, edx
  000f8	48 8b c8	 mov	 rcx, rax
  000fb	e8 00 00 00 00	 call	 ??$_Maklocstr@D@std@@YAPEADPEBDPEADAEBU_Cvtvec@@@Z ; std::_Maklocstr<char>
  00100	48 8b 8d 30 01
	00 00		 mov	 rcx, QWORD PTR this$[rbp]
  00107	48 89 41 10	 mov	 QWORD PTR [rcx+16], rax

; 186  :             _Months = _Maklocstr(_Lobj._Getmonths(), static_cast<_Elem*>(nullptr), _Cvt);

  0010b	48 8b 85 30 01
	00 00		 mov	 rax, QWORD PTR this$[rbp]
  00112	48 83 c0 2c	 add	 rax, 44			; 0000002cH
  00116	48 89 85 08 01
	00 00		 mov	 QWORD PTR tv93[rbp], rax
  0011d	48 8b 8d 40 01
	00 00		 mov	 rcx, QWORD PTR _Lobj$[rbp]
  00124	ff 15 00 00 00
	00		 call	 QWORD PTR __imp_?_Getmonths@_Locinfo@std@@QEBAPEBDXZ
  0012a	48 8b 8d 08 01
	00 00		 mov	 rcx, QWORD PTR tv93[rbp]
  00131	4c 8b c1	 mov	 r8, rcx
  00134	33 d2		 xor	 edx, edx
  00136	48 8b c8	 mov	 rcx, rax
  00139	e8 00 00 00 00	 call	 ??$_Maklocstr@D@std@@YAPEADPEBDPEADAEBU_Cvtvec@@@Z ; std::_Maklocstr<char>
  0013e	48 8b 8d 30 01
	00 00		 mov	 rcx, QWORD PTR this$[rbp]
  00145	48 89 41 18	 mov	 QWORD PTR [rcx+24], rax

; 187  :             _Ampm   = _Maklocstr(":AM:am:PM:pm", static_cast<_Elem*>(nullptr), _Cvt);

  00149	48 8b 85 30 01
	00 00		 mov	 rax, QWORD PTR this$[rbp]
  00150	48 83 c0 2c	 add	 rax, 44			; 0000002cH
  00154	4c 8b c0	 mov	 r8, rax
  00157	33 d2		 xor	 edx, edx
  00159	48 8d 0d 00 00
	00 00		 lea	 rcx, OFFSET FLAT:??_C@_0N@LPFKKEBD@?3AM?3am?3PM?3pm@
  00160	e8 00 00 00 00	 call	 ??$_Maklocstr@D@std@@YAPEADPEBDPEADAEBU_Cvtvec@@@Z ; std::_Maklocstr<char>
  00165	48 8b 8d 30 01
	00 00		 mov	 rcx, QWORD PTR this$[rbp]
  0016c	48 89 41 20	 mov	 QWORD PTR [rcx+32], rax
$LN3@Getvals:

; 188  :         }
; 189  :     }

  00170	48 8d a5 10 01
	00 00		 lea	 rsp, QWORD PTR [rbp+272]
  00177	5f		 pop	 rdi
  00178	5e		 pop	 rsi
  00179	5d		 pop	 rbp
  0017a	c3		 ret	 0
??$_Getvals@_W@?$time_get@DV?$istreambuf_iterator@DU?$char_traits@D@std@@@std@@@std@@IEAAX_WAEBV_Locinfo@1@@Z ENDP ; std::time_get<char,std::istreambuf_iterator<char,std::char_traits<char> > >::_Getvals<wchar_t>
_TEXT	ENDS
; Function compile flags: /Odtp /RTCsu /ZI
; File C:\Program Files (x86)\Microsoft Visual Studio\2019\Enterprise\VC\Tools\MSVC\14.27.29110\include\xlocale
;	COMDAT ??$_Maklocstr@D@std@@YAPEADPEBDPEADAEBU_Cvtvec@@@Z
_TEXT	SEGMENT
_Count$ = 8
_Ptrdest$ = 40
_Ptrnext$1 = 72
_Ptr$ = 320
__formal$ = 328
__formal$ = 336
??$_Maklocstr@D@std@@YAPEADPEBDPEADAEBU_Cvtvec@@@Z PROC	; std::_Maklocstr<char>, COMDAT

; 563  : _Elem* __CRTDECL _Maklocstr(const char* _Ptr, _Elem*, const _Locinfo::_Cvtvec&) {

$LN7:
  00000	4c 89 44 24 18	 mov	 QWORD PTR [rsp+24], r8
  00005	48 89 54 24 10	 mov	 QWORD PTR [rsp+16], rdx
  0000a	48 89 4c 24 08	 mov	 QWORD PTR [rsp+8], rcx
  0000f	55		 push	 rbp
  00010	57		 push	 rdi
  00011	48 81 ec 58 01
	00 00		 sub	 rsp, 344		; 00000158H
  00018	48 8d 6c 24 30	 lea	 rbp, QWORD PTR [rsp+48]
  0001d	48 8b fc	 mov	 rdi, rsp
  00020	b9 56 00 00 00	 mov	 ecx, 86			; 00000056H
  00025	b8 cc cc cc cc	 mov	 eax, -858993460		; ccccccccH
  0002a	f3 ab		 rep stosd
  0002c	48 8b 8c 24 78
	01 00 00	 mov	 rcx, QWORD PTR [rsp+376]
  00034	48 8d 0d 00 00
	00 00		 lea	 rcx, OFFSET FLAT:__A7748393_xlocale
  0003b	e8 00 00 00 00	 call	 __CheckForDebuggerJustMyCode

; 564  :     // convert C string to _Elem sequence using _Cvtvec
; 565  :     size_t _Count = _CSTD strlen(_Ptr) + 1;

  00040	48 8b 8d 40 01
	00 00		 mov	 rcx, QWORD PTR _Ptr$[rbp]
  00047	e8 00 00 00 00	 call	 strlen
  0004c	48 ff c0	 inc	 rax
  0004f	48 89 45 08	 mov	 QWORD PTR _Count$[rbp], rax

; 566  : 
; 567  :     _Elem* _Ptrdest = static_cast<_Elem*>(_calloc_dbg(_Count, sizeof(_Elem), _CRT_BLOCK, __FILE__, __LINE__));

  00053	c7 44 24 20 37
	02 00 00	 mov	 DWORD PTR [rsp+32], 567	; 00000237H
  0005b	4c 8d 0d 00 00
	00 00		 lea	 r9, OFFSET FLAT:??_C@_0GJ@OPFKIEFE@C?3?2Program?5Files?5?$CIx86?$CJ?2Microsof@
  00062	41 b8 02 00 00
	00		 mov	 r8d, 2
  00068	ba 01 00 00 00	 mov	 edx, 1
  0006d	48 8b 4d 08	 mov	 rcx, QWORD PTR _Count$[rbp]
  00071	ff 15 00 00 00
	00		 call	 QWORD PTR __imp__calloc_dbg
  00077	48 89 45 28	 mov	 QWORD PTR _Ptrdest$[rbp], rax

; 568  : 
; 569  :     if (!_Ptrdest) {

  0007b	48 83 7d 28 00	 cmp	 QWORD PTR _Ptrdest$[rbp], 0
  00080	75 05		 jne	 SHORT $LN5@Maklocstr

; 570  :         _Xbad_alloc();

  00082	e8 00 00 00 00	 call	 ?_Xbad_alloc@std@@YAXXZ	; std::_Xbad_alloc
$LN5@Maklocstr:

; 571  :     }
; 572  : 
; 573  :     for (_Elem* _Ptrnext = _Ptrdest; 0 < _Count; --_Count, ++_Ptrnext, ++_Ptr) {

  00087	48 8b 45 28	 mov	 rax, QWORD PTR _Ptrdest$[rbp]
  0008b	48 89 45 48	 mov	 QWORD PTR _Ptrnext$1[rbp], rax
  0008f	eb 27		 jmp	 SHORT $LN4@Maklocstr
$LN2@Maklocstr:
  00091	48 8b 45 08	 mov	 rax, QWORD PTR _Count$[rbp]
  00095	48 ff c8	 dec	 rax
  00098	48 89 45 08	 mov	 QWORD PTR _Count$[rbp], rax
  0009c	48 8b 45 48	 mov	 rax, QWORD PTR _Ptrnext$1[rbp]
  000a0	48 ff c0	 inc	 rax
  000a3	48 89 45 48	 mov	 QWORD PTR _Ptrnext$1[rbp], rax
  000a7	48 8b 85 40 01
	00 00		 mov	 rax, QWORD PTR _Ptr$[rbp]
  000ae	48 ff c0	 inc	 rax
  000b1	48 89 85 40 01
	00 00		 mov	 QWORD PTR _Ptr$[rbp], rax
$LN4@Maklocstr:
  000b8	48 83 7d 08 00	 cmp	 QWORD PTR _Count$[rbp], 0
  000bd	76 12		 jbe	 SHORT $LN3@Maklocstr

; 574  :         *_Ptrnext = static_cast<_Elem>(static_cast<unsigned char>(*_Ptr));

  000bf	48 8b 45 48	 mov	 rax, QWORD PTR _Ptrnext$1[rbp]
  000c3	48 8b 8d 40 01
	00 00		 mov	 rcx, QWORD PTR _Ptr$[rbp]
  000ca	0f b6 09	 movzx	 ecx, BYTE PTR [rcx]
  000cd	88 08		 mov	 BYTE PTR [rax], cl

; 575  :     }

  000cf	eb c0		 jmp	 SHORT $LN2@Maklocstr
$LN3@Maklocstr:

; 576  : 
; 577  :     return _Ptrdest;

  000d1	48 8b 45 28	 mov	 rax, QWORD PTR _Ptrdest$[rbp]
$LN6@Maklocstr:

; 578  : }

  000d5	48 8d a5 28 01
	00 00		 lea	 rsp, QWORD PTR [rbp+296]
  000dc	5f		 pop	 rdi
  000dd	5d		 pop	 rbp
  000de	c3		 ret	 0
??$_Maklocstr@D@std@@YAPEADPEBDPEADAEBU_Cvtvec@@@Z ENDP	; std::_Maklocstr<char>
_TEXT	ENDS
; Function compile flags: /Odtp /RTCsu /ZI
; File C:\Program Files (x86)\Microsoft Visual Studio\2019\Enterprise\VC\Tools\MSVC\14.27.29110\include\xlocnum
;	COMDAT ?_Maklocwcs@std@@YAPEA_WPEB_W@Z
_TEXT	SEGMENT
_Count$ = 8
_Ptrdest$ = 40
_Ptr$ = 288
?_Maklocwcs@std@@YAPEA_WPEB_W@Z PROC			; std::_Maklocwcs, COMDAT

; 90   : inline wchar_t* _Maklocwcs(const wchar_t* _Ptr) { // copy NTWCS to allocated storage

$LN4:
  00000	48 89 4c 24 08	 mov	 QWORD PTR [rsp+8], rcx
  00005	55		 push	 rbp
  00006	57		 push	 rdi
  00007	48 81 ec 38 01
	00 00		 sub	 rsp, 312		; 00000138H
  0000e	48 8d 6c 24 30	 lea	 rbp, QWORD PTR [rsp+48]
  00013	48 8b fc	 mov	 rdi, rsp
  00016	b9 4e 00 00 00	 mov	 ecx, 78			; 0000004eH
  0001b	b8 cc cc cc cc	 mov	 eax, -858993460		; ccccccccH
  00020	f3 ab		 rep stosd
  00022	48 8b 8c 24 58
	01 00 00	 mov	 rcx, QWORD PTR [rsp+344]
  0002a	48 8d 0d 00 00
	00 00		 lea	 rcx, OFFSET FLAT:__39F3E584_xlocnum
  00031	e8 00 00 00 00	 call	 __CheckForDebuggerJustMyCode

; 91   :     const size_t _Count = _CSTD wcslen(_Ptr) + 1;

  00036	48 8b 8d 20 01
	00 00		 mov	 rcx, QWORD PTR _Ptr$[rbp]
  0003d	ff 15 00 00 00
	00		 call	 QWORD PTR __imp_wcslen
  00043	48 ff c0	 inc	 rax
  00046	48 89 45 08	 mov	 QWORD PTR _Count$[rbp], rax

; 92   : 
; 93   :     wchar_t* _Ptrdest = static_cast<wchar_t*>(_calloc_dbg(_Count, sizeof(wchar_t), _CRT_BLOCK, __FILE__, __LINE__));

  0004a	8b 05 00 00 00
	00		 mov	 eax, DWORD PTR ?__LINE__Var@?0??_Maklocwcs@std@@YAPEA_WPEB_W@Z@4JA
  00050	83 c0 03	 add	 eax, 3
  00053	89 44 24 20	 mov	 DWORD PTR [rsp+32], eax
  00057	4c 8d 0d 00 00
	00 00		 lea	 r9, OFFSET FLAT:??_C@_0GJ@GMBHIGPF@C?3?2Program?5Files?5?$CIx86?$CJ?2Microsof@
  0005e	41 b8 02 00 00
	00		 mov	 r8d, 2
  00064	ba 02 00 00 00	 mov	 edx, 2
  00069	48 8b 4d 08	 mov	 rcx, QWORD PTR _Count$[rbp]
  0006d	ff 15 00 00 00
	00		 call	 QWORD PTR __imp__calloc_dbg
  00073	48 89 45 28	 mov	 QWORD PTR _Ptrdest$[rbp], rax

; 94   : 
; 95   :     if (!_Ptrdest) {

  00077	48 83 7d 28 00	 cmp	 QWORD PTR _Ptrdest$[rbp], 0
  0007c	75 05		 jne	 SHORT $LN2@Maklocwcs

; 96   :         _Xbad_alloc();

  0007e	e8 00 00 00 00	 call	 ?_Xbad_alloc@std@@YAXXZ	; std::_Xbad_alloc
$LN2@Maklocwcs:

; 97   :     }
; 98   : 
; 99   :     _CSTD wmemcpy(_Ptrdest, _Ptr, _Count);

  00083	4c 8b 45 08	 mov	 r8, QWORD PTR _Count$[rbp]
  00087	48 8b 95 20 01
	00 00		 mov	 rdx, QWORD PTR _Ptr$[rbp]
  0008e	48 8b 4d 28	 mov	 rcx, QWORD PTR _Ptrdest$[rbp]
  00092	e8 00 00 00 00	 call	 wmemcpy

; 100  :     return _Ptrdest;

  00097	48 8b 45 28	 mov	 rax, QWORD PTR _Ptrdest$[rbp]
$LN3@Maklocwcs:

; 101  : }

  0009b	48 8d a5 08 01
	00 00		 lea	 rsp, QWORD PTR [rbp+264]
  000a2	5f		 pop	 rdi
  000a3	5d		 pop	 rbp
  000a4	c3		 ret	 0
?_Maklocwcs@std@@YAPEA_WPEB_W@Z ENDP			; std::_Maklocwcs
_TEXT	ENDS
; Function compile flags: /Odtp /RTCsu /ZI
; File C:\Program Files (x86)\Microsoft Visual Studio\2019\Enterprise\VC\Tools\MSVC\14.27.29110\include\xlocale
;	COMDAT ??$_Maklocstr@_W@std@@YAPEA_WPEBDPEA_WAEBU_Cvtvec@@@Z
_TEXT	SEGMENT
_Count$ = 8
_Count1$ = 40
_Wchars$ = 72
_Ptr1$ = 104
_Bytes$ = 132
_Wc$ = 164
_Mbst1$ = 200
_Ptrdest$ = 232
_Ptrnext$ = 264
_Mbst2$ = 296
__$ArrayPad$ = 504
_Ptr$ = 544
__formal$ = 552
_Cvt$ = 560
??$_Maklocstr@_W@std@@YAPEA_WPEBDPEA_WAEBU_Cvtvec@@@Z PROC ; std::_Maklocstr<wchar_t>, COMDAT

; 581  : inline wchar_t* __CRTDECL _Maklocstr(const char* _Ptr, wchar_t*, const _Locinfo::_Cvtvec& _Cvt) {

$LN12:
  00000	4c 89 44 24 18	 mov	 QWORD PTR [rsp+24], r8
  00005	48 89 54 24 10	 mov	 QWORD PTR [rsp+16], rdx
  0000a	48 89 4c 24 08	 mov	 QWORD PTR [rsp+8], rcx
  0000f	55		 push	 rbp
  00010	57		 push	 rdi
  00011	48 81 ec 38 02
	00 00		 sub	 rsp, 568		; 00000238H
  00018	48 8d 6c 24 30	 lea	 rbp, QWORD PTR [rsp+48]
  0001d	48 8b fc	 mov	 rdi, rsp
  00020	b9 8e 00 00 00	 mov	 ecx, 142		; 0000008eH
  00025	b8 cc cc cc cc	 mov	 eax, -858993460		; ccccccccH
  0002a	f3 ab		 rep stosd
  0002c	48 8b 8c 24 58
	02 00 00	 mov	 rcx, QWORD PTR [rsp+600]
  00034	48 8b 05 00 00
	00 00		 mov	 rax, QWORD PTR __security_cookie
  0003b	48 33 c5	 xor	 rax, rbp
  0003e	48 89 85 f8 01
	00 00		 mov	 QWORD PTR __$ArrayPad$[rbp], rax
  00045	48 8d 0d 00 00
	00 00		 lea	 rcx, OFFSET FLAT:__A7748393_xlocale
  0004c	e8 00 00 00 00	 call	 __CheckForDebuggerJustMyCode

; 582  :     // convert C string to wchar_t sequence using _Cvtvec
; 583  :     size_t _Count;
; 584  :     size_t _Count1;
; 585  :     size_t _Wchars;
; 586  :     const char* _Ptr1;
; 587  :     int _Bytes;
; 588  :     wchar_t _Wc;
; 589  :     mbstate_t _Mbst1 = {};

  00051	48 8d 85 c8 00
	00 00		 lea	 rax, QWORD PTR _Mbst1$[rbp]
  00058	48 8b f8	 mov	 rdi, rax
  0005b	33 c0		 xor	 eax, eax
  0005d	b9 08 00 00 00	 mov	 ecx, 8
  00062	f3 aa		 rep stosb

; 590  : 
; 591  :     _Count1 = _CSTD strlen(_Ptr) + 1;

  00064	48 8b 8d 20 02
	00 00		 mov	 rcx, QWORD PTR _Ptr$[rbp]
  0006b	e8 00 00 00 00	 call	 strlen
  00070	48 ff c0	 inc	 rax
  00073	48 89 45 28	 mov	 QWORD PTR _Count1$[rbp], rax

; 592  :     for (_Count = _Count1, _Wchars = 0, _Ptr1 = _Ptr; 0 < _Count; _Count -= _Bytes, _Ptr1 += _Bytes, ++_Wchars) {

  00077	48 8b 45 28	 mov	 rax, QWORD PTR _Count1$[rbp]
  0007b	48 89 45 08	 mov	 QWORD PTR _Count$[rbp], rax
  0007f	48 c7 45 48 00
	00 00 00	 mov	 QWORD PTR _Wchars$[rbp], 0
  00087	48 8b 85 20 02
	00 00		 mov	 rax, QWORD PTR _Ptr$[rbp]
  0008e	48 89 45 68	 mov	 QWORD PTR _Ptr1$[rbp], rax
  00092	eb 35		 jmp	 SHORT $LN4@Maklocstr
$LN2@Maklocstr:
  00094	48 63 85 84 00
	00 00		 movsxd	 rax, DWORD PTR _Bytes$[rbp]
  0009b	48 8b 4d 08	 mov	 rcx, QWORD PTR _Count$[rbp]
  0009f	48 2b c8	 sub	 rcx, rax
  000a2	48 8b c1	 mov	 rax, rcx
  000a5	48 89 45 08	 mov	 QWORD PTR _Count$[rbp], rax
  000a9	48 63 85 84 00
	00 00		 movsxd	 rax, DWORD PTR _Bytes$[rbp]
  000b0	48 8b 4d 68	 mov	 rcx, QWORD PTR _Ptr1$[rbp]
  000b4	48 03 c8	 add	 rcx, rax
  000b7	48 8b c1	 mov	 rax, rcx
  000ba	48 89 45 68	 mov	 QWORD PTR _Ptr1$[rbp], rax
  000be	48 8b 45 48	 mov	 rax, QWORD PTR _Wchars$[rbp]
  000c2	48 ff c0	 inc	 rax
  000c5	48 89 45 48	 mov	 QWORD PTR _Wchars$[rbp], rax
$LN4@Maklocstr:
  000c9	48 83 7d 08 00	 cmp	 QWORD PTR _Count$[rbp], 0
  000ce	76 3a		 jbe	 SHORT $LN3@Maklocstr

; 593  :         if ((_Bytes = _Mbrtowc(&_Wc, _Ptr1, _Count, &_Mbst1, &_Cvt)) <= 0) {

  000d0	48 8b 85 30 02
	00 00		 mov	 rax, QWORD PTR _Cvt$[rbp]
  000d7	48 89 44 24 20	 mov	 QWORD PTR [rsp+32], rax
  000dc	4c 8d 8d c8 00
	00 00		 lea	 r9, QWORD PTR _Mbst1$[rbp]
  000e3	4c 8b 45 08	 mov	 r8, QWORD PTR _Count$[rbp]
  000e7	48 8b 55 68	 mov	 rdx, QWORD PTR _Ptr1$[rbp]
  000eb	48 8d 8d a4 00
	00 00		 lea	 rcx, QWORD PTR _Wc$[rbp]
  000f2	e8 00 00 00 00	 call	 _Mbrtowc
  000f7	89 85 84 00 00
	00		 mov	 DWORD PTR _Bytes$[rbp], eax
  000fd	83 bd 84 00 00
	00 00		 cmp	 DWORD PTR _Bytes$[rbp], 0
  00104	7f 02		 jg	 SHORT $LN8@Maklocstr

; 594  :             break;

  00106	eb 02		 jmp	 SHORT $LN3@Maklocstr
$LN8@Maklocstr:

; 595  :         }
; 596  :     }

  00108	eb 8a		 jmp	 SHORT $LN2@Maklocstr
$LN3@Maklocstr:

; 597  : 
; 598  :     ++_Wchars; // count terminating nul

  0010a	48 8b 45 48	 mov	 rax, QWORD PTR _Wchars$[rbp]
  0010e	48 ff c0	 inc	 rax
  00111	48 89 45 48	 mov	 QWORD PTR _Wchars$[rbp], rax

; 599  : 
; 600  :     wchar_t* _Ptrdest = static_cast<wchar_t*>(_calloc_dbg(_Wchars, sizeof(wchar_t), _CRT_BLOCK, __FILE__, __LINE__));

  00115	c7 44 24 20 58
	02 00 00	 mov	 DWORD PTR [rsp+32], 600	; 00000258H
  0011d	4c 8d 0d 00 00
	00 00		 lea	 r9, OFFSET FLAT:??_C@_0GJ@OPFKIEFE@C?3?2Program?5Files?5?$CIx86?$CJ?2Microsof@
  00124	41 b8 02 00 00
	00		 mov	 r8d, 2
  0012a	ba 02 00 00 00	 mov	 edx, 2
  0012f	48 8b 4d 48	 mov	 rcx, QWORD PTR _Wchars$[rbp]
  00133	ff 15 00 00 00
	00		 call	 QWORD PTR __imp__calloc_dbg
  00139	48 89 85 e8 00
	00 00		 mov	 QWORD PTR _Ptrdest$[rbp], rax

; 601  : 
; 602  :     if (!_Ptrdest) {

  00140	48 83 bd e8 00
	00 00 00	 cmp	 QWORD PTR _Ptrdest$[rbp], 0
  00148	75 05		 jne	 SHORT $LN9@Maklocstr

; 603  :         _Xbad_alloc();

  0014a	e8 00 00 00 00	 call	 ?_Xbad_alloc@std@@YAXXZ	; std::_Xbad_alloc
$LN9@Maklocstr:

; 604  :     }
; 605  : 
; 606  :     wchar_t* _Ptrnext = _Ptrdest;

  0014f	48 8b 85 e8 00
	00 00		 mov	 rax, QWORD PTR _Ptrdest$[rbp]
  00156	48 89 85 08 01
	00 00		 mov	 QWORD PTR _Ptrnext$[rbp], rax

; 607  :     mbstate_t _Mbst2  = {};

  0015d	48 8d 85 28 01
	00 00		 lea	 rax, QWORD PTR _Mbst2$[rbp]
  00164	48 8b f8	 mov	 rdi, rax
  00167	33 c0		 xor	 eax, eax
  00169	b9 08 00 00 00	 mov	 ecx, 8
  0016e	f3 aa		 rep stosb

; 608  : 
; 609  :     for (; 0 < _Wchars; _Count -= _Bytes, _Ptr += _Bytes, --_Wchars, ++_Ptrnext) {

  00170	eb 4d		 jmp	 SHORT $LN7@Maklocstr
$LN5@Maklocstr:
  00172	48 63 85 84 00
	00 00		 movsxd	 rax, DWORD PTR _Bytes$[rbp]
  00179	48 8b 4d 08	 mov	 rcx, QWORD PTR _Count$[rbp]
  0017d	48 2b c8	 sub	 rcx, rax
  00180	48 8b c1	 mov	 rax, rcx
  00183	48 89 45 08	 mov	 QWORD PTR _Count$[rbp], rax
  00187	48 63 85 84 00
	00 00		 movsxd	 rax, DWORD PTR _Bytes$[rbp]
  0018e	48 8b 8d 20 02
	00 00		 mov	 rcx, QWORD PTR _Ptr$[rbp]
  00195	48 03 c8	 add	 rcx, rax
  00198	48 8b c1	 mov	 rax, rcx
  0019b	48 89 85 20 02
	00 00		 mov	 QWORD PTR _Ptr$[rbp], rax
  001a2	48 8b 45 48	 mov	 rax, QWORD PTR _Wchars$[rbp]
  001a6	48 ff c8	 dec	 rax
  001a9	48 89 45 48	 mov	 QWORD PTR _Wchars$[rbp], rax
  001ad	48 8b 85 08 01
	00 00		 mov	 rax, QWORD PTR _Ptrnext$[rbp]
  001b4	48 83 c0 02	 add	 rax, 2
  001b8	48 89 85 08 01
	00 00		 mov	 QWORD PTR _Ptrnext$[rbp], rax
$LN7@Maklocstr:
  001bf	48 83 7d 48 00	 cmp	 QWORD PTR _Wchars$[rbp], 0
  001c4	76 40		 jbe	 SHORT $LN6@Maklocstr

; 610  :         if ((_Bytes = _Mbrtowc(_Ptrnext, _Ptr, _Count1, &_Mbst2, &_Cvt)) <= 0) {

  001c6	48 8b 85 30 02
	00 00		 mov	 rax, QWORD PTR _Cvt$[rbp]
  001cd	48 89 44 24 20	 mov	 QWORD PTR [rsp+32], rax
  001d2	4c 8d 8d 28 01
	00 00		 lea	 r9, QWORD PTR _Mbst2$[rbp]
  001d9	4c 8b 45 28	 mov	 r8, QWORD PTR _Count1$[rbp]
  001dd	48 8b 95 20 02
	00 00		 mov	 rdx, QWORD PTR _Ptr$[rbp]
  001e4	48 8b 8d 08 01
	00 00		 mov	 rcx, QWORD PTR _Ptrnext$[rbp]
  001eb	e8 00 00 00 00	 call	 _Mbrtowc
  001f0	89 85 84 00 00
	00		 mov	 DWORD PTR _Bytes$[rbp], eax
  001f6	83 bd 84 00 00
	00 00		 cmp	 DWORD PTR _Bytes$[rbp], 0
  001fd	7f 02		 jg	 SHORT $LN10@Maklocstr

; 611  :             break;

  001ff	eb 05		 jmp	 SHORT $LN6@Maklocstr
$LN10@Maklocstr:

; 612  :         }
; 613  :     }

  00201	e9 6c ff ff ff	 jmp	 $LN5@Maklocstr
$LN6@Maklocstr:

; 614  : 
; 615  :     *_Ptrnext = L'\0';

  00206	33 c0		 xor	 eax, eax
  00208	48 8b 8d 08 01
	00 00		 mov	 rcx, QWORD PTR _Ptrnext$[rbp]
  0020f	66 89 01	 mov	 WORD PTR [rcx], ax

; 616  : 
; 617  :     return _Ptrdest;

  00212	48 8b 85 e8 00
	00 00		 mov	 rax, QWORD PTR _Ptrdest$[rbp]
$LN11@Maklocstr:

; 618  : }

  00219	48 8b f8	 mov	 rdi, rax
  0021c	48 8d 4d d0	 lea	 rcx, QWORD PTR [rbp-48]
  00220	48 8d 15 00 00
	00 00		 lea	 rdx, OFFSET FLAT:??$_Maklocstr@_W@std@@YAPEA_WPEBDPEA_WAEBU_Cvtvec@@@Z$rtcFrameData
  00227	e8 00 00 00 00	 call	 _RTC_CheckStackVars
  0022c	48 8b c7	 mov	 rax, rdi
  0022f	48 8b 8d f8 01
	00 00		 mov	 rcx, QWORD PTR __$ArrayPad$[rbp]
  00236	48 33 cd	 xor	 rcx, rbp
  00239	e8 00 00 00 00	 call	 __security_check_cookie
  0023e	48 8d a5 08 02
	00 00		 lea	 rsp, QWORD PTR [rbp+520]
  00245	5f		 pop	 rdi
  00246	5d		 pop	 rbp
  00247	c3		 ret	 0
??$_Maklocstr@_W@std@@YAPEA_WPEBDPEA_WAEBU_Cvtvec@@@Z ENDP ; std::_Maklocstr<wchar_t>
_TEXT	ENDS
; Function compile flags: /Odtp /RTCsu /ZI
; File C:\Program Files (x86)\Microsoft Visual Studio\2019\Enterprise\VC\Tools\MSVC\14.27.29110\include\xstring
;	COMDAT ?eof@?$_Narrow_char_traits@DH@std@@SAHXZ
_TEXT	SEGMENT
?eof@?$_Narrow_char_traits@DH@std@@SAHXZ PROC		; std::_Narrow_char_traits<char,int>::eof, COMDAT

; 400  :     _NODISCARD static constexpr int_type eof() noexcept {

$LN3:
  00000	40 55		 push	 rbp
  00002	57		 push	 rdi
  00003	48 81 ec e8 00
	00 00		 sub	 rsp, 232		; 000000e8H
  0000a	48 8d 6c 24 20	 lea	 rbp, QWORD PTR [rsp+32]
  0000f	48 8b fc	 mov	 rdi, rsp
  00012	b9 3a 00 00 00	 mov	 ecx, 58			; 0000003aH
  00017	b8 cc cc cc cc	 mov	 eax, -858993460		; ccccccccH
  0001c	f3 ab		 rep stosd
  0001e	48 8d 0d 00 00
	00 00		 lea	 rcx, OFFSET FLAT:__784AF7A2_xstring
  00025	e8 00 00 00 00	 call	 __CheckForDebuggerJustMyCode

; 401  :         return static_cast<int_type>(EOF);

  0002a	b8 ff ff ff ff	 mov	 eax, -1

; 402  :     }

  0002f	48 8d a5 c8 00
	00 00		 lea	 rsp, QWORD PTR [rbp+200]
  00036	5f		 pop	 rdi
  00037	5d		 pop	 rbp
  00038	c3		 ret	 0
?eof@?$_Narrow_char_traits@DH@std@@SAHXZ ENDP		; std::_Narrow_char_traits<char,int>::eof
_TEXT	ENDS
; Function compile flags: /Odtp /RTCsu /ZI
; File C:\Program Files (x86)\Microsoft Visual Studio\2019\Enterprise\VC\Tools\MSVC\14.27.29110\include\xstring
;	COMDAT ?eq_int_type@?$_Narrow_char_traits@DH@std@@SA_NAEBH0@Z
_TEXT	SEGMENT
tv65 = 192
_Left$ = 240
_Right$ = 248
?eq_int_type@?$_Narrow_char_traits@DH@std@@SA_NAEBH0@Z PROC ; std::_Narrow_char_traits<char,int>::eq_int_type, COMDAT

; 392  :     _NODISCARD static constexpr bool eq_int_type(const int_type& _Left, const int_type& _Right) noexcept {

$LN5:
  00000	48 89 54 24 10	 mov	 QWORD PTR [rsp+16], rdx
  00005	48 89 4c 24 08	 mov	 QWORD PTR [rsp+8], rcx
  0000a	55		 push	 rbp
  0000b	57		 push	 rdi
  0000c	48 81 ec f8 00
	00 00		 sub	 rsp, 248		; 000000f8H
  00013	48 8d 6c 24 20	 lea	 rbp, QWORD PTR [rsp+32]
  00018	48 8b fc	 mov	 rdi, rsp
  0001b	b9 3e 00 00 00	 mov	 ecx, 62			; 0000003eH
  00020	b8 cc cc cc cc	 mov	 eax, -858993460		; ccccccccH
  00025	f3 ab		 rep stosd
  00027	48 8b 8c 24 18
	01 00 00	 mov	 rcx, QWORD PTR [rsp+280]
  0002f	48 8d 0d 00 00
	00 00		 lea	 rcx, OFFSET FLAT:__784AF7A2_xstring
  00036	e8 00 00 00 00	 call	 __CheckForDebuggerJustMyCode

; 393  :         return _Left == _Right;

  0003b	48 8b 85 f0 00
	00 00		 mov	 rax, QWORD PTR _Left$[rbp]
  00042	48 8b 8d f8 00
	00 00		 mov	 rcx, QWORD PTR _Right$[rbp]
  00049	8b 09		 mov	 ecx, DWORD PTR [rcx]
  0004b	39 08		 cmp	 DWORD PTR [rax], ecx
  0004d	75 0c		 jne	 SHORT $LN3@eq_int_typ
  0004f	c7 85 c0 00 00
	00 01 00 00 00	 mov	 DWORD PTR tv65[rbp], 1
  00059	eb 0a		 jmp	 SHORT $LN4@eq_int_typ
$LN3@eq_int_typ:
  0005b	c7 85 c0 00 00
	00 00 00 00 00	 mov	 DWORD PTR tv65[rbp], 0
$LN4@eq_int_typ:
  00065	0f b6 85 c0 00
	00 00		 movzx	 eax, BYTE PTR tv65[rbp]

; 394  :     }

  0006c	48 8d a5 d8 00
	00 00		 lea	 rsp, QWORD PTR [rbp+216]
  00073	5f		 pop	 rdi
  00074	5d		 pop	 rbp
  00075	c3		 ret	 0
?eq_int_type@?$_Narrow_char_traits@DH@std@@SA_NAEBH0@Z ENDP ; std::_Narrow_char_traits<char,int>::eq_int_type
_TEXT	ENDS
; Function compile flags: /Odtp /RTCsu /ZI
; File C:\Program Files (x86)\Microsoft Visual Studio\2019\Enterprise\VC\Tools\MSVC\14.27.29110\include\xstring
;	COMDAT ?length@?$_Narrow_char_traits@DH@std@@SA_KQEBD@Z
_TEXT	SEGMENT
_First$ = 224
?length@?$_Narrow_char_traits@DH@std@@SA_KQEBD@Z PROC	; std::_Narrow_char_traits<char,int>::length, COMDAT

; 305  :     _NODISCARD static _CONSTEXPR17 size_t length(_In_z_ const _Elem* const _First) noexcept /* strengthened */ {

$LN3:
  00000	48 89 4c 24 08	 mov	 QWORD PTR [rsp+8], rcx
  00005	55		 push	 rbp
  00006	57		 push	 rdi
  00007	48 81 ec e8 00
	00 00		 sub	 rsp, 232		; 000000e8H
  0000e	48 8d 6c 24 20	 lea	 rbp, QWORD PTR [rsp+32]
  00013	48 8b fc	 mov	 rdi, rsp
  00016	b9 3a 00 00 00	 mov	 ecx, 58			; 0000003aH
  0001b	b8 cc cc cc cc	 mov	 eax, -858993460		; ccccccccH
  00020	f3 ab		 rep stosd
  00022	48 8b 8c 24 08
	01 00 00	 mov	 rcx, QWORD PTR [rsp+264]
  0002a	48 8d 0d 00 00
	00 00		 lea	 rcx, OFFSET FLAT:__784AF7A2_xstring
  00031	e8 00 00 00 00	 call	 __CheckForDebuggerJustMyCode

; 306  :         // find length of null-terminated string
; 307  : #if _HAS_CXX17
; 308  : #ifdef __cpp_char8_t
; 309  :         if constexpr (is_same_v<_Elem, char8_t>) {
; 310  : #if _HAS_U8_INTRINSICS
; 311  :             return __builtin_u8strlen(_First);
; 312  : #else // ^^^ use u8 intrinsics / no u8 intrinsics vvv
; 313  :             return _Char_traits<_Elem, _Int_type>::length(_First);
; 314  : #endif // _HAS_U8_INTRINSICS
; 315  :         } else
; 316  : #endif // __cpp_char8_t
; 317  :         {
; 318  :             return __builtin_strlen(_First);
; 319  :         }
; 320  : #else // _HAS_CXX17
; 321  :         return _CSTD strlen(reinterpret_cast<const char*>(_First));

  00036	48 8b 8d e0 00
	00 00		 mov	 rcx, QWORD PTR _First$[rbp]
  0003d	e8 00 00 00 00	 call	 strlen
  00042	90		 npad	 1

; 322  : #endif // _HAS_CXX17
; 323  :     }

  00043	48 8d a5 c8 00
	00 00		 lea	 rsp, QWORD PTR [rbp+200]
  0004a	5f		 pop	 rdi
  0004b	5d		 pop	 rbp
  0004c	c3		 ret	 0
?length@?$_Narrow_char_traits@DH@std@@SA_KQEBD@Z ENDP	; std::_Narrow_char_traits<char,int>::length
_TEXT	ENDS
; Function compile flags: /Odtp /RTCsu /ZI
; File C:\Program Files (x86)\Windows Kits\10\Include\10.0.18362.0\ucrt\wchar.h
;	COMDAT wmemcpy
_TEXT	SEGMENT
_S1$ = 224
_S2$ = 232
_N$ = 240
wmemcpy	PROC						; COMDAT

; 230  :     {

$LN4:
  00000	4c 89 44 24 18	 mov	 QWORD PTR [rsp+24], r8
  00005	48 89 54 24 10	 mov	 QWORD PTR [rsp+16], rdx
  0000a	48 89 4c 24 08	 mov	 QWORD PTR [rsp+8], rcx
  0000f	55		 push	 rbp
  00010	57		 push	 rdi
  00011	48 81 ec e8 00
	00 00		 sub	 rsp, 232		; 000000e8H
  00018	48 8d 6c 24 20	 lea	 rbp, QWORD PTR [rsp+32]
  0001d	48 8b fc	 mov	 rdi, rsp
  00020	b9 3a 00 00 00	 mov	 ecx, 58			; 0000003aH
  00025	b8 cc cc cc cc	 mov	 eax, -858993460		; ccccccccH
  0002a	f3 ab		 rep stosd
  0002c	48 8b 8c 24 08
	01 00 00	 mov	 rcx, QWORD PTR [rsp+264]
  00034	48 8d 0d 00 00
	00 00		 lea	 rcx, OFFSET FLAT:__534C724A_wchar@h
  0003b	e8 00 00 00 00	 call	 __CheckForDebuggerJustMyCode

; 231  :         #pragma warning(push)
; 232  :         #pragma warning(disable : 4995 4996 6386)
; 233  :         return (wchar_t*)memcpy(_S1, _S2, _N*sizeof(wchar_t));

  00040	48 8b 85 f0 00
	00 00		 mov	 rax, QWORD PTR _N$[rbp]
  00047	48 d1 e0	 shl	 rax, 1
  0004a	4c 8b c0	 mov	 r8, rax
  0004d	48 8b 95 e8 00
	00 00		 mov	 rdx, QWORD PTR _S2$[rbp]
  00054	48 8b 8d e0 00
	00 00		 mov	 rcx, QWORD PTR _S1$[rbp]
  0005b	e8 00 00 00 00	 call	 memcpy

; 234  :         #pragma warning(pop)
; 235  :     }

  00060	48 8d a5 c8 00
	00 00		 lea	 rsp, QWORD PTR [rbp+200]
  00067	5f		 pop	 rdi
  00068	5d		 pop	 rbp
  00069	c3		 ret	 0
wmemcpy	ENDP
_TEXT	ENDS
; Function compile flags: /Odtp /RTCsu /ZI
; File C:\Users\Skvortsoff\OneDrive\\GitHub\course_LP\course_LP\DP.cpp
;	COMDAT ?__empty_global_delete@@YAXPEAX_K@Z
_TEXT	SEGMENT
__formal$ = 224
__formal$ = 232
?__empty_global_delete@@YAXPEAX_K@Z PROC		; __empty_global_delete, COMDAT

$LN4:
  00000	48 89 54 24 10	 mov	 QWORD PTR [rsp+16], rdx
  00005	48 89 4c 24 08	 mov	 QWORD PTR [rsp+8], rcx
  0000a	55		 push	 rbp
  0000b	57		 push	 rdi
  0000c	48 81 ec e8 00
	00 00		 sub	 rsp, 232		; 000000e8H
  00013	48 8d 6c 24 20	 lea	 rbp, QWORD PTR [rsp+32]
  00018	48 8b fc	 mov	 rdi, rsp
  0001b	b9 3a 00 00 00	 mov	 ecx, 58			; 0000003aH
  00020	b8 cc cc cc cc	 mov	 eax, -858993460		; ccccccccH
  00025	f3 ab		 rep stosd
  00027	48 8b 8c 24 08
	01 00 00	 mov	 rcx, QWORD PTR [rsp+264]
  0002f	48 8d 0d 00 00
	00 00		 lea	 rcx, OFFSET FLAT:__656A90FE_DP@cpp
  00036	e8 00 00 00 00	 call	 __CheckForDebuggerJustMyCode
  0003b	48 8d a5 c8 00
	00 00		 lea	 rsp, QWORD PTR [rbp+200]
  00042	5f		 pop	 rdi
  00043	5d		 pop	 rbp
  00044	c3		 ret	 0
?__empty_global_delete@@YAXPEAX_K@Z ENDP		; __empty_global_delete
_TEXT	ENDS
; Function compile flags: /Odtp /RTCsu /ZI
; File C:\Users\Skvortsoff\OneDrive\\GitHub\course_LP\course_LP\DP.cpp
;	COMDAT ?__empty_global_delete@@YAXPEAX@Z
_TEXT	SEGMENT
__formal$ = 224
?__empty_global_delete@@YAXPEAX@Z PROC			; __empty_global_delete, COMDAT

$LN4:
  00000	48 89 4c 24 08	 mov	 QWORD PTR [rsp+8], rcx
  00005	55		 push	 rbp
  00006	57		 push	 rdi
  00007	48 81 ec e8 00
	00 00		 sub	 rsp, 232		; 000000e8H
  0000e	48 8d 6c 24 20	 lea	 rbp, QWORD PTR [rsp+32]
  00013	48 8b fc	 mov	 rdi, rsp
  00016	b9 3a 00 00 00	 mov	 ecx, 58			; 0000003aH
  0001b	b8 cc cc cc cc	 mov	 eax, -858993460		; ccccccccH
  00020	f3 ab		 rep stosd
  00022	48 8b 8c 24 08
	01 00 00	 mov	 rcx, QWORD PTR [rsp+264]
  0002a	48 8d 0d 00 00
	00 00		 lea	 rcx, OFFSET FLAT:__656A90FE_DP@cpp
  00031	e8 00 00 00 00	 call	 __CheckForDebuggerJustMyCode
  00036	48 8d a5 c8 00
	00 00		 lea	 rsp, QWORD PTR [rbp+200]
  0003d	5f		 pop	 rdi
  0003e	5d		 pop	 rbp
  0003f	c3		 ret	 0
?__empty_global_delete@@YAXPEAX@Z ENDP			; __empty_global_delete
_TEXT	ENDS
END
