; Listing generated by Microsoft (R) Optimizing Compiler Version 19.27.29112.0 

include listing.inc

INCLUDELIB MSVCRTD
INCLUDELIB OLDNAMES

PUBLIC	?errors@Error@@3PAUERROR@1@A			; Error::errors
msvcjmc	SEGMENT
__367CC694_corecrt_memcpy_s@h DB 01H
__F66CEB67_corecrt_stdio_config@h DB 01H
__5467428D_corecrt_wconio@h DB 01H
__4442441F_corecrt_wio@h DB 01H
__101834BA_corecrt_wstdio@h DB 01H
__DC9673E3_corecrt_wstring@h DB 01H
__45F4AF76_corecrt_wtime@h DB 01H
__186FF47F_stat@h DB 01H
__534C724A_wchar@h DB 01H
__62A468D7_tchar@h DB 01H
__FC8B975D_vcruntime_new@h DB 01H
__AD6A91B7_stdio@h DB 01H
__09340588_corecrt_math@h DB 01H
__24E9E95F_stdlib@h DB 01H
__51019776_cstdlib DB 01H
__5E219BC0_limits DB 01H
__B236D4B0_type_traits DB 01H
__B0C4CEA9_malloc@h DB 01H
__18D87206_vcruntime_exception@h DB 01H
__1302BCB8_exception DB 01H
__35D7DDB3_corecrt_memory@h DB 01H
__A29A7DFB_string@h DB 01H
__36E77527_xutility DB 01H
__0C99713E_xmemory DB 01H
__784AF7A2_xstring DB 01H
__7242C389_ctype@h DB 01H
__965C11D2_string DB 01H
__8AA3BE86_time@h DB 01H
__9A4C86E5_stdexcept DB 01H
__238A5427_xcall_once@h DB 01H
__3514C702_atomic DB 01H
__9CD74607_system_error DB 01H
__7B3ADE64_vcruntime_typeinfo@h DB 01H
__4638863E_typeinfo DB 01H
__E28F974E_memory DB 01H
__CECAC041_xfacet DB 01H
__59B165F6_xlocinfo DB 01H
__A7748393_xlocale DB 01H
__605412E5_xiosbase DB 01H
__8B7874EF_xlocmes DB 01H
__102707BA_cmath DB 01H
__39F3E584_xlocnum DB 01H
__1291F0BC_xlocmon DB 01H
__FDACCCE4_xloctime DB 01H
__D3011E72_ios DB 01H
__21FC1C84_fstream DB 01H
__7CEFA1A0_LT@h DB 01H
__4B315192_IT@h DB 01H
__BE522193_DP@h DB 01H
__20961129_GRB@h DB 01H
__22E0C0CC_MFST@h DB 01H
__385A3871_Error@cpp DB 01H
__D7B46C6D_istream DB 01H
__B4645957_ostream DB 01H
__496265E3_locale DB 01H
__98EC3E59_streambuf DB 01H
__274BC267_iterator DB 01H
__92C84E46_iosfwd DB 01H
__660C12FD_utility DB 01H
__911385EF_xstddef DB 01H
__190E306E_xatomic@h DB 01H
msvcjmc	ENDS
_DATA	SEGMENT
?errors@Error@@3PAUERROR@1@A DD 00H			; Error::errors
	DB	0cdH
	DB	0e5H
	DB	0e4H
	DB	0eeH
	DB	0efH
	DB	0f3H
	DB	0f1H
	DB	0f2H
	DB	0e8H
	DB	0ecH
	DB	0fbH
	DB	0e9H
	DB	020H
	DB	0eaH
	DB	0eeH
	DB	0e4H
	DB	020H
	DB	0eeH
	DB	0f8H
	DB	0e8H
	DB	0e1H
	DB	0eaH
	DB	0e8H
	DB	00H
	ORG $+176
	DW	0ffffH
	DW	0ffffH
	DD	01H
	DB	0d1H
	DB	0e8H
	DB	0f1H
	DB	0f2H
	DB	0e5H
	DB	0ecH
	DB	0edH
	DB	0fbH
	DB	0e9H
	DB	020H
	DB	0f1H
	DB	0e1H
	DB	0eeH
	DB	0e9H
	DB	00H
	ORG $+185
	DW	0ffffH
	DW	0ffffH
	DD	0fffffffeH
	DB	0cdH
	DB	0e5H
	DB	0eeH
	DB	0efH
	DB	0f0H
	DB	0e5H
	DB	0e4H
	DB	0e5H
	DB	0ebH
	DB	0e5H
	DB	0edH
	DB	0edH
	DB	0e0H
	DB	0ffH
	DB	020H
	DB	0eeH
	DB	0f8H
	DB	0e8H
	DB	0e1H
	DB	0eaH
	DB	0e0H
	DB	00H
	ORG $+178
	DW	0ffffH
	DW	0ffffH
	DD	0fffffffdH
	DB	0cdH
	DB	0e5H
	DB	0eeH
	DB	0efH
	DB	0f0H
	DB	0e5H
	DB	0e4H
	DB	0e5H
	DB	0ebH
	DB	0e5H
	DB	0edH
	DB	0edH
	DB	0e0H
	DB	0ffH
	DB	020H
	DB	0eeH
	DB	0f8H
	DB	0e8H
	DB	0e1H
	DB	0eaH
	DB	0e0H
	DB	00H
	ORG $+178
	DW	0ffffH
	DW	0ffffH
	DD	0fffffffcH
	DB	0cdH
	DB	0e5H
	DB	0eeH
	DB	0efH
	DB	0f0H
	DB	0e5H
	DB	0e4H
	DB	0e5H
	DB	0ebH
	DB	0e5H
	DB	0edH
	DB	0edH
	DB	0e0H
	DB	0ffH
	DB	020H
	DB	0eeH
	DB	0f8H
	DB	0e8H
	DB	0e1H
	DB	0eaH
	DB	0e0H
	DB	00H
	ORG $+178
	DW	0ffffH
	DW	0ffffH
	DD	0fffffffbH
	DB	0cdH
	DB	0e5H
	DB	0eeH
	DB	0efH
	DB	0f0H
	DB	0e5H
	DB	0e4H
	DB	0e5H
	DB	0ebH
	DB	0e5H
	DB	0edH
	DB	0edH
	DB	0e0H
	DB	0ffH
	DB	020H
	DB	0eeH
	DB	0f8H
	DB	0e8H
	DB	0e1H
	DB	0eaH
	DB	0e0H
	DB	00H
	ORG $+178
	DW	0ffffH
	DW	0ffffH
	DD	0fffffffaH
	DB	0cdH
	DB	0e5H
	DB	0eeH
	DB	0efH
	DB	0f0H
	DB	0e5H
	DB	0e4H
	DB	0e5H
	DB	0ebH
	DB	0e5H
	DB	0edH
	DB	0edH
	DB	0e0H
	DB	0ffH
	DB	020H
	DB	0eeH
	DB	0f8H
	DB	0e8H
	DB	0e1H
	DB	0eaH
	DB	0e0H
	DB	00H
	ORG $+178
	DW	0ffffH
	DW	0ffffH
	DD	0fffffff9H
	DB	0cdH
	DB	0e5H
	DB	0eeH
	DB	0efH
	DB	0f0H
	DB	0e5H
	DB	0e4H
	DB	0e5H
	DB	0ebH
	DB	0e5H
	DB	0edH
	DB	0edH
	DB	0e0H
	DB	0ffH
	DB	020H
	DB	0eeH
	DB	0f8H
	DB	0e8H
	DB	0e1H
	DB	0eaH
	DB	0e0H
	DB	00H
	ORG $+178
	DW	0ffffH
	DW	0ffffH
	DD	0fffffff8H
	DB	0cdH
	DB	0e5H
	DB	0eeH
	DB	0efH
	DB	0f0H
	DB	0e5H
	DB	0e4H
	DB	0e5H
	DB	0ebH
	DB	0e5H
	DB	0edH
	DB	0edH
	DB	0e0H
	DB	0ffH
	DB	020H
	DB	0eeH
	DB	0f8H
	DB	0e8H
	DB	0e1H
	DB	0eaH
	DB	0e0H
	DB	00H
	ORG $+178
	DW	0ffffH
	DW	0ffffH
	DD	0fffffff7H
	DB	0cdH
	DB	0e5H
	DB	0eeH
	DB	0efH
	DB	0f0H
	DB	0e5H
	DB	0e4H
	DB	0e5H
	DB	0ebH
	DB	0e5H
	DB	0edH
	DB	0edH
	DB	0e0H
	DB	0ffH
	DB	020H
	DB	0eeH
	DB	0f8H
	DB	0e8H
	DB	0e1H
	DB	0eaH
	DB	0e0H
	DB	00H
	ORG $+178
	DW	0ffffH
	DW	0ffffH
	DD	0fffffff6H
	DB	0cdH
	DB	0e5H
	DB	0eeH
	DB	0efH
	DB	0f0H
	DB	0e5H
	DB	0e4H
	DB	0e5H
	DB	0ebH
	DB	0e5H
	DB	0edH
	DB	0edH
	DB	0e0H
	DB	0ffH
	DB	020H
	DB	0eeH
	DB	0f8H
	DB	0e8H
	DB	0e1H
	DB	0eaH
	DB	0e0H
	DB	00H
	ORG $+178
	DW	0ffffH
	DW	0ffffH
	DD	0fffffff7H
	DB	0cdH
	DB	0e5H
	DB	0eeH
	DB	0efH
	DB	0f0H
	DB	0e5H
	DB	0e4H
	DB	0e5H
	DB	0ebH
	DB	0e5H
	DB	0edH
	DB	0edH
	DB	0e0H
	DB	0ffH
	DB	020H
	DB	0eeH
	DB	0f8H
	DB	0e8H
	DB	0e1H
	DB	0eaH
	DB	0e0H
	DB	00H
	ORG $+178
	DW	0ffffH
	DW	0ffffH
	DD	0fffffff8H
	DB	0cdH
	DB	0e5H
	DB	0eeH
	DB	0efH
	DB	0f0H
	DB	0e5H
	DB	0e4H
	DB	0e5H
	DB	0ebH
	DB	0e5H
	DB	0edH
	DB	0edH
	DB	0e0H
	DB	0ffH
	DB	020H
	DB	0eeH
	DB	0f8H
	DB	0e8H
	DB	0e1H
	DB	0eaH
	DB	0e0H
	DB	00H
	ORG $+178
	DW	0ffffH
	DW	0ffffH
	DD	0fffffff9H
	DB	0cdH
	DB	0e5H
	DB	0eeH
	DB	0efH
	DB	0f0H
	DB	0e5H
	DB	0e4H
	DB	0e5H
	DB	0ebH
	DB	0e5H
	DB	0edH
	DB	0edH
	DB	0e0H
	DB	0ffH
	DB	020H
	DB	0eeH
	DB	0f8H
	DB	0e8H
	DB	0e1H
	DB	0eaH
	DB	0e0H
	DB	00H
	ORG $+178
	DW	0ffffH
	DW	0ffffH
	DD	0fffffffaH
	DB	0cdH
	DB	0e5H
	DB	0eeH
	DB	0efH
	DB	0f0H
	DB	0e5H
	DB	0e4H
	DB	0e5H
	DB	0ebH
	DB	0e5H
	DB	0edH
	DB	0edH
	DB	0e0H
	DB	0ffH
	DB	020H
	DB	0eeH
	DB	0f8H
	DB	0e8H
	DB	0e1H
	DB	0eaH
	DB	0e0H
	DB	00H
	ORG $+178
	DW	0ffffH
	DW	0ffffH
	DD	0fffffffbH
	DB	0cdH
	DB	0e5H
	DB	0eeH
	DB	0efH
	DB	0f0H
	DB	0e5H
	DB	0e4H
	DB	0e5H
	DB	0ebH
	DB	0e5H
	DB	0edH
	DB	0edH
	DB	0e0H
	DB	0ffH
	DB	020H
	DB	0eeH
	DB	0f8H
	DB	0e8H
	DB	0e1H
	DB	0eaH
	DB	0e0H
	DB	00H
	ORG $+178
	DW	0ffffH
	DW	0ffffH
	DD	0fffffffcH
	DB	0cdH
	DB	0e5H
	DB	0eeH
	DB	0efH
	DB	0f0H
	DB	0e5H
	DB	0e4H
	DB	0e5H
	DB	0ebH
	DB	0e5H
	DB	0edH
	DB	0edH
	DB	0e0H
	DB	0ffH
	DB	020H
	DB	0eeH
	DB	0f8H
	DB	0e8H
	DB	0e1H
	DB	0eaH
	DB	0e0H
	DB	00H
	ORG $+178
	DW	0ffffH
	DW	0ffffH
	DD	0fffffffdH
	DB	0cdH
	DB	0e5H
	DB	0eeH
	DB	0efH
	DB	0f0H
	DB	0e5H
	DB	0e4H
	DB	0e5H
	DB	0ebH
	DB	0e5H
	DB	0edH
	DB	0edH
	DB	0e0H
	DB	0ffH
	DB	020H
	DB	0eeH
	DB	0f8H
	DB	0e8H
	DB	0e1H
	DB	0eaH
	DB	0e0H
	DB	00H
	ORG $+178
	DW	0ffffH
	DW	0ffffH
	DD	0fffffffeH
	DB	0cdH
	DB	0e5H
	DB	0eeH
	DB	0efH
	DB	0f0H
	DB	0e5H
	DB	0e4H
	DB	0e5H
	DB	0ebH
	DB	0e5H
	DB	0edH
	DB	0edH
	DB	0e0H
	DB	0ffH
	DB	020H
	DB	0eeH
	DB	0f8H
	DB	0e8H
	DB	0e1H
	DB	0eaH
	DB	0e0H
	DB	00H
	ORG $+178
	DW	0ffffH
	DW	0ffffH
	DD	0ffffffffH
	DB	0cdH
	DB	0e5H
	DB	0eeH
	DB	0efH
	DB	0f0H
	DB	0e5H
	DB	0e4H
	DB	0e5H
	DB	0ebH
	DB	0e5H
	DB	0edH
	DB	0edH
	DB	0e0H
	DB	0ffH
	DB	020H
	DB	0eeH
	DB	0f8H
	DB	0e8H
	DB	0e1H
	DB	0eaH
	DB	0e0H
	DB	00H
	ORG $+178
	DW	0ffffH
	DW	0ffffH
	DD	0ffffffecH
	DB	0cdH
	DB	0e5H
	DB	0eeH
	DB	0efH
	DB	0f0H
	DB	0e5H
	DB	0e4H
	DB	0e5H
	DB	0ebH
	DB	0e5H
	DB	0edH
	DB	0edH
	DB	0e0H
	DB	0ffH
	DB	020H
	DB	0eeH
	DB	0f8H
	DB	0e8H
	DB	0e1H
	DB	0eaH
	DB	0e0H
	DB	00H
	ORG $+178
	DW	0ffffH
	DW	0ffffH
	DD	0ffffffedH
	DB	0cdH
	DB	0e5H
	DB	0eeH
	DB	0efH
	DB	0f0H
	DB	0e5H
	DB	0e4H
	DB	0e5H
	DB	0ebH
	DB	0e5H
	DB	0edH
	DB	0edH
	DB	0e0H
	DB	0ffH
	DB	020H
	DB	0eeH
	DB	0f8H
	DB	0e8H
	DB	0e1H
	DB	0eaH
	DB	0e0H
	DB	00H
	ORG $+178
	DW	0ffffH
	DW	0ffffH
	DD	0ffffffeeH
	DB	0cdH
	DB	0e5H
	DB	0eeH
	DB	0efH
	DB	0f0H
	DB	0e5H
	DB	0e4H
	DB	0e5H
	DB	0ebH
	DB	0e5H
	DB	0edH
	DB	0edH
	DB	0e0H
	DB	0ffH
	DB	020H
	DB	0eeH
	DB	0f8H
	DB	0e8H
	DB	0e1H
	DB	0eaH
	DB	0e0H
	DB	00H
	ORG $+178
	DW	0ffffH
	DW	0ffffH
	DD	0ffffffefH
	DB	0cdH
	DB	0e5H
	DB	0eeH
	DB	0efH
	DB	0f0H
	DB	0e5H
	DB	0e4H
	DB	0e5H
	DB	0ebH
	DB	0e5H
	DB	0edH
	DB	0edH
	DB	0e0H
	DB	0ffH
	DB	020H
	DB	0eeH
	DB	0f8H
	DB	0e8H
	DB	0e1H
	DB	0eaH
	DB	0e0H
	DB	00H
	ORG $+178
	DW	0ffffH
	DW	0ffffH
	DD	0fffffff0H
	DB	0cdH
	DB	0e5H
	DB	0eeH
	DB	0efH
	DB	0f0H
	DB	0e5H
	DB	0e4H
	DB	0e5H
	DB	0ebH
	DB	0e5H
	DB	0edH
	DB	0edH
	DB	0e0H
	DB	0ffH
	DB	020H
	DB	0eeH
	DB	0f8H
	DB	0e8H
	DB	0e1H
	DB	0eaH
	DB	0e0H
	DB	00H
	ORG $+178
	DW	0ffffH
	DW	0ffffH
	DD	0fffffff1H
	DB	0cdH
	DB	0e5H
	DB	0eeH
	DB	0efH
	DB	0f0H
	DB	0e5H
	DB	0e4H
	DB	0e5H
	DB	0ebH
	DB	0e5H
	DB	0edH
	DB	0edH
	DB	0e0H
	DB	0ffH
	DB	020H
	DB	0eeH
	DB	0f8H
	DB	0e8H
	DB	0e1H
	DB	0eaH
	DB	0e0H
	DB	00H
	ORG $+178
	DW	0ffffH
	DW	0ffffH
	DD	0fffffff2H
	DB	0cdH
	DB	0e5H
	DB	0eeH
	DB	0efH
	DB	0f0H
	DB	0e5H
	DB	0e4H
	DB	0e5H
	DB	0ebH
	DB	0e5H
	DB	0edH
	DB	0edH
	DB	0e0H
	DB	0ffH
	DB	020H
	DB	0eeH
	DB	0f8H
	DB	0e8H
	DB	0e1H
	DB	0eaH
	DB	0e0H
	DB	00H
	ORG $+178
	DW	0ffffH
	DW	0ffffH
	DD	0fffffff3H
	DB	0cdH
	DB	0e5H
	DB	0eeH
	DB	0efH
	DB	0f0H
	DB	0e5H
	DB	0e4H
	DB	0e5H
	DB	0ebH
	DB	0e5H
	DB	0edH
	DB	0edH
	DB	0e0H
	DB	0ffH
	DB	020H
	DB	0eeH
	DB	0f8H
	DB	0e8H
	DB	0e1H
	DB	0eaH
	DB	0e0H
	DB	00H
	ORG $+178
	DW	0ffffH
	DW	0ffffH
	DD	0fffffff4H
	DB	0cdH
	DB	0e5H
	DB	0eeH
	DB	0efH
	DB	0f0H
	DB	0e5H
	DB	0e4H
	DB	0e5H
	DB	0ebH
	DB	0e5H
	DB	0edH
	DB	0edH
	DB	0e0H
	DB	0ffH
	DB	020H
	DB	0eeH
	DB	0f8H
	DB	0e8H
	DB	0e1H
	DB	0eaH
	DB	0e0H
	DB	00H
	ORG $+178
	DW	0ffffH
	DW	0ffffH
	DD	0fffffff5H
	DB	0cdH
	DB	0e5H
	DB	0eeH
	DB	0efH
	DB	0f0H
	DB	0e5H
	DB	0e4H
	DB	0e5H
	DB	0ebH
	DB	0e5H
	DB	0edH
	DB	0edH
	DB	0e0H
	DB	0ffH
	DB	020H
	DB	0eeH
	DB	0f8H
	DB	0e8H
	DB	0e1H
	DB	0eaH
	DB	0e0H
	DB	00H
	ORG $+178
	DW	0ffffH
	DW	0ffffH
	DD	0ffffffe2H
	DB	0cdH
	DB	0e5H
	DB	0eeH
	DB	0efH
	DB	0f0H
	DB	0e5H
	DB	0e4H
	DB	0e5H
	DB	0ebH
	DB	0e5H
	DB	0edH
	DB	0edH
	DB	0e0H
	DB	0ffH
	DB	020H
	DB	0eeH
	DB	0f8H
	DB	0e8H
	DB	0e1H
	DB	0eaH
	DB	0e0H
	DB	00H
	ORG $+178
	DW	0ffffH
	DW	0ffffH
	DD	0ffffffe3H
	DB	0cdH
	DB	0e5H
	DB	0eeH
	DB	0efH
	DB	0f0H
	DB	0e5H
	DB	0e4H
	DB	0e5H
	DB	0ebH
	DB	0e5H
	DB	0edH
	DB	0edH
	DB	0e0H
	DB	0ffH
	DB	020H
	DB	0eeH
	DB	0f8H
	DB	0e8H
	DB	0e1H
	DB	0eaH
	DB	0e0H
	DB	00H
	ORG $+178
	DW	0ffffH
	DW	0ffffH
	DD	0ffffffe4H
	DB	0cdH
	DB	0e5H
	DB	0eeH
	DB	0efH
	DB	0f0H
	DB	0e5H
	DB	0e4H
	DB	0e5H
	DB	0ebH
	DB	0e5H
	DB	0edH
	DB	0edH
	DB	0e0H
	DB	0ffH
	DB	020H
	DB	0eeH
	DB	0f8H
	DB	0e8H
	DB	0e1H
	DB	0eaH
	DB	0e0H
	DB	00H
	ORG $+178
	DW	0ffffH
	DW	0ffffH
	DD	0ffffffe5H
	DB	0cdH
	DB	0e5H
	DB	0eeH
	DB	0efH
	DB	0f0H
	DB	0e5H
	DB	0e4H
	DB	0e5H
	DB	0ebH
	DB	0e5H
	DB	0edH
	DB	0edH
	DB	0e0H
	DB	0ffH
	DB	020H
	DB	0eeH
	DB	0f8H
	DB	0e8H
	DB	0e1H
	DB	0eaH
	DB	0e0H
	DB	00H
	ORG $+178
	DW	0ffffH
	DW	0ffffH
	DD	0ffffffe6H
	DB	0cdH
	DB	0e5H
	DB	0eeH
	DB	0efH
	DB	0f0H
	DB	0e5H
	DB	0e4H
	DB	0e5H
	DB	0ebH
	DB	0e5H
	DB	0edH
	DB	0edH
	DB	0e0H
	DB	0ffH
	DB	020H
	DB	0eeH
	DB	0f8H
	DB	0e8H
	DB	0e1H
	DB	0eaH
	DB	0e0H
	DB	00H
	ORG $+178
	DW	0ffffH
	DW	0ffffH
	DD	0ffffffe7H
	DB	0cdH
	DB	0e5H
	DB	0eeH
	DB	0efH
	DB	0f0H
	DB	0e5H
	DB	0e4H
	DB	0e5H
	DB	0ebH
	DB	0e5H
	DB	0edH
	DB	0edH
	DB	0e0H
	DB	0ffH
	DB	020H
	DB	0eeH
	DB	0f8H
	DB	0e8H
	DB	0e1H
	DB	0eaH
	DB	0e0H
	DB	00H
	ORG $+178
	DW	0ffffH
	DW	0ffffH
	DD	0ffffffe8H
	DB	0cdH
	DB	0e5H
	DB	0eeH
	DB	0efH
	DB	0f0H
	DB	0e5H
	DB	0e4H
	DB	0e5H
	DB	0ebH
	DB	0e5H
	DB	0edH
	DB	0edH
	DB	0e0H
	DB	0ffH
	DB	020H
	DB	0eeH
	DB	0f8H
	DB	0e8H
	DB	0e1H
	DB	0eaH
	DB	0e0H
	DB	00H
	ORG $+178
	DW	0ffffH
	DW	0ffffH
	DD	0ffffffe9H
	DB	0cdH
	DB	0e5H
	DB	0eeH
	DB	0efH
	DB	0f0H
	DB	0e5H
	DB	0e4H
	DB	0e5H
	DB	0ebH
	DB	0e5H
	DB	0edH
	DB	0edH
	DB	0e0H
	DB	0ffH
	DB	020H
	DB	0eeH
	DB	0f8H
	DB	0e8H
	DB	0e1H
	DB	0eaH
	DB	0e0H
	DB	00H
	ORG $+178
	DW	0ffffH
	DW	0ffffH
	DD	0ffffffeaH
	DB	0cdH
	DB	0e5H
	DB	0eeH
	DB	0efH
	DB	0f0H
	DB	0e5H
	DB	0e4H
	DB	0e5H
	DB	0ebH
	DB	0e5H
	DB	0edH
	DB	0edH
	DB	0e0H
	DB	0ffH
	DB	020H
	DB	0eeH
	DB	0f8H
	DB	0e8H
	DB	0e1H
	DB	0eaH
	DB	0e0H
	DB	00H
	ORG $+178
	DW	0ffffH
	DW	0ffffH
	DD	0ffffffebH
	DB	0cdH
	DB	0e5H
	DB	0eeH
	DB	0efH
	DB	0f0H
	DB	0e5H
	DB	0e4H
	DB	0e5H
	DB	0ebH
	DB	0e5H
	DB	0edH
	DB	0edH
	DB	0e0H
	DB	0ffH
	DB	020H
	DB	0eeH
	DB	0f8H
	DB	0e8H
	DB	0e1H
	DB	0eaH
	DB	0e0H
	DB	00H
	ORG $+178
	DW	0ffffH
	DW	0ffffH
	DD	0ffffffd8H
	DB	0cdH
	DB	0e5H
	DB	0eeH
	DB	0efH
	DB	0f0H
	DB	0e5H
	DB	0e4H
	DB	0e5H
	DB	0ebH
	DB	0e5H
	DB	0edH
	DB	0edH
	DB	0e0H
	DB	0ffH
	DB	020H
	DB	0eeH
	DB	0f8H
	DB	0e8H
	DB	0e1H
	DB	0eaH
	DB	0e0H
	DB	00H
	ORG $+178
	DW	0ffffH
	DW	0ffffH
	DD	0ffffffd9H
	DB	0cdH
	DB	0e5H
	DB	0eeH
	DB	0efH
	DB	0f0H
	DB	0e5H
	DB	0e4H
	DB	0e5H
	DB	0ebH
	DB	0e5H
	DB	0edH
	DB	0edH
	DB	0e0H
	DB	0ffH
	DB	020H
	DB	0eeH
	DB	0f8H
	DB	0e8H
	DB	0e1H
	DB	0eaH
	DB	0e0H
	DB	00H
	ORG $+178
	DW	0ffffH
	DW	0ffffH
	DD	0ffffffdaH
	DB	0cdH
	DB	0e5H
	DB	0eeH
	DB	0efH
	DB	0f0H
	DB	0e5H
	DB	0e4H
	DB	0e5H
	DB	0ebH
	DB	0e5H
	DB	0edH
	DB	0edH
	DB	0e0H
	DB	0ffH
	DB	020H
	DB	0eeH
	DB	0f8H
	DB	0e8H
	DB	0e1H
	DB	0eaH
	DB	0e0H
	DB	00H
	ORG $+178
	DW	0ffffH
	DW	0ffffH
	DD	0ffffffdbH
	DB	0cdH
	DB	0e5H
	DB	0eeH
	DB	0efH
	DB	0f0H
	DB	0e5H
	DB	0e4H
	DB	0e5H
	DB	0ebH
	DB	0e5H
	DB	0edH
	DB	0edH
	DB	0e0H
	DB	0ffH
	DB	020H
	DB	0eeH
	DB	0f8H
	DB	0e8H
	DB	0e1H
	DB	0eaH
	DB	0e0H
	DB	00H
	ORG $+178
	DW	0ffffH
	DW	0ffffH
	DD	0ffffffdcH
	DB	0cdH
	DB	0e5H
	DB	0eeH
	DB	0efH
	DB	0f0H
	DB	0e5H
	DB	0e4H
	DB	0e5H
	DB	0ebH
	DB	0e5H
	DB	0edH
	DB	0edH
	DB	0e0H
	DB	0ffH
	DB	020H
	DB	0eeH
	DB	0f8H
	DB	0e8H
	DB	0e1H
	DB	0eaH
	DB	0e0H
	DB	00H
	ORG $+178
	DW	0ffffH
	DW	0ffffH
	DD	0ffffffddH
	DB	0cdH
	DB	0e5H
	DB	0eeH
	DB	0efH
	DB	0f0H
	DB	0e5H
	DB	0e4H
	DB	0e5H
	DB	0ebH
	DB	0e5H
	DB	0edH
	DB	0edH
	DB	0e0H
	DB	0ffH
	DB	020H
	DB	0eeH
	DB	0f8H
	DB	0e8H
	DB	0e1H
	DB	0eaH
	DB	0e0H
	DB	00H
	ORG $+178
	DW	0ffffH
	DW	0ffffH
	DD	0ffffffdeH
	DB	0cdH
	DB	0e5H
	DB	0eeH
	DB	0efH
	DB	0f0H
	DB	0e5H
	DB	0e4H
	DB	0e5H
	DB	0ebH
	DB	0e5H
	DB	0edH
	DB	0edH
	DB	0e0H
	DB	0ffH
	DB	020H
	DB	0eeH
	DB	0f8H
	DB	0e8H
	DB	0e1H
	DB	0eaH
	DB	0e0H
	DB	00H
	ORG $+178
	DW	0ffffH
	DW	0ffffH
	DD	0ffffffdfH
	DB	0cdH
	DB	0e5H
	DB	0eeH
	DB	0efH
	DB	0f0H
	DB	0e5H
	DB	0e4H
	DB	0e5H
	DB	0ebH
	DB	0e5H
	DB	0edH
	DB	0edH
	DB	0e0H
	DB	0ffH
	DB	020H
	DB	0eeH
	DB	0f8H
	DB	0e8H
	DB	0e1H
	DB	0eaH
	DB	0e0H
	DB	00H
	ORG $+178
	DW	0ffffH
	DW	0ffffH
	DD	0ffffffe0H
	DB	0cdH
	DB	0e5H
	DB	0eeH
	DB	0efH
	DB	0f0H
	DB	0e5H
	DB	0e4H
	DB	0e5H
	DB	0ebH
	DB	0e5H
	DB	0edH
	DB	0edH
	DB	0e0H
	DB	0ffH
	DB	020H
	DB	0eeH
	DB	0f8H
	DB	0e8H
	DB	0e1H
	DB	0eaH
	DB	0e0H
	DB	00H
	ORG $+178
	DW	0ffffH
	DW	0ffffH
	DD	0ffffffe1H
	DB	0cdH
	DB	0e5H
	DB	0eeH
	DB	0efH
	DB	0f0H
	DB	0e5H
	DB	0e4H
	DB	0e5H
	DB	0ebH
	DB	0e5H
	DB	0edH
	DB	0edH
	DB	0e0H
	DB	0ffH
	DB	020H
	DB	0eeH
	DB	0f8H
	DB	0e8H
	DB	0e1H
	DB	0eaH
	DB	0e0H
	DB	00H
	ORG $+178
	DW	0ffffH
	DW	0ffffH
	DD	0ffffffceH
	DB	0cdH
	DB	0e5H
	DB	0eeH
	DB	0efH
	DB	0f0H
	DB	0e5H
	DB	0e4H
	DB	0e5H
	DB	0ebH
	DB	0e5H
	DB	0edH
	DB	0edH
	DB	0e0H
	DB	0ffH
	DB	020H
	DB	0eeH
	DB	0f8H
	DB	0e8H
	DB	0e1H
	DB	0eaH
	DB	0e0H
	DB	00H
	ORG $+178
	DW	0ffffH
	DW	0ffffH
	DD	0ffffffcfH
	DB	0cdH
	DB	0e5H
	DB	0eeH
	DB	0efH
	DB	0f0H
	DB	0e5H
	DB	0e4H
	DB	0e5H
	DB	0ebH
	DB	0e5H
	DB	0edH
	DB	0edH
	DB	0e0H
	DB	0ffH
	DB	020H
	DB	0eeH
	DB	0f8H
	DB	0e8H
	DB	0e1H
	DB	0eaH
	DB	0e0H
	DB	00H
	ORG $+178
	DW	0ffffH
	DW	0ffffH
	DD	0ffffffd0H
	DB	0cdH
	DB	0e5H
	DB	0eeH
	DB	0efH
	DB	0f0H
	DB	0e5H
	DB	0e4H
	DB	0e5H
	DB	0ebH
	DB	0e5H
	DB	0edH
	DB	0edH
	DB	0e0H
	DB	0ffH
	DB	020H
	DB	0eeH
	DB	0f8H
	DB	0e8H
	DB	0e1H
	DB	0eaH
	DB	0e0H
	DB	00H
	ORG $+178
	DW	0ffffH
	DW	0ffffH
	DD	0ffffffd1H
	DB	0cdH
	DB	0e5H
	DB	0eeH
	DB	0efH
	DB	0f0H
	DB	0e5H
	DB	0e4H
	DB	0e5H
	DB	0ebH
	DB	0e5H
	DB	0edH
	DB	0edH
	DB	0e0H
	DB	0ffH
	DB	020H
	DB	0eeH
	DB	0f8H
	DB	0e8H
	DB	0e1H
	DB	0eaH
	DB	0e0H
	DB	00H
	ORG $+178
	DW	0ffffH
	DW	0ffffH
	DD	0ffffffd2H
	DB	0cdH
	DB	0e5H
	DB	0eeH
	DB	0efH
	DB	0f0H
	DB	0e5H
	DB	0e4H
	DB	0e5H
	DB	0ebH
	DB	0e5H
	DB	0edH
	DB	0edH
	DB	0e0H
	DB	0ffH
	DB	020H
	DB	0eeH
	DB	0f8H
	DB	0e8H
	DB	0e1H
	DB	0eaH
	DB	0e0H
	DB	00H
	ORG $+178
	DW	0ffffH
	DW	0ffffH
	DD	0ffffffd3H
	DB	0cdH
	DB	0e5H
	DB	0eeH
	DB	0efH
	DB	0f0H
	DB	0e5H
	DB	0e4H
	DB	0e5H
	DB	0ebH
	DB	0e5H
	DB	0edH
	DB	0edH
	DB	0e0H
	DB	0ffH
	DB	020H
	DB	0eeH
	DB	0f8H
	DB	0e8H
	DB	0e1H
	DB	0eaH
	DB	0e0H
	DB	00H
	ORG $+178
	DW	0ffffH
	DW	0ffffH
	DD	0ffffffd4H
	DB	0cdH
	DB	0e5H
	DB	0eeH
	DB	0efH
	DB	0f0H
	DB	0e5H
	DB	0e4H
	DB	0e5H
	DB	0ebH
	DB	0e5H
	DB	0edH
	DB	0edH
	DB	0e0H
	DB	0ffH
	DB	020H
	DB	0eeH
	DB	0f8H
	DB	0e8H
	DB	0e1H
	DB	0eaH
	DB	0e0H
	DB	00H
	ORG $+178
	DW	0ffffH
	DW	0ffffH
	DD	0ffffffd5H
	DB	0cdH
	DB	0e5H
	DB	0eeH
	DB	0efH
	DB	0f0H
	DB	0e5H
	DB	0e4H
	DB	0e5H
	DB	0ebH
	DB	0e5H
	DB	0edH
	DB	0edH
	DB	0e0H
	DB	0ffH
	DB	020H
	DB	0eeH
	DB	0f8H
	DB	0e8H
	DB	0e1H
	DB	0eaH
	DB	0e0H
	DB	00H
	ORG $+178
	DW	0ffffH
	DW	0ffffH
	DD	0ffffffd6H
	DB	0cdH
	DB	0e5H
	DB	0eeH
	DB	0efH
	DB	0f0H
	DB	0e5H
	DB	0e4H
	DB	0e5H
	DB	0ebH
	DB	0e5H
	DB	0edH
	DB	0edH
	DB	0e0H
	DB	0ffH
	DB	020H
	DB	0eeH
	DB	0f8H
	DB	0e8H
	DB	0e1H
	DB	0eaH
	DB	0e0H
	DB	00H
	ORG $+178
	DW	0ffffH
	DW	0ffffH
	DD	0ffffffd7H
	DB	0cdH
	DB	0e5H
	DB	0eeH
	DB	0efH
	DB	0f0H
	DB	0e5H
	DB	0e4H
	DB	0e5H
	DB	0ebH
	DB	0e5H
	DB	0edH
	DB	0edH
	DB	0e0H
	DB	0ffH
	DB	020H
	DB	0eeH
	DB	0f8H
	DB	0e8H
	DB	0e1H
	DB	0eaH
	DB	0e0H
	DB	00H
	ORG $+178
	DW	0ffffH
	DW	0ffffH
	DD	0ffffffc4H
	DB	0cdH
	DB	0e5H
	DB	0eeH
	DB	0efH
	DB	0f0H
	DB	0e5H
	DB	0e4H
	DB	0e5H
	DB	0ebH
	DB	0e5H
	DB	0edH
	DB	0edH
	DB	0e0H
	DB	0ffH
	DB	020H
	DB	0eeH
	DB	0f8H
	DB	0e8H
	DB	0e1H
	DB	0eaH
	DB	0e0H
	DB	00H
	ORG $+178
	DW	0ffffH
	DW	0ffffH
	DD	0ffffffc5H
	DB	0cdH
	DB	0e5H
	DB	0eeH
	DB	0efH
	DB	0f0H
	DB	0e5H
	DB	0e4H
	DB	0e5H
	DB	0ebH
	DB	0e5H
	DB	0edH
	DB	0edH
	DB	0e0H
	DB	0ffH
	DB	020H
	DB	0eeH
	DB	0f8H
	DB	0e8H
	DB	0e1H
	DB	0eaH
	DB	0e0H
	DB	00H
	ORG $+178
	DW	0ffffH
	DW	0ffffH
	DD	0ffffffc6H
	DB	0cdH
	DB	0e5H
	DB	0eeH
	DB	0efH
	DB	0f0H
	DB	0e5H
	DB	0e4H
	DB	0e5H
	DB	0ebH
	DB	0e5H
	DB	0edH
	DB	0edH
	DB	0e0H
	DB	0ffH
	DB	020H
	DB	0eeH
	DB	0f8H
	DB	0e8H
	DB	0e1H
	DB	0eaH
	DB	0e0H
	DB	00H
	ORG $+178
	DW	0ffffH
	DW	0ffffH
	DD	0ffffffc7H
	DB	0cdH
	DB	0e5H
	DB	0eeH
	DB	0efH
	DB	0f0H
	DB	0e5H
	DB	0e4H
	DB	0e5H
	DB	0ebH
	DB	0e5H
	DB	0edH
	DB	0edH
	DB	0e0H
	DB	0ffH
	DB	020H
	DB	0eeH
	DB	0f8H
	DB	0e8H
	DB	0e1H
	DB	0eaH
	DB	0e0H
	DB	00H
	ORG $+178
	DW	0ffffH
	DW	0ffffH
	DD	0ffffffc8H
	DB	0cdH
	DB	0e5H
	DB	0eeH
	DB	0efH
	DB	0f0H
	DB	0e5H
	DB	0e4H
	DB	0e5H
	DB	0ebH
	DB	0e5H
	DB	0edH
	DB	0edH
	DB	0e0H
	DB	0ffH
	DB	020H
	DB	0eeH
	DB	0f8H
	DB	0e8H
	DB	0e1H
	DB	0eaH
	DB	0e0H
	DB	00H
	ORG $+178
	DW	0ffffH
	DW	0ffffH
	DD	0ffffffc9H
	DB	0cdH
	DB	0e5H
	DB	0eeH
	DB	0efH
	DB	0f0H
	DB	0e5H
	DB	0e4H
	DB	0e5H
	DB	0ebH
	DB	0e5H
	DB	0edH
	DB	0edH
	DB	0e0H
	DB	0ffH
	DB	020H
	DB	0eeH
	DB	0f8H
	DB	0e8H
	DB	0e1H
	DB	0eaH
	DB	0e0H
	DB	00H
	ORG $+178
	DW	0ffffH
	DW	0ffffH
	DD	0ffffffcaH
	DB	0cdH
	DB	0e5H
	DB	0eeH
	DB	0efH
	DB	0f0H
	DB	0e5H
	DB	0e4H
	DB	0e5H
	DB	0ebH
	DB	0e5H
	DB	0edH
	DB	0edH
	DB	0e0H
	DB	0ffH
	DB	020H
	DB	0eeH
	DB	0f8H
	DB	0e8H
	DB	0e1H
	DB	0eaH
	DB	0e0H
	DB	00H
	ORG $+178
	DW	0ffffH
	DW	0ffffH
	DD	0ffffffcbH
	DB	0cdH
	DB	0e5H
	DB	0eeH
	DB	0efH
	DB	0f0H
	DB	0e5H
	DB	0e4H
	DB	0e5H
	DB	0ebH
	DB	0e5H
	DB	0edH
	DB	0edH
	DB	0e0H
	DB	0ffH
	DB	020H
	DB	0eeH
	DB	0f8H
	DB	0e8H
	DB	0e1H
	DB	0eaH
	DB	0e0H
	DB	00H
	ORG $+178
	DW	0ffffH
	DW	0ffffH
	DD	0ffffffccH
	DB	0cdH
	DB	0e5H
	DB	0eeH
	DB	0efH
	DB	0f0H
	DB	0e5H
	DB	0e4H
	DB	0e5H
	DB	0ebH
	DB	0e5H
	DB	0edH
	DB	0edH
	DB	0e0H
	DB	0ffH
	DB	020H
	DB	0eeH
	DB	0f8H
	DB	0e8H
	DB	0e1H
	DB	0eaH
	DB	0e0H
	DB	00H
	ORG $+178
	DW	0ffffH
	DW	0ffffH
	DD	0ffffffcdH
	DB	0cdH
	DB	0e5H
	DB	0eeH
	DB	0efH
	DB	0f0H
	DB	0e5H
	DB	0e4H
	DB	0e5H
	DB	0ebH
	DB	0e5H
	DB	0edH
	DB	0edH
	DB	0e0H
	DB	0ffH
	DB	020H
	DB	0eeH
	DB	0f8H
	DB	0e8H
	DB	0e1H
	DB	0eaH
	DB	0e0H
	DB	00H
	ORG $+178
	DW	0ffffH
	DW	0ffffH
	DD	0ffffffbaH
	DB	0cdH
	DB	0e5H
	DB	0eeH
	DB	0efH
	DB	0f0H
	DB	0e5H
	DB	0e4H
	DB	0e5H
	DB	0ebH
	DB	0e5H
	DB	0edH
	DB	0edH
	DB	0e0H
	DB	0ffH
	DB	020H
	DB	0eeH
	DB	0f8H
	DB	0e8H
	DB	0e1H
	DB	0eaH
	DB	0e0H
	DB	00H
	ORG $+178
	DW	0ffffH
	DW	0ffffH
	DD	0ffffffbbH
	DB	0cdH
	DB	0e5H
	DB	0eeH
	DB	0efH
	DB	0f0H
	DB	0e5H
	DB	0e4H
	DB	0e5H
	DB	0ebH
	DB	0e5H
	DB	0edH
	DB	0edH
	DB	0e0H
	DB	0ffH
	DB	020H
	DB	0eeH
	DB	0f8H
	DB	0e8H
	DB	0e1H
	DB	0eaH
	DB	0e0H
	DB	00H
	ORG $+178
	DW	0ffffH
	DW	0ffffH
	DD	0ffffffbcH
	DB	0cdH
	DB	0e5H
	DB	0eeH
	DB	0efH
	DB	0f0H
	DB	0e5H
	DB	0e4H
	DB	0e5H
	DB	0ebH
	DB	0e5H
	DB	0edH
	DB	0edH
	DB	0e0H
	DB	0ffH
	DB	020H
	DB	0eeH
	DB	0f8H
	DB	0e8H
	DB	0e1H
	DB	0eaH
	DB	0e0H
	DB	00H
	ORG $+178
	DW	0ffffH
	DW	0ffffH
	DD	0ffffffbdH
	DB	0cdH
	DB	0e5H
	DB	0eeH
	DB	0efH
	DB	0f0H
	DB	0e5H
	DB	0e4H
	DB	0e5H
	DB	0ebH
	DB	0e5H
	DB	0edH
	DB	0edH
	DB	0e0H
	DB	0ffH
	DB	020H
	DB	0eeH
	DB	0f8H
	DB	0e8H
	DB	0e1H
	DB	0eaH
	DB	0e0H
	DB	00H
	ORG $+178
	DW	0ffffH
	DW	0ffffH
	DD	0ffffffbeH
	DB	0cdH
	DB	0e5H
	DB	0eeH
	DB	0efH
	DB	0f0H
	DB	0e5H
	DB	0e4H
	DB	0e5H
	DB	0ebH
	DB	0e5H
	DB	0edH
	DB	0edH
	DB	0e0H
	DB	0ffH
	DB	020H
	DB	0eeH
	DB	0f8H
	DB	0e8H
	DB	0e1H
	DB	0eaH
	DB	0e0H
	DB	00H
	ORG $+178
	DW	0ffffH
	DW	0ffffH
	DD	0ffffffbfH
	DB	0cdH
	DB	0e5H
	DB	0eeH
	DB	0efH
	DB	0f0H
	DB	0e5H
	DB	0e4H
	DB	0e5H
	DB	0ebH
	DB	0e5H
	DB	0edH
	DB	0edH
	DB	0e0H
	DB	0ffH
	DB	020H
	DB	0eeH
	DB	0f8H
	DB	0e8H
	DB	0e1H
	DB	0eaH
	DB	0e0H
	DB	00H
	ORG $+178
	DW	0ffffH
	DW	0ffffH
	DD	0ffffffc0H
	DB	0cdH
	DB	0e5H
	DB	0eeH
	DB	0efH
	DB	0f0H
	DB	0e5H
	DB	0e4H
	DB	0e5H
	DB	0ebH
	DB	0e5H
	DB	0edH
	DB	0edH
	DB	0e0H
	DB	0ffH
	DB	020H
	DB	0eeH
	DB	0f8H
	DB	0e8H
	DB	0e1H
	DB	0eaH
	DB	0e0H
	DB	00H
	ORG $+178
	DW	0ffffH
	DW	0ffffH
	DD	0ffffffc1H
	DB	0cdH
	DB	0e5H
	DB	0eeH
	DB	0efH
	DB	0f0H
	DB	0e5H
	DB	0e4H
	DB	0e5H
	DB	0ebH
	DB	0e5H
	DB	0edH
	DB	0edH
	DB	0e0H
	DB	0ffH
	DB	020H
	DB	0eeH
	DB	0f8H
	DB	0e8H
	DB	0e1H
	DB	0eaH
	DB	0e0H
	DB	00H
	ORG $+178
	DW	0ffffH
	DW	0ffffH
	DD	0ffffffc2H
	DB	0cdH
	DB	0e5H
	DB	0eeH
	DB	0efH
	DB	0f0H
	DB	0e5H
	DB	0e4H
	DB	0e5H
	DB	0ebH
	DB	0e5H
	DB	0edH
	DB	0edH
	DB	0e0H
	DB	0ffH
	DB	020H
	DB	0eeH
	DB	0f8H
	DB	0e8H
	DB	0e1H
	DB	0eaH
	DB	0e0H
	DB	00H
	ORG $+178
	DW	0ffffH
	DW	0ffffH
	DD	0ffffffc3H
	DB	0cdH
	DB	0e5H
	DB	0eeH
	DB	0efH
	DB	0f0H
	DB	0e5H
	DB	0e4H
	DB	0e5H
	DB	0ebH
	DB	0e5H
	DB	0edH
	DB	0edH
	DB	0e0H
	DB	0ffH
	DB	020H
	DB	0eeH
	DB	0f8H
	DB	0e8H
	DB	0e1H
	DB	0eaH
	DB	0e0H
	DB	00H
	ORG $+178
	DW	0ffffH
	DW	0ffffH
	DD	0ffffffb0H
	DB	0cdH
	DB	0e5H
	DB	0eeH
	DB	0efH
	DB	0f0H
	DB	0e5H
	DB	0e4H
	DB	0e5H
	DB	0ebH
	DB	0e5H
	DB	0edH
	DB	0edH
	DB	0e0H
	DB	0ffH
	DB	020H
	DB	0eeH
	DB	0f8H
	DB	0e8H
	DB	0e1H
	DB	0eaH
	DB	0e0H
	DB	00H
	ORG $+178
	DW	0ffffH
	DW	0ffffH
	DD	0ffffffb1H
	DB	0cdH
	DB	0e5H
	DB	0eeH
	DB	0efH
	DB	0f0H
	DB	0e5H
	DB	0e4H
	DB	0e5H
	DB	0ebH
	DB	0e5H
	DB	0edH
	DB	0edH
	DB	0e0H
	DB	0ffH
	DB	020H
	DB	0eeH
	DB	0f8H
	DB	0e8H
	DB	0e1H
	DB	0eaH
	DB	0e0H
	DB	00H
	ORG $+178
	DW	0ffffH
	DW	0ffffH
	DD	0ffffffb2H
	DB	0cdH
	DB	0e5H
	DB	0eeH
	DB	0efH
	DB	0f0H
	DB	0e5H
	DB	0e4H
	DB	0e5H
	DB	0ebH
	DB	0e5H
	DB	0edH
	DB	0edH
	DB	0e0H
	DB	0ffH
	DB	020H
	DB	0eeH
	DB	0f8H
	DB	0e8H
	DB	0e1H
	DB	0eaH
	DB	0e0H
	DB	00H
	ORG $+178
	DW	0ffffH
	DW	0ffffH
	DD	0ffffffb3H
	DB	0cdH
	DB	0e5H
	DB	0eeH
	DB	0efH
	DB	0f0H
	DB	0e5H
	DB	0e4H
	DB	0e5H
	DB	0ebH
	DB	0e5H
	DB	0edH
	DB	0edH
	DB	0e0H
	DB	0ffH
	DB	020H
	DB	0eeH
	DB	0f8H
	DB	0e8H
	DB	0e1H
	DB	0eaH
	DB	0e0H
	DB	00H
	ORG $+178
	DW	0ffffH
	DW	0ffffH
	DD	0ffffffb4H
	DB	0cdH
	DB	0e5H
	DB	0eeH
	DB	0efH
	DB	0f0H
	DB	0e5H
	DB	0e4H
	DB	0e5H
	DB	0ebH
	DB	0e5H
	DB	0edH
	DB	0edH
	DB	0e0H
	DB	0ffH
	DB	020H
	DB	0eeH
	DB	0f8H
	DB	0e8H
	DB	0e1H
	DB	0eaH
	DB	0e0H
	DB	00H
	ORG $+178
	DW	0ffffH
	DW	0ffffH
	DD	0ffffffb5H
	DB	0cdH
	DB	0e5H
	DB	0eeH
	DB	0efH
	DB	0f0H
	DB	0e5H
	DB	0e4H
	DB	0e5H
	DB	0ebH
	DB	0e5H
	DB	0edH
	DB	0edH
	DB	0e0H
	DB	0ffH
	DB	020H
	DB	0eeH
	DB	0f8H
	DB	0e8H
	DB	0e1H
	DB	0eaH
	DB	0e0H
	DB	00H
	ORG $+178
	DW	0ffffH
	DW	0ffffH
	DD	0ffffffb6H
	DB	0cdH
	DB	0e5H
	DB	0eeH
	DB	0efH
	DB	0f0H
	DB	0e5H
	DB	0e4H
	DB	0e5H
	DB	0ebH
	DB	0e5H
	DB	0edH
	DB	0edH
	DB	0e0H
	DB	0ffH
	DB	020H
	DB	0eeH
	DB	0f8H
	DB	0e8H
	DB	0e1H
	DB	0eaH
	DB	0e0H
	DB	00H
	ORG $+178
	DW	0ffffH
	DW	0ffffH
	DD	0ffffffb7H
	DB	0cdH
	DB	0e5H
	DB	0eeH
	DB	0efH
	DB	0f0H
	DB	0e5H
	DB	0e4H
	DB	0e5H
	DB	0ebH
	DB	0e5H
	DB	0edH
	DB	0edH
	DB	0e0H
	DB	0ffH
	DB	020H
	DB	0eeH
	DB	0f8H
	DB	0e8H
	DB	0e1H
	DB	0eaH
	DB	0e0H
	DB	00H
	ORG $+178
	DW	0ffffH
	DW	0ffffH
	DD	0ffffffb8H
	DB	0cdH
	DB	0e5H
	DB	0eeH
	DB	0efH
	DB	0f0H
	DB	0e5H
	DB	0e4H
	DB	0e5H
	DB	0ebH
	DB	0e5H
	DB	0edH
	DB	0edH
	DB	0e0H
	DB	0ffH
	DB	020H
	DB	0eeH
	DB	0f8H
	DB	0e8H
	DB	0e1H
	DB	0eaH
	DB	0e0H
	DB	00H
	ORG $+178
	DW	0ffffH
	DW	0ffffH
	DD	0ffffffb9H
	DB	0cdH
	DB	0e5H
	DB	0eeH
	DB	0efH
	DB	0f0H
	DB	0e5H
	DB	0e4H
	DB	0e5H
	DB	0ebH
	DB	0e5H
	DB	0edH
	DB	0edH
	DB	0e0H
	DB	0ffH
	DB	020H
	DB	0eeH
	DB	0f8H
	DB	0e8H
	DB	0e1H
	DB	0eaH
	DB	0e0H
	DB	00H
	ORG $+178
	DW	0ffffH
	DW	0ffffH
	DD	0ffffffa6H
	DB	0cdH
	DB	0e5H
	DB	0eeH
	DB	0efH
	DB	0f0H
	DB	0e5H
	DB	0e4H
	DB	0e5H
	DB	0ebH
	DB	0e5H
	DB	0edH
	DB	0edH
	DB	0e0H
	DB	0ffH
	DB	020H
	DB	0eeH
	DB	0f8H
	DB	0e8H
	DB	0e1H
	DB	0eaH
	DB	0e0H
	DB	00H
	ORG $+178
	DW	0ffffH
	DW	0ffffH
	DD	0ffffffa7H
	DB	0cdH
	DB	0e5H
	DB	0eeH
	DB	0efH
	DB	0f0H
	DB	0e5H
	DB	0e4H
	DB	0e5H
	DB	0ebH
	DB	0e5H
	DB	0edH
	DB	0edH
	DB	0e0H
	DB	0ffH
	DB	020H
	DB	0eeH
	DB	0f8H
	DB	0e8H
	DB	0e1H
	DB	0eaH
	DB	0e0H
	DB	00H
	ORG $+178
	DW	0ffffH
	DW	0ffffH
	DD	0ffffffa8H
	DB	0cdH
	DB	0e5H
	DB	0eeH
	DB	0efH
	DB	0f0H
	DB	0e5H
	DB	0e4H
	DB	0e5H
	DB	0ebH
	DB	0e5H
	DB	0edH
	DB	0edH
	DB	0e0H
	DB	0ffH
	DB	020H
	DB	0eeH
	DB	0f8H
	DB	0e8H
	DB	0e1H
	DB	0eaH
	DB	0e0H
	DB	00H
	ORG $+178
	DW	0ffffH
	DW	0ffffH
	DD	0ffffffa9H
	DB	0cdH
	DB	0e5H
	DB	0eeH
	DB	0efH
	DB	0f0H
	DB	0e5H
	DB	0e4H
	DB	0e5H
	DB	0ebH
	DB	0e5H
	DB	0edH
	DB	0edH
	DB	0e0H
	DB	0ffH
	DB	020H
	DB	0eeH
	DB	0f8H
	DB	0e8H
	DB	0e1H
	DB	0eaH
	DB	0e0H
	DB	00H
	ORG $+178
	DW	0ffffH
	DW	0ffffH
	DD	0ffffffaaH
	DB	0cdH
	DB	0e5H
	DB	0eeH
	DB	0efH
	DB	0f0H
	DB	0e5H
	DB	0e4H
	DB	0e5H
	DB	0ebH
	DB	0e5H
	DB	0edH
	DB	0edH
	DB	0e0H
	DB	0ffH
	DB	020H
	DB	0eeH
	DB	0f8H
	DB	0e8H
	DB	0e1H
	DB	0eaH
	DB	0e0H
	DB	00H
	ORG $+178
	DW	0ffffH
	DW	0ffffH
	DD	0ffffffabH
	DB	0cdH
	DB	0e5H
	DB	0eeH
	DB	0efH
	DB	0f0H
	DB	0e5H
	DB	0e4H
	DB	0e5H
	DB	0ebH
	DB	0e5H
	DB	0edH
	DB	0edH
	DB	0e0H
	DB	0ffH
	DB	020H
	DB	0eeH
	DB	0f8H
	DB	0e8H
	DB	0e1H
	DB	0eaH
	DB	0e0H
	DB	00H
	ORG $+178
	DW	0ffffH
	DW	0ffffH
	DD	0ffffffacH
	DB	0cdH
	DB	0e5H
	DB	0eeH
	DB	0efH
	DB	0f0H
	DB	0e5H
	DB	0e4H
	DB	0e5H
	DB	0ebH
	DB	0e5H
	DB	0edH
	DB	0edH
	DB	0e0H
	DB	0ffH
	DB	020H
	DB	0eeH
	DB	0f8H
	DB	0e8H
	DB	0e1H
	DB	0eaH
	DB	0e0H
	DB	00H
	ORG $+178
	DW	0ffffH
	DW	0ffffH
	DD	0ffffffadH
	DB	0cdH
	DB	0e5H
	DB	0eeH
	DB	0efH
	DB	0f0H
	DB	0e5H
	DB	0e4H
	DB	0e5H
	DB	0ebH
	DB	0e5H
	DB	0edH
	DB	0edH
	DB	0e0H
	DB	0ffH
	DB	020H
	DB	0eeH
	DB	0f8H
	DB	0e8H
	DB	0e1H
	DB	0eaH
	DB	0e0H
	DB	00H
	ORG $+178
	DW	0ffffH
	DW	0ffffH
	DD	0ffffffaeH
	DB	0cdH
	DB	0e5H
	DB	0eeH
	DB	0efH
	DB	0f0H
	DB	0e5H
	DB	0e4H
	DB	0e5H
	DB	0ebH
	DB	0e5H
	DB	0edH
	DB	0edH
	DB	0e0H
	DB	0ffH
	DB	020H
	DB	0eeH
	DB	0f8H
	DB	0e8H
	DB	0e1H
	DB	0eaH
	DB	0e0H
	DB	00H
	ORG $+178
	DW	0ffffH
	DW	0ffffH
	DD	0ffffffafH
	DB	0cdH
	DB	0e5H
	DB	0eeH
	DB	0efH
	DB	0f0H
	DB	0e5H
	DB	0e4H
	DB	0e5H
	DB	0ebH
	DB	0e5H
	DB	0edH
	DB	0edH
	DB	0e0H
	DB	0ffH
	DB	020H
	DB	0eeH
	DB	0f8H
	DB	0e8H
	DB	0e1H
	DB	0eaH
	DB	0e0H
	DB	00H
	ORG $+178
	DW	0ffffH
	DW	0ffffH
	DD	064H
	DB	0cfH
	DB	0e0H
	DB	0f0H
	DB	0e0H
	DB	0ecH
	DB	0e5H
	DB	0f2H
	DB	0f0H
	DB	020H
	DB	02dH
	DB	069H
	DB	06eH
	DB	020H
	DB	0e4H
	DB	0eeH
	DB	0ebH
	DB	0e6H
	DB	0e5H
	DB	0edH
	DB	020H
	DB	0e1H
	DB	0fbH
	DB	0f2H
	DB	0fcH
	DB	020H
	DB	0e7H
	DB	0e0H
	DB	0e4H
	DB	0e0H
	DB	0edH
	DB	00H
	ORG $+169
	DW	0ffffH
	DW	0ffffH
	DD	065H
	DB	0ceH
	DB	0f8H
	DB	0e8H
	DB	0e1H
	DB	0eaH
	DB	0e0H
	DB	02cH
	DB	020H
	DB	0efH
	DB	0e0H
	DB	0f0H
	DB	0e0H
	DB	0ecH
	DB	0e5H
	DB	0f2H
	DB	0f0H
	DB	0eeH
	DB	0e2H
	DB	020H
	DB	0f1H
	DB	0ebH
	DB	0e8H
	DB	0f8H
	DB	0eaH
	DB	0eeH
	DB	0ecH
	DB	020H
	DB	0ecH
	DB	0edH
	DB	0eeH
	DB	0e3H
	DB	0eeH
	DB	00H
	ORG $+167
	DW	0ffffH
	DW	0ffffH
	DD	0ffffff9aH
	DB	0cdH
	DB	0e5H
	DB	0eeH
	DB	0efH
	DB	0f0H
	DB	0e5H
	DB	0e4H
	DB	0e5H
	DB	0ebH
	DB	0e5H
	DB	0edH
	DB	0edH
	DB	0e0H
	DB	0ffH
	DB	020H
	DB	0eeH
	DB	0f8H
	DB	0e8H
	DB	0e1H
	DB	0eaH
	DB	0e0H
	DB	00H
	ORG $+178
	DW	0ffffH
	DW	0ffffH
	DD	0ffffff99H
	DB	0cdH
	DB	0e5H
	DB	0eeH
	DB	0efH
	DB	0f0H
	DB	0e5H
	DB	0e4H
	DB	0e5H
	DB	0ebH
	DB	0e5H
	DB	0edH
	DB	0edH
	DB	0e0H
	DB	0ffH
	DB	020H
	DB	0eeH
	DB	0f8H
	DB	0e8H
	DB	0e1H
	DB	0eaH
	DB	0e0H
	DB	00H
	ORG $+178
	DW	0ffffH
	DW	0ffffH
	DD	068H
	DB	0cfH
	DB	0f0H
	DB	0e5H
	DB	0e2H
	DB	0fbH
	DB	0f8H
	DB	0e5H
	DB	0edH
	DB	0e0H
	DB	020H
	DB	0e4H
	DB	0ebH
	DB	0e8H
	DB	0edH
	DB	0e0H
	DB	020H
	DB	0e2H
	DB	0f5H
	DB	0eeH
	DB	0e4H
	DB	0edH
	DB	0eeH
	DB	0e3H
	DB	0eeH
	DB	020H
	DB	0efH
	DB	0e0H
	DB	0f0H
	DB	0e0H
	DB	0ecH
	DB	0e5H
	DB	0f2H
	DB	0f0H
	DB	0e0H
	DB	00H
	ORG $+165
	DW	0ffffH
	DW	0ffffH
	DD	0ffffff97H
	DB	0cdH
	DB	0e5H
	DB	0eeH
	DB	0efH
	DB	0f0H
	DB	0e5H
	DB	0e4H
	DB	0e5H
	DB	0ebH
	DB	0e5H
	DB	0edH
	DB	0edH
	DB	0e0H
	DB	0ffH
	DB	020H
	DB	0eeH
	DB	0f8H
	DB	0e8H
	DB	0e1H
	DB	0eaH
	DB	0e0H
	DB	00H
	ORG $+178
	DW	0ffffH
	DW	0ffffH
	DD	0ffffff96H
	DB	0cdH
	DB	0e5H
	DB	0eeH
	DB	0efH
	DB	0f0H
	DB	0e5H
	DB	0e4H
	DB	0e5H
	DB	0ebH
	DB	0e5H
	DB	0edH
	DB	0edH
	DB	0e0H
	DB	0ffH
	DB	020H
	DB	0eeH
	DB	0f8H
	DB	0e8H
	DB	0e1H
	DB	0eaH
	DB	0e0H
	DB	00H
	ORG $+178
	DW	0ffffH
	DW	0ffffH
	DD	0ffffff95H
	DB	0cdH
	DB	0e5H
	DB	0eeH
	DB	0efH
	DB	0f0H
	DB	0e5H
	DB	0e4H
	DB	0e5H
	DB	0ebH
	DB	0e5H
	DB	0edH
	DB	0edH
	DB	0e0H
	DB	0ffH
	DB	020H
	DB	0eeH
	DB	0f8H
	DB	0e8H
	DB	0e1H
	DB	0eaH
	DB	0e0H
	DB	00H
	ORG $+178
	DW	0ffffH
	DW	0ffffH
	DD	0ffffff94H
	DB	0cdH
	DB	0e5H
	DB	0eeH
	DB	0efH
	DB	0f0H
	DB	0e5H
	DB	0e4H
	DB	0e5H
	DB	0ebH
	DB	0e5H
	DB	0edH
	DB	0edH
	DB	0e0H
	DB	0ffH
	DB	020H
	DB	0eeH
	DB	0f8H
	DB	0e8H
	DB	0e1H
	DB	0eaH
	DB	0e0H
	DB	00H
	ORG $+178
	DW	0ffffH
	DW	0ffffH
	DD	0ffffff93H
	DB	0cdH
	DB	0e5H
	DB	0eeH
	DB	0efH
	DB	0f0H
	DB	0e5H
	DB	0e4H
	DB	0e5H
	DB	0ebH
	DB	0e5H
	DB	0edH
	DB	0edH
	DB	0e0H
	DB	0ffH
	DB	020H
	DB	0eeH
	DB	0f8H
	DB	0e8H
	DB	0e1H
	DB	0eaH
	DB	0e0H
	DB	00H
	ORG $+178
	DW	0ffffH
	DW	0ffffH
	DD	06eH
	DB	0ceH
	DB	0f8H
	DB	0e8H
	DB	0e1H
	DB	0eaH
	DB	0e0H
	DB	020H
	DB	0efH
	DB	0f0H
	DB	0e8H
	DB	020H
	DB	0eeH
	DB	0f2H
	DB	0eaH
	DB	0f0H
	DB	0fbH
	DB	0f2H
	DB	0e8H
	DB	0e8H
	DB	020H
	DB	0f4H
	DB	0e0H
	DB	0e9H
	DB	0ebH
	DB	0e0H
	DB	020H
	DB	0f1H
	DB	020H
	DB	0e8H
	DB	0f1H
	DB	0f5H
	DB	0eeH
	DB	0e4H
	DB	0edH
	DB	0fbH
	DB	0ecH
	DB	020H
	DB	0eaH
	DB	0eeH
	DB	0e4H
	DB	0eeH
	DB	0ecH
	DB	020H
	DB	028H
	DB	02dH
	DB	069H
	DB	06eH
	DB	029H
	DB	00H
	ORG $+151
	DW	0ffffH
	DW	0ffffH
	DD	06fH
	DB	0cdH
	DB	0e5H
	DB	0e4H
	DB	0eeH
	DB	0efH
	DB	0f3H
	DB	0f1H
	DB	0f2H
	DB	0e8H
	DB	0ecH
	DB	0fbH
	DB	0e9H
	DB	020H
	DB	0f1H
	DB	0e8H
	DB	0ecH
	DB	0e2H
	DB	0eeH
	DB	0ebH
	DB	020H
	DB	0e2H
	DB	020H
	DB	0e8H
	DB	0f1H
	DB	0f5H
	DB	0eeH
	DB	0e4H
	DB	0edH
	DB	0eeH
	DB	0ecH
	DB	020H
	DB	0f4H
	DB	0e0H
	DB	0e9H
	DB	0ebH
	DB	0e5H
	DB	020H
	DB	028H
	DB	02dH
	DB	069H
	DB	06eH
	DB	029H
	DB	00H
	ORG $+157
	DW	0ffffH
	DW	0ffffH
	DD	070H
	DB	0ceH
	DB	0f8H
	DB	0e8H
	DB	0e1H
	DB	0eaH
	DB	0e0H
	DB	020H
	DB	0efH
	DB	0f0H
	DB	0e8H
	DB	020H
	DB	0f1H
	DB	0eeH
	DB	0e7H
	DB	0e4H
	DB	0e0H
	DB	0edH
	DB	0e8H
	DB	0e8H
	DB	020H
	DB	0f4H
	DB	0e0H
	DB	0e9H
	DB	0ebH
	DB	0e0H
	DB	020H
	DB	0efH
	DB	0f0H
	DB	0eeH
	DB	0f2H
	DB	0eeH
	DB	0eaH
	DB	0eeH
	DB	0ebH
	DB	0e0H
	DB	028H
	DB	02dH
	DB	06cH
	DB	06fH
	DB	067H
	DB	029H
	DB	00H
	ORG $+158
	DW	0ffffH
	DW	0ffffH
	DD	071H
	DB	0ceH
	DB	0f8H
	DB	0e8H
	DB	0e1H
	DB	0eaH
	DB	0e0H
	DB	020H
	DB	0efH
	DB	0f0H
	DB	0e8H
	DB	020H
	DB	0eeH
	DB	0f2H
	DB	0eaH
	DB	0f0H
	DB	0fbH
	DB	0f2H
	DB	0e8H
	DB	0e8H
	DB	020H
	DB	0f4H
	DB	0e0H
	DB	0e9H
	DB	0ebH
	DB	0e0H
	DB	020H
	DB	0e4H
	DB	0ebH
	DB	0ffH
	DB	020H
	DB	0e2H
	DB	0fbH
	DB	0e2H
	DB	0eeH
	DB	0e4H
	DB	0e0H
	DB	00H
	ORG $+163
	DW	0ffffH
	DW	0ffffH
	DD	072H
	DB	0ceH
	DB	0f8H
	DB	0e8H
	DB	0e1H
	DB	0eaH
	DB	0e0H
	DB	02cH
	DB	0efH
	DB	0f0H
	DB	0e8H
	DB	020H
	DB	0f7H
	DB	0f2H
	DB	0e5H
	DB	0edH
	DB	0e8H
	DB	0e8H
	DB	020H
	DB	028H
	DB	0eeH
	DB	0f2H
	DB	0f3H
	DB	0f1H
	DB	0f2H
	DB	0e2H
	DB	0f3H
	DB	0e5H
	DB	0f2H
	DB	020H
	DB	0efH
	DB	0e0H
	DB	0f0H
	DB	0edH
	DB	0fbH
	DB	0e9H
	DB	020H
	DB	0f1H
	DB	0e8H
	DB	0ecH
	DB	0e2H
	DB	0eeH
	DB	0ebH
	DB	020H
	DB	028H
	DB	027H
	DB	029H
	DB	020H
	DB	0e4H
	DB	0ebH
	DB	0ffH
	DB	020H
	DB	0f1H
	DB	0f2H
	DB	0f0H
	DB	0eeH
	DB	0eaH
	DB	0e8H
	DB	029H
	DB	00H
	ORG $+141
	DW	0ffffH
	DW	0ffffH
	DD	073H
	DB	0ceH
	DB	0f8H
	DB	0e8H
	DB	0e1H
	DB	0eaH
	DB	0e0H
	DB	020H
	DB	0f1H
	DB	0eeH
	DB	0e7H
	DB	0e4H
	DB	0e0H
	DB	0edH
	DB	0e8H
	DB	0ffH
	DB	020H
	DB	0f4H
	DB	0e0H
	DB	0e9H
	DB	0ebH
	DB	0e0H
	DB	020H
	DB	0e4H
	DB	0ebH
	DB	0ffH
	DB	020H
	DB	0e3H
	DB	0e5H
	DB	0edH
	DB	0e5H
	DB	0f0H
	DB	0e0H
	DB	0f6H
	DB	0e8H
	DB	0e8H
	DB	00H
	ORG $+164
	DW	0ffffH
	DW	0ffffH
	DD	0ffffff8cH
	DB	0cdH
	DB	0e5H
	DB	0eeH
	DB	0efH
	DB	0f0H
	DB	0e5H
	DB	0e4H
	DB	0e5H
	DB	0ebH
	DB	0e5H
	DB	0edH
	DB	0edH
	DB	0e0H
	DB	0ffH
	DB	020H
	DB	0eeH
	DB	0f8H
	DB	0e8H
	DB	0e1H
	DB	0eaH
	DB	0e0H
	DB	00H
	ORG $+178
	DW	0ffffH
	DW	0ffffH
	DD	0ffffff8bH
	DB	0cdH
	DB	0e5H
	DB	0eeH
	DB	0efH
	DB	0f0H
	DB	0e5H
	DB	0e4H
	DB	0e5H
	DB	0ebH
	DB	0e5H
	DB	0edH
	DB	0edH
	DB	0e0H
	DB	0ffH
	DB	020H
	DB	0eeH
	DB	0f8H
	DB	0e8H
	DB	0e1H
	DB	0eaH
	DB	0e0H
	DB	00H
	ORG $+178
	DW	0ffffH
	DW	0ffffH
	DD	0ffffff8aH
	DB	0cdH
	DB	0e5H
	DB	0eeH
	DB	0efH
	DB	0f0H
	DB	0e5H
	DB	0e4H
	DB	0e5H
	DB	0ebH
	DB	0e5H
	DB	0edH
	DB	0edH
	DB	0e0H
	DB	0ffH
	DB	020H
	DB	0eeH
	DB	0f8H
	DB	0e8H
	DB	0e1H
	DB	0eaH
	DB	0e0H
	DB	00H
	ORG $+178
	DW	0ffffH
	DW	0ffffH
	DD	0ffffff89H
	DB	0cdH
	DB	0e5H
	DB	0eeH
	DB	0efH
	DB	0f0H
	DB	0e5H
	DB	0e4H
	DB	0e5H
	DB	0ebH
	DB	0e5H
	DB	0edH
	DB	0edH
	DB	0e0H
	DB	0ffH
	DB	020H
	DB	0eeH
	DB	0f8H
	DB	0e8H
	DB	0e1H
	DB	0eaH
	DB	0e0H
	DB	00H
	ORG $+178
	DW	0ffffH
	DW	0ffffH
	DD	078H
	DB	0cfH
	DB	0f0H
	DB	0e5H
	DB	0e2H
	DB	0fbH
	DB	0f8H
	DB	0e5H
	DB	0edH
	DB	020H
	DB	0f0H
	DB	0e0H
	DB	0e7H
	DB	0ecH
	DB	0e5H
	DB	0f0H
	DB	020H
	DB	0f2H
	DB	0e0H
	DB	0e1H
	DB	0ebH
	DB	0e8H
	DB	0f6H
	DB	0fbH
	DB	020H
	DB	0ebH
	DB	0e5H
	DB	0eaH
	DB	0f1H
	DB	0e5H
	DB	0ecH
	DB	00H
	ORG $+169
	DW	0ffffH
	DW	0ffffH
	DD	079H
	DB	00H
	ORG $+199
	DW	0ffffH
	DW	0ffffH
	DD	07aH
	DB	0cfH
	DB	0f0H
	DB	0e5H
	DB	0e2H
	DB	0fbH
	DB	0f8H
	DB	0e5H
	DB	0edH
	DB	020H
	DB	0f0H
	DB	0e0H
	DB	0e7H
	DB	0ecH
	DB	0e5H
	DB	0f0H
	DB	020H
	DB	0f2H
	DB	0e0H
	DB	0e1H
	DB	0ebH
	DB	0e8H
	DB	0f6H
	DB	0fbH
	DB	020H
	DB	0e8H
	DB	0e4H
	DB	0e5H
	DB	0edH
	DB	0f2H
	DB	0e8H
	DB	0f4H
	DB	0e8H
	DB	0eaH
	DB	0e0H
	DB	0f2H
	DB	0eeH
	DB	0f0H
	DB	0eeH
	DB	0e2H
	DB	00H
	ORG $+160
	DW	0ffffH
	DW	0ffffH
	DD	07bH
	DB	0cfH
	DB	0f0H
	DB	0e5H
	DB	0e2H
	DB	0fbH
	DB	0f8H
	DB	0e5H
	DB	0edH
	DB	0e0H
	DB	020H
	DB	0e4H
	DB	0ebH
	DB	0e8H
	DB	0edH
	DB	0e0H
	DB	020H
	DB	0f1H
	DB	0f2H
	DB	0f0H
	DB	0eeH
	DB	0eaH
	DB	0e8H
	DB	00H
	ORG $+177
	DW	0ffffH
	DW	0ffffH
	DD	07cH
	DB	0cfH
	DB	0f0H
	DB	0eeH
	DB	0efH
	DB	0f3H
	DB	0f9H
	DB	0e5H
	DB	0edH
	DB	0eeH
	DB	020H
	DB	0eaH
	DB	0ebH
	DB	0feH
	DB	0f7H
	DB	0e5H
	DB	0e2H
	DB	0eeH
	DB	0e5H
	DB	020H
	DB	0f1H
	DB	0ebH
	DB	0eeH
	DB	0e2H
	DB	0eeH
	DB	020H
	DB	0e4H
	DB	0ebH
	DB	0ffH
	DB	020H
	DB	0f4H
	DB	0f3H
	DB	0edH
	DB	0eaH
	DB	0f6H
	DB	0e8H
	DB	0e8H
	DB	00H
	ORG $+163
	DW	0ffffH
	DW	0ffffH
	DD	07dH
	DB	0cfH
	DB	0e5H
	DB	0f0H
	DB	0e5H
	DB	0eeH
	DB	0e1H
	DB	0faH
	DB	0ffH
	DB	0e2H
	DB	0ebH
	DB	0e5H
	DB	0edH
	DB	0e8H
	DB	0e5H
	DB	020H
	DB	0f4H
	DB	0f3H
	DB	0edH
	DB	0eaH
	DB	0f6H
	DB	0e8H
	DB	0e8H
	DB	00H
	ORG $+177
	DW	0ffffH
	DW	0ffffH
	DD	07eH
	DB	0cfH
	DB	0e5H
	DB	0f0H
	DB	0e5H
	DB	0eeH
	DB	0e1H
	DB	0faH
	DB	0ffH
	DB	0e2H
	DB	0ebH
	DB	0e5H
	DB	0edH
	DB	0e8H
	DB	0e5H
	DB	020H
	DB	0efH
	DB	0e5H
	DB	0f0H
	DB	0e5H
	DB	0ecH
	DB	0e5H
	DB	0edH
	DB	0edH
	DB	0eeH
	DB	0e9H
	DB	00H
	ORG $+174
	DW	0ffffH
	DW	0ffffH
	DD	07fH
	DB	0cdH
	DB	0e5H
	DB	020H
	DB	0f3H
	DB	0eaH
	DB	0e0H
	DB	0e7H
	DB	0e0H
	DB	0edH
	DB	020H
	DB	0f2H
	DB	0e8H
	DB	0efH
	DB	020H
	DB	0e4H
	DB	0ebH
	DB	0ffH
	DB	020H
	DB	0f4H
	DB	0f3H
	DB	0edH
	DB	0eaH
	DB	0f6H
	DB	0e8H
	DB	0e8H
	DB	00H
	ORG $+174
	DW	0ffffH
	DW	0ffffH
	DD	080H
	DB	0cdH
	DB	0e5H
	DB	020H
	DB	0f0H
	DB	0e0H
	DB	0f1H
	DB	0efH
	DB	0eeH
	DB	0e7H
	DB	0edH
	DB	0e0H
	DB	0edH
	DB	0e0H
	DB	020H
	DB	0ebH
	DB	0e5H
	DB	0eaH
	DB	0f1H
	DB	0e5H
	DB	0ecH
	DB	0e0H
	DB	00H
	ORG $+178
	DW	0ffffH
	DW	0ffffH
	DD	081H
	DB	0cdH
	DB	0e5H
	DB	0e2H
	DB	0e5H
	DB	0f0H
	DB	0edH
	DB	0fbH
	DB	0e9H
	DB	020H
	DB	0e4H
	DB	0e8H
	DB	0e0H
	DB	0efH
	DB	0e0H
	DB	0e7H
	DB	0eeH
	DB	0edH
	DB	020H
	DB	0f2H
	DB	0e8H
	DB	0efH
	DB	0e0H
	DB	020H
	DB	062H
	DB	079H
	DB	074H
	DB	065H
	DB	00H
	ORG $+172
	DW	0ffffH
	DW	0ffffH
	DD	082H
	DB	0cdH
	DB	0e5H
	DB	0e2H
	DB	0e5H
	DB	0f0H
	DB	0edH
	DB	0fbH
	DB	0e9H
	DB	020H
	DB	0e4H
	DB	0e8H
	DB	0e0H
	DB	0efH
	DB	0e0H
	DB	0e7H
	DB	0eeH
	DB	0edH
	DB	020H
	DB	0f2H
	DB	0e8H
	DB	0efH
	DB	0e0H
	DB	020H
	DB	069H
	DB	06eH
	DB	074H
	DB	065H
	DB	067H
	DB	065H
	DB	072H
	DB	00H
	ORG $+169
	DW	0ffffH
	DW	0ffffH
	DD	083H
	DB	0cdH
	DB	0e5H
	DB	0e2H
	DB	0e5H
	DB	0f0H
	DB	0edH
	DB	0fbH
	DB	0e9H
	DB	020H
	DB	0e4H
	DB	0e8H
	DB	0e0H
	DB	0efH
	DB	0e0H
	DB	0e7H
	DB	0eeH
	DB	0edH
	DB	020H
	DB	0f2H
	DB	0e8H
	DB	0efH
	DB	0e0H
	DB	020H
	DB	066H
	DB	06cH
	DB	06fH
	DB	061H
	DB	074H
	DB	00H
	ORG $+171
	DW	0ffffH
	DW	0ffffH
	DD	084H
	DB	0cbH
	DB	0e8H
	DB	0f2H
	DB	0e5H
	DB	0f0H
	DB	0e0H
	DB	0ebH
	DB	020H
	DB	0edH
	DB	0e5H
	DB	020H
	DB	0f1H
	DB	0eeH
	DB	0eeH
	DB	0f2H
	DB	0e2H
	DB	0e5H
	DB	0f2H
	DB	0f1H
	DB	0f2H
	DB	0e2H
	DB	0f3H
	DB	0e5H
	DB	0f2H
	DB	02cH
	DB	020H
	DB	0f2H
	DB	0e8H
	DB	0efH
	DB	0f3H
	DB	020H
	DB	0efH
	DB	0e5H
	DB	0f0H
	DB	0e5H
	DB	0ecH
	DB	0e5H
	DB	0edH
	DB	0edH
	DB	0eeH
	DB	0e9H
	DB	00H
	ORG $+158
	DW	0ffffH
	DW	0ffffH
	DD	085H
	DB	0cdH
	DB	0e5H
	DB	0eeH
	DB	0e1H
	DB	0faH
	DB	0ffH
	DB	0e2H
	DB	0ebH
	DB	0e5H
	DB	0edH
	DB	0edH
	DB	0e0H
	DB	0ffH
	DB	020H
	DB	0efH
	DB	0e5H
	DB	0f0H
	DB	0e5H
	DB	0ecH
	DB	0e5H
	DB	0edH
	DB	0edH
	DB	0e0H
	DB	0ffH
	DB	00H
	ORG $+175
	DW	0ffffH
	DW	0ffffH
	DD	086H
	DB	0cdH
	DB	0e0H
	DB	0e7H
	DB	0e2H
	DB	0e0H
	DB	0edH
	DB	0e8H
	DB	0e5H
	DB	020H
	DB	0e2H
	DB	0edH
	DB	0e5H
	DB	0f8H
	DB	0edH
	DB	0e5H
	DB	0e9H
	DB	020H
	DB	0f4H
	DB	0f3H
	DB	0edH
	DB	0eaH
	DB	0f6H
	DB	0e8H
	DB	0e8H
	DB	020H
	DB	0efH
	DB	0f0H
	DB	0e5H
	DB	0e2H
	DB	0fbH
	DB	0f8H
	DB	0e0H
	DB	0e5H
	DB	0f2H
	DB	020H
	DB	0e4H
	DB	0eeH
	DB	0efH
	DB	0f3H
	DB	0f1H
	DB	0f2H
	DB	0e8H
	DB	0ecH
	DB	0fbH
	DB	0e9H
	DB	020H
	DB	0f0H
	DB	0e0H
	DB	0e7H
	DB	0ecH
	DB	0e5H
	DB	0f0H
	DB	00H
	ORG $+147
	DW	0ffffH
	DW	0ffffH
	DD	087H
	DB	0ceH
	DB	0f2H
	DB	0f1H
	DB	0f3H
	DB	0f1H
	DB	0f2H
	DB	0e2H
	DB	0f3H
	DB	0e5H
	DB	0f2H
	DB	020H
	DB	0e7H
	DB	0e0H
	DB	0eaH
	DB	0f0H
	DB	0fbH
	DB	0e2H
	DB	0e0H
	DB	0feH
	DB	0f9H
	DB	0e0H
	DB	0ffH
	DB	020H
	DB	0f1H
	DB	0eaH
	DB	0eeH
	DB	0e1H
	DB	0eaH
	DB	0e0H
	DB	020H
	DB	0e2H
	DB	020H
	DB	0efH
	DB	0eeH
	DB	0f1H
	DB	0ebH
	DB	0e5H
	DB	0e4H
	DB	0edH
	DB	0e5H
	DB	0e9H
	DB	020H
	DB	0f4H
	DB	0f3H
	DB	0edH
	DB	0eaH
	DB	0f6H
	DB	0e8H
	DB	0e8H
	DB	02cH
	DB	020H
	DB	0f1H
	DB	0ecH
	DB	02eH
	DB	020H
	DB	0f1H
	DB	0f2H
	DB	0f0H
	DB	0eeH
	DB	0eaH
	DB	0f3H
	DB	00H
	ORG $+138
	DW	0ffffH
	DW	0ffffH
	DD	088H
	DB	0ceH
	DB	0f2H
	DB	0f1H
	DB	0f3H
	DB	0f1H
	DB	0f2H
	DB	0e2H
	DB	0f3H
	DB	0e5H
	DB	0f2H
	DB	020H
	DB	0eeH
	DB	0f2H
	DB	0eaH
	DB	0f0H
	DB	0fbH
	DB	0e2H
	DB	0e0H
	DB	0feH
	DB	0f9H
	DB	0e0H
	DB	0ffH
	DB	020H
	DB	0f1H
	DB	0eaH
	DB	0eeH
	DB	0e1H
	DB	0eaH
	DB	0e0H
	DB	020H
	DB	0e2H
	DB	020H
	DB	0efH
	DB	0eeH
	DB	0f1H
	DB	0ebH
	DB	0e5H
	DB	0e4H
	DB	0edH
	DB	0e5H
	DB	0e9H
	DB	020H
	DB	0f4H
	DB	0f3H
	DB	0edH
	DB	0eaH
	DB	0f6H
	DB	0e8H
	DB	0e8H
	DB	02cH
	DB	020H
	DB	0f1H
	DB	0ecH
	DB	02eH
	DB	020H
	DB	0f1H
	DB	0f2H
	DB	0f0H
	DB	0eeH
	DB	0eaH
	DB	0f3H
	DB	00H
	ORG $+138
	DW	0ffffH
	DW	0ffffH
	DD	089H
	DB	0cfH
	DB	0e5H
	DB	0f0H
	DB	0e5H
	DB	0ecH
	DB	0e5H
	DB	0edH
	DB	0edH
	DB	0e0H
	DB	0ffH
	DB	020H
	DB	0edH
	DB	0e5H
	DB	020H
	DB	0ecH
	DB	0eeH
	DB	0e6H
	DB	0e5H
	DB	0f2H
	DB	020H
	DB	0e1H
	DB	0fbH
	DB	0f2H
	DB	0fcH
	DB	020H
	DB	0e3H
	DB	0ebH
	DB	0eeH
	DB	0e1H
	DB	0e0H
	DB	0ebH
	DB	0fcH
	DB	0edH
	DB	0eeH
	DB	0e9H
	DB	00H
	ORG $+164
	DW	0ffffH
	DW	0ffffH
	DD	08aH
	DB	0cdH
	DB	0e5H
	DB	0efH
	DB	0f0H
	DB	0e8H
	DB	0f1H
	DB	0e2H
	DB	0eeH
	DB	0e5H
	DB	0edH
	DB	0eeH
	DB	020H
	DB	0e7H
	DB	0edH
	DB	0e0H
	DB	0f7H
	DB	0e5H
	DB	0edH
	DB	0e8H
	DB	0e5H
	DB	020H
	DB	0eaH
	DB	0eeH
	DB	0edH
	DB	0f1H
	DB	0f2H
	DB	0e0H
	DB	0edH
	DB	0f2H
	DB	0e5H
	DB	00H
	ORG $+169
	DW	0ffffH
	DW	0ffffH
	DD	08bH
	DB	0caH
	DB	0eeH
	DB	0edH
	DB	0f1H
	DB	0f2H
	DB	0e0H
	DB	0edH
	DB	0f2H
	DB	0e5H
	DB	020H
	DB	0edH
	DB	0e5H
	DB	0ebH
	DB	0fcH
	DB	0e7H
	DB	0ffH
	DB	020H
	DB	0efH
	DB	0f0H
	DB	0e8H
	DB	0f1H
	DB	0e2H
	DB	0eeH
	DB	0e8H
	DB	0f2H
	DB	0fcH
	DB	020H
	DB	0e7H
	DB	0edH
	DB	0e0H
	DB	0f7H
	DB	0e5H
	DB	0edH
	DB	0e8H
	DB	0e5H
	DB	00H
	ORG $+164
	DW	0ffffH
	DW	0ffffH
	DD	08cH
	DB	0d1H
	DB	0f0H
	DB	0e0H
	DB	0e2H
	DB	0edH
	DB	0e5H
	DB	0edH
	DB	0e8H
	DB	0e5H
	DB	020H
	DB	0f1H
	DB	0f2H
	DB	0f0H
	DB	0eeH
	DB	0eaH
	DB	020H
	DB	0edH
	DB	0e5H
	DB	0e2H
	DB	0eeH
	DB	0e7H
	DB	0ecH
	DB	0eeH
	DB	0e6H
	DB	0edH
	DB	0eeH
	DB	020H
	DB	0e2H
	DB	020H
	DB	0f3H
	DB	0f1H
	DB	0ebH
	DB	0eeH
	DB	0e2H
	DB	0edH
	DB	0eeH
	DB	0ecH
	DB	020H
	DB	0eeH
	DB	0efH
	DB	0e5H
	DB	0f0H
	DB	0e0H
	DB	0f2H
	DB	0eeH
	DB	0f0H
	DB	0e5H
	DB	00H
	ORG $+152
	DW	0ffffH
	DW	0ffffH
	DD	08dH
	DB	0cdH
	DB	0e5H
	DB	0e2H
	DB	0e5H
	DB	0f0H
	DB	0edH
	DB	0eeH
	DB	0e5H
	DB	020H
	DB	0eaH
	DB	0eeH
	DB	0ebH
	DB	0e8H
	DB	0f7H
	DB	0e5H
	DB	0f1H
	DB	0f2H
	DB	0e2H
	DB	0eeH
	DB	020H
	DB	0efH
	DB	0e0H
	DB	0f0H
	DB	0e0H
	DB	0ecH
	DB	0e5H
	DB	0f2H
	DB	0f0H
	DB	0eeH
	DB	0e2H
	DB	020H
	DB	0efH
	DB	0f0H
	DB	0e8H
	DB	020H
	DB	0e2H
	DB	0fbH
	DB	0e7H
	DB	0eeH
	DB	0e2H
	DB	0e5H
	DB	020H
	DB	0f4H
	DB	0f3H
	DB	0edH
	DB	0eaH
	DB	0f6H
	DB	0e8H
	DB	0e8H
	DB	00H
	ORG $+150
	DW	0ffffH
	DW	0ffffH
	DD	08eH
	DB	0d4H
	DB	0e0H
	DB	0eaH
	DB	0f2H
	DB	0e8H
	DB	0f7H
	DB	0e5H
	DB	0f1H
	DB	0eaH
	DB	0e8H
	DB	0e5H
	DB	020H
	DB	0efH
	DB	0e0H
	DB	0f0H
	DB	0e0H
	DB	0ecH
	DB	0e5H
	DB	0f2H
	DB	0f0H
	DB	0fbH
	DB	020H
	DB	0edH
	DB	0e5H
	DB	020H
	DB	0f1H
	DB	0eeH
	DB	0e2H
	DB	0efH
	DB	0e0H
	DB	0e4H
	DB	0e0H
	DB	0feH
	DB	0f2H
	DB	020H
	DB	0efH
	DB	0f0H
	DB	0e8H
	DB	020H
	DB	0e2H
	DB	0fbH
	DB	0e7H
	DB	0eeH
	DB	0e2H
	DB	0e5H
	DB	020H
	DB	0f4H
	DB	0f3H
	DB	0edH
	DB	0eaH
	DB	0f6H
	DB	0e8H
	DB	0e8H
	DB	00H
	ORG $+146
	DW	0ffffH
	DW	0ffffH
	DD	08fH
	DB	0cdH
	DB	0e5H
	DB	0f2H
	DB	020H
	DB	0f2H
	DB	0eeH
	DB	0f7H
	DB	0eaH
	DB	0e8H
	DB	020H
	DB	0e2H
	DB	0f5H
	DB	0eeH
	DB	0e4H
	DB	0e0H
	DB	020H
	DB	06dH
	DB	061H
	DB	069H
	DB	06eH
	DB	00H
	ORG $+179
	DW	0ffffH
	DW	0ffffH
	DD	090H
	DB	0cdH
	DB	0e5H
	DB	0e2H
	DB	0e5H
	DB	0f0H
	DB	0edH
	DB	0fbH
	DB	0e9H
	DB	020H
	DB	0f2H
	DB	0e8H
	DB	0efH
	DB	020H
	DB	0e2H
	DB	0eeH
	DB	0e7H
	DB	0e2H
	DB	0f0H
	DB	0e0H
	DB	0f9H
	DB	0e0H
	DB	0e5H
	DB	0ecH
	DB	0eeH
	DB	0e3H
	DB	0eeH
	DB	020H
	DB	0efH
	DB	0e0H
	DB	0f0H
	DB	0e0H
	DB	0ecH
	DB	0e5H
	DB	0f2H
	DB	0f0H
	DB	0e0H
	DB	00H
	ORG $+163
	DW	0ffffH
	DW	0ffffH
	DD	091H
	DB	0cfH
	DB	0f0H
	DB	0e8H
	DB	0f1H
	DB	0e2H
	DB	0e0H
	DB	0e8H
	DB	0e2H
	DB	0e0H
	DB	0f2H
	DB	0fcH
	DB	020H
	DB	0eaH
	DB	0e0H
	DB	0eaH
	DB	0eeH
	DB	0e5H
	DB	02dH
	DB	0ebH
	DB	0e8H
	DB	0e1H
	DB	0eeH
	DB	020H
	DB	0e7H
	DB	0edH
	DB	0e0H
	DB	0f7H
	DB	0e5H
	DB	0edH
	DB	0e8H
	DB	0e5H
	DB	020H
	DB	0ecH
	DB	0eeH
	DB	0e6H
	DB	0edH
	DB	0eeH
	DB	020H
	DB	0f2H
	DB	0eeH
	DB	0ebH
	DB	0fcH
	DB	0eaH
	DB	0eeH
	DB	020H
	DB	0efH
	DB	0e5H
	DB	0f0H
	DB	0e5H
	DB	0ecH
	DB	0e5H
	DB	0edH
	DB	0edH
	DB	0eeH
	DB	0e9H
	DB	00H
	ORG $+144
	DW	0ffffH
	DW	0ffffH
	DD	092H
	DB	0c2H
	DB	020H
	DB	0efH
	DB	0f0H
	DB	0eeH
	DB	0e3H
	DB	0f0H
	DB	0e0H
	DB	0ecH
	DB	0ecH
	DB	0e5H
	DB	020H
	DB	0ecH
	DB	0eeH
	DB	0e6H
	DB	0e5H
	DB	0f2H
	DB	020H
	DB	0e1H
	DB	0fbH
	DB	0f2H
	DB	0fcH
	DB	020H
	DB	0f2H
	DB	0eeH
	DB	0ebH
	DB	0fcH
	DB	0eaH
	DB	0eeH
	DB	020H
	DB	0eeH
	DB	0e4H
	DB	0edH
	DB	0e0H
	DB	020H
	DB	0f2H
	DB	0eeH
	DB	0f7H
	DB	0eaH
	DB	0e0H
	DB	020H
	DB	0e2H
	DB	0f5H
	DB	0eeH
	DB	0e4H
	DB	0e0H
	DB	028H
	DB	06dH
	DB	061H
	DB	069H
	DB	06eH
	DB	029H
	DB	00H
	ORG $+147
	DW	0ffffH
	DW	0ffffH
	DD	093H
	DB	0ceH
	DB	0f2H
	DB	0f1H
	DB	0f3H
	DB	0f2H
	DB	0f1H
	DB	0f2H
	DB	0e2H
	DB	0f3H
	DB	0e5H
	DB	0f2H
	DB	020H
	DB	0ebH
	DB	0e5H
	DB	0eaH
	DB	0f1H
	DB	0e5H
	DB	0ecH
	DB	0e0H
	DB	020H
	DB	0eeH
	DB	0eaH
	DB	0eeH
	DB	0edH
	DB	0f7H
	DB	0e0H
	DB	0edH
	DB	0e8H
	DB	0ffH
	DB	020H
	DB	0e1H
	DB	0ebH
	DB	0eeH
	DB	0eaH
	DB	0e0H
	DB	020H
	DB	0e4H
	DB	0ebH
	DB	0ffH
	DB	020H
	DB	06dH
	DB	061H
	DB	069H
	DB	06eH
	DB	00H
	ORG $+155
	DW	0ffffH
	DW	0ffffH
	DD	094H
	DB	0c0H
	DB	0f0H
	DB	0e8H
	DB	0f4H
	DB	0ecH
	DB	0e5H
	DB	0f2H
	DB	0e8H
	DB	0f7H
	DB	0e5H
	DB	0f1H
	DB	0eaH
	DB	0e8H
	DB	0e5H
	DB	020H
	DB	0e4H
	DB	0e5H
	DB	0e9H
	DB	0f1H
	DB	0f2H
	DB	0e2H
	DB	0e8H
	DB	0ffH
	DB	020H
	DB	0f1H
	DB	0eeH
	DB	020H
	DB	0f1H
	DB	0f2H
	DB	0f0H
	DB	0eeH
	DB	0eaH
	DB	0e0H
	DB	0ecH
	DB	0e8H
	DB	020H
	DB	0e7H
	DB	0e0H
	DB	0efH
	DB	0f0H
	DB	0e5H
	DB	0f9H
	DB	0e5H
	DB	0edH
	DB	0fbH
	DB	00H
	ORG $+154
	DW	0ffffH
	DW	0ffffH
	DD	095H
	DB	0c2H
	DB	020H
	DB	0e2H
	DB	0fbH
	DB	0f0H
	DB	0e0H
	DB	0e6H
	DB	0e5H
	DB	0edH
	DB	0e8H
	DB	0e8H
	DB	020H
	DB	0edH
	DB	0e5H
	DB	020H
	DB	0ecH
	DB	0eeH
	DB	0e6H
	DB	0e5H
	DB	0f2H
	DB	020H
	DB	0e1H
	DB	0fbH
	DB	0f2H
	DB	0fcH
	DB	020H
	DB	0f1H
	DB	0f2H
	DB	0f0H
	DB	0eeH
	DB	0eaH
	DB	020H
	DB	0e8H
	DB	0ebH
	DB	0e8H
	DB	020H
	DB	0f1H
	DB	0f2H
	DB	0f0H
	DB	0eeH
	DB	0eaH
	DB	0eeH
	DB	0e2H
	DB	0fbH
	DB	0f5H
	DB	020H
	DB	0f4H
	DB	0f3H
	DB	0edH
	DB	0eaH
	DB	0f6H
	DB	0e8H
	DB	0e9H
	DB	00H
	ORG $+146
	DW	0ffffH
	DW	0ffffH
	DD	096H
	DB	00H
	ORG $+199
	DW	0ffffH
	DW	0ffffH
	DD	097H
	DB	00H
	ORG $+199
	DW	0ffffH
	DW	0ffffH
	DD	098H
	DB	00H
	ORG $+199
	DW	0ffffH
	DW	0ffffH
	DD	099H
	DB	00H
	ORG $+199
	DW	0ffffH
	DW	0ffffH
	DD	09aH
	DB	00H
	ORG $+199
	DW	0ffffH
	DW	0ffffH
	DD	09bH
	DB	00H
	ORG $+199
	DW	0ffffH
	DW	0ffffH
	DD	09cH
	DB	00H
	ORG $+199
	DW	0ffffH
	DW	0ffffH
	DD	09dH
	DB	00H
	ORG $+199
	DW	0ffffH
	DW	0ffffH
	DD	09eH
	DB	00H
	ORG $+199
	DW	0ffffH
	DW	0ffffH
	DD	09fH
	DB	00H
	ORG $+199
	DW	0ffffH
	DW	0ffffH
	DD	0ffffff60H
	DB	0cdH
	DB	0e5H
	DB	0eeH
	DB	0efH
	DB	0f0H
	DB	0e5H
	DB	0e4H
	DB	0e5H
	DB	0ebH
	DB	0e5H
	DB	0edH
	DB	0edH
	DB	0e0H
	DB	0ffH
	DB	020H
	DB	0eeH
	DB	0f8H
	DB	0e8H
	DB	0e1H
	DB	0eaH
	DB	0e0H
	DB	00H
	ORG $+178
	DW	0ffffH
	DW	0ffffH
	DD	0ffffff61H
	DB	0cdH
	DB	0e5H
	DB	0eeH
	DB	0efH
	DB	0f0H
	DB	0e5H
	DB	0e4H
	DB	0e5H
	DB	0ebH
	DB	0e5H
	DB	0edH
	DB	0edH
	DB	0e0H
	DB	0ffH
	DB	020H
	DB	0eeH
	DB	0f8H
	DB	0e8H
	DB	0e1H
	DB	0eaH
	DB	0e0H
	DB	00H
	ORG $+178
	DW	0ffffH
	DW	0ffffH
	DD	0ffffff62H
	DB	0cdH
	DB	0e5H
	DB	0eeH
	DB	0efH
	DB	0f0H
	DB	0e5H
	DB	0e4H
	DB	0e5H
	DB	0ebH
	DB	0e5H
	DB	0edH
	DB	0edH
	DB	0e0H
	DB	0ffH
	DB	020H
	DB	0eeH
	DB	0f8H
	DB	0e8H
	DB	0e1H
	DB	0eaH
	DB	0e0H
	DB	00H
	ORG $+178
	DW	0ffffH
	DW	0ffffH
	DD	0ffffff63H
	DB	0cdH
	DB	0e5H
	DB	0eeH
	DB	0efH
	DB	0f0H
	DB	0e5H
	DB	0e4H
	DB	0e5H
	DB	0ebH
	DB	0e5H
	DB	0edH
	DB	0edH
	DB	0e0H
	DB	0ffH
	DB	020H
	DB	0eeH
	DB	0f8H
	DB	0e8H
	DB	0e1H
	DB	0eaH
	DB	0e0H
	DB	00H
	ORG $+178
	DW	0ffffH
	DW	0ffffH
	DD	0ffffff64H
	DB	0cdH
	DB	0e5H
	DB	0eeH
	DB	0efH
	DB	0f0H
	DB	0e5H
	DB	0e4H
	DB	0e5H
	DB	0ebH
	DB	0e5H
	DB	0edH
	DB	0edH
	DB	0e0H
	DB	0ffH
	DB	020H
	DB	0eeH
	DB	0f8H
	DB	0e8H
	DB	0e1H
	DB	0eaH
	DB	0e0H
	DB	00H
	ORG $+178
	DW	0ffffH
	DW	0ffffH
	DD	0ffffff65H
	DB	0cdH
	DB	0e5H
	DB	0eeH
	DB	0efH
	DB	0f0H
	DB	0e5H
	DB	0e4H
	DB	0e5H
	DB	0ebH
	DB	0e5H
	DB	0edH
	DB	0edH
	DB	0e0H
	DB	0ffH
	DB	020H
	DB	0eeH
	DB	0f8H
	DB	0e8H
	DB	0e1H
	DB	0eaH
	DB	0e0H
	DB	00H
	ORG $+178
	DW	0ffffH
	DW	0ffffH
	DD	0ffffff66H
	DB	0cdH
	DB	0e5H
	DB	0eeH
	DB	0efH
	DB	0f0H
	DB	0e5H
	DB	0e4H
	DB	0e5H
	DB	0ebH
	DB	0e5H
	DB	0edH
	DB	0edH
	DB	0e0H
	DB	0ffH
	DB	020H
	DB	0eeH
	DB	0f8H
	DB	0e8H
	DB	0e1H
	DB	0eaH
	DB	0e0H
	DB	00H
	ORG $+178
	DW	0ffffH
	DW	0ffffH
	DD	0ffffff67H
	DB	0cdH
	DB	0e5H
	DB	0eeH
	DB	0efH
	DB	0f0H
	DB	0e5H
	DB	0e4H
	DB	0e5H
	DB	0ebH
	DB	0e5H
	DB	0edH
	DB	0edH
	DB	0e0H
	DB	0ffH
	DB	020H
	DB	0eeH
	DB	0f8H
	DB	0e8H
	DB	0e1H
	DB	0eaH
	DB	0e0H
	DB	00H
	ORG $+178
	DW	0ffffH
	DW	0ffffH
	DD	0ffffff68H
	DB	0cdH
	DB	0e5H
	DB	0eeH
	DB	0efH
	DB	0f0H
	DB	0e5H
	DB	0e4H
	DB	0e5H
	DB	0ebH
	DB	0e5H
	DB	0edH
	DB	0edH
	DB	0e0H
	DB	0ffH
	DB	020H
	DB	0eeH
	DB	0f8H
	DB	0e8H
	DB	0e1H
	DB	0eaH
	DB	0e0H
	DB	00H
	ORG $+178
	DW	0ffffH
	DW	0ffffH
	DD	0ffffff69H
	DB	0cdH
	DB	0e5H
	DB	0eeH
	DB	0efH
	DB	0f0H
	DB	0e5H
	DB	0e4H
	DB	0e5H
	DB	0ebH
	DB	0e5H
	DB	0edH
	DB	0edH
	DB	0e0H
	DB	0ffH
	DB	020H
	DB	0eeH
	DB	0f8H
	DB	0e8H
	DB	0e1H
	DB	0eaH
	DB	0e0H
	DB	00H
	ORG $+178
	DW	0ffffH
	DW	0ffffH
	DD	0ffffff56H
	DB	0cdH
	DB	0e5H
	DB	0eeH
	DB	0efH
	DB	0f0H
	DB	0e5H
	DB	0e4H
	DB	0e5H
	DB	0ebH
	DB	0e5H
	DB	0edH
	DB	0edH
	DB	0e0H
	DB	0ffH
	DB	020H
	DB	0eeH
	DB	0f8H
	DB	0e8H
	DB	0e1H
	DB	0eaH
	DB	0e0H
	DB	00H
	ORG $+178
	DW	0ffffH
	DW	0ffffH
	DD	0ffffff57H
	DB	0cdH
	DB	0e5H
	DB	0eeH
	DB	0efH
	DB	0f0H
	DB	0e5H
	DB	0e4H
	DB	0e5H
	DB	0ebH
	DB	0e5H
	DB	0edH
	DB	0edH
	DB	0e0H
	DB	0ffH
	DB	020H
	DB	0eeH
	DB	0f8H
	DB	0e8H
	DB	0e1H
	DB	0eaH
	DB	0e0H
	DB	00H
	ORG $+178
	DW	0ffffH
	DW	0ffffH
	DD	0ffffff58H
	DB	0cdH
	DB	0e5H
	DB	0eeH
	DB	0efH
	DB	0f0H
	DB	0e5H
	DB	0e4H
	DB	0e5H
	DB	0ebH
	DB	0e5H
	DB	0edH
	DB	0edH
	DB	0e0H
	DB	0ffH
	DB	020H
	DB	0eeH
	DB	0f8H
	DB	0e8H
	DB	0e1H
	DB	0eaH
	DB	0e0H
	DB	00H
	ORG $+178
	DW	0ffffH
	DW	0ffffH
	DD	0ffffff59H
	DB	0cdH
	DB	0e5H
	DB	0eeH
	DB	0efH
	DB	0f0H
	DB	0e5H
	DB	0e4H
	DB	0e5H
	DB	0ebH
	DB	0e5H
	DB	0edH
	DB	0edH
	DB	0e0H
	DB	0ffH
	DB	020H
	DB	0eeH
	DB	0f8H
	DB	0e8H
	DB	0e1H
	DB	0eaH
	DB	0e0H
	DB	00H
	ORG $+178
	DW	0ffffH
	DW	0ffffH
	DD	0ffffff5aH
	DB	0cdH
	DB	0e5H
	DB	0eeH
	DB	0efH
	DB	0f0H
	DB	0e5H
	DB	0e4H
	DB	0e5H
	DB	0ebH
	DB	0e5H
	DB	0edH
	DB	0edH
	DB	0e0H
	DB	0ffH
	DB	020H
	DB	0eeH
	DB	0f8H
	DB	0e8H
	DB	0e1H
	DB	0eaH
	DB	0e0H
	DB	00H
	ORG $+178
	DW	0ffffH
	DW	0ffffH
	DD	0ffffff5bH
	DB	0cdH
	DB	0e5H
	DB	0eeH
	DB	0efH
	DB	0f0H
	DB	0e5H
	DB	0e4H
	DB	0e5H
	DB	0ebH
	DB	0e5H
	DB	0edH
	DB	0edH
	DB	0e0H
	DB	0ffH
	DB	020H
	DB	0eeH
	DB	0f8H
	DB	0e8H
	DB	0e1H
	DB	0eaH
	DB	0e0H
	DB	00H
	ORG $+178
	DW	0ffffH
	DW	0ffffH
	DD	0ffffff5cH
	DB	0cdH
	DB	0e5H
	DB	0eeH
	DB	0efH
	DB	0f0H
	DB	0e5H
	DB	0e4H
	DB	0e5H
	DB	0ebH
	DB	0e5H
	DB	0edH
	DB	0edH
	DB	0e0H
	DB	0ffH
	DB	020H
	DB	0eeH
	DB	0f8H
	DB	0e8H
	DB	0e1H
	DB	0eaH
	DB	0e0H
	DB	00H
	ORG $+178
	DW	0ffffH
	DW	0ffffH
	DD	0ffffff5dH
	DB	0cdH
	DB	0e5H
	DB	0eeH
	DB	0efH
	DB	0f0H
	DB	0e5H
	DB	0e4H
	DB	0e5H
	DB	0ebH
	DB	0e5H
	DB	0edH
	DB	0edH
	DB	0e0H
	DB	0ffH
	DB	020H
	DB	0eeH
	DB	0f8H
	DB	0e8H
	DB	0e1H
	DB	0eaH
	DB	0e0H
	DB	00H
	ORG $+178
	DW	0ffffH
	DW	0ffffH
	DD	0ffffff5eH
	DB	0cdH
	DB	0e5H
	DB	0eeH
	DB	0efH
	DB	0f0H
	DB	0e5H
	DB	0e4H
	DB	0e5H
	DB	0ebH
	DB	0e5H
	DB	0edH
	DB	0edH
	DB	0e0H
	DB	0ffH
	DB	020H
	DB	0eeH
	DB	0f8H
	DB	0e8H
	DB	0e1H
	DB	0eaH
	DB	0e0H
	DB	00H
	ORG $+178
	DW	0ffffH
	DW	0ffffH
	DD	0ffffff5fH
	DB	0cdH
	DB	0e5H
	DB	0eeH
	DB	0efH
	DB	0f0H
	DB	0e5H
	DB	0e4H
	DB	0e5H
	DB	0ebH
	DB	0e5H
	DB	0edH
	DB	0edH
	DB	0e0H
	DB	0ffH
	DB	020H
	DB	0eeH
	DB	0f8H
	DB	0e8H
	DB	0e1H
	DB	0eaH
	DB	0e0H
	DB	00H
	ORG $+178
	DW	0ffffH
	DW	0ffffH
	DD	0ffffff4cH
	DB	0cdH
	DB	0e5H
	DB	0eeH
	DB	0efH
	DB	0f0H
	DB	0e5H
	DB	0e4H
	DB	0e5H
	DB	0ebH
	DB	0e5H
	DB	0edH
	DB	0edH
	DB	0e0H
	DB	0ffH
	DB	020H
	DB	0eeH
	DB	0f8H
	DB	0e8H
	DB	0e1H
	DB	0eaH
	DB	0e0H
	DB	00H
	ORG $+178
	DW	0ffffH
	DW	0ffffH
	DD	0ffffff4dH
	DB	0cdH
	DB	0e5H
	DB	0eeH
	DB	0efH
	DB	0f0H
	DB	0e5H
	DB	0e4H
	DB	0e5H
	DB	0ebH
	DB	0e5H
	DB	0edH
	DB	0edH
	DB	0e0H
	DB	0ffH
	DB	020H
	DB	0eeH
	DB	0f8H
	DB	0e8H
	DB	0e1H
	DB	0eaH
	DB	0e0H
	DB	00H
	ORG $+178
	DW	0ffffH
	DW	0ffffH
	DD	0ffffff4eH
	DB	0cdH
	DB	0e5H
	DB	0eeH
	DB	0efH
	DB	0f0H
	DB	0e5H
	DB	0e4H
	DB	0e5H
	DB	0ebH
	DB	0e5H
	DB	0edH
	DB	0edH
	DB	0e0H
	DB	0ffH
	DB	020H
	DB	0eeH
	DB	0f8H
	DB	0e8H
	DB	0e1H
	DB	0eaH
	DB	0e0H
	DB	00H
	ORG $+178
	DW	0ffffH
	DW	0ffffH
	DD	0ffffff4fH
	DB	0cdH
	DB	0e5H
	DB	0eeH
	DB	0efH
	DB	0f0H
	DB	0e5H
	DB	0e4H
	DB	0e5H
	DB	0ebH
	DB	0e5H
	DB	0edH
	DB	0edH
	DB	0e0H
	DB	0ffH
	DB	020H
	DB	0eeH
	DB	0f8H
	DB	0e8H
	DB	0e1H
	DB	0eaH
	DB	0e0H
	DB	00H
	ORG $+178
	DW	0ffffH
	DW	0ffffH
	DD	0ffffff50H
	DB	0cdH
	DB	0e5H
	DB	0eeH
	DB	0efH
	DB	0f0H
	DB	0e5H
	DB	0e4H
	DB	0e5H
	DB	0ebH
	DB	0e5H
	DB	0edH
	DB	0edH
	DB	0e0H
	DB	0ffH
	DB	020H
	DB	0eeH
	DB	0f8H
	DB	0e8H
	DB	0e1H
	DB	0eaH
	DB	0e0H
	DB	00H
	ORG $+178
	DW	0ffffH
	DW	0ffffH
	DD	0ffffff51H
	DB	0cdH
	DB	0e5H
	DB	0eeH
	DB	0efH
	DB	0f0H
	DB	0e5H
	DB	0e4H
	DB	0e5H
	DB	0ebH
	DB	0e5H
	DB	0edH
	DB	0edH
	DB	0e0H
	DB	0ffH
	DB	020H
	DB	0eeH
	DB	0f8H
	DB	0e8H
	DB	0e1H
	DB	0eaH
	DB	0e0H
	DB	00H
	ORG $+178
	DW	0ffffH
	DW	0ffffH
	DD	0ffffff52H
	DB	0cdH
	DB	0e5H
	DB	0eeH
	DB	0efH
	DB	0f0H
	DB	0e5H
	DB	0e4H
	DB	0e5H
	DB	0ebH
	DB	0e5H
	DB	0edH
	DB	0edH
	DB	0e0H
	DB	0ffH
	DB	020H
	DB	0eeH
	DB	0f8H
	DB	0e8H
	DB	0e1H
	DB	0eaH
	DB	0e0H
	DB	00H
	ORG $+178
	DW	0ffffH
	DW	0ffffH
	DD	0ffffff53H
	DB	0cdH
	DB	0e5H
	DB	0eeH
	DB	0efH
	DB	0f0H
	DB	0e5H
	DB	0e4H
	DB	0e5H
	DB	0ebH
	DB	0e5H
	DB	0edH
	DB	0edH
	DB	0e0H
	DB	0ffH
	DB	020H
	DB	0eeH
	DB	0f8H
	DB	0e8H
	DB	0e1H
	DB	0eaH
	DB	0e0H
	DB	00H
	ORG $+178
	DW	0ffffH
	DW	0ffffH
	DD	0ffffff54H
	DB	0cdH
	DB	0e5H
	DB	0eeH
	DB	0efH
	DB	0f0H
	DB	0e5H
	DB	0e4H
	DB	0e5H
	DB	0ebH
	DB	0e5H
	DB	0edH
	DB	0edH
	DB	0e0H
	DB	0ffH
	DB	020H
	DB	0eeH
	DB	0f8H
	DB	0e8H
	DB	0e1H
	DB	0eaH
	DB	0e0H
	DB	00H
	ORG $+178
	DW	0ffffH
	DW	0ffffH
	DD	0ffffff55H
	DB	0cdH
	DB	0e5H
	DB	0eeH
	DB	0efH
	DB	0f0H
	DB	0e5H
	DB	0e4H
	DB	0e5H
	DB	0ebH
	DB	0e5H
	DB	0edH
	DB	0edH
	DB	0e0H
	DB	0ffH
	DB	020H
	DB	0eeH
	DB	0f8H
	DB	0e8H
	DB	0e1H
	DB	0eaH
	DB	0e0H
	DB	00H
	ORG $+178
	DW	0ffffH
	DW	0ffffH
	DD	0ffffff42H
	DB	0cdH
	DB	0e5H
	DB	0eeH
	DB	0efH
	DB	0f0H
	DB	0e5H
	DB	0e4H
	DB	0e5H
	DB	0ebH
	DB	0e5H
	DB	0edH
	DB	0edH
	DB	0e0H
	DB	0ffH
	DB	020H
	DB	0eeH
	DB	0f8H
	DB	0e8H
	DB	0e1H
	DB	0eaH
	DB	0e0H
	DB	00H
	ORG $+178
	DW	0ffffH
	DW	0ffffH
	DD	0ffffff43H
	DB	0cdH
	DB	0e5H
	DB	0eeH
	DB	0efH
	DB	0f0H
	DB	0e5H
	DB	0e4H
	DB	0e5H
	DB	0ebH
	DB	0e5H
	DB	0edH
	DB	0edH
	DB	0e0H
	DB	0ffH
	DB	020H
	DB	0eeH
	DB	0f8H
	DB	0e8H
	DB	0e1H
	DB	0eaH
	DB	0e0H
	DB	00H
	ORG $+178
	DW	0ffffH
	DW	0ffffH
	DD	0ffffff44H
	DB	0cdH
	DB	0e5H
	DB	0eeH
	DB	0efH
	DB	0f0H
	DB	0e5H
	DB	0e4H
	DB	0e5H
	DB	0ebH
	DB	0e5H
	DB	0edH
	DB	0edH
	DB	0e0H
	DB	0ffH
	DB	020H
	DB	0eeH
	DB	0f8H
	DB	0e8H
	DB	0e1H
	DB	0eaH
	DB	0e0H
	DB	00H
	ORG $+178
	DW	0ffffH
	DW	0ffffH
	DD	0ffffff45H
	DB	0cdH
	DB	0e5H
	DB	0eeH
	DB	0efH
	DB	0f0H
	DB	0e5H
	DB	0e4H
	DB	0e5H
	DB	0ebH
	DB	0e5H
	DB	0edH
	DB	0edH
	DB	0e0H
	DB	0ffH
	DB	020H
	DB	0eeH
	DB	0f8H
	DB	0e8H
	DB	0e1H
	DB	0eaH
	DB	0e0H
	DB	00H
	ORG $+178
	DW	0ffffH
	DW	0ffffH
	DD	0ffffff46H
	DB	0cdH
	DB	0e5H
	DB	0eeH
	DB	0efH
	DB	0f0H
	DB	0e5H
	DB	0e4H
	DB	0e5H
	DB	0ebH
	DB	0e5H
	DB	0edH
	DB	0edH
	DB	0e0H
	DB	0ffH
	DB	020H
	DB	0eeH
	DB	0f8H
	DB	0e8H
	DB	0e1H
	DB	0eaH
	DB	0e0H
	DB	00H
	ORG $+178
	DW	0ffffH
	DW	0ffffH
	DD	0ffffff47H
	DB	0cdH
	DB	0e5H
	DB	0eeH
	DB	0efH
	DB	0f0H
	DB	0e5H
	DB	0e4H
	DB	0e5H
	DB	0ebH
	DB	0e5H
	DB	0edH
	DB	0edH
	DB	0e0H
	DB	0ffH
	DB	020H
	DB	0eeH
	DB	0f8H
	DB	0e8H
	DB	0e1H
	DB	0eaH
	DB	0e0H
	DB	00H
	ORG $+178
	DW	0ffffH
	DW	0ffffH
	DD	0ffffff48H
	DB	0cdH
	DB	0e5H
	DB	0eeH
	DB	0efH
	DB	0f0H
	DB	0e5H
	DB	0e4H
	DB	0e5H
	DB	0ebH
	DB	0e5H
	DB	0edH
	DB	0edH
	DB	0e0H
	DB	0ffH
	DB	020H
	DB	0eeH
	DB	0f8H
	DB	0e8H
	DB	0e1H
	DB	0eaH
	DB	0e0H
	DB	00H
	ORG $+178
	DW	0ffffH
	DW	0ffffH
	DD	0ffffff49H
	DB	0cdH
	DB	0e5H
	DB	0eeH
	DB	0efH
	DB	0f0H
	DB	0e5H
	DB	0e4H
	DB	0e5H
	DB	0ebH
	DB	0e5H
	DB	0edH
	DB	0edH
	DB	0e0H
	DB	0ffH
	DB	020H
	DB	0eeH
	DB	0f8H
	DB	0e8H
	DB	0e1H
	DB	0eaH
	DB	0e0H
	DB	00H
	ORG $+178
	DW	0ffffH
	DW	0ffffH
	DD	0ffffff4aH
	DB	0cdH
	DB	0e5H
	DB	0eeH
	DB	0efH
	DB	0f0H
	DB	0e5H
	DB	0e4H
	DB	0e5H
	DB	0ebH
	DB	0e5H
	DB	0edH
	DB	0edH
	DB	0e0H
	DB	0ffH
	DB	020H
	DB	0eeH
	DB	0f8H
	DB	0e8H
	DB	0e1H
	DB	0eaH
	DB	0e0H
	DB	00H
	ORG $+178
	DW	0ffffH
	DW	0ffffH
	DD	0ffffff4bH
	DB	0cdH
	DB	0e5H
	DB	0eeH
	DB	0efH
	DB	0f0H
	DB	0e5H
	DB	0e4H
	DB	0e5H
	DB	0ebH
	DB	0e5H
	DB	0edH
	DB	0edH
	DB	0e0H
	DB	0ffH
	DB	020H
	DB	0eeH
	DB	0f8H
	DB	0e8H
	DB	0e1H
	DB	0eaH
	DB	0e0H
	DB	00H
	ORG $+178
	DW	0ffffH
	DW	0ffffH
	DD	0ffffff38H
	DB	0cdH
	DB	0e5H
	DB	0eeH
	DB	0efH
	DB	0f0H
	DB	0e5H
	DB	0e4H
	DB	0e5H
	DB	0ebH
	DB	0e5H
	DB	0edH
	DB	0edH
	DB	0e0H
	DB	0ffH
	DB	020H
	DB	0eeH
	DB	0f8H
	DB	0e8H
	DB	0e1H
	DB	0eaH
	DB	0e0H
	DB	00H
	ORG $+178
	DW	0ffffH
	DW	0ffffH
	DD	0ffffff39H
	DB	0cdH
	DB	0e5H
	DB	0eeH
	DB	0efH
	DB	0f0H
	DB	0e5H
	DB	0e4H
	DB	0e5H
	DB	0ebH
	DB	0e5H
	DB	0edH
	DB	0edH
	DB	0e0H
	DB	0ffH
	DB	020H
	DB	0eeH
	DB	0f8H
	DB	0e8H
	DB	0e1H
	DB	0eaH
	DB	0e0H
	DB	00H
	ORG $+178
	DW	0ffffH
	DW	0ffffH
	DD	0ffffff3aH
	DB	0cdH
	DB	0e5H
	DB	0eeH
	DB	0efH
	DB	0f0H
	DB	0e5H
	DB	0e4H
	DB	0e5H
	DB	0ebH
	DB	0e5H
	DB	0edH
	DB	0edH
	DB	0e0H
	DB	0ffH
	DB	020H
	DB	0eeH
	DB	0f8H
	DB	0e8H
	DB	0e1H
	DB	0eaH
	DB	0e0H
	DB	00H
	ORG $+178
	DW	0ffffH
	DW	0ffffH
	DD	0ffffff3bH
	DB	0cdH
	DB	0e5H
	DB	0eeH
	DB	0efH
	DB	0f0H
	DB	0e5H
	DB	0e4H
	DB	0e5H
	DB	0ebH
	DB	0e5H
	DB	0edH
	DB	0edH
	DB	0e0H
	DB	0ffH
	DB	020H
	DB	0eeH
	DB	0f8H
	DB	0e8H
	DB	0e1H
	DB	0eaH
	DB	0e0H
	DB	00H
	ORG $+178
	DW	0ffffH
	DW	0ffffH
	DD	0ffffff3cH
	DB	0cdH
	DB	0e5H
	DB	0eeH
	DB	0efH
	DB	0f0H
	DB	0e5H
	DB	0e4H
	DB	0e5H
	DB	0ebH
	DB	0e5H
	DB	0edH
	DB	0edH
	DB	0e0H
	DB	0ffH
	DB	020H
	DB	0eeH
	DB	0f8H
	DB	0e8H
	DB	0e1H
	DB	0eaH
	DB	0e0H
	DB	00H
	ORG $+178
	DW	0ffffH
	DW	0ffffH
	DD	0ffffff3dH
	DB	0cdH
	DB	0e5H
	DB	0eeH
	DB	0efH
	DB	0f0H
	DB	0e5H
	DB	0e4H
	DB	0e5H
	DB	0ebH
	DB	0e5H
	DB	0edH
	DB	0edH
	DB	0e0H
	DB	0ffH
	DB	020H
	DB	0eeH
	DB	0f8H
	DB	0e8H
	DB	0e1H
	DB	0eaH
	DB	0e0H
	DB	00H
	ORG $+178
	DW	0ffffH
	DW	0ffffH
	DD	0ffffff3eH
	DB	0cdH
	DB	0e5H
	DB	0eeH
	DB	0efH
	DB	0f0H
	DB	0e5H
	DB	0e4H
	DB	0e5H
	DB	0ebH
	DB	0e5H
	DB	0edH
	DB	0edH
	DB	0e0H
	DB	0ffH
	DB	020H
	DB	0eeH
	DB	0f8H
	DB	0e8H
	DB	0e1H
	DB	0eaH
	DB	0e0H
	DB	00H
	ORG $+178
	DW	0ffffH
	DW	0ffffH
	DD	0ffffff3fH
	DB	0cdH
	DB	0e5H
	DB	0eeH
	DB	0efH
	DB	0f0H
	DB	0e5H
	DB	0e4H
	DB	0e5H
	DB	0ebH
	DB	0e5H
	DB	0edH
	DB	0edH
	DB	0e0H
	DB	0ffH
	DB	020H
	DB	0eeH
	DB	0f8H
	DB	0e8H
	DB	0e1H
	DB	0eaH
	DB	0e0H
	DB	00H
	ORG $+178
	DW	0ffffH
	DW	0ffffH
	DD	0ffffff40H
	DB	0cdH
	DB	0e5H
	DB	0eeH
	DB	0efH
	DB	0f0H
	DB	0e5H
	DB	0e4H
	DB	0e5H
	DB	0ebH
	DB	0e5H
	DB	0edH
	DB	0edH
	DB	0e0H
	DB	0ffH
	DB	020H
	DB	0eeH
	DB	0f8H
	DB	0e8H
	DB	0e1H
	DB	0eaH
	DB	0e0H
	DB	00H
	ORG $+178
	DW	0ffffH
	DW	0ffffH
	DD	0ffffff41H
	DB	0cdH
	DB	0e5H
	DB	0eeH
	DB	0efH
	DB	0f0H
	DB	0e5H
	DB	0e4H
	DB	0e5H
	DB	0ebH
	DB	0e5H
	DB	0edH
	DB	0edH
	DB	0e0H
	DB	0ffH
	DB	020H
	DB	0eeH
	DB	0f8H
	DB	0e8H
	DB	0e1H
	DB	0eaH
	DB	0e0H
	DB	00H
	ORG $+178
	DW	0ffffH
	DW	0ffffH
	DD	0ffffff42H
	DB	0cdH
	DB	0e5H
	DB	0eeH
	DB	0efH
	DB	0f0H
	DB	0e5H
	DB	0e4H
	DB	0e5H
	DB	0ebH
	DB	0e5H
	DB	0edH
	DB	0edH
	DB	0e0H
	DB	0ffH
	DB	020H
	DB	0eeH
	DB	0f8H
	DB	0e8H
	DB	0e1H
	DB	0eaH
	DB	0e0H
	DB	00H
	ORG $+178
	DW	0ffffH
	DW	0ffffH
	DD	0ffffff43H
	DB	0cdH
	DB	0e5H
	DB	0eeH
	DB	0efH
	DB	0f0H
	DB	0e5H
	DB	0e4H
	DB	0e5H
	DB	0ebH
	DB	0e5H
	DB	0edH
	DB	0edH
	DB	0e0H
	DB	0ffH
	DB	020H
	DB	0eeH
	DB	0f8H
	DB	0e8H
	DB	0e1H
	DB	0eaH
	DB	0e0H
	DB	00H
	ORG $+178
	DW	0ffffH
	DW	0ffffH
	DD	0ffffff44H
	DB	0cdH
	DB	0e5H
	DB	0eeH
	DB	0efH
	DB	0f0H
	DB	0e5H
	DB	0e4H
	DB	0e5H
	DB	0ebH
	DB	0e5H
	DB	0edH
	DB	0edH
	DB	0e0H
	DB	0ffH
	DB	020H
	DB	0eeH
	DB	0f8H
	DB	0e8H
	DB	0e1H
	DB	0eaH
	DB	0e0H
	DB	00H
	ORG $+178
	DW	0ffffH
	DW	0ffffH
	DD	0ffffff45H
	DB	0cdH
	DB	0e5H
	DB	0eeH
	DB	0efH
	DB	0f0H
	DB	0e5H
	DB	0e4H
	DB	0e5H
	DB	0ebH
	DB	0e5H
	DB	0edH
	DB	0edH
	DB	0e0H
	DB	0ffH
	DB	020H
	DB	0eeH
	DB	0f8H
	DB	0e8H
	DB	0e1H
	DB	0eaH
	DB	0e0H
	DB	00H
	ORG $+178
	DW	0ffffH
	DW	0ffffH
	DD	0ffffff46H
	DB	0cdH
	DB	0e5H
	DB	0eeH
	DB	0efH
	DB	0f0H
	DB	0e5H
	DB	0e4H
	DB	0e5H
	DB	0ebH
	DB	0e5H
	DB	0edH
	DB	0edH
	DB	0e0H
	DB	0ffH
	DB	020H
	DB	0eeH
	DB	0f8H
	DB	0e8H
	DB	0e1H
	DB	0eaH
	DB	0e0H
	DB	00H
	ORG $+178
	DW	0ffffH
	DW	0ffffH
	DD	0ffffff47H
	DB	0cdH
	DB	0e5H
	DB	0eeH
	DB	0efH
	DB	0f0H
	DB	0e5H
	DB	0e4H
	DB	0e5H
	DB	0ebH
	DB	0e5H
	DB	0edH
	DB	0edH
	DB	0e0H
	DB	0ffH
	DB	020H
	DB	0eeH
	DB	0f8H
	DB	0e8H
	DB	0e1H
	DB	0eaH
	DB	0e0H
	DB	00H
	ORG $+178
	DW	0ffffH
	DW	0ffffH
	DD	0ffffff48H
	DB	0cdH
	DB	0e5H
	DB	0eeH
	DB	0efH
	DB	0f0H
	DB	0e5H
	DB	0e4H
	DB	0e5H
	DB	0ebH
	DB	0e5H
	DB	0edH
	DB	0edH
	DB	0e0H
	DB	0ffH
	DB	020H
	DB	0eeH
	DB	0f8H
	DB	0e8H
	DB	0e1H
	DB	0eaH
	DB	0e0H
	DB	00H
	ORG $+178
	DW	0ffffH
	DW	0ffffH
	DD	0ffffff49H
	DB	0cdH
	DB	0e5H
	DB	0eeH
	DB	0efH
	DB	0f0H
	DB	0e5H
	DB	0e4H
	DB	0e5H
	DB	0ebH
	DB	0e5H
	DB	0edH
	DB	0edH
	DB	0e0H
	DB	0ffH
	DB	020H
	DB	0eeH
	DB	0f8H
	DB	0e8H
	DB	0e1H
	DB	0eaH
	DB	0e0H
	DB	00H
	ORG $+178
	DW	0ffffH
	DW	0ffffH
	DD	0ffffff4aH
	DB	0cdH
	DB	0e5H
	DB	0eeH
	DB	0efH
	DB	0f0H
	DB	0e5H
	DB	0e4H
	DB	0e5H
	DB	0ebH
	DB	0e5H
	DB	0edH
	DB	0edH
	DB	0e0H
	DB	0ffH
	DB	020H
	DB	0eeH
	DB	0f8H
	DB	0e8H
	DB	0e1H
	DB	0eaH
	DB	0e0H
	DB	00H
	ORG $+178
	DW	0ffffH
	DW	0ffffH
	DD	0ffffff4bH
	DB	0cdH
	DB	0e5H
	DB	0eeH
	DB	0efH
	DB	0f0H
	DB	0e5H
	DB	0e4H
	DB	0e5H
	DB	0ebH
	DB	0e5H
	DB	0edH
	DB	0edH
	DB	0e0H
	DB	0ffH
	DB	020H
	DB	0eeH
	DB	0f8H
	DB	0e8H
	DB	0e1H
	DB	0eaH
	DB	0e0H
	DB	00H
	ORG $+178
	DW	0ffffH
	DW	0ffffH
	DD	0ffffff4cH
	DB	0cdH
	DB	0e5H
	DB	0eeH
	DB	0efH
	DB	0f0H
	DB	0e5H
	DB	0e4H
	DB	0e5H
	DB	0ebH
	DB	0e5H
	DB	0edH
	DB	0edH
	DB	0e0H
	DB	0ffH
	DB	020H
	DB	0eeH
	DB	0f8H
	DB	0e8H
	DB	0e1H
	DB	0eaH
	DB	0e0H
	DB	00H
	ORG $+178
	DW	0ffffH
	DW	0ffffH
	DD	0ffffff4dH
	DB	0cdH
	DB	0e5H
	DB	0eeH
	DB	0efH
	DB	0f0H
	DB	0e5H
	DB	0e4H
	DB	0e5H
	DB	0ebH
	DB	0e5H
	DB	0edH
	DB	0edH
	DB	0e0H
	DB	0ffH
	DB	020H
	DB	0eeH
	DB	0f8H
	DB	0e8H
	DB	0e1H
	DB	0eaH
	DB	0e0H
	DB	00H
	ORG $+178
	DW	0ffffH
	DW	0ffffH
	DD	0ffffff4eH
	DB	0cdH
	DB	0e5H
	DB	0eeH
	DB	0efH
	DB	0f0H
	DB	0e5H
	DB	0e4H
	DB	0e5H
	DB	0ebH
	DB	0e5H
	DB	0edH
	DB	0edH
	DB	0e0H
	DB	0ffH
	DB	020H
	DB	0eeH
	DB	0f8H
	DB	0e8H
	DB	0e1H
	DB	0eaH
	DB	0e0H
	DB	00H
	ORG $+178
	DW	0ffffH
	DW	0ffffH
	DD	0ffffff4fH
	DB	0cdH
	DB	0e5H
	DB	0eeH
	DB	0efH
	DB	0f0H
	DB	0e5H
	DB	0e4H
	DB	0e5H
	DB	0ebH
	DB	0e5H
	DB	0edH
	DB	0edH
	DB	0e0H
	DB	0ffH
	DB	020H
	DB	0eeH
	DB	0f8H
	DB	0e8H
	DB	0e1H
	DB	0eaH
	DB	0e0H
	DB	00H
	ORG $+178
	DW	0ffffH
	DW	0ffffH
	DD	0ffffff50H
	DB	0cdH
	DB	0e5H
	DB	0eeH
	DB	0efH
	DB	0f0H
	DB	0e5H
	DB	0e4H
	DB	0e5H
	DB	0ebH
	DB	0e5H
	DB	0edH
	DB	0edH
	DB	0e0H
	DB	0ffH
	DB	020H
	DB	0eeH
	DB	0f8H
	DB	0e8H
	DB	0e1H
	DB	0eaH
	DB	0e0H
	DB	00H
	ORG $+178
	DW	0ffffH
	DW	0ffffH
	DD	0ffffff51H
	DB	0cdH
	DB	0e5H
	DB	0eeH
	DB	0efH
	DB	0f0H
	DB	0e5H
	DB	0e4H
	DB	0e5H
	DB	0ebH
	DB	0e5H
	DB	0edH
	DB	0edH
	DB	0e0H
	DB	0ffH
	DB	020H
	DB	0eeH
	DB	0f8H
	DB	0e8H
	DB	0e1H
	DB	0eaH
	DB	0e0H
	DB	00H
	ORG $+178
	DW	0ffffH
	DW	0ffffH
	DD	0ffffff52H
	DB	0cdH
	DB	0e5H
	DB	0eeH
	DB	0efH
	DB	0f0H
	DB	0e5H
	DB	0e4H
	DB	0e5H
	DB	0ebH
	DB	0e5H
	DB	0edH
	DB	0edH
	DB	0e0H
	DB	0ffH
	DB	020H
	DB	0eeH
	DB	0f8H
	DB	0e8H
	DB	0e1H
	DB	0eaH
	DB	0e0H
	DB	00H
	ORG $+178
	DW	0ffffH
	DW	0ffffH
	DD	0ffffff53H
	DB	0cdH
	DB	0e5H
	DB	0eeH
	DB	0efH
	DB	0f0H
	DB	0e5H
	DB	0e4H
	DB	0e5H
	DB	0ebH
	DB	0e5H
	DB	0edH
	DB	0edH
	DB	0e0H
	DB	0ffH
	DB	020H
	DB	0eeH
	DB	0f8H
	DB	0e8H
	DB	0e1H
	DB	0eaH
	DB	0e0H
	DB	00H
	ORG $+178
	DW	0ffffH
	DW	0ffffH
	DD	0ffffff54H
	DB	0cdH
	DB	0e5H
	DB	0eeH
	DB	0efH
	DB	0f0H
	DB	0e5H
	DB	0e4H
	DB	0e5H
	DB	0ebH
	DB	0e5H
	DB	0edH
	DB	0edH
	DB	0e0H
	DB	0ffH
	DB	020H
	DB	0eeH
	DB	0f8H
	DB	0e8H
	DB	0e1H
	DB	0eaH
	DB	0e0H
	DB	00H
	ORG $+178
	DW	0ffffH
	DW	0ffffH
	DD	0ffffff55H
	DB	0cdH
	DB	0e5H
	DB	0eeH
	DB	0efH
	DB	0f0H
	DB	0e5H
	DB	0e4H
	DB	0e5H
	DB	0ebH
	DB	0e5H
	DB	0edH
	DB	0edH
	DB	0e0H
	DB	0ffH
	DB	020H
	DB	0eeH
	DB	0f8H
	DB	0e8H
	DB	0e1H
	DB	0eaH
	DB	0e0H
	DB	00H
	ORG $+178
	DW	0ffffH
	DW	0ffffH
	DD	0ffffff56H
	DB	0cdH
	DB	0e5H
	DB	0eeH
	DB	0efH
	DB	0f0H
	DB	0e5H
	DB	0e4H
	DB	0e5H
	DB	0ebH
	DB	0e5H
	DB	0edH
	DB	0edH
	DB	0e0H
	DB	0ffH
	DB	020H
	DB	0eeH
	DB	0f8H
	DB	0e8H
	DB	0e1H
	DB	0eaH
	DB	0e0H
	DB	00H
	ORG $+178
	DW	0ffffH
	DW	0ffffH
	DD	0ffffff57H
	DB	0cdH
	DB	0e5H
	DB	0eeH
	DB	0efH
	DB	0f0H
	DB	0e5H
	DB	0e4H
	DB	0e5H
	DB	0ebH
	DB	0e5H
	DB	0edH
	DB	0edH
	DB	0e0H
	DB	0ffH
	DB	020H
	DB	0eeH
	DB	0f8H
	DB	0e8H
	DB	0e1H
	DB	0eaH
	DB	0e0H
	DB	00H
	ORG $+178
	DW	0ffffH
	DW	0ffffH
	DD	0ffffff58H
	DB	0cdH
	DB	0e5H
	DB	0eeH
	DB	0efH
	DB	0f0H
	DB	0e5H
	DB	0e4H
	DB	0e5H
	DB	0ebH
	DB	0e5H
	DB	0edH
	DB	0edH
	DB	0e0H
	DB	0ffH
	DB	020H
	DB	0eeH
	DB	0f8H
	DB	0e8H
	DB	0e1H
	DB	0eaH
	DB	0e0H
	DB	00H
	ORG $+178
	DW	0ffffH
	DW	0ffffH
	DD	0ffffff59H
	DB	0cdH
	DB	0e5H
	DB	0eeH
	DB	0efH
	DB	0f0H
	DB	0e5H
	DB	0e4H
	DB	0e5H
	DB	0ebH
	DB	0e5H
	DB	0edH
	DB	0edH
	DB	0e0H
	DB	0ffH
	DB	020H
	DB	0eeH
	DB	0f8H
	DB	0e8H
	DB	0e1H
	DB	0eaH
	DB	0e0H
	DB	00H
	ORG $+178
	DW	0ffffH
	DW	0ffffH
	DD	0ffffff5aH
	DB	0cdH
	DB	0e5H
	DB	0eeH
	DB	0efH
	DB	0f0H
	DB	0e5H
	DB	0e4H
	DB	0e5H
	DB	0ebH
	DB	0e5H
	DB	0edH
	DB	0edH
	DB	0e0H
	DB	0ffH
	DB	020H
	DB	0eeH
	DB	0f8H
	DB	0e8H
	DB	0e1H
	DB	0eaH
	DB	0e0H
	DB	00H
	ORG $+178
	DW	0ffffH
	DW	0ffffH
	DD	0ffffff5bH
	DB	0cdH
	DB	0e5H
	DB	0eeH
	DB	0efH
	DB	0f0H
	DB	0e5H
	DB	0e4H
	DB	0e5H
	DB	0ebH
	DB	0e5H
	DB	0edH
	DB	0edH
	DB	0e0H
	DB	0ffH
	DB	020H
	DB	0eeH
	DB	0f8H
	DB	0e8H
	DB	0e1H
	DB	0eaH
	DB	0e0H
	DB	00H
	ORG $+178
	DW	0ffffH
	DW	0ffffH
	DD	0ffffff5cH
	DB	0cdH
	DB	0e5H
	DB	0eeH
	DB	0efH
	DB	0f0H
	DB	0e5H
	DB	0e4H
	DB	0e5H
	DB	0ebH
	DB	0e5H
	DB	0edH
	DB	0edH
	DB	0e0H
	DB	0ffH
	DB	020H
	DB	0eeH
	DB	0f8H
	DB	0e8H
	DB	0e1H
	DB	0eaH
	DB	0e0H
	DB	00H
	ORG $+178
	DW	0ffffH
	DW	0ffffH
	DD	0ffffff5dH
	DB	0cdH
	DB	0e5H
	DB	0eeH
	DB	0efH
	DB	0f0H
	DB	0e5H
	DB	0e4H
	DB	0e5H
	DB	0ebH
	DB	0e5H
	DB	0edH
	DB	0edH
	DB	0e0H
	DB	0ffH
	DB	020H
	DB	0eeH
	DB	0f8H
	DB	0e8H
	DB	0e1H
	DB	0eaH
	DB	0e0H
	DB	00H
	ORG $+178
	DW	0ffffH
	DW	0ffffH
	DD	0ffffff5eH
	DB	0cdH
	DB	0e5H
	DB	0eeH
	DB	0efH
	DB	0f0H
	DB	0e5H
	DB	0e4H
	DB	0e5H
	DB	0ebH
	DB	0e5H
	DB	0edH
	DB	0edH
	DB	0e0H
	DB	0ffH
	DB	020H
	DB	0eeH
	DB	0f8H
	DB	0e8H
	DB	0e1H
	DB	0eaH
	DB	0e0H
	DB	00H
	ORG $+178
	DW	0ffffH
	DW	0ffffH
	DD	0ffffff5fH
	DB	0cdH
	DB	0e5H
	DB	0eeH
	DB	0efH
	DB	0f0H
	DB	0e5H
	DB	0e4H
	DB	0e5H
	DB	0ebH
	DB	0e5H
	DB	0edH
	DB	0edH
	DB	0e0H
	DB	0ffH
	DB	020H
	DB	0eeH
	DB	0f8H
	DB	0e8H
	DB	0e1H
	DB	0eaH
	DB	0e0H
	DB	00H
	ORG $+178
	DW	0ffffH
	DW	0ffffH
	DD	0ffffff60H
	DB	0cdH
	DB	0e5H
	DB	0eeH
	DB	0efH
	DB	0f0H
	DB	0e5H
	DB	0e4H
	DB	0e5H
	DB	0ebH
	DB	0e5H
	DB	0edH
	DB	0edH
	DB	0e0H
	DB	0ffH
	DB	020H
	DB	0eeH
	DB	0f8H
	DB	0e8H
	DB	0e1H
	DB	0eaH
	DB	0e0H
	DB	00H
	ORG $+178
	DW	0ffffH
	DW	0ffffH
	DD	0ffffff61H
	DB	0cdH
	DB	0e5H
	DB	0eeH
	DB	0efH
	DB	0f0H
	DB	0e5H
	DB	0e4H
	DB	0e5H
	DB	0ebH
	DB	0e5H
	DB	0edH
	DB	0edH
	DB	0e0H
	DB	0ffH
	DB	020H
	DB	0eeH
	DB	0f8H
	DB	0e8H
	DB	0e1H
	DB	0eaH
	DB	0e0H
	DB	00H
	ORG $+178
	DW	0ffffH
	DW	0ffffH
	DD	0ffffff62H
	DB	0cdH
	DB	0e5H
	DB	0eeH
	DB	0efH
	DB	0f0H
	DB	0e5H
	DB	0e4H
	DB	0e5H
	DB	0ebH
	DB	0e5H
	DB	0edH
	DB	0edH
	DB	0e0H
	DB	0ffH
	DB	020H
	DB	0eeH
	DB	0f8H
	DB	0e8H
	DB	0e1H
	DB	0eaH
	DB	0e0H
	DB	00H
	ORG $+178
	DW	0ffffH
	DW	0ffffH
	DD	0ffffff63H
	DB	0cdH
	DB	0e5H
	DB	0eeH
	DB	0efH
	DB	0f0H
	DB	0e5H
	DB	0e4H
	DB	0e5H
	DB	0ebH
	DB	0e5H
	DB	0edH
	DB	0edH
	DB	0e0H
	DB	0ffH
	DB	020H
	DB	0eeH
	DB	0f8H
	DB	0e8H
	DB	0e1H
	DB	0eaH
	DB	0e0H
	DB	00H
	ORG $+178
	DW	0ffffH
	DW	0ffffH
	DD	0ffffff64H
	DB	0cdH
	DB	0e5H
	DB	0eeH
	DB	0efH
	DB	0f0H
	DB	0e5H
	DB	0e4H
	DB	0e5H
	DB	0ebH
	DB	0e5H
	DB	0edH
	DB	0edH
	DB	0e0H
	DB	0ffH
	DB	020H
	DB	0eeH
	DB	0f8H
	DB	0e8H
	DB	0e1H
	DB	0eaH
	DB	0e0H
	DB	00H
	ORG $+178
	DW	0ffffH
	DW	0ffffH
	DD	0ffffff65H
	DB	0cdH
	DB	0e5H
	DB	0eeH
	DB	0efH
	DB	0f0H
	DB	0e5H
	DB	0e4H
	DB	0e5H
	DB	0ebH
	DB	0e5H
	DB	0edH
	DB	0edH
	DB	0e0H
	DB	0ffH
	DB	020H
	DB	0eeH
	DB	0f8H
	DB	0e8H
	DB	0e1H
	DB	0eaH
	DB	0e0H
	DB	00H
	ORG $+178
	DW	0ffffH
	DW	0ffffH
	DD	0ffffff66H
	DB	0cdH
	DB	0e5H
	DB	0eeH
	DB	0efH
	DB	0f0H
	DB	0e5H
	DB	0e4H
	DB	0e5H
	DB	0ebH
	DB	0e5H
	DB	0edH
	DB	0edH
	DB	0e0H
	DB	0ffH
	DB	020H
	DB	0eeH
	DB	0f8H
	DB	0e8H
	DB	0e1H
	DB	0eaH
	DB	0e0H
	DB	00H
	ORG $+178
	DW	0ffffH
	DW	0ffffH
	DD	0ffffff67H
	DB	0cdH
	DB	0e5H
	DB	0eeH
	DB	0efH
	DB	0f0H
	DB	0e5H
	DB	0e4H
	DB	0e5H
	DB	0ebH
	DB	0e5H
	DB	0edH
	DB	0edH
	DB	0e0H
	DB	0ffH
	DB	020H
	DB	0eeH
	DB	0f8H
	DB	0e8H
	DB	0e1H
	DB	0eaH
	DB	0e0H
	DB	00H
	ORG $+178
	DW	0ffffH
	DW	0ffffH
	DD	0ffffff68H
	DB	0cdH
	DB	0e5H
	DB	0eeH
	DB	0efH
	DB	0f0H
	DB	0e5H
	DB	0e4H
	DB	0e5H
	DB	0ebH
	DB	0e5H
	DB	0edH
	DB	0edH
	DB	0e0H
	DB	0ffH
	DB	020H
	DB	0eeH
	DB	0f8H
	DB	0e8H
	DB	0e1H
	DB	0eaH
	DB	0e0H
	DB	00H
	ORG $+178
	DW	0ffffH
	DW	0ffffH
	DD	0ffffff69H
	DB	0cdH
	DB	0e5H
	DB	0eeH
	DB	0efH
	DB	0f0H
	DB	0e5H
	DB	0e4H
	DB	0e5H
	DB	0ebH
	DB	0e5H
	DB	0edH
	DB	0edH
	DB	0e0H
	DB	0ffH
	DB	020H
	DB	0eeH
	DB	0f8H
	DB	0e8H
	DB	0e1H
	DB	0eaH
	DB	0e0H
	DB	00H
	ORG $+178
	DW	0ffffH
	DW	0ffffH
	DD	0ffffff6aH
	DB	0cdH
	DB	0e5H
	DB	0eeH
	DB	0efH
	DB	0f0H
	DB	0e5H
	DB	0e4H
	DB	0e5H
	DB	0ebH
	DB	0e5H
	DB	0edH
	DB	0edH
	DB	0e0H
	DB	0ffH
	DB	020H
	DB	0eeH
	DB	0f8H
	DB	0e8H
	DB	0e1H
	DB	0eaH
	DB	0e0H
	DB	00H
	ORG $+178
	DW	0ffffH
	DW	0ffffH
	DD	0ffffff6bH
	DB	0cdH
	DB	0e5H
	DB	0eeH
	DB	0efH
	DB	0f0H
	DB	0e5H
	DB	0e4H
	DB	0e5H
	DB	0ebH
	DB	0e5H
	DB	0edH
	DB	0edH
	DB	0e0H
	DB	0ffH
	DB	020H
	DB	0eeH
	DB	0f8H
	DB	0e8H
	DB	0e1H
	DB	0eaH
	DB	0e0H
	DB	00H
	ORG $+178
	DW	0ffffH
	DW	0ffffH
	DD	0ffffff6cH
	DB	0cdH
	DB	0e5H
	DB	0eeH
	DB	0efH
	DB	0f0H
	DB	0e5H
	DB	0e4H
	DB	0e5H
	DB	0ebH
	DB	0e5H
	DB	0edH
	DB	0edH
	DB	0e0H
	DB	0ffH
	DB	020H
	DB	0eeH
	DB	0f8H
	DB	0e8H
	DB	0e1H
	DB	0eaH
	DB	0e0H
	DB	00H
	ORG $+178
	DW	0ffffH
	DW	0ffffH
	DD	0ffffff6dH
	DB	0cdH
	DB	0e5H
	DB	0eeH
	DB	0efH
	DB	0f0H
	DB	0e5H
	DB	0e4H
	DB	0e5H
	DB	0ebH
	DB	0e5H
	DB	0edH
	DB	0edH
	DB	0e0H
	DB	0ffH
	DB	020H
	DB	0eeH
	DB	0f8H
	DB	0e8H
	DB	0e1H
	DB	0eaH
	DB	0e0H
	DB	00H
	ORG $+178
	DW	0ffffH
	DW	0ffffH
	DD	0ffffff6eH
	DB	0cdH
	DB	0e5H
	DB	0eeH
	DB	0efH
	DB	0f0H
	DB	0e5H
	DB	0e4H
	DB	0e5H
	DB	0ebH
	DB	0e5H
	DB	0edH
	DB	0edH
	DB	0e0H
	DB	0ffH
	DB	020H
	DB	0eeH
	DB	0f8H
	DB	0e8H
	DB	0e1H
	DB	0eaH
	DB	0e0H
	DB	00H
	ORG $+178
	DW	0ffffH
	DW	0ffffH
	DD	0ffffff6fH
	DB	0cdH
	DB	0e5H
	DB	0eeH
	DB	0efH
	DB	0f0H
	DB	0e5H
	DB	0e4H
	DB	0e5H
	DB	0ebH
	DB	0e5H
	DB	0edH
	DB	0edH
	DB	0e0H
	DB	0ffH
	DB	020H
	DB	0eeH
	DB	0f8H
	DB	0e8H
	DB	0e1H
	DB	0eaH
	DB	0e0H
	DB	00H
	ORG $+178
	DW	0ffffH
	DW	0ffffH
	DD	0ffffff70H
	DB	0cdH
	DB	0e5H
	DB	0eeH
	DB	0efH
	DB	0f0H
	DB	0e5H
	DB	0e4H
	DB	0e5H
	DB	0ebH
	DB	0e5H
	DB	0edH
	DB	0edH
	DB	0e0H
	DB	0ffH
	DB	020H
	DB	0eeH
	DB	0f8H
	DB	0e8H
	DB	0e1H
	DB	0eaH
	DB	0e0H
	DB	00H
	ORG $+178
	DW	0ffffH
	DW	0ffffH
	DD	0ffffff71H
	DB	0cdH
	DB	0e5H
	DB	0eeH
	DB	0efH
	DB	0f0H
	DB	0e5H
	DB	0e4H
	DB	0e5H
	DB	0ebH
	DB	0e5H
	DB	0edH
	DB	0edH
	DB	0e0H
	DB	0ffH
	DB	020H
	DB	0eeH
	DB	0f8H
	DB	0e8H
	DB	0e1H
	DB	0eaH
	DB	0e0H
	DB	00H
	ORG $+178
	DW	0ffffH
	DW	0ffffH
	DD	0ffffff72H
	DB	0cdH
	DB	0e5H
	DB	0eeH
	DB	0efH
	DB	0f0H
	DB	0e5H
	DB	0e4H
	DB	0e5H
	DB	0ebH
	DB	0e5H
	DB	0edH
	DB	0edH
	DB	0e0H
	DB	0ffH
	DB	020H
	DB	0eeH
	DB	0f8H
	DB	0e8H
	DB	0e1H
	DB	0eaH
	DB	0e0H
	DB	00H
	ORG $+178
	DW	0ffffH
	DW	0ffffH
	DD	0ffffff73H
	DB	0cdH
	DB	0e5H
	DB	0eeH
	DB	0efH
	DB	0f0H
	DB	0e5H
	DB	0e4H
	DB	0e5H
	DB	0ebH
	DB	0e5H
	DB	0edH
	DB	0edH
	DB	0e0H
	DB	0ffH
	DB	020H
	DB	0eeH
	DB	0f8H
	DB	0e8H
	DB	0e1H
	DB	0eaH
	DB	0e0H
	DB	00H
	ORG $+178
	DW	0ffffH
	DW	0ffffH
	DD	0ffffff74H
	DB	0cdH
	DB	0e5H
	DB	0eeH
	DB	0efH
	DB	0f0H
	DB	0e5H
	DB	0e4H
	DB	0e5H
	DB	0ebH
	DB	0e5H
	DB	0edH
	DB	0edH
	DB	0e0H
	DB	0ffH
	DB	020H
	DB	0eeH
	DB	0f8H
	DB	0e8H
	DB	0e1H
	DB	0eaH
	DB	0e0H
	DB	00H
	ORG $+178
	DW	0ffffH
	DW	0ffffH
	DD	0ffffff75H
	DB	0cdH
	DB	0e5H
	DB	0eeH
	DB	0efH
	DB	0f0H
	DB	0e5H
	DB	0e4H
	DB	0e5H
	DB	0ebH
	DB	0e5H
	DB	0edH
	DB	0edH
	DB	0e0H
	DB	0ffH
	DB	020H
	DB	0eeH
	DB	0f8H
	DB	0e8H
	DB	0e1H
	DB	0eaH
	DB	0e0H
	DB	00H
	ORG $+178
	DW	0ffffH
	DW	0ffffH
	DD	0ffffff76H
	DB	0cdH
	DB	0e5H
	DB	0eeH
	DB	0efH
	DB	0f0H
	DB	0e5H
	DB	0e4H
	DB	0e5H
	DB	0ebH
	DB	0e5H
	DB	0edH
	DB	0edH
	DB	0e0H
	DB	0ffH
	DB	020H
	DB	0eeH
	DB	0f8H
	DB	0e8H
	DB	0e1H
	DB	0eaH
	DB	0e0H
	DB	00H
	ORG $+178
	DW	0ffffH
	DW	0ffffH
	DD	0ffffff77H
	DB	0cdH
	DB	0e5H
	DB	0eeH
	DB	0efH
	DB	0f0H
	DB	0e5H
	DB	0e4H
	DB	0e5H
	DB	0ebH
	DB	0e5H
	DB	0edH
	DB	0edH
	DB	0e0H
	DB	0ffH
	DB	020H
	DB	0eeH
	DB	0f8H
	DB	0e8H
	DB	0e1H
	DB	0eaH
	DB	0e0H
	DB	00H
	ORG $+178
	DW	0ffffH
	DW	0ffffH
	DD	0ffffff78H
	DB	0cdH
	DB	0e5H
	DB	0eeH
	DB	0efH
	DB	0f0H
	DB	0e5H
	DB	0e4H
	DB	0e5H
	DB	0ebH
	DB	0e5H
	DB	0edH
	DB	0edH
	DB	0e0H
	DB	0ffH
	DB	020H
	DB	0eeH
	DB	0f8H
	DB	0e8H
	DB	0e1H
	DB	0eaH
	DB	0e0H
	DB	00H
	ORG $+178
	DW	0ffffH
	DW	0ffffH
	DD	0ffffff79H
	DB	0cdH
	DB	0e5H
	DB	0eeH
	DB	0efH
	DB	0f0H
	DB	0e5H
	DB	0e4H
	DB	0e5H
	DB	0ebH
	DB	0e5H
	DB	0edH
	DB	0edH
	DB	0e0H
	DB	0ffH
	DB	020H
	DB	0eeH
	DB	0f8H
	DB	0e8H
	DB	0e1H
	DB	0eaH
	DB	0e0H
	DB	00H
	ORG $+178
	DW	0ffffH
	DW	0ffffH
	DD	0ffffff7aH
	DB	0cdH
	DB	0e5H
	DB	0eeH
	DB	0efH
	DB	0f0H
	DB	0e5H
	DB	0e4H
	DB	0e5H
	DB	0ebH
	DB	0e5H
	DB	0edH
	DB	0edH
	DB	0e0H
	DB	0ffH
	DB	020H
	DB	0eeH
	DB	0f8H
	DB	0e8H
	DB	0e1H
	DB	0eaH
	DB	0e0H
	DB	00H
	ORG $+178
	DW	0ffffH
	DW	0ffffH
	DD	0ffffff7bH
	DB	0cdH
	DB	0e5H
	DB	0eeH
	DB	0efH
	DB	0f0H
	DB	0e5H
	DB	0e4H
	DB	0e5H
	DB	0ebH
	DB	0e5H
	DB	0edH
	DB	0edH
	DB	0e0H
	DB	0ffH
	DB	020H
	DB	0eeH
	DB	0f8H
	DB	0e8H
	DB	0e1H
	DB	0eaH
	DB	0e0H
	DB	00H
	ORG $+178
	DW	0ffffH
	DW	0ffffH
	DD	0ffffff7cH
	DB	0cdH
	DB	0e5H
	DB	0eeH
	DB	0efH
	DB	0f0H
	DB	0e5H
	DB	0e4H
	DB	0e5H
	DB	0ebH
	DB	0e5H
	DB	0edH
	DB	0edH
	DB	0e0H
	DB	0ffH
	DB	020H
	DB	0eeH
	DB	0f8H
	DB	0e8H
	DB	0e1H
	DB	0eaH
	DB	0e0H
	DB	00H
	ORG $+178
	DW	0ffffH
	DW	0ffffH
	DD	0ffffff7dH
	DB	0cdH
	DB	0e5H
	DB	0eeH
	DB	0efH
	DB	0f0H
	DB	0e5H
	DB	0e4H
	DB	0e5H
	DB	0ebH
	DB	0e5H
	DB	0edH
	DB	0edH
	DB	0e0H
	DB	0ffH
	DB	020H
	DB	0eeH
	DB	0f8H
	DB	0e8H
	DB	0e1H
	DB	0eaH
	DB	0e0H
	DB	00H
	ORG $+178
	DW	0ffffH
	DW	0ffffH
	DD	0ffffff7eH
	DB	0cdH
	DB	0e5H
	DB	0eeH
	DB	0efH
	DB	0f0H
	DB	0e5H
	DB	0e4H
	DB	0e5H
	DB	0ebH
	DB	0e5H
	DB	0edH
	DB	0edH
	DB	0e0H
	DB	0ffH
	DB	020H
	DB	0eeH
	DB	0f8H
	DB	0e8H
	DB	0e1H
	DB	0eaH
	DB	0e0H
	DB	00H
	ORG $+178
	DW	0ffffH
	DW	0ffffH
	DD	0ffffff7fH
	DB	0cdH
	DB	0e5H
	DB	0eeH
	DB	0efH
	DB	0f0H
	DB	0e5H
	DB	0e4H
	DB	0e5H
	DB	0ebH
	DB	0e5H
	DB	0edH
	DB	0edH
	DB	0e0H
	DB	0ffH
	DB	020H
	DB	0eeH
	DB	0f8H
	DB	0e8H
	DB	0e1H
	DB	0eaH
	DB	0e0H
	DB	00H
	ORG $+178
	DW	0ffffH
	DW	0ffffH
	DD	0ffffff80H
	DB	0cdH
	DB	0e5H
	DB	0eeH
	DB	0efH
	DB	0f0H
	DB	0e5H
	DB	0e4H
	DB	0e5H
	DB	0ebH
	DB	0e5H
	DB	0edH
	DB	0edH
	DB	0e0H
	DB	0ffH
	DB	020H
	DB	0eeH
	DB	0f8H
	DB	0e8H
	DB	0e1H
	DB	0eaH
	DB	0e0H
	DB	00H
	ORG $+178
	DW	0ffffH
	DW	0ffffH
	DD	0ffffff81H
	DB	0cdH
	DB	0e5H
	DB	0eeH
	DB	0efH
	DB	0f0H
	DB	0e5H
	DB	0e4H
	DB	0e5H
	DB	0ebH
	DB	0e5H
	DB	0edH
	DB	0edH
	DB	0e0H
	DB	0ffH
	DB	020H
	DB	0eeH
	DB	0f8H
	DB	0e8H
	DB	0e1H
	DB	0eaH
	DB	0e0H
	DB	00H
	ORG $+178
	DW	0ffffH
	DW	0ffffH
	DD	0ffffff82H
	DB	0cdH
	DB	0e5H
	DB	0eeH
	DB	0efH
	DB	0f0H
	DB	0e5H
	DB	0e4H
	DB	0e5H
	DB	0ebH
	DB	0e5H
	DB	0edH
	DB	0edH
	DB	0e0H
	DB	0ffH
	DB	020H
	DB	0eeH
	DB	0f8H
	DB	0e8H
	DB	0e1H
	DB	0eaH
	DB	0e0H
	DB	00H
	ORG $+178
	DW	0ffffH
	DW	0ffffH
	DD	0ffffff83H
	DB	0cdH
	DB	0e5H
	DB	0eeH
	DB	0efH
	DB	0f0H
	DB	0e5H
	DB	0e4H
	DB	0e5H
	DB	0ebH
	DB	0e5H
	DB	0edH
	DB	0edH
	DB	0e0H
	DB	0ffH
	DB	020H
	DB	0eeH
	DB	0f8H
	DB	0e8H
	DB	0e1H
	DB	0eaH
	DB	0e0H
	DB	00H
	ORG $+178
	DW	0ffffH
	DW	0ffffH
	DD	0ffffff84H
	DB	0cdH
	DB	0e5H
	DB	0eeH
	DB	0efH
	DB	0f0H
	DB	0e5H
	DB	0e4H
	DB	0e5H
	DB	0ebH
	DB	0e5H
	DB	0edH
	DB	0edH
	DB	0e0H
	DB	0ffH
	DB	020H
	DB	0eeH
	DB	0f8H
	DB	0e8H
	DB	0e1H
	DB	0eaH
	DB	0e0H
	DB	00H
	ORG $+178
	DW	0ffffH
	DW	0ffffH
	DD	0ffffff85H
	DB	0cdH
	DB	0e5H
	DB	0eeH
	DB	0efH
	DB	0f0H
	DB	0e5H
	DB	0e4H
	DB	0e5H
	DB	0ebH
	DB	0e5H
	DB	0edH
	DB	0edH
	DB	0e0H
	DB	0ffH
	DB	020H
	DB	0eeH
	DB	0f8H
	DB	0e8H
	DB	0e1H
	DB	0eaH
	DB	0e0H
	DB	00H
	ORG $+178
	DW	0ffffH
	DW	0ffffH
	DD	0ffffff86H
	DB	0cdH
	DB	0e5H
	DB	0eeH
	DB	0efH
	DB	0f0H
	DB	0e5H
	DB	0e4H
	DB	0e5H
	DB	0ebH
	DB	0e5H
	DB	0edH
	DB	0edH
	DB	0e0H
	DB	0ffH
	DB	020H
	DB	0eeH
	DB	0f8H
	DB	0e8H
	DB	0e1H
	DB	0eaH
	DB	0e0H
	DB	00H
	ORG $+178
	DW	0ffffH
	DW	0ffffH
	DD	0ffffff87H
	DB	0cdH
	DB	0e5H
	DB	0eeH
	DB	0efH
	DB	0f0H
	DB	0e5H
	DB	0e4H
	DB	0e5H
	DB	0ebH
	DB	0e5H
	DB	0edH
	DB	0edH
	DB	0e0H
	DB	0ffH
	DB	020H
	DB	0eeH
	DB	0f8H
	DB	0e8H
	DB	0e1H
	DB	0eaH
	DB	0e0H
	DB	00H
	ORG $+178
	DW	0ffffH
	DW	0ffffH
	DD	0ffffff88H
	DB	0cdH
	DB	0e5H
	DB	0eeH
	DB	0efH
	DB	0f0H
	DB	0e5H
	DB	0e4H
	DB	0e5H
	DB	0ebH
	DB	0e5H
	DB	0edH
	DB	0edH
	DB	0e0H
	DB	0ffH
	DB	020H
	DB	0eeH
	DB	0f8H
	DB	0e8H
	DB	0e1H
	DB	0eaH
	DB	0e0H
	DB	00H
	ORG $+178
	DW	0ffffH
	DW	0ffffH
	DD	0ffffff89H
	DB	0cdH
	DB	0e5H
	DB	0eeH
	DB	0efH
	DB	0f0H
	DB	0e5H
	DB	0e4H
	DB	0e5H
	DB	0ebH
	DB	0e5H
	DB	0edH
	DB	0edH
	DB	0e0H
	DB	0ffH
	DB	020H
	DB	0eeH
	DB	0f8H
	DB	0e8H
	DB	0e1H
	DB	0eaH
	DB	0e0H
	DB	00H
	ORG $+178
	DW	0ffffH
	DW	0ffffH
	DD	0ffffff8aH
	DB	0cdH
	DB	0e5H
	DB	0eeH
	DB	0efH
	DB	0f0H
	DB	0e5H
	DB	0e4H
	DB	0e5H
	DB	0ebH
	DB	0e5H
	DB	0edH
	DB	0edH
	DB	0e0H
	DB	0ffH
	DB	020H
	DB	0eeH
	DB	0f8H
	DB	0e8H
	DB	0e1H
	DB	0eaH
	DB	0e0H
	DB	00H
	ORG $+178
	DW	0ffffH
	DW	0ffffH
	DD	0ffffff8bH
	DB	0cdH
	DB	0e5H
	DB	0eeH
	DB	0efH
	DB	0f0H
	DB	0e5H
	DB	0e4H
	DB	0e5H
	DB	0ebH
	DB	0e5H
	DB	0edH
	DB	0edH
	DB	0e0H
	DB	0ffH
	DB	020H
	DB	0eeH
	DB	0f8H
	DB	0e8H
	DB	0e1H
	DB	0eaH
	DB	0e0H
	DB	00H
	ORG $+178
	DW	0ffffH
	DW	0ffffH
	DD	0ffffff8cH
	DB	0cdH
	DB	0e5H
	DB	0eeH
	DB	0efH
	DB	0f0H
	DB	0e5H
	DB	0e4H
	DB	0e5H
	DB	0ebH
	DB	0e5H
	DB	0edH
	DB	0edH
	DB	0e0H
	DB	0ffH
	DB	020H
	DB	0eeH
	DB	0f8H
	DB	0e8H
	DB	0e1H
	DB	0eaH
	DB	0e0H
	DB	00H
	ORG $+178
	DW	0ffffH
	DW	0ffffH
	DD	0ffffff8dH
	DB	0cdH
	DB	0e5H
	DB	0eeH
	DB	0efH
	DB	0f0H
	DB	0e5H
	DB	0e4H
	DB	0e5H
	DB	0ebH
	DB	0e5H
	DB	0edH
	DB	0edH
	DB	0e0H
	DB	0ffH
	DB	020H
	DB	0eeH
	DB	0f8H
	DB	0e8H
	DB	0e1H
	DB	0eaH
	DB	0e0H
	DB	00H
	ORG $+178
	DW	0ffffH
	DW	0ffffH
	DD	0ffffff8eH
	DB	0cdH
	DB	0e5H
	DB	0eeH
	DB	0efH
	DB	0f0H
	DB	0e5H
	DB	0e4H
	DB	0e5H
	DB	0ebH
	DB	0e5H
	DB	0edH
	DB	0edH
	DB	0e0H
	DB	0ffH
	DB	020H
	DB	0eeH
	DB	0f8H
	DB	0e8H
	DB	0e1H
	DB	0eaH
	DB	0e0H
	DB	00H
	ORG $+178
	DW	0ffffH
	DW	0ffffH
	DD	0ffffff8fH
	DB	0cdH
	DB	0e5H
	DB	0eeH
	DB	0efH
	DB	0f0H
	DB	0e5H
	DB	0e4H
	DB	0e5H
	DB	0ebH
	DB	0e5H
	DB	0edH
	DB	0edH
	DB	0e0H
	DB	0ffH
	DB	020H
	DB	0eeH
	DB	0f8H
	DB	0e8H
	DB	0e1H
	DB	0eaH
	DB	0e0H
	DB	00H
	ORG $+178
	DW	0ffffH
	DW	0ffffH
	DD	0ffffff90H
	DB	0cdH
	DB	0e5H
	DB	0eeH
	DB	0efH
	DB	0f0H
	DB	0e5H
	DB	0e4H
	DB	0e5H
	DB	0ebH
	DB	0e5H
	DB	0edH
	DB	0edH
	DB	0e0H
	DB	0ffH
	DB	020H
	DB	0eeH
	DB	0f8H
	DB	0e8H
	DB	0e1H
	DB	0eaH
	DB	0e0H
	DB	00H
	ORG $+178
	DW	0ffffH
	DW	0ffffH
	DD	0ffffff91H
	DB	0cdH
	DB	0e5H
	DB	0eeH
	DB	0efH
	DB	0f0H
	DB	0e5H
	DB	0e4H
	DB	0e5H
	DB	0ebH
	DB	0e5H
	DB	0edH
	DB	0edH
	DB	0e0H
	DB	0ffH
	DB	020H
	DB	0eeH
	DB	0f8H
	DB	0e8H
	DB	0e1H
	DB	0eaH
	DB	0e0H
	DB	00H
	ORG $+178
	DW	0ffffH
	DW	0ffffH
	DD	0ffffff92H
	DB	0cdH
	DB	0e5H
	DB	0eeH
	DB	0efH
	DB	0f0H
	DB	0e5H
	DB	0e4H
	DB	0e5H
	DB	0ebH
	DB	0e5H
	DB	0edH
	DB	0edH
	DB	0e0H
	DB	0ffH
	DB	020H
	DB	0eeH
	DB	0f8H
	DB	0e8H
	DB	0e1H
	DB	0eaH
	DB	0e0H
	DB	00H
	ORG $+178
	DW	0ffffH
	DW	0ffffH
	DD	0ffffff93H
	DB	0cdH
	DB	0e5H
	DB	0eeH
	DB	0efH
	DB	0f0H
	DB	0e5H
	DB	0e4H
	DB	0e5H
	DB	0ebH
	DB	0e5H
	DB	0edH
	DB	0edH
	DB	0e0H
	DB	0ffH
	DB	020H
	DB	0eeH
	DB	0f8H
	DB	0e8H
	DB	0e1H
	DB	0eaH
	DB	0e0H
	DB	00H
	ORG $+178
	DW	0ffffH
	DW	0ffffH
	DD	0ffffff94H
	DB	0cdH
	DB	0e5H
	DB	0eeH
	DB	0efH
	DB	0f0H
	DB	0e5H
	DB	0e4H
	DB	0e5H
	DB	0ebH
	DB	0e5H
	DB	0edH
	DB	0edH
	DB	0e0H
	DB	0ffH
	DB	020H
	DB	0eeH
	DB	0f8H
	DB	0e8H
	DB	0e1H
	DB	0eaH
	DB	0e0H
	DB	00H
	ORG $+178
	DW	0ffffH
	DW	0ffffH
	DD	0ffffff95H
	DB	0cdH
	DB	0e5H
	DB	0eeH
	DB	0efH
	DB	0f0H
	DB	0e5H
	DB	0e4H
	DB	0e5H
	DB	0ebH
	DB	0e5H
	DB	0edH
	DB	0edH
	DB	0e0H
	DB	0ffH
	DB	020H
	DB	0eeH
	DB	0f8H
	DB	0e8H
	DB	0e1H
	DB	0eaH
	DB	0e0H
	DB	00H
	ORG $+178
	DW	0ffffH
	DW	0ffffH
	DD	0ffffff96H
	DB	0cdH
	DB	0e5H
	DB	0eeH
	DB	0efH
	DB	0f0H
	DB	0e5H
	DB	0e4H
	DB	0e5H
	DB	0ebH
	DB	0e5H
	DB	0edH
	DB	0edH
	DB	0e0H
	DB	0ffH
	DB	020H
	DB	0eeH
	DB	0f8H
	DB	0e8H
	DB	0e1H
	DB	0eaH
	DB	0e0H
	DB	00H
	ORG $+178
	DW	0ffffH
	DW	0ffffH
	DD	0ffffff97H
	DB	0cdH
	DB	0e5H
	DB	0eeH
	DB	0efH
	DB	0f0H
	DB	0e5H
	DB	0e4H
	DB	0e5H
	DB	0ebH
	DB	0e5H
	DB	0edH
	DB	0edH
	DB	0e0H
	DB	0ffH
	DB	020H
	DB	0eeH
	DB	0f8H
	DB	0e8H
	DB	0e1H
	DB	0eaH
	DB	0e0H
	DB	00H
	ORG $+178
	DW	0ffffH
	DW	0ffffH
	DD	0ffffff98H
	DB	0cdH
	DB	0e5H
	DB	0eeH
	DB	0efH
	DB	0f0H
	DB	0e5H
	DB	0e4H
	DB	0e5H
	DB	0ebH
	DB	0e5H
	DB	0edH
	DB	0edH
	DB	0e0H
	DB	0ffH
	DB	020H
	DB	0eeH
	DB	0f8H
	DB	0e8H
	DB	0e1H
	DB	0eaH
	DB	0e0H
	DB	00H
	ORG $+178
	DW	0ffffH
	DW	0ffffH
	DD	0ffffff99H
	DB	0cdH
	DB	0e5H
	DB	0eeH
	DB	0efH
	DB	0f0H
	DB	0e5H
	DB	0e4H
	DB	0e5H
	DB	0ebH
	DB	0e5H
	DB	0edH
	DB	0edH
	DB	0e0H
	DB	0ffH
	DB	020H
	DB	0eeH
	DB	0f8H
	DB	0e8H
	DB	0e1H
	DB	0eaH
	DB	0e0H
	DB	00H
	ORG $+178
	DW	0ffffH
	DW	0ffffH
	DD	0ffffff9aH
	DB	0cdH
	DB	0e5H
	DB	0eeH
	DB	0efH
	DB	0f0H
	DB	0e5H
	DB	0e4H
	DB	0e5H
	DB	0ebH
	DB	0e5H
	DB	0edH
	DB	0edH
	DB	0e0H
	DB	0ffH
	DB	020H
	DB	0eeH
	DB	0f8H
	DB	0e8H
	DB	0e1H
	DB	0eaH
	DB	0e0H
	DB	00H
	ORG $+178
	DW	0ffffH
	DW	0ffffH
	DD	0ffffff9bH
	DB	0cdH
	DB	0e5H
	DB	0eeH
	DB	0efH
	DB	0f0H
	DB	0e5H
	DB	0e4H
	DB	0e5H
	DB	0ebH
	DB	0e5H
	DB	0edH
	DB	0edH
	DB	0e0H
	DB	0ffH
	DB	020H
	DB	0eeH
	DB	0f8H
	DB	0e8H
	DB	0e1H
	DB	0eaH
	DB	0e0H
	DB	00H
	ORG $+178
	DW	0ffffH
	DW	0ffffH
	DD	0fffffed4H
	DB	0cdH
	DB	0e5H
	DB	0eeH
	DB	0efH
	DB	0f0H
	DB	0e5H
	DB	0e4H
	DB	0e5H
	DB	0ebH
	DB	0e5H
	DB	0edH
	DB	0edH
	DB	0e0H
	DB	0ffH
	DB	020H
	DB	0eeH
	DB	0f8H
	DB	0e8H
	DB	0e1H
	DB	0eaH
	DB	0e0H
	DB	00H
	ORG $+178
	DW	0ffffH
	DW	0ffffH
	DD	0fffffed5H
	DB	0cdH
	DB	0e5H
	DB	0eeH
	DB	0efH
	DB	0f0H
	DB	0e5H
	DB	0e4H
	DB	0e5H
	DB	0ebH
	DB	0e5H
	DB	0edH
	DB	0edH
	DB	0e0H
	DB	0ffH
	DB	020H
	DB	0eeH
	DB	0f8H
	DB	0e8H
	DB	0e1H
	DB	0eaH
	DB	0e0H
	DB	00H
	ORG $+178
	DW	0ffffH
	DW	0ffffH
	DD	0fffffed6H
	DB	0cdH
	DB	0e5H
	DB	0eeH
	DB	0efH
	DB	0f0H
	DB	0e5H
	DB	0e4H
	DB	0e5H
	DB	0ebH
	DB	0e5H
	DB	0edH
	DB	0edH
	DB	0e0H
	DB	0ffH
	DB	020H
	DB	0eeH
	DB	0f8H
	DB	0e8H
	DB	0e1H
	DB	0eaH
	DB	0e0H
	DB	00H
	ORG $+178
	DW	0ffffH
	DW	0ffffH
	DD	0fffffed7H
	DB	0cdH
	DB	0e5H
	DB	0eeH
	DB	0efH
	DB	0f0H
	DB	0e5H
	DB	0e4H
	DB	0e5H
	DB	0ebH
	DB	0e5H
	DB	0edH
	DB	0edH
	DB	0e0H
	DB	0ffH
	DB	020H
	DB	0eeH
	DB	0f8H
	DB	0e8H
	DB	0e1H
	DB	0eaH
	DB	0e0H
	DB	00H
	ORG $+178
	DW	0ffffH
	DW	0ffffH
	DD	0fffffed8H
	DB	0cdH
	DB	0e5H
	DB	0eeH
	DB	0efH
	DB	0f0H
	DB	0e5H
	DB	0e4H
	DB	0e5H
	DB	0ebH
	DB	0e5H
	DB	0edH
	DB	0edH
	DB	0e0H
	DB	0ffH
	DB	020H
	DB	0eeH
	DB	0f8H
	DB	0e8H
	DB	0e1H
	DB	0eaH
	DB	0e0H
	DB	00H
	ORG $+178
	DW	0ffffH
	DW	0ffffH
	DD	0fffffed9H
	DB	0cdH
	DB	0e5H
	DB	0eeH
	DB	0efH
	DB	0f0H
	DB	0e5H
	DB	0e4H
	DB	0e5H
	DB	0ebH
	DB	0e5H
	DB	0edH
	DB	0edH
	DB	0e0H
	DB	0ffH
	DB	020H
	DB	0eeH
	DB	0f8H
	DB	0e8H
	DB	0e1H
	DB	0eaH
	DB	0e0H
	DB	00H
	ORG $+178
	DW	0ffffH
	DW	0ffffH
	DD	0fffffedaH
	DB	0cdH
	DB	0e5H
	DB	0eeH
	DB	0efH
	DB	0f0H
	DB	0e5H
	DB	0e4H
	DB	0e5H
	DB	0ebH
	DB	0e5H
	DB	0edH
	DB	0edH
	DB	0e0H
	DB	0ffH
	DB	020H
	DB	0eeH
	DB	0f8H
	DB	0e8H
	DB	0e1H
	DB	0eaH
	DB	0e0H
	DB	00H
	ORG $+178
	DW	0ffffH
	DW	0ffffH
	DD	0fffffedbH
	DB	0cdH
	DB	0e5H
	DB	0eeH
	DB	0efH
	DB	0f0H
	DB	0e5H
	DB	0e4H
	DB	0e5H
	DB	0ebH
	DB	0e5H
	DB	0edH
	DB	0edH
	DB	0e0H
	DB	0ffH
	DB	020H
	DB	0eeH
	DB	0f8H
	DB	0e8H
	DB	0e1H
	DB	0eaH
	DB	0e0H
	DB	00H
	ORG $+178
	DW	0ffffH
	DW	0ffffH
	DD	0fffffedcH
	DB	0cdH
	DB	0e5H
	DB	0eeH
	DB	0efH
	DB	0f0H
	DB	0e5H
	DB	0e4H
	DB	0e5H
	DB	0ebH
	DB	0e5H
	DB	0edH
	DB	0edH
	DB	0e0H
	DB	0ffH
	DB	020H
	DB	0eeH
	DB	0f8H
	DB	0e8H
	DB	0e1H
	DB	0eaH
	DB	0e0H
	DB	00H
	ORG $+178
	DW	0ffffH
	DW	0ffffH
	DD	0fffffeddH
	DB	0cdH
	DB	0e5H
	DB	0eeH
	DB	0efH
	DB	0f0H
	DB	0e5H
	DB	0e4H
	DB	0e5H
	DB	0ebH
	DB	0e5H
	DB	0edH
	DB	0edH
	DB	0e0H
	DB	0ffH
	DB	020H
	DB	0eeH
	DB	0f8H
	DB	0e8H
	DB	0e1H
	DB	0eaH
	DB	0e0H
	DB	00H
	ORG $+178
	DW	0ffffH
	DW	0ffffH
	DD	0fffffedeH
	DB	0cdH
	DB	0e5H
	DB	0eeH
	DB	0efH
	DB	0f0H
	DB	0e5H
	DB	0e4H
	DB	0e5H
	DB	0ebH
	DB	0e5H
	DB	0edH
	DB	0edH
	DB	0e0H
	DB	0ffH
	DB	020H
	DB	0eeH
	DB	0f8H
	DB	0e8H
	DB	0e1H
	DB	0eaH
	DB	0e0H
	DB	00H
	ORG $+178
	DW	0ffffH
	DW	0ffffH
	DD	0fffffedfH
	DB	0cdH
	DB	0e5H
	DB	0eeH
	DB	0efH
	DB	0f0H
	DB	0e5H
	DB	0e4H
	DB	0e5H
	DB	0ebH
	DB	0e5H
	DB	0edH
	DB	0edH
	DB	0e0H
	DB	0ffH
	DB	020H
	DB	0eeH
	DB	0f8H
	DB	0e8H
	DB	0e1H
	DB	0eaH
	DB	0e0H
	DB	00H
	ORG $+178
	DW	0ffffH
	DW	0ffffH
	DD	0fffffee0H
	DB	0cdH
	DB	0e5H
	DB	0eeH
	DB	0efH
	DB	0f0H
	DB	0e5H
	DB	0e4H
	DB	0e5H
	DB	0ebH
	DB	0e5H
	DB	0edH
	DB	0edH
	DB	0e0H
	DB	0ffH
	DB	020H
	DB	0eeH
	DB	0f8H
	DB	0e8H
	DB	0e1H
	DB	0eaH
	DB	0e0H
	DB	00H
	ORG $+178
	DW	0ffffH
	DW	0ffffH
	DD	0fffffee1H
	DB	0cdH
	DB	0e5H
	DB	0eeH
	DB	0efH
	DB	0f0H
	DB	0e5H
	DB	0e4H
	DB	0e5H
	DB	0ebH
	DB	0e5H
	DB	0edH
	DB	0edH
	DB	0e0H
	DB	0ffH
	DB	020H
	DB	0eeH
	DB	0f8H
	DB	0e8H
	DB	0e1H
	DB	0eaH
	DB	0e0H
	DB	00H
	ORG $+178
	DW	0ffffH
	DW	0ffffH
	DD	0fffffee2H
	DB	0cdH
	DB	0e5H
	DB	0eeH
	DB	0efH
	DB	0f0H
	DB	0e5H
	DB	0e4H
	DB	0e5H
	DB	0ebH
	DB	0e5H
	DB	0edH
	DB	0edH
	DB	0e0H
	DB	0ffH
	DB	020H
	DB	0eeH
	DB	0f8H
	DB	0e8H
	DB	0e1H
	DB	0eaH
	DB	0e0H
	DB	00H
	ORG $+178
	DW	0ffffH
	DW	0ffffH
	DD	0fffffee3H
	DB	0cdH
	DB	0e5H
	DB	0eeH
	DB	0efH
	DB	0f0H
	DB	0e5H
	DB	0e4H
	DB	0e5H
	DB	0ebH
	DB	0e5H
	DB	0edH
	DB	0edH
	DB	0e0H
	DB	0ffH
	DB	020H
	DB	0eeH
	DB	0f8H
	DB	0e8H
	DB	0e1H
	DB	0eaH
	DB	0e0H
	DB	00H
	ORG $+178
	DW	0ffffH
	DW	0ffffH
	DD	0fffffee4H
	DB	0cdH
	DB	0e5H
	DB	0eeH
	DB	0efH
	DB	0f0H
	DB	0e5H
	DB	0e4H
	DB	0e5H
	DB	0ebH
	DB	0e5H
	DB	0edH
	DB	0edH
	DB	0e0H
	DB	0ffH
	DB	020H
	DB	0eeH
	DB	0f8H
	DB	0e8H
	DB	0e1H
	DB	0eaH
	DB	0e0H
	DB	00H
	ORG $+178
	DW	0ffffH
	DW	0ffffH
	DD	0fffffee5H
	DB	0cdH
	DB	0e5H
	DB	0eeH
	DB	0efH
	DB	0f0H
	DB	0e5H
	DB	0e4H
	DB	0e5H
	DB	0ebH
	DB	0e5H
	DB	0edH
	DB	0edH
	DB	0e0H
	DB	0ffH
	DB	020H
	DB	0eeH
	DB	0f8H
	DB	0e8H
	DB	0e1H
	DB	0eaH
	DB	0e0H
	DB	00H
	ORG $+178
	DW	0ffffH
	DW	0ffffH
	DD	0fffffee6H
	DB	0cdH
	DB	0e5H
	DB	0eeH
	DB	0efH
	DB	0f0H
	DB	0e5H
	DB	0e4H
	DB	0e5H
	DB	0ebH
	DB	0e5H
	DB	0edH
	DB	0edH
	DB	0e0H
	DB	0ffH
	DB	020H
	DB	0eeH
	DB	0f8H
	DB	0e8H
	DB	0e1H
	DB	0eaH
	DB	0e0H
	DB	00H
	ORG $+178
	DW	0ffffH
	DW	0ffffH
	DD	0fffffee7H
	DB	0cdH
	DB	0e5H
	DB	0eeH
	DB	0efH
	DB	0f0H
	DB	0e5H
	DB	0e4H
	DB	0e5H
	DB	0ebH
	DB	0e5H
	DB	0edH
	DB	0edH
	DB	0e0H
	DB	0ffH
	DB	020H
	DB	0eeH
	DB	0f8H
	DB	0e8H
	DB	0e1H
	DB	0eaH
	DB	0e0H
	DB	00H
	ORG $+178
	DW	0ffffH
	DW	0ffffH
	DD	0fffffee8H
	DB	0cdH
	DB	0e5H
	DB	0eeH
	DB	0efH
	DB	0f0H
	DB	0e5H
	DB	0e4H
	DB	0e5H
	DB	0ebH
	DB	0e5H
	DB	0edH
	DB	0edH
	DB	0e0H
	DB	0ffH
	DB	020H
	DB	0eeH
	DB	0f8H
	DB	0e8H
	DB	0e1H
	DB	0eaH
	DB	0e0H
	DB	00H
	ORG $+178
	DW	0ffffH
	DW	0ffffH
	DD	0fffffee9H
	DB	0cdH
	DB	0e5H
	DB	0eeH
	DB	0efH
	DB	0f0H
	DB	0e5H
	DB	0e4H
	DB	0e5H
	DB	0ebH
	DB	0e5H
	DB	0edH
	DB	0edH
	DB	0e0H
	DB	0ffH
	DB	020H
	DB	0eeH
	DB	0f8H
	DB	0e8H
	DB	0e1H
	DB	0eaH
	DB	0e0H
	DB	00H
	ORG $+178
	DW	0ffffH
	DW	0ffffH
	DD	0fffffeeaH
	DB	0cdH
	DB	0e5H
	DB	0eeH
	DB	0efH
	DB	0f0H
	DB	0e5H
	DB	0e4H
	DB	0e5H
	DB	0ebH
	DB	0e5H
	DB	0edH
	DB	0edH
	DB	0e0H
	DB	0ffH
	DB	020H
	DB	0eeH
	DB	0f8H
	DB	0e8H
	DB	0e1H
	DB	0eaH
	DB	0e0H
	DB	00H
	ORG $+178
	DW	0ffffH
	DW	0ffffH
	DD	0fffffeebH
	DB	0cdH
	DB	0e5H
	DB	0eeH
	DB	0efH
	DB	0f0H
	DB	0e5H
	DB	0e4H
	DB	0e5H
	DB	0ebH
	DB	0e5H
	DB	0edH
	DB	0edH
	DB	0e0H
	DB	0ffH
	DB	020H
	DB	0eeH
	DB	0f8H
	DB	0e8H
	DB	0e1H
	DB	0eaH
	DB	0e0H
	DB	00H
	ORG $+178
	DW	0ffffH
	DW	0ffffH
	DD	0fffffeecH
	DB	0cdH
	DB	0e5H
	DB	0eeH
	DB	0efH
	DB	0f0H
	DB	0e5H
	DB	0e4H
	DB	0e5H
	DB	0ebH
	DB	0e5H
	DB	0edH
	DB	0edH
	DB	0e0H
	DB	0ffH
	DB	020H
	DB	0eeH
	DB	0f8H
	DB	0e8H
	DB	0e1H
	DB	0eaH
	DB	0e0H
	DB	00H
	ORG $+178
	DW	0ffffH
	DW	0ffffH
	DD	0fffffeedH
	DB	0cdH
	DB	0e5H
	DB	0eeH
	DB	0efH
	DB	0f0H
	DB	0e5H
	DB	0e4H
	DB	0e5H
	DB	0ebH
	DB	0e5H
	DB	0edH
	DB	0edH
	DB	0e0H
	DB	0ffH
	DB	020H
	DB	0eeH
	DB	0f8H
	DB	0e8H
	DB	0e1H
	DB	0eaH
	DB	0e0H
	DB	00H
	ORG $+178
	DW	0ffffH
	DW	0ffffH
	DD	0fffffeeeH
	DB	0cdH
	DB	0e5H
	DB	0eeH
	DB	0efH
	DB	0f0H
	DB	0e5H
	DB	0e4H
	DB	0e5H
	DB	0ebH
	DB	0e5H
	DB	0edH
	DB	0edH
	DB	0e0H
	DB	0ffH
	DB	020H
	DB	0eeH
	DB	0f8H
	DB	0e8H
	DB	0e1H
	DB	0eaH
	DB	0e0H
	DB	00H
	ORG $+178
	DW	0ffffH
	DW	0ffffH
	DD	0fffffeefH
	DB	0cdH
	DB	0e5H
	DB	0eeH
	DB	0efH
	DB	0f0H
	DB	0e5H
	DB	0e4H
	DB	0e5H
	DB	0ebH
	DB	0e5H
	DB	0edH
	DB	0edH
	DB	0e0H
	DB	0ffH
	DB	020H
	DB	0eeH
	DB	0f8H
	DB	0e8H
	DB	0e1H
	DB	0eaH
	DB	0e0H
	DB	00H
	ORG $+178
	DW	0ffffH
	DW	0ffffH
	DD	0fffffef0H
	DB	0cdH
	DB	0e5H
	DB	0eeH
	DB	0efH
	DB	0f0H
	DB	0e5H
	DB	0e4H
	DB	0e5H
	DB	0ebH
	DB	0e5H
	DB	0edH
	DB	0edH
	DB	0e0H
	DB	0ffH
	DB	020H
	DB	0eeH
	DB	0f8H
	DB	0e8H
	DB	0e1H
	DB	0eaH
	DB	0e0H
	DB	00H
	ORG $+178
	DW	0ffffH
	DW	0ffffH
	DD	0fffffef1H
	DB	0cdH
	DB	0e5H
	DB	0eeH
	DB	0efH
	DB	0f0H
	DB	0e5H
	DB	0e4H
	DB	0e5H
	DB	0ebH
	DB	0e5H
	DB	0edH
	DB	0edH
	DB	0e0H
	DB	0ffH
	DB	020H
	DB	0eeH
	DB	0f8H
	DB	0e8H
	DB	0e1H
	DB	0eaH
	DB	0e0H
	DB	00H
	ORG $+178
	DW	0ffffH
	DW	0ffffH
	DD	0fffffef2H
	DB	0cdH
	DB	0e5H
	DB	0eeH
	DB	0efH
	DB	0f0H
	DB	0e5H
	DB	0e4H
	DB	0e5H
	DB	0ebH
	DB	0e5H
	DB	0edH
	DB	0edH
	DB	0e0H
	DB	0ffH
	DB	020H
	DB	0eeH
	DB	0f8H
	DB	0e8H
	DB	0e1H
	DB	0eaH
	DB	0e0H
	DB	00H
	ORG $+178
	DW	0ffffH
	DW	0ffffH
	DD	0fffffef3H
	DB	0cdH
	DB	0e5H
	DB	0eeH
	DB	0efH
	DB	0f0H
	DB	0e5H
	DB	0e4H
	DB	0e5H
	DB	0ebH
	DB	0e5H
	DB	0edH
	DB	0edH
	DB	0e0H
	DB	0ffH
	DB	020H
	DB	0eeH
	DB	0f8H
	DB	0e8H
	DB	0e1H
	DB	0eaH
	DB	0e0H
	DB	00H
	ORG $+178
	DW	0ffffH
	DW	0ffffH
	DD	0fffffef4H
	DB	0cdH
	DB	0e5H
	DB	0eeH
	DB	0efH
	DB	0f0H
	DB	0e5H
	DB	0e4H
	DB	0e5H
	DB	0ebH
	DB	0e5H
	DB	0edH
	DB	0edH
	DB	0e0H
	DB	0ffH
	DB	020H
	DB	0eeH
	DB	0f8H
	DB	0e8H
	DB	0e1H
	DB	0eaH
	DB	0e0H
	DB	00H
	ORG $+178
	DW	0ffffH
	DW	0ffffH
	DD	0fffffef5H
	DB	0cdH
	DB	0e5H
	DB	0eeH
	DB	0efH
	DB	0f0H
	DB	0e5H
	DB	0e4H
	DB	0e5H
	DB	0ebH
	DB	0e5H
	DB	0edH
	DB	0edH
	DB	0e0H
	DB	0ffH
	DB	020H
	DB	0eeH
	DB	0f8H
	DB	0e8H
	DB	0e1H
	DB	0eaH
	DB	0e0H
	DB	00H
	ORG $+178
	DW	0ffffH
	DW	0ffffH
	DD	0fffffef6H
	DB	0cdH
	DB	0e5H
	DB	0eeH
	DB	0efH
	DB	0f0H
	DB	0e5H
	DB	0e4H
	DB	0e5H
	DB	0ebH
	DB	0e5H
	DB	0edH
	DB	0edH
	DB	0e0H
	DB	0ffH
	DB	020H
	DB	0eeH
	DB	0f8H
	DB	0e8H
	DB	0e1H
	DB	0eaH
	DB	0e0H
	DB	00H
	ORG $+178
	DW	0ffffH
	DW	0ffffH
	DD	0fffffef7H
	DB	0cdH
	DB	0e5H
	DB	0eeH
	DB	0efH
	DB	0f0H
	DB	0e5H
	DB	0e4H
	DB	0e5H
	DB	0ebH
	DB	0e5H
	DB	0edH
	DB	0edH
	DB	0e0H
	DB	0ffH
	DB	020H
	DB	0eeH
	DB	0f8H
	DB	0e8H
	DB	0e1H
	DB	0eaH
	DB	0e0H
	DB	00H
	ORG $+178
	DW	0ffffH
	DW	0ffffH
	DD	0fffffef8H
	DB	0cdH
	DB	0e5H
	DB	0eeH
	DB	0efH
	DB	0f0H
	DB	0e5H
	DB	0e4H
	DB	0e5H
	DB	0ebH
	DB	0e5H
	DB	0edH
	DB	0edH
	DB	0e0H
	DB	0ffH
	DB	020H
	DB	0eeH
	DB	0f8H
	DB	0e8H
	DB	0e1H
	DB	0eaH
	DB	0e0H
	DB	00H
	ORG $+178
	DW	0ffffH
	DW	0ffffH
	DD	0fffffef9H
	DB	0cdH
	DB	0e5H
	DB	0eeH
	DB	0efH
	DB	0f0H
	DB	0e5H
	DB	0e4H
	DB	0e5H
	DB	0ebH
	DB	0e5H
	DB	0edH
	DB	0edH
	DB	0e0H
	DB	0ffH
	DB	020H
	DB	0eeH
	DB	0f8H
	DB	0e8H
	DB	0e1H
	DB	0eaH
	DB	0e0H
	DB	00H
	ORG $+178
	DW	0ffffH
	DW	0ffffH
	DD	0fffffefaH
	DB	0cdH
	DB	0e5H
	DB	0eeH
	DB	0efH
	DB	0f0H
	DB	0e5H
	DB	0e4H
	DB	0e5H
	DB	0ebH
	DB	0e5H
	DB	0edH
	DB	0edH
	DB	0e0H
	DB	0ffH
	DB	020H
	DB	0eeH
	DB	0f8H
	DB	0e8H
	DB	0e1H
	DB	0eaH
	DB	0e0H
	DB	00H
	ORG $+178
	DW	0ffffH
	DW	0ffffH
	DD	0fffffefbH
	DB	0cdH
	DB	0e5H
	DB	0eeH
	DB	0efH
	DB	0f0H
	DB	0e5H
	DB	0e4H
	DB	0e5H
	DB	0ebH
	DB	0e5H
	DB	0edH
	DB	0edH
	DB	0e0H
	DB	0ffH
	DB	020H
	DB	0eeH
	DB	0f8H
	DB	0e8H
	DB	0e1H
	DB	0eaH
	DB	0e0H
	DB	00H
	ORG $+178
	DW	0ffffH
	DW	0ffffH
	DD	0fffffefcH
	DB	0cdH
	DB	0e5H
	DB	0eeH
	DB	0efH
	DB	0f0H
	DB	0e5H
	DB	0e4H
	DB	0e5H
	DB	0ebH
	DB	0e5H
	DB	0edH
	DB	0edH
	DB	0e0H
	DB	0ffH
	DB	020H
	DB	0eeH
	DB	0f8H
	DB	0e8H
	DB	0e1H
	DB	0eaH
	DB	0e0H
	DB	00H
	ORG $+178
	DW	0ffffH
	DW	0ffffH
	DD	0fffffefdH
	DB	0cdH
	DB	0e5H
	DB	0eeH
	DB	0efH
	DB	0f0H
	DB	0e5H
	DB	0e4H
	DB	0e5H
	DB	0ebH
	DB	0e5H
	DB	0edH
	DB	0edH
	DB	0e0H
	DB	0ffH
	DB	020H
	DB	0eeH
	DB	0f8H
	DB	0e8H
	DB	0e1H
	DB	0eaH
	DB	0e0H
	DB	00H
	ORG $+178
	DW	0ffffH
	DW	0ffffH
	DD	0fffffefeH
	DB	0cdH
	DB	0e5H
	DB	0eeH
	DB	0efH
	DB	0f0H
	DB	0e5H
	DB	0e4H
	DB	0e5H
	DB	0ebH
	DB	0e5H
	DB	0edH
	DB	0edH
	DB	0e0H
	DB	0ffH
	DB	020H
	DB	0eeH
	DB	0f8H
	DB	0e8H
	DB	0e1H
	DB	0eaH
	DB	0e0H
	DB	00H
	ORG $+178
	DW	0ffffH
	DW	0ffffH
	DD	0fffffeffH
	DB	0cdH
	DB	0e5H
	DB	0eeH
	DB	0efH
	DB	0f0H
	DB	0e5H
	DB	0e4H
	DB	0e5H
	DB	0ebH
	DB	0e5H
	DB	0edH
	DB	0edH
	DB	0e0H
	DB	0ffH
	DB	020H
	DB	0eeH
	DB	0f8H
	DB	0e8H
	DB	0e1H
	DB	0eaH
	DB	0e0H
	DB	00H
	ORG $+178
	DW	0ffffH
	DW	0ffffH
	DD	0ffffff00H
	DB	0cdH
	DB	0e5H
	DB	0eeH
	DB	0efH
	DB	0f0H
	DB	0e5H
	DB	0e4H
	DB	0e5H
	DB	0ebH
	DB	0e5H
	DB	0edH
	DB	0edH
	DB	0e0H
	DB	0ffH
	DB	020H
	DB	0eeH
	DB	0f8H
	DB	0e8H
	DB	0e1H
	DB	0eaH
	DB	0e0H
	DB	00H
	ORG $+178
	DW	0ffffH
	DW	0ffffH
	DD	0ffffff01H
	DB	0cdH
	DB	0e5H
	DB	0eeH
	DB	0efH
	DB	0f0H
	DB	0e5H
	DB	0e4H
	DB	0e5H
	DB	0ebH
	DB	0e5H
	DB	0edH
	DB	0edH
	DB	0e0H
	DB	0ffH
	DB	020H
	DB	0eeH
	DB	0f8H
	DB	0e8H
	DB	0e1H
	DB	0eaH
	DB	0e0H
	DB	00H
	ORG $+178
	DW	0ffffH
	DW	0ffffH
	DD	0ffffff02H
	DB	0cdH
	DB	0e5H
	DB	0eeH
	DB	0efH
	DB	0f0H
	DB	0e5H
	DB	0e4H
	DB	0e5H
	DB	0ebH
	DB	0e5H
	DB	0edH
	DB	0edH
	DB	0e0H
	DB	0ffH
	DB	020H
	DB	0eeH
	DB	0f8H
	DB	0e8H
	DB	0e1H
	DB	0eaH
	DB	0e0H
	DB	00H
	ORG $+178
	DW	0ffffH
	DW	0ffffH
	DD	0ffffff03H
	DB	0cdH
	DB	0e5H
	DB	0eeH
	DB	0efH
	DB	0f0H
	DB	0e5H
	DB	0e4H
	DB	0e5H
	DB	0ebH
	DB	0e5H
	DB	0edH
	DB	0edH
	DB	0e0H
	DB	0ffH
	DB	020H
	DB	0eeH
	DB	0f8H
	DB	0e8H
	DB	0e1H
	DB	0eaH
	DB	0e0H
	DB	00H
	ORG $+178
	DW	0ffffH
	DW	0ffffH
	DD	0ffffff04H
	DB	0cdH
	DB	0e5H
	DB	0eeH
	DB	0efH
	DB	0f0H
	DB	0e5H
	DB	0e4H
	DB	0e5H
	DB	0ebH
	DB	0e5H
	DB	0edH
	DB	0edH
	DB	0e0H
	DB	0ffH
	DB	020H
	DB	0eeH
	DB	0f8H
	DB	0e8H
	DB	0e1H
	DB	0eaH
	DB	0e0H
	DB	00H
	ORG $+178
	DW	0ffffH
	DW	0ffffH
	DD	0ffffff05H
	DB	0cdH
	DB	0e5H
	DB	0eeH
	DB	0efH
	DB	0f0H
	DB	0e5H
	DB	0e4H
	DB	0e5H
	DB	0ebH
	DB	0e5H
	DB	0edH
	DB	0edH
	DB	0e0H
	DB	0ffH
	DB	020H
	DB	0eeH
	DB	0f8H
	DB	0e8H
	DB	0e1H
	DB	0eaH
	DB	0e0H
	DB	00H
	ORG $+178
	DW	0ffffH
	DW	0ffffH
	DD	0ffffff06H
	DB	0cdH
	DB	0e5H
	DB	0eeH
	DB	0efH
	DB	0f0H
	DB	0e5H
	DB	0e4H
	DB	0e5H
	DB	0ebH
	DB	0e5H
	DB	0edH
	DB	0edH
	DB	0e0H
	DB	0ffH
	DB	020H
	DB	0eeH
	DB	0f8H
	DB	0e8H
	DB	0e1H
	DB	0eaH
	DB	0e0H
	DB	00H
	ORG $+178
	DW	0ffffH
	DW	0ffffH
	DD	0ffffff07H
	DB	0cdH
	DB	0e5H
	DB	0eeH
	DB	0efH
	DB	0f0H
	DB	0e5H
	DB	0e4H
	DB	0e5H
	DB	0ebH
	DB	0e5H
	DB	0edH
	DB	0edH
	DB	0e0H
	DB	0ffH
	DB	020H
	DB	0eeH
	DB	0f8H
	DB	0e8H
	DB	0e1H
	DB	0eaH
	DB	0e0H
	DB	00H
	ORG $+178
	DW	0ffffH
	DW	0ffffH
	DD	0ffffff08H
	DB	0cdH
	DB	0e5H
	DB	0eeH
	DB	0efH
	DB	0f0H
	DB	0e5H
	DB	0e4H
	DB	0e5H
	DB	0ebH
	DB	0e5H
	DB	0edH
	DB	0edH
	DB	0e0H
	DB	0ffH
	DB	020H
	DB	0eeH
	DB	0f8H
	DB	0e8H
	DB	0e1H
	DB	0eaH
	DB	0e0H
	DB	00H
	ORG $+178
	DW	0ffffH
	DW	0ffffH
	DD	0ffffff09H
	DB	0cdH
	DB	0e5H
	DB	0eeH
	DB	0efH
	DB	0f0H
	DB	0e5H
	DB	0e4H
	DB	0e5H
	DB	0ebH
	DB	0e5H
	DB	0edH
	DB	0edH
	DB	0e0H
	DB	0ffH
	DB	020H
	DB	0eeH
	DB	0f8H
	DB	0e8H
	DB	0e1H
	DB	0eaH
	DB	0e0H
	DB	00H
	ORG $+178
	DW	0ffffH
	DW	0ffffH
	DD	0ffffff0aH
	DB	0cdH
	DB	0e5H
	DB	0eeH
	DB	0efH
	DB	0f0H
	DB	0e5H
	DB	0e4H
	DB	0e5H
	DB	0ebH
	DB	0e5H
	DB	0edH
	DB	0edH
	DB	0e0H
	DB	0ffH
	DB	020H
	DB	0eeH
	DB	0f8H
	DB	0e8H
	DB	0e1H
	DB	0eaH
	DB	0e0H
	DB	00H
	ORG $+178
	DW	0ffffH
	DW	0ffffH
	DD	0ffffff0bH
	DB	0cdH
	DB	0e5H
	DB	0eeH
	DB	0efH
	DB	0f0H
	DB	0e5H
	DB	0e4H
	DB	0e5H
	DB	0ebH
	DB	0e5H
	DB	0edH
	DB	0edH
	DB	0e0H
	DB	0ffH
	DB	020H
	DB	0eeH
	DB	0f8H
	DB	0e8H
	DB	0e1H
	DB	0eaH
	DB	0e0H
	DB	00H
	ORG $+178
	DW	0ffffH
	DW	0ffffH
	DD	0ffffff0cH
	DB	0cdH
	DB	0e5H
	DB	0eeH
	DB	0efH
	DB	0f0H
	DB	0e5H
	DB	0e4H
	DB	0e5H
	DB	0ebH
	DB	0e5H
	DB	0edH
	DB	0edH
	DB	0e0H
	DB	0ffH
	DB	020H
	DB	0eeH
	DB	0f8H
	DB	0e8H
	DB	0e1H
	DB	0eaH
	DB	0e0H
	DB	00H
	ORG $+178
	DW	0ffffH
	DW	0ffffH
	DD	0ffffff0dH
	DB	0cdH
	DB	0e5H
	DB	0eeH
	DB	0efH
	DB	0f0H
	DB	0e5H
	DB	0e4H
	DB	0e5H
	DB	0ebH
	DB	0e5H
	DB	0edH
	DB	0edH
	DB	0e0H
	DB	0ffH
	DB	020H
	DB	0eeH
	DB	0f8H
	DB	0e8H
	DB	0e1H
	DB	0eaH
	DB	0e0H
	DB	00H
	ORG $+178
	DW	0ffffH
	DW	0ffffH
	DD	0ffffff0eH
	DB	0cdH
	DB	0e5H
	DB	0eeH
	DB	0efH
	DB	0f0H
	DB	0e5H
	DB	0e4H
	DB	0e5H
	DB	0ebH
	DB	0e5H
	DB	0edH
	DB	0edH
	DB	0e0H
	DB	0ffH
	DB	020H
	DB	0eeH
	DB	0f8H
	DB	0e8H
	DB	0e1H
	DB	0eaH
	DB	0e0H
	DB	00H
	ORG $+178
	DW	0ffffH
	DW	0ffffH
	DD	0ffffff0fH
	DB	0cdH
	DB	0e5H
	DB	0eeH
	DB	0efH
	DB	0f0H
	DB	0e5H
	DB	0e4H
	DB	0e5H
	DB	0ebH
	DB	0e5H
	DB	0edH
	DB	0edH
	DB	0e0H
	DB	0ffH
	DB	020H
	DB	0eeH
	DB	0f8H
	DB	0e8H
	DB	0e1H
	DB	0eaH
	DB	0e0H
	DB	00H
	ORG $+178
	DW	0ffffH
	DW	0ffffH
	DD	0ffffff10H
	DB	0cdH
	DB	0e5H
	DB	0eeH
	DB	0efH
	DB	0f0H
	DB	0e5H
	DB	0e4H
	DB	0e5H
	DB	0ebH
	DB	0e5H
	DB	0edH
	DB	0edH
	DB	0e0H
	DB	0ffH
	DB	020H
	DB	0eeH
	DB	0f8H
	DB	0e8H
	DB	0e1H
	DB	0eaH
	DB	0e0H
	DB	00H
	ORG $+178
	DW	0ffffH
	DW	0ffffH
	DD	0ffffff11H
	DB	0cdH
	DB	0e5H
	DB	0eeH
	DB	0efH
	DB	0f0H
	DB	0e5H
	DB	0e4H
	DB	0e5H
	DB	0ebH
	DB	0e5H
	DB	0edH
	DB	0edH
	DB	0e0H
	DB	0ffH
	DB	020H
	DB	0eeH
	DB	0f8H
	DB	0e8H
	DB	0e1H
	DB	0eaH
	DB	0e0H
	DB	00H
	ORG $+178
	DW	0ffffH
	DW	0ffffH
	DD	0ffffff12H
	DB	0cdH
	DB	0e5H
	DB	0eeH
	DB	0efH
	DB	0f0H
	DB	0e5H
	DB	0e4H
	DB	0e5H
	DB	0ebH
	DB	0e5H
	DB	0edH
	DB	0edH
	DB	0e0H
	DB	0ffH
	DB	020H
	DB	0eeH
	DB	0f8H
	DB	0e8H
	DB	0e1H
	DB	0eaH
	DB	0e0H
	DB	00H
	ORG $+178
	DW	0ffffH
	DW	0ffffH
	DD	0ffffff13H
	DB	0cdH
	DB	0e5H
	DB	0eeH
	DB	0efH
	DB	0f0H
	DB	0e5H
	DB	0e4H
	DB	0e5H
	DB	0ebH
	DB	0e5H
	DB	0edH
	DB	0edH
	DB	0e0H
	DB	0ffH
	DB	020H
	DB	0eeH
	DB	0f8H
	DB	0e8H
	DB	0e1H
	DB	0eaH
	DB	0e0H
	DB	00H
	ORG $+178
	DW	0ffffH
	DW	0ffffH
	DD	0ffffff14H
	DB	0cdH
	DB	0e5H
	DB	0eeH
	DB	0efH
	DB	0f0H
	DB	0e5H
	DB	0e4H
	DB	0e5H
	DB	0ebH
	DB	0e5H
	DB	0edH
	DB	0edH
	DB	0e0H
	DB	0ffH
	DB	020H
	DB	0eeH
	DB	0f8H
	DB	0e8H
	DB	0e1H
	DB	0eaH
	DB	0e0H
	DB	00H
	ORG $+178
	DW	0ffffH
	DW	0ffffH
	DD	0ffffff15H
	DB	0cdH
	DB	0e5H
	DB	0eeH
	DB	0efH
	DB	0f0H
	DB	0e5H
	DB	0e4H
	DB	0e5H
	DB	0ebH
	DB	0e5H
	DB	0edH
	DB	0edH
	DB	0e0H
	DB	0ffH
	DB	020H
	DB	0eeH
	DB	0f8H
	DB	0e8H
	DB	0e1H
	DB	0eaH
	DB	0e0H
	DB	00H
	ORG $+178
	DW	0ffffH
	DW	0ffffH
	DD	0ffffff16H
	DB	0cdH
	DB	0e5H
	DB	0eeH
	DB	0efH
	DB	0f0H
	DB	0e5H
	DB	0e4H
	DB	0e5H
	DB	0ebH
	DB	0e5H
	DB	0edH
	DB	0edH
	DB	0e0H
	DB	0ffH
	DB	020H
	DB	0eeH
	DB	0f8H
	DB	0e8H
	DB	0e1H
	DB	0eaH
	DB	0e0H
	DB	00H
	ORG $+178
	DW	0ffffH
	DW	0ffffH
	DD	0ffffff17H
	DB	0cdH
	DB	0e5H
	DB	0eeH
	DB	0efH
	DB	0f0H
	DB	0e5H
	DB	0e4H
	DB	0e5H
	DB	0ebH
	DB	0e5H
	DB	0edH
	DB	0edH
	DB	0e0H
	DB	0ffH
	DB	020H
	DB	0eeH
	DB	0f8H
	DB	0e8H
	DB	0e1H
	DB	0eaH
	DB	0e0H
	DB	00H
	ORG $+178
	DW	0ffffH
	DW	0ffffH
	DD	0ffffff18H
	DB	0cdH
	DB	0e5H
	DB	0eeH
	DB	0efH
	DB	0f0H
	DB	0e5H
	DB	0e4H
	DB	0e5H
	DB	0ebH
	DB	0e5H
	DB	0edH
	DB	0edH
	DB	0e0H
	DB	0ffH
	DB	020H
	DB	0eeH
	DB	0f8H
	DB	0e8H
	DB	0e1H
	DB	0eaH
	DB	0e0H
	DB	00H
	ORG $+178
	DW	0ffffH
	DW	0ffffH
	DD	0ffffff19H
	DB	0cdH
	DB	0e5H
	DB	0eeH
	DB	0efH
	DB	0f0H
	DB	0e5H
	DB	0e4H
	DB	0e5H
	DB	0ebH
	DB	0e5H
	DB	0edH
	DB	0edH
	DB	0e0H
	DB	0ffH
	DB	020H
	DB	0eeH
	DB	0f8H
	DB	0e8H
	DB	0e1H
	DB	0eaH
	DB	0e0H
	DB	00H
	ORG $+178
	DW	0ffffH
	DW	0ffffH
	DD	0ffffff1aH
	DB	0cdH
	DB	0e5H
	DB	0eeH
	DB	0efH
	DB	0f0H
	DB	0e5H
	DB	0e4H
	DB	0e5H
	DB	0ebH
	DB	0e5H
	DB	0edH
	DB	0edH
	DB	0e0H
	DB	0ffH
	DB	020H
	DB	0eeH
	DB	0f8H
	DB	0e8H
	DB	0e1H
	DB	0eaH
	DB	0e0H
	DB	00H
	ORG $+178
	DW	0ffffH
	DW	0ffffH
	DD	0ffffff1bH
	DB	0cdH
	DB	0e5H
	DB	0eeH
	DB	0efH
	DB	0f0H
	DB	0e5H
	DB	0e4H
	DB	0e5H
	DB	0ebH
	DB	0e5H
	DB	0edH
	DB	0edH
	DB	0e0H
	DB	0ffH
	DB	020H
	DB	0eeH
	DB	0f8H
	DB	0e8H
	DB	0e1H
	DB	0eaH
	DB	0e0H
	DB	00H
	ORG $+178
	DW	0ffffH
	DW	0ffffH
	DD	0ffffff1cH
	DB	0cdH
	DB	0e5H
	DB	0eeH
	DB	0efH
	DB	0f0H
	DB	0e5H
	DB	0e4H
	DB	0e5H
	DB	0ebH
	DB	0e5H
	DB	0edH
	DB	0edH
	DB	0e0H
	DB	0ffH
	DB	020H
	DB	0eeH
	DB	0f8H
	DB	0e8H
	DB	0e1H
	DB	0eaH
	DB	0e0H
	DB	00H
	ORG $+178
	DW	0ffffH
	DW	0ffffH
	DD	0ffffff1dH
	DB	0cdH
	DB	0e5H
	DB	0eeH
	DB	0efH
	DB	0f0H
	DB	0e5H
	DB	0e4H
	DB	0e5H
	DB	0ebH
	DB	0e5H
	DB	0edH
	DB	0edH
	DB	0e0H
	DB	0ffH
	DB	020H
	DB	0eeH
	DB	0f8H
	DB	0e8H
	DB	0e1H
	DB	0eaH
	DB	0e0H
	DB	00H
	ORG $+178
	DW	0ffffH
	DW	0ffffH
	DD	0ffffff1eH
	DB	0cdH
	DB	0e5H
	DB	0eeH
	DB	0efH
	DB	0f0H
	DB	0e5H
	DB	0e4H
	DB	0e5H
	DB	0ebH
	DB	0e5H
	DB	0edH
	DB	0edH
	DB	0e0H
	DB	0ffH
	DB	020H
	DB	0eeH
	DB	0f8H
	DB	0e8H
	DB	0e1H
	DB	0eaH
	DB	0e0H
	DB	00H
	ORG $+178
	DW	0ffffH
	DW	0ffffH
	DD	0ffffff1fH
	DB	0cdH
	DB	0e5H
	DB	0eeH
	DB	0efH
	DB	0f0H
	DB	0e5H
	DB	0e4H
	DB	0e5H
	DB	0ebH
	DB	0e5H
	DB	0edH
	DB	0edH
	DB	0e0H
	DB	0ffH
	DB	020H
	DB	0eeH
	DB	0f8H
	DB	0e8H
	DB	0e1H
	DB	0eaH
	DB	0e0H
	DB	00H
	ORG $+178
	DW	0ffffH
	DW	0ffffH
	DD	0ffffff20H
	DB	0cdH
	DB	0e5H
	DB	0eeH
	DB	0efH
	DB	0f0H
	DB	0e5H
	DB	0e4H
	DB	0e5H
	DB	0ebH
	DB	0e5H
	DB	0edH
	DB	0edH
	DB	0e0H
	DB	0ffH
	DB	020H
	DB	0eeH
	DB	0f8H
	DB	0e8H
	DB	0e1H
	DB	0eaH
	DB	0e0H
	DB	00H
	ORG $+178
	DW	0ffffH
	DW	0ffffH
	DD	0ffffff21H
	DB	0cdH
	DB	0e5H
	DB	0eeH
	DB	0efH
	DB	0f0H
	DB	0e5H
	DB	0e4H
	DB	0e5H
	DB	0ebH
	DB	0e5H
	DB	0edH
	DB	0edH
	DB	0e0H
	DB	0ffH
	DB	020H
	DB	0eeH
	DB	0f8H
	DB	0e8H
	DB	0e1H
	DB	0eaH
	DB	0e0H
	DB	00H
	ORG $+178
	DW	0ffffH
	DW	0ffffH
	DD	0ffffff22H
	DB	0cdH
	DB	0e5H
	DB	0eeH
	DB	0efH
	DB	0f0H
	DB	0e5H
	DB	0e4H
	DB	0e5H
	DB	0ebH
	DB	0e5H
	DB	0edH
	DB	0edH
	DB	0e0H
	DB	0ffH
	DB	020H
	DB	0eeH
	DB	0f8H
	DB	0e8H
	DB	0e1H
	DB	0eaH
	DB	0e0H
	DB	00H
	ORG $+178
	DW	0ffffH
	DW	0ffffH
	DD	0ffffff23H
	DB	0cdH
	DB	0e5H
	DB	0eeH
	DB	0efH
	DB	0f0H
	DB	0e5H
	DB	0e4H
	DB	0e5H
	DB	0ebH
	DB	0e5H
	DB	0edH
	DB	0edH
	DB	0e0H
	DB	0ffH
	DB	020H
	DB	0eeH
	DB	0f8H
	DB	0e8H
	DB	0e1H
	DB	0eaH
	DB	0e0H
	DB	00H
	ORG $+178
	DW	0ffffH
	DW	0ffffH
	DD	0ffffff24H
	DB	0cdH
	DB	0e5H
	DB	0eeH
	DB	0efH
	DB	0f0H
	DB	0e5H
	DB	0e4H
	DB	0e5H
	DB	0ebH
	DB	0e5H
	DB	0edH
	DB	0edH
	DB	0e0H
	DB	0ffH
	DB	020H
	DB	0eeH
	DB	0f8H
	DB	0e8H
	DB	0e1H
	DB	0eaH
	DB	0e0H
	DB	00H
	ORG $+178
	DW	0ffffH
	DW	0ffffH
	DD	0ffffff25H
	DB	0cdH
	DB	0e5H
	DB	0eeH
	DB	0efH
	DB	0f0H
	DB	0e5H
	DB	0e4H
	DB	0e5H
	DB	0ebH
	DB	0e5H
	DB	0edH
	DB	0edH
	DB	0e0H
	DB	0ffH
	DB	020H
	DB	0eeH
	DB	0f8H
	DB	0e8H
	DB	0e1H
	DB	0eaH
	DB	0e0H
	DB	00H
	ORG $+178
	DW	0ffffH
	DW	0ffffH
	DD	0ffffff26H
	DB	0cdH
	DB	0e5H
	DB	0eeH
	DB	0efH
	DB	0f0H
	DB	0e5H
	DB	0e4H
	DB	0e5H
	DB	0ebH
	DB	0e5H
	DB	0edH
	DB	0edH
	DB	0e0H
	DB	0ffH
	DB	020H
	DB	0eeH
	DB	0f8H
	DB	0e8H
	DB	0e1H
	DB	0eaH
	DB	0e0H
	DB	00H
	ORG $+178
	DW	0ffffH
	DW	0ffffH
	DD	0ffffff27H
	DB	0cdH
	DB	0e5H
	DB	0eeH
	DB	0efH
	DB	0f0H
	DB	0e5H
	DB	0e4H
	DB	0e5H
	DB	0ebH
	DB	0e5H
	DB	0edH
	DB	0edH
	DB	0e0H
	DB	0ffH
	DB	020H
	DB	0eeH
	DB	0f8H
	DB	0e8H
	DB	0e1H
	DB	0eaH
	DB	0e0H
	DB	00H
	ORG $+178
	DW	0ffffH
	DW	0ffffH
	DD	0ffffff28H
	DB	0cdH
	DB	0e5H
	DB	0eeH
	DB	0efH
	DB	0f0H
	DB	0e5H
	DB	0e4H
	DB	0e5H
	DB	0ebH
	DB	0e5H
	DB	0edH
	DB	0edH
	DB	0e0H
	DB	0ffH
	DB	020H
	DB	0eeH
	DB	0f8H
	DB	0e8H
	DB	0e1H
	DB	0eaH
	DB	0e0H
	DB	00H
	ORG $+178
	DW	0ffffH
	DW	0ffffH
	DD	0ffffff29H
	DB	0cdH
	DB	0e5H
	DB	0eeH
	DB	0efH
	DB	0f0H
	DB	0e5H
	DB	0e4H
	DB	0e5H
	DB	0ebH
	DB	0e5H
	DB	0edH
	DB	0edH
	DB	0e0H
	DB	0ffH
	DB	020H
	DB	0eeH
	DB	0f8H
	DB	0e8H
	DB	0e1H
	DB	0eaH
	DB	0e0H
	DB	00H
	ORG $+178
	DW	0ffffH
	DW	0ffffH
	DD	0ffffff2aH
	DB	0cdH
	DB	0e5H
	DB	0eeH
	DB	0efH
	DB	0f0H
	DB	0e5H
	DB	0e4H
	DB	0e5H
	DB	0ebH
	DB	0e5H
	DB	0edH
	DB	0edH
	DB	0e0H
	DB	0ffH
	DB	020H
	DB	0eeH
	DB	0f8H
	DB	0e8H
	DB	0e1H
	DB	0eaH
	DB	0e0H
	DB	00H
	ORG $+178
	DW	0ffffH
	DW	0ffffH
	DD	0ffffff2bH
	DB	0cdH
	DB	0e5H
	DB	0eeH
	DB	0efH
	DB	0f0H
	DB	0e5H
	DB	0e4H
	DB	0e5H
	DB	0ebH
	DB	0e5H
	DB	0edH
	DB	0edH
	DB	0e0H
	DB	0ffH
	DB	020H
	DB	0eeH
	DB	0f8H
	DB	0e8H
	DB	0e1H
	DB	0eaH
	DB	0e0H
	DB	00H
	ORG $+178
	DW	0ffffH
	DW	0ffffH
	DD	0ffffff2cH
	DB	0cdH
	DB	0e5H
	DB	0eeH
	DB	0efH
	DB	0f0H
	DB	0e5H
	DB	0e4H
	DB	0e5H
	DB	0ebH
	DB	0e5H
	DB	0edH
	DB	0edH
	DB	0e0H
	DB	0ffH
	DB	020H
	DB	0eeH
	DB	0f8H
	DB	0e8H
	DB	0e1H
	DB	0eaH
	DB	0e0H
	DB	00H
	ORG $+178
	DW	0ffffH
	DW	0ffffH
	DD	0ffffff2dH
	DB	0cdH
	DB	0e5H
	DB	0eeH
	DB	0efH
	DB	0f0H
	DB	0e5H
	DB	0e4H
	DB	0e5H
	DB	0ebH
	DB	0e5H
	DB	0edH
	DB	0edH
	DB	0e0H
	DB	0ffH
	DB	020H
	DB	0eeH
	DB	0f8H
	DB	0e8H
	DB	0e1H
	DB	0eaH
	DB	0e0H
	DB	00H
	ORG $+178
	DW	0ffffH
	DW	0ffffH
	DD	0ffffff2eH
	DB	0cdH
	DB	0e5H
	DB	0eeH
	DB	0efH
	DB	0f0H
	DB	0e5H
	DB	0e4H
	DB	0e5H
	DB	0ebH
	DB	0e5H
	DB	0edH
	DB	0edH
	DB	0e0H
	DB	0ffH
	DB	020H
	DB	0eeH
	DB	0f8H
	DB	0e8H
	DB	0e1H
	DB	0eaH
	DB	0e0H
	DB	00H
	ORG $+178
	DW	0ffffH
	DW	0ffffH
	DD	0ffffff2fH
	DB	0cdH
	DB	0e5H
	DB	0eeH
	DB	0efH
	DB	0f0H
	DB	0e5H
	DB	0e4H
	DB	0e5H
	DB	0ebH
	DB	0e5H
	DB	0edH
	DB	0edH
	DB	0e0H
	DB	0ffH
	DB	020H
	DB	0eeH
	DB	0f8H
	DB	0e8H
	DB	0e1H
	DB	0eaH
	DB	0e0H
	DB	00H
	ORG $+178
	DW	0ffffH
	DW	0ffffH
	DD	0ffffff30H
	DB	0cdH
	DB	0e5H
	DB	0eeH
	DB	0efH
	DB	0f0H
	DB	0e5H
	DB	0e4H
	DB	0e5H
	DB	0ebH
	DB	0e5H
	DB	0edH
	DB	0edH
	DB	0e0H
	DB	0ffH
	DB	020H
	DB	0eeH
	DB	0f8H
	DB	0e8H
	DB	0e1H
	DB	0eaH
	DB	0e0H
	DB	00H
	ORG $+178
	DW	0ffffH
	DW	0ffffH
	DD	0ffffff31H
	DB	0cdH
	DB	0e5H
	DB	0eeH
	DB	0efH
	DB	0f0H
	DB	0e5H
	DB	0e4H
	DB	0e5H
	DB	0ebH
	DB	0e5H
	DB	0edH
	DB	0edH
	DB	0e0H
	DB	0ffH
	DB	020H
	DB	0eeH
	DB	0f8H
	DB	0e8H
	DB	0e1H
	DB	0eaH
	DB	0e0H
	DB	00H
	ORG $+178
	DW	0ffffH
	DW	0ffffH
	DD	0ffffff32H
	DB	0cdH
	DB	0e5H
	DB	0eeH
	DB	0efH
	DB	0f0H
	DB	0e5H
	DB	0e4H
	DB	0e5H
	DB	0ebH
	DB	0e5H
	DB	0edH
	DB	0edH
	DB	0e0H
	DB	0ffH
	DB	020H
	DB	0eeH
	DB	0f8H
	DB	0e8H
	DB	0e1H
	DB	0eaH
	DB	0e0H
	DB	00H
	ORG $+178
	DW	0ffffH
	DW	0ffffH
	DD	0ffffff33H
	DB	0cdH
	DB	0e5H
	DB	0eeH
	DB	0efH
	DB	0f0H
	DB	0e5H
	DB	0e4H
	DB	0e5H
	DB	0ebH
	DB	0e5H
	DB	0edH
	DB	0edH
	DB	0e0H
	DB	0ffH
	DB	020H
	DB	0eeH
	DB	0f8H
	DB	0e8H
	DB	0e1H
	DB	0eaH
	DB	0e0H
	DB	00H
	ORG $+178
	DW	0ffffH
	DW	0ffffH
	DD	0ffffff34H
	DB	0cdH
	DB	0e5H
	DB	0eeH
	DB	0efH
	DB	0f0H
	DB	0e5H
	DB	0e4H
	DB	0e5H
	DB	0ebH
	DB	0e5H
	DB	0edH
	DB	0edH
	DB	0e0H
	DB	0ffH
	DB	020H
	DB	0eeH
	DB	0f8H
	DB	0e8H
	DB	0e1H
	DB	0eaH
	DB	0e0H
	DB	00H
	ORG $+178
	DW	0ffffH
	DW	0ffffH
	DD	0ffffff35H
	DB	0cdH
	DB	0e5H
	DB	0eeH
	DB	0efH
	DB	0f0H
	DB	0e5H
	DB	0e4H
	DB	0e5H
	DB	0ebH
	DB	0e5H
	DB	0edH
	DB	0edH
	DB	0e0H
	DB	0ffH
	DB	020H
	DB	0eeH
	DB	0f8H
	DB	0e8H
	DB	0e1H
	DB	0eaH
	DB	0e0H
	DB	00H
	ORG $+178
	DW	0ffffH
	DW	0ffffH
	DD	0ffffff36H
	DB	0cdH
	DB	0e5H
	DB	0eeH
	DB	0efH
	DB	0f0H
	DB	0e5H
	DB	0e4H
	DB	0e5H
	DB	0ebH
	DB	0e5H
	DB	0edH
	DB	0edH
	DB	0e0H
	DB	0ffH
	DB	020H
	DB	0eeH
	DB	0f8H
	DB	0e8H
	DB	0e1H
	DB	0eaH
	DB	0e0H
	DB	00H
	ORG $+178
	DW	0ffffH
	DW	0ffffH
	DD	0ffffff37H
	DB	0cdH
	DB	0e5H
	DB	0eeH
	DB	0efH
	DB	0f0H
	DB	0e5H
	DB	0e4H
	DB	0e5H
	DB	0ebH
	DB	0e5H
	DB	0edH
	DB	0edH
	DB	0e0H
	DB	0ffH
	DB	020H
	DB	0eeH
	DB	0f8H
	DB	0e8H
	DB	0e1H
	DB	0eaH
	DB	0e0H
	DB	00H
	ORG $+178
	DW	0ffffH
	DW	0ffffH
	DD	0fffffe70H
	DB	0cdH
	DB	0e5H
	DB	0eeH
	DB	0efH
	DB	0f0H
	DB	0e5H
	DB	0e4H
	DB	0e5H
	DB	0ebH
	DB	0e5H
	DB	0edH
	DB	0edH
	DB	0e0H
	DB	0ffH
	DB	020H
	DB	0eeH
	DB	0f8H
	DB	0e8H
	DB	0e1H
	DB	0eaH
	DB	0e0H
	DB	00H
	ORG $+178
	DW	0ffffH
	DW	0ffffH
	DD	0fffffe71H
	DB	0cdH
	DB	0e5H
	DB	0eeH
	DB	0efH
	DB	0f0H
	DB	0e5H
	DB	0e4H
	DB	0e5H
	DB	0ebH
	DB	0e5H
	DB	0edH
	DB	0edH
	DB	0e0H
	DB	0ffH
	DB	020H
	DB	0eeH
	DB	0f8H
	DB	0e8H
	DB	0e1H
	DB	0eaH
	DB	0e0H
	DB	00H
	ORG $+178
	DW	0ffffH
	DW	0ffffH
	DD	0fffffe72H
	DB	0cdH
	DB	0e5H
	DB	0eeH
	DB	0efH
	DB	0f0H
	DB	0e5H
	DB	0e4H
	DB	0e5H
	DB	0ebH
	DB	0e5H
	DB	0edH
	DB	0edH
	DB	0e0H
	DB	0ffH
	DB	020H
	DB	0eeH
	DB	0f8H
	DB	0e8H
	DB	0e1H
	DB	0eaH
	DB	0e0H
	DB	00H
	ORG $+178
	DW	0ffffH
	DW	0ffffH
	DD	0fffffe73H
	DB	0cdH
	DB	0e5H
	DB	0eeH
	DB	0efH
	DB	0f0H
	DB	0e5H
	DB	0e4H
	DB	0e5H
	DB	0ebH
	DB	0e5H
	DB	0edH
	DB	0edH
	DB	0e0H
	DB	0ffH
	DB	020H
	DB	0eeH
	DB	0f8H
	DB	0e8H
	DB	0e1H
	DB	0eaH
	DB	0e0H
	DB	00H
	ORG $+178
	DW	0ffffH
	DW	0ffffH
	DD	0fffffe74H
	DB	0cdH
	DB	0e5H
	DB	0eeH
	DB	0efH
	DB	0f0H
	DB	0e5H
	DB	0e4H
	DB	0e5H
	DB	0ebH
	DB	0e5H
	DB	0edH
	DB	0edH
	DB	0e0H
	DB	0ffH
	DB	020H
	DB	0eeH
	DB	0f8H
	DB	0e8H
	DB	0e1H
	DB	0eaH
	DB	0e0H
	DB	00H
	ORG $+178
	DW	0ffffH
	DW	0ffffH
	DD	0fffffe75H
	DB	0cdH
	DB	0e5H
	DB	0eeH
	DB	0efH
	DB	0f0H
	DB	0e5H
	DB	0e4H
	DB	0e5H
	DB	0ebH
	DB	0e5H
	DB	0edH
	DB	0edH
	DB	0e0H
	DB	0ffH
	DB	020H
	DB	0eeH
	DB	0f8H
	DB	0e8H
	DB	0e1H
	DB	0eaH
	DB	0e0H
	DB	00H
	ORG $+178
	DW	0ffffH
	DW	0ffffH
	DD	0fffffe76H
	DB	0cdH
	DB	0e5H
	DB	0eeH
	DB	0efH
	DB	0f0H
	DB	0e5H
	DB	0e4H
	DB	0e5H
	DB	0ebH
	DB	0e5H
	DB	0edH
	DB	0edH
	DB	0e0H
	DB	0ffH
	DB	020H
	DB	0eeH
	DB	0f8H
	DB	0e8H
	DB	0e1H
	DB	0eaH
	DB	0e0H
	DB	00H
	ORG $+178
	DW	0ffffH
	DW	0ffffH
	DD	0fffffe77H
	DB	0cdH
	DB	0e5H
	DB	0eeH
	DB	0efH
	DB	0f0H
	DB	0e5H
	DB	0e4H
	DB	0e5H
	DB	0ebH
	DB	0e5H
	DB	0edH
	DB	0edH
	DB	0e0H
	DB	0ffH
	DB	020H
	DB	0eeH
	DB	0f8H
	DB	0e8H
	DB	0e1H
	DB	0eaH
	DB	0e0H
	DB	00H
	ORG $+178
	DW	0ffffH
	DW	0ffffH
	DD	0fffffe78H
	DB	0cdH
	DB	0e5H
	DB	0eeH
	DB	0efH
	DB	0f0H
	DB	0e5H
	DB	0e4H
	DB	0e5H
	DB	0ebH
	DB	0e5H
	DB	0edH
	DB	0edH
	DB	0e0H
	DB	0ffH
	DB	020H
	DB	0eeH
	DB	0f8H
	DB	0e8H
	DB	0e1H
	DB	0eaH
	DB	0e0H
	DB	00H
	ORG $+178
	DW	0ffffH
	DW	0ffffH
	DD	0fffffe79H
	DB	0cdH
	DB	0e5H
	DB	0eeH
	DB	0efH
	DB	0f0H
	DB	0e5H
	DB	0e4H
	DB	0e5H
	DB	0ebH
	DB	0e5H
	DB	0edH
	DB	0edH
	DB	0e0H
	DB	0ffH
	DB	020H
	DB	0eeH
	DB	0f8H
	DB	0e8H
	DB	0e1H
	DB	0eaH
	DB	0e0H
	DB	00H
	ORG $+178
	DW	0ffffH
	DW	0ffffH
	DD	0fffffe7aH
	DB	0cdH
	DB	0e5H
	DB	0eeH
	DB	0efH
	DB	0f0H
	DB	0e5H
	DB	0e4H
	DB	0e5H
	DB	0ebH
	DB	0e5H
	DB	0edH
	DB	0edH
	DB	0e0H
	DB	0ffH
	DB	020H
	DB	0eeH
	DB	0f8H
	DB	0e8H
	DB	0e1H
	DB	0eaH
	DB	0e0H
	DB	00H
	ORG $+178
	DW	0ffffH
	DW	0ffffH
	DD	0fffffe7bH
	DB	0cdH
	DB	0e5H
	DB	0eeH
	DB	0efH
	DB	0f0H
	DB	0e5H
	DB	0e4H
	DB	0e5H
	DB	0ebH
	DB	0e5H
	DB	0edH
	DB	0edH
	DB	0e0H
	DB	0ffH
	DB	020H
	DB	0eeH
	DB	0f8H
	DB	0e8H
	DB	0e1H
	DB	0eaH
	DB	0e0H
	DB	00H
	ORG $+178
	DW	0ffffH
	DW	0ffffH
	DD	0fffffe7cH
	DB	0cdH
	DB	0e5H
	DB	0eeH
	DB	0efH
	DB	0f0H
	DB	0e5H
	DB	0e4H
	DB	0e5H
	DB	0ebH
	DB	0e5H
	DB	0edH
	DB	0edH
	DB	0e0H
	DB	0ffH
	DB	020H
	DB	0eeH
	DB	0f8H
	DB	0e8H
	DB	0e1H
	DB	0eaH
	DB	0e0H
	DB	00H
	ORG $+178
	DW	0ffffH
	DW	0ffffH
	DD	0fffffe7dH
	DB	0cdH
	DB	0e5H
	DB	0eeH
	DB	0efH
	DB	0f0H
	DB	0e5H
	DB	0e4H
	DB	0e5H
	DB	0ebH
	DB	0e5H
	DB	0edH
	DB	0edH
	DB	0e0H
	DB	0ffH
	DB	020H
	DB	0eeH
	DB	0f8H
	DB	0e8H
	DB	0e1H
	DB	0eaH
	DB	0e0H
	DB	00H
	ORG $+178
	DW	0ffffH
	DW	0ffffH
	DD	0fffffe7eH
	DB	0cdH
	DB	0e5H
	DB	0eeH
	DB	0efH
	DB	0f0H
	DB	0e5H
	DB	0e4H
	DB	0e5H
	DB	0ebH
	DB	0e5H
	DB	0edH
	DB	0edH
	DB	0e0H
	DB	0ffH
	DB	020H
	DB	0eeH
	DB	0f8H
	DB	0e8H
	DB	0e1H
	DB	0eaH
	DB	0e0H
	DB	00H
	ORG $+178
	DW	0ffffH
	DW	0ffffH
	DD	0fffffe7fH
	DB	0cdH
	DB	0e5H
	DB	0eeH
	DB	0efH
	DB	0f0H
	DB	0e5H
	DB	0e4H
	DB	0e5H
	DB	0ebH
	DB	0e5H
	DB	0edH
	DB	0edH
	DB	0e0H
	DB	0ffH
	DB	020H
	DB	0eeH
	DB	0f8H
	DB	0e8H
	DB	0e1H
	DB	0eaH
	DB	0e0H
	DB	00H
	ORG $+178
	DW	0ffffH
	DW	0ffffH
	DD	0fffffe80H
	DB	0cdH
	DB	0e5H
	DB	0eeH
	DB	0efH
	DB	0f0H
	DB	0e5H
	DB	0e4H
	DB	0e5H
	DB	0ebH
	DB	0e5H
	DB	0edH
	DB	0edH
	DB	0e0H
	DB	0ffH
	DB	020H
	DB	0eeH
	DB	0f8H
	DB	0e8H
	DB	0e1H
	DB	0eaH
	DB	0e0H
	DB	00H
	ORG $+178
	DW	0ffffH
	DW	0ffffH
	DD	0fffffe81H
	DB	0cdH
	DB	0e5H
	DB	0eeH
	DB	0efH
	DB	0f0H
	DB	0e5H
	DB	0e4H
	DB	0e5H
	DB	0ebH
	DB	0e5H
	DB	0edH
	DB	0edH
	DB	0e0H
	DB	0ffH
	DB	020H
	DB	0eeH
	DB	0f8H
	DB	0e8H
	DB	0e1H
	DB	0eaH
	DB	0e0H
	DB	00H
	ORG $+178
	DW	0ffffH
	DW	0ffffH
	DD	0fffffe82H
	DB	0cdH
	DB	0e5H
	DB	0eeH
	DB	0efH
	DB	0f0H
	DB	0e5H
	DB	0e4H
	DB	0e5H
	DB	0ebH
	DB	0e5H
	DB	0edH
	DB	0edH
	DB	0e0H
	DB	0ffH
	DB	020H
	DB	0eeH
	DB	0f8H
	DB	0e8H
	DB	0e1H
	DB	0eaH
	DB	0e0H
	DB	00H
	ORG $+178
	DW	0ffffH
	DW	0ffffH
	DD	0fffffe83H
	DB	0cdH
	DB	0e5H
	DB	0eeH
	DB	0efH
	DB	0f0H
	DB	0e5H
	DB	0e4H
	DB	0e5H
	DB	0ebH
	DB	0e5H
	DB	0edH
	DB	0edH
	DB	0e0H
	DB	0ffH
	DB	020H
	DB	0eeH
	DB	0f8H
	DB	0e8H
	DB	0e1H
	DB	0eaH
	DB	0e0H
	DB	00H
	ORG $+178
	DW	0ffffH
	DW	0ffffH
	DD	0fffffe84H
	DB	0cdH
	DB	0e5H
	DB	0eeH
	DB	0efH
	DB	0f0H
	DB	0e5H
	DB	0e4H
	DB	0e5H
	DB	0ebH
	DB	0e5H
	DB	0edH
	DB	0edH
	DB	0e0H
	DB	0ffH
	DB	020H
	DB	0eeH
	DB	0f8H
	DB	0e8H
	DB	0e1H
	DB	0eaH
	DB	0e0H
	DB	00H
	ORG $+178
	DW	0ffffH
	DW	0ffffH
	DD	0fffffe85H
	DB	0cdH
	DB	0e5H
	DB	0eeH
	DB	0efH
	DB	0f0H
	DB	0e5H
	DB	0e4H
	DB	0e5H
	DB	0ebH
	DB	0e5H
	DB	0edH
	DB	0edH
	DB	0e0H
	DB	0ffH
	DB	020H
	DB	0eeH
	DB	0f8H
	DB	0e8H
	DB	0e1H
	DB	0eaH
	DB	0e0H
	DB	00H
	ORG $+178
	DW	0ffffH
	DW	0ffffH
	DD	0fffffe86H
	DB	0cdH
	DB	0e5H
	DB	0eeH
	DB	0efH
	DB	0f0H
	DB	0e5H
	DB	0e4H
	DB	0e5H
	DB	0ebH
	DB	0e5H
	DB	0edH
	DB	0edH
	DB	0e0H
	DB	0ffH
	DB	020H
	DB	0eeH
	DB	0f8H
	DB	0e8H
	DB	0e1H
	DB	0eaH
	DB	0e0H
	DB	00H
	ORG $+178
	DW	0ffffH
	DW	0ffffH
	DD	0fffffe87H
	DB	0cdH
	DB	0e5H
	DB	0eeH
	DB	0efH
	DB	0f0H
	DB	0e5H
	DB	0e4H
	DB	0e5H
	DB	0ebH
	DB	0e5H
	DB	0edH
	DB	0edH
	DB	0e0H
	DB	0ffH
	DB	020H
	DB	0eeH
	DB	0f8H
	DB	0e8H
	DB	0e1H
	DB	0eaH
	DB	0e0H
	DB	00H
	ORG $+178
	DW	0ffffH
	DW	0ffffH
	DD	0fffffe88H
	DB	0cdH
	DB	0e5H
	DB	0eeH
	DB	0efH
	DB	0f0H
	DB	0e5H
	DB	0e4H
	DB	0e5H
	DB	0ebH
	DB	0e5H
	DB	0edH
	DB	0edH
	DB	0e0H
	DB	0ffH
	DB	020H
	DB	0eeH
	DB	0f8H
	DB	0e8H
	DB	0e1H
	DB	0eaH
	DB	0e0H
	DB	00H
	ORG $+178
	DW	0ffffH
	DW	0ffffH
	DD	0fffffe89H
	DB	0cdH
	DB	0e5H
	DB	0eeH
	DB	0efH
	DB	0f0H
	DB	0e5H
	DB	0e4H
	DB	0e5H
	DB	0ebH
	DB	0e5H
	DB	0edH
	DB	0edH
	DB	0e0H
	DB	0ffH
	DB	020H
	DB	0eeH
	DB	0f8H
	DB	0e8H
	DB	0e1H
	DB	0eaH
	DB	0e0H
	DB	00H
	ORG $+178
	DW	0ffffH
	DW	0ffffH
	DD	0fffffe8aH
	DB	0cdH
	DB	0e5H
	DB	0eeH
	DB	0efH
	DB	0f0H
	DB	0e5H
	DB	0e4H
	DB	0e5H
	DB	0ebH
	DB	0e5H
	DB	0edH
	DB	0edH
	DB	0e0H
	DB	0ffH
	DB	020H
	DB	0eeH
	DB	0f8H
	DB	0e8H
	DB	0e1H
	DB	0eaH
	DB	0e0H
	DB	00H
	ORG $+178
	DW	0ffffH
	DW	0ffffH
	DD	0fffffe8bH
	DB	0cdH
	DB	0e5H
	DB	0eeH
	DB	0efH
	DB	0f0H
	DB	0e5H
	DB	0e4H
	DB	0e5H
	DB	0ebH
	DB	0e5H
	DB	0edH
	DB	0edH
	DB	0e0H
	DB	0ffH
	DB	020H
	DB	0eeH
	DB	0f8H
	DB	0e8H
	DB	0e1H
	DB	0eaH
	DB	0e0H
	DB	00H
	ORG $+178
	DW	0ffffH
	DW	0ffffH
	DD	0fffffe8cH
	DB	0cdH
	DB	0e5H
	DB	0eeH
	DB	0efH
	DB	0f0H
	DB	0e5H
	DB	0e4H
	DB	0e5H
	DB	0ebH
	DB	0e5H
	DB	0edH
	DB	0edH
	DB	0e0H
	DB	0ffH
	DB	020H
	DB	0eeH
	DB	0f8H
	DB	0e8H
	DB	0e1H
	DB	0eaH
	DB	0e0H
	DB	00H
	ORG $+178
	DW	0ffffH
	DW	0ffffH
	DD	0fffffe8dH
	DB	0cdH
	DB	0e5H
	DB	0eeH
	DB	0efH
	DB	0f0H
	DB	0e5H
	DB	0e4H
	DB	0e5H
	DB	0ebH
	DB	0e5H
	DB	0edH
	DB	0edH
	DB	0e0H
	DB	0ffH
	DB	020H
	DB	0eeH
	DB	0f8H
	DB	0e8H
	DB	0e1H
	DB	0eaH
	DB	0e0H
	DB	00H
	ORG $+178
	DW	0ffffH
	DW	0ffffH
	DD	0fffffe8eH
	DB	0cdH
	DB	0e5H
	DB	0eeH
	DB	0efH
	DB	0f0H
	DB	0e5H
	DB	0e4H
	DB	0e5H
	DB	0ebH
	DB	0e5H
	DB	0edH
	DB	0edH
	DB	0e0H
	DB	0ffH
	DB	020H
	DB	0eeH
	DB	0f8H
	DB	0e8H
	DB	0e1H
	DB	0eaH
	DB	0e0H
	DB	00H
	ORG $+178
	DW	0ffffH
	DW	0ffffH
	DD	0fffffe8fH
	DB	0cdH
	DB	0e5H
	DB	0eeH
	DB	0efH
	DB	0f0H
	DB	0e5H
	DB	0e4H
	DB	0e5H
	DB	0ebH
	DB	0e5H
	DB	0edH
	DB	0edH
	DB	0e0H
	DB	0ffH
	DB	020H
	DB	0eeH
	DB	0f8H
	DB	0e8H
	DB	0e1H
	DB	0eaH
	DB	0e0H
	DB	00H
	ORG $+178
	DW	0ffffH
	DW	0ffffH
	DD	0fffffe90H
	DB	0cdH
	DB	0e5H
	DB	0eeH
	DB	0efH
	DB	0f0H
	DB	0e5H
	DB	0e4H
	DB	0e5H
	DB	0ebH
	DB	0e5H
	DB	0edH
	DB	0edH
	DB	0e0H
	DB	0ffH
	DB	020H
	DB	0eeH
	DB	0f8H
	DB	0e8H
	DB	0e1H
	DB	0eaH
	DB	0e0H
	DB	00H
	ORG $+178
	DW	0ffffH
	DW	0ffffH
	DD	0fffffe91H
	DB	0cdH
	DB	0e5H
	DB	0eeH
	DB	0efH
	DB	0f0H
	DB	0e5H
	DB	0e4H
	DB	0e5H
	DB	0ebH
	DB	0e5H
	DB	0edH
	DB	0edH
	DB	0e0H
	DB	0ffH
	DB	020H
	DB	0eeH
	DB	0f8H
	DB	0e8H
	DB	0e1H
	DB	0eaH
	DB	0e0H
	DB	00H
	ORG $+178
	DW	0ffffH
	DW	0ffffH
	DD	0fffffe92H
	DB	0cdH
	DB	0e5H
	DB	0eeH
	DB	0efH
	DB	0f0H
	DB	0e5H
	DB	0e4H
	DB	0e5H
	DB	0ebH
	DB	0e5H
	DB	0edH
	DB	0edH
	DB	0e0H
	DB	0ffH
	DB	020H
	DB	0eeH
	DB	0f8H
	DB	0e8H
	DB	0e1H
	DB	0eaH
	DB	0e0H
	DB	00H
	ORG $+178
	DW	0ffffH
	DW	0ffffH
	DD	0fffffe93H
	DB	0cdH
	DB	0e5H
	DB	0eeH
	DB	0efH
	DB	0f0H
	DB	0e5H
	DB	0e4H
	DB	0e5H
	DB	0ebH
	DB	0e5H
	DB	0edH
	DB	0edH
	DB	0e0H
	DB	0ffH
	DB	020H
	DB	0eeH
	DB	0f8H
	DB	0e8H
	DB	0e1H
	DB	0eaH
	DB	0e0H
	DB	00H
	ORG $+178
	DW	0ffffH
	DW	0ffffH
	DD	0fffffe94H
	DB	0cdH
	DB	0e5H
	DB	0eeH
	DB	0efH
	DB	0f0H
	DB	0e5H
	DB	0e4H
	DB	0e5H
	DB	0ebH
	DB	0e5H
	DB	0edH
	DB	0edH
	DB	0e0H
	DB	0ffH
	DB	020H
	DB	0eeH
	DB	0f8H
	DB	0e8H
	DB	0e1H
	DB	0eaH
	DB	0e0H
	DB	00H
	ORG $+178
	DW	0ffffH
	DW	0ffffH
	DD	0fffffe95H
	DB	0cdH
	DB	0e5H
	DB	0eeH
	DB	0efH
	DB	0f0H
	DB	0e5H
	DB	0e4H
	DB	0e5H
	DB	0ebH
	DB	0e5H
	DB	0edH
	DB	0edH
	DB	0e0H
	DB	0ffH
	DB	020H
	DB	0eeH
	DB	0f8H
	DB	0e8H
	DB	0e1H
	DB	0eaH
	DB	0e0H
	DB	00H
	ORG $+178
	DW	0ffffH
	DW	0ffffH
	DD	0fffffe96H
	DB	0cdH
	DB	0e5H
	DB	0eeH
	DB	0efH
	DB	0f0H
	DB	0e5H
	DB	0e4H
	DB	0e5H
	DB	0ebH
	DB	0e5H
	DB	0edH
	DB	0edH
	DB	0e0H
	DB	0ffH
	DB	020H
	DB	0eeH
	DB	0f8H
	DB	0e8H
	DB	0e1H
	DB	0eaH
	DB	0e0H
	DB	00H
	ORG $+178
	DW	0ffffH
	DW	0ffffH
	DD	0fffffe97H
	DB	0cdH
	DB	0e5H
	DB	0eeH
	DB	0efH
	DB	0f0H
	DB	0e5H
	DB	0e4H
	DB	0e5H
	DB	0ebH
	DB	0e5H
	DB	0edH
	DB	0edH
	DB	0e0H
	DB	0ffH
	DB	020H
	DB	0eeH
	DB	0f8H
	DB	0e8H
	DB	0e1H
	DB	0eaH
	DB	0e0H
	DB	00H
	ORG $+178
	DW	0ffffH
	DW	0ffffH
	DD	0fffffe98H
	DB	0cdH
	DB	0e5H
	DB	0eeH
	DB	0efH
	DB	0f0H
	DB	0e5H
	DB	0e4H
	DB	0e5H
	DB	0ebH
	DB	0e5H
	DB	0edH
	DB	0edH
	DB	0e0H
	DB	0ffH
	DB	020H
	DB	0eeH
	DB	0f8H
	DB	0e8H
	DB	0e1H
	DB	0eaH
	DB	0e0H
	DB	00H
	ORG $+178
	DW	0ffffH
	DW	0ffffH
	DD	0fffffe99H
	DB	0cdH
	DB	0e5H
	DB	0eeH
	DB	0efH
	DB	0f0H
	DB	0e5H
	DB	0e4H
	DB	0e5H
	DB	0ebH
	DB	0e5H
	DB	0edH
	DB	0edH
	DB	0e0H
	DB	0ffH
	DB	020H
	DB	0eeH
	DB	0f8H
	DB	0e8H
	DB	0e1H
	DB	0eaH
	DB	0e0H
	DB	00H
	ORG $+178
	DW	0ffffH
	DW	0ffffH
	DD	0fffffe9aH
	DB	0cdH
	DB	0e5H
	DB	0eeH
	DB	0efH
	DB	0f0H
	DB	0e5H
	DB	0e4H
	DB	0e5H
	DB	0ebH
	DB	0e5H
	DB	0edH
	DB	0edH
	DB	0e0H
	DB	0ffH
	DB	020H
	DB	0eeH
	DB	0f8H
	DB	0e8H
	DB	0e1H
	DB	0eaH
	DB	0e0H
	DB	00H
	ORG $+178
	DW	0ffffH
	DW	0ffffH
	DD	0fffffe9bH
	DB	0cdH
	DB	0e5H
	DB	0eeH
	DB	0efH
	DB	0f0H
	DB	0e5H
	DB	0e4H
	DB	0e5H
	DB	0ebH
	DB	0e5H
	DB	0edH
	DB	0edH
	DB	0e0H
	DB	0ffH
	DB	020H
	DB	0eeH
	DB	0f8H
	DB	0e8H
	DB	0e1H
	DB	0eaH
	DB	0e0H
	DB	00H
	ORG $+178
	DW	0ffffH
	DW	0ffffH
	DD	0fffffe9cH
	DB	0cdH
	DB	0e5H
	DB	0eeH
	DB	0efH
	DB	0f0H
	DB	0e5H
	DB	0e4H
	DB	0e5H
	DB	0ebH
	DB	0e5H
	DB	0edH
	DB	0edH
	DB	0e0H
	DB	0ffH
	DB	020H
	DB	0eeH
	DB	0f8H
	DB	0e8H
	DB	0e1H
	DB	0eaH
	DB	0e0H
	DB	00H
	ORG $+178
	DW	0ffffH
	DW	0ffffH
	DD	0fffffe9dH
	DB	0cdH
	DB	0e5H
	DB	0eeH
	DB	0efH
	DB	0f0H
	DB	0e5H
	DB	0e4H
	DB	0e5H
	DB	0ebH
	DB	0e5H
	DB	0edH
	DB	0edH
	DB	0e0H
	DB	0ffH
	DB	020H
	DB	0eeH
	DB	0f8H
	DB	0e8H
	DB	0e1H
	DB	0eaH
	DB	0e0H
	DB	00H
	ORG $+178
	DW	0ffffH
	DW	0ffffH
	DD	0fffffe9eH
	DB	0cdH
	DB	0e5H
	DB	0eeH
	DB	0efH
	DB	0f0H
	DB	0e5H
	DB	0e4H
	DB	0e5H
	DB	0ebH
	DB	0e5H
	DB	0edH
	DB	0edH
	DB	0e0H
	DB	0ffH
	DB	020H
	DB	0eeH
	DB	0f8H
	DB	0e8H
	DB	0e1H
	DB	0eaH
	DB	0e0H
	DB	00H
	ORG $+178
	DW	0ffffH
	DW	0ffffH
	DD	0fffffe9fH
	DB	0cdH
	DB	0e5H
	DB	0eeH
	DB	0efH
	DB	0f0H
	DB	0e5H
	DB	0e4H
	DB	0e5H
	DB	0ebH
	DB	0e5H
	DB	0edH
	DB	0edH
	DB	0e0H
	DB	0ffH
	DB	020H
	DB	0eeH
	DB	0f8H
	DB	0e8H
	DB	0e1H
	DB	0eaH
	DB	0e0H
	DB	00H
	ORG $+178
	DW	0ffffH
	DW	0ffffH
	DD	0fffffea0H
	DB	0cdH
	DB	0e5H
	DB	0eeH
	DB	0efH
	DB	0f0H
	DB	0e5H
	DB	0e4H
	DB	0e5H
	DB	0ebH
	DB	0e5H
	DB	0edH
	DB	0edH
	DB	0e0H
	DB	0ffH
	DB	020H
	DB	0eeH
	DB	0f8H
	DB	0e8H
	DB	0e1H
	DB	0eaH
	DB	0e0H
	DB	00H
	ORG $+178
	DW	0ffffH
	DW	0ffffH
	DD	0fffffea1H
	DB	0cdH
	DB	0e5H
	DB	0eeH
	DB	0efH
	DB	0f0H
	DB	0e5H
	DB	0e4H
	DB	0e5H
	DB	0ebH
	DB	0e5H
	DB	0edH
	DB	0edH
	DB	0e0H
	DB	0ffH
	DB	020H
	DB	0eeH
	DB	0f8H
	DB	0e8H
	DB	0e1H
	DB	0eaH
	DB	0e0H
	DB	00H
	ORG $+178
	DW	0ffffH
	DW	0ffffH
	DD	0fffffea2H
	DB	0cdH
	DB	0e5H
	DB	0eeH
	DB	0efH
	DB	0f0H
	DB	0e5H
	DB	0e4H
	DB	0e5H
	DB	0ebH
	DB	0e5H
	DB	0edH
	DB	0edH
	DB	0e0H
	DB	0ffH
	DB	020H
	DB	0eeH
	DB	0f8H
	DB	0e8H
	DB	0e1H
	DB	0eaH
	DB	0e0H
	DB	00H
	ORG $+178
	DW	0ffffH
	DW	0ffffH
	DD	0fffffea3H
	DB	0cdH
	DB	0e5H
	DB	0eeH
	DB	0efH
	DB	0f0H
	DB	0e5H
	DB	0e4H
	DB	0e5H
	DB	0ebH
	DB	0e5H
	DB	0edH
	DB	0edH
	DB	0e0H
	DB	0ffH
	DB	020H
	DB	0eeH
	DB	0f8H
	DB	0e8H
	DB	0e1H
	DB	0eaH
	DB	0e0H
	DB	00H
	ORG $+178
	DW	0ffffH
	DW	0ffffH
	DD	0fffffea4H
	DB	0cdH
	DB	0e5H
	DB	0eeH
	DB	0efH
	DB	0f0H
	DB	0e5H
	DB	0e4H
	DB	0e5H
	DB	0ebH
	DB	0e5H
	DB	0edH
	DB	0edH
	DB	0e0H
	DB	0ffH
	DB	020H
	DB	0eeH
	DB	0f8H
	DB	0e8H
	DB	0e1H
	DB	0eaH
	DB	0e0H
	DB	00H
	ORG $+178
	DW	0ffffH
	DW	0ffffH
	DD	0fffffea5H
	DB	0cdH
	DB	0e5H
	DB	0eeH
	DB	0efH
	DB	0f0H
	DB	0e5H
	DB	0e4H
	DB	0e5H
	DB	0ebH
	DB	0e5H
	DB	0edH
	DB	0edH
	DB	0e0H
	DB	0ffH
	DB	020H
	DB	0eeH
	DB	0f8H
	DB	0e8H
	DB	0e1H
	DB	0eaH
	DB	0e0H
	DB	00H
	ORG $+178
	DW	0ffffH
	DW	0ffffH
	DD	0fffffea6H
	DB	0cdH
	DB	0e5H
	DB	0eeH
	DB	0efH
	DB	0f0H
	DB	0e5H
	DB	0e4H
	DB	0e5H
	DB	0ebH
	DB	0e5H
	DB	0edH
	DB	0edH
	DB	0e0H
	DB	0ffH
	DB	020H
	DB	0eeH
	DB	0f8H
	DB	0e8H
	DB	0e1H
	DB	0eaH
	DB	0e0H
	DB	00H
	ORG $+178
	DW	0ffffH
	DW	0ffffH
	DD	0fffffea7H
	DB	0cdH
	DB	0e5H
	DB	0eeH
	DB	0efH
	DB	0f0H
	DB	0e5H
	DB	0e4H
	DB	0e5H
	DB	0ebH
	DB	0e5H
	DB	0edH
	DB	0edH
	DB	0e0H
	DB	0ffH
	DB	020H
	DB	0eeH
	DB	0f8H
	DB	0e8H
	DB	0e1H
	DB	0eaH
	DB	0e0H
	DB	00H
	ORG $+178
	DW	0ffffH
	DW	0ffffH
	DD	0fffffea8H
	DB	0cdH
	DB	0e5H
	DB	0eeH
	DB	0efH
	DB	0f0H
	DB	0e5H
	DB	0e4H
	DB	0e5H
	DB	0ebH
	DB	0e5H
	DB	0edH
	DB	0edH
	DB	0e0H
	DB	0ffH
	DB	020H
	DB	0eeH
	DB	0f8H
	DB	0e8H
	DB	0e1H
	DB	0eaH
	DB	0e0H
	DB	00H
	ORG $+178
	DW	0ffffH
	DW	0ffffH
	DD	0fffffea9H
	DB	0cdH
	DB	0e5H
	DB	0eeH
	DB	0efH
	DB	0f0H
	DB	0e5H
	DB	0e4H
	DB	0e5H
	DB	0ebH
	DB	0e5H
	DB	0edH
	DB	0edH
	DB	0e0H
	DB	0ffH
	DB	020H
	DB	0eeH
	DB	0f8H
	DB	0e8H
	DB	0e1H
	DB	0eaH
	DB	0e0H
	DB	00H
	ORG $+178
	DW	0ffffH
	DW	0ffffH
	DD	0fffffeaaH
	DB	0cdH
	DB	0e5H
	DB	0eeH
	DB	0efH
	DB	0f0H
	DB	0e5H
	DB	0e4H
	DB	0e5H
	DB	0ebH
	DB	0e5H
	DB	0edH
	DB	0edH
	DB	0e0H
	DB	0ffH
	DB	020H
	DB	0eeH
	DB	0f8H
	DB	0e8H
	DB	0e1H
	DB	0eaH
	DB	0e0H
	DB	00H
	ORG $+178
	DW	0ffffH
	DW	0ffffH
	DD	0fffffeabH
	DB	0cdH
	DB	0e5H
	DB	0eeH
	DB	0efH
	DB	0f0H
	DB	0e5H
	DB	0e4H
	DB	0e5H
	DB	0ebH
	DB	0e5H
	DB	0edH
	DB	0edH
	DB	0e0H
	DB	0ffH
	DB	020H
	DB	0eeH
	DB	0f8H
	DB	0e8H
	DB	0e1H
	DB	0eaH
	DB	0e0H
	DB	00H
	ORG $+178
	DW	0ffffH
	DW	0ffffH
	DD	0fffffeacH
	DB	0cdH
	DB	0e5H
	DB	0eeH
	DB	0efH
	DB	0f0H
	DB	0e5H
	DB	0e4H
	DB	0e5H
	DB	0ebH
	DB	0e5H
	DB	0edH
	DB	0edH
	DB	0e0H
	DB	0ffH
	DB	020H
	DB	0eeH
	DB	0f8H
	DB	0e8H
	DB	0e1H
	DB	0eaH
	DB	0e0H
	DB	00H
	ORG $+178
	DW	0ffffH
	DW	0ffffH
	DD	0fffffeadH
	DB	0cdH
	DB	0e5H
	DB	0eeH
	DB	0efH
	DB	0f0H
	DB	0e5H
	DB	0e4H
	DB	0e5H
	DB	0ebH
	DB	0e5H
	DB	0edH
	DB	0edH
	DB	0e0H
	DB	0ffH
	DB	020H
	DB	0eeH
	DB	0f8H
	DB	0e8H
	DB	0e1H
	DB	0eaH
	DB	0e0H
	DB	00H
	ORG $+178
	DW	0ffffH
	DW	0ffffH
	DD	0fffffeaeH
	DB	0cdH
	DB	0e5H
	DB	0eeH
	DB	0efH
	DB	0f0H
	DB	0e5H
	DB	0e4H
	DB	0e5H
	DB	0ebH
	DB	0e5H
	DB	0edH
	DB	0edH
	DB	0e0H
	DB	0ffH
	DB	020H
	DB	0eeH
	DB	0f8H
	DB	0e8H
	DB	0e1H
	DB	0eaH
	DB	0e0H
	DB	00H
	ORG $+178
	DW	0ffffH
	DW	0ffffH
	DD	0fffffeafH
	DB	0cdH
	DB	0e5H
	DB	0eeH
	DB	0efH
	DB	0f0H
	DB	0e5H
	DB	0e4H
	DB	0e5H
	DB	0ebH
	DB	0e5H
	DB	0edH
	DB	0edH
	DB	0e0H
	DB	0ffH
	DB	020H
	DB	0eeH
	DB	0f8H
	DB	0e8H
	DB	0e1H
	DB	0eaH
	DB	0e0H
	DB	00H
	ORG $+178
	DW	0ffffH
	DW	0ffffH
	DD	0fffffeb0H
	DB	0cdH
	DB	0e5H
	DB	0eeH
	DB	0efH
	DB	0f0H
	DB	0e5H
	DB	0e4H
	DB	0e5H
	DB	0ebH
	DB	0e5H
	DB	0edH
	DB	0edH
	DB	0e0H
	DB	0ffH
	DB	020H
	DB	0eeH
	DB	0f8H
	DB	0e8H
	DB	0e1H
	DB	0eaH
	DB	0e0H
	DB	00H
	ORG $+178
	DW	0ffffH
	DW	0ffffH
	DD	0fffffeb1H
	DB	0cdH
	DB	0e5H
	DB	0eeH
	DB	0efH
	DB	0f0H
	DB	0e5H
	DB	0e4H
	DB	0e5H
	DB	0ebH
	DB	0e5H
	DB	0edH
	DB	0edH
	DB	0e0H
	DB	0ffH
	DB	020H
	DB	0eeH
	DB	0f8H
	DB	0e8H
	DB	0e1H
	DB	0eaH
	DB	0e0H
	DB	00H
	ORG $+178
	DW	0ffffH
	DW	0ffffH
	DD	0fffffeb2H
	DB	0cdH
	DB	0e5H
	DB	0eeH
	DB	0efH
	DB	0f0H
	DB	0e5H
	DB	0e4H
	DB	0e5H
	DB	0ebH
	DB	0e5H
	DB	0edH
	DB	0edH
	DB	0e0H
	DB	0ffH
	DB	020H
	DB	0eeH
	DB	0f8H
	DB	0e8H
	DB	0e1H
	DB	0eaH
	DB	0e0H
	DB	00H
	ORG $+178
	DW	0ffffH
	DW	0ffffH
	DD	0fffffeb3H
	DB	0cdH
	DB	0e5H
	DB	0eeH
	DB	0efH
	DB	0f0H
	DB	0e5H
	DB	0e4H
	DB	0e5H
	DB	0ebH
	DB	0e5H
	DB	0edH
	DB	0edH
	DB	0e0H
	DB	0ffH
	DB	020H
	DB	0eeH
	DB	0f8H
	DB	0e8H
	DB	0e1H
	DB	0eaH
	DB	0e0H
	DB	00H
	ORG $+178
	DW	0ffffH
	DW	0ffffH
	DD	0fffffeb4H
	DB	0cdH
	DB	0e5H
	DB	0eeH
	DB	0efH
	DB	0f0H
	DB	0e5H
	DB	0e4H
	DB	0e5H
	DB	0ebH
	DB	0e5H
	DB	0edH
	DB	0edH
	DB	0e0H
	DB	0ffH
	DB	020H
	DB	0eeH
	DB	0f8H
	DB	0e8H
	DB	0e1H
	DB	0eaH
	DB	0e0H
	DB	00H
	ORG $+178
	DW	0ffffH
	DW	0ffffH
	DD	0fffffeb5H
	DB	0cdH
	DB	0e5H
	DB	0eeH
	DB	0efH
	DB	0f0H
	DB	0e5H
	DB	0e4H
	DB	0e5H
	DB	0ebH
	DB	0e5H
	DB	0edH
	DB	0edH
	DB	0e0H
	DB	0ffH
	DB	020H
	DB	0eeH
	DB	0f8H
	DB	0e8H
	DB	0e1H
	DB	0eaH
	DB	0e0H
	DB	00H
	ORG $+178
	DW	0ffffH
	DW	0ffffH
	DD	0fffffeb6H
	DB	0cdH
	DB	0e5H
	DB	0eeH
	DB	0efH
	DB	0f0H
	DB	0e5H
	DB	0e4H
	DB	0e5H
	DB	0ebH
	DB	0e5H
	DB	0edH
	DB	0edH
	DB	0e0H
	DB	0ffH
	DB	020H
	DB	0eeH
	DB	0f8H
	DB	0e8H
	DB	0e1H
	DB	0eaH
	DB	0e0H
	DB	00H
	ORG $+178
	DW	0ffffH
	DW	0ffffH
	DD	0fffffeb7H
	DB	0cdH
	DB	0e5H
	DB	0eeH
	DB	0efH
	DB	0f0H
	DB	0e5H
	DB	0e4H
	DB	0e5H
	DB	0ebH
	DB	0e5H
	DB	0edH
	DB	0edH
	DB	0e0H
	DB	0ffH
	DB	020H
	DB	0eeH
	DB	0f8H
	DB	0e8H
	DB	0e1H
	DB	0eaH
	DB	0e0H
	DB	00H
	ORG $+178
	DW	0ffffH
	DW	0ffffH
	DD	0fffffeb8H
	DB	0cdH
	DB	0e5H
	DB	0eeH
	DB	0efH
	DB	0f0H
	DB	0e5H
	DB	0e4H
	DB	0e5H
	DB	0ebH
	DB	0e5H
	DB	0edH
	DB	0edH
	DB	0e0H
	DB	0ffH
	DB	020H
	DB	0eeH
	DB	0f8H
	DB	0e8H
	DB	0e1H
	DB	0eaH
	DB	0e0H
	DB	00H
	ORG $+178
	DW	0ffffH
	DW	0ffffH
	DD	0fffffeb9H
	DB	0cdH
	DB	0e5H
	DB	0eeH
	DB	0efH
	DB	0f0H
	DB	0e5H
	DB	0e4H
	DB	0e5H
	DB	0ebH
	DB	0e5H
	DB	0edH
	DB	0edH
	DB	0e0H
	DB	0ffH
	DB	020H
	DB	0eeH
	DB	0f8H
	DB	0e8H
	DB	0e1H
	DB	0eaH
	DB	0e0H
	DB	00H
	ORG $+178
	DW	0ffffH
	DW	0ffffH
	DD	0fffffebaH
	DB	0cdH
	DB	0e5H
	DB	0eeH
	DB	0efH
	DB	0f0H
	DB	0e5H
	DB	0e4H
	DB	0e5H
	DB	0ebH
	DB	0e5H
	DB	0edH
	DB	0edH
	DB	0e0H
	DB	0ffH
	DB	020H
	DB	0eeH
	DB	0f8H
	DB	0e8H
	DB	0e1H
	DB	0eaH
	DB	0e0H
	DB	00H
	ORG $+178
	DW	0ffffH
	DW	0ffffH
	DD	0fffffebbH
	DB	0cdH
	DB	0e5H
	DB	0eeH
	DB	0efH
	DB	0f0H
	DB	0e5H
	DB	0e4H
	DB	0e5H
	DB	0ebH
	DB	0e5H
	DB	0edH
	DB	0edH
	DB	0e0H
	DB	0ffH
	DB	020H
	DB	0eeH
	DB	0f8H
	DB	0e8H
	DB	0e1H
	DB	0eaH
	DB	0e0H
	DB	00H
	ORG $+178
	DW	0ffffH
	DW	0ffffH
	DD	0fffffebcH
	DB	0cdH
	DB	0e5H
	DB	0eeH
	DB	0efH
	DB	0f0H
	DB	0e5H
	DB	0e4H
	DB	0e5H
	DB	0ebH
	DB	0e5H
	DB	0edH
	DB	0edH
	DB	0e0H
	DB	0ffH
	DB	020H
	DB	0eeH
	DB	0f8H
	DB	0e8H
	DB	0e1H
	DB	0eaH
	DB	0e0H
	DB	00H
	ORG $+178
	DW	0ffffH
	DW	0ffffH
	DD	0fffffebdH
	DB	0cdH
	DB	0e5H
	DB	0eeH
	DB	0efH
	DB	0f0H
	DB	0e5H
	DB	0e4H
	DB	0e5H
	DB	0ebH
	DB	0e5H
	DB	0edH
	DB	0edH
	DB	0e0H
	DB	0ffH
	DB	020H
	DB	0eeH
	DB	0f8H
	DB	0e8H
	DB	0e1H
	DB	0eaH
	DB	0e0H
	DB	00H
	ORG $+178
	DW	0ffffH
	DW	0ffffH
	DD	0fffffebeH
	DB	0cdH
	DB	0e5H
	DB	0eeH
	DB	0efH
	DB	0f0H
	DB	0e5H
	DB	0e4H
	DB	0e5H
	DB	0ebH
	DB	0e5H
	DB	0edH
	DB	0edH
	DB	0e0H
	DB	0ffH
	DB	020H
	DB	0eeH
	DB	0f8H
	DB	0e8H
	DB	0e1H
	DB	0eaH
	DB	0e0H
	DB	00H
	ORG $+178
	DW	0ffffH
	DW	0ffffH
	DD	0fffffebfH
	DB	0cdH
	DB	0e5H
	DB	0eeH
	DB	0efH
	DB	0f0H
	DB	0e5H
	DB	0e4H
	DB	0e5H
	DB	0ebH
	DB	0e5H
	DB	0edH
	DB	0edH
	DB	0e0H
	DB	0ffH
	DB	020H
	DB	0eeH
	DB	0f8H
	DB	0e8H
	DB	0e1H
	DB	0eaH
	DB	0e0H
	DB	00H
	ORG $+178
	DW	0ffffH
	DW	0ffffH
	DD	0fffffec0H
	DB	0cdH
	DB	0e5H
	DB	0eeH
	DB	0efH
	DB	0f0H
	DB	0e5H
	DB	0e4H
	DB	0e5H
	DB	0ebH
	DB	0e5H
	DB	0edH
	DB	0edH
	DB	0e0H
	DB	0ffH
	DB	020H
	DB	0eeH
	DB	0f8H
	DB	0e8H
	DB	0e1H
	DB	0eaH
	DB	0e0H
	DB	00H
	ORG $+178
	DW	0ffffH
	DW	0ffffH
	DD	0fffffec1H
	DB	0cdH
	DB	0e5H
	DB	0eeH
	DB	0efH
	DB	0f0H
	DB	0e5H
	DB	0e4H
	DB	0e5H
	DB	0ebH
	DB	0e5H
	DB	0edH
	DB	0edH
	DB	0e0H
	DB	0ffH
	DB	020H
	DB	0eeH
	DB	0f8H
	DB	0e8H
	DB	0e1H
	DB	0eaH
	DB	0e0H
	DB	00H
	ORG $+178
	DW	0ffffH
	DW	0ffffH
	DD	0fffffec2H
	DB	0cdH
	DB	0e5H
	DB	0eeH
	DB	0efH
	DB	0f0H
	DB	0e5H
	DB	0e4H
	DB	0e5H
	DB	0ebH
	DB	0e5H
	DB	0edH
	DB	0edH
	DB	0e0H
	DB	0ffH
	DB	020H
	DB	0eeH
	DB	0f8H
	DB	0e8H
	DB	0e1H
	DB	0eaH
	DB	0e0H
	DB	00H
	ORG $+178
	DW	0ffffH
	DW	0ffffH
	DD	0fffffec3H
	DB	0cdH
	DB	0e5H
	DB	0eeH
	DB	0efH
	DB	0f0H
	DB	0e5H
	DB	0e4H
	DB	0e5H
	DB	0ebH
	DB	0e5H
	DB	0edH
	DB	0edH
	DB	0e0H
	DB	0ffH
	DB	020H
	DB	0eeH
	DB	0f8H
	DB	0e8H
	DB	0e1H
	DB	0eaH
	DB	0e0H
	DB	00H
	ORG $+178
	DW	0ffffH
	DW	0ffffH
	DD	0fffffec4H
	DB	0cdH
	DB	0e5H
	DB	0eeH
	DB	0efH
	DB	0f0H
	DB	0e5H
	DB	0e4H
	DB	0e5H
	DB	0ebH
	DB	0e5H
	DB	0edH
	DB	0edH
	DB	0e0H
	DB	0ffH
	DB	020H
	DB	0eeH
	DB	0f8H
	DB	0e8H
	DB	0e1H
	DB	0eaH
	DB	0e0H
	DB	00H
	ORG $+178
	DW	0ffffH
	DW	0ffffH
	DD	0fffffec5H
	DB	0cdH
	DB	0e5H
	DB	0eeH
	DB	0efH
	DB	0f0H
	DB	0e5H
	DB	0e4H
	DB	0e5H
	DB	0ebH
	DB	0e5H
	DB	0edH
	DB	0edH
	DB	0e0H
	DB	0ffH
	DB	020H
	DB	0eeH
	DB	0f8H
	DB	0e8H
	DB	0e1H
	DB	0eaH
	DB	0e0H
	DB	00H
	ORG $+178
	DW	0ffffH
	DW	0ffffH
	DD	0fffffec6H
	DB	0cdH
	DB	0e5H
	DB	0eeH
	DB	0efH
	DB	0f0H
	DB	0e5H
	DB	0e4H
	DB	0e5H
	DB	0ebH
	DB	0e5H
	DB	0edH
	DB	0edH
	DB	0e0H
	DB	0ffH
	DB	020H
	DB	0eeH
	DB	0f8H
	DB	0e8H
	DB	0e1H
	DB	0eaH
	DB	0e0H
	DB	00H
	ORG $+178
	DW	0ffffH
	DW	0ffffH
	DD	0fffffec7H
	DB	0cdH
	DB	0e5H
	DB	0eeH
	DB	0efH
	DB	0f0H
	DB	0e5H
	DB	0e4H
	DB	0e5H
	DB	0ebH
	DB	0e5H
	DB	0edH
	DB	0edH
	DB	0e0H
	DB	0ffH
	DB	020H
	DB	0eeH
	DB	0f8H
	DB	0e8H
	DB	0e1H
	DB	0eaH
	DB	0e0H
	DB	00H
	ORG $+178
	DW	0ffffH
	DW	0ffffH
	DD	0fffffec8H
	DB	0cdH
	DB	0e5H
	DB	0eeH
	DB	0efH
	DB	0f0H
	DB	0e5H
	DB	0e4H
	DB	0e5H
	DB	0ebH
	DB	0e5H
	DB	0edH
	DB	0edH
	DB	0e0H
	DB	0ffH
	DB	020H
	DB	0eeH
	DB	0f8H
	DB	0e8H
	DB	0e1H
	DB	0eaH
	DB	0e0H
	DB	00H
	ORG $+178
	DW	0ffffH
	DW	0ffffH
	DD	0fffffec9H
	DB	0cdH
	DB	0e5H
	DB	0eeH
	DB	0efH
	DB	0f0H
	DB	0e5H
	DB	0e4H
	DB	0e5H
	DB	0ebH
	DB	0e5H
	DB	0edH
	DB	0edH
	DB	0e0H
	DB	0ffH
	DB	020H
	DB	0eeH
	DB	0f8H
	DB	0e8H
	DB	0e1H
	DB	0eaH
	DB	0e0H
	DB	00H
	ORG $+178
	DW	0ffffH
	DW	0ffffH
	DD	0fffffecaH
	DB	0cdH
	DB	0e5H
	DB	0eeH
	DB	0efH
	DB	0f0H
	DB	0e5H
	DB	0e4H
	DB	0e5H
	DB	0ebH
	DB	0e5H
	DB	0edH
	DB	0edH
	DB	0e0H
	DB	0ffH
	DB	020H
	DB	0eeH
	DB	0f8H
	DB	0e8H
	DB	0e1H
	DB	0eaH
	DB	0e0H
	DB	00H
	ORG $+178
	DW	0ffffH
	DW	0ffffH
	DD	0fffffecbH
	DB	0cdH
	DB	0e5H
	DB	0eeH
	DB	0efH
	DB	0f0H
	DB	0e5H
	DB	0e4H
	DB	0e5H
	DB	0ebH
	DB	0e5H
	DB	0edH
	DB	0edH
	DB	0e0H
	DB	0ffH
	DB	020H
	DB	0eeH
	DB	0f8H
	DB	0e8H
	DB	0e1H
	DB	0eaH
	DB	0e0H
	DB	00H
	ORG $+178
	DW	0ffffH
	DW	0ffffH
	DD	0fffffeccH
	DB	0cdH
	DB	0e5H
	DB	0eeH
	DB	0efH
	DB	0f0H
	DB	0e5H
	DB	0e4H
	DB	0e5H
	DB	0ebH
	DB	0e5H
	DB	0edH
	DB	0edH
	DB	0e0H
	DB	0ffH
	DB	020H
	DB	0eeH
	DB	0f8H
	DB	0e8H
	DB	0e1H
	DB	0eaH
	DB	0e0H
	DB	00H
	ORG $+178
	DW	0ffffH
	DW	0ffffH
	DD	0fffffecdH
	DB	0cdH
	DB	0e5H
	DB	0eeH
	DB	0efH
	DB	0f0H
	DB	0e5H
	DB	0e4H
	DB	0e5H
	DB	0ebH
	DB	0e5H
	DB	0edH
	DB	0edH
	DB	0e0H
	DB	0ffH
	DB	020H
	DB	0eeH
	DB	0f8H
	DB	0e8H
	DB	0e1H
	DB	0eaH
	DB	0e0H
	DB	00H
	ORG $+178
	DW	0ffffH
	DW	0ffffH
	DD	0fffffeceH
	DB	0cdH
	DB	0e5H
	DB	0eeH
	DB	0efH
	DB	0f0H
	DB	0e5H
	DB	0e4H
	DB	0e5H
	DB	0ebH
	DB	0e5H
	DB	0edH
	DB	0edH
	DB	0e0H
	DB	0ffH
	DB	020H
	DB	0eeH
	DB	0f8H
	DB	0e8H
	DB	0e1H
	DB	0eaH
	DB	0e0H
	DB	00H
	ORG $+178
	DW	0ffffH
	DW	0ffffH
	DD	0fffffecfH
	DB	0cdH
	DB	0e5H
	DB	0eeH
	DB	0efH
	DB	0f0H
	DB	0e5H
	DB	0e4H
	DB	0e5H
	DB	0ebH
	DB	0e5H
	DB	0edH
	DB	0edH
	DB	0e0H
	DB	0ffH
	DB	020H
	DB	0eeH
	DB	0f8H
	DB	0e8H
	DB	0e1H
	DB	0eaH
	DB	0e0H
	DB	00H
	ORG $+178
	DW	0ffffH
	DW	0ffffH
	DD	0fffffed0H
	DB	0cdH
	DB	0e5H
	DB	0eeH
	DB	0efH
	DB	0f0H
	DB	0e5H
	DB	0e4H
	DB	0e5H
	DB	0ebH
	DB	0e5H
	DB	0edH
	DB	0edH
	DB	0e0H
	DB	0ffH
	DB	020H
	DB	0eeH
	DB	0f8H
	DB	0e8H
	DB	0e1H
	DB	0eaH
	DB	0e0H
	DB	00H
	ORG $+178
	DW	0ffffH
	DW	0ffffH
	DD	0fffffed1H
	DB	0cdH
	DB	0e5H
	DB	0eeH
	DB	0efH
	DB	0f0H
	DB	0e5H
	DB	0e4H
	DB	0e5H
	DB	0ebH
	DB	0e5H
	DB	0edH
	DB	0edH
	DB	0e0H
	DB	0ffH
	DB	020H
	DB	0eeH
	DB	0f8H
	DB	0e8H
	DB	0e1H
	DB	0eaH
	DB	0e0H
	DB	00H
	ORG $+178
	DW	0ffffH
	DW	0ffffH
	DD	0fffffed2H
	DB	0cdH
	DB	0e5H
	DB	0eeH
	DB	0efH
	DB	0f0H
	DB	0e5H
	DB	0e4H
	DB	0e5H
	DB	0ebH
	DB	0e5H
	DB	0edH
	DB	0edH
	DB	0e0H
	DB	0ffH
	DB	020H
	DB	0eeH
	DB	0f8H
	DB	0e8H
	DB	0e1H
	DB	0eaH
	DB	0e0H
	DB	00H
	ORG $+178
	DW	0ffffH
	DW	0ffffH
	DD	0fffffed3H
	DB	0cdH
	DB	0e5H
	DB	0eeH
	DB	0efH
	DB	0f0H
	DB	0e5H
	DB	0e4H
	DB	0e5H
	DB	0ebH
	DB	0e5H
	DB	0edH
	DB	0edH
	DB	0e0H
	DB	0ffH
	DB	020H
	DB	0eeH
	DB	0f8H
	DB	0e8H
	DB	0e1H
	DB	0eaH
	DB	0e0H
	DB	00H
	ORG $+178
	DW	0ffffH
	DW	0ffffH
	DD	0fffffe0cH
	DB	0cdH
	DB	0e5H
	DB	0eeH
	DB	0efH
	DB	0f0H
	DB	0e5H
	DB	0e4H
	DB	0e5H
	DB	0ebH
	DB	0e5H
	DB	0edH
	DB	0edH
	DB	0e0H
	DB	0ffH
	DB	020H
	DB	0eeH
	DB	0f8H
	DB	0e8H
	DB	0e1H
	DB	0eaH
	DB	0e0H
	DB	00H
	ORG $+178
	DW	0ffffH
	DW	0ffffH
	DD	0fffffe0dH
	DB	0cdH
	DB	0e5H
	DB	0eeH
	DB	0efH
	DB	0f0H
	DB	0e5H
	DB	0e4H
	DB	0e5H
	DB	0ebH
	DB	0e5H
	DB	0edH
	DB	0edH
	DB	0e0H
	DB	0ffH
	DB	020H
	DB	0eeH
	DB	0f8H
	DB	0e8H
	DB	0e1H
	DB	0eaH
	DB	0e0H
	DB	00H
	ORG $+178
	DW	0ffffH
	DW	0ffffH
	DD	0fffffe0eH
	DB	0cdH
	DB	0e5H
	DB	0eeH
	DB	0efH
	DB	0f0H
	DB	0e5H
	DB	0e4H
	DB	0e5H
	DB	0ebH
	DB	0e5H
	DB	0edH
	DB	0edH
	DB	0e0H
	DB	0ffH
	DB	020H
	DB	0eeH
	DB	0f8H
	DB	0e8H
	DB	0e1H
	DB	0eaH
	DB	0e0H
	DB	00H
	ORG $+178
	DW	0ffffH
	DW	0ffffH
	DD	0fffffe0fH
	DB	0cdH
	DB	0e5H
	DB	0eeH
	DB	0efH
	DB	0f0H
	DB	0e5H
	DB	0e4H
	DB	0e5H
	DB	0ebH
	DB	0e5H
	DB	0edH
	DB	0edH
	DB	0e0H
	DB	0ffH
	DB	020H
	DB	0eeH
	DB	0f8H
	DB	0e8H
	DB	0e1H
	DB	0eaH
	DB	0e0H
	DB	00H
	ORG $+178
	DW	0ffffH
	DW	0ffffH
	DD	0fffffe10H
	DB	0cdH
	DB	0e5H
	DB	0eeH
	DB	0efH
	DB	0f0H
	DB	0e5H
	DB	0e4H
	DB	0e5H
	DB	0ebH
	DB	0e5H
	DB	0edH
	DB	0edH
	DB	0e0H
	DB	0ffH
	DB	020H
	DB	0eeH
	DB	0f8H
	DB	0e8H
	DB	0e1H
	DB	0eaH
	DB	0e0H
	DB	00H
	ORG $+178
	DW	0ffffH
	DW	0ffffH
	DD	0fffffe11H
	DB	0cdH
	DB	0e5H
	DB	0eeH
	DB	0efH
	DB	0f0H
	DB	0e5H
	DB	0e4H
	DB	0e5H
	DB	0ebH
	DB	0e5H
	DB	0edH
	DB	0edH
	DB	0e0H
	DB	0ffH
	DB	020H
	DB	0eeH
	DB	0f8H
	DB	0e8H
	DB	0e1H
	DB	0eaH
	DB	0e0H
	DB	00H
	ORG $+178
	DW	0ffffH
	DW	0ffffH
	DD	0fffffe12H
	DB	0cdH
	DB	0e5H
	DB	0eeH
	DB	0efH
	DB	0f0H
	DB	0e5H
	DB	0e4H
	DB	0e5H
	DB	0ebH
	DB	0e5H
	DB	0edH
	DB	0edH
	DB	0e0H
	DB	0ffH
	DB	020H
	DB	0eeH
	DB	0f8H
	DB	0e8H
	DB	0e1H
	DB	0eaH
	DB	0e0H
	DB	00H
	ORG $+178
	DW	0ffffH
	DW	0ffffH
	DD	0fffffe13H
	DB	0cdH
	DB	0e5H
	DB	0eeH
	DB	0efH
	DB	0f0H
	DB	0e5H
	DB	0e4H
	DB	0e5H
	DB	0ebH
	DB	0e5H
	DB	0edH
	DB	0edH
	DB	0e0H
	DB	0ffH
	DB	020H
	DB	0eeH
	DB	0f8H
	DB	0e8H
	DB	0e1H
	DB	0eaH
	DB	0e0H
	DB	00H
	ORG $+178
	DW	0ffffH
	DW	0ffffH
	DD	0fffffe14H
	DB	0cdH
	DB	0e5H
	DB	0eeH
	DB	0efH
	DB	0f0H
	DB	0e5H
	DB	0e4H
	DB	0e5H
	DB	0ebH
	DB	0e5H
	DB	0edH
	DB	0edH
	DB	0e0H
	DB	0ffH
	DB	020H
	DB	0eeH
	DB	0f8H
	DB	0e8H
	DB	0e1H
	DB	0eaH
	DB	0e0H
	DB	00H
	ORG $+178
	DW	0ffffH
	DW	0ffffH
	DD	0fffffe15H
	DB	0cdH
	DB	0e5H
	DB	0eeH
	DB	0efH
	DB	0f0H
	DB	0e5H
	DB	0e4H
	DB	0e5H
	DB	0ebH
	DB	0e5H
	DB	0edH
	DB	0edH
	DB	0e0H
	DB	0ffH
	DB	020H
	DB	0eeH
	DB	0f8H
	DB	0e8H
	DB	0e1H
	DB	0eaH
	DB	0e0H
	DB	00H
	ORG $+178
	DW	0ffffH
	DW	0ffffH
	DD	0fffffe16H
	DB	0cdH
	DB	0e5H
	DB	0eeH
	DB	0efH
	DB	0f0H
	DB	0e5H
	DB	0e4H
	DB	0e5H
	DB	0ebH
	DB	0e5H
	DB	0edH
	DB	0edH
	DB	0e0H
	DB	0ffH
	DB	020H
	DB	0eeH
	DB	0f8H
	DB	0e8H
	DB	0e1H
	DB	0eaH
	DB	0e0H
	DB	00H
	ORG $+178
	DW	0ffffH
	DW	0ffffH
	DD	0fffffe17H
	DB	0cdH
	DB	0e5H
	DB	0eeH
	DB	0efH
	DB	0f0H
	DB	0e5H
	DB	0e4H
	DB	0e5H
	DB	0ebH
	DB	0e5H
	DB	0edH
	DB	0edH
	DB	0e0H
	DB	0ffH
	DB	020H
	DB	0eeH
	DB	0f8H
	DB	0e8H
	DB	0e1H
	DB	0eaH
	DB	0e0H
	DB	00H
	ORG $+178
	DW	0ffffH
	DW	0ffffH
	DD	0fffffe18H
	DB	0cdH
	DB	0e5H
	DB	0eeH
	DB	0efH
	DB	0f0H
	DB	0e5H
	DB	0e4H
	DB	0e5H
	DB	0ebH
	DB	0e5H
	DB	0edH
	DB	0edH
	DB	0e0H
	DB	0ffH
	DB	020H
	DB	0eeH
	DB	0f8H
	DB	0e8H
	DB	0e1H
	DB	0eaH
	DB	0e0H
	DB	00H
	ORG $+178
	DW	0ffffH
	DW	0ffffH
	DD	0fffffe19H
	DB	0cdH
	DB	0e5H
	DB	0eeH
	DB	0efH
	DB	0f0H
	DB	0e5H
	DB	0e4H
	DB	0e5H
	DB	0ebH
	DB	0e5H
	DB	0edH
	DB	0edH
	DB	0e0H
	DB	0ffH
	DB	020H
	DB	0eeH
	DB	0f8H
	DB	0e8H
	DB	0e1H
	DB	0eaH
	DB	0e0H
	DB	00H
	ORG $+178
	DW	0ffffH
	DW	0ffffH
	DD	0fffffe1aH
	DB	0cdH
	DB	0e5H
	DB	0eeH
	DB	0efH
	DB	0f0H
	DB	0e5H
	DB	0e4H
	DB	0e5H
	DB	0ebH
	DB	0e5H
	DB	0edH
	DB	0edH
	DB	0e0H
	DB	0ffH
	DB	020H
	DB	0eeH
	DB	0f8H
	DB	0e8H
	DB	0e1H
	DB	0eaH
	DB	0e0H
	DB	00H
	ORG $+178
	DW	0ffffH
	DW	0ffffH
	DD	0fffffe1bH
	DB	0cdH
	DB	0e5H
	DB	0eeH
	DB	0efH
	DB	0f0H
	DB	0e5H
	DB	0e4H
	DB	0e5H
	DB	0ebH
	DB	0e5H
	DB	0edH
	DB	0edH
	DB	0e0H
	DB	0ffH
	DB	020H
	DB	0eeH
	DB	0f8H
	DB	0e8H
	DB	0e1H
	DB	0eaH
	DB	0e0H
	DB	00H
	ORG $+178
	DW	0ffffH
	DW	0ffffH
	DD	0fffffe1cH
	DB	0cdH
	DB	0e5H
	DB	0eeH
	DB	0efH
	DB	0f0H
	DB	0e5H
	DB	0e4H
	DB	0e5H
	DB	0ebH
	DB	0e5H
	DB	0edH
	DB	0edH
	DB	0e0H
	DB	0ffH
	DB	020H
	DB	0eeH
	DB	0f8H
	DB	0e8H
	DB	0e1H
	DB	0eaH
	DB	0e0H
	DB	00H
	ORG $+178
	DW	0ffffH
	DW	0ffffH
	DD	0fffffe1dH
	DB	0cdH
	DB	0e5H
	DB	0eeH
	DB	0efH
	DB	0f0H
	DB	0e5H
	DB	0e4H
	DB	0e5H
	DB	0ebH
	DB	0e5H
	DB	0edH
	DB	0edH
	DB	0e0H
	DB	0ffH
	DB	020H
	DB	0eeH
	DB	0f8H
	DB	0e8H
	DB	0e1H
	DB	0eaH
	DB	0e0H
	DB	00H
	ORG $+178
	DW	0ffffH
	DW	0ffffH
	DD	0fffffe1eH
	DB	0cdH
	DB	0e5H
	DB	0eeH
	DB	0efH
	DB	0f0H
	DB	0e5H
	DB	0e4H
	DB	0e5H
	DB	0ebH
	DB	0e5H
	DB	0edH
	DB	0edH
	DB	0e0H
	DB	0ffH
	DB	020H
	DB	0eeH
	DB	0f8H
	DB	0e8H
	DB	0e1H
	DB	0eaH
	DB	0e0H
	DB	00H
	ORG $+178
	DW	0ffffH
	DW	0ffffH
	DD	0fffffe1fH
	DB	0cdH
	DB	0e5H
	DB	0eeH
	DB	0efH
	DB	0f0H
	DB	0e5H
	DB	0e4H
	DB	0e5H
	DB	0ebH
	DB	0e5H
	DB	0edH
	DB	0edH
	DB	0e0H
	DB	0ffH
	DB	020H
	DB	0eeH
	DB	0f8H
	DB	0e8H
	DB	0e1H
	DB	0eaH
	DB	0e0H
	DB	00H
	ORG $+178
	DW	0ffffH
	DW	0ffffH
	DD	0fffffe20H
	DB	0cdH
	DB	0e5H
	DB	0eeH
	DB	0efH
	DB	0f0H
	DB	0e5H
	DB	0e4H
	DB	0e5H
	DB	0ebH
	DB	0e5H
	DB	0edH
	DB	0edH
	DB	0e0H
	DB	0ffH
	DB	020H
	DB	0eeH
	DB	0f8H
	DB	0e8H
	DB	0e1H
	DB	0eaH
	DB	0e0H
	DB	00H
	ORG $+178
	DW	0ffffH
	DW	0ffffH
	DD	0fffffe21H
	DB	0cdH
	DB	0e5H
	DB	0eeH
	DB	0efH
	DB	0f0H
	DB	0e5H
	DB	0e4H
	DB	0e5H
	DB	0ebH
	DB	0e5H
	DB	0edH
	DB	0edH
	DB	0e0H
	DB	0ffH
	DB	020H
	DB	0eeH
	DB	0f8H
	DB	0e8H
	DB	0e1H
	DB	0eaH
	DB	0e0H
	DB	00H
	ORG $+178
	DW	0ffffH
	DW	0ffffH
	DD	0fffffe22H
	DB	0cdH
	DB	0e5H
	DB	0eeH
	DB	0efH
	DB	0f0H
	DB	0e5H
	DB	0e4H
	DB	0e5H
	DB	0ebH
	DB	0e5H
	DB	0edH
	DB	0edH
	DB	0e0H
	DB	0ffH
	DB	020H
	DB	0eeH
	DB	0f8H
	DB	0e8H
	DB	0e1H
	DB	0eaH
	DB	0e0H
	DB	00H
	ORG $+178
	DW	0ffffH
	DW	0ffffH
	DD	0fffffe23H
	DB	0cdH
	DB	0e5H
	DB	0eeH
	DB	0efH
	DB	0f0H
	DB	0e5H
	DB	0e4H
	DB	0e5H
	DB	0ebH
	DB	0e5H
	DB	0edH
	DB	0edH
	DB	0e0H
	DB	0ffH
	DB	020H
	DB	0eeH
	DB	0f8H
	DB	0e8H
	DB	0e1H
	DB	0eaH
	DB	0e0H
	DB	00H
	ORG $+178
	DW	0ffffH
	DW	0ffffH
	DD	0fffffe24H
	DB	0cdH
	DB	0e5H
	DB	0eeH
	DB	0efH
	DB	0f0H
	DB	0e5H
	DB	0e4H
	DB	0e5H
	DB	0ebH
	DB	0e5H
	DB	0edH
	DB	0edH
	DB	0e0H
	DB	0ffH
	DB	020H
	DB	0eeH
	DB	0f8H
	DB	0e8H
	DB	0e1H
	DB	0eaH
	DB	0e0H
	DB	00H
	ORG $+178
	DW	0ffffH
	DW	0ffffH
	DD	0fffffe25H
	DB	0cdH
	DB	0e5H
	DB	0eeH
	DB	0efH
	DB	0f0H
	DB	0e5H
	DB	0e4H
	DB	0e5H
	DB	0ebH
	DB	0e5H
	DB	0edH
	DB	0edH
	DB	0e0H
	DB	0ffH
	DB	020H
	DB	0eeH
	DB	0f8H
	DB	0e8H
	DB	0e1H
	DB	0eaH
	DB	0e0H
	DB	00H
	ORG $+178
	DW	0ffffH
	DW	0ffffH
	DD	0fffffe26H
	DB	0cdH
	DB	0e5H
	DB	0eeH
	DB	0efH
	DB	0f0H
	DB	0e5H
	DB	0e4H
	DB	0e5H
	DB	0ebH
	DB	0e5H
	DB	0edH
	DB	0edH
	DB	0e0H
	DB	0ffH
	DB	020H
	DB	0eeH
	DB	0f8H
	DB	0e8H
	DB	0e1H
	DB	0eaH
	DB	0e0H
	DB	00H
	ORG $+178
	DW	0ffffH
	DW	0ffffH
	DD	0fffffe27H
	DB	0cdH
	DB	0e5H
	DB	0eeH
	DB	0efH
	DB	0f0H
	DB	0e5H
	DB	0e4H
	DB	0e5H
	DB	0ebH
	DB	0e5H
	DB	0edH
	DB	0edH
	DB	0e0H
	DB	0ffH
	DB	020H
	DB	0eeH
	DB	0f8H
	DB	0e8H
	DB	0e1H
	DB	0eaH
	DB	0e0H
	DB	00H
	ORG $+178
	DW	0ffffH
	DW	0ffffH
	DD	0fffffe28H
	DB	0cdH
	DB	0e5H
	DB	0eeH
	DB	0efH
	DB	0f0H
	DB	0e5H
	DB	0e4H
	DB	0e5H
	DB	0ebH
	DB	0e5H
	DB	0edH
	DB	0edH
	DB	0e0H
	DB	0ffH
	DB	020H
	DB	0eeH
	DB	0f8H
	DB	0e8H
	DB	0e1H
	DB	0eaH
	DB	0e0H
	DB	00H
	ORG $+178
	DW	0ffffH
	DW	0ffffH
	DD	0fffffe29H
	DB	0cdH
	DB	0e5H
	DB	0eeH
	DB	0efH
	DB	0f0H
	DB	0e5H
	DB	0e4H
	DB	0e5H
	DB	0ebH
	DB	0e5H
	DB	0edH
	DB	0edH
	DB	0e0H
	DB	0ffH
	DB	020H
	DB	0eeH
	DB	0f8H
	DB	0e8H
	DB	0e1H
	DB	0eaH
	DB	0e0H
	DB	00H
	ORG $+178
	DW	0ffffH
	DW	0ffffH
	DD	0fffffe2aH
	DB	0cdH
	DB	0e5H
	DB	0eeH
	DB	0efH
	DB	0f0H
	DB	0e5H
	DB	0e4H
	DB	0e5H
	DB	0ebH
	DB	0e5H
	DB	0edH
	DB	0edH
	DB	0e0H
	DB	0ffH
	DB	020H
	DB	0eeH
	DB	0f8H
	DB	0e8H
	DB	0e1H
	DB	0eaH
	DB	0e0H
	DB	00H
	ORG $+178
	DW	0ffffH
	DW	0ffffH
	DD	0fffffe2bH
	DB	0cdH
	DB	0e5H
	DB	0eeH
	DB	0efH
	DB	0f0H
	DB	0e5H
	DB	0e4H
	DB	0e5H
	DB	0ebH
	DB	0e5H
	DB	0edH
	DB	0edH
	DB	0e0H
	DB	0ffH
	DB	020H
	DB	0eeH
	DB	0f8H
	DB	0e8H
	DB	0e1H
	DB	0eaH
	DB	0e0H
	DB	00H
	ORG $+178
	DW	0ffffH
	DW	0ffffH
	DD	0fffffe2cH
	DB	0cdH
	DB	0e5H
	DB	0eeH
	DB	0efH
	DB	0f0H
	DB	0e5H
	DB	0e4H
	DB	0e5H
	DB	0ebH
	DB	0e5H
	DB	0edH
	DB	0edH
	DB	0e0H
	DB	0ffH
	DB	020H
	DB	0eeH
	DB	0f8H
	DB	0e8H
	DB	0e1H
	DB	0eaH
	DB	0e0H
	DB	00H
	ORG $+178
	DW	0ffffH
	DW	0ffffH
	DD	0fffffe2dH
	DB	0cdH
	DB	0e5H
	DB	0eeH
	DB	0efH
	DB	0f0H
	DB	0e5H
	DB	0e4H
	DB	0e5H
	DB	0ebH
	DB	0e5H
	DB	0edH
	DB	0edH
	DB	0e0H
	DB	0ffH
	DB	020H
	DB	0eeH
	DB	0f8H
	DB	0e8H
	DB	0e1H
	DB	0eaH
	DB	0e0H
	DB	00H
	ORG $+178
	DW	0ffffH
	DW	0ffffH
	DD	0fffffe2eH
	DB	0cdH
	DB	0e5H
	DB	0eeH
	DB	0efH
	DB	0f0H
	DB	0e5H
	DB	0e4H
	DB	0e5H
	DB	0ebH
	DB	0e5H
	DB	0edH
	DB	0edH
	DB	0e0H
	DB	0ffH
	DB	020H
	DB	0eeH
	DB	0f8H
	DB	0e8H
	DB	0e1H
	DB	0eaH
	DB	0e0H
	DB	00H
	ORG $+178
	DW	0ffffH
	DW	0ffffH
	DD	0fffffe2fH
	DB	0cdH
	DB	0e5H
	DB	0eeH
	DB	0efH
	DB	0f0H
	DB	0e5H
	DB	0e4H
	DB	0e5H
	DB	0ebH
	DB	0e5H
	DB	0edH
	DB	0edH
	DB	0e0H
	DB	0ffH
	DB	020H
	DB	0eeH
	DB	0f8H
	DB	0e8H
	DB	0e1H
	DB	0eaH
	DB	0e0H
	DB	00H
	ORG $+178
	DW	0ffffH
	DW	0ffffH
	DD	0fffffe30H
	DB	0cdH
	DB	0e5H
	DB	0eeH
	DB	0efH
	DB	0f0H
	DB	0e5H
	DB	0e4H
	DB	0e5H
	DB	0ebH
	DB	0e5H
	DB	0edH
	DB	0edH
	DB	0e0H
	DB	0ffH
	DB	020H
	DB	0eeH
	DB	0f8H
	DB	0e8H
	DB	0e1H
	DB	0eaH
	DB	0e0H
	DB	00H
	ORG $+178
	DW	0ffffH
	DW	0ffffH
	DD	0fffffe31H
	DB	0cdH
	DB	0e5H
	DB	0eeH
	DB	0efH
	DB	0f0H
	DB	0e5H
	DB	0e4H
	DB	0e5H
	DB	0ebH
	DB	0e5H
	DB	0edH
	DB	0edH
	DB	0e0H
	DB	0ffH
	DB	020H
	DB	0eeH
	DB	0f8H
	DB	0e8H
	DB	0e1H
	DB	0eaH
	DB	0e0H
	DB	00H
	ORG $+178
	DW	0ffffH
	DW	0ffffH
	DD	0fffffe32H
	DB	0cdH
	DB	0e5H
	DB	0eeH
	DB	0efH
	DB	0f0H
	DB	0e5H
	DB	0e4H
	DB	0e5H
	DB	0ebH
	DB	0e5H
	DB	0edH
	DB	0edH
	DB	0e0H
	DB	0ffH
	DB	020H
	DB	0eeH
	DB	0f8H
	DB	0e8H
	DB	0e1H
	DB	0eaH
	DB	0e0H
	DB	00H
	ORG $+178
	DW	0ffffH
	DW	0ffffH
	DD	0fffffe33H
	DB	0cdH
	DB	0e5H
	DB	0eeH
	DB	0efH
	DB	0f0H
	DB	0e5H
	DB	0e4H
	DB	0e5H
	DB	0ebH
	DB	0e5H
	DB	0edH
	DB	0edH
	DB	0e0H
	DB	0ffH
	DB	020H
	DB	0eeH
	DB	0f8H
	DB	0e8H
	DB	0e1H
	DB	0eaH
	DB	0e0H
	DB	00H
	ORG $+178
	DW	0ffffH
	DW	0ffffH
	DD	0fffffe34H
	DB	0cdH
	DB	0e5H
	DB	0eeH
	DB	0efH
	DB	0f0H
	DB	0e5H
	DB	0e4H
	DB	0e5H
	DB	0ebH
	DB	0e5H
	DB	0edH
	DB	0edH
	DB	0e0H
	DB	0ffH
	DB	020H
	DB	0eeH
	DB	0f8H
	DB	0e8H
	DB	0e1H
	DB	0eaH
	DB	0e0H
	DB	00H
	ORG $+178
	DW	0ffffH
	DW	0ffffH
	DD	0fffffe35H
	DB	0cdH
	DB	0e5H
	DB	0eeH
	DB	0efH
	DB	0f0H
	DB	0e5H
	DB	0e4H
	DB	0e5H
	DB	0ebH
	DB	0e5H
	DB	0edH
	DB	0edH
	DB	0e0H
	DB	0ffH
	DB	020H
	DB	0eeH
	DB	0f8H
	DB	0e8H
	DB	0e1H
	DB	0eaH
	DB	0e0H
	DB	00H
	ORG $+178
	DW	0ffffH
	DW	0ffffH
	DD	0fffffe36H
	DB	0cdH
	DB	0e5H
	DB	0eeH
	DB	0efH
	DB	0f0H
	DB	0e5H
	DB	0e4H
	DB	0e5H
	DB	0ebH
	DB	0e5H
	DB	0edH
	DB	0edH
	DB	0e0H
	DB	0ffH
	DB	020H
	DB	0eeH
	DB	0f8H
	DB	0e8H
	DB	0e1H
	DB	0eaH
	DB	0e0H
	DB	00H
	ORG $+178
	DW	0ffffH
	DW	0ffffH
	DD	0fffffe37H
	DB	0cdH
	DB	0e5H
	DB	0eeH
	DB	0efH
	DB	0f0H
	DB	0e5H
	DB	0e4H
	DB	0e5H
	DB	0ebH
	DB	0e5H
	DB	0edH
	DB	0edH
	DB	0e0H
	DB	0ffH
	DB	020H
	DB	0eeH
	DB	0f8H
	DB	0e8H
	DB	0e1H
	DB	0eaH
	DB	0e0H
	DB	00H
	ORG $+178
	DW	0ffffH
	DW	0ffffH
	DD	0fffffe38H
	DB	0cdH
	DB	0e5H
	DB	0eeH
	DB	0efH
	DB	0f0H
	DB	0e5H
	DB	0e4H
	DB	0e5H
	DB	0ebH
	DB	0e5H
	DB	0edH
	DB	0edH
	DB	0e0H
	DB	0ffH
	DB	020H
	DB	0eeH
	DB	0f8H
	DB	0e8H
	DB	0e1H
	DB	0eaH
	DB	0e0H
	DB	00H
	ORG $+178
	DW	0ffffH
	DW	0ffffH
	DD	0fffffe39H
	DB	0cdH
	DB	0e5H
	DB	0eeH
	DB	0efH
	DB	0f0H
	DB	0e5H
	DB	0e4H
	DB	0e5H
	DB	0ebH
	DB	0e5H
	DB	0edH
	DB	0edH
	DB	0e0H
	DB	0ffH
	DB	020H
	DB	0eeH
	DB	0f8H
	DB	0e8H
	DB	0e1H
	DB	0eaH
	DB	0e0H
	DB	00H
	ORG $+178
	DW	0ffffH
	DW	0ffffH
	DD	0fffffe3aH
	DB	0cdH
	DB	0e5H
	DB	0eeH
	DB	0efH
	DB	0f0H
	DB	0e5H
	DB	0e4H
	DB	0e5H
	DB	0ebH
	DB	0e5H
	DB	0edH
	DB	0edH
	DB	0e0H
	DB	0ffH
	DB	020H
	DB	0eeH
	DB	0f8H
	DB	0e8H
	DB	0e1H
	DB	0eaH
	DB	0e0H
	DB	00H
	ORG $+178
	DW	0ffffH
	DW	0ffffH
	DD	0fffffe3bH
	DB	0cdH
	DB	0e5H
	DB	0eeH
	DB	0efH
	DB	0f0H
	DB	0e5H
	DB	0e4H
	DB	0e5H
	DB	0ebH
	DB	0e5H
	DB	0edH
	DB	0edH
	DB	0e0H
	DB	0ffH
	DB	020H
	DB	0eeH
	DB	0f8H
	DB	0e8H
	DB	0e1H
	DB	0eaH
	DB	0e0H
	DB	00H
	ORG $+178
	DW	0ffffH
	DW	0ffffH
	DD	0fffffe3cH
	DB	0cdH
	DB	0e5H
	DB	0eeH
	DB	0efH
	DB	0f0H
	DB	0e5H
	DB	0e4H
	DB	0e5H
	DB	0ebH
	DB	0e5H
	DB	0edH
	DB	0edH
	DB	0e0H
	DB	0ffH
	DB	020H
	DB	0eeH
	DB	0f8H
	DB	0e8H
	DB	0e1H
	DB	0eaH
	DB	0e0H
	DB	00H
	ORG $+178
	DW	0ffffH
	DW	0ffffH
	DD	0fffffe3dH
	DB	0cdH
	DB	0e5H
	DB	0eeH
	DB	0efH
	DB	0f0H
	DB	0e5H
	DB	0e4H
	DB	0e5H
	DB	0ebH
	DB	0e5H
	DB	0edH
	DB	0edH
	DB	0e0H
	DB	0ffH
	DB	020H
	DB	0eeH
	DB	0f8H
	DB	0e8H
	DB	0e1H
	DB	0eaH
	DB	0e0H
	DB	00H
	ORG $+178
	DW	0ffffH
	DW	0ffffH
	DD	0fffffe3eH
	DB	0cdH
	DB	0e5H
	DB	0eeH
	DB	0efH
	DB	0f0H
	DB	0e5H
	DB	0e4H
	DB	0e5H
	DB	0ebH
	DB	0e5H
	DB	0edH
	DB	0edH
	DB	0e0H
	DB	0ffH
	DB	020H
	DB	0eeH
	DB	0f8H
	DB	0e8H
	DB	0e1H
	DB	0eaH
	DB	0e0H
	DB	00H
	ORG $+178
	DW	0ffffH
	DW	0ffffH
	DD	0fffffe3fH
	DB	0cdH
	DB	0e5H
	DB	0eeH
	DB	0efH
	DB	0f0H
	DB	0e5H
	DB	0e4H
	DB	0e5H
	DB	0ebH
	DB	0e5H
	DB	0edH
	DB	0edH
	DB	0e0H
	DB	0ffH
	DB	020H
	DB	0eeH
	DB	0f8H
	DB	0e8H
	DB	0e1H
	DB	0eaH
	DB	0e0H
	DB	00H
	ORG $+178
	DW	0ffffH
	DW	0ffffH
	DD	0fffffe40H
	DB	0cdH
	DB	0e5H
	DB	0eeH
	DB	0efH
	DB	0f0H
	DB	0e5H
	DB	0e4H
	DB	0e5H
	DB	0ebH
	DB	0e5H
	DB	0edH
	DB	0edH
	DB	0e0H
	DB	0ffH
	DB	020H
	DB	0eeH
	DB	0f8H
	DB	0e8H
	DB	0e1H
	DB	0eaH
	DB	0e0H
	DB	00H
	ORG $+178
	DW	0ffffH
	DW	0ffffH
	DD	0fffffe41H
	DB	0cdH
	DB	0e5H
	DB	0eeH
	DB	0efH
	DB	0f0H
	DB	0e5H
	DB	0e4H
	DB	0e5H
	DB	0ebH
	DB	0e5H
	DB	0edH
	DB	0edH
	DB	0e0H
	DB	0ffH
	DB	020H
	DB	0eeH
	DB	0f8H
	DB	0e8H
	DB	0e1H
	DB	0eaH
	DB	0e0H
	DB	00H
	ORG $+178
	DW	0ffffH
	DW	0ffffH
	DD	0fffffe42H
	DB	0cdH
	DB	0e5H
	DB	0eeH
	DB	0efH
	DB	0f0H
	DB	0e5H
	DB	0e4H
	DB	0e5H
	DB	0ebH
	DB	0e5H
	DB	0edH
	DB	0edH
	DB	0e0H
	DB	0ffH
	DB	020H
	DB	0eeH
	DB	0f8H
	DB	0e8H
	DB	0e1H
	DB	0eaH
	DB	0e0H
	DB	00H
	ORG $+178
	DW	0ffffH
	DW	0ffffH
	DD	0fffffe43H
	DB	0cdH
	DB	0e5H
	DB	0eeH
	DB	0efH
	DB	0f0H
	DB	0e5H
	DB	0e4H
	DB	0e5H
	DB	0ebH
	DB	0e5H
	DB	0edH
	DB	0edH
	DB	0e0H
	DB	0ffH
	DB	020H
	DB	0eeH
	DB	0f8H
	DB	0e8H
	DB	0e1H
	DB	0eaH
	DB	0e0H
	DB	00H
	ORG $+178
	DW	0ffffH
	DW	0ffffH
	DD	0fffffe44H
	DB	0cdH
	DB	0e5H
	DB	0eeH
	DB	0efH
	DB	0f0H
	DB	0e5H
	DB	0e4H
	DB	0e5H
	DB	0ebH
	DB	0e5H
	DB	0edH
	DB	0edH
	DB	0e0H
	DB	0ffH
	DB	020H
	DB	0eeH
	DB	0f8H
	DB	0e8H
	DB	0e1H
	DB	0eaH
	DB	0e0H
	DB	00H
	ORG $+178
	DW	0ffffH
	DW	0ffffH
	DD	0fffffe45H
	DB	0cdH
	DB	0e5H
	DB	0eeH
	DB	0efH
	DB	0f0H
	DB	0e5H
	DB	0e4H
	DB	0e5H
	DB	0ebH
	DB	0e5H
	DB	0edH
	DB	0edH
	DB	0e0H
	DB	0ffH
	DB	020H
	DB	0eeH
	DB	0f8H
	DB	0e8H
	DB	0e1H
	DB	0eaH
	DB	0e0H
	DB	00H
	ORG $+178
	DW	0ffffH
	DW	0ffffH
	DD	0fffffe46H
	DB	0cdH
	DB	0e5H
	DB	0eeH
	DB	0efH
	DB	0f0H
	DB	0e5H
	DB	0e4H
	DB	0e5H
	DB	0ebH
	DB	0e5H
	DB	0edH
	DB	0edH
	DB	0e0H
	DB	0ffH
	DB	020H
	DB	0eeH
	DB	0f8H
	DB	0e8H
	DB	0e1H
	DB	0eaH
	DB	0e0H
	DB	00H
	ORG $+178
	DW	0ffffH
	DW	0ffffH
	DD	0fffffe47H
	DB	0cdH
	DB	0e5H
	DB	0eeH
	DB	0efH
	DB	0f0H
	DB	0e5H
	DB	0e4H
	DB	0e5H
	DB	0ebH
	DB	0e5H
	DB	0edH
	DB	0edH
	DB	0e0H
	DB	0ffH
	DB	020H
	DB	0eeH
	DB	0f8H
	DB	0e8H
	DB	0e1H
	DB	0eaH
	DB	0e0H
	DB	00H
	ORG $+178
	DW	0ffffH
	DW	0ffffH
	DD	0fffffe48H
	DB	0cdH
	DB	0e5H
	DB	0eeH
	DB	0efH
	DB	0f0H
	DB	0e5H
	DB	0e4H
	DB	0e5H
	DB	0ebH
	DB	0e5H
	DB	0edH
	DB	0edH
	DB	0e0H
	DB	0ffH
	DB	020H
	DB	0eeH
	DB	0f8H
	DB	0e8H
	DB	0e1H
	DB	0eaH
	DB	0e0H
	DB	00H
	ORG $+178
	DW	0ffffH
	DW	0ffffH
	DD	0fffffe49H
	DB	0cdH
	DB	0e5H
	DB	0eeH
	DB	0efH
	DB	0f0H
	DB	0e5H
	DB	0e4H
	DB	0e5H
	DB	0ebH
	DB	0e5H
	DB	0edH
	DB	0edH
	DB	0e0H
	DB	0ffH
	DB	020H
	DB	0eeH
	DB	0f8H
	DB	0e8H
	DB	0e1H
	DB	0eaH
	DB	0e0H
	DB	00H
	ORG $+178
	DW	0ffffH
	DW	0ffffH
	DD	0fffffe4aH
	DB	0cdH
	DB	0e5H
	DB	0eeH
	DB	0efH
	DB	0f0H
	DB	0e5H
	DB	0e4H
	DB	0e5H
	DB	0ebH
	DB	0e5H
	DB	0edH
	DB	0edH
	DB	0e0H
	DB	0ffH
	DB	020H
	DB	0eeH
	DB	0f8H
	DB	0e8H
	DB	0e1H
	DB	0eaH
	DB	0e0H
	DB	00H
	ORG $+178
	DW	0ffffH
	DW	0ffffH
	DD	0fffffe4bH
	DB	0cdH
	DB	0e5H
	DB	0eeH
	DB	0efH
	DB	0f0H
	DB	0e5H
	DB	0e4H
	DB	0e5H
	DB	0ebH
	DB	0e5H
	DB	0edH
	DB	0edH
	DB	0e0H
	DB	0ffH
	DB	020H
	DB	0eeH
	DB	0f8H
	DB	0e8H
	DB	0e1H
	DB	0eaH
	DB	0e0H
	DB	00H
	ORG $+178
	DW	0ffffH
	DW	0ffffH
	DD	0fffffe4cH
	DB	0cdH
	DB	0e5H
	DB	0eeH
	DB	0efH
	DB	0f0H
	DB	0e5H
	DB	0e4H
	DB	0e5H
	DB	0ebH
	DB	0e5H
	DB	0edH
	DB	0edH
	DB	0e0H
	DB	0ffH
	DB	020H
	DB	0eeH
	DB	0f8H
	DB	0e8H
	DB	0e1H
	DB	0eaH
	DB	0e0H
	DB	00H
	ORG $+178
	DW	0ffffH
	DW	0ffffH
	DD	0fffffe4dH
	DB	0cdH
	DB	0e5H
	DB	0eeH
	DB	0efH
	DB	0f0H
	DB	0e5H
	DB	0e4H
	DB	0e5H
	DB	0ebH
	DB	0e5H
	DB	0edH
	DB	0edH
	DB	0e0H
	DB	0ffH
	DB	020H
	DB	0eeH
	DB	0f8H
	DB	0e8H
	DB	0e1H
	DB	0eaH
	DB	0e0H
	DB	00H
	ORG $+178
	DW	0ffffH
	DW	0ffffH
	DD	0fffffe4eH
	DB	0cdH
	DB	0e5H
	DB	0eeH
	DB	0efH
	DB	0f0H
	DB	0e5H
	DB	0e4H
	DB	0e5H
	DB	0ebH
	DB	0e5H
	DB	0edH
	DB	0edH
	DB	0e0H
	DB	0ffH
	DB	020H
	DB	0eeH
	DB	0f8H
	DB	0e8H
	DB	0e1H
	DB	0eaH
	DB	0e0H
	DB	00H
	ORG $+178
	DW	0ffffH
	DW	0ffffH
	DD	0fffffe4fH
	DB	0cdH
	DB	0e5H
	DB	0eeH
	DB	0efH
	DB	0f0H
	DB	0e5H
	DB	0e4H
	DB	0e5H
	DB	0ebH
	DB	0e5H
	DB	0edH
	DB	0edH
	DB	0e0H
	DB	0ffH
	DB	020H
	DB	0eeH
	DB	0f8H
	DB	0e8H
	DB	0e1H
	DB	0eaH
	DB	0e0H
	DB	00H
	ORG $+178
	DW	0ffffH
	DW	0ffffH
	DD	0fffffe50H
	DB	0cdH
	DB	0e5H
	DB	0eeH
	DB	0efH
	DB	0f0H
	DB	0e5H
	DB	0e4H
	DB	0e5H
	DB	0ebH
	DB	0e5H
	DB	0edH
	DB	0edH
	DB	0e0H
	DB	0ffH
	DB	020H
	DB	0eeH
	DB	0f8H
	DB	0e8H
	DB	0e1H
	DB	0eaH
	DB	0e0H
	DB	00H
	ORG $+178
	DW	0ffffH
	DW	0ffffH
	DD	0fffffe51H
	DB	0cdH
	DB	0e5H
	DB	0eeH
	DB	0efH
	DB	0f0H
	DB	0e5H
	DB	0e4H
	DB	0e5H
	DB	0ebH
	DB	0e5H
	DB	0edH
	DB	0edH
	DB	0e0H
	DB	0ffH
	DB	020H
	DB	0eeH
	DB	0f8H
	DB	0e8H
	DB	0e1H
	DB	0eaH
	DB	0e0H
	DB	00H
	ORG $+178
	DW	0ffffH
	DW	0ffffH
	DD	0fffffe52H
	DB	0cdH
	DB	0e5H
	DB	0eeH
	DB	0efH
	DB	0f0H
	DB	0e5H
	DB	0e4H
	DB	0e5H
	DB	0ebH
	DB	0e5H
	DB	0edH
	DB	0edH
	DB	0e0H
	DB	0ffH
	DB	020H
	DB	0eeH
	DB	0f8H
	DB	0e8H
	DB	0e1H
	DB	0eaH
	DB	0e0H
	DB	00H
	ORG $+178
	DW	0ffffH
	DW	0ffffH
	DD	0fffffe53H
	DB	0cdH
	DB	0e5H
	DB	0eeH
	DB	0efH
	DB	0f0H
	DB	0e5H
	DB	0e4H
	DB	0e5H
	DB	0ebH
	DB	0e5H
	DB	0edH
	DB	0edH
	DB	0e0H
	DB	0ffH
	DB	020H
	DB	0eeH
	DB	0f8H
	DB	0e8H
	DB	0e1H
	DB	0eaH
	DB	0e0H
	DB	00H
	ORG $+178
	DW	0ffffH
	DW	0ffffH
	DD	0fffffe54H
	DB	0cdH
	DB	0e5H
	DB	0eeH
	DB	0efH
	DB	0f0H
	DB	0e5H
	DB	0e4H
	DB	0e5H
	DB	0ebH
	DB	0e5H
	DB	0edH
	DB	0edH
	DB	0e0H
	DB	0ffH
	DB	020H
	DB	0eeH
	DB	0f8H
	DB	0e8H
	DB	0e1H
	DB	0eaH
	DB	0e0H
	DB	00H
	ORG $+178
	DW	0ffffH
	DW	0ffffH
	DD	0fffffe55H
	DB	0cdH
	DB	0e5H
	DB	0eeH
	DB	0efH
	DB	0f0H
	DB	0e5H
	DB	0e4H
	DB	0e5H
	DB	0ebH
	DB	0e5H
	DB	0edH
	DB	0edH
	DB	0e0H
	DB	0ffH
	DB	020H
	DB	0eeH
	DB	0f8H
	DB	0e8H
	DB	0e1H
	DB	0eaH
	DB	0e0H
	DB	00H
	ORG $+178
	DW	0ffffH
	DW	0ffffH
	DD	0fffffe56H
	DB	0cdH
	DB	0e5H
	DB	0eeH
	DB	0efH
	DB	0f0H
	DB	0e5H
	DB	0e4H
	DB	0e5H
	DB	0ebH
	DB	0e5H
	DB	0edH
	DB	0edH
	DB	0e0H
	DB	0ffH
	DB	020H
	DB	0eeH
	DB	0f8H
	DB	0e8H
	DB	0e1H
	DB	0eaH
	DB	0e0H
	DB	00H
	ORG $+178
	DW	0ffffH
	DW	0ffffH
	DD	0fffffe57H
	DB	0cdH
	DB	0e5H
	DB	0eeH
	DB	0efH
	DB	0f0H
	DB	0e5H
	DB	0e4H
	DB	0e5H
	DB	0ebH
	DB	0e5H
	DB	0edH
	DB	0edH
	DB	0e0H
	DB	0ffH
	DB	020H
	DB	0eeH
	DB	0f8H
	DB	0e8H
	DB	0e1H
	DB	0eaH
	DB	0e0H
	DB	00H
	ORG $+178
	DW	0ffffH
	DW	0ffffH
	DD	0fffffe58H
	DB	0cdH
	DB	0e5H
	DB	0eeH
	DB	0efH
	DB	0f0H
	DB	0e5H
	DB	0e4H
	DB	0e5H
	DB	0ebH
	DB	0e5H
	DB	0edH
	DB	0edH
	DB	0e0H
	DB	0ffH
	DB	020H
	DB	0eeH
	DB	0f8H
	DB	0e8H
	DB	0e1H
	DB	0eaH
	DB	0e0H
	DB	00H
	ORG $+178
	DW	0ffffH
	DW	0ffffH
	DD	0fffffe59H
	DB	0cdH
	DB	0e5H
	DB	0eeH
	DB	0efH
	DB	0f0H
	DB	0e5H
	DB	0e4H
	DB	0e5H
	DB	0ebH
	DB	0e5H
	DB	0edH
	DB	0edH
	DB	0e0H
	DB	0ffH
	DB	020H
	DB	0eeH
	DB	0f8H
	DB	0e8H
	DB	0e1H
	DB	0eaH
	DB	0e0H
	DB	00H
	ORG $+178
	DW	0ffffH
	DW	0ffffH
	DD	0fffffe5aH
	DB	0cdH
	DB	0e5H
	DB	0eeH
	DB	0efH
	DB	0f0H
	DB	0e5H
	DB	0e4H
	DB	0e5H
	DB	0ebH
	DB	0e5H
	DB	0edH
	DB	0edH
	DB	0e0H
	DB	0ffH
	DB	020H
	DB	0eeH
	DB	0f8H
	DB	0e8H
	DB	0e1H
	DB	0eaH
	DB	0e0H
	DB	00H
	ORG $+178
	DW	0ffffH
	DW	0ffffH
	DD	0fffffe5bH
	DB	0cdH
	DB	0e5H
	DB	0eeH
	DB	0efH
	DB	0f0H
	DB	0e5H
	DB	0e4H
	DB	0e5H
	DB	0ebH
	DB	0e5H
	DB	0edH
	DB	0edH
	DB	0e0H
	DB	0ffH
	DB	020H
	DB	0eeH
	DB	0f8H
	DB	0e8H
	DB	0e1H
	DB	0eaH
	DB	0e0H
	DB	00H
	ORG $+178
	DW	0ffffH
	DW	0ffffH
	DD	0fffffe5cH
	DB	0cdH
	DB	0e5H
	DB	0eeH
	DB	0efH
	DB	0f0H
	DB	0e5H
	DB	0e4H
	DB	0e5H
	DB	0ebH
	DB	0e5H
	DB	0edH
	DB	0edH
	DB	0e0H
	DB	0ffH
	DB	020H
	DB	0eeH
	DB	0f8H
	DB	0e8H
	DB	0e1H
	DB	0eaH
	DB	0e0H
	DB	00H
	ORG $+178
	DW	0ffffH
	DW	0ffffH
	DD	0fffffe5dH
	DB	0cdH
	DB	0e5H
	DB	0eeH
	DB	0efH
	DB	0f0H
	DB	0e5H
	DB	0e4H
	DB	0e5H
	DB	0ebH
	DB	0e5H
	DB	0edH
	DB	0edH
	DB	0e0H
	DB	0ffH
	DB	020H
	DB	0eeH
	DB	0f8H
	DB	0e8H
	DB	0e1H
	DB	0eaH
	DB	0e0H
	DB	00H
	ORG $+178
	DW	0ffffH
	DW	0ffffH
	DD	0fffffe5eH
	DB	0cdH
	DB	0e5H
	DB	0eeH
	DB	0efH
	DB	0f0H
	DB	0e5H
	DB	0e4H
	DB	0e5H
	DB	0ebH
	DB	0e5H
	DB	0edH
	DB	0edH
	DB	0e0H
	DB	0ffH
	DB	020H
	DB	0eeH
	DB	0f8H
	DB	0e8H
	DB	0e1H
	DB	0eaH
	DB	0e0H
	DB	00H
	ORG $+178
	DW	0ffffH
	DW	0ffffH
	DD	0fffffe5fH
	DB	0cdH
	DB	0e5H
	DB	0eeH
	DB	0efH
	DB	0f0H
	DB	0e5H
	DB	0e4H
	DB	0e5H
	DB	0ebH
	DB	0e5H
	DB	0edH
	DB	0edH
	DB	0e0H
	DB	0ffH
	DB	020H
	DB	0eeH
	DB	0f8H
	DB	0e8H
	DB	0e1H
	DB	0eaH
	DB	0e0H
	DB	00H
	ORG $+178
	DW	0ffffH
	DW	0ffffH
	DD	0fffffe60H
	DB	0cdH
	DB	0e5H
	DB	0eeH
	DB	0efH
	DB	0f0H
	DB	0e5H
	DB	0e4H
	DB	0e5H
	DB	0ebH
	DB	0e5H
	DB	0edH
	DB	0edH
	DB	0e0H
	DB	0ffH
	DB	020H
	DB	0eeH
	DB	0f8H
	DB	0e8H
	DB	0e1H
	DB	0eaH
	DB	0e0H
	DB	00H
	ORG $+178
	DW	0ffffH
	DW	0ffffH
	DD	0fffffe61H
	DB	0cdH
	DB	0e5H
	DB	0eeH
	DB	0efH
	DB	0f0H
	DB	0e5H
	DB	0e4H
	DB	0e5H
	DB	0ebH
	DB	0e5H
	DB	0edH
	DB	0edH
	DB	0e0H
	DB	0ffH
	DB	020H
	DB	0eeH
	DB	0f8H
	DB	0e8H
	DB	0e1H
	DB	0eaH
	DB	0e0H
	DB	00H
	ORG $+178
	DW	0ffffH
	DW	0ffffH
	DD	0fffffe62H
	DB	0cdH
	DB	0e5H
	DB	0eeH
	DB	0efH
	DB	0f0H
	DB	0e5H
	DB	0e4H
	DB	0e5H
	DB	0ebH
	DB	0e5H
	DB	0edH
	DB	0edH
	DB	0e0H
	DB	0ffH
	DB	020H
	DB	0eeH
	DB	0f8H
	DB	0e8H
	DB	0e1H
	DB	0eaH
	DB	0e0H
	DB	00H
	ORG $+178
	DW	0ffffH
	DW	0ffffH
	DD	0fffffe63H
	DB	0cdH
	DB	0e5H
	DB	0eeH
	DB	0efH
	DB	0f0H
	DB	0e5H
	DB	0e4H
	DB	0e5H
	DB	0ebH
	DB	0e5H
	DB	0edH
	DB	0edH
	DB	0e0H
	DB	0ffH
	DB	020H
	DB	0eeH
	DB	0f8H
	DB	0e8H
	DB	0e1H
	DB	0eaH
	DB	0e0H
	DB	00H
	ORG $+178
	DW	0ffffH
	DW	0ffffH
	DD	0fffffe64H
	DB	0cdH
	DB	0e5H
	DB	0eeH
	DB	0efH
	DB	0f0H
	DB	0e5H
	DB	0e4H
	DB	0e5H
	DB	0ebH
	DB	0e5H
	DB	0edH
	DB	0edH
	DB	0e0H
	DB	0ffH
	DB	020H
	DB	0eeH
	DB	0f8H
	DB	0e8H
	DB	0e1H
	DB	0eaH
	DB	0e0H
	DB	00H
	ORG $+178
	DW	0ffffH
	DW	0ffffH
	DD	0fffffe65H
	DB	0cdH
	DB	0e5H
	DB	0eeH
	DB	0efH
	DB	0f0H
	DB	0e5H
	DB	0e4H
	DB	0e5H
	DB	0ebH
	DB	0e5H
	DB	0edH
	DB	0edH
	DB	0e0H
	DB	0ffH
	DB	020H
	DB	0eeH
	DB	0f8H
	DB	0e8H
	DB	0e1H
	DB	0eaH
	DB	0e0H
	DB	00H
	ORG $+178
	DW	0ffffH
	DW	0ffffH
	DD	0fffffe66H
	DB	0cdH
	DB	0e5H
	DB	0eeH
	DB	0efH
	DB	0f0H
	DB	0e5H
	DB	0e4H
	DB	0e5H
	DB	0ebH
	DB	0e5H
	DB	0edH
	DB	0edH
	DB	0e0H
	DB	0ffH
	DB	020H
	DB	0eeH
	DB	0f8H
	DB	0e8H
	DB	0e1H
	DB	0eaH
	DB	0e0H
	DB	00H
	ORG $+178
	DW	0ffffH
	DW	0ffffH
	DD	0fffffe67H
	DB	0cdH
	DB	0e5H
	DB	0eeH
	DB	0efH
	DB	0f0H
	DB	0e5H
	DB	0e4H
	DB	0e5H
	DB	0ebH
	DB	0e5H
	DB	0edH
	DB	0edH
	DB	0e0H
	DB	0ffH
	DB	020H
	DB	0eeH
	DB	0f8H
	DB	0e8H
	DB	0e1H
	DB	0eaH
	DB	0e0H
	DB	00H
	ORG $+178
	DW	0ffffH
	DW	0ffffH
	DD	0fffffe68H
	DB	0cdH
	DB	0e5H
	DB	0eeH
	DB	0efH
	DB	0f0H
	DB	0e5H
	DB	0e4H
	DB	0e5H
	DB	0ebH
	DB	0e5H
	DB	0edH
	DB	0edH
	DB	0e0H
	DB	0ffH
	DB	020H
	DB	0eeH
	DB	0f8H
	DB	0e8H
	DB	0e1H
	DB	0eaH
	DB	0e0H
	DB	00H
	ORG $+178
	DW	0ffffH
	DW	0ffffH
	DD	0fffffe69H
	DB	0cdH
	DB	0e5H
	DB	0eeH
	DB	0efH
	DB	0f0H
	DB	0e5H
	DB	0e4H
	DB	0e5H
	DB	0ebH
	DB	0e5H
	DB	0edH
	DB	0edH
	DB	0e0H
	DB	0ffH
	DB	020H
	DB	0eeH
	DB	0f8H
	DB	0e8H
	DB	0e1H
	DB	0eaH
	DB	0e0H
	DB	00H
	ORG $+178
	DW	0ffffH
	DW	0ffffH
	DD	0fffffe6aH
	DB	0cdH
	DB	0e5H
	DB	0eeH
	DB	0efH
	DB	0f0H
	DB	0e5H
	DB	0e4H
	DB	0e5H
	DB	0ebH
	DB	0e5H
	DB	0edH
	DB	0edH
	DB	0e0H
	DB	0ffH
	DB	020H
	DB	0eeH
	DB	0f8H
	DB	0e8H
	DB	0e1H
	DB	0eaH
	DB	0e0H
	DB	00H
	ORG $+178
	DW	0ffffH
	DW	0ffffH
	DD	0fffffe6bH
	DB	0cdH
	DB	0e5H
	DB	0eeH
	DB	0efH
	DB	0f0H
	DB	0e5H
	DB	0e4H
	DB	0e5H
	DB	0ebH
	DB	0e5H
	DB	0edH
	DB	0edH
	DB	0e0H
	DB	0ffH
	DB	020H
	DB	0eeH
	DB	0f8H
	DB	0e8H
	DB	0e1H
	DB	0eaH
	DB	0e0H
	DB	00H
	ORG $+178
	DW	0ffffH
	DW	0ffffH
	DD	0fffffe6cH
	DB	0cdH
	DB	0e5H
	DB	0eeH
	DB	0efH
	DB	0f0H
	DB	0e5H
	DB	0e4H
	DB	0e5H
	DB	0ebH
	DB	0e5H
	DB	0edH
	DB	0edH
	DB	0e0H
	DB	0ffH
	DB	020H
	DB	0eeH
	DB	0f8H
	DB	0e8H
	DB	0e1H
	DB	0eaH
	DB	0e0H
	DB	00H
	ORG $+178
	DW	0ffffH
	DW	0ffffH
	DD	0fffffe6dH
	DB	0cdH
	DB	0e5H
	DB	0eeH
	DB	0efH
	DB	0f0H
	DB	0e5H
	DB	0e4H
	DB	0e5H
	DB	0ebH
	DB	0e5H
	DB	0edH
	DB	0edH
	DB	0e0H
	DB	0ffH
	DB	020H
	DB	0eeH
	DB	0f8H
	DB	0e8H
	DB	0e1H
	DB	0eaH
	DB	0e0H
	DB	00H
	ORG $+178
	DW	0ffffH
	DW	0ffffH
	DD	0fffffe6eH
	DB	0cdH
	DB	0e5H
	DB	0eeH
	DB	0efH
	DB	0f0H
	DB	0e5H
	DB	0e4H
	DB	0e5H
	DB	0ebH
	DB	0e5H
	DB	0edH
	DB	0edH
	DB	0e0H
	DB	0ffH
	DB	020H
	DB	0eeH
	DB	0f8H
	DB	0e8H
	DB	0e1H
	DB	0eaH
	DB	0e0H
	DB	00H
	ORG $+178
	DW	0ffffH
	DW	0ffffH
	DD	0fffffe6fH
	DB	0cdH
	DB	0e5H
	DB	0eeH
	DB	0efH
	DB	0f0H
	DB	0e5H
	DB	0e4H
	DB	0e5H
	DB	0ebH
	DB	0e5H
	DB	0edH
	DB	0edH
	DB	0e0H
	DB	0ffH
	DB	020H
	DB	0eeH
	DB	0f8H
	DB	0e8H
	DB	0e1H
	DB	0eaH
	DB	0e0H
	DB	00H
	ORG $+178
	DW	0ffffH
	DW	0ffffH
	DD	0258H
	DB	0cdH
	DB	0e5H
	DB	0e2H
	DB	0e5H
	DB	0f0H
	DB	0edH
	DB	0e0H
	DB	0ffH
	DB	020H
	DB	0f1H
	DB	0f2H
	DB	0f0H
	DB	0f3H
	DB	0eaH
	DB	0f2H
	DB	0f3H
	DB	0f0H
	DB	0e0H
	DB	020H
	DB	0efH
	DB	0f0H
	DB	0eeH
	DB	0e3H
	DB	0f0H
	DB	0e0H
	DB	0ecH
	DB	0ecH
	DB	0fbH
	DB	00H
	ORG $+171
	DW	0ffffH
	DW	0ffffH
	DD	0259H
	DB	0ceH
	DB	0f8H
	DB	0e8H
	DB	0e1H
	DB	0eeH
	DB	0f7H
	DB	0edH
	DB	0fbH
	DB	0e9H
	DB	020H
	DB	0eeH
	DB	0efH
	DB	0e5H
	DB	0f0H
	DB	0e0H
	DB	0f2H
	DB	0eeH
	DB	0f0H
	DB	00H
	ORG $+181
	DW	0ffffH
	DW	0ffffH
	DD	025aH
	DB	0ceH
	DB	0f8H
	DB	0e8H
	DB	0e1H
	DB	0eaH
	DB	0e0H
	DB	020H
	DB	0e2H
	DB	020H
	DB	0e2H
	DB	0fbH
	DB	0f0H
	DB	0e0H
	DB	0e6H
	DB	0e5H
	DB	0edH
	DB	0e8H
	DB	0e8H
	DB	00H
	ORG $+181
	DW	0ffffH
	DW	0ffffH
	DD	025bH
	DB	0ceH
	DB	0f8H
	DB	0e8H
	DB	0e1H
	DB	0eaH
	DB	0e0H
	DB	020H
	DB	0e2H
	DB	020H
	DB	0efH
	DB	0e0H
	DB	0f0H
	DB	0e0H
	DB	0ecH
	DB	0e5H
	DB	0f2H
	DB	0f0H
	DB	0e0H
	DB	0f5H
	DB	020H
	DB	0f4H
	DB	0f3H
	DB	0edH
	DB	0eaH
	DB	0f6H
	DB	0e8H
	DB	0e8H
	DB	00H
	ORG $+172
	DW	0ffffH
	DW	0ffffH
	DD	025cH
	DB	0ceH
	DB	0f8H
	DB	0e8H
	DB	0e1H
	DB	0eaH
	DB	0e0H
	DB	020H
	DB	0efH
	DB	0e0H
	DB	0f0H
	DB	0e0H
	DB	0ecH
	DB	0e5H
	DB	0f2H
	DB	0f0H
	DB	0e0H
	DB	0f5H
	DB	020H
	DB	0f4H
	DB	0f3H
	DB	0edH
	DB	0eaH
	DB	0f6H
	DB	0e8H
	DB	0e8H
	DB	00H
	ORG $+174
	DW	0ffffH
	DW	0ffffH
	DD	025dH
	DB	0ceH
	DB	0f8H
	DB	0e8H
	DB	0e1H
	DB	0eaH
	DB	0e0H
	DB	020H
	DB	0e2H
	DB	020H
	DB	0efH
	DB	0e0H
	DB	0f0H
	DB	0e0H
	DB	0ecH
	DB	0e5H
	DB	0f2H
	DB	0f0H
	DB	0e0H
	DB	0f5H
	DB	020H
	DB	0e2H
	DB	0fbH
	DB	0e7H
	DB	0fbH
	DB	0e2H
	DB	0e0H
	DB	0e5H
	DB	0ecH
	DB	0eeH
	DB	0e9H
	DB	020H
	DB	0f4H
	DB	0f3H
	DB	0edH
	DB	0eaH
	DB	0f6H
	DB	0e8H
	DB	0e8H
	DB	00H
	ORG $+161
	DW	0ffffH
	DW	0ffffH
	DD	025eH
	DB	0ceH
	DB	0f8H
	DB	0e8H
	DB	0e1H
	DB	0eaH
	DB	0e0H
	DB	02cH
	DB	020H
	DB	0ecH
	DB	0e0H
	DB	0f1H
	DB	0f1H
	DB	0e8H
	DB	0e2H
	DB	020H
	DB	0ecH
	DB	0eeH
	DB	0e6H
	DB	0e5H
	DB	0f2H
	DB	020H
	DB	0f1H
	DB	0eeH
	DB	0e4H
	DB	0e5H
	DB	0f0H
	DB	0e6H
	DB	0e0H
	DB	0f2H
	DB	0fcH
	DB	020H
	DB	0f2H
	DB	0eeH
	DB	0ebH
	DB	0fcH
	DB	0eaH
	DB	0eeH
	DB	020H
	DB	0ebH
	DB	0e8H
	DB	0f2H
	DB	0e5H
	DB	0f0H
	DB	0e0H
	DB	0ebH
	DB	0fbH
	DB	00H
	ORG $+153
	DW	0ffffH
	DW	0ffffH
	DD	025fH
	DB	0ceH
	DB	0f8H
	DB	0e8H
	DB	0e1H
	DB	0eaH
	DB	0e0H
	DB	02cH
	DB	020H
	DB	0f0H
	DB	0e0H
	DB	0e7H
	DB	0ecH
	DB	0e5H
	DB	0f0H
	DB	020H
	DB	0ecH
	DB	0e0H
	DB	0f1H
	DB	0f1H
	DB	0e8H
	DB	0e2H
	DB	020H
	DB	0e4H
	DB	0eeH
	DB	0e6H
	DB	0e5H
	DB	0edH
	DB	020H
	DB	0f3H
	DB	0eaH
	DB	0e0H
	DB	0e7H
	DB	0fbH
	DB	0e2H
	DB	0e0H
	DB	0f2H
	DB	0fcH
	DB	0f1H
	DB	0ffH
	DB	020H
	DB	0f2H
	DB	0eeH
	DB	0ebH
	DB	0fcH
	DB	0eaH
	DB	0eeH
	DB	020H
	DB	0ebH
	DB	0e8H
	DB	0f2H
	DB	0e5H
	DB	0f0H
	DB	0e0H
	DB	0ebH
	DB	0eeH
	DB	0ecH
	DB	020H
	DB	0e8H
	DB	0ebH
	DB	0e8H
	DB	020H
	DB	0eaH
	DB	0eeH
	DB	0edH
	DB	0f1H
	DB	0f2H
	DB	0e0H
	DB	0edH
	DB	0f2H
	DB	0eeH
	DB	0e9H
	DB	00H
	ORG $+128
	DW	0ffffH
	DW	0ffffH
	DD	0260H
	DB	0ceH
	DB	0f8H
	DB	0e8H
	DB	0e1H
	DB	0eaH
	DB	0e0H
	DB	020H
	DB	0e2H
	DB	020H
	DB	0e1H
	DB	0ebH
	DB	0eeH
	DB	0eaH
	DB	0e5H
	DB	020H
	DB	065H
	DB	06cH
	DB	073H
	DB	065H
	DB	00H
	ORG $+180
	DW	0ffffH
	DW	0ffffH
	DD	0fffffd44H
	DB	0cdH
	DB	0e5H
	DB	0eeH
	DB	0efH
	DB	0f0H
	DB	0e5H
	DB	0e4H
	DB	0e5H
	DB	0ebH
	DB	0e5H
	DB	0edH
	DB	0edH
	DB	0e0H
	DB	0ffH
	DB	020H
	DB	0eeH
	DB	0f8H
	DB	0e8H
	DB	0e1H
	DB	0eaH
	DB	0e0H
	DB	00H
	ORG $+178
	DW	0ffffH
	DW	0ffffH
	DD	0fffffd45H
	DB	0cdH
	DB	0e5H
	DB	0eeH
	DB	0efH
	DB	0f0H
	DB	0e5H
	DB	0e4H
	DB	0e5H
	DB	0ebH
	DB	0e5H
	DB	0edH
	DB	0edH
	DB	0e0H
	DB	0ffH
	DB	020H
	DB	0eeH
	DB	0f8H
	DB	0e8H
	DB	0e1H
	DB	0eaH
	DB	0e0H
	DB	00H
	ORG $+178
	DW	0ffffH
	DW	0ffffH
	DD	0fffffd46H
	DB	0cdH
	DB	0e5H
	DB	0eeH
	DB	0efH
	DB	0f0H
	DB	0e5H
	DB	0e4H
	DB	0e5H
	DB	0ebH
	DB	0e5H
	DB	0edH
	DB	0edH
	DB	0e0H
	DB	0ffH
	DB	020H
	DB	0eeH
	DB	0f8H
	DB	0e8H
	DB	0e1H
	DB	0eaH
	DB	0e0H
	DB	00H
	ORG $+178
	DW	0ffffH
	DW	0ffffH
	DD	0fffffd47H
	DB	0cdH
	DB	0e5H
	DB	0eeH
	DB	0efH
	DB	0f0H
	DB	0e5H
	DB	0e4H
	DB	0e5H
	DB	0ebH
	DB	0e5H
	DB	0edH
	DB	0edH
	DB	0e0H
	DB	0ffH
	DB	020H
	DB	0eeH
	DB	0f8H
	DB	0e8H
	DB	0e1H
	DB	0eaH
	DB	0e0H
	DB	00H
	ORG $+178
	DW	0ffffH
	DW	0ffffH
	DD	0fffffd48H
	DB	0cdH
	DB	0e5H
	DB	0eeH
	DB	0efH
	DB	0f0H
	DB	0e5H
	DB	0e4H
	DB	0e5H
	DB	0ebH
	DB	0e5H
	DB	0edH
	DB	0edH
	DB	0e0H
	DB	0ffH
	DB	020H
	DB	0eeH
	DB	0f8H
	DB	0e8H
	DB	0e1H
	DB	0eaH
	DB	0e0H
	DB	00H
	ORG $+178
	DW	0ffffH
	DW	0ffffH
	DD	0fffffd49H
	DB	0cdH
	DB	0e5H
	DB	0eeH
	DB	0efH
	DB	0f0H
	DB	0e5H
	DB	0e4H
	DB	0e5H
	DB	0ebH
	DB	0e5H
	DB	0edH
	DB	0edH
	DB	0e0H
	DB	0ffH
	DB	020H
	DB	0eeH
	DB	0f8H
	DB	0e8H
	DB	0e1H
	DB	0eaH
	DB	0e0H
	DB	00H
	ORG $+178
	DW	0ffffH
	DW	0ffffH
	DD	0fffffd4aH
	DB	0cdH
	DB	0e5H
	DB	0eeH
	DB	0efH
	DB	0f0H
	DB	0e5H
	DB	0e4H
	DB	0e5H
	DB	0ebH
	DB	0e5H
	DB	0edH
	DB	0edH
	DB	0e0H
	DB	0ffH
	DB	020H
	DB	0eeH
	DB	0f8H
	DB	0e8H
	DB	0e1H
	DB	0eaH
	DB	0e0H
	DB	00H
	ORG $+178
	DW	0ffffH
	DW	0ffffH
	DD	0fffffd4bH
	DB	0cdH
	DB	0e5H
	DB	0eeH
	DB	0efH
	DB	0f0H
	DB	0e5H
	DB	0e4H
	DB	0e5H
	DB	0ebH
	DB	0e5H
	DB	0edH
	DB	0edH
	DB	0e0H
	DB	0ffH
	DB	020H
	DB	0eeH
	DB	0f8H
	DB	0e8H
	DB	0e1H
	DB	0eaH
	DB	0e0H
	DB	00H
	ORG $+178
	DW	0ffffH
	DW	0ffffH
	DD	0fffffd4cH
	DB	0cdH
	DB	0e5H
	DB	0eeH
	DB	0efH
	DB	0f0H
	DB	0e5H
	DB	0e4H
	DB	0e5H
	DB	0ebH
	DB	0e5H
	DB	0edH
	DB	0edH
	DB	0e0H
	DB	0ffH
	DB	020H
	DB	0eeH
	DB	0f8H
	DB	0e8H
	DB	0e1H
	DB	0eaH
	DB	0e0H
	DB	00H
	ORG $+178
	DW	0ffffH
	DW	0ffffH
	DD	0fffffd4dH
	DB	0cdH
	DB	0e5H
	DB	0eeH
	DB	0efH
	DB	0f0H
	DB	0e5H
	DB	0e4H
	DB	0e5H
	DB	0ebH
	DB	0e5H
	DB	0edH
	DB	0edH
	DB	0e0H
	DB	0ffH
	DB	020H
	DB	0eeH
	DB	0f8H
	DB	0e8H
	DB	0e1H
	DB	0eaH
	DB	0e0H
	DB	00H
	ORG $+178
	DW	0ffffH
	DW	0ffffH
	DD	0fffffd4eH
	DB	0cdH
	DB	0e5H
	DB	0eeH
	DB	0efH
	DB	0f0H
	DB	0e5H
	DB	0e4H
	DB	0e5H
	DB	0ebH
	DB	0e5H
	DB	0edH
	DB	0edH
	DB	0e0H
	DB	0ffH
	DB	020H
	DB	0eeH
	DB	0f8H
	DB	0e8H
	DB	0e1H
	DB	0eaH
	DB	0e0H
	DB	00H
	ORG $+178
	DW	0ffffH
	DW	0ffffH
	DD	0fffffd4fH
	DB	0cdH
	DB	0e5H
	DB	0eeH
	DB	0efH
	DB	0f0H
	DB	0e5H
	DB	0e4H
	DB	0e5H
	DB	0ebH
	DB	0e5H
	DB	0edH
	DB	0edH
	DB	0e0H
	DB	0ffH
	DB	020H
	DB	0eeH
	DB	0f8H
	DB	0e8H
	DB	0e1H
	DB	0eaH
	DB	0e0H
	DB	00H
	ORG $+178
	DW	0ffffH
	DW	0ffffH
	DD	0fffffd50H
	DB	0cdH
	DB	0e5H
	DB	0eeH
	DB	0efH
	DB	0f0H
	DB	0e5H
	DB	0e4H
	DB	0e5H
	DB	0ebH
	DB	0e5H
	DB	0edH
	DB	0edH
	DB	0e0H
	DB	0ffH
	DB	020H
	DB	0eeH
	DB	0f8H
	DB	0e8H
	DB	0e1H
	DB	0eaH
	DB	0e0H
	DB	00H
	ORG $+178
	DW	0ffffH
	DW	0ffffH
	DD	0fffffd51H
	DB	0cdH
	DB	0e5H
	DB	0eeH
	DB	0efH
	DB	0f0H
	DB	0e5H
	DB	0e4H
	DB	0e5H
	DB	0ebH
	DB	0e5H
	DB	0edH
	DB	0edH
	DB	0e0H
	DB	0ffH
	DB	020H
	DB	0eeH
	DB	0f8H
	DB	0e8H
	DB	0e1H
	DB	0eaH
	DB	0e0H
	DB	00H
	ORG $+178
	DW	0ffffH
	DW	0ffffH
	DD	0fffffd52H
	DB	0cdH
	DB	0e5H
	DB	0eeH
	DB	0efH
	DB	0f0H
	DB	0e5H
	DB	0e4H
	DB	0e5H
	DB	0ebH
	DB	0e5H
	DB	0edH
	DB	0edH
	DB	0e0H
	DB	0ffH
	DB	020H
	DB	0eeH
	DB	0f8H
	DB	0e8H
	DB	0e1H
	DB	0eaH
	DB	0e0H
	DB	00H
	ORG $+178
	DW	0ffffH
	DW	0ffffH
	DD	0fffffd53H
	DB	0cdH
	DB	0e5H
	DB	0eeH
	DB	0efH
	DB	0f0H
	DB	0e5H
	DB	0e4H
	DB	0e5H
	DB	0ebH
	DB	0e5H
	DB	0edH
	DB	0edH
	DB	0e0H
	DB	0ffH
	DB	020H
	DB	0eeH
	DB	0f8H
	DB	0e8H
	DB	0e1H
	DB	0eaH
	DB	0e0H
	DB	00H
	ORG $+178
	DW	0ffffH
	DW	0ffffH
	DD	0fffffd54H
	DB	0cdH
	DB	0e5H
	DB	0eeH
	DB	0efH
	DB	0f0H
	DB	0e5H
	DB	0e4H
	DB	0e5H
	DB	0ebH
	DB	0e5H
	DB	0edH
	DB	0edH
	DB	0e0H
	DB	0ffH
	DB	020H
	DB	0eeH
	DB	0f8H
	DB	0e8H
	DB	0e1H
	DB	0eaH
	DB	0e0H
	DB	00H
	ORG $+178
	DW	0ffffH
	DW	0ffffH
	DD	0fffffd55H
	DB	0cdH
	DB	0e5H
	DB	0eeH
	DB	0efH
	DB	0f0H
	DB	0e5H
	DB	0e4H
	DB	0e5H
	DB	0ebH
	DB	0e5H
	DB	0edH
	DB	0edH
	DB	0e0H
	DB	0ffH
	DB	020H
	DB	0eeH
	DB	0f8H
	DB	0e8H
	DB	0e1H
	DB	0eaH
	DB	0e0H
	DB	00H
	ORG $+178
	DW	0ffffH
	DW	0ffffH
	DD	0fffffd56H
	DB	0cdH
	DB	0e5H
	DB	0eeH
	DB	0efH
	DB	0f0H
	DB	0e5H
	DB	0e4H
	DB	0e5H
	DB	0ebH
	DB	0e5H
	DB	0edH
	DB	0edH
	DB	0e0H
	DB	0ffH
	DB	020H
	DB	0eeH
	DB	0f8H
	DB	0e8H
	DB	0e1H
	DB	0eaH
	DB	0e0H
	DB	00H
	ORG $+178
	DW	0ffffH
	DW	0ffffH
	DD	0fffffd57H
	DB	0cdH
	DB	0e5H
	DB	0eeH
	DB	0efH
	DB	0f0H
	DB	0e5H
	DB	0e4H
	DB	0e5H
	DB	0ebH
	DB	0e5H
	DB	0edH
	DB	0edH
	DB	0e0H
	DB	0ffH
	DB	020H
	DB	0eeH
	DB	0f8H
	DB	0e8H
	DB	0e1H
	DB	0eaH
	DB	0e0H
	DB	00H
	ORG $+178
	DW	0ffffH
	DW	0ffffH
	DD	0fffffd58H
	DB	0cdH
	DB	0e5H
	DB	0eeH
	DB	0efH
	DB	0f0H
	DB	0e5H
	DB	0e4H
	DB	0e5H
	DB	0ebH
	DB	0e5H
	DB	0edH
	DB	0edH
	DB	0e0H
	DB	0ffH
	DB	020H
	DB	0eeH
	DB	0f8H
	DB	0e8H
	DB	0e1H
	DB	0eaH
	DB	0e0H
	DB	00H
	ORG $+178
	DW	0ffffH
	DW	0ffffH
	DD	0fffffd59H
	DB	0cdH
	DB	0e5H
	DB	0eeH
	DB	0efH
	DB	0f0H
	DB	0e5H
	DB	0e4H
	DB	0e5H
	DB	0ebH
	DB	0e5H
	DB	0edH
	DB	0edH
	DB	0e0H
	DB	0ffH
	DB	020H
	DB	0eeH
	DB	0f8H
	DB	0e8H
	DB	0e1H
	DB	0eaH
	DB	0e0H
	DB	00H
	ORG $+178
	DW	0ffffH
	DW	0ffffH
	DD	0fffffd5aH
	DB	0cdH
	DB	0e5H
	DB	0eeH
	DB	0efH
	DB	0f0H
	DB	0e5H
	DB	0e4H
	DB	0e5H
	DB	0ebH
	DB	0e5H
	DB	0edH
	DB	0edH
	DB	0e0H
	DB	0ffH
	DB	020H
	DB	0eeH
	DB	0f8H
	DB	0e8H
	DB	0e1H
	DB	0eaH
	DB	0e0H
	DB	00H
	ORG $+178
	DW	0ffffH
	DW	0ffffH
	DD	0fffffd5bH
	DB	0cdH
	DB	0e5H
	DB	0eeH
	DB	0efH
	DB	0f0H
	DB	0e5H
	DB	0e4H
	DB	0e5H
	DB	0ebH
	DB	0e5H
	DB	0edH
	DB	0edH
	DB	0e0H
	DB	0ffH
	DB	020H
	DB	0eeH
	DB	0f8H
	DB	0e8H
	DB	0e1H
	DB	0eaH
	DB	0e0H
	DB	00H
	ORG $+178
	DW	0ffffH
	DW	0ffffH
	DD	0fffffd5cH
	DB	0cdH
	DB	0e5H
	DB	0eeH
	DB	0efH
	DB	0f0H
	DB	0e5H
	DB	0e4H
	DB	0e5H
	DB	0ebH
	DB	0e5H
	DB	0edH
	DB	0edH
	DB	0e0H
	DB	0ffH
	DB	020H
	DB	0eeH
	DB	0f8H
	DB	0e8H
	DB	0e1H
	DB	0eaH
	DB	0e0H
	DB	00H
	ORG $+178
	DW	0ffffH
	DW	0ffffH
	DD	0fffffd5dH
	DB	0cdH
	DB	0e5H
	DB	0eeH
	DB	0efH
	DB	0f0H
	DB	0e5H
	DB	0e4H
	DB	0e5H
	DB	0ebH
	DB	0e5H
	DB	0edH
	DB	0edH
	DB	0e0H
	DB	0ffH
	DB	020H
	DB	0eeH
	DB	0f8H
	DB	0e8H
	DB	0e1H
	DB	0eaH
	DB	0e0H
	DB	00H
	ORG $+178
	DW	0ffffH
	DW	0ffffH
	DD	0fffffd5eH
	DB	0cdH
	DB	0e5H
	DB	0eeH
	DB	0efH
	DB	0f0H
	DB	0e5H
	DB	0e4H
	DB	0e5H
	DB	0ebH
	DB	0e5H
	DB	0edH
	DB	0edH
	DB	0e0H
	DB	0ffH
	DB	020H
	DB	0eeH
	DB	0f8H
	DB	0e8H
	DB	0e1H
	DB	0eaH
	DB	0e0H
	DB	00H
	ORG $+178
	DW	0ffffH
	DW	0ffffH
	DD	0fffffd5fH
	DB	0cdH
	DB	0e5H
	DB	0eeH
	DB	0efH
	DB	0f0H
	DB	0e5H
	DB	0e4H
	DB	0e5H
	DB	0ebH
	DB	0e5H
	DB	0edH
	DB	0edH
	DB	0e0H
	DB	0ffH
	DB	020H
	DB	0eeH
	DB	0f8H
	DB	0e8H
	DB	0e1H
	DB	0eaH
	DB	0e0H
	DB	00H
	ORG $+178
	DW	0ffffH
	DW	0ffffH
	DD	0fffffd60H
	DB	0cdH
	DB	0e5H
	DB	0eeH
	DB	0efH
	DB	0f0H
	DB	0e5H
	DB	0e4H
	DB	0e5H
	DB	0ebH
	DB	0e5H
	DB	0edH
	DB	0edH
	DB	0e0H
	DB	0ffH
	DB	020H
	DB	0eeH
	DB	0f8H
	DB	0e8H
	DB	0e1H
	DB	0eaH
	DB	0e0H
	DB	00H
	ORG $+178
	DW	0ffffH
	DW	0ffffH
	DD	0fffffd61H
	DB	0cdH
	DB	0e5H
	DB	0eeH
	DB	0efH
	DB	0f0H
	DB	0e5H
	DB	0e4H
	DB	0e5H
	DB	0ebH
	DB	0e5H
	DB	0edH
	DB	0edH
	DB	0e0H
	DB	0ffH
	DB	020H
	DB	0eeH
	DB	0f8H
	DB	0e8H
	DB	0e1H
	DB	0eaH
	DB	0e0H
	DB	00H
	ORG $+178
	DW	0ffffH
	DW	0ffffH
	DD	0fffffd62H
	DB	0cdH
	DB	0e5H
	DB	0eeH
	DB	0efH
	DB	0f0H
	DB	0e5H
	DB	0e4H
	DB	0e5H
	DB	0ebH
	DB	0e5H
	DB	0edH
	DB	0edH
	DB	0e0H
	DB	0ffH
	DB	020H
	DB	0eeH
	DB	0f8H
	DB	0e8H
	DB	0e1H
	DB	0eaH
	DB	0e0H
	DB	00H
	ORG $+178
	DW	0ffffH
	DW	0ffffH
	DD	0fffffd63H
	DB	0cdH
	DB	0e5H
	DB	0eeH
	DB	0efH
	DB	0f0H
	DB	0e5H
	DB	0e4H
	DB	0e5H
	DB	0ebH
	DB	0e5H
	DB	0edH
	DB	0edH
	DB	0e0H
	DB	0ffH
	DB	020H
	DB	0eeH
	DB	0f8H
	DB	0e8H
	DB	0e1H
	DB	0eaH
	DB	0e0H
	DB	00H
	ORG $+178
	DW	0ffffH
	DW	0ffffH
	DD	0fffffd64H
	DB	0cdH
	DB	0e5H
	DB	0eeH
	DB	0efH
	DB	0f0H
	DB	0e5H
	DB	0e4H
	DB	0e5H
	DB	0ebH
	DB	0e5H
	DB	0edH
	DB	0edH
	DB	0e0H
	DB	0ffH
	DB	020H
	DB	0eeH
	DB	0f8H
	DB	0e8H
	DB	0e1H
	DB	0eaH
	DB	0e0H
	DB	00H
	ORG $+178
	DW	0ffffH
	DW	0ffffH
	DD	0fffffd65H
	DB	0cdH
	DB	0e5H
	DB	0eeH
	DB	0efH
	DB	0f0H
	DB	0e5H
	DB	0e4H
	DB	0e5H
	DB	0ebH
	DB	0e5H
	DB	0edH
	DB	0edH
	DB	0e0H
	DB	0ffH
	DB	020H
	DB	0eeH
	DB	0f8H
	DB	0e8H
	DB	0e1H
	DB	0eaH
	DB	0e0H
	DB	00H
	ORG $+178
	DW	0ffffH
	DW	0ffffH
	DD	0fffffd66H
	DB	0cdH
	DB	0e5H
	DB	0eeH
	DB	0efH
	DB	0f0H
	DB	0e5H
	DB	0e4H
	DB	0e5H
	DB	0ebH
	DB	0e5H
	DB	0edH
	DB	0edH
	DB	0e0H
	DB	0ffH
	DB	020H
	DB	0eeH
	DB	0f8H
	DB	0e8H
	DB	0e1H
	DB	0eaH
	DB	0e0H
	DB	00H
	ORG $+178
	DW	0ffffH
	DW	0ffffH
	DD	0fffffd67H
	DB	0cdH
	DB	0e5H
	DB	0eeH
	DB	0efH
	DB	0f0H
	DB	0e5H
	DB	0e4H
	DB	0e5H
	DB	0ebH
	DB	0e5H
	DB	0edH
	DB	0edH
	DB	0e0H
	DB	0ffH
	DB	020H
	DB	0eeH
	DB	0f8H
	DB	0e8H
	DB	0e1H
	DB	0eaH
	DB	0e0H
	DB	00H
	ORG $+178
	DW	0ffffH
	DW	0ffffH
	DD	0fffffd68H
	DB	0cdH
	DB	0e5H
	DB	0eeH
	DB	0efH
	DB	0f0H
	DB	0e5H
	DB	0e4H
	DB	0e5H
	DB	0ebH
	DB	0e5H
	DB	0edH
	DB	0edH
	DB	0e0H
	DB	0ffH
	DB	020H
	DB	0eeH
	DB	0f8H
	DB	0e8H
	DB	0e1H
	DB	0eaH
	DB	0e0H
	DB	00H
	ORG $+178
	DW	0ffffH
	DW	0ffffH
	DD	0fffffd69H
	DB	0cdH
	DB	0e5H
	DB	0eeH
	DB	0efH
	DB	0f0H
	DB	0e5H
	DB	0e4H
	DB	0e5H
	DB	0ebH
	DB	0e5H
	DB	0edH
	DB	0edH
	DB	0e0H
	DB	0ffH
	DB	020H
	DB	0eeH
	DB	0f8H
	DB	0e8H
	DB	0e1H
	DB	0eaH
	DB	0e0H
	DB	00H
	ORG $+178
	DW	0ffffH
	DW	0ffffH
	DD	0fffffd6aH
	DB	0cdH
	DB	0e5H
	DB	0eeH
	DB	0efH
	DB	0f0H
	DB	0e5H
	DB	0e4H
	DB	0e5H
	DB	0ebH
	DB	0e5H
	DB	0edH
	DB	0edH
	DB	0e0H
	DB	0ffH
	DB	020H
	DB	0eeH
	DB	0f8H
	DB	0e8H
	DB	0e1H
	DB	0eaH
	DB	0e0H
	DB	00H
	ORG $+178
	DW	0ffffH
	DW	0ffffH
	DD	0fffffd6bH
	DB	0cdH
	DB	0e5H
	DB	0eeH
	DB	0efH
	DB	0f0H
	DB	0e5H
	DB	0e4H
	DB	0e5H
	DB	0ebH
	DB	0e5H
	DB	0edH
	DB	0edH
	DB	0e0H
	DB	0ffH
	DB	020H
	DB	0eeH
	DB	0f8H
	DB	0e8H
	DB	0e1H
	DB	0eaH
	DB	0e0H
	DB	00H
	ORG $+178
	DW	0ffffH
	DW	0ffffH
	DD	0fffffd6cH
	DB	0cdH
	DB	0e5H
	DB	0eeH
	DB	0efH
	DB	0f0H
	DB	0e5H
	DB	0e4H
	DB	0e5H
	DB	0ebH
	DB	0e5H
	DB	0edH
	DB	0edH
	DB	0e0H
	DB	0ffH
	DB	020H
	DB	0eeH
	DB	0f8H
	DB	0e8H
	DB	0e1H
	DB	0eaH
	DB	0e0H
	DB	00H
	ORG $+178
	DW	0ffffH
	DW	0ffffH
	DD	0fffffd6dH
	DB	0cdH
	DB	0e5H
	DB	0eeH
	DB	0efH
	DB	0f0H
	DB	0e5H
	DB	0e4H
	DB	0e5H
	DB	0ebH
	DB	0e5H
	DB	0edH
	DB	0edH
	DB	0e0H
	DB	0ffH
	DB	020H
	DB	0eeH
	DB	0f8H
	DB	0e8H
	DB	0e1H
	DB	0eaH
	DB	0e0H
	DB	00H
	ORG $+178
	DW	0ffffH
	DW	0ffffH
	DD	0fffffd6eH
	DB	0cdH
	DB	0e5H
	DB	0eeH
	DB	0efH
	DB	0f0H
	DB	0e5H
	DB	0e4H
	DB	0e5H
	DB	0ebH
	DB	0e5H
	DB	0edH
	DB	0edH
	DB	0e0H
	DB	0ffH
	DB	020H
	DB	0eeH
	DB	0f8H
	DB	0e8H
	DB	0e1H
	DB	0eaH
	DB	0e0H
	DB	00H
	ORG $+178
	DW	0ffffH
	DW	0ffffH
	DD	0fffffd6fH
	DB	0cdH
	DB	0e5H
	DB	0eeH
	DB	0efH
	DB	0f0H
	DB	0e5H
	DB	0e4H
	DB	0e5H
	DB	0ebH
	DB	0e5H
	DB	0edH
	DB	0edH
	DB	0e0H
	DB	0ffH
	DB	020H
	DB	0eeH
	DB	0f8H
	DB	0e8H
	DB	0e1H
	DB	0eaH
	DB	0e0H
	DB	00H
	ORG $+178
	DW	0ffffH
	DW	0ffffH
	DD	0fffffd70H
	DB	0cdH
	DB	0e5H
	DB	0eeH
	DB	0efH
	DB	0f0H
	DB	0e5H
	DB	0e4H
	DB	0e5H
	DB	0ebH
	DB	0e5H
	DB	0edH
	DB	0edH
	DB	0e0H
	DB	0ffH
	DB	020H
	DB	0eeH
	DB	0f8H
	DB	0e8H
	DB	0e1H
	DB	0eaH
	DB	0e0H
	DB	00H
	ORG $+178
	DW	0ffffH
	DW	0ffffH
	DD	0fffffd71H
	DB	0cdH
	DB	0e5H
	DB	0eeH
	DB	0efH
	DB	0f0H
	DB	0e5H
	DB	0e4H
	DB	0e5H
	DB	0ebH
	DB	0e5H
	DB	0edH
	DB	0edH
	DB	0e0H
	DB	0ffH
	DB	020H
	DB	0eeH
	DB	0f8H
	DB	0e8H
	DB	0e1H
	DB	0eaH
	DB	0e0H
	DB	00H
	ORG $+178
	DW	0ffffH
	DW	0ffffH
	DD	0fffffd72H
	DB	0cdH
	DB	0e5H
	DB	0eeH
	DB	0efH
	DB	0f0H
	DB	0e5H
	DB	0e4H
	DB	0e5H
	DB	0ebH
	DB	0e5H
	DB	0edH
	DB	0edH
	DB	0e0H
	DB	0ffH
	DB	020H
	DB	0eeH
	DB	0f8H
	DB	0e8H
	DB	0e1H
	DB	0eaH
	DB	0e0H
	DB	00H
	ORG $+178
	DW	0ffffH
	DW	0ffffH
	DD	0fffffd73H
	DB	0cdH
	DB	0e5H
	DB	0eeH
	DB	0efH
	DB	0f0H
	DB	0e5H
	DB	0e4H
	DB	0e5H
	DB	0ebH
	DB	0e5H
	DB	0edH
	DB	0edH
	DB	0e0H
	DB	0ffH
	DB	020H
	DB	0eeH
	DB	0f8H
	DB	0e8H
	DB	0e1H
	DB	0eaH
	DB	0e0H
	DB	00H
	ORG $+178
	DW	0ffffH
	DW	0ffffH
	DD	0fffffd74H
	DB	0cdH
	DB	0e5H
	DB	0eeH
	DB	0efH
	DB	0f0H
	DB	0e5H
	DB	0e4H
	DB	0e5H
	DB	0ebH
	DB	0e5H
	DB	0edH
	DB	0edH
	DB	0e0H
	DB	0ffH
	DB	020H
	DB	0eeH
	DB	0f8H
	DB	0e8H
	DB	0e1H
	DB	0eaH
	DB	0e0H
	DB	00H
	ORG $+178
	DW	0ffffH
	DW	0ffffH
	DD	0fffffd75H
	DB	0cdH
	DB	0e5H
	DB	0eeH
	DB	0efH
	DB	0f0H
	DB	0e5H
	DB	0e4H
	DB	0e5H
	DB	0ebH
	DB	0e5H
	DB	0edH
	DB	0edH
	DB	0e0H
	DB	0ffH
	DB	020H
	DB	0eeH
	DB	0f8H
	DB	0e8H
	DB	0e1H
	DB	0eaH
	DB	0e0H
	DB	00H
	ORG $+178
	DW	0ffffH
	DW	0ffffH
	DD	0fffffd76H
	DB	0cdH
	DB	0e5H
	DB	0eeH
	DB	0efH
	DB	0f0H
	DB	0e5H
	DB	0e4H
	DB	0e5H
	DB	0ebH
	DB	0e5H
	DB	0edH
	DB	0edH
	DB	0e0H
	DB	0ffH
	DB	020H
	DB	0eeH
	DB	0f8H
	DB	0e8H
	DB	0e1H
	DB	0eaH
	DB	0e0H
	DB	00H
	ORG $+178
	DW	0ffffH
	DW	0ffffH
	DD	0fffffd77H
	DB	0cdH
	DB	0e5H
	DB	0eeH
	DB	0efH
	DB	0f0H
	DB	0e5H
	DB	0e4H
	DB	0e5H
	DB	0ebH
	DB	0e5H
	DB	0edH
	DB	0edH
	DB	0e0H
	DB	0ffH
	DB	020H
	DB	0eeH
	DB	0f8H
	DB	0e8H
	DB	0e1H
	DB	0eaH
	DB	0e0H
	DB	00H
	ORG $+178
	DW	0ffffH
	DW	0ffffH
	DD	0fffffd78H
	DB	0cdH
	DB	0e5H
	DB	0eeH
	DB	0efH
	DB	0f0H
	DB	0e5H
	DB	0e4H
	DB	0e5H
	DB	0ebH
	DB	0e5H
	DB	0edH
	DB	0edH
	DB	0e0H
	DB	0ffH
	DB	020H
	DB	0eeH
	DB	0f8H
	DB	0e8H
	DB	0e1H
	DB	0eaH
	DB	0e0H
	DB	00H
	ORG $+178
	DW	0ffffH
	DW	0ffffH
	DD	0fffffd79H
	DB	0cdH
	DB	0e5H
	DB	0eeH
	DB	0efH
	DB	0f0H
	DB	0e5H
	DB	0e4H
	DB	0e5H
	DB	0ebH
	DB	0e5H
	DB	0edH
	DB	0edH
	DB	0e0H
	DB	0ffH
	DB	020H
	DB	0eeH
	DB	0f8H
	DB	0e8H
	DB	0e1H
	DB	0eaH
	DB	0e0H
	DB	00H
	ORG $+178
	DW	0ffffH
	DW	0ffffH
	DD	0fffffd7aH
	DB	0cdH
	DB	0e5H
	DB	0eeH
	DB	0efH
	DB	0f0H
	DB	0e5H
	DB	0e4H
	DB	0e5H
	DB	0ebH
	DB	0e5H
	DB	0edH
	DB	0edH
	DB	0e0H
	DB	0ffH
	DB	020H
	DB	0eeH
	DB	0f8H
	DB	0e8H
	DB	0e1H
	DB	0eaH
	DB	0e0H
	DB	00H
	ORG $+178
	DW	0ffffH
	DW	0ffffH
	DD	0fffffd7bH
	DB	0cdH
	DB	0e5H
	DB	0eeH
	DB	0efH
	DB	0f0H
	DB	0e5H
	DB	0e4H
	DB	0e5H
	DB	0ebH
	DB	0e5H
	DB	0edH
	DB	0edH
	DB	0e0H
	DB	0ffH
	DB	020H
	DB	0eeH
	DB	0f8H
	DB	0e8H
	DB	0e1H
	DB	0eaH
	DB	0e0H
	DB	00H
	ORG $+178
	DW	0ffffH
	DW	0ffffH
	DD	0fffffd7cH
	DB	0cdH
	DB	0e5H
	DB	0eeH
	DB	0efH
	DB	0f0H
	DB	0e5H
	DB	0e4H
	DB	0e5H
	DB	0ebH
	DB	0e5H
	DB	0edH
	DB	0edH
	DB	0e0H
	DB	0ffH
	DB	020H
	DB	0eeH
	DB	0f8H
	DB	0e8H
	DB	0e1H
	DB	0eaH
	DB	0e0H
	DB	00H
	ORG $+178
	DW	0ffffH
	DW	0ffffH
	DD	0fffffd7dH
	DB	0cdH
	DB	0e5H
	DB	0eeH
	DB	0efH
	DB	0f0H
	DB	0e5H
	DB	0e4H
	DB	0e5H
	DB	0ebH
	DB	0e5H
	DB	0edH
	DB	0edH
	DB	0e0H
	DB	0ffH
	DB	020H
	DB	0eeH
	DB	0f8H
	DB	0e8H
	DB	0e1H
	DB	0eaH
	DB	0e0H
	DB	00H
	ORG $+178
	DW	0ffffH
	DW	0ffffH
	DD	0fffffd7eH
	DB	0cdH
	DB	0e5H
	DB	0eeH
	DB	0efH
	DB	0f0H
	DB	0e5H
	DB	0e4H
	DB	0e5H
	DB	0ebH
	DB	0e5H
	DB	0edH
	DB	0edH
	DB	0e0H
	DB	0ffH
	DB	020H
	DB	0eeH
	DB	0f8H
	DB	0e8H
	DB	0e1H
	DB	0eaH
	DB	0e0H
	DB	00H
	ORG $+178
	DW	0ffffH
	DW	0ffffH
	DD	0fffffd7fH
	DB	0cdH
	DB	0e5H
	DB	0eeH
	DB	0efH
	DB	0f0H
	DB	0e5H
	DB	0e4H
	DB	0e5H
	DB	0ebH
	DB	0e5H
	DB	0edH
	DB	0edH
	DB	0e0H
	DB	0ffH
	DB	020H
	DB	0eeH
	DB	0f8H
	DB	0e8H
	DB	0e1H
	DB	0eaH
	DB	0e0H
	DB	00H
	ORG $+178
	DW	0ffffH
	DW	0ffffH
	DD	0fffffd80H
	DB	0cdH
	DB	0e5H
	DB	0eeH
	DB	0efH
	DB	0f0H
	DB	0e5H
	DB	0e4H
	DB	0e5H
	DB	0ebH
	DB	0e5H
	DB	0edH
	DB	0edH
	DB	0e0H
	DB	0ffH
	DB	020H
	DB	0eeH
	DB	0f8H
	DB	0e8H
	DB	0e1H
	DB	0eaH
	DB	0e0H
	DB	00H
	ORG $+178
	DW	0ffffH
	DW	0ffffH
	DD	0fffffd81H
	DB	0cdH
	DB	0e5H
	DB	0eeH
	DB	0efH
	DB	0f0H
	DB	0e5H
	DB	0e4H
	DB	0e5H
	DB	0ebH
	DB	0e5H
	DB	0edH
	DB	0edH
	DB	0e0H
	DB	0ffH
	DB	020H
	DB	0eeH
	DB	0f8H
	DB	0e8H
	DB	0e1H
	DB	0eaH
	DB	0e0H
	DB	00H
	ORG $+178
	DW	0ffffH
	DW	0ffffH
	DD	0fffffd82H
	DB	0cdH
	DB	0e5H
	DB	0eeH
	DB	0efH
	DB	0f0H
	DB	0e5H
	DB	0e4H
	DB	0e5H
	DB	0ebH
	DB	0e5H
	DB	0edH
	DB	0edH
	DB	0e0H
	DB	0ffH
	DB	020H
	DB	0eeH
	DB	0f8H
	DB	0e8H
	DB	0e1H
	DB	0eaH
	DB	0e0H
	DB	00H
	ORG $+178
	DW	0ffffH
	DW	0ffffH
	DD	0fffffd83H
	DB	0cdH
	DB	0e5H
	DB	0eeH
	DB	0efH
	DB	0f0H
	DB	0e5H
	DB	0e4H
	DB	0e5H
	DB	0ebH
	DB	0e5H
	DB	0edH
	DB	0edH
	DB	0e0H
	DB	0ffH
	DB	020H
	DB	0eeH
	DB	0f8H
	DB	0e8H
	DB	0e1H
	DB	0eaH
	DB	0e0H
	DB	00H
	ORG $+178
	DW	0ffffH
	DW	0ffffH
	DD	0fffffd84H
	DB	0cdH
	DB	0e5H
	DB	0eeH
	DB	0efH
	DB	0f0H
	DB	0e5H
	DB	0e4H
	DB	0e5H
	DB	0ebH
	DB	0e5H
	DB	0edH
	DB	0edH
	DB	0e0H
	DB	0ffH
	DB	020H
	DB	0eeH
	DB	0f8H
	DB	0e8H
	DB	0e1H
	DB	0eaH
	DB	0e0H
	DB	00H
	ORG $+178
	DW	0ffffH
	DW	0ffffH
	DD	0fffffd85H
	DB	0cdH
	DB	0e5H
	DB	0eeH
	DB	0efH
	DB	0f0H
	DB	0e5H
	DB	0e4H
	DB	0e5H
	DB	0ebH
	DB	0e5H
	DB	0edH
	DB	0edH
	DB	0e0H
	DB	0ffH
	DB	020H
	DB	0eeH
	DB	0f8H
	DB	0e8H
	DB	0e1H
	DB	0eaH
	DB	0e0H
	DB	00H
	ORG $+178
	DW	0ffffH
	DW	0ffffH
	DD	0fffffd86H
	DB	0cdH
	DB	0e5H
	DB	0eeH
	DB	0efH
	DB	0f0H
	DB	0e5H
	DB	0e4H
	DB	0e5H
	DB	0ebH
	DB	0e5H
	DB	0edH
	DB	0edH
	DB	0e0H
	DB	0ffH
	DB	020H
	DB	0eeH
	DB	0f8H
	DB	0e8H
	DB	0e1H
	DB	0eaH
	DB	0e0H
	DB	00H
	ORG $+178
	DW	0ffffH
	DW	0ffffH
	DD	0fffffd87H
	DB	0cdH
	DB	0e5H
	DB	0eeH
	DB	0efH
	DB	0f0H
	DB	0e5H
	DB	0e4H
	DB	0e5H
	DB	0ebH
	DB	0e5H
	DB	0edH
	DB	0edH
	DB	0e0H
	DB	0ffH
	DB	020H
	DB	0eeH
	DB	0f8H
	DB	0e8H
	DB	0e1H
	DB	0eaH
	DB	0e0H
	DB	00H
	ORG $+178
	DW	0ffffH
	DW	0ffffH
	DD	0fffffd88H
	DB	0cdH
	DB	0e5H
	DB	0eeH
	DB	0efH
	DB	0f0H
	DB	0e5H
	DB	0e4H
	DB	0e5H
	DB	0ebH
	DB	0e5H
	DB	0edH
	DB	0edH
	DB	0e0H
	DB	0ffH
	DB	020H
	DB	0eeH
	DB	0f8H
	DB	0e8H
	DB	0e1H
	DB	0eaH
	DB	0e0H
	DB	00H
	ORG $+178
	DW	0ffffH
	DW	0ffffH
	DD	0fffffd89H
	DB	0cdH
	DB	0e5H
	DB	0eeH
	DB	0efH
	DB	0f0H
	DB	0e5H
	DB	0e4H
	DB	0e5H
	DB	0ebH
	DB	0e5H
	DB	0edH
	DB	0edH
	DB	0e0H
	DB	0ffH
	DB	020H
	DB	0eeH
	DB	0f8H
	DB	0e8H
	DB	0e1H
	DB	0eaH
	DB	0e0H
	DB	00H
	ORG $+178
	DW	0ffffH
	DW	0ffffH
	DD	0fffffd8aH
	DB	0cdH
	DB	0e5H
	DB	0eeH
	DB	0efH
	DB	0f0H
	DB	0e5H
	DB	0e4H
	DB	0e5H
	DB	0ebH
	DB	0e5H
	DB	0edH
	DB	0edH
	DB	0e0H
	DB	0ffH
	DB	020H
	DB	0eeH
	DB	0f8H
	DB	0e8H
	DB	0e1H
	DB	0eaH
	DB	0e0H
	DB	00H
	ORG $+178
	DW	0ffffH
	DW	0ffffH
	DD	0fffffd8bH
	DB	0cdH
	DB	0e5H
	DB	0eeH
	DB	0efH
	DB	0f0H
	DB	0e5H
	DB	0e4H
	DB	0e5H
	DB	0ebH
	DB	0e5H
	DB	0edH
	DB	0edH
	DB	0e0H
	DB	0ffH
	DB	020H
	DB	0eeH
	DB	0f8H
	DB	0e8H
	DB	0e1H
	DB	0eaH
	DB	0e0H
	DB	00H
	ORG $+178
	DW	0ffffH
	DW	0ffffH
	DD	0fffffd8cH
	DB	0cdH
	DB	0e5H
	DB	0eeH
	DB	0efH
	DB	0f0H
	DB	0e5H
	DB	0e4H
	DB	0e5H
	DB	0ebH
	DB	0e5H
	DB	0edH
	DB	0edH
	DB	0e0H
	DB	0ffH
	DB	020H
	DB	0eeH
	DB	0f8H
	DB	0e8H
	DB	0e1H
	DB	0eaH
	DB	0e0H
	DB	00H
	ORG $+178
	DW	0ffffH
	DW	0ffffH
	DD	0fffffd8dH
	DB	0cdH
	DB	0e5H
	DB	0eeH
	DB	0efH
	DB	0f0H
	DB	0e5H
	DB	0e4H
	DB	0e5H
	DB	0ebH
	DB	0e5H
	DB	0edH
	DB	0edH
	DB	0e0H
	DB	0ffH
	DB	020H
	DB	0eeH
	DB	0f8H
	DB	0e8H
	DB	0e1H
	DB	0eaH
	DB	0e0H
	DB	00H
	ORG $+178
	DW	0ffffH
	DW	0ffffH
	DD	0fffffd8eH
	DB	0cdH
	DB	0e5H
	DB	0eeH
	DB	0efH
	DB	0f0H
	DB	0e5H
	DB	0e4H
	DB	0e5H
	DB	0ebH
	DB	0e5H
	DB	0edH
	DB	0edH
	DB	0e0H
	DB	0ffH
	DB	020H
	DB	0eeH
	DB	0f8H
	DB	0e8H
	DB	0e1H
	DB	0eaH
	DB	0e0H
	DB	00H
	ORG $+178
	DW	0ffffH
	DW	0ffffH
	DD	0fffffd8fH
	DB	0cdH
	DB	0e5H
	DB	0eeH
	DB	0efH
	DB	0f0H
	DB	0e5H
	DB	0e4H
	DB	0e5H
	DB	0ebH
	DB	0e5H
	DB	0edH
	DB	0edH
	DB	0e0H
	DB	0ffH
	DB	020H
	DB	0eeH
	DB	0f8H
	DB	0e8H
	DB	0e1H
	DB	0eaH
	DB	0e0H
	DB	00H
	ORG $+178
	DW	0ffffH
	DW	0ffffH
	DD	0fffffd90H
	DB	0cdH
	DB	0e5H
	DB	0eeH
	DB	0efH
	DB	0f0H
	DB	0e5H
	DB	0e4H
	DB	0e5H
	DB	0ebH
	DB	0e5H
	DB	0edH
	DB	0edH
	DB	0e0H
	DB	0ffH
	DB	020H
	DB	0eeH
	DB	0f8H
	DB	0e8H
	DB	0e1H
	DB	0eaH
	DB	0e0H
	DB	00H
	ORG $+178
	DW	0ffffH
	DW	0ffffH
	DD	0fffffd91H
	DB	0cdH
	DB	0e5H
	DB	0eeH
	DB	0efH
	DB	0f0H
	DB	0e5H
	DB	0e4H
	DB	0e5H
	DB	0ebH
	DB	0e5H
	DB	0edH
	DB	0edH
	DB	0e0H
	DB	0ffH
	DB	020H
	DB	0eeH
	DB	0f8H
	DB	0e8H
	DB	0e1H
	DB	0eaH
	DB	0e0H
	DB	00H
	ORG $+178
	DW	0ffffH
	DW	0ffffH
	DD	0fffffd92H
	DB	0cdH
	DB	0e5H
	DB	0eeH
	DB	0efH
	DB	0f0H
	DB	0e5H
	DB	0e4H
	DB	0e5H
	DB	0ebH
	DB	0e5H
	DB	0edH
	DB	0edH
	DB	0e0H
	DB	0ffH
	DB	020H
	DB	0eeH
	DB	0f8H
	DB	0e8H
	DB	0e1H
	DB	0eaH
	DB	0e0H
	DB	00H
	ORG $+178
	DW	0ffffH
	DW	0ffffH
	DD	0fffffd93H
	DB	0cdH
	DB	0e5H
	DB	0eeH
	DB	0efH
	DB	0f0H
	DB	0e5H
	DB	0e4H
	DB	0e5H
	DB	0ebH
	DB	0e5H
	DB	0edH
	DB	0edH
	DB	0e0H
	DB	0ffH
	DB	020H
	DB	0eeH
	DB	0f8H
	DB	0e8H
	DB	0e1H
	DB	0eaH
	DB	0e0H
	DB	00H
	ORG $+178
	DW	0ffffH
	DW	0ffffH
	DD	0fffffd94H
	DB	0cdH
	DB	0e5H
	DB	0eeH
	DB	0efH
	DB	0f0H
	DB	0e5H
	DB	0e4H
	DB	0e5H
	DB	0ebH
	DB	0e5H
	DB	0edH
	DB	0edH
	DB	0e0H
	DB	0ffH
	DB	020H
	DB	0eeH
	DB	0f8H
	DB	0e8H
	DB	0e1H
	DB	0eaH
	DB	0e0H
	DB	00H
	ORG $+178
	DW	0ffffH
	DW	0ffffH
	DD	0fffffd95H
	DB	0cdH
	DB	0e5H
	DB	0eeH
	DB	0efH
	DB	0f0H
	DB	0e5H
	DB	0e4H
	DB	0e5H
	DB	0ebH
	DB	0e5H
	DB	0edH
	DB	0edH
	DB	0e0H
	DB	0ffH
	DB	020H
	DB	0eeH
	DB	0f8H
	DB	0e8H
	DB	0e1H
	DB	0eaH
	DB	0e0H
	DB	00H
	ORG $+178
	DW	0ffffH
	DW	0ffffH
	DD	0fffffd96H
	DB	0cdH
	DB	0e5H
	DB	0eeH
	DB	0efH
	DB	0f0H
	DB	0e5H
	DB	0e4H
	DB	0e5H
	DB	0ebH
	DB	0e5H
	DB	0edH
	DB	0edH
	DB	0e0H
	DB	0ffH
	DB	020H
	DB	0eeH
	DB	0f8H
	DB	0e8H
	DB	0e1H
	DB	0eaH
	DB	0e0H
	DB	00H
	ORG $+178
	DW	0ffffH
	DW	0ffffH
	DD	0fffffd97H
	DB	0cdH
	DB	0e5H
	DB	0eeH
	DB	0efH
	DB	0f0H
	DB	0e5H
	DB	0e4H
	DB	0e5H
	DB	0ebH
	DB	0e5H
	DB	0edH
	DB	0edH
	DB	0e0H
	DB	0ffH
	DB	020H
	DB	0eeH
	DB	0f8H
	DB	0e8H
	DB	0e1H
	DB	0eaH
	DB	0e0H
	DB	00H
	ORG $+178
	DW	0ffffH
	DW	0ffffH
	DD	0fffffd98H
	DB	0cdH
	DB	0e5H
	DB	0eeH
	DB	0efH
	DB	0f0H
	DB	0e5H
	DB	0e4H
	DB	0e5H
	DB	0ebH
	DB	0e5H
	DB	0edH
	DB	0edH
	DB	0e0H
	DB	0ffH
	DB	020H
	DB	0eeH
	DB	0f8H
	DB	0e8H
	DB	0e1H
	DB	0eaH
	DB	0e0H
	DB	00H
	ORG $+178
	DW	0ffffH
	DW	0ffffH
	DD	0fffffd99H
	DB	0cdH
	DB	0e5H
	DB	0eeH
	DB	0efH
	DB	0f0H
	DB	0e5H
	DB	0e4H
	DB	0e5H
	DB	0ebH
	DB	0e5H
	DB	0edH
	DB	0edH
	DB	0e0H
	DB	0ffH
	DB	020H
	DB	0eeH
	DB	0f8H
	DB	0e8H
	DB	0e1H
	DB	0eaH
	DB	0e0H
	DB	00H
	ORG $+178
	DW	0ffffH
	DW	0ffffH
	DD	0fffffd9aH
	DB	0cdH
	DB	0e5H
	DB	0eeH
	DB	0efH
	DB	0f0H
	DB	0e5H
	DB	0e4H
	DB	0e5H
	DB	0ebH
	DB	0e5H
	DB	0edH
	DB	0edH
	DB	0e0H
	DB	0ffH
	DB	020H
	DB	0eeH
	DB	0f8H
	DB	0e8H
	DB	0e1H
	DB	0eaH
	DB	0e0H
	DB	00H
	ORG $+178
	DW	0ffffH
	DW	0ffffH
	DD	0fffffd9bH
	DB	0cdH
	DB	0e5H
	DB	0eeH
	DB	0efH
	DB	0f0H
	DB	0e5H
	DB	0e4H
	DB	0e5H
	DB	0ebH
	DB	0e5H
	DB	0edH
	DB	0edH
	DB	0e0H
	DB	0ffH
	DB	020H
	DB	0eeH
	DB	0f8H
	DB	0e8H
	DB	0e1H
	DB	0eaH
	DB	0e0H
	DB	00H
	ORG $+178
	DW	0ffffH
	DW	0ffffH
	DD	0fffffd9cH
	DB	0cdH
	DB	0e5H
	DB	0eeH
	DB	0efH
	DB	0f0H
	DB	0e5H
	DB	0e4H
	DB	0e5H
	DB	0ebH
	DB	0e5H
	DB	0edH
	DB	0edH
	DB	0e0H
	DB	0ffH
	DB	020H
	DB	0eeH
	DB	0f8H
	DB	0e8H
	DB	0e1H
	DB	0eaH
	DB	0e0H
	DB	00H
	ORG $+178
	DW	0ffffH
	DW	0ffffH
	DD	0fffffd9dH
	DB	0cdH
	DB	0e5H
	DB	0eeH
	DB	0efH
	DB	0f0H
	DB	0e5H
	DB	0e4H
	DB	0e5H
	DB	0ebH
	DB	0e5H
	DB	0edH
	DB	0edH
	DB	0e0H
	DB	0ffH
	DB	020H
	DB	0eeH
	DB	0f8H
	DB	0e8H
	DB	0e1H
	DB	0eaH
	DB	0e0H
	DB	00H
	ORG $+178
	DW	0ffffH
	DW	0ffffH
	DD	0fffffd9eH
	DB	0cdH
	DB	0e5H
	DB	0eeH
	DB	0efH
	DB	0f0H
	DB	0e5H
	DB	0e4H
	DB	0e5H
	DB	0ebH
	DB	0e5H
	DB	0edH
	DB	0edH
	DB	0e0H
	DB	0ffH
	DB	020H
	DB	0eeH
	DB	0f8H
	DB	0e8H
	DB	0e1H
	DB	0eaH
	DB	0e0H
	DB	00H
	ORG $+178
	DW	0ffffH
	DW	0ffffH
	DD	0fffffd9fH
	DB	0cdH
	DB	0e5H
	DB	0eeH
	DB	0efH
	DB	0f0H
	DB	0e5H
	DB	0e4H
	DB	0e5H
	DB	0ebH
	DB	0e5H
	DB	0edH
	DB	0edH
	DB	0e0H
	DB	0ffH
	DB	020H
	DB	0eeH
	DB	0f8H
	DB	0e8H
	DB	0e1H
	DB	0eaH
	DB	0e0H
	DB	00H
	ORG $+178
	DW	0ffffH
	DW	0ffffH
	DD	0fffffda0H
	DB	0cdH
	DB	0e5H
	DB	0eeH
	DB	0efH
	DB	0f0H
	DB	0e5H
	DB	0e4H
	DB	0e5H
	DB	0ebH
	DB	0e5H
	DB	0edH
	DB	0edH
	DB	0e0H
	DB	0ffH
	DB	020H
	DB	0eeH
	DB	0f8H
	DB	0e8H
	DB	0e1H
	DB	0eaH
	DB	0e0H
	DB	00H
	ORG $+178
	DW	0ffffH
	DW	0ffffH
	DD	0fffffda1H
	DB	0cdH
	DB	0e5H
	DB	0eeH
	DB	0efH
	DB	0f0H
	DB	0e5H
	DB	0e4H
	DB	0e5H
	DB	0ebH
	DB	0e5H
	DB	0edH
	DB	0edH
	DB	0e0H
	DB	0ffH
	DB	020H
	DB	0eeH
	DB	0f8H
	DB	0e8H
	DB	0e1H
	DB	0eaH
	DB	0e0H
	DB	00H
	ORG $+178
	DW	0ffffH
	DW	0ffffH
	DD	0fffffda2H
	DB	0cdH
	DB	0e5H
	DB	0eeH
	DB	0efH
	DB	0f0H
	DB	0e5H
	DB	0e4H
	DB	0e5H
	DB	0ebH
	DB	0e5H
	DB	0edH
	DB	0edH
	DB	0e0H
	DB	0ffH
	DB	020H
	DB	0eeH
	DB	0f8H
	DB	0e8H
	DB	0e1H
	DB	0eaH
	DB	0e0H
	DB	00H
	ORG $+178
	DW	0ffffH
	DW	0ffffH
	DD	0fffffda3H
	DB	0cdH
	DB	0e5H
	DB	0eeH
	DB	0efH
	DB	0f0H
	DB	0e5H
	DB	0e4H
	DB	0e5H
	DB	0ebH
	DB	0e5H
	DB	0edH
	DB	0edH
	DB	0e0H
	DB	0ffH
	DB	020H
	DB	0eeH
	DB	0f8H
	DB	0e8H
	DB	0e1H
	DB	0eaH
	DB	0e0H
	DB	00H
	ORG $+178
	DW	0ffffH
	DW	0ffffH
	DD	0fffffda4H
	DB	0cdH
	DB	0e5H
	DB	0eeH
	DB	0efH
	DB	0f0H
	DB	0e5H
	DB	0e4H
	DB	0e5H
	DB	0ebH
	DB	0e5H
	DB	0edH
	DB	0edH
	DB	0e0H
	DB	0ffH
	DB	020H
	DB	0eeH
	DB	0f8H
	DB	0e8H
	DB	0e1H
	DB	0eaH
	DB	0e0H
	DB	00H
	ORG $+178
	DW	0ffffH
	DW	0ffffH
	DD	0fffffda5H
	DB	0cdH
	DB	0e5H
	DB	0eeH
	DB	0efH
	DB	0f0H
	DB	0e5H
	DB	0e4H
	DB	0e5H
	DB	0ebH
	DB	0e5H
	DB	0edH
	DB	0edH
	DB	0e0H
	DB	0ffH
	DB	020H
	DB	0eeH
	DB	0f8H
	DB	0e8H
	DB	0e1H
	DB	0eaH
	DB	0e0H
	DB	00H
	ORG $+178
	DW	0ffffH
	DW	0ffffH
	DD	0fffffda6H
	DB	0cdH
	DB	0e5H
	DB	0eeH
	DB	0efH
	DB	0f0H
	DB	0e5H
	DB	0e4H
	DB	0e5H
	DB	0ebH
	DB	0e5H
	DB	0edH
	DB	0edH
	DB	0e0H
	DB	0ffH
	DB	020H
	DB	0eeH
	DB	0f8H
	DB	0e8H
	DB	0e1H
	DB	0eaH
	DB	0e0H
	DB	00H
	ORG $+178
	DW	0ffffH
	DW	0ffffH
	DD	0fffffda7H
	DB	0cdH
	DB	0e5H
	DB	0eeH
	DB	0efH
	DB	0f0H
	DB	0e5H
	DB	0e4H
	DB	0e5H
	DB	0ebH
	DB	0e5H
	DB	0edH
	DB	0edH
	DB	0e0H
	DB	0ffH
	DB	020H
	DB	0eeH
	DB	0f8H
	DB	0e8H
	DB	0e1H
	DB	0eaH
	DB	0e0H
	DB	00H
	ORG $+178
	DW	0ffffH
	DW	0ffffH
	DD	0fffffce0H
	DB	0cdH
	DB	0e5H
	DB	0eeH
	DB	0efH
	DB	0f0H
	DB	0e5H
	DB	0e4H
	DB	0e5H
	DB	0ebH
	DB	0e5H
	DB	0edH
	DB	0edH
	DB	0e0H
	DB	0ffH
	DB	020H
	DB	0eeH
	DB	0f8H
	DB	0e8H
	DB	0e1H
	DB	0eaH
	DB	0e0H
	DB	00H
	ORG $+178
	DW	0ffffH
	DW	0ffffH
	DD	0fffffce1H
	DB	0cdH
	DB	0e5H
	DB	0eeH
	DB	0efH
	DB	0f0H
	DB	0e5H
	DB	0e4H
	DB	0e5H
	DB	0ebH
	DB	0e5H
	DB	0edH
	DB	0edH
	DB	0e0H
	DB	0ffH
	DB	020H
	DB	0eeH
	DB	0f8H
	DB	0e8H
	DB	0e1H
	DB	0eaH
	DB	0e0H
	DB	00H
	ORG $+178
	DW	0ffffH
	DW	0ffffH
	DD	0fffffce2H
	DB	0cdH
	DB	0e5H
	DB	0eeH
	DB	0efH
	DB	0f0H
	DB	0e5H
	DB	0e4H
	DB	0e5H
	DB	0ebH
	DB	0e5H
	DB	0edH
	DB	0edH
	DB	0e0H
	DB	0ffH
	DB	020H
	DB	0eeH
	DB	0f8H
	DB	0e8H
	DB	0e1H
	DB	0eaH
	DB	0e0H
	DB	00H
	ORG $+178
	DW	0ffffH
	DW	0ffffH
	DD	0fffffce3H
	DB	0cdH
	DB	0e5H
	DB	0eeH
	DB	0efH
	DB	0f0H
	DB	0e5H
	DB	0e4H
	DB	0e5H
	DB	0ebH
	DB	0e5H
	DB	0edH
	DB	0edH
	DB	0e0H
	DB	0ffH
	DB	020H
	DB	0eeH
	DB	0f8H
	DB	0e8H
	DB	0e1H
	DB	0eaH
	DB	0e0H
	DB	00H
	ORG $+178
	DW	0ffffH
	DW	0ffffH
	DD	0fffffce4H
	DB	0cdH
	DB	0e5H
	DB	0eeH
	DB	0efH
	DB	0f0H
	DB	0e5H
	DB	0e4H
	DB	0e5H
	DB	0ebH
	DB	0e5H
	DB	0edH
	DB	0edH
	DB	0e0H
	DB	0ffH
	DB	020H
	DB	0eeH
	DB	0f8H
	DB	0e8H
	DB	0e1H
	DB	0eaH
	DB	0e0H
	DB	00H
	ORG $+178
	DW	0ffffH
	DW	0ffffH
	DD	0fffffce5H
	DB	0cdH
	DB	0e5H
	DB	0eeH
	DB	0efH
	DB	0f0H
	DB	0e5H
	DB	0e4H
	DB	0e5H
	DB	0ebH
	DB	0e5H
	DB	0edH
	DB	0edH
	DB	0e0H
	DB	0ffH
	DB	020H
	DB	0eeH
	DB	0f8H
	DB	0e8H
	DB	0e1H
	DB	0eaH
	DB	0e0H
	DB	00H
	ORG $+178
	DW	0ffffH
	DW	0ffffH
	DD	0fffffce6H
	DB	0cdH
	DB	0e5H
	DB	0eeH
	DB	0efH
	DB	0f0H
	DB	0e5H
	DB	0e4H
	DB	0e5H
	DB	0ebH
	DB	0e5H
	DB	0edH
	DB	0edH
	DB	0e0H
	DB	0ffH
	DB	020H
	DB	0eeH
	DB	0f8H
	DB	0e8H
	DB	0e1H
	DB	0eaH
	DB	0e0H
	DB	00H
	ORG $+178
	DW	0ffffH
	DW	0ffffH
	DD	0fffffce7H
	DB	0cdH
	DB	0e5H
	DB	0eeH
	DB	0efH
	DB	0f0H
	DB	0e5H
	DB	0e4H
	DB	0e5H
	DB	0ebH
	DB	0e5H
	DB	0edH
	DB	0edH
	DB	0e0H
	DB	0ffH
	DB	020H
	DB	0eeH
	DB	0f8H
	DB	0e8H
	DB	0e1H
	DB	0eaH
	DB	0e0H
	DB	00H
	ORG $+178
	DW	0ffffH
	DW	0ffffH
	DD	0fffffce8H
	DB	0cdH
	DB	0e5H
	DB	0eeH
	DB	0efH
	DB	0f0H
	DB	0e5H
	DB	0e4H
	DB	0e5H
	DB	0ebH
	DB	0e5H
	DB	0edH
	DB	0edH
	DB	0e0H
	DB	0ffH
	DB	020H
	DB	0eeH
	DB	0f8H
	DB	0e8H
	DB	0e1H
	DB	0eaH
	DB	0e0H
	DB	00H
	ORG $+178
	DW	0ffffH
	DW	0ffffH
	DD	0fffffce9H
	DB	0cdH
	DB	0e5H
	DB	0eeH
	DB	0efH
	DB	0f0H
	DB	0e5H
	DB	0e4H
	DB	0e5H
	DB	0ebH
	DB	0e5H
	DB	0edH
	DB	0edH
	DB	0e0H
	DB	0ffH
	DB	020H
	DB	0eeH
	DB	0f8H
	DB	0e8H
	DB	0e1H
	DB	0eaH
	DB	0e0H
	DB	00H
	ORG $+178
	DW	0ffffH
	DW	0ffffH
	DD	0fffffceaH
	DB	0cdH
	DB	0e5H
	DB	0eeH
	DB	0efH
	DB	0f0H
	DB	0e5H
	DB	0e4H
	DB	0e5H
	DB	0ebH
	DB	0e5H
	DB	0edH
	DB	0edH
	DB	0e0H
	DB	0ffH
	DB	020H
	DB	0eeH
	DB	0f8H
	DB	0e8H
	DB	0e1H
	DB	0eaH
	DB	0e0H
	DB	00H
	ORG $+178
	DW	0ffffH
	DW	0ffffH
	DD	0fffffcebH
	DB	0cdH
	DB	0e5H
	DB	0eeH
	DB	0efH
	DB	0f0H
	DB	0e5H
	DB	0e4H
	DB	0e5H
	DB	0ebH
	DB	0e5H
	DB	0edH
	DB	0edH
	DB	0e0H
	DB	0ffH
	DB	020H
	DB	0eeH
	DB	0f8H
	DB	0e8H
	DB	0e1H
	DB	0eaH
	DB	0e0H
	DB	00H
	ORG $+178
	DW	0ffffH
	DW	0ffffH
	DD	0fffffcecH
	DB	0cdH
	DB	0e5H
	DB	0eeH
	DB	0efH
	DB	0f0H
	DB	0e5H
	DB	0e4H
	DB	0e5H
	DB	0ebH
	DB	0e5H
	DB	0edH
	DB	0edH
	DB	0e0H
	DB	0ffH
	DB	020H
	DB	0eeH
	DB	0f8H
	DB	0e8H
	DB	0e1H
	DB	0eaH
	DB	0e0H
	DB	00H
	ORG $+178
	DW	0ffffH
	DW	0ffffH
	DD	0fffffcedH
	DB	0cdH
	DB	0e5H
	DB	0eeH
	DB	0efH
	DB	0f0H
	DB	0e5H
	DB	0e4H
	DB	0e5H
	DB	0ebH
	DB	0e5H
	DB	0edH
	DB	0edH
	DB	0e0H
	DB	0ffH
	DB	020H
	DB	0eeH
	DB	0f8H
	DB	0e8H
	DB	0e1H
	DB	0eaH
	DB	0e0H
	DB	00H
	ORG $+178
	DW	0ffffH
	DW	0ffffH
	DD	0fffffceeH
	DB	0cdH
	DB	0e5H
	DB	0eeH
	DB	0efH
	DB	0f0H
	DB	0e5H
	DB	0e4H
	DB	0e5H
	DB	0ebH
	DB	0e5H
	DB	0edH
	DB	0edH
	DB	0e0H
	DB	0ffH
	DB	020H
	DB	0eeH
	DB	0f8H
	DB	0e8H
	DB	0e1H
	DB	0eaH
	DB	0e0H
	DB	00H
	ORG $+178
	DW	0ffffH
	DW	0ffffH
	DD	0fffffcefH
	DB	0cdH
	DB	0e5H
	DB	0eeH
	DB	0efH
	DB	0f0H
	DB	0e5H
	DB	0e4H
	DB	0e5H
	DB	0ebH
	DB	0e5H
	DB	0edH
	DB	0edH
	DB	0e0H
	DB	0ffH
	DB	020H
	DB	0eeH
	DB	0f8H
	DB	0e8H
	DB	0e1H
	DB	0eaH
	DB	0e0H
	DB	00H
	ORG $+178
	DW	0ffffH
	DW	0ffffH
	DD	0fffffcf0H
	DB	0cdH
	DB	0e5H
	DB	0eeH
	DB	0efH
	DB	0f0H
	DB	0e5H
	DB	0e4H
	DB	0e5H
	DB	0ebH
	DB	0e5H
	DB	0edH
	DB	0edH
	DB	0e0H
	DB	0ffH
	DB	020H
	DB	0eeH
	DB	0f8H
	DB	0e8H
	DB	0e1H
	DB	0eaH
	DB	0e0H
	DB	00H
	ORG $+178
	DW	0ffffH
	DW	0ffffH
	DD	0fffffcf1H
	DB	0cdH
	DB	0e5H
	DB	0eeH
	DB	0efH
	DB	0f0H
	DB	0e5H
	DB	0e4H
	DB	0e5H
	DB	0ebH
	DB	0e5H
	DB	0edH
	DB	0edH
	DB	0e0H
	DB	0ffH
	DB	020H
	DB	0eeH
	DB	0f8H
	DB	0e8H
	DB	0e1H
	DB	0eaH
	DB	0e0H
	DB	00H
	ORG $+178
	DW	0ffffH
	DW	0ffffH
	DD	0fffffcf2H
	DB	0cdH
	DB	0e5H
	DB	0eeH
	DB	0efH
	DB	0f0H
	DB	0e5H
	DB	0e4H
	DB	0e5H
	DB	0ebH
	DB	0e5H
	DB	0edH
	DB	0edH
	DB	0e0H
	DB	0ffH
	DB	020H
	DB	0eeH
	DB	0f8H
	DB	0e8H
	DB	0e1H
	DB	0eaH
	DB	0e0H
	DB	00H
	ORG $+178
	DW	0ffffH
	DW	0ffffH
	DD	0fffffcf3H
	DB	0cdH
	DB	0e5H
	DB	0eeH
	DB	0efH
	DB	0f0H
	DB	0e5H
	DB	0e4H
	DB	0e5H
	DB	0ebH
	DB	0e5H
	DB	0edH
	DB	0edH
	DB	0e0H
	DB	0ffH
	DB	020H
	DB	0eeH
	DB	0f8H
	DB	0e8H
	DB	0e1H
	DB	0eaH
	DB	0e0H
	DB	00H
	ORG $+178
	DW	0ffffH
	DW	0ffffH
	DD	0fffffcf4H
	DB	0cdH
	DB	0e5H
	DB	0eeH
	DB	0efH
	DB	0f0H
	DB	0e5H
	DB	0e4H
	DB	0e5H
	DB	0ebH
	DB	0e5H
	DB	0edH
	DB	0edH
	DB	0e0H
	DB	0ffH
	DB	020H
	DB	0eeH
	DB	0f8H
	DB	0e8H
	DB	0e1H
	DB	0eaH
	DB	0e0H
	DB	00H
	ORG $+178
	DW	0ffffH
	DW	0ffffH
	DD	0fffffcf5H
	DB	0cdH
	DB	0e5H
	DB	0eeH
	DB	0efH
	DB	0f0H
	DB	0e5H
	DB	0e4H
	DB	0e5H
	DB	0ebH
	DB	0e5H
	DB	0edH
	DB	0edH
	DB	0e0H
	DB	0ffH
	DB	020H
	DB	0eeH
	DB	0f8H
	DB	0e8H
	DB	0e1H
	DB	0eaH
	DB	0e0H
	DB	00H
	ORG $+178
	DW	0ffffH
	DW	0ffffH
	DD	0fffffcf6H
	DB	0cdH
	DB	0e5H
	DB	0eeH
	DB	0efH
	DB	0f0H
	DB	0e5H
	DB	0e4H
	DB	0e5H
	DB	0ebH
	DB	0e5H
	DB	0edH
	DB	0edH
	DB	0e0H
	DB	0ffH
	DB	020H
	DB	0eeH
	DB	0f8H
	DB	0e8H
	DB	0e1H
	DB	0eaH
	DB	0e0H
	DB	00H
	ORG $+178
	DW	0ffffH
	DW	0ffffH
	DD	0fffffcf7H
	DB	0cdH
	DB	0e5H
	DB	0eeH
	DB	0efH
	DB	0f0H
	DB	0e5H
	DB	0e4H
	DB	0e5H
	DB	0ebH
	DB	0e5H
	DB	0edH
	DB	0edH
	DB	0e0H
	DB	0ffH
	DB	020H
	DB	0eeH
	DB	0f8H
	DB	0e8H
	DB	0e1H
	DB	0eaH
	DB	0e0H
	DB	00H
	ORG $+178
	DW	0ffffH
	DW	0ffffH
	DD	0fffffcf8H
	DB	0cdH
	DB	0e5H
	DB	0eeH
	DB	0efH
	DB	0f0H
	DB	0e5H
	DB	0e4H
	DB	0e5H
	DB	0ebH
	DB	0e5H
	DB	0edH
	DB	0edH
	DB	0e0H
	DB	0ffH
	DB	020H
	DB	0eeH
	DB	0f8H
	DB	0e8H
	DB	0e1H
	DB	0eaH
	DB	0e0H
	DB	00H
	ORG $+178
	DW	0ffffH
	DW	0ffffH
	DD	0fffffcf9H
	DB	0cdH
	DB	0e5H
	DB	0eeH
	DB	0efH
	DB	0f0H
	DB	0e5H
	DB	0e4H
	DB	0e5H
	DB	0ebH
	DB	0e5H
	DB	0edH
	DB	0edH
	DB	0e0H
	DB	0ffH
	DB	020H
	DB	0eeH
	DB	0f8H
	DB	0e8H
	DB	0e1H
	DB	0eaH
	DB	0e0H
	DB	00H
	ORG $+178
	DW	0ffffH
	DW	0ffffH
	DD	0fffffcfaH
	DB	0cdH
	DB	0e5H
	DB	0eeH
	DB	0efH
	DB	0f0H
	DB	0e5H
	DB	0e4H
	DB	0e5H
	DB	0ebH
	DB	0e5H
	DB	0edH
	DB	0edH
	DB	0e0H
	DB	0ffH
	DB	020H
	DB	0eeH
	DB	0f8H
	DB	0e8H
	DB	0e1H
	DB	0eaH
	DB	0e0H
	DB	00H
	ORG $+178
	DW	0ffffH
	DW	0ffffH
	DD	0fffffcfbH
	DB	0cdH
	DB	0e5H
	DB	0eeH
	DB	0efH
	DB	0f0H
	DB	0e5H
	DB	0e4H
	DB	0e5H
	DB	0ebH
	DB	0e5H
	DB	0edH
	DB	0edH
	DB	0e0H
	DB	0ffH
	DB	020H
	DB	0eeH
	DB	0f8H
	DB	0e8H
	DB	0e1H
	DB	0eaH
	DB	0e0H
	DB	00H
	ORG $+178
	DW	0ffffH
	DW	0ffffH
	DD	0fffffcfcH
	DB	0cdH
	DB	0e5H
	DB	0eeH
	DB	0efH
	DB	0f0H
	DB	0e5H
	DB	0e4H
	DB	0e5H
	DB	0ebH
	DB	0e5H
	DB	0edH
	DB	0edH
	DB	0e0H
	DB	0ffH
	DB	020H
	DB	0eeH
	DB	0f8H
	DB	0e8H
	DB	0e1H
	DB	0eaH
	DB	0e0H
	DB	00H
	ORG $+178
	DW	0ffffH
	DW	0ffffH
	DD	0fffffcfdH
	DB	0cdH
	DB	0e5H
	DB	0eeH
	DB	0efH
	DB	0f0H
	DB	0e5H
	DB	0e4H
	DB	0e5H
	DB	0ebH
	DB	0e5H
	DB	0edH
	DB	0edH
	DB	0e0H
	DB	0ffH
	DB	020H
	DB	0eeH
	DB	0f8H
	DB	0e8H
	DB	0e1H
	DB	0eaH
	DB	0e0H
	DB	00H
	ORG $+178
	DW	0ffffH
	DW	0ffffH
	DD	0fffffcfeH
	DB	0cdH
	DB	0e5H
	DB	0eeH
	DB	0efH
	DB	0f0H
	DB	0e5H
	DB	0e4H
	DB	0e5H
	DB	0ebH
	DB	0e5H
	DB	0edH
	DB	0edH
	DB	0e0H
	DB	0ffH
	DB	020H
	DB	0eeH
	DB	0f8H
	DB	0e8H
	DB	0e1H
	DB	0eaH
	DB	0e0H
	DB	00H
	ORG $+178
	DW	0ffffH
	DW	0ffffH
	DD	0fffffcffH
	DB	0cdH
	DB	0e5H
	DB	0eeH
	DB	0efH
	DB	0f0H
	DB	0e5H
	DB	0e4H
	DB	0e5H
	DB	0ebH
	DB	0e5H
	DB	0edH
	DB	0edH
	DB	0e0H
	DB	0ffH
	DB	020H
	DB	0eeH
	DB	0f8H
	DB	0e8H
	DB	0e1H
	DB	0eaH
	DB	0e0H
	DB	00H
	ORG $+178
	DW	0ffffH
	DW	0ffffH
	DD	0fffffd00H
	DB	0cdH
	DB	0e5H
	DB	0eeH
	DB	0efH
	DB	0f0H
	DB	0e5H
	DB	0e4H
	DB	0e5H
	DB	0ebH
	DB	0e5H
	DB	0edH
	DB	0edH
	DB	0e0H
	DB	0ffH
	DB	020H
	DB	0eeH
	DB	0f8H
	DB	0e8H
	DB	0e1H
	DB	0eaH
	DB	0e0H
	DB	00H
	ORG $+178
	DW	0ffffH
	DW	0ffffH
	DD	0fffffd01H
	DB	0cdH
	DB	0e5H
	DB	0eeH
	DB	0efH
	DB	0f0H
	DB	0e5H
	DB	0e4H
	DB	0e5H
	DB	0ebH
	DB	0e5H
	DB	0edH
	DB	0edH
	DB	0e0H
	DB	0ffH
	DB	020H
	DB	0eeH
	DB	0f8H
	DB	0e8H
	DB	0e1H
	DB	0eaH
	DB	0e0H
	DB	00H
	ORG $+178
	DW	0ffffH
	DW	0ffffH
	DD	0fffffd02H
	DB	0cdH
	DB	0e5H
	DB	0eeH
	DB	0efH
	DB	0f0H
	DB	0e5H
	DB	0e4H
	DB	0e5H
	DB	0ebH
	DB	0e5H
	DB	0edH
	DB	0edH
	DB	0e0H
	DB	0ffH
	DB	020H
	DB	0eeH
	DB	0f8H
	DB	0e8H
	DB	0e1H
	DB	0eaH
	DB	0e0H
	DB	00H
	ORG $+178
	DW	0ffffH
	DW	0ffffH
	DD	0fffffd03H
	DB	0cdH
	DB	0e5H
	DB	0eeH
	DB	0efH
	DB	0f0H
	DB	0e5H
	DB	0e4H
	DB	0e5H
	DB	0ebH
	DB	0e5H
	DB	0edH
	DB	0edH
	DB	0e0H
	DB	0ffH
	DB	020H
	DB	0eeH
	DB	0f8H
	DB	0e8H
	DB	0e1H
	DB	0eaH
	DB	0e0H
	DB	00H
	ORG $+178
	DW	0ffffH
	DW	0ffffH
	DD	0fffffd04H
	DB	0cdH
	DB	0e5H
	DB	0eeH
	DB	0efH
	DB	0f0H
	DB	0e5H
	DB	0e4H
	DB	0e5H
	DB	0ebH
	DB	0e5H
	DB	0edH
	DB	0edH
	DB	0e0H
	DB	0ffH
	DB	020H
	DB	0eeH
	DB	0f8H
	DB	0e8H
	DB	0e1H
	DB	0eaH
	DB	0e0H
	DB	00H
	ORG $+178
	DW	0ffffH
	DW	0ffffH
	DD	0fffffd05H
	DB	0cdH
	DB	0e5H
	DB	0eeH
	DB	0efH
	DB	0f0H
	DB	0e5H
	DB	0e4H
	DB	0e5H
	DB	0ebH
	DB	0e5H
	DB	0edH
	DB	0edH
	DB	0e0H
	DB	0ffH
	DB	020H
	DB	0eeH
	DB	0f8H
	DB	0e8H
	DB	0e1H
	DB	0eaH
	DB	0e0H
	DB	00H
	ORG $+178
	DW	0ffffH
	DW	0ffffH
	DD	0fffffd06H
	DB	0cdH
	DB	0e5H
	DB	0eeH
	DB	0efH
	DB	0f0H
	DB	0e5H
	DB	0e4H
	DB	0e5H
	DB	0ebH
	DB	0e5H
	DB	0edH
	DB	0edH
	DB	0e0H
	DB	0ffH
	DB	020H
	DB	0eeH
	DB	0f8H
	DB	0e8H
	DB	0e1H
	DB	0eaH
	DB	0e0H
	DB	00H
	ORG $+178
	DW	0ffffH
	DW	0ffffH
	DD	0fffffd07H
	DB	0cdH
	DB	0e5H
	DB	0eeH
	DB	0efH
	DB	0f0H
	DB	0e5H
	DB	0e4H
	DB	0e5H
	DB	0ebH
	DB	0e5H
	DB	0edH
	DB	0edH
	DB	0e0H
	DB	0ffH
	DB	020H
	DB	0eeH
	DB	0f8H
	DB	0e8H
	DB	0e1H
	DB	0eaH
	DB	0e0H
	DB	00H
	ORG $+178
	DW	0ffffH
	DW	0ffffH
	DD	0fffffd08H
	DB	0cdH
	DB	0e5H
	DB	0eeH
	DB	0efH
	DB	0f0H
	DB	0e5H
	DB	0e4H
	DB	0e5H
	DB	0ebH
	DB	0e5H
	DB	0edH
	DB	0edH
	DB	0e0H
	DB	0ffH
	DB	020H
	DB	0eeH
	DB	0f8H
	DB	0e8H
	DB	0e1H
	DB	0eaH
	DB	0e0H
	DB	00H
	ORG $+178
	DW	0ffffH
	DW	0ffffH
	DD	0fffffd09H
	DB	0cdH
	DB	0e5H
	DB	0eeH
	DB	0efH
	DB	0f0H
	DB	0e5H
	DB	0e4H
	DB	0e5H
	DB	0ebH
	DB	0e5H
	DB	0edH
	DB	0edH
	DB	0e0H
	DB	0ffH
	DB	020H
	DB	0eeH
	DB	0f8H
	DB	0e8H
	DB	0e1H
	DB	0eaH
	DB	0e0H
	DB	00H
	ORG $+178
	DW	0ffffH
	DW	0ffffH
	DD	0fffffd0aH
	DB	0cdH
	DB	0e5H
	DB	0eeH
	DB	0efH
	DB	0f0H
	DB	0e5H
	DB	0e4H
	DB	0e5H
	DB	0ebH
	DB	0e5H
	DB	0edH
	DB	0edH
	DB	0e0H
	DB	0ffH
	DB	020H
	DB	0eeH
	DB	0f8H
	DB	0e8H
	DB	0e1H
	DB	0eaH
	DB	0e0H
	DB	00H
	ORG $+178
	DW	0ffffH
	DW	0ffffH
	DD	0fffffd0bH
	DB	0cdH
	DB	0e5H
	DB	0eeH
	DB	0efH
	DB	0f0H
	DB	0e5H
	DB	0e4H
	DB	0e5H
	DB	0ebH
	DB	0e5H
	DB	0edH
	DB	0edH
	DB	0e0H
	DB	0ffH
	DB	020H
	DB	0eeH
	DB	0f8H
	DB	0e8H
	DB	0e1H
	DB	0eaH
	DB	0e0H
	DB	00H
	ORG $+178
	DW	0ffffH
	DW	0ffffH
	DD	0fffffd0cH
	DB	0cdH
	DB	0e5H
	DB	0eeH
	DB	0efH
	DB	0f0H
	DB	0e5H
	DB	0e4H
	DB	0e5H
	DB	0ebH
	DB	0e5H
	DB	0edH
	DB	0edH
	DB	0e0H
	DB	0ffH
	DB	020H
	DB	0eeH
	DB	0f8H
	DB	0e8H
	DB	0e1H
	DB	0eaH
	DB	0e0H
	DB	00H
	ORG $+178
	DW	0ffffH
	DW	0ffffH
	DD	0fffffd0dH
	DB	0cdH
	DB	0e5H
	DB	0eeH
	DB	0efH
	DB	0f0H
	DB	0e5H
	DB	0e4H
	DB	0e5H
	DB	0ebH
	DB	0e5H
	DB	0edH
	DB	0edH
	DB	0e0H
	DB	0ffH
	DB	020H
	DB	0eeH
	DB	0f8H
	DB	0e8H
	DB	0e1H
	DB	0eaH
	DB	0e0H
	DB	00H
	ORG $+178
	DW	0ffffH
	DW	0ffffH
	DD	0fffffd0eH
	DB	0cdH
	DB	0e5H
	DB	0eeH
	DB	0efH
	DB	0f0H
	DB	0e5H
	DB	0e4H
	DB	0e5H
	DB	0ebH
	DB	0e5H
	DB	0edH
	DB	0edH
	DB	0e0H
	DB	0ffH
	DB	020H
	DB	0eeH
	DB	0f8H
	DB	0e8H
	DB	0e1H
	DB	0eaH
	DB	0e0H
	DB	00H
	ORG $+178
	DW	0ffffH
	DW	0ffffH
	DD	0fffffd0fH
	DB	0cdH
	DB	0e5H
	DB	0eeH
	DB	0efH
	DB	0f0H
	DB	0e5H
	DB	0e4H
	DB	0e5H
	DB	0ebH
	DB	0e5H
	DB	0edH
	DB	0edH
	DB	0e0H
	DB	0ffH
	DB	020H
	DB	0eeH
	DB	0f8H
	DB	0e8H
	DB	0e1H
	DB	0eaH
	DB	0e0H
	DB	00H
	ORG $+178
	DW	0ffffH
	DW	0ffffH
	DD	0fffffd10H
	DB	0cdH
	DB	0e5H
	DB	0eeH
	DB	0efH
	DB	0f0H
	DB	0e5H
	DB	0e4H
	DB	0e5H
	DB	0ebH
	DB	0e5H
	DB	0edH
	DB	0edH
	DB	0e0H
	DB	0ffH
	DB	020H
	DB	0eeH
	DB	0f8H
	DB	0e8H
	DB	0e1H
	DB	0eaH
	DB	0e0H
	DB	00H
	ORG $+178
	DW	0ffffH
	DW	0ffffH
	DD	0fffffd11H
	DB	0cdH
	DB	0e5H
	DB	0eeH
	DB	0efH
	DB	0f0H
	DB	0e5H
	DB	0e4H
	DB	0e5H
	DB	0ebH
	DB	0e5H
	DB	0edH
	DB	0edH
	DB	0e0H
	DB	0ffH
	DB	020H
	DB	0eeH
	DB	0f8H
	DB	0e8H
	DB	0e1H
	DB	0eaH
	DB	0e0H
	DB	00H
	ORG $+178
	DW	0ffffH
	DW	0ffffH
	DD	0fffffd12H
	DB	0cdH
	DB	0e5H
	DB	0eeH
	DB	0efH
	DB	0f0H
	DB	0e5H
	DB	0e4H
	DB	0e5H
	DB	0ebH
	DB	0e5H
	DB	0edH
	DB	0edH
	DB	0e0H
	DB	0ffH
	DB	020H
	DB	0eeH
	DB	0f8H
	DB	0e8H
	DB	0e1H
	DB	0eaH
	DB	0e0H
	DB	00H
	ORG $+178
	DW	0ffffH
	DW	0ffffH
	DD	0fffffd13H
	DB	0cdH
	DB	0e5H
	DB	0eeH
	DB	0efH
	DB	0f0H
	DB	0e5H
	DB	0e4H
	DB	0e5H
	DB	0ebH
	DB	0e5H
	DB	0edH
	DB	0edH
	DB	0e0H
	DB	0ffH
	DB	020H
	DB	0eeH
	DB	0f8H
	DB	0e8H
	DB	0e1H
	DB	0eaH
	DB	0e0H
	DB	00H
	ORG $+178
	DW	0ffffH
	DW	0ffffH
	DD	0fffffd14H
	DB	0cdH
	DB	0e5H
	DB	0eeH
	DB	0efH
	DB	0f0H
	DB	0e5H
	DB	0e4H
	DB	0e5H
	DB	0ebH
	DB	0e5H
	DB	0edH
	DB	0edH
	DB	0e0H
	DB	0ffH
	DB	020H
	DB	0eeH
	DB	0f8H
	DB	0e8H
	DB	0e1H
	DB	0eaH
	DB	0e0H
	DB	00H
	ORG $+178
	DW	0ffffH
	DW	0ffffH
	DD	0fffffd15H
	DB	0cdH
	DB	0e5H
	DB	0eeH
	DB	0efH
	DB	0f0H
	DB	0e5H
	DB	0e4H
	DB	0e5H
	DB	0ebH
	DB	0e5H
	DB	0edH
	DB	0edH
	DB	0e0H
	DB	0ffH
	DB	020H
	DB	0eeH
	DB	0f8H
	DB	0e8H
	DB	0e1H
	DB	0eaH
	DB	0e0H
	DB	00H
	ORG $+178
	DW	0ffffH
	DW	0ffffH
	DD	0fffffd16H
	DB	0cdH
	DB	0e5H
	DB	0eeH
	DB	0efH
	DB	0f0H
	DB	0e5H
	DB	0e4H
	DB	0e5H
	DB	0ebH
	DB	0e5H
	DB	0edH
	DB	0edH
	DB	0e0H
	DB	0ffH
	DB	020H
	DB	0eeH
	DB	0f8H
	DB	0e8H
	DB	0e1H
	DB	0eaH
	DB	0e0H
	DB	00H
	ORG $+178
	DW	0ffffH
	DW	0ffffH
	DD	0fffffd17H
	DB	0cdH
	DB	0e5H
	DB	0eeH
	DB	0efH
	DB	0f0H
	DB	0e5H
	DB	0e4H
	DB	0e5H
	DB	0ebH
	DB	0e5H
	DB	0edH
	DB	0edH
	DB	0e0H
	DB	0ffH
	DB	020H
	DB	0eeH
	DB	0f8H
	DB	0e8H
	DB	0e1H
	DB	0eaH
	DB	0e0H
	DB	00H
	ORG $+178
	DW	0ffffH
	DW	0ffffH
	DD	0fffffd18H
	DB	0cdH
	DB	0e5H
	DB	0eeH
	DB	0efH
	DB	0f0H
	DB	0e5H
	DB	0e4H
	DB	0e5H
	DB	0ebH
	DB	0e5H
	DB	0edH
	DB	0edH
	DB	0e0H
	DB	0ffH
	DB	020H
	DB	0eeH
	DB	0f8H
	DB	0e8H
	DB	0e1H
	DB	0eaH
	DB	0e0H
	DB	00H
	ORG $+178
	DW	0ffffH
	DW	0ffffH
	DD	0fffffd19H
	DB	0cdH
	DB	0e5H
	DB	0eeH
	DB	0efH
	DB	0f0H
	DB	0e5H
	DB	0e4H
	DB	0e5H
	DB	0ebH
	DB	0e5H
	DB	0edH
	DB	0edH
	DB	0e0H
	DB	0ffH
	DB	020H
	DB	0eeH
	DB	0f8H
	DB	0e8H
	DB	0e1H
	DB	0eaH
	DB	0e0H
	DB	00H
	ORG $+178
	DW	0ffffH
	DW	0ffffH
	DD	0fffffd1aH
	DB	0cdH
	DB	0e5H
	DB	0eeH
	DB	0efH
	DB	0f0H
	DB	0e5H
	DB	0e4H
	DB	0e5H
	DB	0ebH
	DB	0e5H
	DB	0edH
	DB	0edH
	DB	0e0H
	DB	0ffH
	DB	020H
	DB	0eeH
	DB	0f8H
	DB	0e8H
	DB	0e1H
	DB	0eaH
	DB	0e0H
	DB	00H
	ORG $+178
	DW	0ffffH
	DW	0ffffH
	DD	0fffffd1bH
	DB	0cdH
	DB	0e5H
	DB	0eeH
	DB	0efH
	DB	0f0H
	DB	0e5H
	DB	0e4H
	DB	0e5H
	DB	0ebH
	DB	0e5H
	DB	0edH
	DB	0edH
	DB	0e0H
	DB	0ffH
	DB	020H
	DB	0eeH
	DB	0f8H
	DB	0e8H
	DB	0e1H
	DB	0eaH
	DB	0e0H
	DB	00H
	ORG $+178
	DW	0ffffH
	DW	0ffffH
	DD	0fffffd1cH
	DB	0cdH
	DB	0e5H
	DB	0eeH
	DB	0efH
	DB	0f0H
	DB	0e5H
	DB	0e4H
	DB	0e5H
	DB	0ebH
	DB	0e5H
	DB	0edH
	DB	0edH
	DB	0e0H
	DB	0ffH
	DB	020H
	DB	0eeH
	DB	0f8H
	DB	0e8H
	DB	0e1H
	DB	0eaH
	DB	0e0H
	DB	00H
	ORG $+178
	DW	0ffffH
	DW	0ffffH
	DD	0fffffd1dH
	DB	0cdH
	DB	0e5H
	DB	0eeH
	DB	0efH
	DB	0f0H
	DB	0e5H
	DB	0e4H
	DB	0e5H
	DB	0ebH
	DB	0e5H
	DB	0edH
	DB	0edH
	DB	0e0H
	DB	0ffH
	DB	020H
	DB	0eeH
	DB	0f8H
	DB	0e8H
	DB	0e1H
	DB	0eaH
	DB	0e0H
	DB	00H
	ORG $+178
	DW	0ffffH
	DW	0ffffH
	DD	0fffffd1eH
	DB	0cdH
	DB	0e5H
	DB	0eeH
	DB	0efH
	DB	0f0H
	DB	0e5H
	DB	0e4H
	DB	0e5H
	DB	0ebH
	DB	0e5H
	DB	0edH
	DB	0edH
	DB	0e0H
	DB	0ffH
	DB	020H
	DB	0eeH
	DB	0f8H
	DB	0e8H
	DB	0e1H
	DB	0eaH
	DB	0e0H
	DB	00H
	ORG $+178
	DW	0ffffH
	DW	0ffffH
	DD	0fffffd1fH
	DB	0cdH
	DB	0e5H
	DB	0eeH
	DB	0efH
	DB	0f0H
	DB	0e5H
	DB	0e4H
	DB	0e5H
	DB	0ebH
	DB	0e5H
	DB	0edH
	DB	0edH
	DB	0e0H
	DB	0ffH
	DB	020H
	DB	0eeH
	DB	0f8H
	DB	0e8H
	DB	0e1H
	DB	0eaH
	DB	0e0H
	DB	00H
	ORG $+178
	DW	0ffffH
	DW	0ffffH
	DD	0fffffd20H
	DB	0cdH
	DB	0e5H
	DB	0eeH
	DB	0efH
	DB	0f0H
	DB	0e5H
	DB	0e4H
	DB	0e5H
	DB	0ebH
	DB	0e5H
	DB	0edH
	DB	0edH
	DB	0e0H
	DB	0ffH
	DB	020H
	DB	0eeH
	DB	0f8H
	DB	0e8H
	DB	0e1H
	DB	0eaH
	DB	0e0H
	DB	00H
	ORG $+178
	DW	0ffffH
	DW	0ffffH
	DD	0fffffd21H
	DB	0cdH
	DB	0e5H
	DB	0eeH
	DB	0efH
	DB	0f0H
	DB	0e5H
	DB	0e4H
	DB	0e5H
	DB	0ebH
	DB	0e5H
	DB	0edH
	DB	0edH
	DB	0e0H
	DB	0ffH
	DB	020H
	DB	0eeH
	DB	0f8H
	DB	0e8H
	DB	0e1H
	DB	0eaH
	DB	0e0H
	DB	00H
	ORG $+178
	DW	0ffffH
	DW	0ffffH
	DD	0fffffd22H
	DB	0cdH
	DB	0e5H
	DB	0eeH
	DB	0efH
	DB	0f0H
	DB	0e5H
	DB	0e4H
	DB	0e5H
	DB	0ebH
	DB	0e5H
	DB	0edH
	DB	0edH
	DB	0e0H
	DB	0ffH
	DB	020H
	DB	0eeH
	DB	0f8H
	DB	0e8H
	DB	0e1H
	DB	0eaH
	DB	0e0H
	DB	00H
	ORG $+178
	DW	0ffffH
	DW	0ffffH
	DD	0fffffd23H
	DB	0cdH
	DB	0e5H
	DB	0eeH
	DB	0efH
	DB	0f0H
	DB	0e5H
	DB	0e4H
	DB	0e5H
	DB	0ebH
	DB	0e5H
	DB	0edH
	DB	0edH
	DB	0e0H
	DB	0ffH
	DB	020H
	DB	0eeH
	DB	0f8H
	DB	0e8H
	DB	0e1H
	DB	0eaH
	DB	0e0H
	DB	00H
	ORG $+178
	DW	0ffffH
	DW	0ffffH
	DD	0fffffd24H
	DB	0cdH
	DB	0e5H
	DB	0eeH
	DB	0efH
	DB	0f0H
	DB	0e5H
	DB	0e4H
	DB	0e5H
	DB	0ebH
	DB	0e5H
	DB	0edH
	DB	0edH
	DB	0e0H
	DB	0ffH
	DB	020H
	DB	0eeH
	DB	0f8H
	DB	0e8H
	DB	0e1H
	DB	0eaH
	DB	0e0H
	DB	00H
	ORG $+178
	DW	0ffffH
	DW	0ffffH
	DD	0fffffd25H
	DB	0cdH
	DB	0e5H
	DB	0eeH
	DB	0efH
	DB	0f0H
	DB	0e5H
	DB	0e4H
	DB	0e5H
	DB	0ebH
	DB	0e5H
	DB	0edH
	DB	0edH
	DB	0e0H
	DB	0ffH
	DB	020H
	DB	0eeH
	DB	0f8H
	DB	0e8H
	DB	0e1H
	DB	0eaH
	DB	0e0H
	DB	00H
	ORG $+178
	DW	0ffffH
	DW	0ffffH
	DD	0fffffd26H
	DB	0cdH
	DB	0e5H
	DB	0eeH
	DB	0efH
	DB	0f0H
	DB	0e5H
	DB	0e4H
	DB	0e5H
	DB	0ebH
	DB	0e5H
	DB	0edH
	DB	0edH
	DB	0e0H
	DB	0ffH
	DB	020H
	DB	0eeH
	DB	0f8H
	DB	0e8H
	DB	0e1H
	DB	0eaH
	DB	0e0H
	DB	00H
	ORG $+178
	DW	0ffffH
	DW	0ffffH
	DD	0fffffd27H
	DB	0cdH
	DB	0e5H
	DB	0eeH
	DB	0efH
	DB	0f0H
	DB	0e5H
	DB	0e4H
	DB	0e5H
	DB	0ebH
	DB	0e5H
	DB	0edH
	DB	0edH
	DB	0e0H
	DB	0ffH
	DB	020H
	DB	0eeH
	DB	0f8H
	DB	0e8H
	DB	0e1H
	DB	0eaH
	DB	0e0H
	DB	00H
	ORG $+178
	DW	0ffffH
	DW	0ffffH
	DD	0fffffd28H
	DB	0cdH
	DB	0e5H
	DB	0eeH
	DB	0efH
	DB	0f0H
	DB	0e5H
	DB	0e4H
	DB	0e5H
	DB	0ebH
	DB	0e5H
	DB	0edH
	DB	0edH
	DB	0e0H
	DB	0ffH
	DB	020H
	DB	0eeH
	DB	0f8H
	DB	0e8H
	DB	0e1H
	DB	0eaH
	DB	0e0H
	DB	00H
	ORG $+178
	DW	0ffffH
	DW	0ffffH
	DD	0fffffd29H
	DB	0cdH
	DB	0e5H
	DB	0eeH
	DB	0efH
	DB	0f0H
	DB	0e5H
	DB	0e4H
	DB	0e5H
	DB	0ebH
	DB	0e5H
	DB	0edH
	DB	0edH
	DB	0e0H
	DB	0ffH
	DB	020H
	DB	0eeH
	DB	0f8H
	DB	0e8H
	DB	0e1H
	DB	0eaH
	DB	0e0H
	DB	00H
	ORG $+178
	DW	0ffffH
	DW	0ffffH
	DD	0fffffd2aH
	DB	0cdH
	DB	0e5H
	DB	0eeH
	DB	0efH
	DB	0f0H
	DB	0e5H
	DB	0e4H
	DB	0e5H
	DB	0ebH
	DB	0e5H
	DB	0edH
	DB	0edH
	DB	0e0H
	DB	0ffH
	DB	020H
	DB	0eeH
	DB	0f8H
	DB	0e8H
	DB	0e1H
	DB	0eaH
	DB	0e0H
	DB	00H
	ORG $+178
	DW	0ffffH
	DW	0ffffH
	DD	0fffffd2bH
	DB	0cdH
	DB	0e5H
	DB	0eeH
	DB	0efH
	DB	0f0H
	DB	0e5H
	DB	0e4H
	DB	0e5H
	DB	0ebH
	DB	0e5H
	DB	0edH
	DB	0edH
	DB	0e0H
	DB	0ffH
	DB	020H
	DB	0eeH
	DB	0f8H
	DB	0e8H
	DB	0e1H
	DB	0eaH
	DB	0e0H
	DB	00H
	ORG $+178
	DW	0ffffH
	DW	0ffffH
	DD	0fffffd2cH
	DB	0cdH
	DB	0e5H
	DB	0eeH
	DB	0efH
	DB	0f0H
	DB	0e5H
	DB	0e4H
	DB	0e5H
	DB	0ebH
	DB	0e5H
	DB	0edH
	DB	0edH
	DB	0e0H
	DB	0ffH
	DB	020H
	DB	0eeH
	DB	0f8H
	DB	0e8H
	DB	0e1H
	DB	0eaH
	DB	0e0H
	DB	00H
	ORG $+178
	DW	0ffffH
	DW	0ffffH
	DD	0fffffd2dH
	DB	0cdH
	DB	0e5H
	DB	0eeH
	DB	0efH
	DB	0f0H
	DB	0e5H
	DB	0e4H
	DB	0e5H
	DB	0ebH
	DB	0e5H
	DB	0edH
	DB	0edH
	DB	0e0H
	DB	0ffH
	DB	020H
	DB	0eeH
	DB	0f8H
	DB	0e8H
	DB	0e1H
	DB	0eaH
	DB	0e0H
	DB	00H
	ORG $+178
	DW	0ffffH
	DW	0ffffH
	DD	0fffffd2eH
	DB	0cdH
	DB	0e5H
	DB	0eeH
	DB	0efH
	DB	0f0H
	DB	0e5H
	DB	0e4H
	DB	0e5H
	DB	0ebH
	DB	0e5H
	DB	0edH
	DB	0edH
	DB	0e0H
	DB	0ffH
	DB	020H
	DB	0eeH
	DB	0f8H
	DB	0e8H
	DB	0e1H
	DB	0eaH
	DB	0e0H
	DB	00H
	ORG $+178
	DW	0ffffH
	DW	0ffffH
	DD	0fffffd2fH
	DB	0cdH
	DB	0e5H
	DB	0eeH
	DB	0efH
	DB	0f0H
	DB	0e5H
	DB	0e4H
	DB	0e5H
	DB	0ebH
	DB	0e5H
	DB	0edH
	DB	0edH
	DB	0e0H
	DB	0ffH
	DB	020H
	DB	0eeH
	DB	0f8H
	DB	0e8H
	DB	0e1H
	DB	0eaH
	DB	0e0H
	DB	00H
	ORG $+178
	DW	0ffffH
	DW	0ffffH
	DD	0fffffd30H
	DB	0cdH
	DB	0e5H
	DB	0eeH
	DB	0efH
	DB	0f0H
	DB	0e5H
	DB	0e4H
	DB	0e5H
	DB	0ebH
	DB	0e5H
	DB	0edH
	DB	0edH
	DB	0e0H
	DB	0ffH
	DB	020H
	DB	0eeH
	DB	0f8H
	DB	0e8H
	DB	0e1H
	DB	0eaH
	DB	0e0H
	DB	00H
	ORG $+178
	DW	0ffffH
	DW	0ffffH
	DD	0fffffd31H
	DB	0cdH
	DB	0e5H
	DB	0eeH
	DB	0efH
	DB	0f0H
	DB	0e5H
	DB	0e4H
	DB	0e5H
	DB	0ebH
	DB	0e5H
	DB	0edH
	DB	0edH
	DB	0e0H
	DB	0ffH
	DB	020H
	DB	0eeH
	DB	0f8H
	DB	0e8H
	DB	0e1H
	DB	0eaH
	DB	0e0H
	DB	00H
	ORG $+178
	DW	0ffffH
	DW	0ffffH
	DD	0fffffd32H
	DB	0cdH
	DB	0e5H
	DB	0eeH
	DB	0efH
	DB	0f0H
	DB	0e5H
	DB	0e4H
	DB	0e5H
	DB	0ebH
	DB	0e5H
	DB	0edH
	DB	0edH
	DB	0e0H
	DB	0ffH
	DB	020H
	DB	0eeH
	DB	0f8H
	DB	0e8H
	DB	0e1H
	DB	0eaH
	DB	0e0H
	DB	00H
	ORG $+178
	DW	0ffffH
	DW	0ffffH
	DD	0fffffd33H
	DB	0cdH
	DB	0e5H
	DB	0eeH
	DB	0efH
	DB	0f0H
	DB	0e5H
	DB	0e4H
	DB	0e5H
	DB	0ebH
	DB	0e5H
	DB	0edH
	DB	0edH
	DB	0e0H
	DB	0ffH
	DB	020H
	DB	0eeH
	DB	0f8H
	DB	0e8H
	DB	0e1H
	DB	0eaH
	DB	0e0H
	DB	00H
	ORG $+178
	DW	0ffffH
	DW	0ffffH
	DD	0fffffd34H
	DB	0cdH
	DB	0e5H
	DB	0eeH
	DB	0efH
	DB	0f0H
	DB	0e5H
	DB	0e4H
	DB	0e5H
	DB	0ebH
	DB	0e5H
	DB	0edH
	DB	0edH
	DB	0e0H
	DB	0ffH
	DB	020H
	DB	0eeH
	DB	0f8H
	DB	0e8H
	DB	0e1H
	DB	0eaH
	DB	0e0H
	DB	00H
	ORG $+178
	DW	0ffffH
	DW	0ffffH
	DD	0fffffd35H
	DB	0cdH
	DB	0e5H
	DB	0eeH
	DB	0efH
	DB	0f0H
	DB	0e5H
	DB	0e4H
	DB	0e5H
	DB	0ebH
	DB	0e5H
	DB	0edH
	DB	0edH
	DB	0e0H
	DB	0ffH
	DB	020H
	DB	0eeH
	DB	0f8H
	DB	0e8H
	DB	0e1H
	DB	0eaH
	DB	0e0H
	DB	00H
	ORG $+178
	DW	0ffffH
	DW	0ffffH
	DD	0fffffd36H
	DB	0cdH
	DB	0e5H
	DB	0eeH
	DB	0efH
	DB	0f0H
	DB	0e5H
	DB	0e4H
	DB	0e5H
	DB	0ebH
	DB	0e5H
	DB	0edH
	DB	0edH
	DB	0e0H
	DB	0ffH
	DB	020H
	DB	0eeH
	DB	0f8H
	DB	0e8H
	DB	0e1H
	DB	0eaH
	DB	0e0H
	DB	00H
	ORG $+178
	DW	0ffffH
	DW	0ffffH
	DD	0fffffd37H
	DB	0cdH
	DB	0e5H
	DB	0eeH
	DB	0efH
	DB	0f0H
	DB	0e5H
	DB	0e4H
	DB	0e5H
	DB	0ebH
	DB	0e5H
	DB	0edH
	DB	0edH
	DB	0e0H
	DB	0ffH
	DB	020H
	DB	0eeH
	DB	0f8H
	DB	0e8H
	DB	0e1H
	DB	0eaH
	DB	0e0H
	DB	00H
	ORG $+178
	DW	0ffffH
	DW	0ffffH
	DD	0fffffd38H
	DB	0cdH
	DB	0e5H
	DB	0eeH
	DB	0efH
	DB	0f0H
	DB	0e5H
	DB	0e4H
	DB	0e5H
	DB	0ebH
	DB	0e5H
	DB	0edH
	DB	0edH
	DB	0e0H
	DB	0ffH
	DB	020H
	DB	0eeH
	DB	0f8H
	DB	0e8H
	DB	0e1H
	DB	0eaH
	DB	0e0H
	DB	00H
	ORG $+178
	DW	0ffffH
	DW	0ffffH
	DD	0fffffd39H
	DB	0cdH
	DB	0e5H
	DB	0eeH
	DB	0efH
	DB	0f0H
	DB	0e5H
	DB	0e4H
	DB	0e5H
	DB	0ebH
	DB	0e5H
	DB	0edH
	DB	0edH
	DB	0e0H
	DB	0ffH
	DB	020H
	DB	0eeH
	DB	0f8H
	DB	0e8H
	DB	0e1H
	DB	0eaH
	DB	0e0H
	DB	00H
	ORG $+178
	DW	0ffffH
	DW	0ffffH
	DD	0fffffd3aH
	DB	0cdH
	DB	0e5H
	DB	0eeH
	DB	0efH
	DB	0f0H
	DB	0e5H
	DB	0e4H
	DB	0e5H
	DB	0ebH
	DB	0e5H
	DB	0edH
	DB	0edH
	DB	0e0H
	DB	0ffH
	DB	020H
	DB	0eeH
	DB	0f8H
	DB	0e8H
	DB	0e1H
	DB	0eaH
	DB	0e0H
	DB	00H
	ORG $+178
	DW	0ffffH
	DW	0ffffH
	DD	0fffffd3bH
	DB	0cdH
	DB	0e5H
	DB	0eeH
	DB	0efH
	DB	0f0H
	DB	0e5H
	DB	0e4H
	DB	0e5H
	DB	0ebH
	DB	0e5H
	DB	0edH
	DB	0edH
	DB	0e0H
	DB	0ffH
	DB	020H
	DB	0eeH
	DB	0f8H
	DB	0e8H
	DB	0e1H
	DB	0eaH
	DB	0e0H
	DB	00H
	ORG $+178
	DW	0ffffH
	DW	0ffffH
	DD	0fffffd3cH
	DB	0cdH
	DB	0e5H
	DB	0eeH
	DB	0efH
	DB	0f0H
	DB	0e5H
	DB	0e4H
	DB	0e5H
	DB	0ebH
	DB	0e5H
	DB	0edH
	DB	0edH
	DB	0e0H
	DB	0ffH
	DB	020H
	DB	0eeH
	DB	0f8H
	DB	0e8H
	DB	0e1H
	DB	0eaH
	DB	0e0H
	DB	00H
	ORG $+178
	DW	0ffffH
	DW	0ffffH
	DD	0fffffd3dH
	DB	0cdH
	DB	0e5H
	DB	0eeH
	DB	0efH
	DB	0f0H
	DB	0e5H
	DB	0e4H
	DB	0e5H
	DB	0ebH
	DB	0e5H
	DB	0edH
	DB	0edH
	DB	0e0H
	DB	0ffH
	DB	020H
	DB	0eeH
	DB	0f8H
	DB	0e8H
	DB	0e1H
	DB	0eaH
	DB	0e0H
	DB	00H
	ORG $+178
	DW	0ffffH
	DW	0ffffH
	DD	0fffffd3eH
	DB	0cdH
	DB	0e5H
	DB	0eeH
	DB	0efH
	DB	0f0H
	DB	0e5H
	DB	0e4H
	DB	0e5H
	DB	0ebH
	DB	0e5H
	DB	0edH
	DB	0edH
	DB	0e0H
	DB	0ffH
	DB	020H
	DB	0eeH
	DB	0f8H
	DB	0e8H
	DB	0e1H
	DB	0eaH
	DB	0e0H
	DB	00H
	ORG $+178
	DW	0ffffH
	DW	0ffffH
	DD	0fffffd3fH
	DB	0cdH
	DB	0e5H
	DB	0eeH
	DB	0efH
	DB	0f0H
	DB	0e5H
	DB	0e4H
	DB	0e5H
	DB	0ebH
	DB	0e5H
	DB	0edH
	DB	0edH
	DB	0e0H
	DB	0ffH
	DB	020H
	DB	0eeH
	DB	0f8H
	DB	0e8H
	DB	0e1H
	DB	0eaH
	DB	0e0H
	DB	00H
	ORG $+178
	DW	0ffffH
	DW	0ffffH
	DD	0fffffd40H
	DB	0cdH
	DB	0e5H
	DB	0eeH
	DB	0efH
	DB	0f0H
	DB	0e5H
	DB	0e4H
	DB	0e5H
	DB	0ebH
	DB	0e5H
	DB	0edH
	DB	0edH
	DB	0e0H
	DB	0ffH
	DB	020H
	DB	0eeH
	DB	0f8H
	DB	0e8H
	DB	0e1H
	DB	0eaH
	DB	0e0H
	DB	00H
	ORG $+178
	DW	0ffffH
	DW	0ffffH
	DD	0fffffd41H
	DB	0cdH
	DB	0e5H
	DB	0eeH
	DB	0efH
	DB	0f0H
	DB	0e5H
	DB	0e4H
	DB	0e5H
	DB	0ebH
	DB	0e5H
	DB	0edH
	DB	0edH
	DB	0e0H
	DB	0ffH
	DB	020H
	DB	0eeH
	DB	0f8H
	DB	0e8H
	DB	0e1H
	DB	0eaH
	DB	0e0H
	DB	00H
	ORG $+178
	DW	0ffffH
	DW	0ffffH
	DD	0fffffd42H
	DB	0cdH
	DB	0e5H
	DB	0eeH
	DB	0efH
	DB	0f0H
	DB	0e5H
	DB	0e4H
	DB	0e5H
	DB	0ebH
	DB	0e5H
	DB	0edH
	DB	0edH
	DB	0e0H
	DB	0ffH
	DB	020H
	DB	0eeH
	DB	0f8H
	DB	0e8H
	DB	0e1H
	DB	0eaH
	DB	0e0H
	DB	00H
	ORG $+178
	DW	0ffffH
	DW	0ffffH
	DD	0fffffd43H
	DB	0cdH
	DB	0e5H
	DB	0eeH
	DB	0efH
	DB	0f0H
	DB	0e5H
	DB	0e4H
	DB	0e5H
	DB	0ebH
	DB	0e5H
	DB	0edH
	DB	0edH
	DB	0e0H
	DB	0ffH
	DB	020H
	DB	0eeH
	DB	0f8H
	DB	0e8H
	DB	0e1H
	DB	0eaH
	DB	0e0H
	DB	00H
	ORG $+178
	DW	0ffffH
	DW	0ffffH
	DD	0fffffc7cH
	DB	0cdH
	DB	0e5H
	DB	0eeH
	DB	0efH
	DB	0f0H
	DB	0e5H
	DB	0e4H
	DB	0e5H
	DB	0ebH
	DB	0e5H
	DB	0edH
	DB	0edH
	DB	0e0H
	DB	0ffH
	DB	020H
	DB	0eeH
	DB	0f8H
	DB	0e8H
	DB	0e1H
	DB	0eaH
	DB	0e0H
	DB	00H
	ORG $+178
	DW	0ffffH
	DW	0ffffH
	DD	0fffffc7dH
	DB	0cdH
	DB	0e5H
	DB	0eeH
	DB	0efH
	DB	0f0H
	DB	0e5H
	DB	0e4H
	DB	0e5H
	DB	0ebH
	DB	0e5H
	DB	0edH
	DB	0edH
	DB	0e0H
	DB	0ffH
	DB	020H
	DB	0eeH
	DB	0f8H
	DB	0e8H
	DB	0e1H
	DB	0eaH
	DB	0e0H
	DB	00H
	ORG $+178
	DW	0ffffH
	DW	0ffffH
	DD	0fffffc7eH
	DB	0cdH
	DB	0e5H
	DB	0eeH
	DB	0efH
	DB	0f0H
	DB	0e5H
	DB	0e4H
	DB	0e5H
	DB	0ebH
	DB	0e5H
	DB	0edH
	DB	0edH
	DB	0e0H
	DB	0ffH
	DB	020H
	DB	0eeH
	DB	0f8H
	DB	0e8H
	DB	0e1H
	DB	0eaH
	DB	0e0H
	DB	00H
	ORG $+178
	DW	0ffffH
	DW	0ffffH
	DD	0fffffc7fH
	DB	0cdH
	DB	0e5H
	DB	0eeH
	DB	0efH
	DB	0f0H
	DB	0e5H
	DB	0e4H
	DB	0e5H
	DB	0ebH
	DB	0e5H
	DB	0edH
	DB	0edH
	DB	0e0H
	DB	0ffH
	DB	020H
	DB	0eeH
	DB	0f8H
	DB	0e8H
	DB	0e1H
	DB	0eaH
	DB	0e0H
	DB	00H
	ORG $+178
	DW	0ffffH
	DW	0ffffH
	DD	0fffffc80H
	DB	0cdH
	DB	0e5H
	DB	0eeH
	DB	0efH
	DB	0f0H
	DB	0e5H
	DB	0e4H
	DB	0e5H
	DB	0ebH
	DB	0e5H
	DB	0edH
	DB	0edH
	DB	0e0H
	DB	0ffH
	DB	020H
	DB	0eeH
	DB	0f8H
	DB	0e8H
	DB	0e1H
	DB	0eaH
	DB	0e0H
	DB	00H
	ORG $+178
	DW	0ffffH
	DW	0ffffH
	DD	0fffffc81H
	DB	0cdH
	DB	0e5H
	DB	0eeH
	DB	0efH
	DB	0f0H
	DB	0e5H
	DB	0e4H
	DB	0e5H
	DB	0ebH
	DB	0e5H
	DB	0edH
	DB	0edH
	DB	0e0H
	DB	0ffH
	DB	020H
	DB	0eeH
	DB	0f8H
	DB	0e8H
	DB	0e1H
	DB	0eaH
	DB	0e0H
	DB	00H
	ORG $+178
	DW	0ffffH
	DW	0ffffH
	DD	0fffffc82H
	DB	0cdH
	DB	0e5H
	DB	0eeH
	DB	0efH
	DB	0f0H
	DB	0e5H
	DB	0e4H
	DB	0e5H
	DB	0ebH
	DB	0e5H
	DB	0edH
	DB	0edH
	DB	0e0H
	DB	0ffH
	DB	020H
	DB	0eeH
	DB	0f8H
	DB	0e8H
	DB	0e1H
	DB	0eaH
	DB	0e0H
	DB	00H
	ORG $+178
	DW	0ffffH
	DW	0ffffH
	DD	0fffffc83H
	DB	0cdH
	DB	0e5H
	DB	0eeH
	DB	0efH
	DB	0f0H
	DB	0e5H
	DB	0e4H
	DB	0e5H
	DB	0ebH
	DB	0e5H
	DB	0edH
	DB	0edH
	DB	0e0H
	DB	0ffH
	DB	020H
	DB	0eeH
	DB	0f8H
	DB	0e8H
	DB	0e1H
	DB	0eaH
	DB	0e0H
	DB	00H
	ORG $+178
	DW	0ffffH
	DW	0ffffH
	DD	0fffffc84H
	DB	0cdH
	DB	0e5H
	DB	0eeH
	DB	0efH
	DB	0f0H
	DB	0e5H
	DB	0e4H
	DB	0e5H
	DB	0ebH
	DB	0e5H
	DB	0edH
	DB	0edH
	DB	0e0H
	DB	0ffH
	DB	020H
	DB	0eeH
	DB	0f8H
	DB	0e8H
	DB	0e1H
	DB	0eaH
	DB	0e0H
	DB	00H
	ORG $+178
	DW	0ffffH
	DW	0ffffH
	DD	0fffffc85H
	DB	0cdH
	DB	0e5H
	DB	0eeH
	DB	0efH
	DB	0f0H
	DB	0e5H
	DB	0e4H
	DB	0e5H
	DB	0ebH
	DB	0e5H
	DB	0edH
	DB	0edH
	DB	0e0H
	DB	0ffH
	DB	020H
	DB	0eeH
	DB	0f8H
	DB	0e8H
	DB	0e1H
	DB	0eaH
	DB	0e0H
	DB	00H
	ORG $+178
	DW	0ffffH
	DW	0ffffH
	DD	0fffffc86H
	DB	0cdH
	DB	0e5H
	DB	0eeH
	DB	0efH
	DB	0f0H
	DB	0e5H
	DB	0e4H
	DB	0e5H
	DB	0ebH
	DB	0e5H
	DB	0edH
	DB	0edH
	DB	0e0H
	DB	0ffH
	DB	020H
	DB	0eeH
	DB	0f8H
	DB	0e8H
	DB	0e1H
	DB	0eaH
	DB	0e0H
	DB	00H
	ORG $+178
	DW	0ffffH
	DW	0ffffH
	DD	0fffffc87H
	DB	0cdH
	DB	0e5H
	DB	0eeH
	DB	0efH
	DB	0f0H
	DB	0e5H
	DB	0e4H
	DB	0e5H
	DB	0ebH
	DB	0e5H
	DB	0edH
	DB	0edH
	DB	0e0H
	DB	0ffH
	DB	020H
	DB	0eeH
	DB	0f8H
	DB	0e8H
	DB	0e1H
	DB	0eaH
	DB	0e0H
	DB	00H
	ORG $+178
	DW	0ffffH
	DW	0ffffH
	DD	0fffffc88H
	DB	0cdH
	DB	0e5H
	DB	0eeH
	DB	0efH
	DB	0f0H
	DB	0e5H
	DB	0e4H
	DB	0e5H
	DB	0ebH
	DB	0e5H
	DB	0edH
	DB	0edH
	DB	0e0H
	DB	0ffH
	DB	020H
	DB	0eeH
	DB	0f8H
	DB	0e8H
	DB	0e1H
	DB	0eaH
	DB	0e0H
	DB	00H
	ORG $+178
	DW	0ffffH
	DW	0ffffH
	DD	0fffffc89H
	DB	0cdH
	DB	0e5H
	DB	0eeH
	DB	0efH
	DB	0f0H
	DB	0e5H
	DB	0e4H
	DB	0e5H
	DB	0ebH
	DB	0e5H
	DB	0edH
	DB	0edH
	DB	0e0H
	DB	0ffH
	DB	020H
	DB	0eeH
	DB	0f8H
	DB	0e8H
	DB	0e1H
	DB	0eaH
	DB	0e0H
	DB	00H
	ORG $+178
	DW	0ffffH
	DW	0ffffH
	DD	0fffffc8aH
	DB	0cdH
	DB	0e5H
	DB	0eeH
	DB	0efH
	DB	0f0H
	DB	0e5H
	DB	0e4H
	DB	0e5H
	DB	0ebH
	DB	0e5H
	DB	0edH
	DB	0edH
	DB	0e0H
	DB	0ffH
	DB	020H
	DB	0eeH
	DB	0f8H
	DB	0e8H
	DB	0e1H
	DB	0eaH
	DB	0e0H
	DB	00H
	ORG $+178
	DW	0ffffH
	DW	0ffffH
	DD	0fffffc8bH
	DB	0cdH
	DB	0e5H
	DB	0eeH
	DB	0efH
	DB	0f0H
	DB	0e5H
	DB	0e4H
	DB	0e5H
	DB	0ebH
	DB	0e5H
	DB	0edH
	DB	0edH
	DB	0e0H
	DB	0ffH
	DB	020H
	DB	0eeH
	DB	0f8H
	DB	0e8H
	DB	0e1H
	DB	0eaH
	DB	0e0H
	DB	00H
	ORG $+178
	DW	0ffffH
	DW	0ffffH
	DD	0fffffc8cH
	DB	0cdH
	DB	0e5H
	DB	0eeH
	DB	0efH
	DB	0f0H
	DB	0e5H
	DB	0e4H
	DB	0e5H
	DB	0ebH
	DB	0e5H
	DB	0edH
	DB	0edH
	DB	0e0H
	DB	0ffH
	DB	020H
	DB	0eeH
	DB	0f8H
	DB	0e8H
	DB	0e1H
	DB	0eaH
	DB	0e0H
	DB	00H
	ORG $+178
	DW	0ffffH
	DW	0ffffH
	DD	0fffffc8dH
	DB	0cdH
	DB	0e5H
	DB	0eeH
	DB	0efH
	DB	0f0H
	DB	0e5H
	DB	0e4H
	DB	0e5H
	DB	0ebH
	DB	0e5H
	DB	0edH
	DB	0edH
	DB	0e0H
	DB	0ffH
	DB	020H
	DB	0eeH
	DB	0f8H
	DB	0e8H
	DB	0e1H
	DB	0eaH
	DB	0e0H
	DB	00H
	ORG $+178
	DW	0ffffH
	DW	0ffffH
	DD	0fffffc8eH
	DB	0cdH
	DB	0e5H
	DB	0eeH
	DB	0efH
	DB	0f0H
	DB	0e5H
	DB	0e4H
	DB	0e5H
	DB	0ebH
	DB	0e5H
	DB	0edH
	DB	0edH
	DB	0e0H
	DB	0ffH
	DB	020H
	DB	0eeH
	DB	0f8H
	DB	0e8H
	DB	0e1H
	DB	0eaH
	DB	0e0H
	DB	00H
	ORG $+178
	DW	0ffffH
	DW	0ffffH
	DD	0fffffc8fH
	DB	0cdH
	DB	0e5H
	DB	0eeH
	DB	0efH
	DB	0f0H
	DB	0e5H
	DB	0e4H
	DB	0e5H
	DB	0ebH
	DB	0e5H
	DB	0edH
	DB	0edH
	DB	0e0H
	DB	0ffH
	DB	020H
	DB	0eeH
	DB	0f8H
	DB	0e8H
	DB	0e1H
	DB	0eaH
	DB	0e0H
	DB	00H
	ORG $+178
	DW	0ffffH
	DW	0ffffH
	DD	0fffffc90H
	DB	0cdH
	DB	0e5H
	DB	0eeH
	DB	0efH
	DB	0f0H
	DB	0e5H
	DB	0e4H
	DB	0e5H
	DB	0ebH
	DB	0e5H
	DB	0edH
	DB	0edH
	DB	0e0H
	DB	0ffH
	DB	020H
	DB	0eeH
	DB	0f8H
	DB	0e8H
	DB	0e1H
	DB	0eaH
	DB	0e0H
	DB	00H
	ORG $+178
	DW	0ffffH
	DW	0ffffH
	DD	0fffffc91H
	DB	0cdH
	DB	0e5H
	DB	0eeH
	DB	0efH
	DB	0f0H
	DB	0e5H
	DB	0e4H
	DB	0e5H
	DB	0ebH
	DB	0e5H
	DB	0edH
	DB	0edH
	DB	0e0H
	DB	0ffH
	DB	020H
	DB	0eeH
	DB	0f8H
	DB	0e8H
	DB	0e1H
	DB	0eaH
	DB	0e0H
	DB	00H
	ORG $+178
	DW	0ffffH
	DW	0ffffH
	DD	0fffffc92H
	DB	0cdH
	DB	0e5H
	DB	0eeH
	DB	0efH
	DB	0f0H
	DB	0e5H
	DB	0e4H
	DB	0e5H
	DB	0ebH
	DB	0e5H
	DB	0edH
	DB	0edH
	DB	0e0H
	DB	0ffH
	DB	020H
	DB	0eeH
	DB	0f8H
	DB	0e8H
	DB	0e1H
	DB	0eaH
	DB	0e0H
	DB	00H
	ORG $+178
	DW	0ffffH
	DW	0ffffH
	DD	0fffffc93H
	DB	0cdH
	DB	0e5H
	DB	0eeH
	DB	0efH
	DB	0f0H
	DB	0e5H
	DB	0e4H
	DB	0e5H
	DB	0ebH
	DB	0e5H
	DB	0edH
	DB	0edH
	DB	0e0H
	DB	0ffH
	DB	020H
	DB	0eeH
	DB	0f8H
	DB	0e8H
	DB	0e1H
	DB	0eaH
	DB	0e0H
	DB	00H
	ORG $+178
	DW	0ffffH
	DW	0ffffH
	DD	0fffffc94H
	DB	0cdH
	DB	0e5H
	DB	0eeH
	DB	0efH
	DB	0f0H
	DB	0e5H
	DB	0e4H
	DB	0e5H
	DB	0ebH
	DB	0e5H
	DB	0edH
	DB	0edH
	DB	0e0H
	DB	0ffH
	DB	020H
	DB	0eeH
	DB	0f8H
	DB	0e8H
	DB	0e1H
	DB	0eaH
	DB	0e0H
	DB	00H
	ORG $+178
	DW	0ffffH
	DW	0ffffH
	DD	0fffffc95H
	DB	0cdH
	DB	0e5H
	DB	0eeH
	DB	0efH
	DB	0f0H
	DB	0e5H
	DB	0e4H
	DB	0e5H
	DB	0ebH
	DB	0e5H
	DB	0edH
	DB	0edH
	DB	0e0H
	DB	0ffH
	DB	020H
	DB	0eeH
	DB	0f8H
	DB	0e8H
	DB	0e1H
	DB	0eaH
	DB	0e0H
	DB	00H
	ORG $+178
	DW	0ffffH
	DW	0ffffH
	DD	0fffffc96H
	DB	0cdH
	DB	0e5H
	DB	0eeH
	DB	0efH
	DB	0f0H
	DB	0e5H
	DB	0e4H
	DB	0e5H
	DB	0ebH
	DB	0e5H
	DB	0edH
	DB	0edH
	DB	0e0H
	DB	0ffH
	DB	020H
	DB	0eeH
	DB	0f8H
	DB	0e8H
	DB	0e1H
	DB	0eaH
	DB	0e0H
	DB	00H
	ORG $+178
	DW	0ffffH
	DW	0ffffH
	DD	0fffffc97H
	DB	0cdH
	DB	0e5H
	DB	0eeH
	DB	0efH
	DB	0f0H
	DB	0e5H
	DB	0e4H
	DB	0e5H
	DB	0ebH
	DB	0e5H
	DB	0edH
	DB	0edH
	DB	0e0H
	DB	0ffH
	DB	020H
	DB	0eeH
	DB	0f8H
	DB	0e8H
	DB	0e1H
	DB	0eaH
	DB	0e0H
	DB	00H
	ORG $+178
	DW	0ffffH
	DW	0ffffH
	DD	0fffffc98H
	DB	0cdH
	DB	0e5H
	DB	0eeH
	DB	0efH
	DB	0f0H
	DB	0e5H
	DB	0e4H
	DB	0e5H
	DB	0ebH
	DB	0e5H
	DB	0edH
	DB	0edH
	DB	0e0H
	DB	0ffH
	DB	020H
	DB	0eeH
	DB	0f8H
	DB	0e8H
	DB	0e1H
	DB	0eaH
	DB	0e0H
	DB	00H
	ORG $+178
	DW	0ffffH
	DW	0ffffH
	DD	0fffffc99H
	DB	0cdH
	DB	0e5H
	DB	0eeH
	DB	0efH
	DB	0f0H
	DB	0e5H
	DB	0e4H
	DB	0e5H
	DB	0ebH
	DB	0e5H
	DB	0edH
	DB	0edH
	DB	0e0H
	DB	0ffH
	DB	020H
	DB	0eeH
	DB	0f8H
	DB	0e8H
	DB	0e1H
	DB	0eaH
	DB	0e0H
	DB	00H
	ORG $+178
	DW	0ffffH
	DW	0ffffH
	DD	0fffffc9aH
	DB	0cdH
	DB	0e5H
	DB	0eeH
	DB	0efH
	DB	0f0H
	DB	0e5H
	DB	0e4H
	DB	0e5H
	DB	0ebH
	DB	0e5H
	DB	0edH
	DB	0edH
	DB	0e0H
	DB	0ffH
	DB	020H
	DB	0eeH
	DB	0f8H
	DB	0e8H
	DB	0e1H
	DB	0eaH
	DB	0e0H
	DB	00H
	ORG $+178
	DW	0ffffH
	DW	0ffffH
	DD	0fffffc9bH
	DB	0cdH
	DB	0e5H
	DB	0eeH
	DB	0efH
	DB	0f0H
	DB	0e5H
	DB	0e4H
	DB	0e5H
	DB	0ebH
	DB	0e5H
	DB	0edH
	DB	0edH
	DB	0e0H
	DB	0ffH
	DB	020H
	DB	0eeH
	DB	0f8H
	DB	0e8H
	DB	0e1H
	DB	0eaH
	DB	0e0H
	DB	00H
	ORG $+178
	DW	0ffffH
	DW	0ffffH
	DD	0fffffc9cH
	DB	0cdH
	DB	0e5H
	DB	0eeH
	DB	0efH
	DB	0f0H
	DB	0e5H
	DB	0e4H
	DB	0e5H
	DB	0ebH
	DB	0e5H
	DB	0edH
	DB	0edH
	DB	0e0H
	DB	0ffH
	DB	020H
	DB	0eeH
	DB	0f8H
	DB	0e8H
	DB	0e1H
	DB	0eaH
	DB	0e0H
	DB	00H
	ORG $+178
	DW	0ffffH
	DW	0ffffH
	DD	0fffffc9dH
	DB	0cdH
	DB	0e5H
	DB	0eeH
	DB	0efH
	DB	0f0H
	DB	0e5H
	DB	0e4H
	DB	0e5H
	DB	0ebH
	DB	0e5H
	DB	0edH
	DB	0edH
	DB	0e0H
	DB	0ffH
	DB	020H
	DB	0eeH
	DB	0f8H
	DB	0e8H
	DB	0e1H
	DB	0eaH
	DB	0e0H
	DB	00H
	ORG $+178
	DW	0ffffH
	DW	0ffffH
	DD	0fffffc9eH
	DB	0cdH
	DB	0e5H
	DB	0eeH
	DB	0efH
	DB	0f0H
	DB	0e5H
	DB	0e4H
	DB	0e5H
	DB	0ebH
	DB	0e5H
	DB	0edH
	DB	0edH
	DB	0e0H
	DB	0ffH
	DB	020H
	DB	0eeH
	DB	0f8H
	DB	0e8H
	DB	0e1H
	DB	0eaH
	DB	0e0H
	DB	00H
	ORG $+178
	DW	0ffffH
	DW	0ffffH
	DD	0fffffc9fH
	DB	0cdH
	DB	0e5H
	DB	0eeH
	DB	0efH
	DB	0f0H
	DB	0e5H
	DB	0e4H
	DB	0e5H
	DB	0ebH
	DB	0e5H
	DB	0edH
	DB	0edH
	DB	0e0H
	DB	0ffH
	DB	020H
	DB	0eeH
	DB	0f8H
	DB	0e8H
	DB	0e1H
	DB	0eaH
	DB	0e0H
	DB	00H
	ORG $+178
	DW	0ffffH
	DW	0ffffH
	DD	0fffffca0H
	DB	0cdH
	DB	0e5H
	DB	0eeH
	DB	0efH
	DB	0f0H
	DB	0e5H
	DB	0e4H
	DB	0e5H
	DB	0ebH
	DB	0e5H
	DB	0edH
	DB	0edH
	DB	0e0H
	DB	0ffH
	DB	020H
	DB	0eeH
	DB	0f8H
	DB	0e8H
	DB	0e1H
	DB	0eaH
	DB	0e0H
	DB	00H
	ORG $+178
	DW	0ffffH
	DW	0ffffH
	DD	0fffffca1H
	DB	0cdH
	DB	0e5H
	DB	0eeH
	DB	0efH
	DB	0f0H
	DB	0e5H
	DB	0e4H
	DB	0e5H
	DB	0ebH
	DB	0e5H
	DB	0edH
	DB	0edH
	DB	0e0H
	DB	0ffH
	DB	020H
	DB	0eeH
	DB	0f8H
	DB	0e8H
	DB	0e1H
	DB	0eaH
	DB	0e0H
	DB	00H
	ORG $+178
	DW	0ffffH
	DW	0ffffH
	DD	0fffffca2H
	DB	0cdH
	DB	0e5H
	DB	0eeH
	DB	0efH
	DB	0f0H
	DB	0e5H
	DB	0e4H
	DB	0e5H
	DB	0ebH
	DB	0e5H
	DB	0edH
	DB	0edH
	DB	0e0H
	DB	0ffH
	DB	020H
	DB	0eeH
	DB	0f8H
	DB	0e8H
	DB	0e1H
	DB	0eaH
	DB	0e0H
	DB	00H
	ORG $+178
	DW	0ffffH
	DW	0ffffH
	DD	0fffffca3H
	DB	0cdH
	DB	0e5H
	DB	0eeH
	DB	0efH
	DB	0f0H
	DB	0e5H
	DB	0e4H
	DB	0e5H
	DB	0ebH
	DB	0e5H
	DB	0edH
	DB	0edH
	DB	0e0H
	DB	0ffH
	DB	020H
	DB	0eeH
	DB	0f8H
	DB	0e8H
	DB	0e1H
	DB	0eaH
	DB	0e0H
	DB	00H
	ORG $+178
	DW	0ffffH
	DW	0ffffH
	DD	0fffffca4H
	DB	0cdH
	DB	0e5H
	DB	0eeH
	DB	0efH
	DB	0f0H
	DB	0e5H
	DB	0e4H
	DB	0e5H
	DB	0ebH
	DB	0e5H
	DB	0edH
	DB	0edH
	DB	0e0H
	DB	0ffH
	DB	020H
	DB	0eeH
	DB	0f8H
	DB	0e8H
	DB	0e1H
	DB	0eaH
	DB	0e0H
	DB	00H
	ORG $+178
	DW	0ffffH
	DW	0ffffH
	DD	0fffffca5H
	DB	0cdH
	DB	0e5H
	DB	0eeH
	DB	0efH
	DB	0f0H
	DB	0e5H
	DB	0e4H
	DB	0e5H
	DB	0ebH
	DB	0e5H
	DB	0edH
	DB	0edH
	DB	0e0H
	DB	0ffH
	DB	020H
	DB	0eeH
	DB	0f8H
	DB	0e8H
	DB	0e1H
	DB	0eaH
	DB	0e0H
	DB	00H
	ORG $+178
	DW	0ffffH
	DW	0ffffH
	DD	0fffffca6H
	DB	0cdH
	DB	0e5H
	DB	0eeH
	DB	0efH
	DB	0f0H
	DB	0e5H
	DB	0e4H
	DB	0e5H
	DB	0ebH
	DB	0e5H
	DB	0edH
	DB	0edH
	DB	0e0H
	DB	0ffH
	DB	020H
	DB	0eeH
	DB	0f8H
	DB	0e8H
	DB	0e1H
	DB	0eaH
	DB	0e0H
	DB	00H
	ORG $+178
	DW	0ffffH
	DW	0ffffH
	DD	0fffffca7H
	DB	0cdH
	DB	0e5H
	DB	0eeH
	DB	0efH
	DB	0f0H
	DB	0e5H
	DB	0e4H
	DB	0e5H
	DB	0ebH
	DB	0e5H
	DB	0edH
	DB	0edH
	DB	0e0H
	DB	0ffH
	DB	020H
	DB	0eeH
	DB	0f8H
	DB	0e8H
	DB	0e1H
	DB	0eaH
	DB	0e0H
	DB	00H
	ORG $+178
	DW	0ffffH
	DW	0ffffH
	DD	0fffffca8H
	DB	0cdH
	DB	0e5H
	DB	0eeH
	DB	0efH
	DB	0f0H
	DB	0e5H
	DB	0e4H
	DB	0e5H
	DB	0ebH
	DB	0e5H
	DB	0edH
	DB	0edH
	DB	0e0H
	DB	0ffH
	DB	020H
	DB	0eeH
	DB	0f8H
	DB	0e8H
	DB	0e1H
	DB	0eaH
	DB	0e0H
	DB	00H
	ORG $+178
	DW	0ffffH
	DW	0ffffH
	DD	0fffffca9H
	DB	0cdH
	DB	0e5H
	DB	0eeH
	DB	0efH
	DB	0f0H
	DB	0e5H
	DB	0e4H
	DB	0e5H
	DB	0ebH
	DB	0e5H
	DB	0edH
	DB	0edH
	DB	0e0H
	DB	0ffH
	DB	020H
	DB	0eeH
	DB	0f8H
	DB	0e8H
	DB	0e1H
	DB	0eaH
	DB	0e0H
	DB	00H
	ORG $+178
	DW	0ffffH
	DW	0ffffH
	DD	0fffffcaaH
	DB	0cdH
	DB	0e5H
	DB	0eeH
	DB	0efH
	DB	0f0H
	DB	0e5H
	DB	0e4H
	DB	0e5H
	DB	0ebH
	DB	0e5H
	DB	0edH
	DB	0edH
	DB	0e0H
	DB	0ffH
	DB	020H
	DB	0eeH
	DB	0f8H
	DB	0e8H
	DB	0e1H
	DB	0eaH
	DB	0e0H
	DB	00H
	ORG $+178
	DW	0ffffH
	DW	0ffffH
	DD	0fffffcabH
	DB	0cdH
	DB	0e5H
	DB	0eeH
	DB	0efH
	DB	0f0H
	DB	0e5H
	DB	0e4H
	DB	0e5H
	DB	0ebH
	DB	0e5H
	DB	0edH
	DB	0edH
	DB	0e0H
	DB	0ffH
	DB	020H
	DB	0eeH
	DB	0f8H
	DB	0e8H
	DB	0e1H
	DB	0eaH
	DB	0e0H
	DB	00H
	ORG $+178
	DW	0ffffH
	DW	0ffffH
	DD	0fffffcacH
	DB	0cdH
	DB	0e5H
	DB	0eeH
	DB	0efH
	DB	0f0H
	DB	0e5H
	DB	0e4H
	DB	0e5H
	DB	0ebH
	DB	0e5H
	DB	0edH
	DB	0edH
	DB	0e0H
	DB	0ffH
	DB	020H
	DB	0eeH
	DB	0f8H
	DB	0e8H
	DB	0e1H
	DB	0eaH
	DB	0e0H
	DB	00H
	ORG $+178
	DW	0ffffH
	DW	0ffffH
	DD	0fffffcadH
	DB	0cdH
	DB	0e5H
	DB	0eeH
	DB	0efH
	DB	0f0H
	DB	0e5H
	DB	0e4H
	DB	0e5H
	DB	0ebH
	DB	0e5H
	DB	0edH
	DB	0edH
	DB	0e0H
	DB	0ffH
	DB	020H
	DB	0eeH
	DB	0f8H
	DB	0e8H
	DB	0e1H
	DB	0eaH
	DB	0e0H
	DB	00H
	ORG $+178
	DW	0ffffH
	DW	0ffffH
	DD	0fffffcaeH
	DB	0cdH
	DB	0e5H
	DB	0eeH
	DB	0efH
	DB	0f0H
	DB	0e5H
	DB	0e4H
	DB	0e5H
	DB	0ebH
	DB	0e5H
	DB	0edH
	DB	0edH
	DB	0e0H
	DB	0ffH
	DB	020H
	DB	0eeH
	DB	0f8H
	DB	0e8H
	DB	0e1H
	DB	0eaH
	DB	0e0H
	DB	00H
	ORG $+178
	DW	0ffffH
	DW	0ffffH
	DD	0fffffcafH
	DB	0cdH
	DB	0e5H
	DB	0eeH
	DB	0efH
	DB	0f0H
	DB	0e5H
	DB	0e4H
	DB	0e5H
	DB	0ebH
	DB	0e5H
	DB	0edH
	DB	0edH
	DB	0e0H
	DB	0ffH
	DB	020H
	DB	0eeH
	DB	0f8H
	DB	0e8H
	DB	0e1H
	DB	0eaH
	DB	0e0H
	DB	00H
	ORG $+178
	DW	0ffffH
	DW	0ffffH
	DD	0fffffcb0H
	DB	0cdH
	DB	0e5H
	DB	0eeH
	DB	0efH
	DB	0f0H
	DB	0e5H
	DB	0e4H
	DB	0e5H
	DB	0ebH
	DB	0e5H
	DB	0edH
	DB	0edH
	DB	0e0H
	DB	0ffH
	DB	020H
	DB	0eeH
	DB	0f8H
	DB	0e8H
	DB	0e1H
	DB	0eaH
	DB	0e0H
	DB	00H
	ORG $+178
	DW	0ffffH
	DW	0ffffH
	DD	0fffffcb1H
	DB	0cdH
	DB	0e5H
	DB	0eeH
	DB	0efH
	DB	0f0H
	DB	0e5H
	DB	0e4H
	DB	0e5H
	DB	0ebH
	DB	0e5H
	DB	0edH
	DB	0edH
	DB	0e0H
	DB	0ffH
	DB	020H
	DB	0eeH
	DB	0f8H
	DB	0e8H
	DB	0e1H
	DB	0eaH
	DB	0e0H
	DB	00H
	ORG $+178
	DW	0ffffH
	DW	0ffffH
	DD	0fffffcb2H
	DB	0cdH
	DB	0e5H
	DB	0eeH
	DB	0efH
	DB	0f0H
	DB	0e5H
	DB	0e4H
	DB	0e5H
	DB	0ebH
	DB	0e5H
	DB	0edH
	DB	0edH
	DB	0e0H
	DB	0ffH
	DB	020H
	DB	0eeH
	DB	0f8H
	DB	0e8H
	DB	0e1H
	DB	0eaH
	DB	0e0H
	DB	00H
	ORG $+178
	DW	0ffffH
	DW	0ffffH
	DD	0fffffcb3H
	DB	0cdH
	DB	0e5H
	DB	0eeH
	DB	0efH
	DB	0f0H
	DB	0e5H
	DB	0e4H
	DB	0e5H
	DB	0ebH
	DB	0e5H
	DB	0edH
	DB	0edH
	DB	0e0H
	DB	0ffH
	DB	020H
	DB	0eeH
	DB	0f8H
	DB	0e8H
	DB	0e1H
	DB	0eaH
	DB	0e0H
	DB	00H
	ORG $+178
	DW	0ffffH
	DW	0ffffH
	DD	0fffffcb4H
	DB	0cdH
	DB	0e5H
	DB	0eeH
	DB	0efH
	DB	0f0H
	DB	0e5H
	DB	0e4H
	DB	0e5H
	DB	0ebH
	DB	0e5H
	DB	0edH
	DB	0edH
	DB	0e0H
	DB	0ffH
	DB	020H
	DB	0eeH
	DB	0f8H
	DB	0e8H
	DB	0e1H
	DB	0eaH
	DB	0e0H
	DB	00H
	ORG $+178
	DW	0ffffH
	DW	0ffffH
	DD	0fffffcb5H
	DB	0cdH
	DB	0e5H
	DB	0eeH
	DB	0efH
	DB	0f0H
	DB	0e5H
	DB	0e4H
	DB	0e5H
	DB	0ebH
	DB	0e5H
	DB	0edH
	DB	0edH
	DB	0e0H
	DB	0ffH
	DB	020H
	DB	0eeH
	DB	0f8H
	DB	0e8H
	DB	0e1H
	DB	0eaH
	DB	0e0H
	DB	00H
	ORG $+178
	DW	0ffffH
	DW	0ffffH
	DD	0fffffcb6H
	DB	0cdH
	DB	0e5H
	DB	0eeH
	DB	0efH
	DB	0f0H
	DB	0e5H
	DB	0e4H
	DB	0e5H
	DB	0ebH
	DB	0e5H
	DB	0edH
	DB	0edH
	DB	0e0H
	DB	0ffH
	DB	020H
	DB	0eeH
	DB	0f8H
	DB	0e8H
	DB	0e1H
	DB	0eaH
	DB	0e0H
	DB	00H
	ORG $+178
	DW	0ffffH
	DW	0ffffH
	DD	0fffffcb7H
	DB	0cdH
	DB	0e5H
	DB	0eeH
	DB	0efH
	DB	0f0H
	DB	0e5H
	DB	0e4H
	DB	0e5H
	DB	0ebH
	DB	0e5H
	DB	0edH
	DB	0edH
	DB	0e0H
	DB	0ffH
	DB	020H
	DB	0eeH
	DB	0f8H
	DB	0e8H
	DB	0e1H
	DB	0eaH
	DB	0e0H
	DB	00H
	ORG $+178
	DW	0ffffH
	DW	0ffffH
	DD	0fffffcb8H
	DB	0cdH
	DB	0e5H
	DB	0eeH
	DB	0efH
	DB	0f0H
	DB	0e5H
	DB	0e4H
	DB	0e5H
	DB	0ebH
	DB	0e5H
	DB	0edH
	DB	0edH
	DB	0e0H
	DB	0ffH
	DB	020H
	DB	0eeH
	DB	0f8H
	DB	0e8H
	DB	0e1H
	DB	0eaH
	DB	0e0H
	DB	00H
	ORG $+178
	DW	0ffffH
	DW	0ffffH
	DD	0fffffcb9H
	DB	0cdH
	DB	0e5H
	DB	0eeH
	DB	0efH
	DB	0f0H
	DB	0e5H
	DB	0e4H
	DB	0e5H
	DB	0ebH
	DB	0e5H
	DB	0edH
	DB	0edH
	DB	0e0H
	DB	0ffH
	DB	020H
	DB	0eeH
	DB	0f8H
	DB	0e8H
	DB	0e1H
	DB	0eaH
	DB	0e0H
	DB	00H
	ORG $+178
	DW	0ffffH
	DW	0ffffH
	DD	0fffffcbaH
	DB	0cdH
	DB	0e5H
	DB	0eeH
	DB	0efH
	DB	0f0H
	DB	0e5H
	DB	0e4H
	DB	0e5H
	DB	0ebH
	DB	0e5H
	DB	0edH
	DB	0edH
	DB	0e0H
	DB	0ffH
	DB	020H
	DB	0eeH
	DB	0f8H
	DB	0e8H
	DB	0e1H
	DB	0eaH
	DB	0e0H
	DB	00H
	ORG $+178
	DW	0ffffH
	DW	0ffffH
	DD	0fffffcbbH
	DB	0cdH
	DB	0e5H
	DB	0eeH
	DB	0efH
	DB	0f0H
	DB	0e5H
	DB	0e4H
	DB	0e5H
	DB	0ebH
	DB	0e5H
	DB	0edH
	DB	0edH
	DB	0e0H
	DB	0ffH
	DB	020H
	DB	0eeH
	DB	0f8H
	DB	0e8H
	DB	0e1H
	DB	0eaH
	DB	0e0H
	DB	00H
	ORG $+178
	DW	0ffffH
	DW	0ffffH
	DD	0fffffcbcH
	DB	0cdH
	DB	0e5H
	DB	0eeH
	DB	0efH
	DB	0f0H
	DB	0e5H
	DB	0e4H
	DB	0e5H
	DB	0ebH
	DB	0e5H
	DB	0edH
	DB	0edH
	DB	0e0H
	DB	0ffH
	DB	020H
	DB	0eeH
	DB	0f8H
	DB	0e8H
	DB	0e1H
	DB	0eaH
	DB	0e0H
	DB	00H
	ORG $+178
	DW	0ffffH
	DW	0ffffH
	DD	0fffffcbdH
	DB	0cdH
	DB	0e5H
	DB	0eeH
	DB	0efH
	DB	0f0H
	DB	0e5H
	DB	0e4H
	DB	0e5H
	DB	0ebH
	DB	0e5H
	DB	0edH
	DB	0edH
	DB	0e0H
	DB	0ffH
	DB	020H
	DB	0eeH
	DB	0f8H
	DB	0e8H
	DB	0e1H
	DB	0eaH
	DB	0e0H
	DB	00H
	ORG $+178
	DW	0ffffH
	DW	0ffffH
	DD	0fffffcbeH
	DB	0cdH
	DB	0e5H
	DB	0eeH
	DB	0efH
	DB	0f0H
	DB	0e5H
	DB	0e4H
	DB	0e5H
	DB	0ebH
	DB	0e5H
	DB	0edH
	DB	0edH
	DB	0e0H
	DB	0ffH
	DB	020H
	DB	0eeH
	DB	0f8H
	DB	0e8H
	DB	0e1H
	DB	0eaH
	DB	0e0H
	DB	00H
	ORG $+178
	DW	0ffffH
	DW	0ffffH
	DD	0fffffcbfH
	DB	0cdH
	DB	0e5H
	DB	0eeH
	DB	0efH
	DB	0f0H
	DB	0e5H
	DB	0e4H
	DB	0e5H
	DB	0ebH
	DB	0e5H
	DB	0edH
	DB	0edH
	DB	0e0H
	DB	0ffH
	DB	020H
	DB	0eeH
	DB	0f8H
	DB	0e8H
	DB	0e1H
	DB	0eaH
	DB	0e0H
	DB	00H
	ORG $+178
	DW	0ffffH
	DW	0ffffH
	DD	0fffffcc0H
	DB	0cdH
	DB	0e5H
	DB	0eeH
	DB	0efH
	DB	0f0H
	DB	0e5H
	DB	0e4H
	DB	0e5H
	DB	0ebH
	DB	0e5H
	DB	0edH
	DB	0edH
	DB	0e0H
	DB	0ffH
	DB	020H
	DB	0eeH
	DB	0f8H
	DB	0e8H
	DB	0e1H
	DB	0eaH
	DB	0e0H
	DB	00H
	ORG $+178
	DW	0ffffH
	DW	0ffffH
	DD	0fffffcc1H
	DB	0cdH
	DB	0e5H
	DB	0eeH
	DB	0efH
	DB	0f0H
	DB	0e5H
	DB	0e4H
	DB	0e5H
	DB	0ebH
	DB	0e5H
	DB	0edH
	DB	0edH
	DB	0e0H
	DB	0ffH
	DB	020H
	DB	0eeH
	DB	0f8H
	DB	0e8H
	DB	0e1H
	DB	0eaH
	DB	0e0H
	DB	00H
	ORG $+178
	DW	0ffffH
	DW	0ffffH
	DD	0fffffcc2H
	DB	0cdH
	DB	0e5H
	DB	0eeH
	DB	0efH
	DB	0f0H
	DB	0e5H
	DB	0e4H
	DB	0e5H
	DB	0ebH
	DB	0e5H
	DB	0edH
	DB	0edH
	DB	0e0H
	DB	0ffH
	DB	020H
	DB	0eeH
	DB	0f8H
	DB	0e8H
	DB	0e1H
	DB	0eaH
	DB	0e0H
	DB	00H
	ORG $+178
	DW	0ffffH
	DW	0ffffH
	DD	0fffffcc3H
	DB	0cdH
	DB	0e5H
	DB	0eeH
	DB	0efH
	DB	0f0H
	DB	0e5H
	DB	0e4H
	DB	0e5H
	DB	0ebH
	DB	0e5H
	DB	0edH
	DB	0edH
	DB	0e0H
	DB	0ffH
	DB	020H
	DB	0eeH
	DB	0f8H
	DB	0e8H
	DB	0e1H
	DB	0eaH
	DB	0e0H
	DB	00H
	ORG $+178
	DW	0ffffH
	DW	0ffffH
	DD	0fffffcc4H
	DB	0cdH
	DB	0e5H
	DB	0eeH
	DB	0efH
	DB	0f0H
	DB	0e5H
	DB	0e4H
	DB	0e5H
	DB	0ebH
	DB	0e5H
	DB	0edH
	DB	0edH
	DB	0e0H
	DB	0ffH
	DB	020H
	DB	0eeH
	DB	0f8H
	DB	0e8H
	DB	0e1H
	DB	0eaH
	DB	0e0H
	DB	00H
	ORG $+178
	DW	0ffffH
	DW	0ffffH
	DD	0fffffcc5H
	DB	0cdH
	DB	0e5H
	DB	0eeH
	DB	0efH
	DB	0f0H
	DB	0e5H
	DB	0e4H
	DB	0e5H
	DB	0ebH
	DB	0e5H
	DB	0edH
	DB	0edH
	DB	0e0H
	DB	0ffH
	DB	020H
	DB	0eeH
	DB	0f8H
	DB	0e8H
	DB	0e1H
	DB	0eaH
	DB	0e0H
	DB	00H
	ORG $+178
	DW	0ffffH
	DW	0ffffH
	DD	0fffffcc6H
	DB	0cdH
	DB	0e5H
	DB	0eeH
	DB	0efH
	DB	0f0H
	DB	0e5H
	DB	0e4H
	DB	0e5H
	DB	0ebH
	DB	0e5H
	DB	0edH
	DB	0edH
	DB	0e0H
	DB	0ffH
	DB	020H
	DB	0eeH
	DB	0f8H
	DB	0e8H
	DB	0e1H
	DB	0eaH
	DB	0e0H
	DB	00H
	ORG $+178
	DW	0ffffH
	DW	0ffffH
	DD	0fffffcc7H
	DB	0cdH
	DB	0e5H
	DB	0eeH
	DB	0efH
	DB	0f0H
	DB	0e5H
	DB	0e4H
	DB	0e5H
	DB	0ebH
	DB	0e5H
	DB	0edH
	DB	0edH
	DB	0e0H
	DB	0ffH
	DB	020H
	DB	0eeH
	DB	0f8H
	DB	0e8H
	DB	0e1H
	DB	0eaH
	DB	0e0H
	DB	00H
	ORG $+178
	DW	0ffffH
	DW	0ffffH
	DD	0fffffcc8H
	DB	0cdH
	DB	0e5H
	DB	0eeH
	DB	0efH
	DB	0f0H
	DB	0e5H
	DB	0e4H
	DB	0e5H
	DB	0ebH
	DB	0e5H
	DB	0edH
	DB	0edH
	DB	0e0H
	DB	0ffH
	DB	020H
	DB	0eeH
	DB	0f8H
	DB	0e8H
	DB	0e1H
	DB	0eaH
	DB	0e0H
	DB	00H
	ORG $+178
	DW	0ffffH
	DW	0ffffH
	DD	0fffffcc9H
	DB	0cdH
	DB	0e5H
	DB	0eeH
	DB	0efH
	DB	0f0H
	DB	0e5H
	DB	0e4H
	DB	0e5H
	DB	0ebH
	DB	0e5H
	DB	0edH
	DB	0edH
	DB	0e0H
	DB	0ffH
	DB	020H
	DB	0eeH
	DB	0f8H
	DB	0e8H
	DB	0e1H
	DB	0eaH
	DB	0e0H
	DB	00H
	ORG $+178
	DW	0ffffH
	DW	0ffffH
	DD	0fffffccaH
	DB	0cdH
	DB	0e5H
	DB	0eeH
	DB	0efH
	DB	0f0H
	DB	0e5H
	DB	0e4H
	DB	0e5H
	DB	0ebH
	DB	0e5H
	DB	0edH
	DB	0edH
	DB	0e0H
	DB	0ffH
	DB	020H
	DB	0eeH
	DB	0f8H
	DB	0e8H
	DB	0e1H
	DB	0eaH
	DB	0e0H
	DB	00H
	ORG $+178
	DW	0ffffH
	DW	0ffffH
	DD	0fffffccbH
	DB	0cdH
	DB	0e5H
	DB	0eeH
	DB	0efH
	DB	0f0H
	DB	0e5H
	DB	0e4H
	DB	0e5H
	DB	0ebH
	DB	0e5H
	DB	0edH
	DB	0edH
	DB	0e0H
	DB	0ffH
	DB	020H
	DB	0eeH
	DB	0f8H
	DB	0e8H
	DB	0e1H
	DB	0eaH
	DB	0e0H
	DB	00H
	ORG $+178
	DW	0ffffH
	DW	0ffffH
	DD	0fffffcccH
	DB	0cdH
	DB	0e5H
	DB	0eeH
	DB	0efH
	DB	0f0H
	DB	0e5H
	DB	0e4H
	DB	0e5H
	DB	0ebH
	DB	0e5H
	DB	0edH
	DB	0edH
	DB	0e0H
	DB	0ffH
	DB	020H
	DB	0eeH
	DB	0f8H
	DB	0e8H
	DB	0e1H
	DB	0eaH
	DB	0e0H
	DB	00H
	ORG $+178
	DW	0ffffH
	DW	0ffffH
	DD	0fffffccdH
	DB	0cdH
	DB	0e5H
	DB	0eeH
	DB	0efH
	DB	0f0H
	DB	0e5H
	DB	0e4H
	DB	0e5H
	DB	0ebH
	DB	0e5H
	DB	0edH
	DB	0edH
	DB	0e0H
	DB	0ffH
	DB	020H
	DB	0eeH
	DB	0f8H
	DB	0e8H
	DB	0e1H
	DB	0eaH
	DB	0e0H
	DB	00H
	ORG $+178
	DW	0ffffH
	DW	0ffffH
	DD	0fffffcceH
	DB	0cdH
	DB	0e5H
	DB	0eeH
	DB	0efH
	DB	0f0H
	DB	0e5H
	DB	0e4H
	DB	0e5H
	DB	0ebH
	DB	0e5H
	DB	0edH
	DB	0edH
	DB	0e0H
	DB	0ffH
	DB	020H
	DB	0eeH
	DB	0f8H
	DB	0e8H
	DB	0e1H
	DB	0eaH
	DB	0e0H
	DB	00H
	ORG $+178
	DW	0ffffH
	DW	0ffffH
	DD	0fffffccfH
	DB	0cdH
	DB	0e5H
	DB	0eeH
	DB	0efH
	DB	0f0H
	DB	0e5H
	DB	0e4H
	DB	0e5H
	DB	0ebH
	DB	0e5H
	DB	0edH
	DB	0edH
	DB	0e0H
	DB	0ffH
	DB	020H
	DB	0eeH
	DB	0f8H
	DB	0e8H
	DB	0e1H
	DB	0eaH
	DB	0e0H
	DB	00H
	ORG $+178
	DW	0ffffH
	DW	0ffffH
	DD	0fffffcd0H
	DB	0cdH
	DB	0e5H
	DB	0eeH
	DB	0efH
	DB	0f0H
	DB	0e5H
	DB	0e4H
	DB	0e5H
	DB	0ebH
	DB	0e5H
	DB	0edH
	DB	0edH
	DB	0e0H
	DB	0ffH
	DB	020H
	DB	0eeH
	DB	0f8H
	DB	0e8H
	DB	0e1H
	DB	0eaH
	DB	0e0H
	DB	00H
	ORG $+178
	DW	0ffffH
	DW	0ffffH
	DD	0fffffcd1H
	DB	0cdH
	DB	0e5H
	DB	0eeH
	DB	0efH
	DB	0f0H
	DB	0e5H
	DB	0e4H
	DB	0e5H
	DB	0ebH
	DB	0e5H
	DB	0edH
	DB	0edH
	DB	0e0H
	DB	0ffH
	DB	020H
	DB	0eeH
	DB	0f8H
	DB	0e8H
	DB	0e1H
	DB	0eaH
	DB	0e0H
	DB	00H
	ORG $+178
	DW	0ffffH
	DW	0ffffH
	DD	0fffffcd2H
	DB	0cdH
	DB	0e5H
	DB	0eeH
	DB	0efH
	DB	0f0H
	DB	0e5H
	DB	0e4H
	DB	0e5H
	DB	0ebH
	DB	0e5H
	DB	0edH
	DB	0edH
	DB	0e0H
	DB	0ffH
	DB	020H
	DB	0eeH
	DB	0f8H
	DB	0e8H
	DB	0e1H
	DB	0eaH
	DB	0e0H
	DB	00H
	ORG $+178
	DW	0ffffH
	DW	0ffffH
	DD	0fffffcd3H
	DB	0cdH
	DB	0e5H
	DB	0eeH
	DB	0efH
	DB	0f0H
	DB	0e5H
	DB	0e4H
	DB	0e5H
	DB	0ebH
	DB	0e5H
	DB	0edH
	DB	0edH
	DB	0e0H
	DB	0ffH
	DB	020H
	DB	0eeH
	DB	0f8H
	DB	0e8H
	DB	0e1H
	DB	0eaH
	DB	0e0H
	DB	00H
	ORG $+178
	DW	0ffffH
	DW	0ffffH
	DD	0fffffcd4H
	DB	0cdH
	DB	0e5H
	DB	0eeH
	DB	0efH
	DB	0f0H
	DB	0e5H
	DB	0e4H
	DB	0e5H
	DB	0ebH
	DB	0e5H
	DB	0edH
	DB	0edH
	DB	0e0H
	DB	0ffH
	DB	020H
	DB	0eeH
	DB	0f8H
	DB	0e8H
	DB	0e1H
	DB	0eaH
	DB	0e0H
	DB	00H
	ORG $+178
	DW	0ffffH
	DW	0ffffH
	DD	0fffffcd5H
	DB	0cdH
	DB	0e5H
	DB	0eeH
	DB	0efH
	DB	0f0H
	DB	0e5H
	DB	0e4H
	DB	0e5H
	DB	0ebH
	DB	0e5H
	DB	0edH
	DB	0edH
	DB	0e0H
	DB	0ffH
	DB	020H
	DB	0eeH
	DB	0f8H
	DB	0e8H
	DB	0e1H
	DB	0eaH
	DB	0e0H
	DB	00H
	ORG $+178
	DW	0ffffH
	DW	0ffffH
	DD	0fffffcd6H
	DB	0cdH
	DB	0e5H
	DB	0eeH
	DB	0efH
	DB	0f0H
	DB	0e5H
	DB	0e4H
	DB	0e5H
	DB	0ebH
	DB	0e5H
	DB	0edH
	DB	0edH
	DB	0e0H
	DB	0ffH
	DB	020H
	DB	0eeH
	DB	0f8H
	DB	0e8H
	DB	0e1H
	DB	0eaH
	DB	0e0H
	DB	00H
	ORG $+178
	DW	0ffffH
	DW	0ffffH
	DD	0fffffcd7H
	DB	0cdH
	DB	0e5H
	DB	0eeH
	DB	0efH
	DB	0f0H
	DB	0e5H
	DB	0e4H
	DB	0e5H
	DB	0ebH
	DB	0e5H
	DB	0edH
	DB	0edH
	DB	0e0H
	DB	0ffH
	DB	020H
	DB	0eeH
	DB	0f8H
	DB	0e8H
	DB	0e1H
	DB	0eaH
	DB	0e0H
	DB	00H
	ORG $+178
	DW	0ffffH
	DW	0ffffH
	DD	0fffffcd8H
	DB	0cdH
	DB	0e5H
	DB	0eeH
	DB	0efH
	DB	0f0H
	DB	0e5H
	DB	0e4H
	DB	0e5H
	DB	0ebH
	DB	0e5H
	DB	0edH
	DB	0edH
	DB	0e0H
	DB	0ffH
	DB	020H
	DB	0eeH
	DB	0f8H
	DB	0e8H
	DB	0e1H
	DB	0eaH
	DB	0e0H
	DB	00H
	ORG $+178
	DW	0ffffH
	DW	0ffffH
	DD	0fffffcd9H
	DB	0cdH
	DB	0e5H
	DB	0eeH
	DB	0efH
	DB	0f0H
	DB	0e5H
	DB	0e4H
	DB	0e5H
	DB	0ebH
	DB	0e5H
	DB	0edH
	DB	0edH
	DB	0e0H
	DB	0ffH
	DB	020H
	DB	0eeH
	DB	0f8H
	DB	0e8H
	DB	0e1H
	DB	0eaH
	DB	0e0H
	DB	00H
	ORG $+178
	DW	0ffffH
	DW	0ffffH
	DD	0fffffcdaH
	DB	0cdH
	DB	0e5H
	DB	0eeH
	DB	0efH
	DB	0f0H
	DB	0e5H
	DB	0e4H
	DB	0e5H
	DB	0ebH
	DB	0e5H
	DB	0edH
	DB	0edH
	DB	0e0H
	DB	0ffH
	DB	020H
	DB	0eeH
	DB	0f8H
	DB	0e8H
	DB	0e1H
	DB	0eaH
	DB	0e0H
	DB	00H
	ORG $+178
	DW	0ffffH
	DW	0ffffH
	DD	0fffffcdbH
	DB	0cdH
	DB	0e5H
	DB	0eeH
	DB	0efH
	DB	0f0H
	DB	0e5H
	DB	0e4H
	DB	0e5H
	DB	0ebH
	DB	0e5H
	DB	0edH
	DB	0edH
	DB	0e0H
	DB	0ffH
	DB	020H
	DB	0eeH
	DB	0f8H
	DB	0e8H
	DB	0e1H
	DB	0eaH
	DB	0e0H
	DB	00H
	ORG $+178
	DW	0ffffH
	DW	0ffffH
	DD	0fffffcdcH
	DB	0cdH
	DB	0e5H
	DB	0eeH
	DB	0efH
	DB	0f0H
	DB	0e5H
	DB	0e4H
	DB	0e5H
	DB	0ebH
	DB	0e5H
	DB	0edH
	DB	0edH
	DB	0e0H
	DB	0ffH
	DB	020H
	DB	0eeH
	DB	0f8H
	DB	0e8H
	DB	0e1H
	DB	0eaH
	DB	0e0H
	DB	00H
	ORG $+178
	DW	0ffffH
	DW	0ffffH
	DD	0fffffcddH
	DB	0cdH
	DB	0e5H
	DB	0eeH
	DB	0efH
	DB	0f0H
	DB	0e5H
	DB	0e4H
	DB	0e5H
	DB	0ebH
	DB	0e5H
	DB	0edH
	DB	0edH
	DB	0e0H
	DB	0ffH
	DB	020H
	DB	0eeH
	DB	0f8H
	DB	0e8H
	DB	0e1H
	DB	0eaH
	DB	0e0H
	DB	00H
	ORG $+178
	DW	0ffffH
	DW	0ffffH
	DD	0fffffcdeH
	DB	0cdH
	DB	0e5H
	DB	0eeH
	DB	0efH
	DB	0f0H
	DB	0e5H
	DB	0e4H
	DB	0e5H
	DB	0ebH
	DB	0e5H
	DB	0edH
	DB	0edH
	DB	0e0H
	DB	0ffH
	DB	020H
	DB	0eeH
	DB	0f8H
	DB	0e8H
	DB	0e1H
	DB	0eaH
	DB	0e0H
	DB	00H
	ORG $+178
	DW	0ffffH
	DW	0ffffH
	DD	0fffffcdfH
	DB	0cdH
	DB	0e5H
	DB	0eeH
	DB	0efH
	DB	0f0H
	DB	0e5H
	DB	0e4H
	DB	0e5H
	DB	0ebH
	DB	0e5H
	DB	0edH
	DB	0edH
	DB	0e0H
	DB	0ffH
	DB	020H
	DB	0eeH
	DB	0f8H
	DB	0e8H
	DB	0e1H
	DB	0eaH
	DB	0e0H
	DB	00H
	ORG $+178
	DW	0ffffH
	DW	0ffffH
	DD	00H
	DB	00H
	DB	00H
	DB	00H
	DB	00H
	DB	00H
	DB	00H
	DB	00H
	DB	00H
	DB	00H
	DB	00H
	DB	00H
	DB	00H
	DB	00H
	DB	00H
	DB	00H
	DB	00H
	DB	00H
	DB	00H
	DB	00H
	DB	00H
	DB	00H
	DB	00H
	DB	00H
	DB	00H
	DB	00H
	DB	00H
	DB	00H
	DB	00H
	DB	00H
	DB	00H
	DB	00H
	DB	00H
	DB	00H
	DB	00H
	DB	00H
	DB	00H
	DB	00H
	DB	00H
	DB	00H
	DB	00H
	DB	00H
	DB	00H
	DB	00H
	DB	00H
	DB	00H
	DB	00H
	DB	00H
	DB	00H
	DB	00H
	DB	00H
	DB	00H
	DB	00H
	DB	00H
	DB	00H
	DB	00H
	DB	00H
	DB	00H
	DB	00H
	DB	00H
	DB	00H
	DB	00H
	DB	00H
	DB	00H
	DB	00H
	DB	00H
	DB	00H
	DB	00H
	DB	00H
	DB	00H
	DB	00H
	DB	00H
	DB	00H
	DB	00H
	DB	00H
	DB	00H
	DB	00H
	DB	00H
	DB	00H
	DB	00H
	DB	00H
	DB	00H
	DB	00H
	DB	00H
	DB	00H
	DB	00H
	DB	00H
	DB	00H
	DB	00H
	DB	00H
	DB	00H
	DB	00H
	DB	00H
	DB	00H
	DB	00H
	DB	00H
	DB	00H
	DB	00H
	DB	00H
	DB	00H
	DB	00H
	DB	00H
	DB	00H
	DB	00H
	DB	00H
	DB	00H
	DB	00H
	DB	00H
	DB	00H
	DB	00H
	DB	00H
	DB	00H
	DB	00H
	DB	00H
	DB	00H
	DB	00H
	DB	00H
	DB	00H
	DB	00H
	DB	00H
	DB	00H
	DB	00H
	DB	00H
	DB	00H
	DB	00H
	DB	00H
	DB	00H
	DB	00H
	DB	00H
	DB	00H
	DB	00H
	DB	00H
	DB	00H
	DB	00H
	DB	00H
	DB	00H
	DB	00H
	DB	00H
	DB	00H
	DB	00H
	DB	00H
	DB	00H
	DB	00H
	DB	00H
	DB	00H
	DB	00H
	DB	00H
	DB	00H
	DB	00H
	DB	00H
	DB	00H
	DB	00H
	DB	00H
	DB	00H
	DB	00H
	DB	00H
	DB	00H
	DB	00H
	DB	00H
	DB	00H
	DB	00H
	DB	00H
	DB	00H
	DB	00H
	DB	00H
	DB	00H
	DB	00H
	DB	00H
	DB	00H
	DB	00H
	DB	00H
	DB	00H
	DB	00H
	DB	00H
	DB	00H
	DB	00H
	DB	00H
	DB	00H
	DB	00H
	DB	00H
	DB	00H
	DB	00H
	DB	00H
	DB	00H
	DB	00H
	DB	00H
	DB	00H
	DB	00H
	DB	00H
	DB	00H
	DB	00H
	DB	00H
	DB	00H
	DB	00H
	DB	00H
	DB	00H
	DB	00H
	DB	00H
	DB	00H
	DB	00H
	DB	00H
	DW	0ffffH
	DW	0ffffH
	DD	00H
	DB	00H
	DB	00H
	DB	00H
	DB	00H
	DB	00H
	DB	00H
	DB	00H
	DB	00H
	DB	00H
	DB	00H
	DB	00H
	DB	00H
	DB	00H
	DB	00H
	DB	00H
	DB	00H
	DB	00H
	DB	00H
	DB	00H
	DB	00H
	DB	00H
	DB	00H
	DB	00H
	DB	00H
	DB	00H
	DB	00H
	DB	00H
	DB	00H
	DB	00H
	DB	00H
	DB	00H
	DB	00H
	DB	00H
	DB	00H
	DB	00H
	DB	00H
	DB	00H
	DB	00H
	DB	00H
	DB	00H
	DB	00H
	DB	00H
	DB	00H
	DB	00H
	DB	00H
	DB	00H
	DB	00H
	DB	00H
	DB	00H
	DB	00H
	DB	00H
	DB	00H
	DB	00H
	DB	00H
	DB	00H
	DB	00H
	DB	00H
	DB	00H
	DB	00H
	DB	00H
	DB	00H
	DB	00H
	DB	00H
	DB	00H
	DB	00H
	DB	00H
	DB	00H
	DB	00H
	DB	00H
	DB	00H
	DB	00H
	DB	00H
	DB	00H
	DB	00H
	DB	00H
	DB	00H
	DB	00H
	DB	00H
	DB	00H
	DB	00H
	DB	00H
	DB	00H
	DB	00H
	DB	00H
	DB	00H
	DB	00H
	DB	00H
	DB	00H
	DB	00H
	DB	00H
	DB	00H
	DB	00H
	DB	00H
	DB	00H
	DB	00H
	DB	00H
	DB	00H
	DB	00H
	DB	00H
	DB	00H
	DB	00H
	DB	00H
	DB	00H
	DB	00H
	DB	00H
	DB	00H
	DB	00H
	DB	00H
	DB	00H
	DB	00H
	DB	00H
	DB	00H
	DB	00H
	DB	00H
	DB	00H
	DB	00H
	DB	00H
	DB	00H
	DB	00H
	DB	00H
	DB	00H
	DB	00H
	DB	00H
	DB	00H
	DB	00H
	DB	00H
	DB	00H
	DB	00H
	DB	00H
	DB	00H
	DB	00H
	DB	00H
	DB	00H
	DB	00H
	DB	00H
	DB	00H
	DB	00H
	DB	00H
	DB	00H
	DB	00H
	DB	00H
	DB	00H
	DB	00H
	DB	00H
	DB	00H
	DB	00H
	DB	00H
	DB	00H
	DB	00H
	DB	00H
	DB	00H
	DB	00H
	DB	00H
	DB	00H
	DB	00H
	DB	00H
	DB	00H
	DB	00H
	DB	00H
	DB	00H
	DB	00H
	DB	00H
	DB	00H
	DB	00H
	DB	00H
	DB	00H
	DB	00H
	DB	00H
	DB	00H
	DB	00H
	DB	00H
	DB	00H
	DB	00H
	DB	00H
	DB	00H
	DB	00H
	DB	00H
	DB	00H
	DB	00H
	DB	00H
	DB	00H
	DB	00H
	DB	00H
	DB	00H
	DB	00H
	DB	00H
	DB	00H
	DB	00H
	DB	00H
	DB	00H
	DB	00H
	DB	00H
	DB	00H
	DB	00H
	DB	00H
	DB	00H
	DB	00H
	DB	00H
	DB	00H
	DB	00H
	DW	0ffffH
	DW	0ffffH
	DD	00H
	DB	00H
	DB	00H
	DB	00H
	DB	00H
	DB	00H
	DB	00H
	DB	00H
	DB	00H
	DB	00H
	DB	00H
	DB	00H
	DB	00H
	DB	00H
	DB	00H
	DB	00H
	DB	00H
	DB	00H
	DB	00H
	DB	00H
	DB	00H
	DB	00H
	DB	00H
	DB	00H
	DB	00H
	DB	00H
	DB	00H
	DB	00H
	DB	00H
	DB	00H
	DB	00H
	DB	00H
	DB	00H
	DB	00H
	DB	00H
	DB	00H
	DB	00H
	DB	00H
	DB	00H
	DB	00H
	DB	00H
	DB	00H
	DB	00H
	DB	00H
	DB	00H
	DB	00H
	DB	00H
	DB	00H
	DB	00H
	DB	00H
	DB	00H
	DB	00H
	DB	00H
	DB	00H
	DB	00H
	DB	00H
	DB	00H
	DB	00H
	DB	00H
	DB	00H
	DB	00H
	DB	00H
	DB	00H
	DB	00H
	DB	00H
	DB	00H
	DB	00H
	DB	00H
	DB	00H
	DB	00H
	DB	00H
	DB	00H
	DB	00H
	DB	00H
	DB	00H
	DB	00H
	DB	00H
	DB	00H
	DB	00H
	DB	00H
	DB	00H
	DB	00H
	DB	00H
	DB	00H
	DB	00H
	DB	00H
	DB	00H
	DB	00H
	DB	00H
	DB	00H
	DB	00H
	DB	00H
	DB	00H
	DB	00H
	DB	00H
	DB	00H
	DB	00H
	DB	00H
	DB	00H
	DB	00H
	DB	00H
	DB	00H
	DB	00H
	DB	00H
	DB	00H
	DB	00H
	DB	00H
	DB	00H
	DB	00H
	DB	00H
	DB	00H
	DB	00H
	DB	00H
	DB	00H
	DB	00H
	DB	00H
	DB	00H
	DB	00H
	DB	00H
	DB	00H
	DB	00H
	DB	00H
	DB	00H
	DB	00H
	DB	00H
	DB	00H
	DB	00H
	DB	00H
	DB	00H
	DB	00H
	DB	00H
	DB	00H
	DB	00H
	DB	00H
	DB	00H
	DB	00H
	DB	00H
	DB	00H
	DB	00H
	DB	00H
	DB	00H
	DB	00H
	DB	00H
	DB	00H
	DB	00H
	DB	00H
	DB	00H
	DB	00H
	DB	00H
	DB	00H
	DB	00H
	DB	00H
	DB	00H
	DB	00H
	DB	00H
	DB	00H
	DB	00H
	DB	00H
	DB	00H
	DB	00H
	DB	00H
	DB	00H
	DB	00H
	DB	00H
	DB	00H
	DB	00H
	DB	00H
	DB	00H
	DB	00H
	DB	00H
	DB	00H
	DB	00H
	DB	00H
	DB	00H
	DB	00H
	DB	00H
	DB	00H
	DB	00H
	DB	00H
	DB	00H
	DB	00H
	DB	00H
	DB	00H
	DB	00H
	DB	00H
	DB	00H
	DB	00H
	DB	00H
	DB	00H
	DB	00H
	DB	00H
	DB	00H
	DB	00H
	DB	00H
	DB	00H
	DB	00H
	DB	00H
	DB	00H
	DB	00H
	DB	00H
	DB	00H
	DW	0ffffH
	DW	0ffffH
	DD	00H
	DB	00H
	DB	00H
	DB	00H
	DB	00H
	DB	00H
	DB	00H
	DB	00H
	DB	00H
	DB	00H
	DB	00H
	DB	00H
	DB	00H
	DB	00H
	DB	00H
	DB	00H
	DB	00H
	DB	00H
	DB	00H
	DB	00H
	DB	00H
	DB	00H
	DB	00H
	DB	00H
	DB	00H
	DB	00H
	DB	00H
	DB	00H
	DB	00H
	DB	00H
	DB	00H
	DB	00H
	DB	00H
	DB	00H
	DB	00H
	DB	00H
	DB	00H
	DB	00H
	DB	00H
	DB	00H
	DB	00H
	DB	00H
	DB	00H
	DB	00H
	DB	00H
	DB	00H
	DB	00H
	DB	00H
	DB	00H
	DB	00H
	DB	00H
	DB	00H
	DB	00H
	DB	00H
	DB	00H
	DB	00H
	DB	00H
	DB	00H
	DB	00H
	DB	00H
	DB	00H
	DB	00H
	DB	00H
	DB	00H
	DB	00H
	DB	00H
	DB	00H
	DB	00H
	DB	00H
	DB	00H
	DB	00H
	DB	00H
	DB	00H
	DB	00H
	DB	00H
	DB	00H
	DB	00H
	DB	00H
	DB	00H
	DB	00H
	DB	00H
	DB	00H
	DB	00H
	DB	00H
	DB	00H
	DB	00H
	DB	00H
	DB	00H
	DB	00H
	DB	00H
	DB	00H
	DB	00H
	DB	00H
	DB	00H
	DB	00H
	DB	00H
	DB	00H
	DB	00H
	DB	00H
	DB	00H
	DB	00H
	DB	00H
	DB	00H
	DB	00H
	DB	00H
	DB	00H
	DB	00H
	DB	00H
	DB	00H
	DB	00H
	DB	00H
	DB	00H
	DB	00H
	DB	00H
	DB	00H
	DB	00H
	DB	00H
	DB	00H
	DB	00H
	DB	00H
	DB	00H
	DB	00H
	DB	00H
	DB	00H
	DB	00H
	DB	00H
	DB	00H
	DB	00H
	DB	00H
	DB	00H
	DB	00H
	DB	00H
	DB	00H
	DB	00H
	DB	00H
	DB	00H
	DB	00H
	DB	00H
	DB	00H
	DB	00H
	DB	00H
	DB	00H
	DB	00H
	DB	00H
	DB	00H
	DB	00H
	DB	00H
	DB	00H
	DB	00H
	DB	00H
	DB	00H
	DB	00H
	DB	00H
	DB	00H
	DB	00H
	DB	00H
	DB	00H
	DB	00H
	DB	00H
	DB	00H
	DB	00H
	DB	00H
	DB	00H
	DB	00H
	DB	00H
	DB	00H
	DB	00H
	DB	00H
	DB	00H
	DB	00H
	DB	00H
	DB	00H
	DB	00H
	DB	00H
	DB	00H
	DB	00H
	DB	00H
	DB	00H
	DB	00H
	DB	00H
	DB	00H
	DB	00H
	DB	00H
	DB	00H
	DB	00H
	DB	00H
	DB	00H
	DB	00H
	DB	00H
	DB	00H
	DB	00H
	DB	00H
	DB	00H
	DB	00H
	DB	00H
	DB	00H
	DB	00H
	DB	00H
	DB	00H
	DB	00H
	DB	00H
	DW	0ffffH
	DW	0ffffH
	DD	00H
	DB	00H
	DB	00H
	DB	00H
	DB	00H
	DB	00H
	DB	00H
	DB	00H
	DB	00H
	DB	00H
	DB	00H
	DB	00H
	DB	00H
	DB	00H
	DB	00H
	DB	00H
	DB	00H
	DB	00H
	DB	00H
	DB	00H
	DB	00H
	DB	00H
	DB	00H
	DB	00H
	DB	00H
	DB	00H
	DB	00H
	DB	00H
	DB	00H
	DB	00H
	DB	00H
	DB	00H
	DB	00H
	DB	00H
	DB	00H
	DB	00H
	DB	00H
	DB	00H
	DB	00H
	DB	00H
	DB	00H
	DB	00H
	DB	00H
	DB	00H
	DB	00H
	DB	00H
	DB	00H
	DB	00H
	DB	00H
	DB	00H
	DB	00H
	DB	00H
	DB	00H
	DB	00H
	DB	00H
	DB	00H
	DB	00H
	DB	00H
	DB	00H
	DB	00H
	DB	00H
	DB	00H
	DB	00H
	DB	00H
	DB	00H
	DB	00H
	DB	00H
	DB	00H
	DB	00H
	DB	00H
	DB	00H
	DB	00H
	DB	00H
	DB	00H
	DB	00H
	DB	00H
	DB	00H
	DB	00H
	DB	00H
	DB	00H
	DB	00H
	DB	00H
	DB	00H
	DB	00H
	DB	00H
	DB	00H
	DB	00H
	DB	00H
	DB	00H
	DB	00H
	DB	00H
	DB	00H
	DB	00H
	DB	00H
	DB	00H
	DB	00H
	DB	00H
	DB	00H
	DB	00H
	DB	00H
	DB	00H
	DB	00H
	DB	00H
	DB	00H
	DB	00H
	DB	00H
	DB	00H
	DB	00H
	DB	00H
	DB	00H
	DB	00H
	DB	00H
	DB	00H
	DB	00H
	DB	00H
	DB	00H
	DB	00H
	DB	00H
	DB	00H
	DB	00H
	DB	00H
	DB	00H
	DB	00H
	DB	00H
	DB	00H
	DB	00H
	DB	00H
	DB	00H
	DB	00H
	DB	00H
	DB	00H
	DB	00H
	DB	00H
	DB	00H
	DB	00H
	DB	00H
	DB	00H
	DB	00H
	DB	00H
	DB	00H
	DB	00H
	DB	00H
	DB	00H
	DB	00H
	DB	00H
	DB	00H
	DB	00H
	DB	00H
	DB	00H
	DB	00H
	DB	00H
	DB	00H
	DB	00H
	DB	00H
	DB	00H
	DB	00H
	DB	00H
	DB	00H
	DB	00H
	DB	00H
	DB	00H
	DB	00H
	DB	00H
	DB	00H
	DB	00H
	DB	00H
	DB	00H
	DB	00H
	DB	00H
	DB	00H
	DB	00H
	DB	00H
	DB	00H
	DB	00H
	DB	00H
	DB	00H
	DB	00H
	DB	00H
	DB	00H
	DB	00H
	DB	00H
	DB	00H
	DB	00H
	DB	00H
	DB	00H
	DB	00H
	DB	00H
	DB	00H
	DB	00H
	DB	00H
	DB	00H
	DB	00H
	DB	00H
	DB	00H
	DB	00H
	DB	00H
	DB	00H
	DB	00H
	DB	00H
	DB	00H
	DB	00H
	DW	0ffffH
	DW	0ffffH
	DD	00H
	DB	00H
	DB	00H
	DB	00H
	DB	00H
	DB	00H
	DB	00H
	DB	00H
	DB	00H
	DB	00H
	DB	00H
	DB	00H
	DB	00H
	DB	00H
	DB	00H
	DB	00H
	DB	00H
	DB	00H
	DB	00H
	DB	00H
	DB	00H
	DB	00H
	DB	00H
	DB	00H
	DB	00H
	DB	00H
	DB	00H
	DB	00H
	DB	00H
	DB	00H
	DB	00H
	DB	00H
	DB	00H
	DB	00H
	DB	00H
	DB	00H
	DB	00H
	DB	00H
	DB	00H
	DB	00H
	DB	00H
	DB	00H
	DB	00H
	DB	00H
	DB	00H
	DB	00H
	DB	00H
	DB	00H
	DB	00H
	DB	00H
	DB	00H
	DB	00H
	DB	00H
	DB	00H
	DB	00H
	DB	00H
	DB	00H
	DB	00H
	DB	00H
	DB	00H
	DB	00H
	DB	00H
	DB	00H
	DB	00H
	DB	00H
	DB	00H
	DB	00H
	DB	00H
	DB	00H
	DB	00H
	DB	00H
	DB	00H
	DB	00H
	DB	00H
	DB	00H
	DB	00H
	DB	00H
	DB	00H
	DB	00H
	DB	00H
	DB	00H
	DB	00H
	DB	00H
	DB	00H
	DB	00H
	DB	00H
	DB	00H
	DB	00H
	DB	00H
	DB	00H
	DB	00H
	DB	00H
	DB	00H
	DB	00H
	DB	00H
	DB	00H
	DB	00H
	DB	00H
	DB	00H
	DB	00H
	DB	00H
	DB	00H
	DB	00H
	DB	00H
	DB	00H
	DB	00H
	DB	00H
	DB	00H
	DB	00H
	DB	00H
	DB	00H
	DB	00H
	DB	00H
	DB	00H
	DB	00H
	DB	00H
	DB	00H
	DB	00H
	DB	00H
	DB	00H
	DB	00H
	DB	00H
	DB	00H
	DB	00H
	DB	00H
	DB	00H
	DB	00H
	DB	00H
	DB	00H
	DB	00H
	DB	00H
	DB	00H
	DB	00H
	DB	00H
	DB	00H
	DB	00H
	DB	00H
	DB	00H
	DB	00H
	DB	00H
	DB	00H
	DB	00H
	DB	00H
	DB	00H
	DB	00H
	DB	00H
	DB	00H
	DB	00H
	DB	00H
	DB	00H
	DB	00H
	DB	00H
	DB	00H
	DB	00H
	DB	00H
	DB	00H
	DB	00H
	DB	00H
	DB	00H
	DB	00H
	DB	00H
	DB	00H
	DB	00H
	DB	00H
	DB	00H
	DB	00H
	DB	00H
	DB	00H
	DB	00H
	DB	00H
	DB	00H
	DB	00H
	DB	00H
	DB	00H
	DB	00H
	DB	00H
	DB	00H
	DB	00H
	DB	00H
	DB	00H
	DB	00H
	DB	00H
	DB	00H
	DB	00H
	DB	00H
	DB	00H
	DB	00H
	DB	00H
	DB	00H
	DB	00H
	DB	00H
	DB	00H
	DB	00H
	DB	00H
	DB	00H
	DB	00H
	DB	00H
	DB	00H
	DB	00H
	DB	00H
	DB	00H
	DW	0ffffH
	DW	0ffffH
	DD	00H
	DB	00H
	DB	00H
	DB	00H
	DB	00H
	DB	00H
	DB	00H
	DB	00H
	DB	00H
	DB	00H
	DB	00H
	DB	00H
	DB	00H
	DB	00H
	DB	00H
	DB	00H
	DB	00H
	DB	00H
	DB	00H
	DB	00H
	DB	00H
	DB	00H
	DB	00H
	DB	00H
	DB	00H
	DB	00H
	DB	00H
	DB	00H
	DB	00H
	DB	00H
	DB	00H
	DB	00H
	DB	00H
	DB	00H
	DB	00H
	DB	00H
	DB	00H
	DB	00H
	DB	00H
	DB	00H
	DB	00H
	DB	00H
	DB	00H
	DB	00H
	DB	00H
	DB	00H
	DB	00H
	DB	00H
	DB	00H
	DB	00H
	DB	00H
	DB	00H
	DB	00H
	DB	00H
	DB	00H
	DB	00H
	DB	00H
	DB	00H
	DB	00H
	DB	00H
	DB	00H
	DB	00H
	DB	00H
	DB	00H
	DB	00H
	DB	00H
	DB	00H
	DB	00H
	DB	00H
	DB	00H
	DB	00H
	DB	00H
	DB	00H
	DB	00H
	DB	00H
	DB	00H
	DB	00H
	DB	00H
	DB	00H
	DB	00H
	DB	00H
	DB	00H
	DB	00H
	DB	00H
	DB	00H
	DB	00H
	DB	00H
	DB	00H
	DB	00H
	DB	00H
	DB	00H
	DB	00H
	DB	00H
	DB	00H
	DB	00H
	DB	00H
	DB	00H
	DB	00H
	DB	00H
	DB	00H
	DB	00H
	DB	00H
	DB	00H
	DB	00H
	DB	00H
	DB	00H
	DB	00H
	DB	00H
	DB	00H
	DB	00H
	DB	00H
	DB	00H
	DB	00H
	DB	00H
	DB	00H
	DB	00H
	DB	00H
	DB	00H
	DB	00H
	DB	00H
	DB	00H
	DB	00H
	DB	00H
	DB	00H
	DB	00H
	DB	00H
	DB	00H
	DB	00H
	DB	00H
	DB	00H
	DB	00H
	DB	00H
	DB	00H
	DB	00H
	DB	00H
	DB	00H
	DB	00H
	DB	00H
	DB	00H
	DB	00H
	DB	00H
	DB	00H
	DB	00H
	DB	00H
	DB	00H
	DB	00H
	DB	00H
	DB	00H
	DB	00H
	DB	00H
	DB	00H
	DB	00H
	DB	00H
	DB	00H
	DB	00H
	DB	00H
	DB	00H
	DB	00H
	DB	00H
	DB	00H
	DB	00H
	DB	00H
	DB	00H
	DB	00H
	DB	00H
	DB	00H
	DB	00H
	DB	00H
	DB	00H
	DB	00H
	DB	00H
	DB	00H
	DB	00H
	DB	00H
	DB	00H
	DB	00H
	DB	00H
	DB	00H
	DB	00H
	DB	00H
	DB	00H
	DB	00H
	DB	00H
	DB	00H
	DB	00H
	DB	00H
	DB	00H
	DB	00H
	DB	00H
	DB	00H
	DB	00H
	DB	00H
	DB	00H
	DB	00H
	DB	00H
	DB	00H
	DB	00H
	DB	00H
	DB	00H
	DB	00H
	DB	00H
	DW	0ffffH
	DW	0ffffH
	DD	00H
	DB	00H
	DB	00H
	DB	00H
	DB	00H
	DB	00H
	DB	00H
	DB	00H
	DB	00H
	DB	00H
	DB	00H
	DB	00H
	DB	00H
	DB	00H
	DB	00H
	DB	00H
	DB	00H
	DB	00H
	DB	00H
	DB	00H
	DB	00H
	DB	00H
	DB	00H
	DB	00H
	DB	00H
	DB	00H
	DB	00H
	DB	00H
	DB	00H
	DB	00H
	DB	00H
	DB	00H
	DB	00H
	DB	00H
	DB	00H
	DB	00H
	DB	00H
	DB	00H
	DB	00H
	DB	00H
	DB	00H
	DB	00H
	DB	00H
	DB	00H
	DB	00H
	DB	00H
	DB	00H
	DB	00H
	DB	00H
	DB	00H
	DB	00H
	DB	00H
	DB	00H
	DB	00H
	DB	00H
	DB	00H
	DB	00H
	DB	00H
	DB	00H
	DB	00H
	DB	00H
	DB	00H
	DB	00H
	DB	00H
	DB	00H
	DB	00H
	DB	00H
	DB	00H
	DB	00H
	DB	00H
	DB	00H
	DB	00H
	DB	00H
	DB	00H
	DB	00H
	DB	00H
	DB	00H
	DB	00H
	DB	00H
	DB	00H
	DB	00H
	DB	00H
	DB	00H
	DB	00H
	DB	00H
	DB	00H
	DB	00H
	DB	00H
	DB	00H
	DB	00H
	DB	00H
	DB	00H
	DB	00H
	DB	00H
	DB	00H
	DB	00H
	DB	00H
	DB	00H
	DB	00H
	DB	00H
	DB	00H
	DB	00H
	DB	00H
	DB	00H
	DB	00H
	DB	00H
	DB	00H
	DB	00H
	DB	00H
	DB	00H
	DB	00H
	DB	00H
	DB	00H
	DB	00H
	DB	00H
	DB	00H
	DB	00H
	DB	00H
	DB	00H
	DB	00H
	DB	00H
	DB	00H
	DB	00H
	DB	00H
	DB	00H
	DB	00H
	DB	00H
	DB	00H
	DB	00H
	DB	00H
	DB	00H
	DB	00H
	DB	00H
	DB	00H
	DB	00H
	DB	00H
	DB	00H
	DB	00H
	DB	00H
	DB	00H
	DB	00H
	DB	00H
	DB	00H
	DB	00H
	DB	00H
	DB	00H
	DB	00H
	DB	00H
	DB	00H
	DB	00H
	DB	00H
	DB	00H
	DB	00H
	DB	00H
	DB	00H
	DB	00H
	DB	00H
	DB	00H
	DB	00H
	DB	00H
	DB	00H
	DB	00H
	DB	00H
	DB	00H
	DB	00H
	DB	00H
	DB	00H
	DB	00H
	DB	00H
	DB	00H
	DB	00H
	DB	00H
	DB	00H
	DB	00H
	DB	00H
	DB	00H
	DB	00H
	DB	00H
	DB	00H
	DB	00H
	DB	00H
	DB	00H
	DB	00H
	DB	00H
	DB	00H
	DB	00H
	DB	00H
	DB	00H
	DB	00H
	DB	00H
	DB	00H
	DB	00H
	DB	00H
	DB	00H
	DB	00H
	DB	00H
	DB	00H
	DB	00H
	DB	00H
	DB	00H
	DB	00H
	DW	0ffffH
	DW	0ffffH
	DD	00H
	DB	00H
	DB	00H
	DB	00H
	DB	00H
	DB	00H
	DB	00H
	DB	00H
	DB	00H
	DB	00H
	DB	00H
	DB	00H
	DB	00H
	DB	00H
	DB	00H
	DB	00H
	DB	00H
	DB	00H
	DB	00H
	DB	00H
	DB	00H
	DB	00H
	DB	00H
	DB	00H
	DB	00H
	DB	00H
	DB	00H
	DB	00H
	DB	00H
	DB	00H
	DB	00H
	DB	00H
	DB	00H
	DB	00H
	DB	00H
	DB	00H
	DB	00H
	DB	00H
	DB	00H
	DB	00H
	DB	00H
	DB	00H
	DB	00H
	DB	00H
	DB	00H
	DB	00H
	DB	00H
	DB	00H
	DB	00H
	DB	00H
	DB	00H
	DB	00H
	DB	00H
	DB	00H
	DB	00H
	DB	00H
	DB	00H
	DB	00H
	DB	00H
	DB	00H
	DB	00H
	DB	00H
	DB	00H
	DB	00H
	DB	00H
	DB	00H
	DB	00H
	DB	00H
	DB	00H
	DB	00H
	DB	00H
	DB	00H
	DB	00H
	DB	00H
	DB	00H
	DB	00H
	DB	00H
	DB	00H
	DB	00H
	DB	00H
	DB	00H
	DB	00H
	DB	00H
	DB	00H
	DB	00H
	DB	00H
	DB	00H
	DB	00H
	DB	00H
	DB	00H
	DB	00H
	DB	00H
	DB	00H
	DB	00H
	DB	00H
	DB	00H
	DB	00H
	DB	00H
	DB	00H
	DB	00H
	DB	00H
	DB	00H
	DB	00H
	DB	00H
	DB	00H
	DB	00H
	DB	00H
	DB	00H
	DB	00H
	DB	00H
	DB	00H
	DB	00H
	DB	00H
	DB	00H
	DB	00H
	DB	00H
	DB	00H
	DB	00H
	DB	00H
	DB	00H
	DB	00H
	DB	00H
	DB	00H
	DB	00H
	DB	00H
	DB	00H
	DB	00H
	DB	00H
	DB	00H
	DB	00H
	DB	00H
	DB	00H
	DB	00H
	DB	00H
	DB	00H
	DB	00H
	DB	00H
	DB	00H
	DB	00H
	DB	00H
	DB	00H
	DB	00H
	DB	00H
	DB	00H
	DB	00H
	DB	00H
	DB	00H
	DB	00H
	DB	00H
	DB	00H
	DB	00H
	DB	00H
	DB	00H
	DB	00H
	DB	00H
	DB	00H
	DB	00H
	DB	00H
	DB	00H
	DB	00H
	DB	00H
	DB	00H
	DB	00H
	DB	00H
	DB	00H
	DB	00H
	DB	00H
	DB	00H
	DB	00H
	DB	00H
	DB	00H
	DB	00H
	DB	00H
	DB	00H
	DB	00H
	DB	00H
	DB	00H
	DB	00H
	DB	00H
	DB	00H
	DB	00H
	DB	00H
	DB	00H
	DB	00H
	DB	00H
	DB	00H
	DB	00H
	DB	00H
	DB	00H
	DB	00H
	DB	00H
	DB	00H
	DB	00H
	DB	00H
	DB	00H
	DB	00H
	DB	00H
	DB	00H
	DB	00H
	DB	00H
	DB	00H
	DW	0ffffH
	DW	0ffffH
	DD	00H
	DB	00H
	DB	00H
	DB	00H
	DB	00H
	DB	00H
	DB	00H
	DB	00H
	DB	00H
	DB	00H
	DB	00H
	DB	00H
	DB	00H
	DB	00H
	DB	00H
	DB	00H
	DB	00H
	DB	00H
	DB	00H
	DB	00H
	DB	00H
	DB	00H
	DB	00H
	DB	00H
	DB	00H
	DB	00H
	DB	00H
	DB	00H
	DB	00H
	DB	00H
	DB	00H
	DB	00H
	DB	00H
	DB	00H
	DB	00H
	DB	00H
	DB	00H
	DB	00H
	DB	00H
	DB	00H
	DB	00H
	DB	00H
	DB	00H
	DB	00H
	DB	00H
	DB	00H
	DB	00H
	DB	00H
	DB	00H
	DB	00H
	DB	00H
	DB	00H
	DB	00H
	DB	00H
	DB	00H
	DB	00H
	DB	00H
	DB	00H
	DB	00H
	DB	00H
	DB	00H
	DB	00H
	DB	00H
	DB	00H
	DB	00H
	DB	00H
	DB	00H
	DB	00H
	DB	00H
	DB	00H
	DB	00H
	DB	00H
	DB	00H
	DB	00H
	DB	00H
	DB	00H
	DB	00H
	DB	00H
	DB	00H
	DB	00H
	DB	00H
	DB	00H
	DB	00H
	DB	00H
	DB	00H
	DB	00H
	DB	00H
	DB	00H
	DB	00H
	DB	00H
	DB	00H
	DB	00H
	DB	00H
	DB	00H
	DB	00H
	DB	00H
	DB	00H
	DB	00H
	DB	00H
	DB	00H
	DB	00H
	DB	00H
	DB	00H
	DB	00H
	DB	00H
	DB	00H
	DB	00H
	DB	00H
	DB	00H
	DB	00H
	DB	00H
	DB	00H
	DB	00H
	DB	00H
	DB	00H
	DB	00H
	DB	00H
	DB	00H
	DB	00H
	DB	00H
	DB	00H
	DB	00H
	DB	00H
	DB	00H
	DB	00H
	DB	00H
	DB	00H
	DB	00H
	DB	00H
	DB	00H
	DB	00H
	DB	00H
	DB	00H
	DB	00H
	DB	00H
	DB	00H
	DB	00H
	DB	00H
	DB	00H
	DB	00H
	DB	00H
	DB	00H
	DB	00H
	DB	00H
	DB	00H
	DB	00H
	DB	00H
	DB	00H
	DB	00H
	DB	00H
	DB	00H
	DB	00H
	DB	00H
	DB	00H
	DB	00H
	DB	00H
	DB	00H
	DB	00H
	DB	00H
	DB	00H
	DB	00H
	DB	00H
	DB	00H
	DB	00H
	DB	00H
	DB	00H
	DB	00H
	DB	00H
	DB	00H
	DB	00H
	DB	00H
	DB	00H
	DB	00H
	DB	00H
	DB	00H
	DB	00H
	DB	00H
	DB	00H
	DB	00H
	DB	00H
	DB	00H
	DB	00H
	DB	00H
	DB	00H
	DB	00H
	DB	00H
	DB	00H
	DB	00H
	DB	00H
	DB	00H
	DB	00H
	DB	00H
	DB	00H
	DB	00H
	DB	00H
	DB	00H
	DB	00H
	DB	00H
	DB	00H
	DB	00H
	DB	00H
	DW	0ffffH
	DW	0ffffH
	DD	00H
	DB	00H
	DB	00H
	DB	00H
	DB	00H
	DB	00H
	DB	00H
	DB	00H
	DB	00H
	DB	00H
	DB	00H
	DB	00H
	DB	00H
	DB	00H
	DB	00H
	DB	00H
	DB	00H
	DB	00H
	DB	00H
	DB	00H
	DB	00H
	DB	00H
	DB	00H
	DB	00H
	DB	00H
	DB	00H
	DB	00H
	DB	00H
	DB	00H
	DB	00H
	DB	00H
	DB	00H
	DB	00H
	DB	00H
	DB	00H
	DB	00H
	DB	00H
	DB	00H
	DB	00H
	DB	00H
	DB	00H
	DB	00H
	DB	00H
	DB	00H
	DB	00H
	DB	00H
	DB	00H
	DB	00H
	DB	00H
	DB	00H
	DB	00H
	DB	00H
	DB	00H
	DB	00H
	DB	00H
	DB	00H
	DB	00H
	DB	00H
	DB	00H
	DB	00H
	DB	00H
	DB	00H
	DB	00H
	DB	00H
	DB	00H
	DB	00H
	DB	00H
	DB	00H
	DB	00H
	DB	00H
	DB	00H
	DB	00H
	DB	00H
	DB	00H
	DB	00H
	DB	00H
	DB	00H
	DB	00H
	DB	00H
	DB	00H
	DB	00H
	DB	00H
	DB	00H
	DB	00H
	DB	00H
	DB	00H
	DB	00H
	DB	00H
	DB	00H
	DB	00H
	DB	00H
	DB	00H
	DB	00H
	DB	00H
	DB	00H
	DB	00H
	DB	00H
	DB	00H
	DB	00H
	DB	00H
	DB	00H
	DB	00H
	DB	00H
	DB	00H
	DB	00H
	DB	00H
	DB	00H
	DB	00H
	DB	00H
	DB	00H
	DB	00H
	DB	00H
	DB	00H
	DB	00H
	DB	00H
	DB	00H
	DB	00H
	DB	00H
	DB	00H
	DB	00H
	DB	00H
	DB	00H
	DB	00H
	DB	00H
	DB	00H
	DB	00H
	DB	00H
	DB	00H
	DB	00H
	DB	00H
	DB	00H
	DB	00H
	DB	00H
	DB	00H
	DB	00H
	DB	00H
	DB	00H
	DB	00H
	DB	00H
	DB	00H
	DB	00H
	DB	00H
	DB	00H
	DB	00H
	DB	00H
	DB	00H
	DB	00H
	DB	00H
	DB	00H
	DB	00H
	DB	00H
	DB	00H
	DB	00H
	DB	00H
	DB	00H
	DB	00H
	DB	00H
	DB	00H
	DB	00H
	DB	00H
	DB	00H
	DB	00H
	DB	00H
	DB	00H
	DB	00H
	DB	00H
	DB	00H
	DB	00H
	DB	00H
	DB	00H
	DB	00H
	DB	00H
	DB	00H
	DB	00H
	DB	00H
	DB	00H
	DB	00H
	DB	00H
	DB	00H
	DB	00H
	DB	00H
	DB	00H
	DB	00H
	DB	00H
	DB	00H
	DB	00H
	DB	00H
	DB	00H
	DB	00H
	DB	00H
	DB	00H
	DB	00H
	DB	00H
	DB	00H
	DB	00H
	DB	00H
	DB	00H
	DB	00H
	DB	00H
	DB	00H
	DB	00H
	DW	0ffffH
	DW	0ffffH
	DD	00H
	DB	00H
	DB	00H
	DB	00H
	DB	00H
	DB	00H
	DB	00H
	DB	00H
	DB	00H
	DB	00H
	DB	00H
	DB	00H
	DB	00H
	DB	00H
	DB	00H
	DB	00H
	DB	00H
	DB	00H
	DB	00H
	DB	00H
	DB	00H
	DB	00H
	DB	00H
	DB	00H
	DB	00H
	DB	00H
	DB	00H
	DB	00H
	DB	00H
	DB	00H
	DB	00H
	DB	00H
	DB	00H
	DB	00H
	DB	00H
	DB	00H
	DB	00H
	DB	00H
	DB	00H
	DB	00H
	DB	00H
	DB	00H
	DB	00H
	DB	00H
	DB	00H
	DB	00H
	DB	00H
	DB	00H
	DB	00H
	DB	00H
	DB	00H
	DB	00H
	DB	00H
	DB	00H
	DB	00H
	DB	00H
	DB	00H
	DB	00H
	DB	00H
	DB	00H
	DB	00H
	DB	00H
	DB	00H
	DB	00H
	DB	00H
	DB	00H
	DB	00H
	DB	00H
	DB	00H
	DB	00H
	DB	00H
	DB	00H
	DB	00H
	DB	00H
	DB	00H
	DB	00H
	DB	00H
	DB	00H
	DB	00H
	DB	00H
	DB	00H
	DB	00H
	DB	00H
	DB	00H
	DB	00H
	DB	00H
	DB	00H
	DB	00H
	DB	00H
	DB	00H
	DB	00H
	DB	00H
	DB	00H
	DB	00H
	DB	00H
	DB	00H
	DB	00H
	DB	00H
	DB	00H
	DB	00H
	DB	00H
	DB	00H
	DB	00H
	DB	00H
	DB	00H
	DB	00H
	DB	00H
	DB	00H
	DB	00H
	DB	00H
	DB	00H
	DB	00H
	DB	00H
	DB	00H
	DB	00H
	DB	00H
	DB	00H
	DB	00H
	DB	00H
	DB	00H
	DB	00H
	DB	00H
	DB	00H
	DB	00H
	DB	00H
	DB	00H
	DB	00H
	DB	00H
	DB	00H
	DB	00H
	DB	00H
	DB	00H
	DB	00H
	DB	00H
	DB	00H
	DB	00H
	DB	00H
	DB	00H
	DB	00H
	DB	00H
	DB	00H
	DB	00H
	DB	00H
	DB	00H
	DB	00H
	DB	00H
	DB	00H
	DB	00H
	DB	00H
	DB	00H
	DB	00H
	DB	00H
	DB	00H
	DB	00H
	DB	00H
	DB	00H
	DB	00H
	DB	00H
	DB	00H
	DB	00H
	DB	00H
	DB	00H
	DB	00H
	DB	00H
	DB	00H
	DB	00H
	DB	00H
	DB	00H
	DB	00H
	DB	00H
	DB	00H
	DB	00H
	DB	00H
	DB	00H
	DB	00H
	DB	00H
	DB	00H
	DB	00H
	DB	00H
	DB	00H
	DB	00H
	DB	00H
	DB	00H
	DB	00H
	DB	00H
	DB	00H
	DB	00H
	DB	00H
	DB	00H
	DB	00H
	DB	00H
	DB	00H
	DB	00H
	DB	00H
	DB	00H
	DB	00H
	DB	00H
	DB	00H
	DB	00H
	DB	00H
	DB	00H
	DW	0ffffH
	DW	0ffffH
	DD	00H
	DB	00H
	DB	00H
	DB	00H
	DB	00H
	DB	00H
	DB	00H
	DB	00H
	DB	00H
	DB	00H
	DB	00H
	DB	00H
	DB	00H
	DB	00H
	DB	00H
	DB	00H
	DB	00H
	DB	00H
	DB	00H
	DB	00H
	DB	00H
	DB	00H
	DB	00H
	DB	00H
	DB	00H
	DB	00H
	DB	00H
	DB	00H
	DB	00H
	DB	00H
	DB	00H
	DB	00H
	DB	00H
	DB	00H
	DB	00H
	DB	00H
	DB	00H
	DB	00H
	DB	00H
	DB	00H
	DB	00H
	DB	00H
	DB	00H
	DB	00H
	DB	00H
	DB	00H
	DB	00H
	DB	00H
	DB	00H
	DB	00H
	DB	00H
	DB	00H
	DB	00H
	DB	00H
	DB	00H
	DB	00H
	DB	00H
	DB	00H
	DB	00H
	DB	00H
	DB	00H
	DB	00H
	DB	00H
	DB	00H
	DB	00H
	DB	00H
	DB	00H
	DB	00H
	DB	00H
	DB	00H
	DB	00H
	DB	00H
	DB	00H
	DB	00H
	DB	00H
	DB	00H
	DB	00H
	DB	00H
	DB	00H
	DB	00H
	DB	00H
	DB	00H
	DB	00H
	DB	00H
	DB	00H
	DB	00H
	DB	00H
	DB	00H
	DB	00H
	DB	00H
	DB	00H
	DB	00H
	DB	00H
	DB	00H
	DB	00H
	DB	00H
	DB	00H
	DB	00H
	DB	00H
	DB	00H
	DB	00H
	DB	00H
	DB	00H
	DB	00H
	DB	00H
	DB	00H
	DB	00H
	DB	00H
	DB	00H
	DB	00H
	DB	00H
	DB	00H
	DB	00H
	DB	00H
	DB	00H
	DB	00H
	DB	00H
	DB	00H
	DB	00H
	DB	00H
	DB	00H
	DB	00H
	DB	00H
	DB	00H
	DB	00H
	DB	00H
	DB	00H
	DB	00H
	DB	00H
	DB	00H
	DB	00H
	DB	00H
	DB	00H
	DB	00H
	DB	00H
	DB	00H
	DB	00H
	DB	00H
	DB	00H
	DB	00H
	DB	00H
	DB	00H
	DB	00H
	DB	00H
	DB	00H
	DB	00H
	DB	00H
	DB	00H
	DB	00H
	DB	00H
	DB	00H
	DB	00H
	DB	00H
	DB	00H
	DB	00H
	DB	00H
	DB	00H
	DB	00H
	DB	00H
	DB	00H
	DB	00H
	DB	00H
	DB	00H
	DB	00H
	DB	00H
	DB	00H
	DB	00H
	DB	00H
	DB	00H
	DB	00H
	DB	00H
	DB	00H
	DB	00H
	DB	00H
	DB	00H
