; Listing generated by Microsoft (R) Optimizing Compiler Version 19.27.29112.0 

include listing.inc

INCLUDELIB MSVCRTD
INCLUDELIB OLDNAMES

msvcjmc	SEGMENT
__367CC694_corecrt_memcpy_s@h DB 01H
__F66CEB67_corecrt_stdio_config@h DB 01H
__5467428D_corecrt_wconio@h DB 01H
__4442441F_corecrt_wio@h DB 01H
__101834BA_corecrt_wstdio@h DB 01H
__DC9673E3_corecrt_wstring@h DB 01H
__45F4AF76_corecrt_wtime@h DB 01H
__186FF47F_stat@h DB 01H
__534C724A_wchar@h DB 01H
__62A468D7_tchar@h DB 01H
__FC8B975D_vcruntime_new@h DB 01H
__35D7DDB3_corecrt_memory@h DB 01H
__A29A7DFB_string@h DB 01H
__7CEFA1A0_LT@h DB 01H
__09340588_corecrt_math@h DB 01H
__24E9E95F_stdlib@h DB 01H
__51019776_cstdlib DB 01H
__B236D4B0_type_traits DB 01H
__B0C4CEA9_malloc@h DB 01H
__18D87206_vcruntime_exception@h DB 01H
__1302BCB8_exception DB 01H
__AD6A91B7_stdio@h DB 01H
__7B3ADE64_vcruntime_typeinfo@h DB 01H
__4638863E_typeinfo DB 01H
__5E219BC0_limits DB 01H
__36E77527_xutility DB 01H
__0C99713E_xmemory DB 01H
__E28F974E_memory DB 01H
__BDE1803E_FST@h DB 01H
__DF12C297_FST@cpp DB 01H
__190E306E_xatomic@h DB 01H
__660C12FD_utility DB 01H
msvcjmc	ENDS
PUBLIC	??_H@YAXPEAX_K1P6APEAX0@Z@Z			; `vector constructor iterator'
PUBLIC	??0RELATION@FST@@QEAA@DF@Z			; FST::RELATION::RELATION
PUBLIC	??_FRELATION@FST@@QEAAXXZ			; FST::RELATION::`default constructor closure'
PUBLIC	??0NODE@FST@@QEAA@XZ				; FST::NODE::NODE
PUBLIC	??0NODE@FST@@QEAA@FURELATION@1@ZZ		; FST::NODE::NODE
PUBLIC	??0FST@0@QEAA@PEADFUNODE@0@ZZ			; FST::FST::FST
PUBLIC	?execute@FST@@YA_NAEAU11@@Z			; FST::execute
PUBLIC	?step@FST@@YA_NAEAU11@AEAPEAF@Z			; FST::step
PUBLIC	??$swap@PEAF$0A@@std@@YAXAEAPEAF0@Z		; std::swap<short *,0>
PUBLIC	??$move@AEAPEAF@std@@YA$$QEAPEAFAEAPEAF@Z	; std::move<short * &>
PUBLIC	__JustMyCode_Default
EXTRN	??_U@YAPEAX_K@Z:PROC				; operator new[]
EXTRN	??_V@YAXPEAX@Z:PROC				; operator delete[]
EXTRN	??_V@YAXPEAX_K@Z:PROC				; operator delete[]
EXTRN	memset:PROC
EXTRN	strlen:PROC
EXTRN	_RTC_CheckStackVars:PROC
EXTRN	_RTC_InitBase:PROC
EXTRN	_RTC_Shutdown:PROC
EXTRN	__CheckForDebuggerJustMyCode:PROC
EXTRN	__CxxFrameHandler4:PROC
EXTRN	__GSHandlerCheck:PROC
EXTRN	__GSHandlerCheck_EH4:PROC
EXTRN	__security_check_cookie:PROC
EXTRN	__security_cookie:QWORD
;	COMDAT pdata
pdata	SEGMENT
$pdata$??_H@YAXPEAX_K1P6APEAX0@Z@Z DD imagerel $LN9
	DD	imagerel $LN9+181
	DD	imagerel $unwind$??_H@YAXPEAX_K1P6APEAX0@Z@Z
pdata	ENDS
;	COMDAT pdata
pdata	SEGMENT
$pdata$??0RELATION@FST@@QEAA@DF@Z DD imagerel $LN4
	DD	imagerel $LN4+115
	DD	imagerel $unwind$??0RELATION@FST@@QEAA@DF@Z
pdata	ENDS
;	COMDAT pdata
pdata	SEGMENT
$pdata$??_FRELATION@FST@@QEAAXXZ DD imagerel $LN4
	DD	imagerel $LN4+69
	DD	imagerel $unwind$??_FRELATION@FST@@QEAAXXZ
pdata	ENDS
;	COMDAT pdata
pdata	SEGMENT
$pdata$??0NODE@FST@@QEAA@XZ DD imagerel $LN4
	DD	imagerel $LN4+91
	DD	imagerel $unwind$??0NODE@FST@@QEAA@XZ
pdata	ENDS
;	COMDAT pdata
pdata	SEGMENT
$pdata$??0NODE@FST@@QEAA@FURELATION@1@ZZ DD imagerel $LN12
	DD	imagerel $LN12+334
	DD	imagerel $unwind$??0NODE@FST@@QEAA@FURELATION@1@ZZ
pdata	ENDS
;	COMDAT pdata
pdata	SEGMENT
$pdata$?dtor$0@?0???0NODE@FST@@QEAA@FURELATION@1@ZZ@4HA DD imagerel ?dtor$0@?0???0NODE@FST@@QEAA@FURELATION@1@ZZ@4HA
	DD	imagerel ?dtor$0@?0???0NODE@FST@@QEAA@FURELATION@1@ZZ@4HA+65
	DD	imagerel $unwind$?dtor$0@?0???0NODE@FST@@QEAA@FURELATION@1@ZZ@4HA
pdata	ENDS
;	COMDAT pdata
pdata	SEGMENT
$pdata$??0FST@0@QEAA@PEADFUNODE@0@ZZ DD imagerel $LN12
	DD	imagerel $LN12+533
	DD	imagerel $unwind$??0FST@0@QEAA@PEADFUNODE@0@ZZ
pdata	ENDS
;	COMDAT pdata
pdata	SEGMENT
$pdata$?dtor$0@?0???0FST@0@QEAA@PEADFUNODE@0@ZZ@4HA DD imagerel ?dtor$0@?0???0FST@0@QEAA@PEADFUNODE@0@ZZ@4HA
	DD	imagerel ?dtor$0@?0???0FST@0@QEAA@PEADFUNODE@0@ZZ@4HA+65
	DD	imagerel $unwind$?dtor$0@?0???0FST@0@QEAA@PEADFUNODE@0@ZZ@4HA
pdata	ENDS
;	COMDAT pdata
pdata	SEGMENT
$pdata$?execute@FST@@YA_NAEAU11@@Z DD imagerel $LN15
	DD	imagerel $LN15+491
	DD	imagerel $unwind$?execute@FST@@YA_NAEAU11@@Z
pdata	ENDS
;	COMDAT pdata
pdata	SEGMENT
$pdata$?step@FST@@YA_NAEAU11@AEAPEAF@Z DD imagerel $LN17
	DD	imagerel $LN17+394
	DD	imagerel $unwind$?step@FST@@YA_NAEAU11@AEAPEAF@Z
pdata	ENDS
;	COMDAT pdata
pdata	SEGMENT
$pdata$??$swap@PEAF$0A@@std@@YAXAEAPEAF0@Z DD imagerel $LN3
	DD	imagerel $LN3+184
	DD	imagerel $unwind$??$swap@PEAF$0A@@std@@YAXAEAPEAF0@Z
pdata	ENDS
;	COMDAT pdata
pdata	SEGMENT
$pdata$??$move@AEAPEAF@std@@YA$$QEAPEAFAEAPEAF@Z DD imagerel $LN3
	DD	imagerel $LN3+71
	DD	imagerel $unwind$??$move@AEAPEAF@std@@YA$$QEAPEAFAEAPEAF@Z
pdata	ENDS
;	COMDAT rtc$TMZ
rtc$TMZ	SEGMENT
_RTC_Shutdown.rtc$TMZ DQ FLAT:_RTC_Shutdown
rtc$TMZ	ENDS
;	COMDAT rtc$IMZ
rtc$IMZ	SEGMENT
_RTC_InitBase.rtc$IMZ DQ FLAT:_RTC_InitBase
rtc$IMZ	ENDS
;	COMDAT xdata
xdata	SEGMENT
$ip2state$??$move@AEAPEAF@std@@YA$$QEAPEAFAEAPEAF@Z DB 02H
	DB	00H
	DB	00H
xdata	ENDS
;	COMDAT xdata
xdata	SEGMENT
$cppxdata$??$move@AEAPEAF@std@@YA$$QEAPEAFAEAPEAF@Z DB 060H
	DD	imagerel $ip2state$??$move@AEAPEAF@std@@YA$$QEAPEAFAEAPEAF@Z
xdata	ENDS
;	COMDAT xdata
xdata	SEGMENT
$unwind$??$move@AEAPEAF@std@@YA$$QEAPEAFAEAPEAF@Z DD 025052a19H
	DD	010e2313H
	DD	07007001dH
	DD	05006H
	DD	imagerel __CxxFrameHandler4
	DD	imagerel $cppxdata$??$move@AEAPEAF@std@@YA$$QEAPEAFAEAPEAF@Z
xdata	ENDS
;	COMDAT xdata
xdata	SEGMENT
$ip2state$??$swap@PEAF$0A@@std@@YAXAEAPEAF0@Z DB 02H
	DB	00H
	DB	00H
xdata	ENDS
;	COMDAT xdata
xdata	SEGMENT
$cppxdata$??$swap@PEAF$0A@@std@@YAXAEAPEAF0@Z DB 060H
	DD	imagerel $ip2state$??$swap@PEAF$0A@@std@@YAXAEAPEAF0@Z
xdata	ENDS
;	COMDAT xdata
xdata	SEGMENT
$unwind$??$swap@PEAF$0A@@std@@YAXAEAPEAF0@Z DD 025054019H
	DD	01132318H
	DD	0700c0021H
	DD	0500bH
	DD	imagerel __GSHandlerCheck_EH4
	DD	imagerel $cppxdata$??$swap@PEAF$0A@@std@@YAXAEAPEAF0@Z
	DD	0fbH
xdata	ENDS
;	COMDAT CONST
CONST	SEGMENT
??$swap@PEAF$0A@@std@@YAXAEAPEAF0@Z$rtcName$0 DB 05fH	; std::swap<short *,0>
	DB	054H
	DB	06dH
	DB	070H
	DB	00H
	ORG $+11
??$swap@PEAF$0A@@std@@YAXAEAPEAF0@Z$rtcVarDesc DD 028H	; std::swap<short *,0>
	DD	08H
	DQ	FLAT:??$swap@PEAF$0A@@std@@YAXAEAPEAF0@Z$rtcName$0
	ORG $+48
??$swap@PEAF$0A@@std@@YAXAEAPEAF0@Z$rtcFrameData DD 01H	; std::swap<short *,0>
	DD	00H
	DQ	FLAT:??$swap@PEAF$0A@@std@@YAXAEAPEAF0@Z$rtcVarDesc
CONST	ENDS
;	COMDAT xdata
xdata	SEGMENT
$unwind$?step@FST@@YA_NAEAU11@AEAPEAF@Z DD 025052f01H
	DD	01132318H
	DD	0700c0029H
	DD	0500bH
xdata	ENDS
;	COMDAT xdata
xdata	SEGMENT
$unwind$?execute@FST@@YA_NAEAU11@@Z DD 025053b19H
	DD	010e2313H
	DD	070070037H
	DD	05006H
	DD	imagerel __GSHandlerCheck
	DD	01a0H
xdata	ENDS
;	COMDAT CONST
CONST	SEGMENT
?execute@FST@@YA_NAEAU11@@Z$rtcName$0 DB 072H		; FST::execute
	DB	073H
	DB	074H
	DB	061H
	DB	074H
	DB	065H
	DB	073H
	DB	00H
	ORG $+8
?execute@FST@@YA_NAEAU11@@Z$rtcVarDesc DD 028H		; FST::execute
	DD	08H
	DQ	FLAT:?execute@FST@@YA_NAEAU11@@Z$rtcName$0
	ORG $+48
?execute@FST@@YA_NAEAU11@@Z$rtcFrameData DD 01H		; FST::execute
	DD	00H
	DQ	FLAT:?execute@FST@@YA_NAEAU11@@Z$rtcVarDesc
CONST	ENDS
;	COMDAT xdata
xdata	SEGMENT
$unwind$?dtor$0@?0???0FST@0@QEAA@PEADFUNODE@0@ZZ@4HA DD 031001H
	DD	0700c4210H
	DD	0500bH
xdata	ENDS
;	COMDAT xdata
xdata	SEGMENT
$ip2state$??0FST@0@QEAA@PEADFUNODE@0@ZZ DB 06H
	DB	00H
	DB	00H
	DB	0b1H, 02H
	DB	02H
	DB	0a4H
	DB	00H
xdata	ENDS
;	COMDAT xdata
xdata	SEGMENT
$stateUnwindMap$??0FST@0@QEAA@PEADFUNODE@0@ZZ DB 02H
	DB	0eH
	DD	imagerel ?dtor$0@?0???0FST@0@QEAA@PEADFUNODE@0@ZZ@4HA
xdata	ENDS
;	COMDAT xdata
xdata	SEGMENT
$cppxdata$??0FST@0@QEAA@PEADFUNODE@0@ZZ DB 028H
	DD	imagerel $stateUnwindMap$??0FST@0@QEAA@PEADFUNODE@0@ZZ
	DD	imagerel $ip2state$??0FST@0@QEAA@PEADFUNODE@0@ZZ
xdata	ENDS
;	COMDAT xdata
xdata	SEGMENT
$unwind$??0FST@0@QEAA@PEADFUNODE@0@ZZ DD 025063b11H
	DD	011f2324H
	DD	070180034H
	DD	050166017H
	DD	imagerel __CxxFrameHandler4
	DD	imagerel $cppxdata$??0FST@0@QEAA@PEADFUNODE@0@ZZ
xdata	ENDS
;	COMDAT xdata
xdata	SEGMENT
$unwind$?dtor$0@?0???0NODE@FST@@QEAA@FURELATION@1@ZZ@4HA DD 031001H
	DD	0700c4210H
	DD	0500bH
xdata	ENDS
;	COMDAT xdata
xdata	SEGMENT
$ip2state$??0NODE@FST@@QEAA@FURELATION@1@ZZ DB 06H
	DB	00H
	DB	00H
	DB	'Y', 02H
	DB	02H
	DB	0a4H
	DB	00H
xdata	ENDS
;	COMDAT xdata
xdata	SEGMENT
$stateUnwindMap$??0NODE@FST@@QEAA@FURELATION@1@ZZ DB 02H
	DB	0eH
	DD	imagerel ?dtor$0@?0???0NODE@FST@@QEAA@FURELATION@1@ZZ@4HA
xdata	ENDS
;	COMDAT xdata
xdata	SEGMENT
$cppxdata$??0NODE@FST@@QEAA@FURELATION@1@ZZ DB 028H
	DD	imagerel $stateUnwindMap$??0NODE@FST@@QEAA@FURELATION@1@ZZ
	DD	imagerel $ip2state$??0NODE@FST@@QEAA@FURELATION@1@ZZ
xdata	ENDS
;	COMDAT xdata
xdata	SEGMENT
$unwind$??0NODE@FST@@QEAA@FURELATION@1@ZZ DD 025053911H
	DD	011d2322H
	DD	070160031H
	DD	05015H
	DD	imagerel __CxxFrameHandler4
	DD	imagerel $cppxdata$??0NODE@FST@@QEAA@FURELATION@1@ZZ
xdata	ENDS
;	COMDAT xdata
xdata	SEGMENT
$unwind$??0NODE@FST@@QEAA@XZ DD 025052a01H
	DD	010e2313H
	DD	070070021H
	DD	05006H
xdata	ENDS
;	COMDAT xdata
xdata	SEGMENT
$unwind$??_FRELATION@FST@@QEAAXXZ DD 025052a01H
	DD	010e2313H
	DD	07007001dH
	DD	05006H
xdata	ENDS
;	COMDAT xdata
xdata	SEGMENT
$unwind$??0RELATION@FST@@QEAA@DF@Z DD 025053401H
	DD	0118231dH
	DD	07011001dH
	DD	05010H
xdata	ENDS
;	COMDAT xdata
xdata	SEGMENT
$unwind$??_H@YAXPEAX_K1P6APEAX0@Z@Z DD 025053901H
	DD	011d2322H
	DD	07016001fH
	DD	05015H
xdata	ENDS
; Function compile flags: /Odt
;	COMDAT __JustMyCode_Default
_TEXT	SEGMENT
__JustMyCode_Default PROC				; COMDAT
  00000	c2 00 00	 ret	 0
__JustMyCode_Default ENDP
_TEXT	ENDS
; Function compile flags: /Odtp /RTCsu /ZI
; File C:\Program Files (x86)\Microsoft Visual Studio\2019\Enterprise\VC\Tools\MSVC\14.27.29110\include\type_traits
;	COMDAT ??$move@AEAPEAF@std@@YA$$QEAPEAFAEAPEAF@Z
_TEXT	SEGMENT
_Arg$ = 224
??$move@AEAPEAF@std@@YA$$QEAPEAFAEAPEAF@Z PROC		; std::move<short * &>, COMDAT

; 1466 : _NODISCARD constexpr remove_reference_t<_Ty>&& move(_Ty&& _Arg) noexcept { // forward _Arg as movable

$LN3:
  00000	48 89 4c 24 08	 mov	 QWORD PTR [rsp+8], rcx
  00005	55		 push	 rbp
  00006	57		 push	 rdi
  00007	48 81 ec e8 00
	00 00		 sub	 rsp, 232		; 000000e8H
  0000e	48 8d 6c 24 20	 lea	 rbp, QWORD PTR [rsp+32]
  00013	48 8b fc	 mov	 rdi, rsp
  00016	b9 3a 00 00 00	 mov	 ecx, 58			; 0000003aH
  0001b	b8 cc cc cc cc	 mov	 eax, -858993460		; ccccccccH
  00020	f3 ab		 rep stosd
  00022	48 8b 8c 24 08
	01 00 00	 mov	 rcx, QWORD PTR [rsp+264]
  0002a	48 8d 0d 00 00
	00 00		 lea	 rcx, OFFSET FLAT:__B236D4B0_type_traits
  00031	e8 00 00 00 00	 call	 __CheckForDebuggerJustMyCode

; 1467 :     return static_cast<remove_reference_t<_Ty>&&>(_Arg);

  00036	48 8b 85 e0 00
	00 00		 mov	 rax, QWORD PTR _Arg$[rbp]

; 1468 : }

  0003d	48 8d a5 c8 00
	00 00		 lea	 rsp, QWORD PTR [rbp+200]
  00044	5f		 pop	 rdi
  00045	5d		 pop	 rbp
  00046	c3		 ret	 0
??$move@AEAPEAF@std@@YA$$QEAPEAFAEAPEAF@Z ENDP		; std::move<short * &>
_TEXT	ENDS
; Function compile flags: /Odtp /RTCsu /ZI
; File C:\Program Files (x86)\Microsoft Visual Studio\2019\Enterprise\VC\Tools\MSVC\14.27.29110\include\utility
;	COMDAT ??$swap@PEAF$0A@@std@@YAXAEAPEAF0@Z
_TEXT	SEGMENT
_Tmp$ = 8
__$ArrayPad$ = 216
_Left$ = 256
_Right$ = 264
??$swap@PEAF$0A@@std@@YAXAEAPEAF0@Z PROC		; std::swap<short *,0>, COMDAT

; 105  :     is_nothrow_move_constructible_v<_Ty>&& is_nothrow_move_assignable_v<_Ty>) {

$LN3:
  00000	48 89 54 24 10	 mov	 QWORD PTR [rsp+16], rdx
  00005	48 89 4c 24 08	 mov	 QWORD PTR [rsp+8], rcx
  0000a	55		 push	 rbp
  0000b	57		 push	 rdi
  0000c	48 81 ec 08 01
	00 00		 sub	 rsp, 264		; 00000108H
  00013	48 8d 6c 24 20	 lea	 rbp, QWORD PTR [rsp+32]
  00018	48 8b fc	 mov	 rdi, rsp
  0001b	b9 42 00 00 00	 mov	 ecx, 66			; 00000042H
  00020	b8 cc cc cc cc	 mov	 eax, -858993460		; ccccccccH
  00025	f3 ab		 rep stosd
  00027	48 8b 8c 24 28
	01 00 00	 mov	 rcx, QWORD PTR [rsp+296]
  0002f	48 8b 05 00 00
	00 00		 mov	 rax, QWORD PTR __security_cookie
  00036	48 33 c5	 xor	 rax, rbp
  00039	48 89 85 d8 00
	00 00		 mov	 QWORD PTR __$ArrayPad$[rbp], rax
  00040	48 8d 0d 00 00
	00 00		 lea	 rcx, OFFSET FLAT:__660C12FD_utility
  00047	e8 00 00 00 00	 call	 __CheckForDebuggerJustMyCode

; 106  :     _Ty _Tmp = _STD move(_Left);

  0004c	48 8b 8d 00 01
	00 00		 mov	 rcx, QWORD PTR _Left$[rbp]
  00053	e8 00 00 00 00	 call	 ??$move@AEAPEAF@std@@YA$$QEAPEAFAEAPEAF@Z ; std::move<short * &>
  00058	48 8b 00	 mov	 rax, QWORD PTR [rax]
  0005b	48 89 45 08	 mov	 QWORD PTR _Tmp$[rbp], rax

; 107  :     _Left    = _STD move(_Right);

  0005f	48 8b 8d 08 01
	00 00		 mov	 rcx, QWORD PTR _Right$[rbp]
  00066	e8 00 00 00 00	 call	 ??$move@AEAPEAF@std@@YA$$QEAPEAFAEAPEAF@Z ; std::move<short * &>
  0006b	48 8b 8d 00 01
	00 00		 mov	 rcx, QWORD PTR _Left$[rbp]
  00072	48 8b 00	 mov	 rax, QWORD PTR [rax]
  00075	48 89 01	 mov	 QWORD PTR [rcx], rax

; 108  :     _Right   = _STD move(_Tmp);

  00078	48 8d 4d 08	 lea	 rcx, QWORD PTR _Tmp$[rbp]
  0007c	e8 00 00 00 00	 call	 ??$move@AEAPEAF@std@@YA$$QEAPEAFAEAPEAF@Z ; std::move<short * &>
  00081	48 8b 8d 08 01
	00 00		 mov	 rcx, QWORD PTR _Right$[rbp]
  00088	48 8b 00	 mov	 rax, QWORD PTR [rax]
  0008b	48 89 01	 mov	 QWORD PTR [rcx], rax

; 109  : }

  0008e	48 8d 4d e0	 lea	 rcx, QWORD PTR [rbp-32]
  00092	48 8d 15 00 00
	00 00		 lea	 rdx, OFFSET FLAT:??$swap@PEAF$0A@@std@@YAXAEAPEAF0@Z$rtcFrameData
  00099	e8 00 00 00 00	 call	 _RTC_CheckStackVars
  0009e	90		 npad	 1
  0009f	48 8b 8d d8 00
	00 00		 mov	 rcx, QWORD PTR __$ArrayPad$[rbp]
  000a6	48 33 cd	 xor	 rcx, rbp
  000a9	e8 00 00 00 00	 call	 __security_check_cookie
  000ae	48 8d a5 e8 00
	00 00		 lea	 rsp, QWORD PTR [rbp+232]
  000b5	5f		 pop	 rdi
  000b6	5d		 pop	 rbp
  000b7	c3		 ret	 0
??$swap@PEAF$0A@@std@@YAXAEAPEAF0@Z ENDP		; std::swap<short *,0>
_TEXT	ENDS
; Function compile flags: /Odtp /RTCsu /ZI
; File C:\Users\Skvortsoff\OneDrive\Документы\GitHub\course_LP\course_LP\FST.cpp
;	COMDAT ?step@FST@@YA_NAEAU11@AEAPEAF@Z
_TEXT	SEGMENT
rc$ = 4
i$1 = 36
j$2 = 68
fst$ = 320
rstates$ = 328
?step@FST@@YA_NAEAU11@AEAPEAF@Z PROC			; FST::step, COMDAT

; 38   : 	{

$LN17:
  00000	48 89 54 24 10	 mov	 QWORD PTR [rsp+16], rdx
  00005	48 89 4c 24 08	 mov	 QWORD PTR [rsp+8], rcx
  0000a	55		 push	 rbp
  0000b	57		 push	 rdi
  0000c	48 81 ec 48 01
	00 00		 sub	 rsp, 328		; 00000148H
  00013	48 8d 6c 24 20	 lea	 rbp, QWORD PTR [rsp+32]
  00018	48 8b fc	 mov	 rdi, rsp
  0001b	b9 52 00 00 00	 mov	 ecx, 82			; 00000052H
  00020	b8 cc cc cc cc	 mov	 eax, -858993460		; ccccccccH
  00025	f3 ab		 rep stosd
  00027	48 8b 8c 24 68
	01 00 00	 mov	 rcx, QWORD PTR [rsp+360]
  0002f	48 8d 0d 00 00
	00 00		 lea	 rcx, OFFSET FLAT:__DF12C297_FST@cpp
  00036	e8 00 00 00 00	 call	 __CheckForDebuggerJustMyCode

; 39   : 		bool rc = false;

  0003b	c6 45 04 00	 mov	 BYTE PTR rc$[rbp], 0

; 40   : 		std::swap(rstates, fst.rstates);						// Г±Г¬ГҐГ­Г  Г¬Г Г±Г±ГЁГўГ®Гў 

  0003f	48 8b 85 40 01
	00 00		 mov	 rax, QWORD PTR fst$[rbp]
  00046	48 83 c0 18	 add	 rax, 24
  0004a	48 8b d0	 mov	 rdx, rax
  0004d	48 8b 8d 48 01
	00 00		 mov	 rcx, QWORD PTR rstates$[rbp]
  00054	e8 00 00 00 00	 call	 ??$swap@PEAF$0A@@std@@YAXAEAPEAF0@Z ; std::swap<short *,0>

; 41   : 
; 42   : 		for (short i = 0; (i < fst.nstates) && !rc; i++)

  00059	33 c0		 xor	 eax, eax
  0005b	66 89 45 24	 mov	 WORD PTR i$1[rbp], ax
  0005f	eb 0b		 jmp	 SHORT $LN4@step
$LN2@step:
  00061	0f b7 45 24	 movzx	 eax, WORD PTR i$1[rbp]
  00065	66 ff c0	 inc	 ax
  00068	66 89 45 24	 mov	 WORD PTR i$1[rbp], ax
$LN4@step:
  0006c	0f bf 45 24	 movsx	 eax, WORD PTR i$1[rbp]
  00070	48 8b 8d 40 01
	00 00		 mov	 rcx, QWORD PTR fst$[rbp]
  00077	0f bf 49 0a	 movsx	 ecx, WORD PTR [rcx+10]
  0007b	3b c1		 cmp	 eax, ecx
  0007d	0f 8d f9 00 00
	00		 jge	 $LN3@step
  00083	0f b6 45 04	 movzx	 eax, BYTE PTR rc$[rbp]
  00087	85 c0		 test	 eax, eax
  00089	0f 85 ed 00 00
	00		 jne	 $LN3@step

; 43   : 		{
; 44   : 			if (rstates[i] == fst.position)

  0008f	48 0f bf 45 24	 movsx	 rax, WORD PTR i$1[rbp]
  00094	48 8b 8d 48 01
	00 00		 mov	 rcx, QWORD PTR rstates$[rbp]
  0009b	48 8b 09	 mov	 rcx, QWORD PTR [rcx]
  0009e	0f bf 04 41	 movsx	 eax, WORD PTR [rcx+rax*2]
  000a2	48 8b 8d 40 01
	00 00		 mov	 rcx, QWORD PTR fst$[rbp]
  000a9	0f bf 49 08	 movsx	 ecx, WORD PTR [rcx+8]
  000ad	3b c1		 cmp	 eax, ecx
  000af	0f 85 c2 00 00
	00		 jne	 $LN8@step

; 45   : 				for (short j = 0; j < fst.nodes[i].n_relation; j++)

  000b5	33 c0		 xor	 eax, eax
  000b7	66 89 45 44	 mov	 WORD PTR j$2[rbp], ax
  000bb	eb 0b		 jmp	 SHORT $LN7@step
$LN5@step:
  000bd	0f b7 45 44	 movzx	 eax, WORD PTR j$2[rbp]
  000c1	66 ff c0	 inc	 ax
  000c4	66 89 45 44	 mov	 WORD PTR j$2[rbp], ax
$LN7@step:
  000c8	0f bf 45 44	 movsx	 eax, WORD PTR j$2[rbp]
  000cc	48 0f bf 4d 24	 movsx	 rcx, WORD PTR i$1[rbp]
  000d1	48 6b c9 10	 imul	 rcx, rcx, 16
  000d5	48 8b 95 40 01
	00 00		 mov	 rdx, QWORD PTR fst$[rbp]
  000dc	48 8b 52 10	 mov	 rdx, QWORD PTR [rdx+16]
  000e0	0f bf 0c 0a	 movsx	 ecx, WORD PTR [rdx+rcx]
  000e4	3b c1		 cmp	 eax, ecx
  000e6	0f 8d 8b 00 00
	00		 jge	 $LN6@step

; 46   : 				{
; 47   : 					if (fst.nodes[i].relations[j].symbol == fst.lenta[fst.position])

  000ec	48 0f bf 45 24	 movsx	 rax, WORD PTR i$1[rbp]
  000f1	48 6b c0 10	 imul	 rax, rax, 16
  000f5	48 8b 8d 40 01
	00 00		 mov	 rcx, QWORD PTR fst$[rbp]
  000fc	48 8b 49 10	 mov	 rcx, QWORD PTR [rcx+16]
  00100	48 0f bf 55 44	 movsx	 rdx, WORD PTR j$2[rbp]
  00105	48 8b 44 01 08	 mov	 rax, QWORD PTR [rcx+rax+8]
  0010a	0f b6 04 90	 movzx	 eax, BYTE PTR [rax+rdx*4]
  0010e	48 8b 8d 40 01
	00 00		 mov	 rcx, QWORD PTR fst$[rbp]
  00115	48 0f bf 49 08	 movsx	 rcx, WORD PTR [rcx+8]
  0011a	48 8b 95 40 01
	00 00		 mov	 rdx, QWORD PTR fst$[rbp]
  00121	48 8b 12	 mov	 rdx, QWORD PTR [rdx]
  00124	0f b6 0c 0a	 movzx	 ecx, BYTE PTR [rdx+rcx]
  00128	3b c1		 cmp	 eax, ecx
  0012a	75 46		 jne	 SHORT $LN9@step

; 48   : 					{
; 49   : 						fst.rstates[fst.nodes[i].relations[j].nnode] = fst.position + 1;

  0012c	48 8b 85 40 01
	00 00		 mov	 rax, QWORD PTR fst$[rbp]
  00133	0f bf 40 08	 movsx	 eax, WORD PTR [rax+8]
  00137	ff c0		 inc	 eax
  00139	48 0f bf 4d 24	 movsx	 rcx, WORD PTR i$1[rbp]
  0013e	48 6b c9 10	 imul	 rcx, rcx, 16
  00142	48 8b 95 40 01
	00 00		 mov	 rdx, QWORD PTR fst$[rbp]
  00149	48 8b 52 10	 mov	 rdx, QWORD PTR [rdx+16]
  0014d	4c 0f bf 45 44	 movsx	 r8, WORD PTR j$2[rbp]
  00152	48 8b 4c 0a 08	 mov	 rcx, QWORD PTR [rdx+rcx+8]
  00157	4a 0f bf 4c 81
	02		 movsx	 rcx, WORD PTR [rcx+r8*4+2]
  0015d	48 8b 95 40 01
	00 00		 mov	 rdx, QWORD PTR fst$[rbp]
  00164	48 8b 52 18	 mov	 rdx, QWORD PTR [rdx+24]
  00168	66 89 04 4a	 mov	 WORD PTR [rdx+rcx*2], ax

; 50   : 						rc = true;

  0016c	c6 45 04 01	 mov	 BYTE PTR rc$[rbp], 1

; 51   : 						break;

  00170	eb 05		 jmp	 SHORT $LN6@step
$LN9@step:

; 52   : 					};
; 53   : 				};

  00172	e9 46 ff ff ff	 jmp	 $LN5@step
$LN6@step:
$LN8@step:

; 54   : 		};

  00177	e9 e5 fe ff ff	 jmp	 $LN2@step
$LN3@step:

; 55   : 		return rc;

  0017c	0f b6 45 04	 movzx	 eax, BYTE PTR rc$[rbp]

; 56   : 	};

  00180	48 8d a5 28 01
	00 00		 lea	 rsp, QWORD PTR [rbp+296]
  00187	5f		 pop	 rdi
  00188	5d		 pop	 rbp
  00189	c3		 ret	 0
?step@FST@@YA_NAEAU11@AEAPEAF@Z ENDP			; FST::step
_TEXT	ENDS
; Function compile flags: /Odtp /RTCsu /ZI
; File C:\Users\Skvortsoff\OneDrive\Документы\GitHub\course_LP\course_LP\FST.cpp
;	COMDAT ?execute@FST@@YA_NAEAU11@@Z
_TEXT	SEGMENT
rstates$ = 8
llenta$ = 36
rc$ = 68
i$4 = 100
$T5 = 328
$T6 = 360
tv144 = 372
tv148 = 376
tv133 = 376
tv68 = 376
__$ArrayPad$ = 384
fst$ = 432
?execute@FST@@YA_NAEAU11@@Z PROC			; FST::execute, COMDAT

; 59   : 	{

$LN15:
  00000	48 89 4c 24 08	 mov	 QWORD PTR [rsp+8], rcx
  00005	55		 push	 rbp
  00006	57		 push	 rdi
  00007	48 81 ec b8 01
	00 00		 sub	 rsp, 440		; 000001b8H
  0000e	48 8d 6c 24 20	 lea	 rbp, QWORD PTR [rsp+32]
  00013	48 8b fc	 mov	 rdi, rsp
  00016	b9 6e 00 00 00	 mov	 ecx, 110		; 0000006eH
  0001b	b8 cc cc cc cc	 mov	 eax, -858993460		; ccccccccH
  00020	f3 ab		 rep stosd
  00022	48 8b 8c 24 d8
	01 00 00	 mov	 rcx, QWORD PTR [rsp+472]
  0002a	48 8b 05 00 00
	00 00		 mov	 rax, QWORD PTR __security_cookie
  00031	48 33 c5	 xor	 rax, rbp
  00034	48 89 85 80 01
	00 00		 mov	 QWORD PTR __$ArrayPad$[rbp], rax
  0003b	48 8d 0d 00 00
	00 00		 lea	 rcx, OFFSET FLAT:__DF12C297_FST@cpp
  00042	e8 00 00 00 00	 call	 __CheckForDebuggerJustMyCode

; 60   : 		short* rstates = new short[fst.nstates];

  00047	48 8b 85 b0 01
	00 00		 mov	 rax, QWORD PTR fst$[rbp]
  0004e	48 0f bf 40 0a	 movsx	 rax, WORD PTR [rax+10]
  00053	48 89 85 78 01
	00 00		 mov	 QWORD PTR tv68[rbp], rax
  0005a	b8 02 00 00 00	 mov	 eax, 2
  0005f	48 8b 8d 78 01
	00 00		 mov	 rcx, QWORD PTR tv68[rbp]
  00066	48 f7 e1	 mul	 rcx
  00069	48 c7 c1 ff ff
	ff ff		 mov	 rcx, -1
  00070	48 0f 40 c1	 cmovo	 rax, rcx
  00074	48 8b c8	 mov	 rcx, rax
  00077	e8 00 00 00 00	 call	 ??_U@YAPEAX_K@Z		; operator new[]
  0007c	48 89 85 48 01
	00 00		 mov	 QWORD PTR $T5[rbp], rax
  00083	48 8b 85 48 01
	00 00		 mov	 rax, QWORD PTR $T5[rbp]
  0008a	48 89 45 08	 mov	 QWORD PTR rstates$[rbp], rax

; 61   : 		memset(rstates, 0xff, sizeof(short) * fst.nstates);

  0008e	48 8b 85 b0 01
	00 00		 mov	 rax, QWORD PTR fst$[rbp]
  00095	48 0f bf 40 0a	 movsx	 rax, WORD PTR [rax+10]
  0009a	48 d1 e0	 shl	 rax, 1
  0009d	4c 8b c0	 mov	 r8, rax
  000a0	ba ff 00 00 00	 mov	 edx, 255		; 000000ffH
  000a5	48 8b 4d 08	 mov	 rcx, QWORD PTR rstates$[rbp]
  000a9	e8 00 00 00 00	 call	 memset

; 62   : 		short llenta = strlen((const char*)fst.lenta);

  000ae	48 8b 85 b0 01
	00 00		 mov	 rax, QWORD PTR fst$[rbp]
  000b5	48 8b 08	 mov	 rcx, QWORD PTR [rax]
  000b8	e8 00 00 00 00	 call	 strlen
  000bd	66 89 45 24	 mov	 WORD PTR llenta$[rbp], ax

; 63   : 		bool rc = true;

  000c1	c6 45 44 01	 mov	 BYTE PTR rc$[rbp], 1

; 64   : 
; 65   : 		for (short i = 0; i < llenta && rc; i++)

  000c5	33 c0		 xor	 eax, eax
  000c7	66 89 45 64	 mov	 WORD PTR i$4[rbp], ax
  000cb	eb 0b		 jmp	 SHORT $LN4@execute
$LN2@execute:
  000cd	0f b7 45 64	 movzx	 eax, WORD PTR i$4[rbp]
  000d1	66 ff c0	 inc	 ax
  000d4	66 89 45 64	 mov	 WORD PTR i$4[rbp], ax
$LN4@execute:
  000d8	0f bf 45 64	 movsx	 eax, WORD PTR i$4[rbp]
  000dc	0f bf 4d 24	 movsx	 ecx, WORD PTR llenta$[rbp]
  000e0	3b c1		 cmp	 eax, ecx
  000e2	7d 36		 jge	 SHORT $LN3@execute
  000e4	0f b6 45 44	 movzx	 eax, BYTE PTR rc$[rbp]
  000e8	85 c0		 test	 eax, eax
  000ea	74 2e		 je	 SHORT $LN3@execute

; 66   : 		{
; 67   : 			fst.position++;										// ГЇГ°Г®Г¤ГЁГ­ГіГ«ГЁ ГЇГ®Г§ГЁГ¶ГЁГѕ

  000ec	48 8b 85 b0 01
	00 00		 mov	 rax, QWORD PTR fst$[rbp]
  000f3	0f b7 40 08	 movzx	 eax, WORD PTR [rax+8]
  000f7	66 ff c0	 inc	 ax
  000fa	48 8b 8d b0 01
	00 00		 mov	 rcx, QWORD PTR fst$[rbp]
  00101	66 89 41 08	 mov	 WORD PTR [rcx+8], ax

; 68   : 			rc = step(fst, rstates);							// Г®Г¤ГЁГ­ ГёГ ГЈ Г ГўГІГ®Г¬Г ГІГ 

  00105	48 8d 55 08	 lea	 rdx, QWORD PTR rstates$[rbp]
  00109	48 8b 8d b0 01
	00 00		 mov	 rcx, QWORD PTR fst$[rbp]
  00110	e8 00 00 00 00	 call	 ?step@FST@@YA_NAEAU11@AEAPEAF@Z ; FST::step
  00115	88 45 44	 mov	 BYTE PTR rc$[rbp], al

; 69   : 		}

  00118	eb b3		 jmp	 SHORT $LN2@execute
$LN3@execute:

; 70   : 
; 71   : 		delete[] rstates;

  0011a	48 8b 45 08	 mov	 rax, QWORD PTR rstates$[rbp]
  0011e	48 89 85 68 01
	00 00		 mov	 QWORD PTR $T6[rbp], rax
  00125	48 8b 8d 68 01
	00 00		 mov	 rcx, QWORD PTR $T6[rbp]
  0012c	e8 00 00 00 00	 call	 ??_V@YAXPEAX@Z		; operator delete[]
  00131	48 83 bd 68 01
	00 00 00	 cmp	 QWORD PTR $T6[rbp], 0
  00139	75 0d		 jne	 SHORT $LN6@execute
  0013b	48 c7 85 78 01
	00 00 00 00 00
	00		 mov	 QWORD PTR tv133[rbp], 0
  00146	eb 13		 jmp	 SHORT $LN7@execute
$LN6@execute:
  00148	48 c7 45 08 23
	81 00 00	 mov	 QWORD PTR rstates$[rbp], 33059 ; 00008123H
  00150	48 8b 45 08	 mov	 rax, QWORD PTR rstates$[rbp]
  00154	48 89 85 78 01
	00 00		 mov	 QWORD PTR tv133[rbp], rax
$LN7@execute:

; 72   : 		return (rc ? (fst.rstates[fst.nstates - 1] == llenta) : rc);

  0015b	0f b6 45 44	 movzx	 eax, BYTE PTR rc$[rbp]
  0015f	85 c0		 test	 eax, eax
  00161	74 4a		 je	 SHORT $LN10@execute
  00163	48 8b 85 b0 01
	00 00		 mov	 rax, QWORD PTR fst$[rbp]
  0016a	0f bf 40 0a	 movsx	 eax, WORD PTR [rax+10]
  0016e	ff c8		 dec	 eax
  00170	48 98		 cdqe
  00172	48 8b 8d b0 01
	00 00		 mov	 rcx, QWORD PTR fst$[rbp]
  00179	48 8b 49 18	 mov	 rcx, QWORD PTR [rcx+24]
  0017d	0f bf 04 41	 movsx	 eax, WORD PTR [rcx+rax*2]
  00181	0f bf 4d 24	 movsx	 ecx, WORD PTR llenta$[rbp]
  00185	3b c1		 cmp	 eax, ecx
  00187	75 0c		 jne	 SHORT $LN8@execute
  00189	c7 85 74 01 00
	00 01 00 00 00	 mov	 DWORD PTR tv144[rbp], 1
  00193	eb 0a		 jmp	 SHORT $LN9@execute
$LN8@execute:
  00195	c7 85 74 01 00
	00 00 00 00 00	 mov	 DWORD PTR tv144[rbp], 0
$LN9@execute:
  0019f	8b 85 74 01 00
	00		 mov	 eax, DWORD PTR tv144[rbp]
  001a5	89 85 78 01 00
	00		 mov	 DWORD PTR tv148[rbp], eax
  001ab	eb 0a		 jmp	 SHORT $LN11@execute
$LN10@execute:
  001ad	0f b6 45 44	 movzx	 eax, BYTE PTR rc$[rbp]
  001b1	89 85 78 01 00
	00		 mov	 DWORD PTR tv148[rbp], eax
$LN11@execute:
  001b7	0f b6 85 78 01
	00 00		 movzx	 eax, BYTE PTR tv148[rbp]

; 73   : 	}

  001be	8b f8		 mov	 edi, eax
  001c0	48 8d 4d e0	 lea	 rcx, QWORD PTR [rbp-32]
  001c4	48 8d 15 00 00
	00 00		 lea	 rdx, OFFSET FLAT:?execute@FST@@YA_NAEAU11@@Z$rtcFrameData
  001cb	e8 00 00 00 00	 call	 _RTC_CheckStackVars
  001d0	8b c7		 mov	 eax, edi
  001d2	48 8b 8d 80 01
	00 00		 mov	 rcx, QWORD PTR __$ArrayPad$[rbp]
  001d9	48 33 cd	 xor	 rcx, rbp
  001dc	e8 00 00 00 00	 call	 __security_check_cookie
  001e1	48 8d a5 98 01
	00 00		 lea	 rsp, QWORD PTR [rbp+408]
  001e8	5f		 pop	 rdi
  001e9	5d		 pop	 rbp
  001ea	c3		 ret	 0
?execute@FST@@YA_NAEAU11@@Z ENDP			; FST::execute
_TEXT	ENDS
; Function compile flags: /Odtp /RTCsu /ZI
; File C:\Users\Skvortsoff\OneDrive\Документы\GitHub\course_LP\course_LP\FST.cpp
; File C:\Users\Skvortsoff\OneDrive\Документы\GitHub\course_LP\course_LP\FST.h
; File C:\Users\Skvortsoff\OneDrive\Документы\GitHub\course_LP\course_LP\FST.cpp
;	COMDAT ??0FST@0@QEAA@PEADFUNODE@0@ZZ
_TEXT	SEGMENT
ptr$ = 8
i$1 = 36
$T2 = 264
$T3 = 296
$T4 = 328
$T5 = 360
tv139 = 376
tv92 = 376
this$ = 416
s$ = 424
ns$ = 432
n$ = 440
??0FST@0@QEAA@PEADFUNODE@0@ZZ PROC			; FST::FST::FST, COMDAT

; 25   : 	{

$LN12:
  00000	4c 89 4c 24 20	 mov	 QWORD PTR [rsp+32], r9
  00005	66 44 89 44 24
	18		 mov	 WORD PTR [rsp+24], r8w
  0000b	48 89 54 24 10	 mov	 QWORD PTR [rsp+16], rdx
  00010	48 89 4c 24 08	 mov	 QWORD PTR [rsp+8], rcx
  00015	55		 push	 rbp
  00016	56		 push	 rsi
  00017	57		 push	 rdi
  00018	48 81 ec a0 01
	00 00		 sub	 rsp, 416		; 000001a0H
  0001f	48 8d 6c 24 20	 lea	 rbp, QWORD PTR [rsp+32]
  00024	48 8b fc	 mov	 rdi, rsp
  00027	b9 68 00 00 00	 mov	 ecx, 104		; 00000068H
  0002c	b8 cc cc cc cc	 mov	 eax, -858993460		; ccccccccH
  00031	f3 ab		 rep stosd
  00033	48 8b 8c 24 c8
	01 00 00	 mov	 rcx, QWORD PTR [rsp+456]
  0003b	48 8d 0d 00 00
	00 00		 lea	 rcx, OFFSET FLAT:__DF12C297_FST@cpp
  00042	e8 00 00 00 00	 call	 __CheckForDebuggerJustMyCode
; File C:\Users\Skvortsoff\OneDrive\Документы\GitHub\course_LP\course_LP\FST.h

; 29   : 		short position = 0;					//С‚РµРєСѓС‰Р°СЏ РїРѕР·РёС†РёСЏ РІ С†РµРїРѕС‡РєРµ 

  00047	33 c0		 xor	 eax, eax
  00049	48 8b 8d a0 01
	00 00		 mov	 rcx, QWORD PTR this$[rbp]
  00050	66 89 41 08	 mov	 WORD PTR [rcx+8], ax
; File C:\Users\Skvortsoff\OneDrive\Документы\GitHub\course_LP\course_LP\FST.cpp

; 26   : 		lenta = (unsigned char*)s;

  00054	48 8b 85 a0 01
	00 00		 mov	 rax, QWORD PTR this$[rbp]
  0005b	48 8b 8d a8 01
	00 00		 mov	 rcx, QWORD PTR s$[rbp]
  00062	48 89 08	 mov	 QWORD PTR [rax], rcx

; 27   : 		nstates = ns;

  00065	48 8b 85 a0 01
	00 00		 mov	 rax, QWORD PTR this$[rbp]
  0006c	0f b7 8d b0 01
	00 00		 movzx	 ecx, WORD PTR ns$[rbp]
  00073	66 89 48 0a	 mov	 WORD PTR [rax+10], cx

; 28   : 		nodes = new NODE[ns];

  00077	48 0f bf 85 b0
	01 00 00	 movsx	 rax, WORD PTR ns$[rbp]
  0007f	48 89 85 08 01
	00 00		 mov	 QWORD PTR $T2[rbp], rax
  00086	b8 10 00 00 00	 mov	 eax, 16
  0008b	48 f7 a5 08 01
	00 00		 mul	 QWORD PTR $T2[rbp]
  00092	48 c7 c1 ff ff
	ff ff		 mov	 rcx, -1
  00099	48 0f 40 c1	 cmovo	 rax, rcx
  0009d	48 8b c8	 mov	 rcx, rax
  000a0	e8 00 00 00 00	 call	 ??_U@YAPEAX_K@Z		; operator new[]
  000a5	48 89 85 48 01
	00 00		 mov	 QWORD PTR $T4[rbp], rax
  000ac	48 83 bd 48 01
	00 00 00	 cmp	 QWORD PTR $T4[rbp], 0
  000b4	74 2f		 je	 SHORT $LN6@FST
  000b6	4c 8d 0d 00 00
	00 00		 lea	 r9, OFFSET FLAT:??0NODE@FST@@QEAA@XZ ; FST::NODE::NODE
  000bd	4c 8b 85 08 01
	00 00		 mov	 r8, QWORD PTR $T2[rbp]
  000c4	ba 10 00 00 00	 mov	 edx, 16
  000c9	48 8b 8d 48 01
	00 00		 mov	 rcx, QWORD PTR $T4[rbp]
  000d0	e8 00 00 00 00	 call	 ??_H@YAXPEAX_K1P6APEAX0@Z@Z
  000d5	48 8b 85 48 01
	00 00		 mov	 rax, QWORD PTR $T4[rbp]
  000dc	48 89 85 78 01
	00 00		 mov	 QWORD PTR tv92[rbp], rax
  000e3	eb 0b		 jmp	 SHORT $LN7@FST
$LN6@FST:
  000e5	48 c7 85 78 01
	00 00 00 00 00
	00		 mov	 QWORD PTR tv92[rbp], 0
$LN7@FST:
  000f0	48 8b 85 78 01
	00 00		 mov	 rax, QWORD PTR tv92[rbp]
  000f7	48 89 85 28 01
	00 00		 mov	 QWORD PTR $T3[rbp], rax
  000fe	48 8b 85 a0 01
	00 00		 mov	 rax, QWORD PTR this$[rbp]
  00105	48 8b 8d 28 01
	00 00		 mov	 rcx, QWORD PTR $T3[rbp]
  0010c	48 89 48 10	 mov	 QWORD PTR [rax+16], rcx

; 29   : 		NODE* ptr = &n;

  00110	48 8b 85 b8 01
	00 00		 mov	 rax, QWORD PTR n$[rbp]
  00117	48 89 45 08	 mov	 QWORD PTR ptr$[rbp], rax

; 30   : 		for (int i = 0; i < ns; ++i)nodes[i] = ptr[i];

  0011b	c7 45 24 00 00
	00 00		 mov	 DWORD PTR i$1[rbp], 0
  00122	eb 08		 jmp	 SHORT $LN4@FST
$LN2@FST:
  00124	8b 45 24	 mov	 eax, DWORD PTR i$1[rbp]
  00127	ff c0		 inc	 eax
  00129	89 45 24	 mov	 DWORD PTR i$1[rbp], eax
$LN4@FST:
  0012c	0f bf 85 b0 01
	00 00		 movsx	 eax, WORD PTR ns$[rbp]
  00133	39 45 24	 cmp	 DWORD PTR i$1[rbp], eax
  00136	7d 30		 jge	 SHORT $LN3@FST
  00138	48 63 45 24	 movsxd	 rax, DWORD PTR i$1[rbp]
  0013c	48 6b c0 10	 imul	 rax, rax, 16
  00140	48 63 4d 24	 movsxd	 rcx, DWORD PTR i$1[rbp]
  00144	48 6b c9 10	 imul	 rcx, rcx, 16
  00148	48 8b 95 a0 01
	00 00		 mov	 rdx, QWORD PTR this$[rbp]
  0014f	48 8b 52 10	 mov	 rdx, QWORD PTR [rdx+16]
  00153	4c 8b 45 08	 mov	 r8, QWORD PTR ptr$[rbp]
  00157	48 8d 3c 0a	 lea	 rdi, QWORD PTR [rdx+rcx]
  0015b	49 8d 34 00	 lea	 rsi, QWORD PTR [r8+rax]
  0015f	b9 10 00 00 00	 mov	 ecx, 16
  00164	f3 a4		 rep movsb
  00166	eb bc		 jmp	 SHORT $LN2@FST
$LN3@FST:

; 31   : 		rstates = new short[ns];

  00168	48 0f bf 85 b0
	01 00 00	 movsx	 rax, WORD PTR ns$[rbp]
  00170	48 89 85 78 01
	00 00		 mov	 QWORD PTR tv139[rbp], rax
  00177	b8 02 00 00 00	 mov	 eax, 2
  0017c	48 8b 8d 78 01
	00 00		 mov	 rcx, QWORD PTR tv139[rbp]
  00183	48 f7 e1	 mul	 rcx
  00186	48 c7 c1 ff ff
	ff ff		 mov	 rcx, -1
  0018d	48 0f 40 c1	 cmovo	 rax, rcx
  00191	48 8b c8	 mov	 rcx, rax
  00194	e8 00 00 00 00	 call	 ??_U@YAPEAX_K@Z		; operator new[]
  00199	48 89 85 68 01
	00 00		 mov	 QWORD PTR $T5[rbp], rax
  001a0	48 8b 85 a0 01
	00 00		 mov	 rax, QWORD PTR this$[rbp]
  001a7	48 8b 8d 68 01
	00 00		 mov	 rcx, QWORD PTR $T5[rbp]
  001ae	48 89 48 18	 mov	 QWORD PTR [rax+24], rcx

; 32   : 		memset(rstates, 0xff, sizeof(short) * nstates);

  001b2	48 8b 85 a0 01
	00 00		 mov	 rax, QWORD PTR this$[rbp]
  001b9	48 0f bf 40 0a	 movsx	 rax, WORD PTR [rax+10]
  001be	48 d1 e0	 shl	 rax, 1
  001c1	4c 8b c0	 mov	 r8, rax
  001c4	ba ff 00 00 00	 mov	 edx, 255		; 000000ffH
  001c9	48 8b 85 a0 01
	00 00		 mov	 rax, QWORD PTR this$[rbp]
  001d0	48 8b 48 18	 mov	 rcx, QWORD PTR [rax+24]
  001d4	e8 00 00 00 00	 call	 memset

; 33   : 		rstates[0] = 0;

  001d9	b8 02 00 00 00	 mov	 eax, 2
  001de	48 6b c0 00	 imul	 rax, rax, 0
  001e2	48 8b 8d a0 01
	00 00		 mov	 rcx, QWORD PTR this$[rbp]
  001e9	48 8b 49 18	 mov	 rcx, QWORD PTR [rcx+24]
  001ed	33 d2		 xor	 edx, edx
  001ef	66 89 14 08	 mov	 WORD PTR [rax+rcx], dx

; 34   : 		position = -1;

  001f3	b8 ff ff ff ff	 mov	 eax, -1
  001f8	48 8b 8d a0 01
	00 00		 mov	 rcx, QWORD PTR this$[rbp]
  001ff	66 89 41 08	 mov	 WORD PTR [rcx+8], ax

; 35   : 	}

  00203	48 8b 85 a0 01
	00 00		 mov	 rax, QWORD PTR this$[rbp]
  0020a	48 8d a5 80 01
	00 00		 lea	 rsp, QWORD PTR [rbp+384]
  00211	5f		 pop	 rdi
  00212	5e		 pop	 rsi
  00213	5d		 pop	 rbp
  00214	c3		 ret	 0
??0FST@0@QEAA@PEADFUNODE@0@ZZ ENDP			; FST::FST::FST
_TEXT	ENDS
;	COMDAT text$x
text$x	SEGMENT
ptr$ = 8
i$1 = 36
$T2 = 264
$T3 = 296
$T4 = 328
$T5 = 360
tv139 = 376
tv92 = 376
this$ = 416
s$ = 424
ns$ = 432
n$ = 440
?dtor$0@?0???0FST@0@QEAA@PEADFUNODE@0@ZZ@4HA PROC	; `dtor$0::FST::FST'::`1'::dtor$0
  00000	48 89 4c 24 08	 mov	 QWORD PTR [rsp+8], rcx
  00005	48 89 54 24 10	 mov	 QWORD PTR [rsp+16], rdx
  0000a	55		 push	 rbp
  0000b	57		 push	 rdi
  0000c	48 83 ec 28	 sub	 rsp, 40			; 00000028H
  00010	48 8d 6a 20	 lea	 rbp, QWORD PTR [rdx+32]
  00014	b8 10 00 00 00	 mov	 eax, 16
  00019	48 f7 a5 08 01
	00 00		 mul	 QWORD PTR $T2[rbp]
  00020	48 8b d0	 mov	 rdx, rax
  00023	48 c7 c0 ff ff
	ff ff		 mov	 rax, -1
  0002a	48 0f 40 d0	 cmovo	 rdx, rax
  0002e	48 8b 8d 48 01
	00 00		 mov	 rcx, QWORD PTR $T4[rbp]
  00035	e8 00 00 00 00	 call	 ??_V@YAXPEAX_K@Z	; operator delete[]
  0003a	48 83 c4 28	 add	 rsp, 40			; 00000028H
  0003e	5f		 pop	 rdi
  0003f	5d		 pop	 rbp
  00040	c3		 ret	 0
?dtor$0@?0???0FST@0@QEAA@PEADFUNODE@0@ZZ@4HA ENDP	; `dtor$0::FST::FST'::`1'::dtor$0
text$x	ENDS
; Function compile flags: /Odtp /RTCsu /ZI
;	COMDAT text$x
text$x	SEGMENT
ptr$ = 8
i$1 = 36
$T2 = 264
$T3 = 296
$T4 = 328
$T5 = 360
tv139 = 376
tv92 = 376
this$ = 416
s$ = 424
ns$ = 432
n$ = 440
?dtor$0@?0???0FST@0@QEAA@PEADFUNODE@0@ZZ@4HA PROC	; `dtor$0::FST::FST'::`1'::dtor$0
  00000	48 89 4c 24 08	 mov	 QWORD PTR [rsp+8], rcx
  00005	48 89 54 24 10	 mov	 QWORD PTR [rsp+16], rdx
  0000a	55		 push	 rbp
  0000b	57		 push	 rdi
  0000c	48 83 ec 28	 sub	 rsp, 40			; 00000028H
  00010	48 8d 6a 20	 lea	 rbp, QWORD PTR [rdx+32]
  00014	b8 10 00 00 00	 mov	 eax, 16
  00019	48 f7 a5 08 01
	00 00		 mul	 QWORD PTR $T2[rbp]
  00020	48 8b d0	 mov	 rdx, rax
  00023	48 c7 c0 ff ff
	ff ff		 mov	 rax, -1
  0002a	48 0f 40 d0	 cmovo	 rdx, rax
  0002e	48 8b 8d 48 01
	00 00		 mov	 rcx, QWORD PTR $T4[rbp]
  00035	e8 00 00 00 00	 call	 ??_V@YAXPEAX_K@Z	; operator delete[]
  0003a	48 83 c4 28	 add	 rsp, 40			; 00000028H
  0003e	5f		 pop	 rdi
  0003f	5d		 pop	 rbp
  00040	c3		 ret	 0
?dtor$0@?0???0FST@0@QEAA@PEADFUNODE@0@ZZ@4HA ENDP	; `dtor$0::FST::FST'::`1'::dtor$0
text$x	ENDS
; Function compile flags: /Odtp /RTCsu /ZI
; File C:\Users\Skvortsoff\OneDrive\Документы\GitHub\course_LP\course_LP\FST.cpp
;	COMDAT ??0NODE@FST@@QEAA@FURELATION@1@ZZ
_TEXT	SEGMENT
ptr$ = 8
i$1 = 36
$T2 = 264
$T3 = 296
$T4 = 328
tv90 = 344
this$ = 384
n$ = 392
rel$ = 400
??0NODE@FST@@QEAA@FURELATION@1@ZZ PROC			; FST::NODE::NODE, COMDAT

; 18   : 	{

$LN12:
  00000	44 89 44 24 18	 mov	 DWORD PTR [rsp+24], r8d
  00005	66 89 54 24 10	 mov	 WORD PTR [rsp+16], dx
  0000a	48 89 4c 24 08	 mov	 QWORD PTR [rsp+8], rcx
  0000f	4c 89 4c 24 20	 mov	 QWORD PTR [rsp+32], r9
  00014	55		 push	 rbp
  00015	57		 push	 rdi
  00016	48 81 ec 88 01
	00 00		 sub	 rsp, 392		; 00000188H
  0001d	48 8d 6c 24 20	 lea	 rbp, QWORD PTR [rsp+32]
  00022	48 8b fc	 mov	 rdi, rsp
  00025	b9 62 00 00 00	 mov	 ecx, 98			; 00000062H
  0002a	b8 cc cc cc cc	 mov	 eax, -858993460		; ccccccccH
  0002f	f3 ab		 rep stosd
  00031	48 8b 8c 24 a8
	01 00 00	 mov	 rcx, QWORD PTR [rsp+424]
  00039	48 8d 0d 00 00
	00 00		 lea	 rcx, OFFSET FLAT:__DF12C297_FST@cpp
  00040	e8 00 00 00 00	 call	 __CheckForDebuggerJustMyCode

; 19   : 		n_relation = n;

  00045	48 8b 85 80 01
	00 00		 mov	 rax, QWORD PTR this$[rbp]
  0004c	0f b7 8d 88 01
	00 00		 movzx	 ecx, WORD PTR n$[rbp]
  00053	66 89 08	 mov	 WORD PTR [rax], cx

; 20   : 		RELATION* ptr = &rel;

  00056	48 8d 85 90 01
	00 00		 lea	 rax, QWORD PTR rel$[rbp]
  0005d	48 89 45 08	 mov	 QWORD PTR ptr$[rbp], rax

; 21   : 		relations = new RELATION[n];

  00061	48 0f bf 85 88
	01 00 00	 movsx	 rax, WORD PTR n$[rbp]
  00069	48 89 85 08 01
	00 00		 mov	 QWORD PTR $T2[rbp], rax
  00070	b8 04 00 00 00	 mov	 eax, 4
  00075	48 f7 a5 08 01
	00 00		 mul	 QWORD PTR $T2[rbp]
  0007c	48 c7 c1 ff ff
	ff ff		 mov	 rcx, -1
  00083	48 0f 40 c1	 cmovo	 rax, rcx
  00087	48 8b c8	 mov	 rcx, rax
  0008a	e8 00 00 00 00	 call	 ??_U@YAPEAX_K@Z		; operator new[]
  0008f	48 89 85 48 01
	00 00		 mov	 QWORD PTR $T4[rbp], rax
  00096	48 83 bd 48 01
	00 00 00	 cmp	 QWORD PTR $T4[rbp], 0
  0009e	74 2f		 je	 SHORT $LN6@NODE
  000a0	4c 8d 0d 00 00
	00 00		 lea	 r9, OFFSET FLAT:??_FRELATION@FST@@QEAAXXZ
  000a7	4c 8b 85 08 01
	00 00		 mov	 r8, QWORD PTR $T2[rbp]
  000ae	ba 04 00 00 00	 mov	 edx, 4
  000b3	48 8b 8d 48 01
	00 00		 mov	 rcx, QWORD PTR $T4[rbp]
  000ba	e8 00 00 00 00	 call	 ??_H@YAXPEAX_K1P6APEAX0@Z@Z
  000bf	48 8b 85 48 01
	00 00		 mov	 rax, QWORD PTR $T4[rbp]
  000c6	48 89 85 58 01
	00 00		 mov	 QWORD PTR tv90[rbp], rax
  000cd	eb 0b		 jmp	 SHORT $LN7@NODE
$LN6@NODE:
  000cf	48 c7 85 58 01
	00 00 00 00 00
	00		 mov	 QWORD PTR tv90[rbp], 0
$LN7@NODE:
  000da	48 8b 85 58 01
	00 00		 mov	 rax, QWORD PTR tv90[rbp]
  000e1	48 89 85 28 01
	00 00		 mov	 QWORD PTR $T3[rbp], rax
  000e8	48 8b 85 80 01
	00 00		 mov	 rax, QWORD PTR this$[rbp]
  000ef	48 8b 8d 28 01
	00 00		 mov	 rcx, QWORD PTR $T3[rbp]
  000f6	48 89 48 08	 mov	 QWORD PTR [rax+8], rcx

; 22   : 		for (int i = 0; i < n; ++i, ptr++)relations[i] = *ptr;

  000fa	c7 45 24 00 00
	00 00		 mov	 DWORD PTR i$1[rbp], 0
  00101	eb 14		 jmp	 SHORT $LN4@NODE
$LN2@NODE:
  00103	8b 45 24	 mov	 eax, DWORD PTR i$1[rbp]
  00106	ff c0		 inc	 eax
  00108	89 45 24	 mov	 DWORD PTR i$1[rbp], eax
  0010b	48 8b 45 08	 mov	 rax, QWORD PTR ptr$[rbp]
  0010f	48 83 c0 04	 add	 rax, 4
  00113	48 89 45 08	 mov	 QWORD PTR ptr$[rbp], rax
$LN4@NODE:
  00117	0f bf 85 88 01
	00 00		 movsx	 eax, WORD PTR n$[rbp]
  0011e	39 45 24	 cmp	 DWORD PTR i$1[rbp], eax
  00121	7d 1a		 jge	 SHORT $LN3@NODE
  00123	48 8b 45 08	 mov	 rax, QWORD PTR ptr$[rbp]
  00127	8b 00		 mov	 eax, DWORD PTR [rax]
  00129	48 63 4d 24	 movsxd	 rcx, DWORD PTR i$1[rbp]
  0012d	48 8b 95 80 01
	00 00		 mov	 rdx, QWORD PTR this$[rbp]
  00134	48 8b 52 08	 mov	 rdx, QWORD PTR [rdx+8]
  00138	89 04 8a	 mov	 DWORD PTR [rdx+rcx*4], eax
  0013b	eb c6		 jmp	 SHORT $LN2@NODE
$LN3@NODE:

; 23   : 	}

  0013d	48 8b 85 80 01
	00 00		 mov	 rax, QWORD PTR this$[rbp]
  00144	48 8d a5 68 01
	00 00		 lea	 rsp, QWORD PTR [rbp+360]
  0014b	5f		 pop	 rdi
  0014c	5d		 pop	 rbp
  0014d	c3		 ret	 0
??0NODE@FST@@QEAA@FURELATION@1@ZZ ENDP			; FST::NODE::NODE
_TEXT	ENDS
;	COMDAT text$x
text$x	SEGMENT
ptr$ = 8
i$1 = 36
$T2 = 264
$T3 = 296
$T4 = 328
tv90 = 344
this$ = 384
n$ = 392
rel$ = 400
?dtor$0@?0???0NODE@FST@@QEAA@FURELATION@1@ZZ@4HA PROC	; `FST::NODE::NODE'::`1'::dtor$0
  00000	48 89 4c 24 08	 mov	 QWORD PTR [rsp+8], rcx
  00005	48 89 54 24 10	 mov	 QWORD PTR [rsp+16], rdx
  0000a	55		 push	 rbp
  0000b	57		 push	 rdi
  0000c	48 83 ec 28	 sub	 rsp, 40			; 00000028H
  00010	48 8d 6a 20	 lea	 rbp, QWORD PTR [rdx+32]
  00014	b8 04 00 00 00	 mov	 eax, 4
  00019	48 f7 a5 08 01
	00 00		 mul	 QWORD PTR $T2[rbp]
  00020	48 8b d0	 mov	 rdx, rax
  00023	48 c7 c0 ff ff
	ff ff		 mov	 rax, -1
  0002a	48 0f 40 d0	 cmovo	 rdx, rax
  0002e	48 8b 8d 48 01
	00 00		 mov	 rcx, QWORD PTR $T4[rbp]
  00035	e8 00 00 00 00	 call	 ??_V@YAXPEAX_K@Z	; operator delete[]
  0003a	48 83 c4 28	 add	 rsp, 40			; 00000028H
  0003e	5f		 pop	 rdi
  0003f	5d		 pop	 rbp
  00040	c3		 ret	 0
?dtor$0@?0???0NODE@FST@@QEAA@FURELATION@1@ZZ@4HA ENDP	; `FST::NODE::NODE'::`1'::dtor$0
text$x	ENDS
; Function compile flags: /Odtp /RTCsu /ZI
;	COMDAT text$x
text$x	SEGMENT
ptr$ = 8
i$1 = 36
$T2 = 264
$T3 = 296
$T4 = 328
tv90 = 344
this$ = 384
n$ = 392
rel$ = 400
?dtor$0@?0???0NODE@FST@@QEAA@FURELATION@1@ZZ@4HA PROC	; `FST::NODE::NODE'::`1'::dtor$0
  00000	48 89 4c 24 08	 mov	 QWORD PTR [rsp+8], rcx
  00005	48 89 54 24 10	 mov	 QWORD PTR [rsp+16], rdx
  0000a	55		 push	 rbp
  0000b	57		 push	 rdi
  0000c	48 83 ec 28	 sub	 rsp, 40			; 00000028H
  00010	48 8d 6a 20	 lea	 rbp, QWORD PTR [rdx+32]
  00014	b8 04 00 00 00	 mov	 eax, 4
  00019	48 f7 a5 08 01
	00 00		 mul	 QWORD PTR $T2[rbp]
  00020	48 8b d0	 mov	 rdx, rax
  00023	48 c7 c0 ff ff
	ff ff		 mov	 rax, -1
  0002a	48 0f 40 d0	 cmovo	 rdx, rax
  0002e	48 8b 8d 48 01
	00 00		 mov	 rcx, QWORD PTR $T4[rbp]
  00035	e8 00 00 00 00	 call	 ??_V@YAXPEAX_K@Z	; operator delete[]
  0003a	48 83 c4 28	 add	 rsp, 40			; 00000028H
  0003e	5f		 pop	 rdi
  0003f	5d		 pop	 rbp
  00040	c3		 ret	 0
?dtor$0@?0???0NODE@FST@@QEAA@FURELATION@1@ZZ@4HA ENDP	; `FST::NODE::NODE'::`1'::dtor$0
text$x	ENDS
; Function compile flags: /Odtp /RTCsu /ZI
; File C:\Users\Skvortsoff\OneDrive\Документы\GitHub\course_LP\course_LP\FST.cpp
;	COMDAT ??0NODE@FST@@QEAA@XZ
_TEXT	SEGMENT
relations$ = 8
this$ = 256
??0NODE@FST@@QEAA@XZ PROC				; FST::NODE::NODE, COMDAT

; 12   : 	{

$LN4:
  00000	48 89 4c 24 08	 mov	 QWORD PTR [rsp+8], rcx
  00005	55		 push	 rbp
  00006	57		 push	 rdi
  00007	48 81 ec 08 01
	00 00		 sub	 rsp, 264		; 00000108H
  0000e	48 8d 6c 24 20	 lea	 rbp, QWORD PTR [rsp+32]
  00013	48 8b fc	 mov	 rdi, rsp
  00016	b9 42 00 00 00	 mov	 ecx, 66			; 00000042H
  0001b	b8 cc cc cc cc	 mov	 eax, -858993460		; ccccccccH
  00020	f3 ab		 rep stosd
  00022	48 8b 8c 24 28
	01 00 00	 mov	 rcx, QWORD PTR [rsp+296]
  0002a	48 8d 0d 00 00
	00 00		 lea	 rcx, OFFSET FLAT:__DF12C297_FST@cpp
  00031	e8 00 00 00 00	 call	 __CheckForDebuggerJustMyCode

; 13   : 
; 14   : 		n_relation = 0;

  00036	33 c0		 xor	 eax, eax
  00038	48 8b 8d 00 01
	00 00		 mov	 rcx, QWORD PTR this$[rbp]
  0003f	66 89 01	 mov	 WORD PTR [rcx], ax

; 15   : 		RELATION* relations = NULL;

  00042	48 c7 45 08 00
	00 00 00	 mov	 QWORD PTR relations$[rbp], 0

; 16   : 	}

  0004a	48 8b 85 00 01
	00 00		 mov	 rax, QWORD PTR this$[rbp]
  00051	48 8d a5 e8 00
	00 00		 lea	 rsp, QWORD PTR [rbp+232]
  00058	5f		 pop	 rdi
  00059	5d		 pop	 rbp
  0005a	c3		 ret	 0
??0NODE@FST@@QEAA@XZ ENDP				; FST::NODE::NODE
_TEXT	ENDS
; Function compile flags: /Odtp /RTCsu /ZI
;	COMDAT ??_FRELATION@FST@@QEAAXXZ
_TEXT	SEGMENT
this$ = 224
??_FRELATION@FST@@QEAAXXZ PROC				; FST::RELATION::`default constructor closure', COMDAT
$LN4:
  00000	48 89 4c 24 08	 mov	 QWORD PTR [rsp+8], rcx
  00005	55		 push	 rbp
  00006	57		 push	 rdi
  00007	48 81 ec e8 00
	00 00		 sub	 rsp, 232		; 000000e8H
  0000e	48 8d 6c 24 20	 lea	 rbp, QWORD PTR [rsp+32]
  00013	48 8b fc	 mov	 rdi, rsp
  00016	b9 3a 00 00 00	 mov	 ecx, 58			; 0000003aH
  0001b	b8 cc cc cc cc	 mov	 eax, -858993460		; ccccccccH
  00020	f3 ab		 rep stosd
  00022	48 8b 8c 24 08
	01 00 00	 mov	 rcx, QWORD PTR [rsp+264]
  0002a	45 33 c0	 xor	 r8d, r8d
  0002d	33 d2		 xor	 edx, edx
  0002f	48 8b 8d e0 00
	00 00		 mov	 rcx, QWORD PTR this$[rbp]
  00036	e8 00 00 00 00	 call	 ??0RELATION@FST@@QEAA@DF@Z ; FST::RELATION::RELATION
  0003b	48 8d a5 c8 00
	00 00		 lea	 rsp, QWORD PTR [rbp+200]
  00042	5f		 pop	 rdi
  00043	5d		 pop	 rbp
  00044	c3		 ret	 0
??_FRELATION@FST@@QEAAXXZ ENDP				; FST::RELATION::`default constructor closure'
_TEXT	ENDS
; Function compile flags: /Odtp /RTCsu /ZI
; File C:\Users\Skvortsoff\OneDrive\Документы\GitHub\course_LP\course_LP\FST.cpp
;	COMDAT ??0RELATION@FST@@QEAA@DF@Z
_TEXT	SEGMENT
this$ = 224
c$ = 232
ns$ = 240
??0RELATION@FST@@QEAA@DF@Z PROC				; FST::RELATION::RELATION, COMDAT

; 7    : 	{

$LN4:
  00000	66 44 89 44 24
	18		 mov	 WORD PTR [rsp+24], r8w
  00006	88 54 24 10	 mov	 BYTE PTR [rsp+16], dl
  0000a	48 89 4c 24 08	 mov	 QWORD PTR [rsp+8], rcx
  0000f	55		 push	 rbp
  00010	57		 push	 rdi
  00011	48 81 ec e8 00
	00 00		 sub	 rsp, 232		; 000000e8H
  00018	48 8d 6c 24 20	 lea	 rbp, QWORD PTR [rsp+32]
  0001d	48 8b fc	 mov	 rdi, rsp
  00020	b9 3a 00 00 00	 mov	 ecx, 58			; 0000003aH
  00025	b8 cc cc cc cc	 mov	 eax, -858993460		; ccccccccH
  0002a	f3 ab		 rep stosd
  0002c	48 8b 8c 24 08
	01 00 00	 mov	 rcx, QWORD PTR [rsp+264]
  00034	48 8d 0d 00 00
	00 00		 lea	 rcx, OFFSET FLAT:__DF12C297_FST@cpp
  0003b	e8 00 00 00 00	 call	 __CheckForDebuggerJustMyCode

; 8    : 		symbol = c;

  00040	48 8b 85 e0 00
	00 00		 mov	 rax, QWORD PTR this$[rbp]
  00047	0f b6 8d e8 00
	00 00		 movzx	 ecx, BYTE PTR c$[rbp]
  0004e	88 08		 mov	 BYTE PTR [rax], cl

; 9    : 		nnode = ns;

  00050	48 8b 85 e0 00
	00 00		 mov	 rax, QWORD PTR this$[rbp]
  00057	0f b7 8d f0 00
	00 00		 movzx	 ecx, WORD PTR ns$[rbp]
  0005e	66 89 48 02	 mov	 WORD PTR [rax+2], cx

; 10   : 	}

  00062	48 8b 85 e0 00
	00 00		 mov	 rax, QWORD PTR this$[rbp]
  00069	48 8d a5 c8 00
	00 00		 lea	 rsp, QWORD PTR [rbp+200]
  00070	5f		 pop	 rdi
  00071	5d		 pop	 rbp
  00072	c3		 ret	 0
??0RELATION@FST@@QEAA@DF@Z ENDP				; FST::RELATION::RELATION
_TEXT	ENDS
; Function compile flags: /Odtp /RTCsu /ZI
;	COMDAT ??_H@YAXPEAX_K1P6APEAX0@Z@Z
_TEXT	SEGMENT
tv66 = 192
tv67 = 200
__t$ = 240
__s$ = 248
__n$ = 256
__f$ = 264
??_H@YAXPEAX_K1P6APEAX0@Z@Z PROC			; `vector constructor iterator', COMDAT
$LN9:
  00000	4c 89 4c 24 20	 mov	 QWORD PTR [rsp+32], r9
  00005	4c 89 44 24 18	 mov	 QWORD PTR [rsp+24], r8
  0000a	48 89 54 24 10	 mov	 QWORD PTR [rsp+16], rdx
  0000f	48 89 4c 24 08	 mov	 QWORD PTR [rsp+8], rcx
  00014	55		 push	 rbp
  00015	57		 push	 rdi
  00016	48 81 ec f8 00
	00 00		 sub	 rsp, 248		; 000000f8H
  0001d	48 8d 6c 24 20	 lea	 rbp, QWORD PTR [rsp+32]
  00022	48 8b fc	 mov	 rdi, rsp
  00025	b9 3e 00 00 00	 mov	 ecx, 62			; 0000003eH
  0002a	b8 cc cc cc cc	 mov	 eax, -858993460		; ccccccccH
  0002f	f3 ab		 rep stosd
  00031	48 8b 8c 24 18
	01 00 00	 mov	 rcx, QWORD PTR [rsp+280]
$LN2@vector:
  00039	48 8b 85 00 01
	00 00		 mov	 rax, QWORD PTR __n$[rbp]
  00040	48 89 85 c0 00
	00 00		 mov	 QWORD PTR tv66[rbp], rax
  00047	48 8b 85 00 01
	00 00		 mov	 rax, QWORD PTR __n$[rbp]
  0004e	48 ff c8	 dec	 rax
  00051	48 89 85 00 01
	00 00		 mov	 QWORD PTR __n$[rbp], rax
  00058	48 83 bd c0 00
	00 00 00	 cmp	 QWORD PTR tv66[rbp], 0
  00060	76 0c		 jbe	 SHORT $LN5@vector
  00062	c7 85 c8 00 00
	00 01 00 00 00	 mov	 DWORD PTR tv67[rbp], 1
  0006c	eb 0a		 jmp	 SHORT $LN6@vector
$LN5@vector:
  0006e	c7 85 c8 00 00
	00 00 00 00 00	 mov	 DWORD PTR tv67[rbp], 0
$LN6@vector:
  00078	83 bd c8 00 00
	00 00		 cmp	 DWORD PTR tv67[rbp], 0
  0007f	74 2a		 je	 SHORT $LN3@vector
  00081	48 8b 8d f0 00
	00 00		 mov	 rcx, QWORD PTR __t$[rbp]
  00088	ff 95 08 01 00
	00		 call	 QWORD PTR __f$[rbp]
  0008e	48 8b 85 f8 00
	00 00		 mov	 rax, QWORD PTR __s$[rbp]
  00095	48 8b 8d f0 00
	00 00		 mov	 rcx, QWORD PTR __t$[rbp]
  0009c	48 03 c8	 add	 rcx, rax
  0009f	48 8b c1	 mov	 rax, rcx
  000a2	48 89 85 f0 00
	00 00		 mov	 QWORD PTR __t$[rbp], rax
  000a9	eb 8e		 jmp	 SHORT $LN2@vector
$LN3@vector:
  000ab	48 8d a5 d8 00
	00 00		 lea	 rsp, QWORD PTR [rbp+216]
  000b2	5f		 pop	 rdi
  000b3	5d		 pop	 rbp
  000b4	c3		 ret	 0
??_H@YAXPEAX_K1P6APEAX0@Z@Z ENDP			; `vector constructor iterator'
_TEXT	ENDS
END
