; Listing generated by Microsoft (R) Optimizing Compiler Version 19.27.29112.0 

include listing.inc

INCLUDELIB MSVCRTD
INCLUDELIB OLDNAMES

msvcjmc	SEGMENT
__20961129_GRB@h DB 01H
__367CC694_corecrt_memcpy_s@h DB 01H
__35D7DDB3_corecrt_memory@h DB 01H
__DC9673E3_corecrt_wstring@h DB 01H
__A29A7DFB_string@h DB 01H
__5D9978A4_GRB@cpp DB 01H
msvcjmc	ENDS
PUBLIC	??_H@YAXPEAX_K1P6APEAX0@Z@Z			; `vector constructor iterator'
PUBLIC	??0Chain@Rule@GRB@@QEAA@XZ			; GRB::Rule::Chain::Chain
PUBLIC	??0Chain@Rule@GRB@@QEAA@FFZZ			; GRB::Rule::Chain::Chain
PUBLIC	?getCChain@Chain@Rule@GRB@@QEAAPEADPEAD@Z	; GRB::Rule::Chain::getCChain
PUBLIC	?T@Chain@Rule@GRB@@SAFD@Z			; GRB::Rule::Chain::T
PUBLIC	?N@Chain@Rule@GRB@@SAFD@Z			; GRB::Rule::Chain::N
PUBLIC	?isT@Chain@Rule@GRB@@SA_NF@Z			; GRB::Rule::Chain::isT
PUBLIC	?alphabet_to_char@Chain@Rule@GRB@@SADF@Z	; GRB::Rule::Chain::alphabet_to_char
PUBLIC	??0Rule@GRB@@QEAA@XZ				; GRB::Rule::Rule
PUBLIC	??0Rule@GRB@@QEAA@FHFUChain@01@ZZ		; GRB::Rule::Rule
PUBLIC	?getCRule@Rule@GRB@@QEAAPEADPEADF@Z		; GRB::Rule::getCRule
PUBLIC	?getNextChain@Rule@GRB@@QEAAFFAEAUChain@12@G@Z	; GRB::Rule::getNextChain
PUBLIC	??0Greibach@GRB@@QEAA@FFFURule@1@ZZ		; GRB::Greibach::Greibach
PUBLIC	?getRule@Greibach@GRB@@QEAAFFAEAURule@2@@Z	; GRB::Greibach::getRule
PUBLIC	?getRule@Greibach@GRB@@QEAA?AURule@2@F@Z	; GRB::Greibach::getRule
PUBLIC	?getGreibach@GRB@@YA?AUGreibach@1@XZ		; GRB::getGreibach
PUBLIC	__JustMyCode_Default
PUBLIC	?greibach@GRB@@3UGreibach@1@A			; GRB::greibach
EXTRN	??_U@YAPEAX_K@Z:PROC				; operator new[]
EXTRN	??_V@YAXPEAX_K@Z:PROC				; operator delete[]
EXTRN	__imp_strcat_s:PROC
EXTRN	_RTC_CheckStackVars:PROC
EXTRN	_RTC_InitBase:PROC
EXTRN	_RTC_Shutdown:PROC
EXTRN	__CheckForDebuggerJustMyCode:PROC
EXTRN	__CxxFrameHandler4:PROC
EXTRN	__GSHandlerCheck:PROC
EXTRN	__chkstk:PROC
EXTRN	__security_check_cookie:PROC
EXTRN	__security_cookie:QWORD
_BSS	SEGMENT
?greibach@GRB@@3UGreibach@1@A DB 010H DUP (?)		; GRB::greibach
_BSS	ENDS
;	COMDAT pdata
pdata	SEGMENT
$pdata$??_H@YAXPEAX_K1P6APEAX0@Z@Z DD imagerel $LN9
	DD	imagerel $LN9+181
	DD	imagerel $unwind$??_H@YAXPEAX_K1P6APEAX0@Z@Z
pdata	ENDS
;	COMDAT pdata
pdata	SEGMENT
$pdata$??0Chain@Rule@GRB@@QEAA@XZ DD imagerel $LN4
	DD	imagerel $LN4+98
	DD	imagerel $unwind$??0Chain@Rule@GRB@@QEAA@XZ
pdata	ENDS
;	COMDAT pdata
pdata	SEGMENT
$pdata$??0Chain@Rule@GRB@@QEAA@FFZZ DD imagerel $LN9
	DD	imagerel $LN9+259
	DD	imagerel $unwind$??0Chain@Rule@GRB@@QEAA@FFZZ
pdata	ENDS
;	COMDAT pdata
pdata	SEGMENT
$pdata$?getCChain@Chain@Rule@GRB@@QEAAPEADPEAD@Z DD imagerel $LN9
	DD	imagerel $LN9+170
	DD	imagerel $unwind$?getCChain@Chain@Rule@GRB@@QEAAPEADPEAD@Z
pdata	ENDS
;	COMDAT pdata
pdata	SEGMENT
$pdata$?T@Chain@Rule@GRB@@SAFD@Z DD imagerel $LN4
	DD	imagerel $LN4+71
	DD	imagerel $unwind$?T@Chain@Rule@GRB@@SAFD@Z
pdata	ENDS
;	COMDAT pdata
pdata	SEGMENT
$pdata$?N@Chain@Rule@GRB@@SAFD@Z DD imagerel $LN4
	DD	imagerel $LN4+72
	DD	imagerel $unwind$?N@Chain@Rule@GRB@@SAFD@Z
pdata	ENDS
;	COMDAT pdata
pdata	SEGMENT
$pdata$?isT@Chain@Rule@GRB@@SA_NF@Z DD imagerel $LN6
	DD	imagerel $LN6+104
	DD	imagerel $unwind$?isT@Chain@Rule@GRB@@SA_NF@Z
pdata	ENDS
;	COMDAT pdata
pdata	SEGMENT
$pdata$?alphabet_to_char@Chain@Rule@GRB@@SADF@Z DD imagerel $LN6
	DD	imagerel $LN6+120
	DD	imagerel $unwind$?alphabet_to_char@Chain@Rule@GRB@@SADF@Z
pdata	ENDS
;	COMDAT pdata
pdata	SEGMENT
$pdata$??0Rule@GRB@@QEAA@XZ DD imagerel $LN4
	DD	imagerel $LN4+96
	DD	imagerel $unwind$??0Rule@GRB@@QEAA@XZ
pdata	ENDS
;	COMDAT pdata
pdata	SEGMENT
$pdata$??0Rule@GRB@@QEAA@FHFUChain@01@ZZ DD imagerel $LN12
	DD	imagerel $LN12+385
	DD	imagerel $unwind$??0Rule@GRB@@QEAA@FHFUChain@01@ZZ
pdata	ENDS
;	COMDAT pdata
pdata	SEGMENT
$pdata$?dtor$0@?0???0Rule@GRB@@QEAA@FHFUChain@01@ZZ@4HA DD imagerel ?dtor$0@?0???0Rule@GRB@@QEAA@FHFUChain@01@ZZ@4HA
	DD	imagerel ?dtor$0@?0???0Rule@GRB@@QEAA@FHFUChain@01@ZZ@4HA+65
	DD	imagerel $unwind$?dtor$0@?0???0Rule@GRB@@QEAA@FHFUChain@01@ZZ@4HA
pdata	ENDS
;	COMDAT pdata
pdata	SEGMENT
$pdata$?getCRule@Rule@GRB@@QEAAPEADPEADF@Z DD imagerel $LN4
	DD	imagerel $LN4+287
	DD	imagerel $unwind$?getCRule@Rule@GRB@@QEAAPEADPEADF@Z
pdata	ENDS
;	COMDAT pdata
pdata	SEGMENT
$pdata$?getNextChain@Rule@GRB@@QEAAFFAEAUChain@12@G@Z DD imagerel $LN10
	DD	imagerel $LN10+291
	DD	imagerel $unwind$?getNextChain@Rule@GRB@@QEAAFFAEAUChain@12@G@Z
pdata	ENDS
;	COMDAT pdata
pdata	SEGMENT
$pdata$??0Greibach@GRB@@QEAA@FFFURule@1@ZZ DD imagerel $LN12
	DD	imagerel $LN12+387
	DD	imagerel $unwind$??0Greibach@GRB@@QEAA@FFFURule@1@ZZ
pdata	ENDS
;	COMDAT pdata
pdata	SEGMENT
$pdata$?dtor$0@?0???0Greibach@GRB@@QEAA@FFFURule@1@ZZ@4HA DD imagerel ?dtor$0@?0???0Greibach@GRB@@QEAA@FFFURule@1@ZZ@4HA
	DD	imagerel ?dtor$0@?0???0Greibach@GRB@@QEAA@FFFURule@1@ZZ@4HA+65
	DD	imagerel $unwind$?dtor$0@?0???0Greibach@GRB@@QEAA@FFFURule@1@ZZ@4HA
pdata	ENDS
;	COMDAT pdata
pdata	SEGMENT
$pdata$?getRule@Greibach@GRB@@QEAAFFAEAURule@2@@Z DD imagerel $LN8
	DD	imagerel $LN8+225
	DD	imagerel $unwind$?getRule@Greibach@GRB@@QEAAFFAEAURule@2@@Z
pdata	ENDS
;	COMDAT pdata
pdata	SEGMENT
$pdata$?getRule@Greibach@GRB@@QEAA?AURule@2@F@Z DD imagerel $LN5
	DD	imagerel $LN5+230
	DD	imagerel $unwind$?getRule@Greibach@GRB@@QEAA?AURule@2@F@Z
pdata	ENDS
;	COMDAT pdata
pdata	SEGMENT
$pdata$?getGreibach@GRB@@YA?AUGreibach@1@XZ DD imagerel $LN4
	DD	imagerel $LN4+97
	DD	imagerel $unwind$?getGreibach@GRB@@YA?AUGreibach@1@XZ
pdata	ENDS
;	COMDAT pdata
pdata	SEGMENT
$pdata$??__Egreibach@GRB@@YAXXZ DD imagerel ??__Egreibach@GRB@@YAXXZ
	DD	imagerel ??__Egreibach@GRB@@YAXXZ+12427
	DD	imagerel $unwind$??__Egreibach@GRB@@YAXXZ
pdata	ENDS
CRT$XCU	SEGMENT
?greibach$initializer$@GRB@@3P6AXXZEA DQ FLAT:??__Egreibach@GRB@@YAXXZ ; GRB::greibach$initializer$
CRT$XCU	ENDS
;	COMDAT rtc$TMZ
rtc$TMZ	SEGMENT
_RTC_Shutdown.rtc$TMZ DQ FLAT:_RTC_Shutdown
rtc$TMZ	ENDS
;	COMDAT rtc$IMZ
rtc$IMZ	SEGMENT
_RTC_InitBase.rtc$IMZ DQ FLAT:_RTC_InitBase
rtc$IMZ	ENDS
;	COMDAT xdata
xdata	SEGMENT
$unwind$??__Egreibach@GRB@@YAXXZ DD 0f5062801H
	DD	0111f319H
	DD	070040592H
	DD	050026003H
xdata	ENDS
;	COMDAT xdata
xdata	SEGMENT
$unwind$?getGreibach@GRB@@YA?AUGreibach@1@XZ DD 025062b01H
	DD	010f2314H
	DD	07008001cH
	DD	050066007H
xdata	ENDS
;	COMDAT xdata
xdata	SEGMENT
$unwind$?getRule@Greibach@GRB@@QEAA?AURule@2@F@Z DD 025064719H
	DD	011a231fH
	DD	070130022H
	DD	050116012H
	DD	imagerel __GSHandlerCheck
	DD	0108H
xdata	ENDS
;	COMDAT CONST
CONST	SEGMENT
?getRule@Greibach@GRB@@QEAA?AURule@2@F@Z$rtcName$0 DB 072H ; GRB::Greibach::getRule
	DB	063H
	DB	00H
	ORG $+13
?getRule@Greibach@GRB@@QEAA?AURule@2@F@Z$rtcVarDesc DD 028H ; GRB::Greibach::getRule
	DD	018H
	DQ	FLAT:?getRule@Greibach@GRB@@QEAA?AURule@2@F@Z$rtcName$0
	ORG $+48
?getRule@Greibach@GRB@@QEAA?AURule@2@F@Z$rtcFrameData DD 01H ; GRB::Greibach::getRule
	DD	00H
	DQ	FLAT:?getRule@Greibach@GRB@@QEAA?AURule@2@F@Z$rtcVarDesc
CONST	ENDS
;	COMDAT xdata
xdata	SEGMENT
$unwind$?getRule@Greibach@GRB@@QEAAFFAEAURule@2@@Z DD 025063501H
	DD	0119231eH
	DD	070120024H
	DD	050106011H
xdata	ENDS
;	COMDAT xdata
xdata	SEGMENT
$unwind$?dtor$0@?0???0Greibach@GRB@@QEAA@FFFURule@1@ZZ@4HA DD 031001H
	DD	0700c4210H
	DD	0500bH
xdata	ENDS
;	COMDAT xdata
xdata	SEGMENT
$ip2state$??0Greibach@GRB@@QEAA@FFFURule@1@ZZ DB 06H
	DB	00H
	DB	00H
	DB	0c9H, 02H
	DB	02H
	DB	0a4H
	DB	00H
xdata	ENDS
;	COMDAT xdata
xdata	SEGMENT
$stateUnwindMap$??0Greibach@GRB@@QEAA@FFFURule@1@ZZ DB 02H
	DB	0eH
	DD	imagerel ?dtor$0@?0???0Greibach@GRB@@QEAA@FFFURule@1@ZZ@4HA
xdata	ENDS
;	COMDAT xdata
xdata	SEGMENT
$cppxdata$??0Greibach@GRB@@QEAA@FFFURule@1@ZZ DB 028H
	DD	imagerel $stateUnwindMap$??0Greibach@GRB@@QEAA@FFFURule@1@ZZ
	DD	imagerel $ip2state$??0Greibach@GRB@@QEAA@FFFURule@1@ZZ
xdata	ENDS
;	COMDAT xdata
xdata	SEGMENT
$unwind$??0Greibach@GRB@@QEAA@FFFURule@1@ZZ DD 025063c11H
	DD	01202325H
	DD	070190030H
	DD	050176018H
	DD	imagerel __CxxFrameHandler4
	DD	imagerel $cppxdata$??0Greibach@GRB@@QEAA@FFFURule@1@ZZ
xdata	ENDS
;	COMDAT xdata
xdata	SEGMENT
$unwind$?getNextChain@Rule@GRB@@QEAAFFAEAUChain@12@G@Z DD 025063b01H
	DD	011f2324H
	DD	070180020H
	DD	050166017H
xdata	ENDS
;	COMDAT xdata
xdata	SEGMENT
$unwind$?getCRule@Rule@GRB@@QEAAPEADPEADF@Z DD 025054619H
	DD	0119231eH
	DD	07012003bH
	DD	05011H
	DD	imagerel __GSHandlerCheck
	DD	01c8H
xdata	ENDS
;	COMDAT CONST
CONST	SEGMENT
?getCRule@Rule@GRB@@QEAAPEADPEADF@Z$rtcName$0 DB 062H	; GRB::Rule::getCRule
	DB	063H
	DB	068H
	DB	061H
	DB	069H
	DB	06eH
	DB	00H
	ORG $+9
?getCRule@Rule@GRB@@QEAAPEADPEADF@Z$rtcVarDesc DD 030H	; GRB::Rule::getCRule
	DD	0c8H
	DQ	FLAT:?getCRule@Rule@GRB@@QEAAPEADPEADF@Z$rtcName$0
	ORG $+48
?getCRule@Rule@GRB@@QEAAPEADPEADF@Z$rtcFrameData DD 01H	; GRB::Rule::getCRule
	DD	00H
	DQ	FLAT:?getCRule@Rule@GRB@@QEAAPEADPEADF@Z$rtcVarDesc
CONST	ENDS
;	COMDAT xdata
xdata	SEGMENT
$unwind$?dtor$0@?0???0Rule@GRB@@QEAA@FHFUChain@01@ZZ@4HA DD 031001H
	DD	0700c4210H
	DD	0500bH
xdata	ENDS
;	COMDAT xdata
xdata	SEGMENT
$ip2state$??0Rule@GRB@@QEAA@FHFUChain@01@ZZ DB 06H
	DB	00H
	DB	00H
	DB	0bdH, 02H
	DB	02H
	DB	0a4H
	DB	00H
xdata	ENDS
;	COMDAT xdata
xdata	SEGMENT
$stateUnwindMap$??0Rule@GRB@@QEAA@FHFUChain@01@ZZ DB 02H
	DB	0eH
	DD	imagerel ?dtor$0@?0???0Rule@GRB@@QEAA@FHFUChain@01@ZZ@4HA
xdata	ENDS
;	COMDAT xdata
xdata	SEGMENT
$cppxdata$??0Rule@GRB@@QEAA@FHFUChain@01@ZZ DB 028H
	DD	imagerel $stateUnwindMap$??0Rule@GRB@@QEAA@FHFUChain@01@ZZ
	DD	imagerel $ip2state$??0Rule@GRB@@QEAA@FHFUChain@01@ZZ
xdata	ENDS
;	COMDAT xdata
xdata	SEGMENT
$unwind$??0Rule@GRB@@QEAA@FHFUChain@01@ZZ DD 025063b11H
	DD	011f2324H
	DD	070180030H
	DD	050166017H
	DD	imagerel __CxxFrameHandler4
	DD	imagerel $cppxdata$??0Rule@GRB@@QEAA@FHFUChain@01@ZZ
xdata	ENDS
;	COMDAT xdata
xdata	SEGMENT
$unwind$??0Rule@GRB@@QEAA@XZ DD 025052a01H
	DD	010e2313H
	DD	07007001dH
	DD	05006H
xdata	ENDS
;	COMDAT xdata
xdata	SEGMENT
$unwind$?alphabet_to_char@Chain@Rule@GRB@@SADF@Z DD 025052a01H
	DD	010e2313H
	DD	07007001fH
	DD	05006H
xdata	ENDS
;	COMDAT xdata
xdata	SEGMENT
$unwind$?isT@Chain@Rule@GRB@@SA_NF@Z DD 025052a01H
	DD	010e2313H
	DD	07007001fH
	DD	05006H
xdata	ENDS
;	COMDAT xdata
xdata	SEGMENT
$unwind$?N@Chain@Rule@GRB@@SAFD@Z DD 025052901H
	DD	010d2312H
	DD	07006001dH
	DD	05005H
xdata	ENDS
;	COMDAT xdata
xdata	SEGMENT
$unwind$?T@Chain@Rule@GRB@@SAFD@Z DD 025052901H
	DD	010d2312H
	DD	07006001dH
	DD	05005H
xdata	ENDS
;	COMDAT xdata
xdata	SEGMENT
$unwind$?getCChain@Chain@Rule@GRB@@QEAAPEADPEAD@Z DD 025052f01H
	DD	01132318H
	DD	0700c0021H
	DD	0500bH
xdata	ENDS
;	COMDAT xdata
xdata	SEGMENT
$unwind$??0Chain@Rule@GRB@@QEAA@FFZZ DD 025053a01H
	DD	011e2323H
	DD	070170029H
	DD	05016H
xdata	ENDS
;	COMDAT xdata
xdata	SEGMENT
$unwind$??0Chain@Rule@GRB@@QEAA@XZ DD 025052a01H
	DD	010e2313H
	DD	07007001dH
	DD	05006H
xdata	ENDS
;	COMDAT xdata
xdata	SEGMENT
$unwind$??_H@YAXPEAX_K1P6APEAX0@Z@Z DD 025053901H
	DD	011d2322H
	DD	07016001fH
	DD	05015H
xdata	ENDS
; Function compile flags: /Odt
;	COMDAT __JustMyCode_Default
_TEXT	SEGMENT
__JustMyCode_Default PROC				; COMDAT
  00000	c2 00 00	 ret	 0
__JustMyCode_Default ENDP
_TEXT	ENDS
; Function compile flags: /Odtp /RTCsu /ZI
; File C:\Users\Skvortsoff\OneDrive\Документы\GitHub\course_LP\course_LP\GRB.cpp
;	COMDAT ??__Egreibach@GRB@@YAXXZ
text$di	SEGMENT
$T1 = 1592
$T2 = 1640
$T3 = 1688
$T4 = 1736
$T5 = 1784
$T6 = 1832
$T7 = 1880
$T8 = 1928
$T9 = 1976
$T10 = 2024
$T11 = 2072
$T12 = 2120
$T13 = 2168
$T14 = 2216
$T15 = 2264
$T16 = 2312
$T17 = 2360
$T18 = 2408
$T19 = 2456
$T20 = 2504
$T21 = 2552
$T22 = 2600
$T23 = 2648
$T24 = 2696
$T25 = 2744
$T26 = 2792
$T27 = 2840
$T28 = 2888
$T29 = 2936
$T30 = 2984
$T31 = 3032
$T32 = 3080
$T33 = 3128
$T34 = 3176
$T35 = 3224
$T36 = 3272
$T37 = 3320
$T38 = 3368
$T39 = 3416
$T40 = 3464
$T41 = 3512
$T42 = 3560
$T43 = 3608
$T44 = 3656
$T45 = 3704
$T46 = 3752
$T47 = 3800
$T48 = 3848
$T49 = 3896
$T50 = 3944
$T51 = 3992
$T52 = 4040
$T53 = 4088
$T54 = 4136
$T55 = 4184
$T56 = 4232
$T57 = 4280
$T58 = 4328
$T59 = 4376
$T60 = 4424
$T61 = 4472
$T62 = 4520
$T63 = 4568
$T64 = 4616
$T65 = 4664
$T66 = 4712
$T67 = 4760
$T68 = 4808
$T69 = 4856
$T70 = 4904
$T71 = 4952
$T72 = 5000
$T73 = 5048
$T74 = 5096
$T75 = 5144
$T76 = 5192
$T77 = 5240
$T78 = 5288
$T79 = 5336
$T80 = 5384
$T81 = 5432
$T82 = 5480
$T83 = 5528
$T84 = 5576
$T85 = 5624
$T86 = 5672
$T87 = 5728
$T88 = 5776
$T89 = 5824
$T90 = 5872
$T91 = 5920
$T92 = 5968
$T93 = 6016
$T94 = 6064
$T95 = 6112
$T96 = 6160
$T97 = 6208
$T98 = 6256
$T99 = 6304
$T100 = 6352
$T101 = 6400
$T102 = 6448
$T103 = 6496
$T104 = 6544
$T105 = 6592
$T106 = 6640
$T107 = 6688
$T108 = 6736
$T109 = 6784
$T110 = 6832
$T111 = 6880
$T112 = 6928
$T113 = 6976
$T114 = 7024
$T115 = 7072
$T116 = 7120
$T117 = 7168
$T118 = 7216
$T119 = 7264
$T120 = 7312
$T121 = 7360
$T122 = 7408
$T123 = 7456
$T124 = 7504
$T125 = 7552
$T126 = 7600
$T127 = 7648
$T128 = 7696
$T129 = 7744
$T130 = 7792
$T131 = 7840
$T132 = 7888
$T133 = 7936
$T134 = 7984
$T135 = 8032
$T136 = 8080
$T137 = 8128
$T138 = 8176
$T139 = 8224
$T140 = 8272
$T141 = 8320
$T142 = 8368
$T143 = 8416
$T144 = 8464
$T145 = 8512
$T146 = 8560
$T147 = 8608
$T148 = 8656
$T149 = 8704
$T150 = 8752
$T151 = 8800
$T152 = 8848
$T153 = 8896
$T154 = 8944
$T155 = 8992
$T156 = 9040
$T157 = 9088
$T158 = 9136
$T159 = 9184
$T160 = 9232
$T161 = 9280
$T162 = 9328
$T163 = 9376
$T164 = 9424
$T165 = 9488
$T166 = 9552
$T167 = 9616
$T168 = 9680
$T169 = 9744
$T170 = 9808
$T171 = 9872
$T172 = 9936
tv72 = 9972
tv76 = 9976
tv80 = 9980
tv91 = 9984
tv95 = 9988
tv131 = 9992
tv135 = 9996
tv146 = 10000
tv150 = 10004
tv154 = 10008
tv165 = 10012
tv169 = 10016
tv173 = 10020
tv177 = 10024
tv196 = 10028
tv200 = 10032
tv204 = 10036
tv215 = 10040
tv219 = 10044
tv223 = 10048
tv256 = 10052
tv260 = 10056
tv300 = 10060
tv304 = 10064
tv315 = 10068
tv319 = 10072
tv330 = 10076
tv334 = 10080
tv338 = 10084
tv349 = 10088
tv353 = 10092
tv357 = 10096
tv361 = 10100
tv365 = 10104
tv384 = 10108
tv388 = 10112
tv392 = 10116
tv396 = 10120
tv400 = 10124
tv411 = 10128
tv415 = 10132
tv419 = 10136
tv430 = 10140
tv434 = 10144
tv438 = 10148
tv449 = 10152
tv468 = 10156
tv472 = 10160
tv483 = 10164
tv502 = 10168
tv506 = 10172
tv510 = 10176
tv514 = 10180
tv518 = 10184
tv529 = 10188
tv533 = 10192
tv537 = 10196
tv541 = 10200
tv552 = 10204
tv556 = 10208
tv560 = 10212
tv564 = 10216
tv568 = 10220
tv611 = 10224
tv615 = 10228
tv619 = 10232
tv623 = 10236
tv634 = 10240
tv638 = 10244
tv642 = 10248
tv646 = 10252
tv657 = 10256
tv661 = 10260
tv665 = 10264
tv669 = 10268
tv680 = 10272
tv684 = 10276
tv688 = 10280
tv699 = 10284
tv703 = 10288
tv707 = 10292
tv718 = 10296
tv722 = 10300
tv726 = 10304
tv737 = 10308
tv741 = 10312
tv745 = 10316
tv756 = 10320
tv760 = 10324
tv764 = 10328
tv775 = 10332
tv779 = 10336
tv790 = 10340
tv794 = 10344
tv805 = 10348
tv809 = 10352
tv820 = 10356
tv824 = 10360
tv835 = 10364
tv839 = 10368
tv850 = 10372
tv854 = 10376
tv865 = 10380
tv876 = 10384
tv909 = 10388
tv913 = 10392
tv917 = 10396
tv921 = 10400
tv925 = 10404
tv929 = 10408
tv933 = 10412
tv937 = 10416
tv941 = 10420
tv945 = 10424
tv956 = 10428
tv960 = 10432
tv964 = 10436
tv968 = 10440
tv972 = 10444
tv976 = 10448
tv980 = 10452
tv984 = 10456
tv988 = 10460
tv999 = 10464
tv1003 = 10468
tv1007 = 10472
tv1011 = 10476
tv1015 = 10480
tv1019 = 10484
tv1023 = 10488
tv1027 = 10492
tv1038 = 10496
tv1042 = 10500
tv1046 = 10504
tv1050 = 10508
tv1054 = 10512
tv1058 = 10516
tv1069 = 10520
tv1073 = 10524
tv1077 = 10528
tv1081 = 10532
tv1085 = 10536
tv1089 = 10540
tv1100 = 10544
tv1104 = 10548
tv1108 = 10552
tv1112 = 10556
tv1116 = 10560
tv1127 = 10564
tv1131 = 10568
tv1135 = 10572
tv1139 = 10576
tv1150 = 10580
tv1154 = 10584
tv1158 = 10588
tv1162 = 10592
tv1173 = 10596
tv1177 = 10600
tv1181 = 10604
tv1185 = 10608
tv1196 = 10612
tv1200 = 10616
tv1204 = 10620
tv1215 = 10624
tv1219 = 10628
tv1223 = 10632
tv1234 = 10636
tv1238 = 10640
tv1281 = 10644
tv1285 = 10648
tv1296 = 10652
tv1300 = 10656
tv1311 = 10660
tv1322 = 10664
tv1326 = 10668
tv1330 = 10672
tv1334 = 10676
tv1338 = 10680
tv1342 = 10684
tv1346 = 10688
tv1350 = 10692
tv1354 = 10696
tv1358 = 10700
tv1362 = 10704
tv1373 = 10708
tv1377 = 10712
tv1381 = 10716
tv1385 = 10720
tv1389 = 10724
tv1393 = 10728
tv1397 = 10732
tv1401 = 10736
tv1405 = 10740
tv1409 = 10744
tv1420 = 10748
tv1424 = 10752
tv1428 = 10756
tv1432 = 10760
tv1436 = 10764
tv1440 = 10768
tv1444 = 10772
tv1455 = 10776
tv1459 = 10780
tv1463 = 10784
tv1467 = 10788
tv1471 = 10792
tv1475 = 10796
tv1479 = 10800
tv1490 = 10804
tv1494 = 10808
tv1498 = 10812
tv1502 = 10816
tv1506 = 10820
tv1510 = 10824
tv1514 = 10828
tv1518 = 10832
tv1522 = 10836
tv1533 = 10840
tv1537 = 10844
tv1541 = 10848
tv1545 = 10852
tv1549 = 10856
tv1553 = 10860
tv1557 = 10864
tv1561 = 10868
tv1565 = 10872
tv1576 = 10876
tv1580 = 10880
tv1584 = 10884
tv1588 = 10888
tv1592 = 10892
tv1596 = 10896
tv1600 = 10900
tv1611 = 10904
tv1615 = 10908
tv1619 = 10912
tv1623 = 10916
tv1627 = 10920
tv1631 = 10924
tv1635 = 10928
tv1646 = 10932
tv1650 = 10936
tv1654 = 10940
tv1658 = 10944
tv1662 = 10948
tv1666 = 10952
tv1677 = 10956
tv1681 = 10960
tv1685 = 10964
tv1689 = 10968
tv1693 = 10972
tv1704 = 10976
tv1708 = 10980
tv1712 = 10984
tv1716 = 10988
tv1720 = 10992
tv1731 = 10996
tv1735 = 11000
tv1739 = 11004
tv1743 = 11008
tv1747 = 11012
tv1758 = 11016
tv1762 = 11020
tv1766 = 11024
tv1770 = 11028
tv1781 = 11032
tv1785 = 11036
tv1789 = 11040
tv1793 = 11044
tv1804 = 11048
tv1808 = 11052
tv1812 = 11056
tv1823 = 11060
tv1827 = 11064
tv1831 = 11068
tv1842 = 11072
tv1846 = 11076
tv1865 = 11080
tv1869 = 11084
tv1873 = 11088
tv1877 = 11092
tv1881 = 11096
tv1885 = 11100
tv1896 = 11104
tv1900 = 11108
tv1904 = 11112
tv1908 = 11116
tv1912 = 11120
tv1916 = 11124
tv1920 = 11128
tv1924 = 11132
tv1928 = 11136
tv1932 = 11140
tv1936 = 11144
tv1940 = 11148
tv1640 = 11152
??__Egreibach@GRB@@YAXXZ PROC				; GRB::`dynamic initializer for 'greibach'', COMDAT

; 187  : 	);

  00000	40 55		 push	 rbp
  00002	56		 push	 rsi
  00003	57		 push	 rdi
  00004	b8 90 2c 00 00	 mov	 eax, 11408		; 00002c90H
  00009	e8 00 00 00 00	 call	 __chkstk
  0000e	48 2b e0	 sub	 rsp, rax
  00011	48 8d ac 24 f0
	00 00 00	 lea	 rbp, QWORD PTR [rsp+240]
  00019	48 8b fc	 mov	 rdi, rsp
  0001c	b9 24 0b 00 00	 mov	 ecx, 2852		; 00000b24H
  00021	b8 cc cc cc cc	 mov	 eax, -858993460		; ccccccccH
  00026	f3 ab		 rep stosd
  00028	48 8d 0d 00 00
	00 00		 lea	 rcx, OFFSET FLAT:__5D9978A4_GRB@cpp
  0002f	e8 00 00 00 00	 call	 __CheckForDebuggerJustMyCode

; 80   : 	Greibach greibach(NS('S'), TS('$'), 9,

  00034	b1 7d		 mov	 cl, 125			; 0000007dH
  00036	e8 00 00 00 00	 call	 ?T@Chain@Rule@GRB@@SAFD@Z ; GRB::Rule::Chain::T
  0003b	98		 cwde
  0003c	89 85 f4 26 00
	00		 mov	 DWORD PTR tv72[rbp], eax
  00042	b1 4e		 mov	 cl, 78			; 0000004eH
  00044	e8 00 00 00 00	 call	 ?N@Chain@Rule@GRB@@SAFD@Z ; GRB::Rule::Chain::N
  00049	98		 cwde
  0004a	89 85 f8 26 00
	00		 mov	 DWORD PTR tv76[rbp], eax
  00050	b1 7b		 mov	 cl, 123			; 0000007bH
  00052	e8 00 00 00 00	 call	 ?T@Chain@Rule@GRB@@SAFD@Z ; GRB::Rule::Chain::T
  00057	98		 cwde
  00058	89 85 fc 26 00
	00		 mov	 DWORD PTR tv80[rbp], eax
  0005e	b1 65		 mov	 cl, 101			; 00000065H
  00060	e8 00 00 00 00	 call	 ?T@Chain@Rule@GRB@@SAFD@Z ; GRB::Rule::Chain::T
  00065	8b 8d f4 26 00
	00		 mov	 ecx, DWORD PTR tv72[rbp]
  0006b	89 4c 24 28	 mov	 DWORD PTR [rsp+40], ecx
  0006f	8b 8d f8 26 00
	00		 mov	 ecx, DWORD PTR tv76[rbp]
  00075	89 4c 24 20	 mov	 DWORD PTR [rsp+32], ecx
  00079	8b 8d fc 26 00
	00		 mov	 ecx, DWORD PTR tv80[rbp]
  0007f	44 8b c9	 mov	 r9d, ecx
  00082	44 0f bf c0	 movsx	 r8d, ax
  00086	ba 04 00 00 00	 mov	 edx, 4
  0008b	48 8d 8d 68 06
	00 00		 lea	 rcx, QWORD PTR $T2[rbp]
  00092	e8 00 00 00 00	 call	 ??0Chain@Rule@GRB@@QEAA@FFZZ ; GRB::Rule::Chain::Chain
  00097	48 8d 8d f0 16
	00 00		 lea	 rcx, QWORD PTR $T90[rbp]
  0009e	48 8b f9	 mov	 rdi, rcx
  000a1	48 8b f0	 mov	 rsi, rax
  000a4	b9 10 00 00 00	 mov	 ecx, 16
  000a9	f3 a4		 rep movsb
  000ab	b1 4e		 mov	 cl, 78			; 0000004eH
  000ad	e8 00 00 00 00	 call	 ?N@Chain@Rule@GRB@@SAFD@Z ; GRB::Rule::Chain::N
  000b2	98		 cwde
  000b3	89 85 00 27 00
	00		 mov	 DWORD PTR tv91[rbp], eax
  000b9	b1 7d		 mov	 cl, 125			; 0000007dH
  000bb	e8 00 00 00 00	 call	 ?T@Chain@Rule@GRB@@SAFD@Z ; GRB::Rule::Chain::T
  000c0	98		 cwde
  000c1	89 85 04 27 00
	00		 mov	 DWORD PTR tv95[rbp], eax
  000c7	b1 4e		 mov	 cl, 78			; 0000004eH
  000c9	e8 00 00 00 00	 call	 ?N@Chain@Rule@GRB@@SAFD@Z ; GRB::Rule::Chain::N
  000ce	98		 cwde
  000cf	89 85 08 27 00
	00		 mov	 DWORD PTR tv131[rbp], eax
  000d5	b1 7b		 mov	 cl, 123			; 0000007bH
  000d7	e8 00 00 00 00	 call	 ?T@Chain@Rule@GRB@@SAFD@Z ; GRB::Rule::Chain::T
  000dc	98		 cwde
  000dd	89 85 0c 27 00
	00		 mov	 DWORD PTR tv135[rbp], eax
  000e3	b1 65		 mov	 cl, 101			; 00000065H
  000e5	e8 00 00 00 00	 call	 ?T@Chain@Rule@GRB@@SAFD@Z ; GRB::Rule::Chain::T
  000ea	8b 8d 00 27 00
	00		 mov	 ecx, DWORD PTR tv91[rbp]
  000f0	89 4c 24 30	 mov	 DWORD PTR [rsp+48], ecx
  000f4	8b 8d 04 27 00
	00		 mov	 ecx, DWORD PTR tv95[rbp]
  000fa	89 4c 24 28	 mov	 DWORD PTR [rsp+40], ecx
  000fe	8b 8d 08 27 00
	00		 mov	 ecx, DWORD PTR tv131[rbp]
  00104	89 4c 24 20	 mov	 DWORD PTR [rsp+32], ecx
  00108	8b 8d 0c 27 00
	00		 mov	 ecx, DWORD PTR tv135[rbp]
  0010e	44 8b c9	 mov	 r9d, ecx
  00111	44 0f bf c0	 movsx	 r8d, ax
  00115	ba 05 00 00 00	 mov	 edx, 5
  0011a	48 8d 8d 98 06
	00 00		 lea	 rcx, QWORD PTR $T3[rbp]
  00121	e8 00 00 00 00	 call	 ??0Chain@Rule@GRB@@QEAA@FFZZ ; GRB::Rule::Chain::Chain
  00126	48 8d 8d c0 16
	00 00		 lea	 rcx, QWORD PTR $T89[rbp]
  0012d	48 8b f9	 mov	 rdi, rcx
  00130	48 8b f0	 mov	 rsi, rax
  00133	b9 10 00 00 00	 mov	 ecx, 16
  00138	f3 a4		 rep movsb
  0013a	b1 7d		 mov	 cl, 125			; 0000007dH
  0013c	e8 00 00 00 00	 call	 ?T@Chain@Rule@GRB@@SAFD@Z ; GRB::Rule::Chain::T
  00141	98		 cwde
  00142	89 85 10 27 00
	00		 mov	 DWORD PTR tv146[rbp], eax
  00148	b1 45		 mov	 cl, 69			; 00000045H
  0014a	e8 00 00 00 00	 call	 ?N@Chain@Rule@GRB@@SAFD@Z ; GRB::Rule::Chain::N
  0014f	98		 cwde
  00150	89 85 14 27 00
	00		 mov	 DWORD PTR tv150[rbp], eax
  00156	b1 7b		 mov	 cl, 123			; 0000007bH
  00158	e8 00 00 00 00	 call	 ?T@Chain@Rule@GRB@@SAFD@Z ; GRB::Rule::Chain::T
  0015d	98		 cwde
  0015e	89 85 18 27 00
	00		 mov	 DWORD PTR tv154[rbp], eax
  00164	b1 65		 mov	 cl, 101			; 00000065H
  00166	e8 00 00 00 00	 call	 ?T@Chain@Rule@GRB@@SAFD@Z ; GRB::Rule::Chain::T
  0016b	8b 8d 10 27 00
	00		 mov	 ecx, DWORD PTR tv146[rbp]
  00171	89 4c 24 28	 mov	 DWORD PTR [rsp+40], ecx
  00175	8b 8d 14 27 00
	00		 mov	 ecx, DWORD PTR tv150[rbp]
  0017b	89 4c 24 20	 mov	 DWORD PTR [rsp+32], ecx
  0017f	8b 8d 18 27 00
	00		 mov	 ecx, DWORD PTR tv154[rbp]
  00185	44 8b c9	 mov	 r9d, ecx
  00188	44 0f bf c0	 movsx	 r8d, ax
  0018c	ba 04 00 00 00	 mov	 edx, 4
  00191	48 8d 8d c8 06
	00 00		 lea	 rcx, QWORD PTR $T4[rbp]
  00198	e8 00 00 00 00	 call	 ??0Chain@Rule@GRB@@QEAA@FFZZ ; GRB::Rule::Chain::Chain
  0019d	48 8d 8d 90 16
	00 00		 lea	 rcx, QWORD PTR $T88[rbp]
  001a4	48 8b f9	 mov	 rdi, rcx
  001a7	48 8b f0	 mov	 rsi, rax
  001aa	b9 10 00 00 00	 mov	 ecx, 16
  001af	f3 a4		 rep movsb
  001b1	b1 4e		 mov	 cl, 78			; 0000004eH
  001b3	e8 00 00 00 00	 call	 ?N@Chain@Rule@GRB@@SAFD@Z ; GRB::Rule::Chain::N
  001b8	98		 cwde
  001b9	89 85 1c 27 00
	00		 mov	 DWORD PTR tv165[rbp], eax
  001bf	b1 7d		 mov	 cl, 125			; 0000007dH
  001c1	e8 00 00 00 00	 call	 ?T@Chain@Rule@GRB@@SAFD@Z ; GRB::Rule::Chain::T
  001c6	98		 cwde
  001c7	89 85 20 27 00
	00		 mov	 DWORD PTR tv169[rbp], eax
  001cd	b1 45		 mov	 cl, 69			; 00000045H
  001cf	e8 00 00 00 00	 call	 ?N@Chain@Rule@GRB@@SAFD@Z ; GRB::Rule::Chain::N
  001d4	98		 cwde
  001d5	89 85 24 27 00
	00		 mov	 DWORD PTR tv173[rbp], eax
  001db	b1 7b		 mov	 cl, 123			; 0000007bH
  001dd	e8 00 00 00 00	 call	 ?T@Chain@Rule@GRB@@SAFD@Z ; GRB::Rule::Chain::T
  001e2	98		 cwde
  001e3	89 85 28 27 00
	00		 mov	 DWORD PTR tv177[rbp], eax
  001e9	b1 65		 mov	 cl, 101			; 00000065H
  001eb	e8 00 00 00 00	 call	 ?T@Chain@Rule@GRB@@SAFD@Z ; GRB::Rule::Chain::T
  001f0	8b 8d 1c 27 00
	00		 mov	 ecx, DWORD PTR tv165[rbp]
  001f6	89 4c 24 30	 mov	 DWORD PTR [rsp+48], ecx
  001fa	8b 8d 20 27 00
	00		 mov	 ecx, DWORD PTR tv169[rbp]
  00200	89 4c 24 28	 mov	 DWORD PTR [rsp+40], ecx
  00204	8b 8d 24 27 00
	00		 mov	 ecx, DWORD PTR tv173[rbp]
  0020a	89 4c 24 20	 mov	 DWORD PTR [rsp+32], ecx
  0020e	8b 8d 28 27 00
	00		 mov	 ecx, DWORD PTR tv177[rbp]
  00214	44 8b c9	 mov	 r9d, ecx
  00217	44 0f bf c0	 movsx	 r8d, ax
  0021b	ba 05 00 00 00	 mov	 edx, 5
  00220	48 8d 8d f8 06
	00 00		 lea	 rcx, QWORD PTR $T5[rbp]
  00227	e8 00 00 00 00	 call	 ??0Chain@Rule@GRB@@QEAA@FFZZ ; GRB::Rule::Chain::Chain
  0022c	48 8d 8d 60 16
	00 00		 lea	 rcx, QWORD PTR $T87[rbp]
  00233	48 8b f9	 mov	 rdi, rcx
  00236	48 8b f0	 mov	 rsi, rax
  00239	b9 10 00 00 00	 mov	 ecx, 16
  0023e	f3 a4		 rep movsb
  00240	b1 42		 mov	 cl, 66			; 00000042H
  00242	e8 00 00 00 00	 call	 ?N@Chain@Rule@GRB@@SAFD@Z ; GRB::Rule::Chain::N
  00247	48 8d 8d f0 16
	00 00		 lea	 rcx, QWORD PTR $T90[rbp]
  0024e	48 89 4c 24 38	 mov	 QWORD PTR [rsp+56], rcx
  00253	48 8d 8d c0 16
	00 00		 lea	 rcx, QWORD PTR $T89[rbp]
  0025a	48 89 4c 24 30	 mov	 QWORD PTR [rsp+48], rcx
  0025f	48 8d 8d 90 16
	00 00		 lea	 rcx, QWORD PTR $T88[rbp]
  00266	48 89 4c 24 28	 mov	 QWORD PTR [rsp+40], rcx
  0026b	48 8d 8d 60 16
	00 00		 lea	 rcx, QWORD PTR $T87[rbp]
  00272	48 89 4c 24 20	 mov	 QWORD PTR [rsp+32], rcx
  00277	41 b9 04 00 00
	00		 mov	 r9d, 4
  0027d	41 b8 60 02 00
	00		 mov	 r8d, 608		; 00000260H
  00283	0f bf d0	 movsx	 edx, ax
  00286	48 8d 8d 38 06
	00 00		 lea	 rcx, QWORD PTR $T1[rbp]
  0028d	e8 00 00 00 00	 call	 ??0Rule@GRB@@QEAA@FHFUChain@01@ZZ ; GRB::Rule::Rule
  00292	48 8d 8d d0 26
	00 00		 lea	 rcx, QWORD PTR $T172[rbp]
  00299	48 8b f9	 mov	 rdi, rcx
  0029c	48 8b f0	 mov	 rsi, rax
  0029f	b9 18 00 00 00	 mov	 ecx, 24
  002a4	f3 a4		 rep movsb
  002a6	b1 5d		 mov	 cl, 93			; 0000005dH
  002a8	e8 00 00 00 00	 call	 ?T@Chain@Rule@GRB@@SAFD@Z ; GRB::Rule::Chain::T
  002ad	98		 cwde
  002ae	89 85 2c 27 00
	00		 mov	 DWORD PTR tv196[rbp], eax
  002b4	b1 45		 mov	 cl, 69			; 00000045H
  002b6	e8 00 00 00 00	 call	 ?N@Chain@Rule@GRB@@SAFD@Z ; GRB::Rule::Chain::N
  002bb	98		 cwde
  002bc	89 85 30 27 00
	00		 mov	 DWORD PTR tv200[rbp], eax
  002c2	b1 5b		 mov	 cl, 91			; 0000005bH
  002c4	e8 00 00 00 00	 call	 ?T@Chain@Rule@GRB@@SAFD@Z ; GRB::Rule::Chain::T
  002c9	98		 cwde
  002ca	89 85 34 27 00
	00		 mov	 DWORD PTR tv204[rbp], eax
  002d0	b1 6c		 mov	 cl, 108			; 0000006cH
  002d2	e8 00 00 00 00	 call	 ?T@Chain@Rule@GRB@@SAFD@Z ; GRB::Rule::Chain::T
  002d7	8b 8d 2c 27 00
	00		 mov	 ecx, DWORD PTR tv196[rbp]
  002dd	89 4c 24 28	 mov	 DWORD PTR [rsp+40], ecx
  002e1	8b 8d 30 27 00
	00		 mov	 ecx, DWORD PTR tv200[rbp]
  002e7	89 4c 24 20	 mov	 DWORD PTR [rsp+32], ecx
  002eb	8b 8d 34 27 00
	00		 mov	 ecx, DWORD PTR tv204[rbp]
  002f1	44 8b c9	 mov	 r9d, ecx
  002f4	44 0f bf c0	 movsx	 r8d, ax
  002f8	ba 04 00 00 00	 mov	 edx, 4
  002fd	48 8d 8d 58 07
	00 00		 lea	 rcx, QWORD PTR $T7[rbp]
  00304	e8 00 00 00 00	 call	 ??0Chain@Rule@GRB@@QEAA@FFZZ ; GRB::Rule::Chain::Chain
  00309	48 8d 8d b0 17
	00 00		 lea	 rcx, QWORD PTR $T94[rbp]
  00310	48 8b f9	 mov	 rdi, rcx
  00313	48 8b f0	 mov	 rsi, rax
  00316	b9 10 00 00 00	 mov	 ecx, 16
  0031b	f3 a4		 rep movsb
  0031d	b1 5d		 mov	 cl, 93			; 0000005dH
  0031f	e8 00 00 00 00	 call	 ?T@Chain@Rule@GRB@@SAFD@Z ; GRB::Rule::Chain::T
  00324	98		 cwde
  00325	89 85 38 27 00
	00		 mov	 DWORD PTR tv215[rbp], eax
  0032b	b1 45		 mov	 cl, 69			; 00000045H
  0032d	e8 00 00 00 00	 call	 ?N@Chain@Rule@GRB@@SAFD@Z ; GRB::Rule::Chain::N
  00332	98		 cwde
  00333	89 85 3c 27 00
	00		 mov	 DWORD PTR tv219[rbp], eax
  00339	b1 5b		 mov	 cl, 91			; 0000005bH
  0033b	e8 00 00 00 00	 call	 ?T@Chain@Rule@GRB@@SAFD@Z ; GRB::Rule::Chain::T
  00340	98		 cwde
  00341	89 85 40 27 00
	00		 mov	 DWORD PTR tv223[rbp], eax
  00347	b1 69		 mov	 cl, 105			; 00000069H
  00349	e8 00 00 00 00	 call	 ?T@Chain@Rule@GRB@@SAFD@Z ; GRB::Rule::Chain::T
  0034e	8b 8d 38 27 00
	00		 mov	 ecx, DWORD PTR tv215[rbp]
  00354	89 4c 24 28	 mov	 DWORD PTR [rsp+40], ecx
  00358	8b 8d 3c 27 00
	00		 mov	 ecx, DWORD PTR tv219[rbp]
  0035e	89 4c 24 20	 mov	 DWORD PTR [rsp+32], ecx
  00362	8b 8d 40 27 00
	00		 mov	 ecx, DWORD PTR tv223[rbp]
  00368	44 8b c9	 mov	 r9d, ecx
  0036b	44 0f bf c0	 movsx	 r8d, ax
  0036f	ba 04 00 00 00	 mov	 edx, 4
  00374	48 8d 8d 88 07
	00 00		 lea	 rcx, QWORD PTR $T8[rbp]
  0037b	e8 00 00 00 00	 call	 ??0Chain@Rule@GRB@@QEAA@FFZZ ; GRB::Rule::Chain::Chain
  00380	48 8d 8d 80 17
	00 00		 lea	 rcx, QWORD PTR $T93[rbp]
  00387	48 8b f9	 mov	 rdi, rcx
  0038a	48 8b f0	 mov	 rsi, rax
  0038d	b9 10 00 00 00	 mov	 ecx, 16
  00392	f3 a4		 rep movsb
  00394	b1 69		 mov	 cl, 105			; 00000069H
  00396	e8 00 00 00 00	 call	 ?T@Chain@Rule@GRB@@SAFD@Z ; GRB::Rule::Chain::T
  0039b	44 0f bf c0	 movsx	 r8d, ax
  0039f	ba 01 00 00 00	 mov	 edx, 1
  003a4	48 8d 8d b8 07
	00 00		 lea	 rcx, QWORD PTR $T9[rbp]
  003ab	e8 00 00 00 00	 call	 ??0Chain@Rule@GRB@@QEAA@FFZZ ; GRB::Rule::Chain::Chain
  003b0	48 8d 8d 50 17
	00 00		 lea	 rcx, QWORD PTR $T92[rbp]
  003b7	48 8b f9	 mov	 rdi, rcx
  003ba	48 8b f0	 mov	 rsi, rax
  003bd	b9 10 00 00 00	 mov	 ecx, 16
  003c2	f3 a4		 rep movsb
  003c4	b1 6c		 mov	 cl, 108			; 0000006cH
  003c6	e8 00 00 00 00	 call	 ?T@Chain@Rule@GRB@@SAFD@Z ; GRB::Rule::Chain::T
  003cb	44 0f bf c0	 movsx	 r8d, ax
  003cf	ba 01 00 00 00	 mov	 edx, 1
  003d4	48 8d 8d e8 07
	00 00		 lea	 rcx, QWORD PTR $T10[rbp]
  003db	e8 00 00 00 00	 call	 ??0Chain@Rule@GRB@@QEAA@FFZZ ; GRB::Rule::Chain::Chain
  003e0	48 8d 8d 20 17
	00 00		 lea	 rcx, QWORD PTR $T91[rbp]
  003e7	48 8b f9	 mov	 rdi, rcx
  003ea	48 8b f0	 mov	 rsi, rax
  003ed	b9 10 00 00 00	 mov	 ecx, 16
  003f2	f3 a4		 rep movsb
  003f4	b1 58		 mov	 cl, 88			; 00000058H
  003f6	e8 00 00 00 00	 call	 ?N@Chain@Rule@GRB@@SAFD@Z ; GRB::Rule::Chain::N
  003fb	48 8d 8d b0 17
	00 00		 lea	 rcx, QWORD PTR $T94[rbp]
  00402	48 89 4c 24 38	 mov	 QWORD PTR [rsp+56], rcx
  00407	48 8d 8d 80 17
	00 00		 lea	 rcx, QWORD PTR $T93[rbp]
  0040e	48 89 4c 24 30	 mov	 QWORD PTR [rsp+48], rcx
  00413	48 8d 8d 50 17
	00 00		 lea	 rcx, QWORD PTR $T92[rbp]
  0041a	48 89 4c 24 28	 mov	 QWORD PTR [rsp+40], rcx
  0041f	48 8d 8d 20 17
	00 00		 lea	 rcx, QWORD PTR $T91[rbp]
  00426	48 89 4c 24 20	 mov	 QWORD PTR [rsp+32], rcx
  0042b	41 b9 04 00 00
	00		 mov	 r9d, 4
  00431	41 b8 5f 02 00
	00		 mov	 r8d, 607		; 0000025fH
  00437	0f bf d0	 movsx	 edx, ax
  0043a	48 8d 8d 28 07
	00 00		 lea	 rcx, QWORD PTR $T6[rbp]
  00441	e8 00 00 00 00	 call	 ??0Rule@GRB@@QEAA@FHFUChain@01@ZZ ; GRB::Rule::Rule
  00446	48 8d 8d 90 26
	00 00		 lea	 rcx, QWORD PTR $T171[rbp]
  0044d	48 8b f9	 mov	 rdi, rcx
  00450	48 8b f0	 mov	 rsi, rax
  00453	b9 18 00 00 00	 mov	 ecx, 24
  00458	f3 a4		 rep movsb
  0045a	b1 41		 mov	 cl, 65			; 00000041H
  0045c	e8 00 00 00 00	 call	 ?N@Chain@Rule@GRB@@SAFD@Z ; GRB::Rule::Chain::N
  00461	98		 cwde
  00462	89 85 44 27 00
	00		 mov	 DWORD PTR tv256[rbp], eax
  00468	b1 2c		 mov	 cl, 44			; 0000002cH
  0046a	e8 00 00 00 00	 call	 ?T@Chain@Rule@GRB@@SAFD@Z ; GRB::Rule::Chain::T
  0046f	98		 cwde
  00470	89 85 48 27 00
	00		 mov	 DWORD PTR tv260[rbp], eax
  00476	b1 6c		 mov	 cl, 108			; 0000006cH
  00478	e8 00 00 00 00	 call	 ?T@Chain@Rule@GRB@@SAFD@Z ; GRB::Rule::Chain::T
  0047d	8b 8d 44 27 00
	00		 mov	 ecx, DWORD PTR tv256[rbp]
  00483	89 4c 24 20	 mov	 DWORD PTR [rsp+32], ecx
  00487	8b 8d 48 27 00
	00		 mov	 ecx, DWORD PTR tv260[rbp]
  0048d	44 8b c9	 mov	 r9d, ecx
  00490	44 0f bf c0	 movsx	 r8d, ax
  00494	ba 03 00 00 00	 mov	 edx, 3
  00499	48 8d 8d 48 08
	00 00		 lea	 rcx, QWORD PTR $T12[rbp]
  004a0	e8 00 00 00 00	 call	 ??0Chain@Rule@GRB@@QEAA@FFZZ ; GRB::Rule::Chain::Chain
  004a5	48 8d 8d 10 18
	00 00		 lea	 rcx, QWORD PTR $T96[rbp]
  004ac	48 8b f9	 mov	 rdi, rcx
  004af	48 8b f0	 mov	 rsi, rax
  004b2	b9 10 00 00 00	 mov	 ecx, 16
  004b7	f3 a4		 rep movsb
  004b9	b1 6c		 mov	 cl, 108			; 0000006cH
  004bb	e8 00 00 00 00	 call	 ?T@Chain@Rule@GRB@@SAFD@Z ; GRB::Rule::Chain::T
  004c0	44 0f bf c0	 movsx	 r8d, ax
  004c4	ba 01 00 00 00	 mov	 edx, 1
  004c9	48 8d 8d 78 08
	00 00		 lea	 rcx, QWORD PTR $T13[rbp]
  004d0	e8 00 00 00 00	 call	 ??0Chain@Rule@GRB@@QEAA@FFZZ ; GRB::Rule::Chain::Chain
  004d5	48 8d 8d e0 17
	00 00		 lea	 rcx, QWORD PTR $T95[rbp]
  004dc	48 8b f9	 mov	 rdi, rcx
  004df	48 8b f0	 mov	 rsi, rax
  004e2	b9 10 00 00 00	 mov	 ecx, 16
  004e7	f3 a4		 rep movsb
  004e9	b1 41		 mov	 cl, 65			; 00000041H
  004eb	e8 00 00 00 00	 call	 ?N@Chain@Rule@GRB@@SAFD@Z ; GRB::Rule::Chain::N
  004f0	48 8d 8d 10 18
	00 00		 lea	 rcx, QWORD PTR $T96[rbp]
  004f7	48 89 4c 24 28	 mov	 QWORD PTR [rsp+40], rcx
  004fc	48 8d 8d e0 17
	00 00		 lea	 rcx, QWORD PTR $T95[rbp]
  00503	48 89 4c 24 20	 mov	 QWORD PTR [rsp+32], rcx
  00508	41 b9 02 00 00
	00		 mov	 r9d, 2
  0050e	41 b8 5e 02 00
	00		 mov	 r8d, 606		; 0000025eH
  00514	0f bf d0	 movsx	 edx, ax
  00517	48 8d 8d 18 08
	00 00		 lea	 rcx, QWORD PTR $T11[rbp]
  0051e	e8 00 00 00 00	 call	 ??0Rule@GRB@@QEAA@FHFUChain@01@ZZ ; GRB::Rule::Rule
  00523	48 8d 8d 50 26
	00 00		 lea	 rcx, QWORD PTR $T170[rbp]
  0052a	48 8b f9	 mov	 rdi, rcx
  0052d	48 8b f0	 mov	 rsi, rax
  00530	b9 18 00 00 00	 mov	 ecx, 24
  00535	f3 a4		 rep movsb
  00537	b1 69		 mov	 cl, 105			; 00000069H
  00539	e8 00 00 00 00	 call	 ?T@Chain@Rule@GRB@@SAFD@Z ; GRB::Rule::Chain::T
  0053e	44 0f bf c0	 movsx	 r8d, ax
  00542	ba 01 00 00 00	 mov	 edx, 1
  00547	48 8d 8d d8 08
	00 00		 lea	 rcx, QWORD PTR $T15[rbp]
  0054e	e8 00 00 00 00	 call	 ??0Chain@Rule@GRB@@QEAA@FFZZ ; GRB::Rule::Chain::Chain
  00553	48 8d 8d 30 19
	00 00		 lea	 rcx, QWORD PTR $T102[rbp]
  0055a	48 8b f9	 mov	 rdi, rcx
  0055d	48 8b f0	 mov	 rsi, rax
  00560	b9 10 00 00 00	 mov	 ecx, 16
  00565	f3 a4		 rep movsb
  00567	b1 6c		 mov	 cl, 108			; 0000006cH
  00569	e8 00 00 00 00	 call	 ?T@Chain@Rule@GRB@@SAFD@Z ; GRB::Rule::Chain::T
  0056e	44 0f bf c0	 movsx	 r8d, ax
  00572	ba 01 00 00 00	 mov	 edx, 1
  00577	48 8d 8d 08 09
	00 00		 lea	 rcx, QWORD PTR $T16[rbp]
  0057e	e8 00 00 00 00	 call	 ??0Chain@Rule@GRB@@QEAA@FFZZ ; GRB::Rule::Chain::Chain
  00583	48 8d 8d 00 19
	00 00		 lea	 rcx, QWORD PTR $T101[rbp]
  0058a	48 8b f9	 mov	 rdi, rcx
  0058d	48 8b f0	 mov	 rsi, rax
  00590	b9 10 00 00 00	 mov	 ecx, 16
  00595	f3 a4		 rep movsb
  00597	b1 57		 mov	 cl, 87			; 00000057H
  00599	e8 00 00 00 00	 call	 ?N@Chain@Rule@GRB@@SAFD@Z ; GRB::Rule::Chain::N
  0059e	98		 cwde
  0059f	89 85 4c 27 00
	00		 mov	 DWORD PTR tv300[rbp], eax
  005a5	b1 2c		 mov	 cl, 44			; 0000002cH
  005a7	e8 00 00 00 00	 call	 ?T@Chain@Rule@GRB@@SAFD@Z ; GRB::Rule::Chain::T
  005ac	98		 cwde
  005ad	89 85 50 27 00
	00		 mov	 DWORD PTR tv304[rbp], eax
  005b3	b1 6c		 mov	 cl, 108			; 0000006cH
  005b5	e8 00 00 00 00	 call	 ?T@Chain@Rule@GRB@@SAFD@Z ; GRB::Rule::Chain::T
  005ba	8b 8d 4c 27 00
	00		 mov	 ecx, DWORD PTR tv300[rbp]
  005c0	89 4c 24 20	 mov	 DWORD PTR [rsp+32], ecx
  005c4	8b 8d 50 27 00
	00		 mov	 ecx, DWORD PTR tv304[rbp]
  005ca	44 8b c9	 mov	 r9d, ecx
  005cd	44 0f bf c0	 movsx	 r8d, ax
  005d1	ba 03 00 00 00	 mov	 edx, 3
  005d6	48 8d 8d 38 09
	00 00		 lea	 rcx, QWORD PTR $T17[rbp]
  005dd	e8 00 00 00 00	 call	 ??0Chain@Rule@GRB@@QEAA@FFZZ ; GRB::Rule::Chain::Chain
  005e2	48 8d 8d d0 18
	00 00		 lea	 rcx, QWORD PTR $T100[rbp]
  005e9	48 8b f9	 mov	 rdi, rcx
  005ec	48 8b f0	 mov	 rsi, rax
  005ef	b9 10 00 00 00	 mov	 ecx, 16
  005f4	f3 a4		 rep movsb
  005f6	b1 57		 mov	 cl, 87			; 00000057H
  005f8	e8 00 00 00 00	 call	 ?N@Chain@Rule@GRB@@SAFD@Z ; GRB::Rule::Chain::N
  005fd	98		 cwde
  005fe	89 85 54 27 00
	00		 mov	 DWORD PTR tv315[rbp], eax
  00604	b1 2c		 mov	 cl, 44			; 0000002cH
  00606	e8 00 00 00 00	 call	 ?T@Chain@Rule@GRB@@SAFD@Z ; GRB::Rule::Chain::T
  0060b	98		 cwde
  0060c	89 85 58 27 00
	00		 mov	 DWORD PTR tv319[rbp], eax
  00612	b1 69		 mov	 cl, 105			; 00000069H
  00614	e8 00 00 00 00	 call	 ?T@Chain@Rule@GRB@@SAFD@Z ; GRB::Rule::Chain::T
  00619	8b 8d 54 27 00
	00		 mov	 ecx, DWORD PTR tv315[rbp]
  0061f	89 4c 24 20	 mov	 DWORD PTR [rsp+32], ecx
  00623	8b 8d 58 27 00
	00		 mov	 ecx, DWORD PTR tv319[rbp]
  00629	44 8b c9	 mov	 r9d, ecx
  0062c	44 0f bf c0	 movsx	 r8d, ax
  00630	ba 03 00 00 00	 mov	 edx, 3
  00635	48 8d 8d 68 09
	00 00		 lea	 rcx, QWORD PTR $T18[rbp]
  0063c	e8 00 00 00 00	 call	 ??0Chain@Rule@GRB@@QEAA@FFZZ ; GRB::Rule::Chain::Chain
  00641	48 8d 8d a0 18
	00 00		 lea	 rcx, QWORD PTR $T99[rbp]
  00648	48 8b f9	 mov	 rdi, rcx
  0064b	48 8b f0	 mov	 rsi, rax
  0064e	b9 10 00 00 00	 mov	 ecx, 16
  00653	f3 a4		 rep movsb
  00655	b1 5d		 mov	 cl, 93			; 0000005dH
  00657	e8 00 00 00 00	 call	 ?T@Chain@Rule@GRB@@SAFD@Z ; GRB::Rule::Chain::T
  0065c	98		 cwde
  0065d	89 85 5c 27 00
	00		 mov	 DWORD PTR tv330[rbp], eax
  00663	b1 45		 mov	 cl, 69			; 00000045H
  00665	e8 00 00 00 00	 call	 ?N@Chain@Rule@GRB@@SAFD@Z ; GRB::Rule::Chain::N
  0066a	98		 cwde
  0066b	89 85 60 27 00
	00		 mov	 DWORD PTR tv334[rbp], eax
  00671	b1 5b		 mov	 cl, 91			; 0000005bH
  00673	e8 00 00 00 00	 call	 ?T@Chain@Rule@GRB@@SAFD@Z ; GRB::Rule::Chain::T
  00678	98		 cwde
  00679	89 85 64 27 00
	00		 mov	 DWORD PTR tv338[rbp], eax
  0067f	b1 69		 mov	 cl, 105			; 00000069H
  00681	e8 00 00 00 00	 call	 ?T@Chain@Rule@GRB@@SAFD@Z ; GRB::Rule::Chain::T
  00686	8b 8d 5c 27 00
	00		 mov	 ecx, DWORD PTR tv330[rbp]
  0068c	89 4c 24 28	 mov	 DWORD PTR [rsp+40], ecx
  00690	8b 8d 60 27 00
	00		 mov	 ecx, DWORD PTR tv334[rbp]
  00696	89 4c 24 20	 mov	 DWORD PTR [rsp+32], ecx
  0069a	8b 8d 64 27 00
	00		 mov	 ecx, DWORD PTR tv338[rbp]
  006a0	44 8b c9	 mov	 r9d, ecx
  006a3	44 0f bf c0	 movsx	 r8d, ax
  006a7	ba 04 00 00 00	 mov	 edx, 4
  006ac	48 8d 8d 98 09
	00 00		 lea	 rcx, QWORD PTR $T19[rbp]
  006b3	e8 00 00 00 00	 call	 ??0Chain@Rule@GRB@@QEAA@FFZZ ; GRB::Rule::Chain::Chain
  006b8	48 8d 8d 70 18
	00 00		 lea	 rcx, QWORD PTR $T98[rbp]
  006bf	48 8b f9	 mov	 rdi, rcx
  006c2	48 8b f0	 mov	 rsi, rax
  006c5	b9 10 00 00 00	 mov	 ecx, 16
  006ca	f3 a4		 rep movsb
  006cc	b1 57		 mov	 cl, 87			; 00000057H
  006ce	e8 00 00 00 00	 call	 ?N@Chain@Rule@GRB@@SAFD@Z ; GRB::Rule::Chain::N
  006d3	98		 cwde
  006d4	89 85 68 27 00
	00		 mov	 DWORD PTR tv349[rbp], eax
  006da	b1 2c		 mov	 cl, 44			; 0000002cH
  006dc	e8 00 00 00 00	 call	 ?T@Chain@Rule@GRB@@SAFD@Z ; GRB::Rule::Chain::T
  006e1	98		 cwde
  006e2	89 85 6c 27 00
	00		 mov	 DWORD PTR tv353[rbp], eax
  006e8	b1 5d		 mov	 cl, 93			; 0000005dH
  006ea	e8 00 00 00 00	 call	 ?T@Chain@Rule@GRB@@SAFD@Z ; GRB::Rule::Chain::T
  006ef	98		 cwde
  006f0	89 85 70 27 00
	00		 mov	 DWORD PTR tv357[rbp], eax
  006f6	b1 45		 mov	 cl, 69			; 00000045H
  006f8	e8 00 00 00 00	 call	 ?N@Chain@Rule@GRB@@SAFD@Z ; GRB::Rule::Chain::N
  006fd	98		 cwde
  006fe	89 85 74 27 00
	00		 mov	 DWORD PTR tv361[rbp], eax
  00704	b1 5b		 mov	 cl, 91			; 0000005bH
  00706	e8 00 00 00 00	 call	 ?T@Chain@Rule@GRB@@SAFD@Z ; GRB::Rule::Chain::T
  0070b	98		 cwde
  0070c	89 85 78 27 00
	00		 mov	 DWORD PTR tv365[rbp], eax
  00712	b1 69		 mov	 cl, 105			; 00000069H
  00714	e8 00 00 00 00	 call	 ?T@Chain@Rule@GRB@@SAFD@Z ; GRB::Rule::Chain::T
  00719	8b 8d 68 27 00
	00		 mov	 ecx, DWORD PTR tv349[rbp]
  0071f	89 4c 24 38	 mov	 DWORD PTR [rsp+56], ecx
  00723	8b 8d 6c 27 00
	00		 mov	 ecx, DWORD PTR tv353[rbp]
  00729	89 4c 24 30	 mov	 DWORD PTR [rsp+48], ecx
  0072d	8b 8d 70 27 00
	00		 mov	 ecx, DWORD PTR tv357[rbp]
  00733	89 4c 24 28	 mov	 DWORD PTR [rsp+40], ecx
  00737	8b 8d 74 27 00
	00		 mov	 ecx, DWORD PTR tv361[rbp]
  0073d	89 4c 24 20	 mov	 DWORD PTR [rsp+32], ecx
  00741	8b 8d 78 27 00
	00		 mov	 ecx, DWORD PTR tv365[rbp]
  00747	44 8b c9	 mov	 r9d, ecx
  0074a	44 0f bf c0	 movsx	 r8d, ax
  0074e	ba 06 00 00 00	 mov	 edx, 6
  00753	48 8d 8d c8 09
	00 00		 lea	 rcx, QWORD PTR $T20[rbp]
  0075a	e8 00 00 00 00	 call	 ??0Chain@Rule@GRB@@QEAA@FFZZ ; GRB::Rule::Chain::Chain
  0075f	48 8d 8d 40 18
	00 00		 lea	 rcx, QWORD PTR $T97[rbp]
  00766	48 8b f9	 mov	 rdi, rcx
  00769	48 8b f0	 mov	 rsi, rax
  0076c	b9 10 00 00 00	 mov	 ecx, 16
  00771	f3 a4		 rep movsb
  00773	b1 57		 mov	 cl, 87			; 00000057H
  00775	e8 00 00 00 00	 call	 ?N@Chain@Rule@GRB@@SAFD@Z ; GRB::Rule::Chain::N
  0077a	48 8d 8d 30 19
	00 00		 lea	 rcx, QWORD PTR $T102[rbp]
  00781	48 89 4c 24 48	 mov	 QWORD PTR [rsp+72], rcx
  00786	48 8d 8d 00 19
	00 00		 lea	 rcx, QWORD PTR $T101[rbp]
  0078d	48 89 4c 24 40	 mov	 QWORD PTR [rsp+64], rcx
  00792	48 8d 8d d0 18
	00 00		 lea	 rcx, QWORD PTR $T100[rbp]
  00799	48 89 4c 24 38	 mov	 QWORD PTR [rsp+56], rcx
  0079e	48 8d 8d a0 18
	00 00		 lea	 rcx, QWORD PTR $T99[rbp]
  007a5	48 89 4c 24 30	 mov	 QWORD PTR [rsp+48], rcx
  007aa	48 8d 8d 70 18
	00 00		 lea	 rcx, QWORD PTR $T98[rbp]
  007b1	48 89 4c 24 28	 mov	 QWORD PTR [rsp+40], rcx
  007b6	48 8d 8d 40 18
	00 00		 lea	 rcx, QWORD PTR $T97[rbp]
  007bd	48 89 4c 24 20	 mov	 QWORD PTR [rsp+32], rcx
  007c2	41 b9 06 00 00
	00		 mov	 r9d, 6
  007c8	41 b8 5d 02 00
	00		 mov	 r8d, 605		; 0000025dH
  007ce	0f bf d0	 movsx	 edx, ax
  007d1	48 8d 8d a8 08
	00 00		 lea	 rcx, QWORD PTR $T14[rbp]
  007d8	e8 00 00 00 00	 call	 ??0Rule@GRB@@QEAA@FHFUChain@01@ZZ ; GRB::Rule::Rule
  007dd	48 8d 8d 10 26
	00 00		 lea	 rcx, QWORD PTR $T169[rbp]
  007e4	48 8b f9	 mov	 rdi, rcx
  007e7	48 8b f0	 mov	 rsi, rax
  007ea	b9 18 00 00 00	 mov	 ecx, 24
  007ef	f3 a4		 rep movsb
  007f1	b1 46		 mov	 cl, 70			; 00000046H
  007f3	e8 00 00 00 00	 call	 ?N@Chain@Rule@GRB@@SAFD@Z ; GRB::Rule::Chain::N
  007f8	98		 cwde
  007f9	89 85 7c 27 00
	00		 mov	 DWORD PTR tv384[rbp], eax
  007ff	b1 2c		 mov	 cl, 44			; 0000002cH
  00801	e8 00 00 00 00	 call	 ?T@Chain@Rule@GRB@@SAFD@Z ; GRB::Rule::Chain::T
  00806	98		 cwde
  00807	89 85 80 27 00
	00		 mov	 DWORD PTR tv388[rbp], eax
  0080d	b1 5d		 mov	 cl, 93			; 0000005dH
  0080f	e8 00 00 00 00	 call	 ?T@Chain@Rule@GRB@@SAFD@Z ; GRB::Rule::Chain::T
  00814	98		 cwde
  00815	89 85 84 27 00
	00		 mov	 DWORD PTR tv392[rbp], eax
  0081b	b1 5b		 mov	 cl, 91			; 0000005bH
  0081d	e8 00 00 00 00	 call	 ?T@Chain@Rule@GRB@@SAFD@Z ; GRB::Rule::Chain::T
  00822	98		 cwde
  00823	89 85 88 27 00
	00		 mov	 DWORD PTR tv396[rbp], eax
  00829	b1 69		 mov	 cl, 105			; 00000069H
  0082b	e8 00 00 00 00	 call	 ?T@Chain@Rule@GRB@@SAFD@Z ; GRB::Rule::Chain::T
  00830	98		 cwde
  00831	89 85 8c 27 00
	00		 mov	 DWORD PTR tv400[rbp], eax
  00837	b1 74		 mov	 cl, 116			; 00000074H
  00839	e8 00 00 00 00	 call	 ?T@Chain@Rule@GRB@@SAFD@Z ; GRB::Rule::Chain::T
  0083e	8b 8d 7c 27 00
	00		 mov	 ecx, DWORD PTR tv384[rbp]
  00844	89 4c 24 38	 mov	 DWORD PTR [rsp+56], ecx
  00848	8b 8d 80 27 00
	00		 mov	 ecx, DWORD PTR tv388[rbp]
  0084e	89 4c 24 30	 mov	 DWORD PTR [rsp+48], ecx
  00852	8b 8d 84 27 00
	00		 mov	 ecx, DWORD PTR tv392[rbp]
  00858	89 4c 24 28	 mov	 DWORD PTR [rsp+40], ecx
  0085c	8b 8d 88 27 00
	00		 mov	 ecx, DWORD PTR tv396[rbp]
  00862	89 4c 24 20	 mov	 DWORD PTR [rsp+32], ecx
  00866	8b 8d 8c 27 00
	00		 mov	 ecx, DWORD PTR tv400[rbp]
  0086c	44 8b c9	 mov	 r9d, ecx
  0086f	44 0f bf c0	 movsx	 r8d, ax
  00873	ba 06 00 00 00	 mov	 edx, 6
  00878	48 8d 8d 28 0a
	00 00		 lea	 rcx, QWORD PTR $T22[rbp]
  0087f	e8 00 00 00 00	 call	 ??0Chain@Rule@GRB@@QEAA@FFZZ ; GRB::Rule::Chain::Chain
  00884	48 8d 8d f0 19
	00 00		 lea	 rcx, QWORD PTR $T106[rbp]
  0088b	48 8b f9	 mov	 rdi, rcx
  0088e	48 8b f0	 mov	 rsi, rax
  00891	b9 10 00 00 00	 mov	 ecx, 16
  00896	f3 a4		 rep movsb
  00898	b1 46		 mov	 cl, 70			; 00000046H
  0089a	e8 00 00 00 00	 call	 ?N@Chain@Rule@GRB@@SAFD@Z ; GRB::Rule::Chain::N
  0089f	98		 cwde
  008a0	89 85 90 27 00
	00		 mov	 DWORD PTR tv411[rbp], eax
  008a6	b1 2c		 mov	 cl, 44			; 0000002cH
  008a8	e8 00 00 00 00	 call	 ?T@Chain@Rule@GRB@@SAFD@Z ; GRB::Rule::Chain::T
  008ad	98		 cwde
  008ae	89 85 94 27 00
	00		 mov	 DWORD PTR tv415[rbp], eax
  008b4	b1 69		 mov	 cl, 105			; 00000069H
  008b6	e8 00 00 00 00	 call	 ?T@Chain@Rule@GRB@@SAFD@Z ; GRB::Rule::Chain::T
  008bb	98		 cwde
  008bc	89 85 98 27 00
	00		 mov	 DWORD PTR tv419[rbp], eax
  008c2	b1 74		 mov	 cl, 116			; 00000074H
  008c4	e8 00 00 00 00	 call	 ?T@Chain@Rule@GRB@@SAFD@Z ; GRB::Rule::Chain::T
  008c9	8b 8d 90 27 00
	00		 mov	 ecx, DWORD PTR tv411[rbp]
  008cf	89 4c 24 28	 mov	 DWORD PTR [rsp+40], ecx
  008d3	8b 8d 94 27 00
	00		 mov	 ecx, DWORD PTR tv415[rbp]
  008d9	89 4c 24 20	 mov	 DWORD PTR [rsp+32], ecx
  008dd	8b 8d 98 27 00
	00		 mov	 ecx, DWORD PTR tv419[rbp]
  008e3	44 8b c9	 mov	 r9d, ecx
  008e6	44 0f bf c0	 movsx	 r8d, ax
  008ea	ba 04 00 00 00	 mov	 edx, 4
  008ef	48 8d 8d 58 0a
	00 00		 lea	 rcx, QWORD PTR $T23[rbp]
  008f6	e8 00 00 00 00	 call	 ??0Chain@Rule@GRB@@QEAA@FFZZ ; GRB::Rule::Chain::Chain
  008fb	48 8d 8d c0 19
	00 00		 lea	 rcx, QWORD PTR $T105[rbp]
  00902	48 8b f9	 mov	 rdi, rcx
  00905	48 8b f0	 mov	 rsi, rax
  00908	b9 10 00 00 00	 mov	 ecx, 16
  0090d	f3 a4		 rep movsb
  0090f	b1 5d		 mov	 cl, 93			; 0000005dH
  00911	e8 00 00 00 00	 call	 ?T@Chain@Rule@GRB@@SAFD@Z ; GRB::Rule::Chain::T
  00916	98		 cwde
  00917	89 85 9c 27 00
	00		 mov	 DWORD PTR tv430[rbp], eax
  0091d	b1 5b		 mov	 cl, 91			; 0000005bH
  0091f	e8 00 00 00 00	 call	 ?T@Chain@Rule@GRB@@SAFD@Z ; GRB::Rule::Chain::T
  00924	98		 cwde
  00925	89 85 a0 27 00
	00		 mov	 DWORD PTR tv434[rbp], eax
  0092b	b1 69		 mov	 cl, 105			; 00000069H
  0092d	e8 00 00 00 00	 call	 ?T@Chain@Rule@GRB@@SAFD@Z ; GRB::Rule::Chain::T
  00932	98		 cwde
  00933	89 85 a4 27 00
	00		 mov	 DWORD PTR tv438[rbp], eax
  00939	b1 74		 mov	 cl, 116			; 00000074H
  0093b	e8 00 00 00 00	 call	 ?T@Chain@Rule@GRB@@SAFD@Z ; GRB::Rule::Chain::T
  00940	8b 8d 9c 27 00
	00		 mov	 ecx, DWORD PTR tv430[rbp]
  00946	89 4c 24 28	 mov	 DWORD PTR [rsp+40], ecx
  0094a	8b 8d a0 27 00
	00		 mov	 ecx, DWORD PTR tv434[rbp]
  00950	89 4c 24 20	 mov	 DWORD PTR [rsp+32], ecx
  00954	8b 8d a4 27 00
	00		 mov	 ecx, DWORD PTR tv438[rbp]
  0095a	44 8b c9	 mov	 r9d, ecx
  0095d	44 0f bf c0	 movsx	 r8d, ax
  00961	ba 04 00 00 00	 mov	 edx, 4
  00966	48 8d 8d 88 0a
	00 00		 lea	 rcx, QWORD PTR $T24[rbp]
  0096d	e8 00 00 00 00	 call	 ??0Chain@Rule@GRB@@QEAA@FFZZ ; GRB::Rule::Chain::Chain
  00972	48 8d 8d 90 19
	00 00		 lea	 rcx, QWORD PTR $T104[rbp]
  00979	48 8b f9	 mov	 rdi, rcx
  0097c	48 8b f0	 mov	 rsi, rax
  0097f	b9 10 00 00 00	 mov	 ecx, 16
  00984	f3 a4		 rep movsb
  00986	b1 69		 mov	 cl, 105			; 00000069H
  00988	e8 00 00 00 00	 call	 ?T@Chain@Rule@GRB@@SAFD@Z ; GRB::Rule::Chain::T
  0098d	98		 cwde
  0098e	89 85 a8 27 00
	00		 mov	 DWORD PTR tv449[rbp], eax
  00994	b1 74		 mov	 cl, 116			; 00000074H
  00996	e8 00 00 00 00	 call	 ?T@Chain@Rule@GRB@@SAFD@Z ; GRB::Rule::Chain::T
  0099b	8b 8d a8 27 00
	00		 mov	 ecx, DWORD PTR tv449[rbp]
  009a1	44 8b c9	 mov	 r9d, ecx
  009a4	44 0f bf c0	 movsx	 r8d, ax
  009a8	ba 02 00 00 00	 mov	 edx, 2
  009ad	48 8d 8d b8 0a
	00 00		 lea	 rcx, QWORD PTR $T25[rbp]
  009b4	e8 00 00 00 00	 call	 ??0Chain@Rule@GRB@@QEAA@FFZZ ; GRB::Rule::Chain::Chain
  009b9	48 8d 8d 60 19
	00 00		 lea	 rcx, QWORD PTR $T103[rbp]
  009c0	48 8b f9	 mov	 rdi, rcx
  009c3	48 8b f0	 mov	 rsi, rax
  009c6	b9 10 00 00 00	 mov	 ecx, 16
  009cb	f3 a4		 rep movsb
  009cd	b1 46		 mov	 cl, 70			; 00000046H
  009cf	e8 00 00 00 00	 call	 ?N@Chain@Rule@GRB@@SAFD@Z ; GRB::Rule::Chain::N
  009d4	48 8d 8d f0 19
	00 00		 lea	 rcx, QWORD PTR $T106[rbp]
  009db	48 89 4c 24 38	 mov	 QWORD PTR [rsp+56], rcx
  009e0	48 8d 8d c0 19
	00 00		 lea	 rcx, QWORD PTR $T105[rbp]
  009e7	48 89 4c 24 30	 mov	 QWORD PTR [rsp+48], rcx
  009ec	48 8d 8d 90 19
	00 00		 lea	 rcx, QWORD PTR $T104[rbp]
  009f3	48 89 4c 24 28	 mov	 QWORD PTR [rsp+40], rcx
  009f8	48 8d 8d 60 19
	00 00		 lea	 rcx, QWORD PTR $T103[rbp]
  009ff	48 89 4c 24 20	 mov	 QWORD PTR [rsp+32], rcx
  00a04	41 b9 04 00 00
	00		 mov	 r9d, 4
  00a0a	41 b8 5c 02 00
	00		 mov	 r8d, 604		; 0000025cH
  00a10	0f bf d0	 movsx	 edx, ax
  00a13	48 8d 8d f8 09
	00 00		 lea	 rcx, QWORD PTR $T21[rbp]
  00a1a	e8 00 00 00 00	 call	 ??0Rule@GRB@@QEAA@FHFUChain@01@ZZ ; GRB::Rule::Rule
  00a1f	48 8d 8d d0 25
	00 00		 lea	 rcx, QWORD PTR $T168[rbp]
  00a26	48 8b f9	 mov	 rdi, rcx
  00a29	48 8b f0	 mov	 rsi, rax
  00a2c	b9 18 00 00 00	 mov	 ecx, 24
  00a31	f3 a4		 rep movsb
  00a33	b1 4d		 mov	 cl, 77			; 0000004dH
  00a35	e8 00 00 00 00	 call	 ?N@Chain@Rule@GRB@@SAFD@Z ; GRB::Rule::Chain::N
  00a3a	98		 cwde
  00a3b	89 85 ac 27 00
	00		 mov	 DWORD PTR tv468[rbp], eax
  00a41	b1 45		 mov	 cl, 69			; 00000045H
  00a43	e8 00 00 00 00	 call	 ?N@Chain@Rule@GRB@@SAFD@Z ; GRB::Rule::Chain::N
  00a48	98		 cwde
  00a49	89 85 b0 27 00
	00		 mov	 DWORD PTR tv472[rbp], eax
  00a4f	b1 76		 mov	 cl, 118			; 00000076H
  00a51	e8 00 00 00 00	 call	 ?T@Chain@Rule@GRB@@SAFD@Z ; GRB::Rule::Chain::T
  00a56	8b 8d ac 27 00
	00		 mov	 ecx, DWORD PTR tv468[rbp]
  00a5c	89 4c 24 20	 mov	 DWORD PTR [rsp+32], ecx
  00a60	8b 8d b0 27 00
	00		 mov	 ecx, DWORD PTR tv472[rbp]
  00a66	44 8b c9	 mov	 r9d, ecx
  00a69	44 0f bf c0	 movsx	 r8d, ax
  00a6d	ba 03 00 00 00	 mov	 edx, 3
  00a72	48 8d 8d 18 0b
	00 00		 lea	 rcx, QWORD PTR $T27[rbp]
  00a79	e8 00 00 00 00	 call	 ??0Chain@Rule@GRB@@QEAA@FFZZ ; GRB::Rule::Chain::Chain
  00a7e	48 8d 8d 50 1a
	00 00		 lea	 rcx, QWORD PTR $T108[rbp]
  00a85	48 8b f9	 mov	 rdi, rcx
  00a88	48 8b f0	 mov	 rsi, rax
  00a8b	b9 10 00 00 00	 mov	 ecx, 16
  00a90	f3 a4		 rep movsb
  00a92	b1 45		 mov	 cl, 69			; 00000045H
  00a94	e8 00 00 00 00	 call	 ?N@Chain@Rule@GRB@@SAFD@Z ; GRB::Rule::Chain::N
  00a99	98		 cwde
  00a9a	89 85 b4 27 00
	00		 mov	 DWORD PTR tv483[rbp], eax
  00aa0	b1 76		 mov	 cl, 118			; 00000076H
  00aa2	e8 00 00 00 00	 call	 ?T@Chain@Rule@GRB@@SAFD@Z ; GRB::Rule::Chain::T
  00aa7	8b 8d b4 27 00
	00		 mov	 ecx, DWORD PTR tv483[rbp]
  00aad	44 8b c9	 mov	 r9d, ecx
  00ab0	44 0f bf c0	 movsx	 r8d, ax
  00ab4	ba 02 00 00 00	 mov	 edx, 2
  00ab9	48 8d 8d 48 0b
	00 00		 lea	 rcx, QWORD PTR $T28[rbp]
  00ac0	e8 00 00 00 00	 call	 ??0Chain@Rule@GRB@@QEAA@FFZZ ; GRB::Rule::Chain::Chain
  00ac5	48 8d 8d 20 1a
	00 00		 lea	 rcx, QWORD PTR $T107[rbp]
  00acc	48 8b f9	 mov	 rdi, rcx
  00acf	48 8b f0	 mov	 rsi, rax
  00ad2	b9 10 00 00 00	 mov	 ecx, 16
  00ad7	f3 a4		 rep movsb
  00ad9	b1 4d		 mov	 cl, 77			; 0000004dH
  00adb	e8 00 00 00 00	 call	 ?N@Chain@Rule@GRB@@SAFD@Z ; GRB::Rule::Chain::N
  00ae0	48 8d 8d 50 1a
	00 00		 lea	 rcx, QWORD PTR $T108[rbp]
  00ae7	48 89 4c 24 28	 mov	 QWORD PTR [rsp+40], rcx
  00aec	48 8d 8d 20 1a
	00 00		 lea	 rcx, QWORD PTR $T107[rbp]
  00af3	48 89 4c 24 20	 mov	 QWORD PTR [rsp+32], rcx
  00af8	41 b9 02 00 00
	00		 mov	 r9d, 2
  00afe	41 b8 5b 02 00
	00		 mov	 r8d, 603		; 0000025bH
  00b04	0f bf d0	 movsx	 edx, ax
  00b07	48 8d 8d e8 0a
	00 00		 lea	 rcx, QWORD PTR $T26[rbp]
  00b0e	e8 00 00 00 00	 call	 ??0Rule@GRB@@QEAA@FHFUChain@01@ZZ ; GRB::Rule::Rule
  00b13	48 8d 8d 90 25
	00 00		 lea	 rcx, QWORD PTR $T167[rbp]
  00b1a	48 8b f9	 mov	 rdi, rcx
  00b1d	48 8b f0	 mov	 rsi, rax
  00b20	b9 18 00 00 00	 mov	 ecx, 24
  00b25	f3 a4		 rep movsb
  00b27	b1 4d		 mov	 cl, 77			; 0000004dH
  00b29	e8 00 00 00 00	 call	 ?N@Chain@Rule@GRB@@SAFD@Z ; GRB::Rule::Chain::N
  00b2e	98		 cwde
  00b2f	89 85 b8 27 00
	00		 mov	 DWORD PTR tv502[rbp], eax
  00b35	b1 2c		 mov	 cl, 44			; 0000002cH
  00b37	e8 00 00 00 00	 call	 ?T@Chain@Rule@GRB@@SAFD@Z ; GRB::Rule::Chain::T
  00b3c	98		 cwde
  00b3d	89 85 bc 27 00
	00		 mov	 DWORD PTR tv506[rbp], eax
  00b43	b1 5d		 mov	 cl, 93			; 0000005dH
  00b45	e8 00 00 00 00	 call	 ?T@Chain@Rule@GRB@@SAFD@Z ; GRB::Rule::Chain::T
  00b4a	98		 cwde
  00b4b	89 85 c0 27 00
	00		 mov	 DWORD PTR tv510[rbp], eax
  00b51	b1 45		 mov	 cl, 69			; 00000045H
  00b53	e8 00 00 00 00	 call	 ?N@Chain@Rule@GRB@@SAFD@Z ; GRB::Rule::Chain::N
  00b58	98		 cwde
  00b59	89 85 c4 27 00
	00		 mov	 DWORD PTR tv514[rbp], eax
  00b5f	b1 5b		 mov	 cl, 91			; 0000005bH
  00b61	e8 00 00 00 00	 call	 ?T@Chain@Rule@GRB@@SAFD@Z ; GRB::Rule::Chain::T
  00b66	98		 cwde
  00b67	89 85 c8 27 00
	00		 mov	 DWORD PTR tv518[rbp], eax
  00b6d	b1 69		 mov	 cl, 105			; 00000069H
  00b6f	e8 00 00 00 00	 call	 ?T@Chain@Rule@GRB@@SAFD@Z ; GRB::Rule::Chain::T
  00b74	8b 8d b8 27 00
	00		 mov	 ecx, DWORD PTR tv502[rbp]
  00b7a	89 4c 24 38	 mov	 DWORD PTR [rsp+56], ecx
  00b7e	8b 8d bc 27 00
	00		 mov	 ecx, DWORD PTR tv506[rbp]
  00b84	89 4c 24 30	 mov	 DWORD PTR [rsp+48], ecx
  00b88	8b 8d c0 27 00
	00		 mov	 ecx, DWORD PTR tv510[rbp]
  00b8e	89 4c 24 28	 mov	 DWORD PTR [rsp+40], ecx
  00b92	8b 8d c4 27 00
	00		 mov	 ecx, DWORD PTR tv514[rbp]
  00b98	89 4c 24 20	 mov	 DWORD PTR [rsp+32], ecx
  00b9c	8b 8d c8 27 00
	00		 mov	 ecx, DWORD PTR tv518[rbp]
  00ba2	44 8b c9	 mov	 r9d, ecx
  00ba5	44 0f bf c0	 movsx	 r8d, ax
  00ba9	ba 06 00 00 00	 mov	 edx, 6
  00bae	48 8d 8d a8 0b
	00 00		 lea	 rcx, QWORD PTR $T30[rbp]
  00bb5	e8 00 00 00 00	 call	 ??0Chain@Rule@GRB@@QEAA@FFZZ ; GRB::Rule::Chain::Chain
  00bba	48 8d 8d 40 1e
	00 00		 lea	 rcx, QWORD PTR $T129[rbp]
  00bc1	48 8b f9	 mov	 rdi, rcx
  00bc4	48 8b f0	 mov	 rsi, rax
  00bc7	b9 10 00 00 00	 mov	 ecx, 16
  00bcc	f3 a4		 rep movsb
  00bce	b1 4d		 mov	 cl, 77			; 0000004dH
  00bd0	e8 00 00 00 00	 call	 ?N@Chain@Rule@GRB@@SAFD@Z ; GRB::Rule::Chain::N
  00bd5	98		 cwde
  00bd6	89 85 cc 27 00
	00		 mov	 DWORD PTR tv529[rbp], eax
  00bdc	b1 5d		 mov	 cl, 93			; 0000005dH
  00bde	e8 00 00 00 00	 call	 ?T@Chain@Rule@GRB@@SAFD@Z ; GRB::Rule::Chain::T
  00be3	98		 cwde
  00be4	89 85 d0 27 00
	00		 mov	 DWORD PTR tv533[rbp], eax
  00bea	b1 45		 mov	 cl, 69			; 00000045H
  00bec	e8 00 00 00 00	 call	 ?N@Chain@Rule@GRB@@SAFD@Z ; GRB::Rule::Chain::N
  00bf1	98		 cwde
  00bf2	89 85 d4 27 00
	00		 mov	 DWORD PTR tv537[rbp], eax
  00bf8	b1 5b		 mov	 cl, 91			; 0000005bH
  00bfa	e8 00 00 00 00	 call	 ?T@Chain@Rule@GRB@@SAFD@Z ; GRB::Rule::Chain::T
  00bff	98		 cwde
  00c00	89 85 d8 27 00
	00		 mov	 DWORD PTR tv541[rbp], eax
  00c06	b1 69		 mov	 cl, 105			; 00000069H
  00c08	e8 00 00 00 00	 call	 ?T@Chain@Rule@GRB@@SAFD@Z ; GRB::Rule::Chain::T
  00c0d	8b 8d cc 27 00
	00		 mov	 ecx, DWORD PTR tv529[rbp]
  00c13	89 4c 24 30	 mov	 DWORD PTR [rsp+48], ecx
  00c17	8b 8d d0 27 00
	00		 mov	 ecx, DWORD PTR tv533[rbp]
  00c1d	89 4c 24 28	 mov	 DWORD PTR [rsp+40], ecx
  00c21	8b 8d d4 27 00
	00		 mov	 ecx, DWORD PTR tv537[rbp]
  00c27	89 4c 24 20	 mov	 DWORD PTR [rsp+32], ecx
  00c2b	8b 8d d8 27 00
	00		 mov	 ecx, DWORD PTR tv541[rbp]
  00c31	44 8b c9	 mov	 r9d, ecx
  00c34	44 0f bf c0	 movsx	 r8d, ax
  00c38	ba 05 00 00 00	 mov	 edx, 5
  00c3d	48 8d 8d d8 0b
	00 00		 lea	 rcx, QWORD PTR $T31[rbp]
  00c44	e8 00 00 00 00	 call	 ??0Chain@Rule@GRB@@QEAA@FFZZ ; GRB::Rule::Chain::Chain
  00c49	48 8d 8d 10 1e
	00 00		 lea	 rcx, QWORD PTR $T128[rbp]
  00c50	48 8b f9	 mov	 rdi, rcx
  00c53	48 8b f0	 mov	 rsi, rax
  00c56	b9 10 00 00 00	 mov	 ecx, 16
  00c5b	f3 a4		 rep movsb
  00c5d	b1 45		 mov	 cl, 69			; 00000045H
  00c5f	e8 00 00 00 00	 call	 ?N@Chain@Rule@GRB@@SAFD@Z ; GRB::Rule::Chain::N
  00c64	98		 cwde
  00c65	89 85 dc 27 00
	00		 mov	 DWORD PTR tv552[rbp], eax
  00c6b	b1 2c		 mov	 cl, 44			; 0000002cH
  00c6d	e8 00 00 00 00	 call	 ?T@Chain@Rule@GRB@@SAFD@Z ; GRB::Rule::Chain::T
  00c72	98		 cwde
  00c73	89 85 e0 27 00
	00		 mov	 DWORD PTR tv556[rbp], eax
  00c79	b1 5d		 mov	 cl, 93			; 0000005dH
  00c7b	e8 00 00 00 00	 call	 ?T@Chain@Rule@GRB@@SAFD@Z ; GRB::Rule::Chain::T
  00c80	98		 cwde
  00c81	89 85 e4 27 00
	00		 mov	 DWORD PTR tv560[rbp], eax
  00c87	b1 45		 mov	 cl, 69			; 00000045H
  00c89	e8 00 00 00 00	 call	 ?N@Chain@Rule@GRB@@SAFD@Z ; GRB::Rule::Chain::N
  00c8e	98		 cwde
  00c8f	89 85 e8 27 00
	00		 mov	 DWORD PTR tv564[rbp], eax
  00c95	b1 5b		 mov	 cl, 91			; 0000005bH
  00c97	e8 00 00 00 00	 call	 ?T@Chain@Rule@GRB@@SAFD@Z ; GRB::Rule::Chain::T
  00c9c	98		 cwde
  00c9d	89 85 ec 27 00
	00		 mov	 DWORD PTR tv568[rbp], eax
  00ca3	b1 69		 mov	 cl, 105			; 00000069H
  00ca5	e8 00 00 00 00	 call	 ?T@Chain@Rule@GRB@@SAFD@Z ; GRB::Rule::Chain::T
  00caa	8b 8d dc 27 00
	00		 mov	 ecx, DWORD PTR tv552[rbp]
  00cb0	89 4c 24 38	 mov	 DWORD PTR [rsp+56], ecx
  00cb4	8b 8d e0 27 00
	00		 mov	 ecx, DWORD PTR tv556[rbp]
  00cba	89 4c 24 30	 mov	 DWORD PTR [rsp+48], ecx
  00cbe	8b 8d e4 27 00
	00		 mov	 ecx, DWORD PTR tv560[rbp]
  00cc4	89 4c 24 28	 mov	 DWORD PTR [rsp+40], ecx
  00cc8	8b 8d e8 27 00
	00		 mov	 ecx, DWORD PTR tv564[rbp]
  00cce	89 4c 24 20	 mov	 DWORD PTR [rsp+32], ecx
  00cd2	8b 8d ec 27 00
	00		 mov	 ecx, DWORD PTR tv568[rbp]
  00cd8	44 8b c9	 mov	 r9d, ecx
  00cdb	44 0f bf c0	 movsx	 r8d, ax
  00cdf	ba 06 00 00 00	 mov	 edx, 6
  00ce4	48 8d 8d 08 0c
	00 00		 lea	 rcx, QWORD PTR $T32[rbp]
  00ceb	e8 00 00 00 00	 call	 ??0Chain@Rule@GRB@@QEAA@FFZZ ; GRB::Rule::Chain::Chain
  00cf0	48 8d 8d e0 1d
	00 00		 lea	 rcx, QWORD PTR $T127[rbp]
  00cf7	48 8b f9	 mov	 rdi, rcx
  00cfa	48 8b f0	 mov	 rsi, rax
  00cfd	b9 10 00 00 00	 mov	 ecx, 16
  00d02	f3 a4		 rep movsb
  00d04	b1 4d		 mov	 cl, 77			; 0000004dH
  00d06	e8 00 00 00 00	 call	 ?N@Chain@Rule@GRB@@SAFD@Z ; GRB::Rule::Chain::N
  00d0b	98		 cwde
  00d0c	89 85 f0 27 00
	00		 mov	 DWORD PTR tv611[rbp], eax
  00d12	b1 29		 mov	 cl, 41			; 00000029H
  00d14	e8 00 00 00 00	 call	 ?T@Chain@Rule@GRB@@SAFD@Z ; GRB::Rule::Chain::T
  00d19	98		 cwde
  00d1a	89 85 f4 27 00
	00		 mov	 DWORD PTR tv615[rbp], eax
  00d20	b1 57		 mov	 cl, 87			; 00000057H
  00d22	e8 00 00 00 00	 call	 ?N@Chain@Rule@GRB@@SAFD@Z ; GRB::Rule::Chain::N
  00d27	98		 cwde
  00d28	89 85 f8 27 00
	00		 mov	 DWORD PTR tv619[rbp], eax
  00d2e	b1 28		 mov	 cl, 40			; 00000028H
  00d30	e8 00 00 00 00	 call	 ?T@Chain@Rule@GRB@@SAFD@Z ; GRB::Rule::Chain::T
  00d35	98		 cwde
  00d36	89 85 fc 27 00
	00		 mov	 DWORD PTR tv623[rbp], eax
  00d3c	b1 69		 mov	 cl, 105			; 00000069H
  00d3e	e8 00 00 00 00	 call	 ?T@Chain@Rule@GRB@@SAFD@Z ; GRB::Rule::Chain::T
  00d43	8b 8d f0 27 00
	00		 mov	 ecx, DWORD PTR tv611[rbp]
  00d49	89 4c 24 30	 mov	 DWORD PTR [rsp+48], ecx
  00d4d	8b 8d f4 27 00
	00		 mov	 ecx, DWORD PTR tv615[rbp]
  00d53	89 4c 24 28	 mov	 DWORD PTR [rsp+40], ecx
  00d57	8b 8d f8 27 00
	00		 mov	 ecx, DWORD PTR tv619[rbp]
  00d5d	89 4c 24 20	 mov	 DWORD PTR [rsp+32], ecx
  00d61	8b 8d fc 27 00
	00		 mov	 ecx, DWORD PTR tv623[rbp]
  00d67	44 8b c9	 mov	 r9d, ecx
  00d6a	44 0f bf c0	 movsx	 r8d, ax
  00d6e	ba 05 00 00 00	 mov	 edx, 5
  00d73	48 8d 8d 38 0c
	00 00		 lea	 rcx, QWORD PTR $T33[rbp]
  00d7a	e8 00 00 00 00	 call	 ??0Chain@Rule@GRB@@QEAA@FFZZ ; GRB::Rule::Chain::Chain
  00d7f	48 8d 8d b0 1d
	00 00		 lea	 rcx, QWORD PTR $T126[rbp]
  00d86	48 8b f9	 mov	 rdi, rcx
  00d89	48 8b f0	 mov	 rsi, rax
  00d8c	b9 10 00 00 00	 mov	 ecx, 16
  00d91	f3 a4		 rep movsb
  00d93	b1 4d		 mov	 cl, 77			; 0000004dH
  00d95	e8 00 00 00 00	 call	 ?N@Chain@Rule@GRB@@SAFD@Z ; GRB::Rule::Chain::N
  00d9a	98		 cwde
  00d9b	89 85 00 28 00
	00		 mov	 DWORD PTR tv634[rbp], eax
  00da1	b1 29		 mov	 cl, 41			; 00000029H
  00da3	e8 00 00 00 00	 call	 ?T@Chain@Rule@GRB@@SAFD@Z ; GRB::Rule::Chain::T
  00da8	98		 cwde
  00da9	89 85 04 28 00
	00		 mov	 DWORD PTR tv638[rbp], eax
  00daf	b1 45		 mov	 cl, 69			; 00000045H
  00db1	e8 00 00 00 00	 call	 ?N@Chain@Rule@GRB@@SAFD@Z ; GRB::Rule::Chain::N
  00db6	98		 cwde
  00db7	89 85 08 28 00
	00		 mov	 DWORD PTR tv642[rbp], eax
  00dbd	b1 28		 mov	 cl, 40			; 00000028H
  00dbf	e8 00 00 00 00	 call	 ?T@Chain@Rule@GRB@@SAFD@Z ; GRB::Rule::Chain::T
  00dc4	98		 cwde
  00dc5	89 85 0c 28 00
	00		 mov	 DWORD PTR tv646[rbp], eax
  00dcb	b1 69		 mov	 cl, 105			; 00000069H
  00dcd	e8 00 00 00 00	 call	 ?T@Chain@Rule@GRB@@SAFD@Z ; GRB::Rule::Chain::T
  00dd2	8b 8d 00 28 00
	00		 mov	 ecx, DWORD PTR tv634[rbp]
  00dd8	89 4c 24 30	 mov	 DWORD PTR [rsp+48], ecx
  00ddc	8b 8d 04 28 00
	00		 mov	 ecx, DWORD PTR tv638[rbp]
  00de2	89 4c 24 28	 mov	 DWORD PTR [rsp+40], ecx
  00de6	8b 8d 08 28 00
	00		 mov	 ecx, DWORD PTR tv642[rbp]
  00dec	89 4c 24 20	 mov	 DWORD PTR [rsp+32], ecx
  00df0	8b 8d 0c 28 00
	00		 mov	 ecx, DWORD PTR tv646[rbp]
  00df6	44 8b c9	 mov	 r9d, ecx
  00df9	44 0f bf c0	 movsx	 r8d, ax
  00dfd	ba 05 00 00 00	 mov	 edx, 5
  00e02	48 8d 8d 68 0c
	00 00		 lea	 rcx, QWORD PTR $T34[rbp]
  00e09	e8 00 00 00 00	 call	 ??0Chain@Rule@GRB@@QEAA@FFZZ ; GRB::Rule::Chain::Chain
  00e0e	48 8d 8d 80 1d
	00 00		 lea	 rcx, QWORD PTR $T125[rbp]
  00e15	48 8b f9	 mov	 rdi, rcx
  00e18	48 8b f0	 mov	 rsi, rax
  00e1b	b9 10 00 00 00	 mov	 ecx, 16
  00e20	f3 a4		 rep movsb
  00e22	b1 4e		 mov	 cl, 78			; 0000004eH
  00e24	e8 00 00 00 00	 call	 ?N@Chain@Rule@GRB@@SAFD@Z ; GRB::Rule::Chain::N
  00e29	98		 cwde
  00e2a	89 85 10 28 00
	00		 mov	 DWORD PTR tv657[rbp], eax
  00e30	b1 29		 mov	 cl, 41			; 00000029H
  00e32	e8 00 00 00 00	 call	 ?T@Chain@Rule@GRB@@SAFD@Z ; GRB::Rule::Chain::T
  00e37	98		 cwde
  00e38	89 85 14 28 00
	00		 mov	 DWORD PTR tv661[rbp], eax
  00e3e	b1 45		 mov	 cl, 69			; 00000045H
  00e40	e8 00 00 00 00	 call	 ?N@Chain@Rule@GRB@@SAFD@Z ; GRB::Rule::Chain::N
  00e45	98		 cwde
  00e46	89 85 18 28 00
	00		 mov	 DWORD PTR tv665[rbp], eax
  00e4c	b1 28		 mov	 cl, 40			; 00000028H
  00e4e	e8 00 00 00 00	 call	 ?T@Chain@Rule@GRB@@SAFD@Z ; GRB::Rule::Chain::T
  00e53	98		 cwde
  00e54	89 85 1c 28 00
	00		 mov	 DWORD PTR tv669[rbp], eax
  00e5a	b1 69		 mov	 cl, 105			; 00000069H
  00e5c	e8 00 00 00 00	 call	 ?T@Chain@Rule@GRB@@SAFD@Z ; GRB::Rule::Chain::T
  00e61	8b 8d 10 28 00
	00		 mov	 ecx, DWORD PTR tv657[rbp]
  00e67	89 4c 24 30	 mov	 DWORD PTR [rsp+48], ecx
  00e6b	8b 8d 14 28 00
	00		 mov	 ecx, DWORD PTR tv661[rbp]
  00e71	89 4c 24 28	 mov	 DWORD PTR [rsp+40], ecx
  00e75	8b 8d 18 28 00
	00		 mov	 ecx, DWORD PTR tv665[rbp]
  00e7b	89 4c 24 20	 mov	 DWORD PTR [rsp+32], ecx
  00e7f	8b 8d 1c 28 00
	00		 mov	 ecx, DWORD PTR tv669[rbp]
  00e85	44 8b c9	 mov	 r9d, ecx
  00e88	44 0f bf c0	 movsx	 r8d, ax
  00e8c	ba 05 00 00 00	 mov	 edx, 5
  00e91	48 8d 8d 98 0c
	00 00		 lea	 rcx, QWORD PTR $T35[rbp]
  00e98	e8 00 00 00 00	 call	 ??0Chain@Rule@GRB@@QEAA@FFZZ ; GRB::Rule::Chain::Chain
  00e9d	48 8d 8d 50 1d
	00 00		 lea	 rcx, QWORD PTR $T124[rbp]
  00ea4	48 8b f9	 mov	 rdi, rcx
  00ea7	48 8b f0	 mov	 rsi, rax
  00eaa	b9 10 00 00 00	 mov	 ecx, 16
  00eaf	f3 a4		 rep movsb
  00eb1	b1 4d		 mov	 cl, 77			; 0000004dH
  00eb3	e8 00 00 00 00	 call	 ?N@Chain@Rule@GRB@@SAFD@Z ; GRB::Rule::Chain::N
  00eb8	98		 cwde
  00eb9	89 85 20 28 00
	00		 mov	 DWORD PTR tv680[rbp], eax
  00ebf	b1 29		 mov	 cl, 41			; 00000029H
  00ec1	e8 00 00 00 00	 call	 ?T@Chain@Rule@GRB@@SAFD@Z ; GRB::Rule::Chain::T
  00ec6	98		 cwde
  00ec7	89 85 24 28 00
	00		 mov	 DWORD PTR tv684[rbp], eax
  00ecd	b1 45		 mov	 cl, 69			; 00000045H
  00ecf	e8 00 00 00 00	 call	 ?N@Chain@Rule@GRB@@SAFD@Z ; GRB::Rule::Chain::N
  00ed4	98		 cwde
  00ed5	89 85 28 28 00
	00		 mov	 DWORD PTR tv688[rbp], eax
  00edb	b1 28		 mov	 cl, 40			; 00000028H
  00edd	e8 00 00 00 00	 call	 ?T@Chain@Rule@GRB@@SAFD@Z ; GRB::Rule::Chain::T
  00ee2	8b 8d 20 28 00
	00		 mov	 ecx, DWORD PTR tv680[rbp]
  00ee8	89 4c 24 28	 mov	 DWORD PTR [rsp+40], ecx
  00eec	8b 8d 24 28 00
	00		 mov	 ecx, DWORD PTR tv684[rbp]
  00ef2	89 4c 24 20	 mov	 DWORD PTR [rsp+32], ecx
  00ef6	8b 8d 28 28 00
	00		 mov	 ecx, DWORD PTR tv688[rbp]
  00efc	44 8b c9	 mov	 r9d, ecx
  00eff	44 0f bf c0	 movsx	 r8d, ax
  00f03	ba 04 00 00 00	 mov	 edx, 4
  00f08	48 8d 8d c8 0c
	00 00		 lea	 rcx, QWORD PTR $T36[rbp]
  00f0f	e8 00 00 00 00	 call	 ??0Chain@Rule@GRB@@QEAA@FFZZ ; GRB::Rule::Chain::Chain
  00f14	48 8d 8d 20 1d
	00 00		 lea	 rcx, QWORD PTR $T123[rbp]
  00f1b	48 8b f9	 mov	 rdi, rcx
  00f1e	48 8b f0	 mov	 rsi, rax
  00f21	b9 10 00 00 00	 mov	 ecx, 16
  00f26	f3 a4		 rep movsb
  00f28	b1 5d		 mov	 cl, 93			; 0000005dH
  00f2a	e8 00 00 00 00	 call	 ?T@Chain@Rule@GRB@@SAFD@Z ; GRB::Rule::Chain::T
  00f2f	98		 cwde
  00f30	89 85 2c 28 00
	00		 mov	 DWORD PTR tv699[rbp], eax
  00f36	b1 45		 mov	 cl, 69			; 00000045H
  00f38	e8 00 00 00 00	 call	 ?N@Chain@Rule@GRB@@SAFD@Z ; GRB::Rule::Chain::N
  00f3d	98		 cwde
  00f3e	89 85 30 28 00
	00		 mov	 DWORD PTR tv703[rbp], eax
  00f44	b1 5b		 mov	 cl, 91			; 0000005bH
  00f46	e8 00 00 00 00	 call	 ?T@Chain@Rule@GRB@@SAFD@Z ; GRB::Rule::Chain::T
  00f4b	98		 cwde
  00f4c	89 85 34 28 00
	00		 mov	 DWORD PTR tv707[rbp], eax
  00f52	b1 69		 mov	 cl, 105			; 00000069H
  00f54	e8 00 00 00 00	 call	 ?T@Chain@Rule@GRB@@SAFD@Z ; GRB::Rule::Chain::T
  00f59	8b 8d 2c 28 00
	00		 mov	 ecx, DWORD PTR tv699[rbp]
  00f5f	89 4c 24 28	 mov	 DWORD PTR [rsp+40], ecx
  00f63	8b 8d 30 28 00
	00		 mov	 ecx, DWORD PTR tv703[rbp]
  00f69	89 4c 24 20	 mov	 DWORD PTR [rsp+32], ecx
  00f6d	8b 8d 34 28 00
	00		 mov	 ecx, DWORD PTR tv707[rbp]
  00f73	44 8b c9	 mov	 r9d, ecx
  00f76	44 0f bf c0	 movsx	 r8d, ax
  00f7a	ba 04 00 00 00	 mov	 edx, 4
  00f7f	48 8d 8d f8 0c
	00 00		 lea	 rcx, QWORD PTR $T37[rbp]
  00f86	e8 00 00 00 00	 call	 ??0Chain@Rule@GRB@@QEAA@FFZZ ; GRB::Rule::Chain::Chain
  00f8b	48 8d 8d f0 1c
	00 00		 lea	 rcx, QWORD PTR $T122[rbp]
  00f92	48 8b f9	 mov	 rdi, rcx
  00f95	48 8b f0	 mov	 rsi, rax
  00f98	b9 10 00 00 00	 mov	 ecx, 16
  00f9d	f3 a4		 rep movsb
  00f9f	b1 4e		 mov	 cl, 78			; 0000004eH
  00fa1	e8 00 00 00 00	 call	 ?N@Chain@Rule@GRB@@SAFD@Z ; GRB::Rule::Chain::N
  00fa6	98		 cwde
  00fa7	89 85 38 28 00
	00		 mov	 DWORD PTR tv718[rbp], eax
  00fad	b1 58		 mov	 cl, 88			; 00000058H
  00faf	e8 00 00 00 00	 call	 ?N@Chain@Rule@GRB@@SAFD@Z ; GRB::Rule::Chain::N
  00fb4	98		 cwde
  00fb5	89 85 3c 28 00
	00		 mov	 DWORD PTR tv722[rbp], eax
  00fbb	b1 62		 mov	 cl, 98			; 00000062H
  00fbd	e8 00 00 00 00	 call	 ?T@Chain@Rule@GRB@@SAFD@Z ; GRB::Rule::Chain::T
  00fc2	98		 cwde
  00fc3	89 85 40 28 00
	00		 mov	 DWORD PTR tv726[rbp], eax
  00fc9	b1 6c		 mov	 cl, 108			; 0000006cH
  00fcb	e8 00 00 00 00	 call	 ?T@Chain@Rule@GRB@@SAFD@Z ; GRB::Rule::Chain::T
  00fd0	8b 8d 38 28 00
	00		 mov	 ecx, DWORD PTR tv718[rbp]
  00fd6	89 4c 24 28	 mov	 DWORD PTR [rsp+40], ecx
  00fda	8b 8d 3c 28 00
	00		 mov	 ecx, DWORD PTR tv722[rbp]
  00fe0	89 4c 24 20	 mov	 DWORD PTR [rsp+32], ecx
  00fe4	8b 8d 40 28 00
	00		 mov	 ecx, DWORD PTR tv726[rbp]
  00fea	44 8b c9	 mov	 r9d, ecx
  00fed	44 0f bf c0	 movsx	 r8d, ax
  00ff1	ba 04 00 00 00	 mov	 edx, 4
  00ff6	48 8d 8d 28 0d
	00 00		 lea	 rcx, QWORD PTR $T38[rbp]
  00ffd	e8 00 00 00 00	 call	 ??0Chain@Rule@GRB@@QEAA@FFZZ ; GRB::Rule::Chain::Chain
  01002	48 8d 8d c0 1c
	00 00		 lea	 rcx, QWORD PTR $T121[rbp]
  01009	48 8b f9	 mov	 rdi, rcx
  0100c	48 8b f0	 mov	 rsi, rax
  0100f	b9 10 00 00 00	 mov	 ecx, 16
  01014	f3 a4		 rep movsb
  01016	b1 4e		 mov	 cl, 78			; 0000004eH
  01018	e8 00 00 00 00	 call	 ?N@Chain@Rule@GRB@@SAFD@Z ; GRB::Rule::Chain::N
  0101d	98		 cwde
  0101e	89 85 44 28 00
	00		 mov	 DWORD PTR tv737[rbp], eax
  01024	b1 58		 mov	 cl, 88			; 00000058H
  01026	e8 00 00 00 00	 call	 ?N@Chain@Rule@GRB@@SAFD@Z ; GRB::Rule::Chain::N
  0102b	98		 cwde
  0102c	89 85 48 28 00
	00		 mov	 DWORD PTR tv741[rbp], eax
  01032	b1 62		 mov	 cl, 98			; 00000062H
  01034	e8 00 00 00 00	 call	 ?T@Chain@Rule@GRB@@SAFD@Z ; GRB::Rule::Chain::T
  01039	98		 cwde
  0103a	89 85 4c 28 00
	00		 mov	 DWORD PTR tv745[rbp], eax
  01040	b1 69		 mov	 cl, 105			; 00000069H
  01042	e8 00 00 00 00	 call	 ?T@Chain@Rule@GRB@@SAFD@Z ; GRB::Rule::Chain::T
  01047	8b 8d 44 28 00
	00		 mov	 ecx, DWORD PTR tv737[rbp]
  0104d	89 4c 24 28	 mov	 DWORD PTR [rsp+40], ecx
  01051	8b 8d 48 28 00
	00		 mov	 ecx, DWORD PTR tv741[rbp]
  01057	89 4c 24 20	 mov	 DWORD PTR [rsp+32], ecx
  0105b	8b 8d 4c 28 00
	00		 mov	 ecx, DWORD PTR tv745[rbp]
  01061	44 8b c9	 mov	 r9d, ecx
  01064	44 0f bf c0	 movsx	 r8d, ax
  01068	ba 04 00 00 00	 mov	 edx, 4
  0106d	48 8d 8d 58 0d
	00 00		 lea	 rcx, QWORD PTR $T39[rbp]
  01074	e8 00 00 00 00	 call	 ??0Chain@Rule@GRB@@QEAA@FFZZ ; GRB::Rule::Chain::Chain
  01079	48 8d 8d 90 1c
	00 00		 lea	 rcx, QWORD PTR $T120[rbp]
  01080	48 8b f9	 mov	 rdi, rcx
  01083	48 8b f0	 mov	 rsi, rax
  01086	b9 10 00 00 00	 mov	 ecx, 16
  0108b	f3 a4		 rep movsb
  0108d	b1 29		 mov	 cl, 41			; 00000029H
  0108f	e8 00 00 00 00	 call	 ?T@Chain@Rule@GRB@@SAFD@Z ; GRB::Rule::Chain::T
  01094	98		 cwde
  01095	89 85 50 28 00
	00		 mov	 DWORD PTR tv756[rbp], eax
  0109b	b1 57		 mov	 cl, 87			; 00000057H
  0109d	e8 00 00 00 00	 call	 ?N@Chain@Rule@GRB@@SAFD@Z ; GRB::Rule::Chain::N
  010a2	98		 cwde
  010a3	89 85 54 28 00
	00		 mov	 DWORD PTR tv760[rbp], eax
  010a9	b1 28		 mov	 cl, 40			; 00000028H
  010ab	e8 00 00 00 00	 call	 ?T@Chain@Rule@GRB@@SAFD@Z ; GRB::Rule::Chain::T
  010b0	98		 cwde
  010b1	89 85 58 28 00
	00		 mov	 DWORD PTR tv764[rbp], eax
  010b7	b1 69		 mov	 cl, 105			; 00000069H
  010b9	e8 00 00 00 00	 call	 ?T@Chain@Rule@GRB@@SAFD@Z ; GRB::Rule::Chain::T
  010be	8b 8d 50 28 00
	00		 mov	 ecx, DWORD PTR tv756[rbp]
  010c4	89 4c 24 28	 mov	 DWORD PTR [rsp+40], ecx
  010c8	8b 8d 54 28 00
	00		 mov	 ecx, DWORD PTR tv760[rbp]
  010ce	89 4c 24 20	 mov	 DWORD PTR [rsp+32], ecx
  010d2	8b 8d 58 28 00
	00		 mov	 ecx, DWORD PTR tv764[rbp]
  010d8	44 8b c9	 mov	 r9d, ecx
  010db	44 0f bf c0	 movsx	 r8d, ax
  010df	ba 04 00 00 00	 mov	 edx, 4
  010e4	48 8d 8d 88 0d
	00 00		 lea	 rcx, QWORD PTR $T40[rbp]
  010eb	e8 00 00 00 00	 call	 ??0Chain@Rule@GRB@@QEAA@FFZZ ; GRB::Rule::Chain::Chain
  010f0	48 8d 8d 60 1c
	00 00		 lea	 rcx, QWORD PTR $T119[rbp]
  010f7	48 8b f9	 mov	 rdi, rcx
  010fa	48 8b f0	 mov	 rsi, rax
  010fd	b9 10 00 00 00	 mov	 ecx, 16
  01102	f3 a4		 rep movsb
  01104	b1 45		 mov	 cl, 69			; 00000045H
  01106	e8 00 00 00 00	 call	 ?N@Chain@Rule@GRB@@SAFD@Z ; GRB::Rule::Chain::N
  0110b	98		 cwde
  0110c	89 85 5c 28 00
	00		 mov	 DWORD PTR tv775[rbp], eax
  01112	b1 2c		 mov	 cl, 44			; 0000002cH
  01114	e8 00 00 00 00	 call	 ?T@Chain@Rule@GRB@@SAFD@Z ; GRB::Rule::Chain::T
  01119	98		 cwde
  0111a	89 85 60 28 00
	00		 mov	 DWORD PTR tv779[rbp], eax
  01120	b1 69		 mov	 cl, 105			; 00000069H
  01122	e8 00 00 00 00	 call	 ?T@Chain@Rule@GRB@@SAFD@Z ; GRB::Rule::Chain::T
  01127	8b 8d 5c 28 00
	00		 mov	 ecx, DWORD PTR tv775[rbp]
  0112d	89 4c 24 20	 mov	 DWORD PTR [rsp+32], ecx
  01131	8b 8d 60 28 00
	00		 mov	 ecx, DWORD PTR tv779[rbp]
  01137	44 8b c9	 mov	 r9d, ecx
  0113a	44 0f bf c0	 movsx	 r8d, ax
  0113e	ba 03 00 00 00	 mov	 edx, 3
  01143	48 8d 8d b8 0d
	00 00		 lea	 rcx, QWORD PTR $T41[rbp]
  0114a	e8 00 00 00 00	 call	 ??0Chain@Rule@GRB@@QEAA@FFZZ ; GRB::Rule::Chain::Chain
  0114f	48 8d 8d 30 1c
	00 00		 lea	 rcx, QWORD PTR $T118[rbp]
  01156	48 8b f9	 mov	 rdi, rcx
  01159	48 8b f0	 mov	 rsi, rax
  0115c	b9 10 00 00 00	 mov	 ecx, 16
  01161	f3 a4		 rep movsb
  01163	b1 45		 mov	 cl, 69			; 00000045H
  01165	e8 00 00 00 00	 call	 ?N@Chain@Rule@GRB@@SAFD@Z ; GRB::Rule::Chain::N
  0116a	98		 cwde
  0116b	89 85 64 28 00
	00		 mov	 DWORD PTR tv790[rbp], eax
  01171	b1 2c		 mov	 cl, 44			; 0000002cH
  01173	e8 00 00 00 00	 call	 ?T@Chain@Rule@GRB@@SAFD@Z ; GRB::Rule::Chain::T
  01178	98		 cwde
  01179	89 85 68 28 00
	00		 mov	 DWORD PTR tv794[rbp], eax
  0117f	b1 6c		 mov	 cl, 108			; 0000006cH
  01181	e8 00 00 00 00	 call	 ?T@Chain@Rule@GRB@@SAFD@Z ; GRB::Rule::Chain::T
  01186	8b 8d 64 28 00
	00		 mov	 ecx, DWORD PTR tv790[rbp]
  0118c	89 4c 24 20	 mov	 DWORD PTR [rsp+32], ecx
  01190	8b 8d 68 28 00
	00		 mov	 ecx, DWORD PTR tv794[rbp]
  01196	44 8b c9	 mov	 r9d, ecx
  01199	44 0f bf c0	 movsx	 r8d, ax
  0119d	ba 03 00 00 00	 mov	 edx, 3
  011a2	48 8d 8d e8 0d
	00 00		 lea	 rcx, QWORD PTR $T42[rbp]
  011a9	e8 00 00 00 00	 call	 ??0Chain@Rule@GRB@@QEAA@FFZZ ; GRB::Rule::Chain::Chain
  011ae	48 8d 8d 00 1c
	00 00		 lea	 rcx, QWORD PTR $T117[rbp]
  011b5	48 8b f9	 mov	 rdi, rcx
  011b8	48 8b f0	 mov	 rsi, rax
  011bb	b9 10 00 00 00	 mov	 ecx, 16
  011c0	f3 a4		 rep movsb
  011c2	b1 58		 mov	 cl, 88			; 00000058H
  011c4	e8 00 00 00 00	 call	 ?N@Chain@Rule@GRB@@SAFD@Z ; GRB::Rule::Chain::N
  011c9	98		 cwde
  011ca	89 85 6c 28 00
	00		 mov	 DWORD PTR tv805[rbp], eax
  011d0	b1 62		 mov	 cl, 98			; 00000062H
  011d2	e8 00 00 00 00	 call	 ?T@Chain@Rule@GRB@@SAFD@Z ; GRB::Rule::Chain::T
  011d7	98		 cwde
  011d8	89 85 70 28 00
	00		 mov	 DWORD PTR tv809[rbp], eax
  011de	b1 6c		 mov	 cl, 108			; 0000006cH
  011e0	e8 00 00 00 00	 call	 ?T@Chain@Rule@GRB@@SAFD@Z ; GRB::Rule::Chain::T
  011e5	8b 8d 6c 28 00
	00		 mov	 ecx, DWORD PTR tv805[rbp]
  011eb	89 4c 24 20	 mov	 DWORD PTR [rsp+32], ecx
  011ef	8b 8d 70 28 00
	00		 mov	 ecx, DWORD PTR tv809[rbp]
  011f5	44 8b c9	 mov	 r9d, ecx
  011f8	44 0f bf c0	 movsx	 r8d, ax
  011fc	ba 03 00 00 00	 mov	 edx, 3
  01201	48 8d 8d 18 0e
	00 00		 lea	 rcx, QWORD PTR $T43[rbp]
  01208	e8 00 00 00 00	 call	 ??0Chain@Rule@GRB@@QEAA@FFZZ ; GRB::Rule::Chain::Chain
  0120d	48 8d 8d d0 1b
	00 00		 lea	 rcx, QWORD PTR $T116[rbp]
  01214	48 8b f9	 mov	 rdi, rcx
  01217	48 8b f0	 mov	 rsi, rax
  0121a	b9 10 00 00 00	 mov	 ecx, 16
  0121f	f3 a4		 rep movsb
  01221	b1 58		 mov	 cl, 88			; 00000058H
  01223	e8 00 00 00 00	 call	 ?N@Chain@Rule@GRB@@SAFD@Z ; GRB::Rule::Chain::N
  01228	98		 cwde
  01229	89 85 74 28 00
	00		 mov	 DWORD PTR tv820[rbp], eax
  0122f	b1 62		 mov	 cl, 98			; 00000062H
  01231	e8 00 00 00 00	 call	 ?T@Chain@Rule@GRB@@SAFD@Z ; GRB::Rule::Chain::T
  01236	98		 cwde
  01237	89 85 78 28 00
	00		 mov	 DWORD PTR tv824[rbp], eax
  0123d	b1 69		 mov	 cl, 105			; 00000069H
  0123f	e8 00 00 00 00	 call	 ?T@Chain@Rule@GRB@@SAFD@Z ; GRB::Rule::Chain::T
  01244	8b 8d 74 28 00
	00		 mov	 ecx, DWORD PTR tv820[rbp]
  0124a	89 4c 24 20	 mov	 DWORD PTR [rsp+32], ecx
  0124e	8b 8d 78 28 00
	00		 mov	 ecx, DWORD PTR tv824[rbp]
  01254	44 8b c9	 mov	 r9d, ecx
  01257	44 0f bf c0	 movsx	 r8d, ax
  0125b	ba 03 00 00 00	 mov	 edx, 3
  01260	48 8d 8d 48 0e
	00 00		 lea	 rcx, QWORD PTR $T44[rbp]
  01267	e8 00 00 00 00	 call	 ??0Chain@Rule@GRB@@QEAA@FFZZ ; GRB::Rule::Chain::Chain
  0126c	48 8d 8d a0 1b
	00 00		 lea	 rcx, QWORD PTR $T115[rbp]
  01273	48 8b f9	 mov	 rdi, rcx
  01276	48 8b f0	 mov	 rsi, rax
  01279	b9 10 00 00 00	 mov	 ecx, 16
  0127e	f3 a4		 rep movsb
  01280	b1 29		 mov	 cl, 41			; 00000029H
  01282	e8 00 00 00 00	 call	 ?T@Chain@Rule@GRB@@SAFD@Z ; GRB::Rule::Chain::T
  01287	98		 cwde
  01288	89 85 7c 28 00
	00		 mov	 DWORD PTR tv835[rbp], eax
  0128e	b1 45		 mov	 cl, 69			; 00000045H
  01290	e8 00 00 00 00	 call	 ?N@Chain@Rule@GRB@@SAFD@Z ; GRB::Rule::Chain::N
  01295	98		 cwde
  01296	89 85 80 28 00
	00		 mov	 DWORD PTR tv839[rbp], eax
  0129c	b1 28		 mov	 cl, 40			; 00000028H
  0129e	e8 00 00 00 00	 call	 ?T@Chain@Rule@GRB@@SAFD@Z ; GRB::Rule::Chain::T
  012a3	8b 8d 7c 28 00
	00		 mov	 ecx, DWORD PTR tv835[rbp]
  012a9	89 4c 24 20	 mov	 DWORD PTR [rsp+32], ecx
  012ad	8b 8d 80 28 00
	00		 mov	 ecx, DWORD PTR tv839[rbp]
  012b3	44 8b c9	 mov	 r9d, ecx
  012b6	44 0f bf c0	 movsx	 r8d, ax
  012ba	ba 03 00 00 00	 mov	 edx, 3
  012bf	48 8d 8d 78 0e
	00 00		 lea	 rcx, QWORD PTR $T45[rbp]
  012c6	e8 00 00 00 00	 call	 ??0Chain@Rule@GRB@@QEAA@FFZZ ; GRB::Rule::Chain::Chain
  012cb	48 8d 8d 70 1b
	00 00		 lea	 rcx, QWORD PTR $T114[rbp]
  012d2	48 8b f9	 mov	 rdi, rcx
  012d5	48 8b f0	 mov	 rsi, rax
  012d8	b9 10 00 00 00	 mov	 ecx, 16
  012dd	f3 a4		 rep movsb
  012df	b1 3b		 mov	 cl, 59			; 0000003bH
  012e1	e8 00 00 00 00	 call	 ?T@Chain@Rule@GRB@@SAFD@Z ; GRB::Rule::Chain::T
  012e6	98		 cwde
  012e7	89 85 84 28 00
	00		 mov	 DWORD PTR tv850[rbp], eax
  012ed	b1 6e		 mov	 cl, 110			; 0000006eH
  012ef	e8 00 00 00 00	 call	 ?T@Chain@Rule@GRB@@SAFD@Z ; GRB::Rule::Chain::T
  012f4	98		 cwde
  012f5	89 85 88 28 00
	00		 mov	 DWORD PTR tv854[rbp], eax
  012fb	b1 69		 mov	 cl, 105			; 00000069H
  012fd	e8 00 00 00 00	 call	 ?T@Chain@Rule@GRB@@SAFD@Z ; GRB::Rule::Chain::T
  01302	8b 8d 84 28 00
	00		 mov	 ecx, DWORD PTR tv850[rbp]
  01308	89 4c 24 20	 mov	 DWORD PTR [rsp+32], ecx
  0130c	8b 8d 88 28 00
	00		 mov	 ecx, DWORD PTR tv854[rbp]
  01312	44 8b c9	 mov	 r9d, ecx
  01315	44 0f bf c0	 movsx	 r8d, ax
  01319	ba 03 00 00 00	 mov	 edx, 3
  0131e	48 8d 8d a8 0e
	00 00		 lea	 rcx, QWORD PTR $T46[rbp]
  01325	e8 00 00 00 00	 call	 ??0Chain@Rule@GRB@@QEAA@FFZZ ; GRB::Rule::Chain::Chain
  0132a	48 8d 8d 40 1b
	00 00		 lea	 rcx, QWORD PTR $T113[rbp]
  01331	48 8b f9	 mov	 rdi, rcx
  01334	48 8b f0	 mov	 rsi, rax
  01337	b9 10 00 00 00	 mov	 ecx, 16
  0133c	f3 a4		 rep movsb
  0133e	b1 4d		 mov	 cl, 77			; 0000004dH
  01340	e8 00 00 00 00	 call	 ?N@Chain@Rule@GRB@@SAFD@Z ; GRB::Rule::Chain::N
  01345	98		 cwde
  01346	89 85 8c 28 00
	00		 mov	 DWORD PTR tv865[rbp], eax
  0134c	b1 6c		 mov	 cl, 108			; 0000006cH
  0134e	e8 00 00 00 00	 call	 ?T@Chain@Rule@GRB@@SAFD@Z ; GRB::Rule::Chain::T
  01353	8b 8d 8c 28 00
	00		 mov	 ecx, DWORD PTR tv865[rbp]
  01359	44 8b c9	 mov	 r9d, ecx
  0135c	44 0f bf c0	 movsx	 r8d, ax
  01360	ba 02 00 00 00	 mov	 edx, 2
  01365	48 8d 8d d8 0e
	00 00		 lea	 rcx, QWORD PTR $T47[rbp]
  0136c	e8 00 00 00 00	 call	 ??0Chain@Rule@GRB@@QEAA@FFZZ ; GRB::Rule::Chain::Chain
  01371	48 8d 8d 10 1b
	00 00		 lea	 rcx, QWORD PTR $T112[rbp]
  01378	48 8b f9	 mov	 rdi, rcx
  0137b	48 8b f0	 mov	 rsi, rax
  0137e	b9 10 00 00 00	 mov	 ecx, 16
  01383	f3 a4		 rep movsb
  01385	b1 4d		 mov	 cl, 77			; 0000004dH
  01387	e8 00 00 00 00	 call	 ?N@Chain@Rule@GRB@@SAFD@Z ; GRB::Rule::Chain::N
  0138c	98		 cwde
  0138d	89 85 90 28 00
	00		 mov	 DWORD PTR tv876[rbp], eax
  01393	b1 69		 mov	 cl, 105			; 00000069H
  01395	e8 00 00 00 00	 call	 ?T@Chain@Rule@GRB@@SAFD@Z ; GRB::Rule::Chain::T
  0139a	8b 8d 90 28 00
	00		 mov	 ecx, DWORD PTR tv876[rbp]
  013a0	44 8b c9	 mov	 r9d, ecx
  013a3	44 0f bf c0	 movsx	 r8d, ax
  013a7	ba 02 00 00 00	 mov	 edx, 2
  013ac	48 8d 8d 08 0f
	00 00		 lea	 rcx, QWORD PTR $T48[rbp]
  013b3	e8 00 00 00 00	 call	 ??0Chain@Rule@GRB@@QEAA@FFZZ ; GRB::Rule::Chain::Chain
  013b8	48 8d 8d e0 1a
	00 00		 lea	 rcx, QWORD PTR $T111[rbp]
  013bf	48 8b f9	 mov	 rdi, rcx
  013c2	48 8b f0	 mov	 rsi, rax
  013c5	b9 10 00 00 00	 mov	 ecx, 16
  013ca	f3 a4		 rep movsb
  013cc	b1 6c		 mov	 cl, 108			; 0000006cH
  013ce	e8 00 00 00 00	 call	 ?T@Chain@Rule@GRB@@SAFD@Z ; GRB::Rule::Chain::T
  013d3	44 0f bf c0	 movsx	 r8d, ax
  013d7	ba 01 00 00 00	 mov	 edx, 1
  013dc	48 8d 8d 38 0f
	00 00		 lea	 rcx, QWORD PTR $T49[rbp]
  013e3	e8 00 00 00 00	 call	 ??0Chain@Rule@GRB@@QEAA@FFZZ ; GRB::Rule::Chain::Chain
  013e8	48 8d 8d b0 1a
	00 00		 lea	 rcx, QWORD PTR $T110[rbp]
  013ef	48 8b f9	 mov	 rdi, rcx
  013f2	48 8b f0	 mov	 rsi, rax
  013f5	b9 10 00 00 00	 mov	 ecx, 16
  013fa	f3 a4		 rep movsb
  013fc	b1 69		 mov	 cl, 105			; 00000069H
  013fe	e8 00 00 00 00	 call	 ?T@Chain@Rule@GRB@@SAFD@Z ; GRB::Rule::Chain::T
  01403	44 0f bf c0	 movsx	 r8d, ax
  01407	ba 01 00 00 00	 mov	 edx, 1
  0140c	48 8d 8d 68 0f
	00 00		 lea	 rcx, QWORD PTR $T50[rbp]
  01413	e8 00 00 00 00	 call	 ??0Chain@Rule@GRB@@QEAA@FFZZ ; GRB::Rule::Chain::Chain
  01418	48 8d 8d 80 1a
	00 00		 lea	 rcx, QWORD PTR $T109[rbp]
  0141f	48 8b f9	 mov	 rdi, rcx
  01422	48 8b f0	 mov	 rsi, rax
  01425	b9 10 00 00 00	 mov	 ecx, 16
  0142a	f3 a4		 rep movsb
  0142c	b1 45		 mov	 cl, 69			; 00000045H
  0142e	e8 00 00 00 00	 call	 ?N@Chain@Rule@GRB@@SAFD@Z ; GRB::Rule::Chain::N
  01433	48 8d 8d 40 1e
	00 00		 lea	 rcx, QWORD PTR $T129[rbp]
  0143a	48 89 8c 24 c0
	00 00 00	 mov	 QWORD PTR [rsp+192], rcx
  01442	48 8d 8d 10 1e
	00 00		 lea	 rcx, QWORD PTR $T128[rbp]
  01449	48 89 8c 24 b8
	00 00 00	 mov	 QWORD PTR [rsp+184], rcx
  01451	48 8d 8d e0 1d
	00 00		 lea	 rcx, QWORD PTR $T127[rbp]
  01458	48 89 8c 24 b0
	00 00 00	 mov	 QWORD PTR [rsp+176], rcx
  01460	48 8d 8d b0 1d
	00 00		 lea	 rcx, QWORD PTR $T126[rbp]
  01467	48 89 8c 24 a8
	00 00 00	 mov	 QWORD PTR [rsp+168], rcx
  0146f	48 8d 8d 80 1d
	00 00		 lea	 rcx, QWORD PTR $T125[rbp]
  01476	48 89 8c 24 a0
	00 00 00	 mov	 QWORD PTR [rsp+160], rcx
  0147e	48 8d 8d 50 1d
	00 00		 lea	 rcx, QWORD PTR $T124[rbp]
  01485	48 89 8c 24 98
	00 00 00	 mov	 QWORD PTR [rsp+152], rcx
  0148d	48 8d 8d 20 1d
	00 00		 lea	 rcx, QWORD PTR $T123[rbp]
  01494	48 89 8c 24 90
	00 00 00	 mov	 QWORD PTR [rsp+144], rcx
  0149c	48 8d 8d f0 1c
	00 00		 lea	 rcx, QWORD PTR $T122[rbp]
  014a3	48 89 8c 24 88
	00 00 00	 mov	 QWORD PTR [rsp+136], rcx
  014ab	48 8d 8d c0 1c
	00 00		 lea	 rcx, QWORD PTR $T121[rbp]
  014b2	48 89 8c 24 80
	00 00 00	 mov	 QWORD PTR [rsp+128], rcx
  014ba	48 8d 8d 90 1c
	00 00		 lea	 rcx, QWORD PTR $T120[rbp]
  014c1	48 89 4c 24 78	 mov	 QWORD PTR [rsp+120], rcx
  014c6	48 8d 8d 60 1c
	00 00		 lea	 rcx, QWORD PTR $T119[rbp]
  014cd	48 89 4c 24 70	 mov	 QWORD PTR [rsp+112], rcx
  014d2	48 8d 8d 30 1c
	00 00		 lea	 rcx, QWORD PTR $T118[rbp]
  014d9	48 89 4c 24 68	 mov	 QWORD PTR [rsp+104], rcx
  014de	48 8d 8d 00 1c
	00 00		 lea	 rcx, QWORD PTR $T117[rbp]
  014e5	48 89 4c 24 60	 mov	 QWORD PTR [rsp+96], rcx
  014ea	48 8d 8d d0 1b
	00 00		 lea	 rcx, QWORD PTR $T116[rbp]
  014f1	48 89 4c 24 58	 mov	 QWORD PTR [rsp+88], rcx
  014f6	48 8d 8d a0 1b
	00 00		 lea	 rcx, QWORD PTR $T115[rbp]
  014fd	48 89 4c 24 50	 mov	 QWORD PTR [rsp+80], rcx
  01502	48 8d 8d 70 1b
	00 00		 lea	 rcx, QWORD PTR $T114[rbp]
  01509	48 89 4c 24 48	 mov	 QWORD PTR [rsp+72], rcx
  0150e	48 8d 8d 40 1b
	00 00		 lea	 rcx, QWORD PTR $T113[rbp]
  01515	48 89 4c 24 40	 mov	 QWORD PTR [rsp+64], rcx
  0151a	48 8d 8d 10 1b
	00 00		 lea	 rcx, QWORD PTR $T112[rbp]
  01521	48 89 4c 24 38	 mov	 QWORD PTR [rsp+56], rcx
  01526	48 8d 8d e0 1a
	00 00		 lea	 rcx, QWORD PTR $T111[rbp]
  0152d	48 89 4c 24 30	 mov	 QWORD PTR [rsp+48], rcx
  01532	48 8d 8d b0 1a
	00 00		 lea	 rcx, QWORD PTR $T110[rbp]
  01539	48 89 4c 24 28	 mov	 QWORD PTR [rsp+40], rcx
  0153e	48 8d 8d 80 1a
	00 00		 lea	 rcx, QWORD PTR $T109[rbp]
  01545	48 89 4c 24 20	 mov	 QWORD PTR [rsp+32], rcx
  0154a	41 b9 15 00 00
	00		 mov	 r9d, 21
  01550	41 b8 5a 02 00
	00		 mov	 r8d, 602		; 0000025aH
  01556	0f bf d0	 movsx	 edx, ax
  01559	48 8d 8d 78 0b
	00 00		 lea	 rcx, QWORD PTR $T29[rbp]
  01560	e8 00 00 00 00	 call	 ??0Rule@GRB@@QEAA@FHFUChain@01@ZZ ; GRB::Rule::Rule
  01565	48 8d 8d 50 25
	00 00		 lea	 rcx, QWORD PTR $T166[rbp]
  0156c	48 8b f9	 mov	 rdi, rcx
  0156f	48 8b f0	 mov	 rsi, rax
  01572	b9 18 00 00 00	 mov	 ecx, 24
  01577	f3 a4		 rep movsb
  01579	b1 3b		 mov	 cl, 59			; 0000003bH
  0157b	e8 00 00 00 00	 call	 ?T@Chain@Rule@GRB@@SAFD@Z ; GRB::Rule::Chain::T
  01580	98		 cwde
  01581	89 85 94 28 00
	00		 mov	 DWORD PTR tv909[rbp], eax
  01587	b1 29		 mov	 cl, 41			; 00000029H
  01589	e8 00 00 00 00	 call	 ?T@Chain@Rule@GRB@@SAFD@Z ; GRB::Rule::Chain::T
  0158e	98		 cwde
  0158f	89 85 98 28 00
	00		 mov	 DWORD PTR tv913[rbp], eax
  01595	b1 58		 mov	 cl, 88			; 00000058H
  01597	e8 00 00 00 00	 call	 ?N@Chain@Rule@GRB@@SAFD@Z ; GRB::Rule::Chain::N
  0159c	98		 cwde
  0159d	89 85 9c 28 00
	00		 mov	 DWORD PTR tv917[rbp], eax
  015a3	b1 63		 mov	 cl, 99			; 00000063H
  015a5	e8 00 00 00 00	 call	 ?T@Chain@Rule@GRB@@SAFD@Z ; GRB::Rule::Chain::T
  015aa	98		 cwde
  015ab	89 85 a0 28 00
	00		 mov	 DWORD PTR tv921[rbp], eax
  015b1	b1 58		 mov	 cl, 88			; 00000058H
  015b3	e8 00 00 00 00	 call	 ?N@Chain@Rule@GRB@@SAFD@Z ; GRB::Rule::Chain::N
  015b8	98		 cwde
  015b9	89 85 a4 28 00
	00		 mov	 DWORD PTR tv925[rbp], eax
  015bf	b1 28		 mov	 cl, 40			; 00000028H
  015c1	e8 00 00 00 00	 call	 ?T@Chain@Rule@GRB@@SAFD@Z ; GRB::Rule::Chain::T
  015c6	98		 cwde
  015c7	89 85 a8 28 00
	00		 mov	 DWORD PTR tv929[rbp], eax
  015cd	b1 75		 mov	 cl, 117			; 00000075H
  015cf	e8 00 00 00 00	 call	 ?T@Chain@Rule@GRB@@SAFD@Z ; GRB::Rule::Chain::T
  015d4	98		 cwde
  015d5	89 85 ac 28 00
	00		 mov	 DWORD PTR tv933[rbp], eax
  015db	b1 7d		 mov	 cl, 125			; 0000007dH
  015dd	e8 00 00 00 00	 call	 ?T@Chain@Rule@GRB@@SAFD@Z ; GRB::Rule::Chain::T
  015e2	98		 cwde
  015e3	89 85 b0 28 00
	00		 mov	 DWORD PTR tv937[rbp], eax
  015e9	b1 4e		 mov	 cl, 78			; 0000004eH
  015eb	e8 00 00 00 00	 call	 ?N@Chain@Rule@GRB@@SAFD@Z ; GRB::Rule::Chain::N
  015f0	98		 cwde
  015f1	89 85 b4 28 00
	00		 mov	 DWORD PTR tv941[rbp], eax
  015f7	b1 7b		 mov	 cl, 123			; 0000007bH
  015f9	e8 00 00 00 00	 call	 ?T@Chain@Rule@GRB@@SAFD@Z ; GRB::Rule::Chain::T
  015fe	98		 cwde
  015ff	89 85 b8 28 00
	00		 mov	 DWORD PTR tv945[rbp], eax
  01605	b1 70		 mov	 cl, 112			; 00000070H
  01607	e8 00 00 00 00	 call	 ?T@Chain@Rule@GRB@@SAFD@Z ; GRB::Rule::Chain::T
  0160c	8b 8d 94 28 00
	00		 mov	 ecx, DWORD PTR tv909[rbp]
  01612	89 4c 24 60	 mov	 DWORD PTR [rsp+96], ecx
  01616	8b 8d 98 28 00
	00		 mov	 ecx, DWORD PTR tv913[rbp]
  0161c	89 4c 24 58	 mov	 DWORD PTR [rsp+88], ecx
  01620	8b 8d 9c 28 00
	00		 mov	 ecx, DWORD PTR tv917[rbp]
  01626	89 4c 24 50	 mov	 DWORD PTR [rsp+80], ecx
  0162a	8b 8d a0 28 00
	00		 mov	 ecx, DWORD PTR tv921[rbp]
  01630	89 4c 24 48	 mov	 DWORD PTR [rsp+72], ecx
  01634	8b 8d a4 28 00
	00		 mov	 ecx, DWORD PTR tv925[rbp]
  0163a	89 4c 24 40	 mov	 DWORD PTR [rsp+64], ecx
  0163e	8b 8d a8 28 00
	00		 mov	 ecx, DWORD PTR tv929[rbp]
  01644	89 4c 24 38	 mov	 DWORD PTR [rsp+56], ecx
  01648	8b 8d ac 28 00
	00		 mov	 ecx, DWORD PTR tv933[rbp]
  0164e	89 4c 24 30	 mov	 DWORD PTR [rsp+48], ecx
  01652	8b 8d b0 28 00
	00		 mov	 ecx, DWORD PTR tv937[rbp]
  01658	89 4c 24 28	 mov	 DWORD PTR [rsp+40], ecx
  0165c	8b 8d b4 28 00
	00		 mov	 ecx, DWORD PTR tv941[rbp]
  01662	89 4c 24 20	 mov	 DWORD PTR [rsp+32], ecx
  01666	8b 8d b8 28 00
	00		 mov	 ecx, DWORD PTR tv945[rbp]
  0166c	44 8b c9	 mov	 r9d, ecx
  0166f	44 0f bf c0	 movsx	 r8d, ax
  01673	ba 0b 00 00 00	 mov	 edx, 11
  01678	48 8d 8d c8 0f
	00 00		 lea	 rcx, QWORD PTR $T52[rbp]
  0167f	e8 00 00 00 00	 call	 ??0Chain@Rule@GRB@@QEAA@FFZZ ; GRB::Rule::Chain::Chain
  01684	48 8d 8d 40 24
	00 00		 lea	 rcx, QWORD PTR $T161[rbp]
  0168b	48 8b f9	 mov	 rdi, rcx
  0168e	48 8b f0	 mov	 rsi, rax
  01691	b9 10 00 00 00	 mov	 ecx, 16
  01696	f3 a4		 rep movsb
  01698	b1 3b		 mov	 cl, 59			; 0000003bH
  0169a	e8 00 00 00 00	 call	 ?T@Chain@Rule@GRB@@SAFD@Z ; GRB::Rule::Chain::T
  0169f	98		 cwde
  016a0	89 85 bc 28 00
	00		 mov	 DWORD PTR tv956[rbp], eax
  016a6	b1 7d		 mov	 cl, 125			; 0000007dH
  016a8	e8 00 00 00 00	 call	 ?T@Chain@Rule@GRB@@SAFD@Z ; GRB::Rule::Chain::T
  016ad	98		 cwde
  016ae	89 85 c0 28 00
	00		 mov	 DWORD PTR tv960[rbp], eax
  016b4	b1 41		 mov	 cl, 65			; 00000041H
  016b6	e8 00 00 00 00	 call	 ?N@Chain@Rule@GRB@@SAFD@Z ; GRB::Rule::Chain::N
  016bb	98		 cwde
  016bc	89 85 c4 28 00
	00		 mov	 DWORD PTR tv964[rbp], eax
  016c2	b1 7b		 mov	 cl, 123			; 0000007bH
  016c4	e8 00 00 00 00	 call	 ?T@Chain@Rule@GRB@@SAFD@Z ; GRB::Rule::Chain::T
  016c9	98		 cwde
  016ca	89 85 c8 28 00
	00		 mov	 DWORD PTR tv968[rbp], eax
  016d0	b1 3d		 mov	 cl, 61			; 0000003dH
  016d2	e8 00 00 00 00	 call	 ?T@Chain@Rule@GRB@@SAFD@Z ; GRB::Rule::Chain::T
  016d7	98		 cwde
  016d8	89 85 cc 28 00
	00		 mov	 DWORD PTR tv972[rbp], eax
  016de	b1 5d		 mov	 cl, 93			; 0000005dH
  016e0	e8 00 00 00 00	 call	 ?T@Chain@Rule@GRB@@SAFD@Z ; GRB::Rule::Chain::T
  016e5	98		 cwde
  016e6	89 85 d0 28 00
	00		 mov	 DWORD PTR tv976[rbp], eax
  016ec	b1 45		 mov	 cl, 69			; 00000045H
  016ee	e8 00 00 00 00	 call	 ?N@Chain@Rule@GRB@@SAFD@Z ; GRB::Rule::Chain::N
  016f3	98		 cwde
  016f4	89 85 d4 28 00
	00		 mov	 DWORD PTR tv980[rbp], eax
  016fa	b1 5b		 mov	 cl, 91			; 0000005bH
  016fc	e8 00 00 00 00	 call	 ?T@Chain@Rule@GRB@@SAFD@Z ; GRB::Rule::Chain::T
  01701	98		 cwde
  01702	89 85 d8 28 00
	00		 mov	 DWORD PTR tv984[rbp], eax
  01708	b1 69		 mov	 cl, 105			; 00000069H
  0170a	e8 00 00 00 00	 call	 ?T@Chain@Rule@GRB@@SAFD@Z ; GRB::Rule::Chain::T
  0170f	98		 cwde
  01710	89 85 dc 28 00
	00		 mov	 DWORD PTR tv988[rbp], eax
  01716	b1 74		 mov	 cl, 116			; 00000074H
  01718	e8 00 00 00 00	 call	 ?T@Chain@Rule@GRB@@SAFD@Z ; GRB::Rule::Chain::T
  0171d	8b 8d bc 28 00
	00		 mov	 ecx, DWORD PTR tv956[rbp]
  01723	89 4c 24 58	 mov	 DWORD PTR [rsp+88], ecx
  01727	8b 8d c0 28 00
	00		 mov	 ecx, DWORD PTR tv960[rbp]
  0172d	89 4c 24 50	 mov	 DWORD PTR [rsp+80], ecx
  01731	8b 8d c4 28 00
	00		 mov	 ecx, DWORD PTR tv964[rbp]
  01737	89 4c 24 48	 mov	 DWORD PTR [rsp+72], ecx
  0173b	8b 8d c8 28 00
	00		 mov	 ecx, DWORD PTR tv968[rbp]
  01741	89 4c 24 40	 mov	 DWORD PTR [rsp+64], ecx
  01745	8b 8d cc 28 00
	00		 mov	 ecx, DWORD PTR tv972[rbp]
  0174b	89 4c 24 38	 mov	 DWORD PTR [rsp+56], ecx
  0174f	8b 8d d0 28 00
	00		 mov	 ecx, DWORD PTR tv976[rbp]
  01755	89 4c 24 30	 mov	 DWORD PTR [rsp+48], ecx
  01759	8b 8d d4 28 00
	00		 mov	 ecx, DWORD PTR tv980[rbp]
  0175f	89 4c 24 28	 mov	 DWORD PTR [rsp+40], ecx
  01763	8b 8d d8 28 00
	00		 mov	 ecx, DWORD PTR tv984[rbp]
  01769	89 4c 24 20	 mov	 DWORD PTR [rsp+32], ecx
  0176d	8b 8d dc 28 00
	00		 mov	 ecx, DWORD PTR tv988[rbp]
  01773	44 8b c9	 mov	 r9d, ecx
  01776	44 0f bf c0	 movsx	 r8d, ax
  0177a	ba 0a 00 00 00	 mov	 edx, 10
  0177f	48 8d 8d f8 0f
	00 00		 lea	 rcx, QWORD PTR $T53[rbp]
  01786	e8 00 00 00 00	 call	 ??0Chain@Rule@GRB@@QEAA@FFZZ ; GRB::Rule::Chain::Chain
  0178b	48 8d 8d 10 24
	00 00		 lea	 rcx, QWORD PTR $T160[rbp]
  01792	48 8b f9	 mov	 rdi, rcx
  01795	48 8b f0	 mov	 rsi, rax
  01798	b9 10 00 00 00	 mov	 ecx, 16
  0179d	f3 a4		 rep movsb
  0179f	b1 7d		 mov	 cl, 125			; 0000007dH
  017a1	e8 00 00 00 00	 call	 ?T@Chain@Rule@GRB@@SAFD@Z ; GRB::Rule::Chain::T
  017a6	98		 cwde
  017a7	89 85 e0 28 00
	00		 mov	 DWORD PTR tv999[rbp], eax
  017ad	b1 4e		 mov	 cl, 78			; 0000004eH
  017af	e8 00 00 00 00	 call	 ?N@Chain@Rule@GRB@@SAFD@Z ; GRB::Rule::Chain::N
  017b4	98		 cwde
  017b5	89 85 e4 28 00
	00		 mov	 DWORD PTR tv1003[rbp], eax
  017bb	b1 7b		 mov	 cl, 123			; 0000007bH
  017bd	e8 00 00 00 00	 call	 ?T@Chain@Rule@GRB@@SAFD@Z ; GRB::Rule::Chain::T
  017c2	98		 cwde
  017c3	89 85 e8 28 00
	00		 mov	 DWORD PTR tv1007[rbp], eax
  017c9	b1 29		 mov	 cl, 41			; 00000029H
  017cb	e8 00 00 00 00	 call	 ?T@Chain@Rule@GRB@@SAFD@Z ; GRB::Rule::Chain::T
  017d0	98		 cwde
  017d1	89 85 ec 28 00
	00		 mov	 DWORD PTR tv1011[rbp], eax
  017d7	b1 58		 mov	 cl, 88			; 00000058H
  017d9	e8 00 00 00 00	 call	 ?N@Chain@Rule@GRB@@SAFD@Z ; GRB::Rule::Chain::N
  017de	98		 cwde
  017df	89 85 f0 28 00
	00		 mov	 DWORD PTR tv1015[rbp], eax
  017e5	b1 63		 mov	 cl, 99			; 00000063H
  017e7	e8 00 00 00 00	 call	 ?T@Chain@Rule@GRB@@SAFD@Z ; GRB::Rule::Chain::T
  017ec	98		 cwde
  017ed	89 85 f4 28 00
	00		 mov	 DWORD PTR tv1019[rbp], eax
  017f3	b1 58		 mov	 cl, 88			; 00000058H
  017f5	e8 00 00 00 00	 call	 ?N@Chain@Rule@GRB@@SAFD@Z ; GRB::Rule::Chain::N
  017fa	98		 cwde
  017fb	89 85 f8 28 00
	00		 mov	 DWORD PTR tv1023[rbp], eax
  01801	b1 28		 mov	 cl, 40			; 00000028H
  01803	e8 00 00 00 00	 call	 ?T@Chain@Rule@GRB@@SAFD@Z ; GRB::Rule::Chain::T
  01808	98		 cwde
  01809	89 85 fc 28 00
	00		 mov	 DWORD PTR tv1027[rbp], eax
  0180f	b1 7a		 mov	 cl, 122			; 0000007aH
  01811	e8 00 00 00 00	 call	 ?T@Chain@Rule@GRB@@SAFD@Z ; GRB::Rule::Chain::T
  01816	8b 8d e0 28 00
	00		 mov	 ecx, DWORD PTR tv999[rbp]
  0181c	89 4c 24 50	 mov	 DWORD PTR [rsp+80], ecx
  01820	8b 8d e4 28 00
	00		 mov	 ecx, DWORD PTR tv1003[rbp]
  01826	89 4c 24 48	 mov	 DWORD PTR [rsp+72], ecx
  0182a	8b 8d e8 28 00
	00		 mov	 ecx, DWORD PTR tv1007[rbp]
  01830	89 4c 24 40	 mov	 DWORD PTR [rsp+64], ecx
  01834	8b 8d ec 28 00
	00		 mov	 ecx, DWORD PTR tv1011[rbp]
  0183a	89 4c 24 38	 mov	 DWORD PTR [rsp+56], ecx
  0183e	8b 8d f0 28 00
	00		 mov	 ecx, DWORD PTR tv1015[rbp]
  01844	89 4c 24 30	 mov	 DWORD PTR [rsp+48], ecx
  01848	8b 8d f4 28 00
	00		 mov	 ecx, DWORD PTR tv1019[rbp]
  0184e	89 4c 24 28	 mov	 DWORD PTR [rsp+40], ecx
  01852	8b 8d f8 28 00
	00		 mov	 ecx, DWORD PTR tv1023[rbp]
  01858	89 4c 24 20	 mov	 DWORD PTR [rsp+32], ecx
  0185c	8b 8d fc 28 00
	00		 mov	 ecx, DWORD PTR tv1027[rbp]
  01862	44 8b c9	 mov	 r9d, ecx
  01865	44 0f bf c0	 movsx	 r8d, ax
  01869	ba 09 00 00 00	 mov	 edx, 9
  0186e	48 8d 8d 28 10
	00 00		 lea	 rcx, QWORD PTR $T54[rbp]
  01875	e8 00 00 00 00	 call	 ??0Chain@Rule@GRB@@QEAA@FFZZ ; GRB::Rule::Chain::Chain
  0187a	48 8d 8d e0 23
	00 00		 lea	 rcx, QWORD PTR $T159[rbp]
  01881	48 8b f9	 mov	 rdi, rcx
  01884	48 8b f0	 mov	 rsi, rax
  01887	b9 10 00 00 00	 mov	 ecx, 16
  0188c	f3 a4		 rep movsb
  0188e	b1 3b		 mov	 cl, 59			; 0000003bH
  01890	e8 00 00 00 00	 call	 ?T@Chain@Rule@GRB@@SAFD@Z ; GRB::Rule::Chain::T
  01895	98		 cwde
  01896	89 85 00 29 00
	00		 mov	 DWORD PTR tv1038[rbp], eax
  0189c	b1 45		 mov	 cl, 69			; 00000045H
  0189e	e8 00 00 00 00	 call	 ?N@Chain@Rule@GRB@@SAFD@Z ; GRB::Rule::Chain::N
  018a3	98		 cwde
  018a4	89 85 04 29 00
	00		 mov	 DWORD PTR tv1042[rbp], eax
  018aa	b1 3d		 mov	 cl, 61			; 0000003dH
  018ac	e8 00 00 00 00	 call	 ?T@Chain@Rule@GRB@@SAFD@Z ; GRB::Rule::Chain::T
  018b1	98		 cwde
  018b2	89 85 08 29 00
	00		 mov	 DWORD PTR tv1046[rbp], eax
  018b8	b1 5d		 mov	 cl, 93			; 0000005dH
  018ba	e8 00 00 00 00	 call	 ?T@Chain@Rule@GRB@@SAFD@Z ; GRB::Rule::Chain::T
  018bf	98		 cwde
  018c0	89 85 0c 29 00
	00		 mov	 DWORD PTR tv1050[rbp], eax
  018c6	b1 45		 mov	 cl, 69			; 00000045H
  018c8	e8 00 00 00 00	 call	 ?N@Chain@Rule@GRB@@SAFD@Z ; GRB::Rule::Chain::N
  018cd	98		 cwde
  018ce	89 85 10 29 00
	00		 mov	 DWORD PTR tv1054[rbp], eax
  018d4	b1 5b		 mov	 cl, 91			; 0000005bH
  018d6	e8 00 00 00 00	 call	 ?T@Chain@Rule@GRB@@SAFD@Z ; GRB::Rule::Chain::T
  018db	98		 cwde
  018dc	89 85 14 29 00
	00		 mov	 DWORD PTR tv1058[rbp], eax
  018e2	b1 69		 mov	 cl, 105			; 00000069H
  018e4	e8 00 00 00 00	 call	 ?T@Chain@Rule@GRB@@SAFD@Z ; GRB::Rule::Chain::T
  018e9	8b 8d 00 29 00
	00		 mov	 ecx, DWORD PTR tv1038[rbp]
  018ef	89 4c 24 40	 mov	 DWORD PTR [rsp+64], ecx
  018f3	8b 8d 04 29 00
	00		 mov	 ecx, DWORD PTR tv1042[rbp]
  018f9	89 4c 24 38	 mov	 DWORD PTR [rsp+56], ecx
  018fd	8b 8d 08 29 00
	00		 mov	 ecx, DWORD PTR tv1046[rbp]
  01903	89 4c 24 30	 mov	 DWORD PTR [rsp+48], ecx
  01907	8b 8d 0c 29 00
	00		 mov	 ecx, DWORD PTR tv1050[rbp]
  0190d	89 4c 24 28	 mov	 DWORD PTR [rsp+40], ecx
  01911	8b 8d 10 29 00
	00		 mov	 ecx, DWORD PTR tv1054[rbp]
  01917	89 4c 24 20	 mov	 DWORD PTR [rsp+32], ecx
  0191b	8b 8d 14 29 00
	00		 mov	 ecx, DWORD PTR tv1058[rbp]
  01921	44 8b c9	 mov	 r9d, ecx
  01924	44 0f bf c0	 movsx	 r8d, ax
  01928	ba 07 00 00 00	 mov	 edx, 7
  0192d	48 8d 8d 58 10
	00 00		 lea	 rcx, QWORD PTR $T55[rbp]
  01934	e8 00 00 00 00	 call	 ??0Chain@Rule@GRB@@QEAA@FFZZ ; GRB::Rule::Chain::Chain
  01939	48 8d 8d b0 23
	00 00		 lea	 rcx, QWORD PTR $T158[rbp]
  01940	48 8b f9	 mov	 rdi, rcx
  01943	48 8b f0	 mov	 rsi, rax
  01946	b9 10 00 00 00	 mov	 ecx, 16
  0194b	f3 a4		 rep movsb
  0194d	b1 7d		 mov	 cl, 125			; 0000007dH
  0194f	e8 00 00 00 00	 call	 ?T@Chain@Rule@GRB@@SAFD@Z ; GRB::Rule::Chain::T
  01954	98		 cwde
  01955	89 85 18 29 00
	00		 mov	 DWORD PTR tv1069[rbp], eax
  0195b	b1 4e		 mov	 cl, 78			; 0000004eH
  0195d	e8 00 00 00 00	 call	 ?N@Chain@Rule@GRB@@SAFD@Z ; GRB::Rule::Chain::N
  01962	98		 cwde
  01963	89 85 1c 29 00
	00		 mov	 DWORD PTR tv1073[rbp], eax
  01969	b1 7b		 mov	 cl, 123			; 0000007bH
  0196b	e8 00 00 00 00	 call	 ?T@Chain@Rule@GRB@@SAFD@Z ; GRB::Rule::Chain::T
  01970	98		 cwde
  01971	89 85 20 29 00
	00		 mov	 DWORD PTR tv1077[rbp], eax
  01977	b1 29		 mov	 cl, 41			; 00000029H
  01979	e8 00 00 00 00	 call	 ?T@Chain@Rule@GRB@@SAFD@Z ; GRB::Rule::Chain::T
  0197e	98		 cwde
  0197f	89 85 24 29 00
	00		 mov	 DWORD PTR tv1081[rbp], eax
  01985	b1 58		 mov	 cl, 88			; 00000058H
  01987	e8 00 00 00 00	 call	 ?N@Chain@Rule@GRB@@SAFD@Z ; GRB::Rule::Chain::N
  0198c	98		 cwde
  0198d	89 85 28 29 00
	00		 mov	 DWORD PTR tv1085[rbp], eax
  01993	b1 28		 mov	 cl, 40			; 00000028H
  01995	e8 00 00 00 00	 call	 ?T@Chain@Rule@GRB@@SAFD@Z ; GRB::Rule::Chain::T
  0199a	98		 cwde
  0199b	89 85 2c 29 00
	00		 mov	 DWORD PTR tv1089[rbp], eax
  019a1	b1 7a		 mov	 cl, 122			; 0000007aH
  019a3	e8 00 00 00 00	 call	 ?T@Chain@Rule@GRB@@SAFD@Z ; GRB::Rule::Chain::T
  019a8	8b 8d 18 29 00
	00		 mov	 ecx, DWORD PTR tv1069[rbp]
  019ae	89 4c 24 40	 mov	 DWORD PTR [rsp+64], ecx
  019b2	8b 8d 1c 29 00
	00		 mov	 ecx, DWORD PTR tv1073[rbp]
  019b8	89 4c 24 38	 mov	 DWORD PTR [rsp+56], ecx
  019bc	8b 8d 20 29 00
	00		 mov	 ecx, DWORD PTR tv1077[rbp]
  019c2	89 4c 24 30	 mov	 DWORD PTR [rsp+48], ecx
  019c6	8b 8d 24 29 00
	00		 mov	 ecx, DWORD PTR tv1081[rbp]
  019cc	89 4c 24 28	 mov	 DWORD PTR [rsp+40], ecx
  019d0	8b 8d 28 29 00
	00		 mov	 ecx, DWORD PTR tv1085[rbp]
  019d6	89 4c 24 20	 mov	 DWORD PTR [rsp+32], ecx
  019da	8b 8d 2c 29 00
	00		 mov	 ecx, DWORD PTR tv1089[rbp]
  019e0	44 8b c9	 mov	 r9d, ecx
  019e3	44 0f bf c0	 movsx	 r8d, ax
  019e7	ba 07 00 00 00	 mov	 edx, 7
  019ec	48 8d 8d 88 10
	00 00		 lea	 rcx, QWORD PTR $T56[rbp]
  019f3	e8 00 00 00 00	 call	 ??0Chain@Rule@GRB@@QEAA@FFZZ ; GRB::Rule::Chain::Chain
  019f8	48 8d 8d 80 23
	00 00		 lea	 rcx, QWORD PTR $T157[rbp]
  019ff	48 8b f9	 mov	 rdi, rcx
  01a02	48 8b f0	 mov	 rsi, rax
  01a05	b9 10 00 00 00	 mov	 ecx, 16
  01a0a	f3 a4		 rep movsb
  01a0c	b1 3b		 mov	 cl, 59			; 0000003bH
  01a0e	e8 00 00 00 00	 call	 ?T@Chain@Rule@GRB@@SAFD@Z ; GRB::Rule::Chain::T
  01a13	98		 cwde
  01a14	89 85 30 29 00
	00		 mov	 DWORD PTR tv1100[rbp], eax
  01a1a	b1 5d		 mov	 cl, 93			; 0000005dH
  01a1c	e8 00 00 00 00	 call	 ?T@Chain@Rule@GRB@@SAFD@Z ; GRB::Rule::Chain::T
  01a21	98		 cwde
  01a22	89 85 34 29 00
	00		 mov	 DWORD PTR tv1104[rbp], eax
  01a28	b1 45		 mov	 cl, 69			; 00000045H
  01a2a	e8 00 00 00 00	 call	 ?N@Chain@Rule@GRB@@SAFD@Z ; GRB::Rule::Chain::N
  01a2f	98		 cwde
  01a30	89 85 38 29 00
	00		 mov	 DWORD PTR tv1108[rbp], eax
  01a36	b1 5b		 mov	 cl, 91			; 0000005bH
  01a38	e8 00 00 00 00	 call	 ?T@Chain@Rule@GRB@@SAFD@Z ; GRB::Rule::Chain::T
  01a3d	98		 cwde
  01a3e	89 85 3c 29 00
	00		 mov	 DWORD PTR tv1112[rbp], eax
  01a44	b1 69		 mov	 cl, 105			; 00000069H
  01a46	e8 00 00 00 00	 call	 ?T@Chain@Rule@GRB@@SAFD@Z ; GRB::Rule::Chain::T
  01a4b	98		 cwde
  01a4c	89 85 40 29 00
	00		 mov	 DWORD PTR tv1116[rbp], eax
  01a52	b1 74		 mov	 cl, 116			; 00000074H
  01a54	e8 00 00 00 00	 call	 ?T@Chain@Rule@GRB@@SAFD@Z ; GRB::Rule::Chain::T
  01a59	8b 8d 30 29 00
	00		 mov	 ecx, DWORD PTR tv1100[rbp]
  01a5f	89 4c 24 38	 mov	 DWORD PTR [rsp+56], ecx
  01a63	8b 8d 34 29 00
	00		 mov	 ecx, DWORD PTR tv1104[rbp]
  01a69	89 4c 24 30	 mov	 DWORD PTR [rsp+48], ecx
  01a6d	8b 8d 38 29 00
	00		 mov	 ecx, DWORD PTR tv1108[rbp]
  01a73	89 4c 24 28	 mov	 DWORD PTR [rsp+40], ecx
  01a77	8b 8d 3c 29 00
	00		 mov	 ecx, DWORD PTR tv1112[rbp]
  01a7d	89 4c 24 20	 mov	 DWORD PTR [rsp+32], ecx
  01a81	8b 8d 40 29 00
	00		 mov	 ecx, DWORD PTR tv1116[rbp]
  01a87	44 8b c9	 mov	 r9d, ecx
  01a8a	44 0f bf c0	 movsx	 r8d, ax
  01a8e	ba 06 00 00 00	 mov	 edx, 6
  01a93	48 8d 8d b8 10
	00 00		 lea	 rcx, QWORD PTR $T57[rbp]
  01a9a	e8 00 00 00 00	 call	 ??0Chain@Rule@GRB@@QEAA@FFZZ ; GRB::Rule::Chain::Chain
  01a9f	48 8d 8d 50 23
	00 00		 lea	 rcx, QWORD PTR $T156[rbp]
  01aa6	48 8b f9	 mov	 rdi, rcx
  01aa9	48 8b f0	 mov	 rsi, rax
  01aac	b9 10 00 00 00	 mov	 ecx, 16
  01ab1	f3 a4		 rep movsb
  01ab3	b1 3b		 mov	 cl, 59			; 0000003bH
  01ab5	e8 00 00 00 00	 call	 ?T@Chain@Rule@GRB@@SAFD@Z ; GRB::Rule::Chain::T
  01aba	98		 cwde
  01abb	89 85 44 29 00
	00		 mov	 DWORD PTR tv1127[rbp], eax
  01ac1	b1 29		 mov	 cl, 41			; 00000029H
  01ac3	e8 00 00 00 00	 call	 ?T@Chain@Rule@GRB@@SAFD@Z ; GRB::Rule::Chain::T
  01ac8	98		 cwde
  01ac9	89 85 48 29 00
	00		 mov	 DWORD PTR tv1131[rbp], eax
  01acf	b1 45		 mov	 cl, 69			; 00000045H
  01ad1	e8 00 00 00 00	 call	 ?N@Chain@Rule@GRB@@SAFD@Z ; GRB::Rule::Chain::N
  01ad6	98		 cwde
  01ad7	89 85 4c 29 00
	00		 mov	 DWORD PTR tv1135[rbp], eax
  01add	b1 28		 mov	 cl, 40			; 00000028H
  01adf	e8 00 00 00 00	 call	 ?T@Chain@Rule@GRB@@SAFD@Z ; GRB::Rule::Chain::T
  01ae4	98		 cwde
  01ae5	89 85 50 29 00
	00		 mov	 DWORD PTR tv1139[rbp], eax
  01aeb	b1 69		 mov	 cl, 105			; 00000069H
  01aed	e8 00 00 00 00	 call	 ?T@Chain@Rule@GRB@@SAFD@Z ; GRB::Rule::Chain::T
  01af2	8b 8d 44 29 00
	00		 mov	 ecx, DWORD PTR tv1127[rbp]
  01af8	89 4c 24 30	 mov	 DWORD PTR [rsp+48], ecx
  01afc	8b 8d 48 29 00
	00		 mov	 ecx, DWORD PTR tv1131[rbp]
  01b02	89 4c 24 28	 mov	 DWORD PTR [rsp+40], ecx
  01b06	8b 8d 4c 29 00
	00		 mov	 ecx, DWORD PTR tv1135[rbp]
  01b0c	89 4c 24 20	 mov	 DWORD PTR [rsp+32], ecx
  01b10	8b 8d 50 29 00
	00		 mov	 ecx, DWORD PTR tv1139[rbp]
  01b16	44 8b c9	 mov	 r9d, ecx
  01b19	44 0f bf c0	 movsx	 r8d, ax
  01b1d	ba 05 00 00 00	 mov	 edx, 5
  01b22	48 8d 8d e8 10
	00 00		 lea	 rcx, QWORD PTR $T58[rbp]
  01b29	e8 00 00 00 00	 call	 ??0Chain@Rule@GRB@@QEAA@FFZZ ; GRB::Rule::Chain::Chain
  01b2e	48 8d 8d 20 23
	00 00		 lea	 rcx, QWORD PTR $T155[rbp]
  01b35	48 8b f9	 mov	 rdi, rcx
  01b38	48 8b f0	 mov	 rsi, rax
  01b3b	b9 10 00 00 00	 mov	 ecx, 16
  01b40	f3 a4		 rep movsb
  01b42	b1 3b		 mov	 cl, 59			; 0000003bH
  01b44	e8 00 00 00 00	 call	 ?T@Chain@Rule@GRB@@SAFD@Z ; GRB::Rule::Chain::T
  01b49	98		 cwde
  01b4a	89 85 54 29 00
	00		 mov	 DWORD PTR tv1150[rbp], eax
  01b50	b1 29		 mov	 cl, 41			; 00000029H
  01b52	e8 00 00 00 00	 call	 ?T@Chain@Rule@GRB@@SAFD@Z ; GRB::Rule::Chain::T
  01b57	98		 cwde
  01b58	89 85 58 29 00
	00		 mov	 DWORD PTR tv1154[rbp], eax
  01b5e	b1 45		 mov	 cl, 69			; 00000045H
  01b60	e8 00 00 00 00	 call	 ?N@Chain@Rule@GRB@@SAFD@Z ; GRB::Rule::Chain::N
  01b65	98		 cwde
  01b66	89 85 5c 29 00
	00		 mov	 DWORD PTR tv1158[rbp], eax
  01b6c	b1 28		 mov	 cl, 40			; 00000028H
  01b6e	e8 00 00 00 00	 call	 ?T@Chain@Rule@GRB@@SAFD@Z ; GRB::Rule::Chain::T
  01b73	98		 cwde
  01b74	89 85 60 29 00
	00		 mov	 DWORD PTR tv1162[rbp], eax
  01b7a	b1 77		 mov	 cl, 119			; 00000077H
  01b7c	e8 00 00 00 00	 call	 ?T@Chain@Rule@GRB@@SAFD@Z ; GRB::Rule::Chain::T
  01b81	8b 8d 54 29 00
	00		 mov	 ecx, DWORD PTR tv1150[rbp]
  01b87	89 4c 24 30	 mov	 DWORD PTR [rsp+48], ecx
  01b8b	8b 8d 58 29 00
	00		 mov	 ecx, DWORD PTR tv1154[rbp]
  01b91	89 4c 24 28	 mov	 DWORD PTR [rsp+40], ecx
  01b95	8b 8d 5c 29 00
	00		 mov	 ecx, DWORD PTR tv1158[rbp]
  01b9b	89 4c 24 20	 mov	 DWORD PTR [rsp+32], ecx
  01b9f	8b 8d 60 29 00
	00		 mov	 ecx, DWORD PTR tv1162[rbp]
  01ba5	44 8b c9	 mov	 r9d, ecx
  01ba8	44 0f bf c0	 movsx	 r8d, ax
  01bac	ba 05 00 00 00	 mov	 edx, 5
  01bb1	48 8d 8d 18 11
	00 00		 lea	 rcx, QWORD PTR $T59[rbp]
  01bb8	e8 00 00 00 00	 call	 ??0Chain@Rule@GRB@@QEAA@FFZZ ; GRB::Rule::Chain::Chain
  01bbd	48 8d 8d f0 22
	00 00		 lea	 rcx, QWORD PTR $T154[rbp]
  01bc4	48 8b f9	 mov	 rdi, rcx
  01bc7	48 8b f0	 mov	 rsi, rax
  01bca	b9 10 00 00 00	 mov	 ecx, 16
  01bcf	f3 a4		 rep movsb
  01bd1	b1 3b		 mov	 cl, 59			; 0000003bH
  01bd3	e8 00 00 00 00	 call	 ?T@Chain@Rule@GRB@@SAFD@Z ; GRB::Rule::Chain::T
  01bd8	98		 cwde
  01bd9	89 85 64 29 00
	00		 mov	 DWORD PTR tv1173[rbp], eax
  01bdf	b1 45		 mov	 cl, 69			; 00000045H
  01be1	e8 00 00 00 00	 call	 ?N@Chain@Rule@GRB@@SAFD@Z ; GRB::Rule::Chain::N
  01be6	98		 cwde
  01be7	89 85 68 29 00
	00		 mov	 DWORD PTR tv1177[rbp], eax
  01bed	b1 3d		 mov	 cl, 61			; 0000003dH
  01bef	e8 00 00 00 00	 call	 ?T@Chain@Rule@GRB@@SAFD@Z ; GRB::Rule::Chain::T
  01bf4	98		 cwde
  01bf5	89 85 6c 29 00
	00		 mov	 DWORD PTR tv1181[rbp], eax
  01bfb	b1 69		 mov	 cl, 105			; 00000069H
  01bfd	e8 00 00 00 00	 call	 ?T@Chain@Rule@GRB@@SAFD@Z ; GRB::Rule::Chain::T
  01c02	98		 cwde
  01c03	89 85 70 29 00
	00		 mov	 DWORD PTR tv1185[rbp], eax
  01c09	b1 74		 mov	 cl, 116			; 00000074H
  01c0b	e8 00 00 00 00	 call	 ?T@Chain@Rule@GRB@@SAFD@Z ; GRB::Rule::Chain::T
  01c10	8b 8d 64 29 00
	00		 mov	 ecx, DWORD PTR tv1173[rbp]
  01c16	89 4c 24 30	 mov	 DWORD PTR [rsp+48], ecx
  01c1a	8b 8d 68 29 00
	00		 mov	 ecx, DWORD PTR tv1177[rbp]
  01c20	89 4c 24 28	 mov	 DWORD PTR [rsp+40], ecx
  01c24	8b 8d 6c 29 00
	00		 mov	 ecx, DWORD PTR tv1181[rbp]
  01c2a	89 4c 24 20	 mov	 DWORD PTR [rsp+32], ecx
  01c2e	8b 8d 70 29 00
	00		 mov	 ecx, DWORD PTR tv1185[rbp]
  01c34	44 8b c9	 mov	 r9d, ecx
  01c37	44 0f bf c0	 movsx	 r8d, ax
  01c3b	ba 05 00 00 00	 mov	 edx, 5
  01c40	48 8d 8d 48 11
	00 00		 lea	 rcx, QWORD PTR $T60[rbp]
  01c47	e8 00 00 00 00	 call	 ??0Chain@Rule@GRB@@QEAA@FFZZ ; GRB::Rule::Chain::Chain
  01c4c	48 8d 8d c0 22
	00 00		 lea	 rcx, QWORD PTR $T153[rbp]
  01c53	48 8b f9	 mov	 rdi, rcx
  01c56	48 8b f0	 mov	 rsi, rax
  01c59	b9 10 00 00 00	 mov	 ecx, 16
  01c5e	f3 a4		 rep movsb
  01c60	b1 3b		 mov	 cl, 59			; 0000003bH
  01c62	e8 00 00 00 00	 call	 ?T@Chain@Rule@GRB@@SAFD@Z ; GRB::Rule::Chain::T
  01c67	98		 cwde
  01c68	89 85 74 29 00
	00		 mov	 DWORD PTR tv1196[rbp], eax
  01c6e	b1 45		 mov	 cl, 69			; 00000045H
  01c70	e8 00 00 00 00	 call	 ?N@Chain@Rule@GRB@@SAFD@Z ; GRB::Rule::Chain::N
  01c75	98		 cwde
  01c76	89 85 78 29 00
	00		 mov	 DWORD PTR tv1200[rbp], eax
  01c7c	b1 3d		 mov	 cl, 61			; 0000003dH
  01c7e	e8 00 00 00 00	 call	 ?T@Chain@Rule@GRB@@SAFD@Z ; GRB::Rule::Chain::T
  01c83	98		 cwde
  01c84	89 85 7c 29 00
	00		 mov	 DWORD PTR tv1204[rbp], eax
  01c8a	b1 69		 mov	 cl, 105			; 00000069H
  01c8c	e8 00 00 00 00	 call	 ?T@Chain@Rule@GRB@@SAFD@Z ; GRB::Rule::Chain::T
  01c91	8b 8d 74 29 00
	00		 mov	 ecx, DWORD PTR tv1196[rbp]
  01c97	89 4c 24 28	 mov	 DWORD PTR [rsp+40], ecx
  01c9b	8b 8d 78 29 00
	00		 mov	 ecx, DWORD PTR tv1200[rbp]
  01ca1	89 4c 24 20	 mov	 DWORD PTR [rsp+32], ecx
  01ca5	8b 8d 7c 29 00
	00		 mov	 ecx, DWORD PTR tv1204[rbp]
  01cab	44 8b c9	 mov	 r9d, ecx
  01cae	44 0f bf c0	 movsx	 r8d, ax
  01cb2	ba 04 00 00 00	 mov	 edx, 4
  01cb7	48 8d 8d 78 11
	00 00		 lea	 rcx, QWORD PTR $T61[rbp]
  01cbe	e8 00 00 00 00	 call	 ??0Chain@Rule@GRB@@QEAA@FFZZ ; GRB::Rule::Chain::Chain
  01cc3	48 8d 8d 90 22
	00 00		 lea	 rcx, QWORD PTR $T152[rbp]
  01cca	48 8b f9	 mov	 rdi, rcx
  01ccd	48 8b f0	 mov	 rsi, rax
  01cd0	b9 10 00 00 00	 mov	 ecx, 16
  01cd5	f3 a4		 rep movsb
  01cd7	b1 3b		 mov	 cl, 59			; 0000003bH
  01cd9	e8 00 00 00 00	 call	 ?T@Chain@Rule@GRB@@SAFD@Z ; GRB::Rule::Chain::T
  01cde	98		 cwde
  01cdf	89 85 80 29 00
	00		 mov	 DWORD PTR tv1215[rbp], eax
  01ce5	b1 29		 mov	 cl, 41			; 00000029H
  01ce7	e8 00 00 00 00	 call	 ?T@Chain@Rule@GRB@@SAFD@Z ; GRB::Rule::Chain::T
  01cec	98		 cwde
  01ced	89 85 84 29 00
	00		 mov	 DWORD PTR tv1219[rbp], eax
  01cf3	b1 28		 mov	 cl, 40			; 00000028H
  01cf5	e8 00 00 00 00	 call	 ?T@Chain@Rule@GRB@@SAFD@Z ; GRB::Rule::Chain::T
  01cfa	98		 cwde
  01cfb	89 85 88 29 00
	00		 mov	 DWORD PTR tv1223[rbp], eax
  01d01	b1 77		 mov	 cl, 119			; 00000077H
  01d03	e8 00 00 00 00	 call	 ?T@Chain@Rule@GRB@@SAFD@Z ; GRB::Rule::Chain::T
  01d08	8b 8d 80 29 00
	00		 mov	 ecx, DWORD PTR tv1215[rbp]
  01d0e	89 4c 24 28	 mov	 DWORD PTR [rsp+40], ecx
  01d12	8b 8d 84 29 00
	00		 mov	 ecx, DWORD PTR tv1219[rbp]
  01d18	89 4c 24 20	 mov	 DWORD PTR [rsp+32], ecx
  01d1c	8b 8d 88 29 00
	00		 mov	 ecx, DWORD PTR tv1223[rbp]
  01d22	44 8b c9	 mov	 r9d, ecx
  01d25	44 0f bf c0	 movsx	 r8d, ax
  01d29	ba 04 00 00 00	 mov	 edx, 4
  01d2e	48 8d 8d a8 11
	00 00		 lea	 rcx, QWORD PTR $T62[rbp]
  01d35	e8 00 00 00 00	 call	 ??0Chain@Rule@GRB@@QEAA@FFZZ ; GRB::Rule::Chain::Chain
  01d3a	48 8d 8d 60 22
	00 00		 lea	 rcx, QWORD PTR $T151[rbp]
  01d41	48 8b f9	 mov	 rdi, rcx
  01d44	48 8b f0	 mov	 rsi, rax
  01d47	b9 10 00 00 00	 mov	 ecx, 16
  01d4c	f3 a4		 rep movsb
  01d4e	b1 3b		 mov	 cl, 59			; 0000003bH
  01d50	e8 00 00 00 00	 call	 ?T@Chain@Rule@GRB@@SAFD@Z ; GRB::Rule::Chain::T
  01d55	98		 cwde
  01d56	89 85 8c 29 00
	00		 mov	 DWORD PTR tv1234[rbp], eax
  01d5c	b1 69		 mov	 cl, 105			; 00000069H
  01d5e	e8 00 00 00 00	 call	 ?T@Chain@Rule@GRB@@SAFD@Z ; GRB::Rule::Chain::T
  01d63	98		 cwde
  01d64	89 85 90 29 00
	00		 mov	 DWORD PTR tv1238[rbp], eax
  01d6a	b1 74		 mov	 cl, 116			; 00000074H
  01d6c	e8 00 00 00 00	 call	 ?T@Chain@Rule@GRB@@SAFD@Z ; GRB::Rule::Chain::T
  01d71	8b 8d 8c 29 00
	00		 mov	 ecx, DWORD PTR tv1234[rbp]
  01d77	89 4c 24 20	 mov	 DWORD PTR [rsp+32], ecx
  01d7b	8b 8d 90 29 00
	00		 mov	 ecx, DWORD PTR tv1238[rbp]
  01d81	44 8b c9	 mov	 r9d, ecx
  01d84	44 0f bf c0	 movsx	 r8d, ax
  01d88	ba 03 00 00 00	 mov	 edx, 3
  01d8d	48 8d 8d d8 11
	00 00		 lea	 rcx, QWORD PTR $T63[rbp]
  01d94	e8 00 00 00 00	 call	 ??0Chain@Rule@GRB@@QEAA@FFZZ ; GRB::Rule::Chain::Chain
  01d99	48 8d 8d 30 22
	00 00		 lea	 rcx, QWORD PTR $T150[rbp]
  01da0	48 8b f9	 mov	 rdi, rcx
  01da3	48 8b f0	 mov	 rsi, rax
  01da6	b9 10 00 00 00	 mov	 ecx, 16
  01dab	f3 a4		 rep movsb
  01dad	b1 3b		 mov	 cl, 59			; 0000003bH
  01daf	e8 00 00 00 00	 call	 ?T@Chain@Rule@GRB@@SAFD@Z ; GRB::Rule::Chain::T
  01db4	98		 cwde
  01db5	89 85 94 29 00
	00		 mov	 DWORD PTR tv1281[rbp], eax
  01dbb	b1 45		 mov	 cl, 69			; 00000045H
  01dbd	e8 00 00 00 00	 call	 ?N@Chain@Rule@GRB@@SAFD@Z ; GRB::Rule::Chain::N
  01dc2	98		 cwde
  01dc3	89 85 98 29 00
	00		 mov	 DWORD PTR tv1285[rbp], eax
  01dc9	b1 72		 mov	 cl, 114			; 00000072H
  01dcb	e8 00 00 00 00	 call	 ?T@Chain@Rule@GRB@@SAFD@Z ; GRB::Rule::Chain::T
  01dd0	8b 8d 94 29 00
	00		 mov	 ecx, DWORD PTR tv1281[rbp]
  01dd6	89 4c 24 20	 mov	 DWORD PTR [rsp+32], ecx
  01dda	8b 8d 98 29 00
	00		 mov	 ecx, DWORD PTR tv1285[rbp]
  01de0	44 8b c9	 mov	 r9d, ecx
  01de3	44 0f bf c0	 movsx	 r8d, ax
  01de7	ba 03 00 00 00	 mov	 edx, 3
  01dec	48 8d 8d 08 12
	00 00		 lea	 rcx, QWORD PTR $T64[rbp]
  01df3	e8 00 00 00 00	 call	 ??0Chain@Rule@GRB@@QEAA@FFZZ ; GRB::Rule::Chain::Chain
  01df8	48 8d 8d 00 22
	00 00		 lea	 rcx, QWORD PTR $T149[rbp]
  01dff	48 8b f9	 mov	 rdi, rcx
  01e02	48 8b f0	 mov	 rsi, rax
  01e05	b9 10 00 00 00	 mov	 ecx, 16
  01e0a	f3 a4		 rep movsb
  01e0c	b1 3b		 mov	 cl, 59			; 0000003bH
  01e0e	e8 00 00 00 00	 call	 ?T@Chain@Rule@GRB@@SAFD@Z ; GRB::Rule::Chain::T
  01e13	98		 cwde
  01e14	89 85 9c 29 00
	00		 mov	 DWORD PTR tv1296[rbp], eax
  01e1a	b1 6e		 mov	 cl, 110			; 0000006eH
  01e1c	e8 00 00 00 00	 call	 ?T@Chain@Rule@GRB@@SAFD@Z ; GRB::Rule::Chain::T
  01e21	98		 cwde
  01e22	89 85 a0 29 00
	00		 mov	 DWORD PTR tv1300[rbp], eax
  01e28	b1 69		 mov	 cl, 105			; 00000069H
  01e2a	e8 00 00 00 00	 call	 ?T@Chain@Rule@GRB@@SAFD@Z ; GRB::Rule::Chain::T
  01e2f	8b 8d 9c 29 00
	00		 mov	 ecx, DWORD PTR tv1296[rbp]
  01e35	89 4c 24 20	 mov	 DWORD PTR [rsp+32], ecx
  01e39	8b 8d a0 29 00
	00		 mov	 ecx, DWORD PTR tv1300[rbp]
  01e3f	44 8b c9	 mov	 r9d, ecx
  01e42	44 0f bf c0	 movsx	 r8d, ax
  01e46	ba 03 00 00 00	 mov	 edx, 3
  01e4b	48 8d 8d 38 12
	00 00		 lea	 rcx, QWORD PTR $T65[rbp]
  01e52	e8 00 00 00 00	 call	 ??0Chain@Rule@GRB@@QEAA@FFZZ ; GRB::Rule::Chain::Chain
  01e57	48 8d 8d d0 21
	00 00		 lea	 rcx, QWORD PTR $T148[rbp]
  01e5e	48 8b f9	 mov	 rdi, rcx
  01e61	48 8b f0	 mov	 rsi, rax
  01e64	b9 10 00 00 00	 mov	 ecx, 16
  01e69	f3 a4		 rep movsb
  01e6b	b1 3b		 mov	 cl, 59			; 0000003bH
  01e6d	e8 00 00 00 00	 call	 ?T@Chain@Rule@GRB@@SAFD@Z ; GRB::Rule::Chain::T
  01e72	98		 cwde
  01e73	89 85 a4 29 00
	00		 mov	 DWORD PTR tv1311[rbp], eax
  01e79	b1 6f		 mov	 cl, 111			; 0000006fH
  01e7b	e8 00 00 00 00	 call	 ?T@Chain@Rule@GRB@@SAFD@Z ; GRB::Rule::Chain::T
  01e80	8b 8d a4 29 00
	00		 mov	 ecx, DWORD PTR tv1311[rbp]
  01e86	44 8b c9	 mov	 r9d, ecx
  01e89	44 0f bf c0	 movsx	 r8d, ax
  01e8d	ba 02 00 00 00	 mov	 edx, 2
  01e92	48 8d 8d 68 12
	00 00		 lea	 rcx, QWORD PTR $T66[rbp]
  01e99	e8 00 00 00 00	 call	 ??0Chain@Rule@GRB@@QEAA@FFZZ ; GRB::Rule::Chain::Chain
  01e9e	48 8d 8d a0 21
	00 00		 lea	 rcx, QWORD PTR $T147[rbp]
  01ea5	48 8b f9	 mov	 rdi, rcx
  01ea8	48 8b f0	 mov	 rsi, rax
  01eab	b9 10 00 00 00	 mov	 ecx, 16
  01eb0	f3 a4		 rep movsb
  01eb2	b1 4e		 mov	 cl, 78			; 0000004eH
  01eb4	e8 00 00 00 00	 call	 ?N@Chain@Rule@GRB@@SAFD@Z ; GRB::Rule::Chain::N
  01eb9	98		 cwde
  01eba	89 85 a8 29 00
	00		 mov	 DWORD PTR tv1322[rbp], eax
  01ec0	b1 3b		 mov	 cl, 59			; 0000003bH
  01ec2	e8 00 00 00 00	 call	 ?T@Chain@Rule@GRB@@SAFD@Z ; GRB::Rule::Chain::T
  01ec7	98		 cwde
  01ec8	89 85 ac 29 00
	00		 mov	 DWORD PTR tv1326[rbp], eax
  01ece	b1 29		 mov	 cl, 41			; 00000029H
  01ed0	e8 00 00 00 00	 call	 ?T@Chain@Rule@GRB@@SAFD@Z ; GRB::Rule::Chain::T
  01ed5	98		 cwde
  01ed6	89 85 b0 29 00
	00		 mov	 DWORD PTR tv1330[rbp], eax
  01edc	b1 58		 mov	 cl, 88			; 00000058H
  01ede	e8 00 00 00 00	 call	 ?N@Chain@Rule@GRB@@SAFD@Z ; GRB::Rule::Chain::N
  01ee3	98		 cwde
  01ee4	89 85 b4 29 00
	00		 mov	 DWORD PTR tv1334[rbp], eax
  01eea	b1 63		 mov	 cl, 99			; 00000063H
  01eec	e8 00 00 00 00	 call	 ?T@Chain@Rule@GRB@@SAFD@Z ; GRB::Rule::Chain::T
  01ef1	98		 cwde
  01ef2	89 85 b8 29 00
	00		 mov	 DWORD PTR tv1338[rbp], eax
  01ef8	b1 58		 mov	 cl, 88			; 00000058H
  01efa	e8 00 00 00 00	 call	 ?N@Chain@Rule@GRB@@SAFD@Z ; GRB::Rule::Chain::N
  01eff	98		 cwde
  01f00	89 85 bc 29 00
	00		 mov	 DWORD PTR tv1342[rbp], eax
  01f06	b1 28		 mov	 cl, 40			; 00000028H
  01f08	e8 00 00 00 00	 call	 ?T@Chain@Rule@GRB@@SAFD@Z ; GRB::Rule::Chain::T
  01f0d	98		 cwde
  01f0e	89 85 c0 29 00
	00		 mov	 DWORD PTR tv1346[rbp], eax
  01f14	b1 75		 mov	 cl, 117			; 00000075H
  01f16	e8 00 00 00 00	 call	 ?T@Chain@Rule@GRB@@SAFD@Z ; GRB::Rule::Chain::T
  01f1b	98		 cwde
  01f1c	89 85 c4 29 00
	00		 mov	 DWORD PTR tv1350[rbp], eax
  01f22	b1 7d		 mov	 cl, 125			; 0000007dH
  01f24	e8 00 00 00 00	 call	 ?T@Chain@Rule@GRB@@SAFD@Z ; GRB::Rule::Chain::T
  01f29	98		 cwde
  01f2a	89 85 c8 29 00
	00		 mov	 DWORD PTR tv1354[rbp], eax
  01f30	b1 4e		 mov	 cl, 78			; 0000004eH
  01f32	e8 00 00 00 00	 call	 ?N@Chain@Rule@GRB@@SAFD@Z ; GRB::Rule::Chain::N
  01f37	98		 cwde
  01f38	89 85 cc 29 00
	00		 mov	 DWORD PTR tv1358[rbp], eax
  01f3e	b1 7b		 mov	 cl, 123			; 0000007bH
  01f40	e8 00 00 00 00	 call	 ?T@Chain@Rule@GRB@@SAFD@Z ; GRB::Rule::Chain::T
  01f45	98		 cwde
  01f46	89 85 d0 29 00
	00		 mov	 DWORD PTR tv1362[rbp], eax
  01f4c	b1 70		 mov	 cl, 112			; 00000070H
  01f4e	e8 00 00 00 00	 call	 ?T@Chain@Rule@GRB@@SAFD@Z ; GRB::Rule::Chain::T
  01f53	8b 8d a8 29 00
	00		 mov	 ecx, DWORD PTR tv1322[rbp]
  01f59	89 4c 24 68	 mov	 DWORD PTR [rsp+104], ecx
  01f5d	8b 8d ac 29 00
	00		 mov	 ecx, DWORD PTR tv1326[rbp]
  01f63	89 4c 24 60	 mov	 DWORD PTR [rsp+96], ecx
  01f67	8b 8d b0 29 00
	00		 mov	 ecx, DWORD PTR tv1330[rbp]
  01f6d	89 4c 24 58	 mov	 DWORD PTR [rsp+88], ecx
  01f71	8b 8d b4 29 00
	00		 mov	 ecx, DWORD PTR tv1334[rbp]
  01f77	89 4c 24 50	 mov	 DWORD PTR [rsp+80], ecx
  01f7b	8b 8d b8 29 00
	00		 mov	 ecx, DWORD PTR tv1338[rbp]
  01f81	89 4c 24 48	 mov	 DWORD PTR [rsp+72], ecx
  01f85	8b 8d bc 29 00
	00		 mov	 ecx, DWORD PTR tv1342[rbp]
  01f8b	89 4c 24 40	 mov	 DWORD PTR [rsp+64], ecx
  01f8f	8b 8d c0 29 00
	00		 mov	 ecx, DWORD PTR tv1346[rbp]
  01f95	89 4c 24 38	 mov	 DWORD PTR [rsp+56], ecx
  01f99	8b 8d c4 29 00
	00		 mov	 ecx, DWORD PTR tv1350[rbp]
  01f9f	89 4c 24 30	 mov	 DWORD PTR [rsp+48], ecx
  01fa3	8b 8d c8 29 00
	00		 mov	 ecx, DWORD PTR tv1354[rbp]
  01fa9	89 4c 24 28	 mov	 DWORD PTR [rsp+40], ecx
  01fad	8b 8d cc 29 00
	00		 mov	 ecx, DWORD PTR tv1358[rbp]
  01fb3	89 4c 24 20	 mov	 DWORD PTR [rsp+32], ecx
  01fb7	8b 8d d0 29 00
	00		 mov	 ecx, DWORD PTR tv1362[rbp]
  01fbd	44 8b c9	 mov	 r9d, ecx
  01fc0	44 0f bf c0	 movsx	 r8d, ax
  01fc4	ba 0c 00 00 00	 mov	 edx, 12
  01fc9	48 8d 8d 98 12
	00 00		 lea	 rcx, QWORD PTR $T67[rbp]
  01fd0	e8 00 00 00 00	 call	 ??0Chain@Rule@GRB@@QEAA@FFZZ ; GRB::Rule::Chain::Chain
  01fd5	48 8d 8d 70 21
	00 00		 lea	 rcx, QWORD PTR $T146[rbp]
  01fdc	48 8b f9	 mov	 rdi, rcx
  01fdf	48 8b f0	 mov	 rsi, rax
  01fe2	b9 10 00 00 00	 mov	 ecx, 16
  01fe7	f3 a4		 rep movsb
  01fe9	b1 4e		 mov	 cl, 78			; 0000004eH
  01feb	e8 00 00 00 00	 call	 ?N@Chain@Rule@GRB@@SAFD@Z ; GRB::Rule::Chain::N
  01ff0	98		 cwde
  01ff1	89 85 d4 29 00
	00		 mov	 DWORD PTR tv1373[rbp], eax
  01ff7	b1 3b		 mov	 cl, 59			; 0000003bH
  01ff9	e8 00 00 00 00	 call	 ?T@Chain@Rule@GRB@@SAFD@Z ; GRB::Rule::Chain::T
  01ffe	98		 cwde
  01fff	89 85 d8 29 00
	00		 mov	 DWORD PTR tv1377[rbp], eax
  02005	b1 7d		 mov	 cl, 125			; 0000007dH
  02007	e8 00 00 00 00	 call	 ?T@Chain@Rule@GRB@@SAFD@Z ; GRB::Rule::Chain::T
  0200c	98		 cwde
  0200d	89 85 dc 29 00
	00		 mov	 DWORD PTR tv1381[rbp], eax
  02013	b1 41		 mov	 cl, 65			; 00000041H
  02015	e8 00 00 00 00	 call	 ?N@Chain@Rule@GRB@@SAFD@Z ; GRB::Rule::Chain::N
  0201a	98		 cwde
  0201b	89 85 e0 29 00
	00		 mov	 DWORD PTR tv1385[rbp], eax
  02021	b1 7b		 mov	 cl, 123			; 0000007bH
  02023	e8 00 00 00 00	 call	 ?T@Chain@Rule@GRB@@SAFD@Z ; GRB::Rule::Chain::T
  02028	98		 cwde
  02029	89 85 e4 29 00
	00		 mov	 DWORD PTR tv1389[rbp], eax
  0202f	b1 3d		 mov	 cl, 61			; 0000003dH
  02031	e8 00 00 00 00	 call	 ?T@Chain@Rule@GRB@@SAFD@Z ; GRB::Rule::Chain::T
  02036	98		 cwde
  02037	89 85 e8 29 00
	00		 mov	 DWORD PTR tv1393[rbp], eax
  0203d	b1 5d		 mov	 cl, 93			; 0000005dH
  0203f	e8 00 00 00 00	 call	 ?T@Chain@Rule@GRB@@SAFD@Z ; GRB::Rule::Chain::T
  02044	98		 cwde
  02045	89 85 ec 29 00
	00		 mov	 DWORD PTR tv1397[rbp], eax
  0204b	b1 45		 mov	 cl, 69			; 00000045H
  0204d	e8 00 00 00 00	 call	 ?N@Chain@Rule@GRB@@SAFD@Z ; GRB::Rule::Chain::N
  02052	98		 cwde
  02053	89 85 f0 29 00
	00		 mov	 DWORD PTR tv1401[rbp], eax
  02059	b1 5b		 mov	 cl, 91			; 0000005bH
  0205b	e8 00 00 00 00	 call	 ?T@Chain@Rule@GRB@@SAFD@Z ; GRB::Rule::Chain::T
  02060	98		 cwde
  02061	89 85 f4 29 00
	00		 mov	 DWORD PTR tv1405[rbp], eax
  02067	b1 69		 mov	 cl, 105			; 00000069H
  02069	e8 00 00 00 00	 call	 ?T@Chain@Rule@GRB@@SAFD@Z ; GRB::Rule::Chain::T
  0206e	98		 cwde
  0206f	89 85 f8 29 00
	00		 mov	 DWORD PTR tv1409[rbp], eax
  02075	b1 74		 mov	 cl, 116			; 00000074H
  02077	e8 00 00 00 00	 call	 ?T@Chain@Rule@GRB@@SAFD@Z ; GRB::Rule::Chain::T
  0207c	8b 8d d4 29 00
	00		 mov	 ecx, DWORD PTR tv1373[rbp]
  02082	89 4c 24 60	 mov	 DWORD PTR [rsp+96], ecx
  02086	8b 8d d8 29 00
	00		 mov	 ecx, DWORD PTR tv1377[rbp]
  0208c	89 4c 24 58	 mov	 DWORD PTR [rsp+88], ecx
  02090	8b 8d dc 29 00
	00		 mov	 ecx, DWORD PTR tv1381[rbp]
  02096	89 4c 24 50	 mov	 DWORD PTR [rsp+80], ecx
  0209a	8b 8d e0 29 00
	00		 mov	 ecx, DWORD PTR tv1385[rbp]
  020a0	89 4c 24 48	 mov	 DWORD PTR [rsp+72], ecx
  020a4	8b 8d e4 29 00
	00		 mov	 ecx, DWORD PTR tv1389[rbp]
  020aa	89 4c 24 40	 mov	 DWORD PTR [rsp+64], ecx
  020ae	8b 8d e8 29 00
	00		 mov	 ecx, DWORD PTR tv1393[rbp]
  020b4	89 4c 24 38	 mov	 DWORD PTR [rsp+56], ecx
  020b8	8b 8d ec 29 00
	00		 mov	 ecx, DWORD PTR tv1397[rbp]
  020be	89 4c 24 30	 mov	 DWORD PTR [rsp+48], ecx
  020c2	8b 8d f0 29 00
	00		 mov	 ecx, DWORD PTR tv1401[rbp]
  020c8	89 4c 24 28	 mov	 DWORD PTR [rsp+40], ecx
  020cc	8b 8d f4 29 00
	00		 mov	 ecx, DWORD PTR tv1405[rbp]
  020d2	89 4c 24 20	 mov	 DWORD PTR [rsp+32], ecx
  020d6	8b 8d f8 29 00
	00		 mov	 ecx, DWORD PTR tv1409[rbp]
  020dc	44 8b c9	 mov	 r9d, ecx
  020df	44 0f bf c0	 movsx	 r8d, ax
  020e3	ba 0b 00 00 00	 mov	 edx, 11
  020e8	48 8d 8d c8 12
	00 00		 lea	 rcx, QWORD PTR $T68[rbp]
  020ef	e8 00 00 00 00	 call	 ??0Chain@Rule@GRB@@QEAA@FFZZ ; GRB::Rule::Chain::Chain
  020f4	48 8d 8d 40 21
	00 00		 lea	 rcx, QWORD PTR $T145[rbp]
  020fb	48 8b f9	 mov	 rdi, rcx
  020fe	48 8b f0	 mov	 rsi, rax
  02101	b9 10 00 00 00	 mov	 ecx, 16
  02106	f3 a4		 rep movsb
  02108	b1 4e		 mov	 cl, 78			; 0000004eH
  0210a	e8 00 00 00 00	 call	 ?N@Chain@Rule@GRB@@SAFD@Z ; GRB::Rule::Chain::N
  0210f	98		 cwde
  02110	89 85 fc 29 00
	00		 mov	 DWORD PTR tv1420[rbp], eax
  02116	b1 7d		 mov	 cl, 125			; 0000007dH
  02118	e8 00 00 00 00	 call	 ?T@Chain@Rule@GRB@@SAFD@Z ; GRB::Rule::Chain::T
  0211d	98		 cwde
  0211e	89 85 00 2a 00
	00		 mov	 DWORD PTR tv1424[rbp], eax
  02124	b1 4e		 mov	 cl, 78			; 0000004eH
  02126	e8 00 00 00 00	 call	 ?N@Chain@Rule@GRB@@SAFD@Z ; GRB::Rule::Chain::N
  0212b	98		 cwde
  0212c	89 85 04 2a 00
	00		 mov	 DWORD PTR tv1428[rbp], eax
  02132	b1 7b		 mov	 cl, 123			; 0000007bH
  02134	e8 00 00 00 00	 call	 ?T@Chain@Rule@GRB@@SAFD@Z ; GRB::Rule::Chain::T
  02139	98		 cwde
  0213a	89 85 08 2a 00
	00		 mov	 DWORD PTR tv1432[rbp], eax
  02140	b1 29		 mov	 cl, 41			; 00000029H
  02142	e8 00 00 00 00	 call	 ?T@Chain@Rule@GRB@@SAFD@Z ; GRB::Rule::Chain::T
  02147	98		 cwde
  02148	89 85 0c 2a 00
	00		 mov	 DWORD PTR tv1436[rbp], eax
  0214e	b1 58		 mov	 cl, 88			; 00000058H
  02150	e8 00 00 00 00	 call	 ?N@Chain@Rule@GRB@@SAFD@Z ; GRB::Rule::Chain::N
  02155	98		 cwde
  02156	89 85 10 2a 00
	00		 mov	 DWORD PTR tv1440[rbp], eax
  0215c	b1 28		 mov	 cl, 40			; 00000028H
  0215e	e8 00 00 00 00	 call	 ?T@Chain@Rule@GRB@@SAFD@Z ; GRB::Rule::Chain::T
  02163	98		 cwde
  02164	89 85 14 2a 00
	00		 mov	 DWORD PTR tv1444[rbp], eax
  0216a	b1 7a		 mov	 cl, 122			; 0000007aH
  0216c	e8 00 00 00 00	 call	 ?T@Chain@Rule@GRB@@SAFD@Z ; GRB::Rule::Chain::T
  02171	8b 8d fc 29 00
	00		 mov	 ecx, DWORD PTR tv1420[rbp]
  02177	89 4c 24 48	 mov	 DWORD PTR [rsp+72], ecx
  0217b	8b 8d 00 2a 00
	00		 mov	 ecx, DWORD PTR tv1424[rbp]
  02181	89 4c 24 40	 mov	 DWORD PTR [rsp+64], ecx
  02185	8b 8d 04 2a 00
	00		 mov	 ecx, DWORD PTR tv1428[rbp]
  0218b	89 4c 24 38	 mov	 DWORD PTR [rsp+56], ecx
  0218f	8b 8d 08 2a 00
	00		 mov	 ecx, DWORD PTR tv1432[rbp]
  02195	89 4c 24 30	 mov	 DWORD PTR [rsp+48], ecx
  02199	8b 8d 0c 2a 00
	00		 mov	 ecx, DWORD PTR tv1436[rbp]
  0219f	89 4c 24 28	 mov	 DWORD PTR [rsp+40], ecx
  021a3	8b 8d 10 2a 00
	00		 mov	 ecx, DWORD PTR tv1440[rbp]
  021a9	89 4c 24 20	 mov	 DWORD PTR [rsp+32], ecx
  021ad	8b 8d 14 2a 00
	00		 mov	 ecx, DWORD PTR tv1444[rbp]
  021b3	44 8b c9	 mov	 r9d, ecx
  021b6	44 0f bf c0	 movsx	 r8d, ax
  021ba	ba 08 00 00 00	 mov	 edx, 8
  021bf	48 8d 8d f8 12
	00 00		 lea	 rcx, QWORD PTR $T69[rbp]
  021c6	e8 00 00 00 00	 call	 ??0Chain@Rule@GRB@@QEAA@FFZZ ; GRB::Rule::Chain::Chain
  021cb	48 8d 8d 10 21
	00 00		 lea	 rcx, QWORD PTR $T144[rbp]
  021d2	48 8b f9	 mov	 rdi, rcx
  021d5	48 8b f0	 mov	 rsi, rax
  021d8	b9 10 00 00 00	 mov	 ecx, 16
  021dd	f3 a4		 rep movsb
  021df	b1 42		 mov	 cl, 66			; 00000042H
  021e1	e8 00 00 00 00	 call	 ?N@Chain@Rule@GRB@@SAFD@Z ; GRB::Rule::Chain::N
  021e6	98		 cwde
  021e7	89 85 18 2a 00
	00		 mov	 DWORD PTR tv1455[rbp], eax
  021ed	b1 7d		 mov	 cl, 125			; 0000007dH
  021ef	e8 00 00 00 00	 call	 ?T@Chain@Rule@GRB@@SAFD@Z ; GRB::Rule::Chain::T
  021f4	98		 cwde
  021f5	89 85 1c 2a 00
	00		 mov	 DWORD PTR tv1459[rbp], eax
  021fb	b1 4e		 mov	 cl, 78			; 0000004eH
  021fd	e8 00 00 00 00	 call	 ?N@Chain@Rule@GRB@@SAFD@Z ; GRB::Rule::Chain::N
  02202	98		 cwde
  02203	89 85 20 2a 00
	00		 mov	 DWORD PTR tv1463[rbp], eax
  02209	b1 7b		 mov	 cl, 123			; 0000007bH
  0220b	e8 00 00 00 00	 call	 ?T@Chain@Rule@GRB@@SAFD@Z ; GRB::Rule::Chain::T
  02210	98		 cwde
  02211	89 85 24 2a 00
	00		 mov	 DWORD PTR tv1467[rbp], eax
  02217	b1 29		 mov	 cl, 41			; 00000029H
  02219	e8 00 00 00 00	 call	 ?T@Chain@Rule@GRB@@SAFD@Z ; GRB::Rule::Chain::T
  0221e	98		 cwde
  0221f	89 85 28 2a 00
	00		 mov	 DWORD PTR tv1471[rbp], eax
  02225	b1 58		 mov	 cl, 88			; 00000058H
  02227	e8 00 00 00 00	 call	 ?N@Chain@Rule@GRB@@SAFD@Z ; GRB::Rule::Chain::N
  0222c	98		 cwde
  0222d	89 85 2c 2a 00
	00		 mov	 DWORD PTR tv1475[rbp], eax
  02233	b1 28		 mov	 cl, 40			; 00000028H
  02235	e8 00 00 00 00	 call	 ?T@Chain@Rule@GRB@@SAFD@Z ; GRB::Rule::Chain::T
  0223a	98		 cwde
  0223b	89 85 30 2a 00
	00		 mov	 DWORD PTR tv1479[rbp], eax
  02241	b1 7a		 mov	 cl, 122			; 0000007aH
  02243	e8 00 00 00 00	 call	 ?T@Chain@Rule@GRB@@SAFD@Z ; GRB::Rule::Chain::T
  02248	8b 8d 18 2a 00
	00		 mov	 ecx, DWORD PTR tv1455[rbp]
  0224e	89 4c 24 48	 mov	 DWORD PTR [rsp+72], ecx
  02252	8b 8d 1c 2a 00
	00		 mov	 ecx, DWORD PTR tv1459[rbp]
  02258	89 4c 24 40	 mov	 DWORD PTR [rsp+64], ecx
  0225c	8b 8d 20 2a 00
	00		 mov	 ecx, DWORD PTR tv1463[rbp]
  02262	89 4c 24 38	 mov	 DWORD PTR [rsp+56], ecx
  02266	8b 8d 24 2a 00
	00		 mov	 ecx, DWORD PTR tv1467[rbp]
  0226c	89 4c 24 30	 mov	 DWORD PTR [rsp+48], ecx
  02270	8b 8d 28 2a 00
	00		 mov	 ecx, DWORD PTR tv1471[rbp]
  02276	89 4c 24 28	 mov	 DWORD PTR [rsp+40], ecx
  0227a	8b 8d 2c 2a 00
	00		 mov	 ecx, DWORD PTR tv1475[rbp]
  02280	89 4c 24 20	 mov	 DWORD PTR [rsp+32], ecx
  02284	8b 8d 30 2a 00
	00		 mov	 ecx, DWORD PTR tv1479[rbp]
  0228a	44 8b c9	 mov	 r9d, ecx
  0228d	44 0f bf c0	 movsx	 r8d, ax
  02291	ba 08 00 00 00	 mov	 edx, 8
  02296	48 8d 8d 28 13
	00 00		 lea	 rcx, QWORD PTR $T70[rbp]
  0229d	e8 00 00 00 00	 call	 ??0Chain@Rule@GRB@@QEAA@FFZZ ; GRB::Rule::Chain::Chain
  022a2	48 8d 8d e0 20
	00 00		 lea	 rcx, QWORD PTR $T143[rbp]
  022a9	48 8b f9	 mov	 rdi, rcx
  022ac	48 8b f0	 mov	 rsi, rax
  022af	b9 10 00 00 00	 mov	 ecx, 16
  022b4	f3 a4		 rep movsb
  022b6	b1 4e		 mov	 cl, 78			; 0000004eH
  022b8	e8 00 00 00 00	 call	 ?N@Chain@Rule@GRB@@SAFD@Z ; GRB::Rule::Chain::N
  022bd	98		 cwde
  022be	89 85 34 2a 00
	00		 mov	 DWORD PTR tv1490[rbp], eax
  022c4	b1 7d		 mov	 cl, 125			; 0000007dH
  022c6	e8 00 00 00 00	 call	 ?T@Chain@Rule@GRB@@SAFD@Z ; GRB::Rule::Chain::T
  022cb	98		 cwde
  022cc	89 85 38 2a 00
	00		 mov	 DWORD PTR tv1494[rbp], eax
  022d2	b1 4e		 mov	 cl, 78			; 0000004eH
  022d4	e8 00 00 00 00	 call	 ?N@Chain@Rule@GRB@@SAFD@Z ; GRB::Rule::Chain::N
  022d9	98		 cwde
  022da	89 85 3c 2a 00
	00		 mov	 DWORD PTR tv1498[rbp], eax
  022e0	b1 7b		 mov	 cl, 123			; 0000007bH
  022e2	e8 00 00 00 00	 call	 ?T@Chain@Rule@GRB@@SAFD@Z ; GRB::Rule::Chain::T
  022e7	98		 cwde
  022e8	89 85 40 2a 00
	00		 mov	 DWORD PTR tv1502[rbp], eax
  022ee	b1 29		 mov	 cl, 41			; 00000029H
  022f0	e8 00 00 00 00	 call	 ?T@Chain@Rule@GRB@@SAFD@Z ; GRB::Rule::Chain::T
  022f5	98		 cwde
  022f6	89 85 44 2a 00
	00		 mov	 DWORD PTR tv1506[rbp], eax
  022fc	b1 58		 mov	 cl, 88			; 00000058H
  022fe	e8 00 00 00 00	 call	 ?N@Chain@Rule@GRB@@SAFD@Z ; GRB::Rule::Chain::N
  02303	98		 cwde
  02304	89 85 48 2a 00
	00		 mov	 DWORD PTR tv1510[rbp], eax
  0230a	b1 63		 mov	 cl, 99			; 00000063H
  0230c	e8 00 00 00 00	 call	 ?T@Chain@Rule@GRB@@SAFD@Z ; GRB::Rule::Chain::T
  02311	98		 cwde
  02312	89 85 4c 2a 00
	00		 mov	 DWORD PTR tv1514[rbp], eax
  02318	b1 58		 mov	 cl, 88			; 00000058H
  0231a	e8 00 00 00 00	 call	 ?N@Chain@Rule@GRB@@SAFD@Z ; GRB::Rule::Chain::N
  0231f	98		 cwde
  02320	89 85 50 2a 00
	00		 mov	 DWORD PTR tv1518[rbp], eax
  02326	b1 28		 mov	 cl, 40			; 00000028H
  02328	e8 00 00 00 00	 call	 ?T@Chain@Rule@GRB@@SAFD@Z ; GRB::Rule::Chain::T
  0232d	98		 cwde
  0232e	89 85 54 2a 00
	00		 mov	 DWORD PTR tv1522[rbp], eax
  02334	b1 7a		 mov	 cl, 122			; 0000007aH
  02336	e8 00 00 00 00	 call	 ?T@Chain@Rule@GRB@@SAFD@Z ; GRB::Rule::Chain::T
  0233b	8b 8d 34 2a 00
	00		 mov	 ecx, DWORD PTR tv1490[rbp]
  02341	89 4c 24 58	 mov	 DWORD PTR [rsp+88], ecx
  02345	8b 8d 38 2a 00
	00		 mov	 ecx, DWORD PTR tv1494[rbp]
  0234b	89 4c 24 50	 mov	 DWORD PTR [rsp+80], ecx
  0234f	8b 8d 3c 2a 00
	00		 mov	 ecx, DWORD PTR tv1498[rbp]
  02355	89 4c 24 48	 mov	 DWORD PTR [rsp+72], ecx
  02359	8b 8d 40 2a 00
	00		 mov	 ecx, DWORD PTR tv1502[rbp]
  0235f	89 4c 24 40	 mov	 DWORD PTR [rsp+64], ecx
  02363	8b 8d 44 2a 00
	00		 mov	 ecx, DWORD PTR tv1506[rbp]
  02369	89 4c 24 38	 mov	 DWORD PTR [rsp+56], ecx
  0236d	8b 8d 48 2a 00
	00		 mov	 ecx, DWORD PTR tv1510[rbp]
  02373	89 4c 24 30	 mov	 DWORD PTR [rsp+48], ecx
  02377	8b 8d 4c 2a 00
	00		 mov	 ecx, DWORD PTR tv1514[rbp]
  0237d	89 4c 24 28	 mov	 DWORD PTR [rsp+40], ecx
  02381	8b 8d 50 2a 00
	00		 mov	 ecx, DWORD PTR tv1518[rbp]
  02387	89 4c 24 20	 mov	 DWORD PTR [rsp+32], ecx
  0238b	8b 8d 54 2a 00
	00		 mov	 ecx, DWORD PTR tv1522[rbp]
  02391	44 8b c9	 mov	 r9d, ecx
  02394	44 0f bf c0	 movsx	 r8d, ax
  02398	ba 0a 00 00 00	 mov	 edx, 10
  0239d	48 8d 8d 58 13
	00 00		 lea	 rcx, QWORD PTR $T71[rbp]
  023a4	e8 00 00 00 00	 call	 ??0Chain@Rule@GRB@@QEAA@FFZZ ; GRB::Rule::Chain::Chain
  023a9	48 8d 8d b0 20
	00 00		 lea	 rcx, QWORD PTR $T142[rbp]
  023b0	48 8b f9	 mov	 rdi, rcx
  023b3	48 8b f0	 mov	 rsi, rax
  023b6	b9 10 00 00 00	 mov	 ecx, 16
  023bb	f3 a4		 rep movsb
  023bd	b1 42		 mov	 cl, 66			; 00000042H
  023bf	e8 00 00 00 00	 call	 ?N@Chain@Rule@GRB@@SAFD@Z ; GRB::Rule::Chain::N
  023c4	98		 cwde
  023c5	89 85 58 2a 00
	00		 mov	 DWORD PTR tv1533[rbp], eax
  023cb	b1 7d		 mov	 cl, 125			; 0000007dH
  023cd	e8 00 00 00 00	 call	 ?T@Chain@Rule@GRB@@SAFD@Z ; GRB::Rule::Chain::T
  023d2	98		 cwde
  023d3	89 85 5c 2a 00
	00		 mov	 DWORD PTR tv1537[rbp], eax
  023d9	b1 4e		 mov	 cl, 78			; 0000004eH
  023db	e8 00 00 00 00	 call	 ?N@Chain@Rule@GRB@@SAFD@Z ; GRB::Rule::Chain::N
  023e0	98		 cwde
  023e1	89 85 60 2a 00
	00		 mov	 DWORD PTR tv1541[rbp], eax
  023e7	b1 7b		 mov	 cl, 123			; 0000007bH
  023e9	e8 00 00 00 00	 call	 ?T@Chain@Rule@GRB@@SAFD@Z ; GRB::Rule::Chain::T
  023ee	98		 cwde
  023ef	89 85 64 2a 00
	00		 mov	 DWORD PTR tv1545[rbp], eax
  023f5	b1 29		 mov	 cl, 41			; 00000029H
  023f7	e8 00 00 00 00	 call	 ?T@Chain@Rule@GRB@@SAFD@Z ; GRB::Rule::Chain::T
  023fc	98		 cwde
  023fd	89 85 68 2a 00
	00		 mov	 DWORD PTR tv1549[rbp], eax
  02403	b1 58		 mov	 cl, 88			; 00000058H
  02405	e8 00 00 00 00	 call	 ?N@Chain@Rule@GRB@@SAFD@Z ; GRB::Rule::Chain::N
  0240a	98		 cwde
  0240b	89 85 6c 2a 00
	00		 mov	 DWORD PTR tv1553[rbp], eax
  02411	b1 63		 mov	 cl, 99			; 00000063H
  02413	e8 00 00 00 00	 call	 ?T@Chain@Rule@GRB@@SAFD@Z ; GRB::Rule::Chain::T
  02418	98		 cwde
  02419	89 85 70 2a 00
	00		 mov	 DWORD PTR tv1557[rbp], eax
  0241f	b1 58		 mov	 cl, 88			; 00000058H
  02421	e8 00 00 00 00	 call	 ?N@Chain@Rule@GRB@@SAFD@Z ; GRB::Rule::Chain::N
  02426	98		 cwde
  02427	89 85 74 2a 00
	00		 mov	 DWORD PTR tv1561[rbp], eax
  0242d	b1 28		 mov	 cl, 40			; 00000028H
  0242f	e8 00 00 00 00	 call	 ?T@Chain@Rule@GRB@@SAFD@Z ; GRB::Rule::Chain::T
  02434	98		 cwde
  02435	89 85 78 2a 00
	00		 mov	 DWORD PTR tv1565[rbp], eax
  0243b	b1 7a		 mov	 cl, 122			; 0000007aH
  0243d	e8 00 00 00 00	 call	 ?T@Chain@Rule@GRB@@SAFD@Z ; GRB::Rule::Chain::T
  02442	8b 8d 58 2a 00
	00		 mov	 ecx, DWORD PTR tv1533[rbp]
  02448	89 4c 24 58	 mov	 DWORD PTR [rsp+88], ecx
  0244c	8b 8d 5c 2a 00
	00		 mov	 ecx, DWORD PTR tv1537[rbp]
  02452	89 4c 24 50	 mov	 DWORD PTR [rsp+80], ecx
  02456	8b 8d 60 2a 00
	00		 mov	 ecx, DWORD PTR tv1541[rbp]
  0245c	89 4c 24 48	 mov	 DWORD PTR [rsp+72], ecx
  02460	8b 8d 64 2a 00
	00		 mov	 ecx, DWORD PTR tv1545[rbp]
  02466	89 4c 24 40	 mov	 DWORD PTR [rsp+64], ecx
  0246a	8b 8d 68 2a 00
	00		 mov	 ecx, DWORD PTR tv1549[rbp]
  02470	89 4c 24 38	 mov	 DWORD PTR [rsp+56], ecx
  02474	8b 8d 6c 2a 00
	00		 mov	 ecx, DWORD PTR tv1553[rbp]
  0247a	89 4c 24 30	 mov	 DWORD PTR [rsp+48], ecx
  0247e	8b 8d 70 2a 00
	00		 mov	 ecx, DWORD PTR tv1557[rbp]
  02484	89 4c 24 28	 mov	 DWORD PTR [rsp+40], ecx
  02488	8b 8d 74 2a 00
	00		 mov	 ecx, DWORD PTR tv1561[rbp]
  0248e	89 4c 24 20	 mov	 DWORD PTR [rsp+32], ecx
  02492	8b 8d 78 2a 00
	00		 mov	 ecx, DWORD PTR tv1565[rbp]
  02498	44 8b c9	 mov	 r9d, ecx
  0249b	44 0f bf c0	 movsx	 r8d, ax
  0249f	ba 0a 00 00 00	 mov	 edx, 10
  024a4	48 8d 8d 88 13
	00 00		 lea	 rcx, QWORD PTR $T72[rbp]
  024ab	e8 00 00 00 00	 call	 ??0Chain@Rule@GRB@@QEAA@FFZZ ; GRB::Rule::Chain::Chain
  024b0	48 8d 8d 80 20
	00 00		 lea	 rcx, QWORD PTR $T141[rbp]
  024b7	48 8b f9	 mov	 rdi, rcx
  024ba	48 8b f0	 mov	 rsi, rax
  024bd	b9 10 00 00 00	 mov	 ecx, 16
  024c2	f3 a4		 rep movsb
  024c4	b1 4e		 mov	 cl, 78			; 0000004eH
  024c6	e8 00 00 00 00	 call	 ?N@Chain@Rule@GRB@@SAFD@Z ; GRB::Rule::Chain::N
  024cb	98		 cwde
  024cc	89 85 7c 2a 00
	00		 mov	 DWORD PTR tv1576[rbp], eax
  024d2	b1 3b		 mov	 cl, 59			; 0000003bH
  024d4	e8 00 00 00 00	 call	 ?T@Chain@Rule@GRB@@SAFD@Z ; GRB::Rule::Chain::T
  024d9	98		 cwde
  024da	89 85 80 2a 00
	00		 mov	 DWORD PTR tv1580[rbp], eax
  024e0	b1 29		 mov	 cl, 41			; 00000029H
  024e2	e8 00 00 00 00	 call	 ?T@Chain@Rule@GRB@@SAFD@Z ; GRB::Rule::Chain::T
  024e7	98		 cwde
  024e8	89 85 84 2a 00
	00		 mov	 DWORD PTR tv1584[rbp], eax
  024ee	b1 46		 mov	 cl, 70			; 00000046H
  024f0	e8 00 00 00 00	 call	 ?N@Chain@Rule@GRB@@SAFD@Z ; GRB::Rule::Chain::N
  024f5	98		 cwde
  024f6	89 85 88 2a 00
	00		 mov	 DWORD PTR tv1588[rbp], eax
  024fc	b1 28		 mov	 cl, 40			; 00000028H
  024fe	e8 00 00 00 00	 call	 ?T@Chain@Rule@GRB@@SAFD@Z ; GRB::Rule::Chain::T
  02503	98		 cwde
  02504	89 85 8c 2a 00
	00		 mov	 DWORD PTR tv1592[rbp], eax
  0250a	b1 69		 mov	 cl, 105			; 00000069H
  0250c	e8 00 00 00 00	 call	 ?T@Chain@Rule@GRB@@SAFD@Z ; GRB::Rule::Chain::T
  02511	98		 cwde
  02512	89 85 90 2a 00
	00		 mov	 DWORD PTR tv1596[rbp], eax
  02518	b1 66		 mov	 cl, 102			; 00000066H
  0251a	e8 00 00 00 00	 call	 ?T@Chain@Rule@GRB@@SAFD@Z ; GRB::Rule::Chain::T
  0251f	98		 cwde
  02520	89 85 94 2a 00
	00		 mov	 DWORD PTR tv1600[rbp], eax
  02526	b1 74		 mov	 cl, 116			; 00000074H
  02528	e8 00 00 00 00	 call	 ?T@Chain@Rule@GRB@@SAFD@Z ; GRB::Rule::Chain::T
  0252d	8b 8d 7c 2a 00
	00		 mov	 ecx, DWORD PTR tv1576[rbp]
  02533	89 4c 24 48	 mov	 DWORD PTR [rsp+72], ecx
  02537	8b 8d 80 2a 00
	00		 mov	 ecx, DWORD PTR tv1580[rbp]
  0253d	89 4c 24 40	 mov	 DWORD PTR [rsp+64], ecx
  02541	8b 8d 84 2a 00
	00		 mov	 ecx, DWORD PTR tv1584[rbp]
  02547	89 4c 24 38	 mov	 DWORD PTR [rsp+56], ecx
  0254b	8b 8d 88 2a 00
	00		 mov	 ecx, DWORD PTR tv1588[rbp]
  02551	89 4c 24 30	 mov	 DWORD PTR [rsp+48], ecx
  02555	8b 8d 8c 2a 00
	00		 mov	 ecx, DWORD PTR tv1592[rbp]
  0255b	89 4c 24 28	 mov	 DWORD PTR [rsp+40], ecx
  0255f	8b 8d 90 2a 00
	00		 mov	 ecx, DWORD PTR tv1596[rbp]
  02565	89 4c 24 20	 mov	 DWORD PTR [rsp+32], ecx
  02569	8b 8d 94 2a 00
	00		 mov	 ecx, DWORD PTR tv1600[rbp]
  0256f	44 8b c9	 mov	 r9d, ecx
  02572	44 0f bf c0	 movsx	 r8d, ax
  02576	ba 08 00 00 00	 mov	 edx, 8
  0257b	48 8d 8d b8 13
	00 00		 lea	 rcx, QWORD PTR $T73[rbp]
  02582	e8 00 00 00 00	 call	 ??0Chain@Rule@GRB@@QEAA@FFZZ ; GRB::Rule::Chain::Chain
  02587	48 8d 8d 50 20
	00 00		 lea	 rcx, QWORD PTR $T140[rbp]
  0258e	48 8b f9	 mov	 rdi, rcx
  02591	48 8b f0	 mov	 rsi, rax
  02594	b9 10 00 00 00	 mov	 ecx, 16
  02599	f3 a4		 rep movsb
  0259b	b1 4e		 mov	 cl, 78			; 0000004eH
  0259d	e8 00 00 00 00	 call	 ?N@Chain@Rule@GRB@@SAFD@Z ; GRB::Rule::Chain::N
  025a2	98		 cwde
  025a3	89 85 98 2a 00
	00		 mov	 DWORD PTR tv1611[rbp], eax
  025a9	b1 3b		 mov	 cl, 59			; 0000003bH
  025ab	e8 00 00 00 00	 call	 ?T@Chain@Rule@GRB@@SAFD@Z ; GRB::Rule::Chain::T
  025b0	98		 cwde
  025b1	89 85 9c 2a 00
	00		 mov	 DWORD PTR tv1615[rbp], eax
  025b7	b1 45		 mov	 cl, 69			; 00000045H
  025b9	e8 00 00 00 00	 call	 ?N@Chain@Rule@GRB@@SAFD@Z ; GRB::Rule::Chain::N
  025be	98		 cwde
  025bf	89 85 a0 2a 00
	00		 mov	 DWORD PTR tv1619[rbp], eax
  025c5	b1 3d		 mov	 cl, 61			; 0000003dH
  025c7	e8 00 00 00 00	 call	 ?T@Chain@Rule@GRB@@SAFD@Z ; GRB::Rule::Chain::T
  025cc	98		 cwde
  025cd	89 85 a4 2a 00
	00		 mov	 DWORD PTR tv1623[rbp], eax
  025d3	b1 5d		 mov	 cl, 93			; 0000005dH
  025d5	e8 00 00 00 00	 call	 ?T@Chain@Rule@GRB@@SAFD@Z ; GRB::Rule::Chain::T
  025da	98		 cwde
  025db	89 85 a8 2a 00
	00		 mov	 DWORD PTR tv1627[rbp], eax
  025e1	b1 45		 mov	 cl, 69			; 00000045H
  025e3	e8 00 00 00 00	 call	 ?N@Chain@Rule@GRB@@SAFD@Z ; GRB::Rule::Chain::N
  025e8	98		 cwde
  025e9	89 85 ac 2a 00
	00		 mov	 DWORD PTR tv1631[rbp], eax
  025ef	b1 5b		 mov	 cl, 91			; 0000005bH
  025f1	e8 00 00 00 00	 call	 ?T@Chain@Rule@GRB@@SAFD@Z ; GRB::Rule::Chain::T
  025f6	98		 cwde
  025f7	89 85 b0 2a 00
	00		 mov	 DWORD PTR tv1635[rbp], eax
  025fd	b1 69		 mov	 cl, 105			; 00000069H
  025ff	e8 00 00 00 00	 call	 ?T@Chain@Rule@GRB@@SAFD@Z ; GRB::Rule::Chain::T
  02604	8b 8d 98 2a 00
	00		 mov	 ecx, DWORD PTR tv1611[rbp]
  0260a	89 4c 24 48	 mov	 DWORD PTR [rsp+72], ecx
  0260e	8b 8d 9c 2a 00
	00		 mov	 ecx, DWORD PTR tv1615[rbp]
  02614	89 4c 24 40	 mov	 DWORD PTR [rsp+64], ecx
  02618	8b 8d a0 2a 00
	00		 mov	 ecx, DWORD PTR tv1619[rbp]
  0261e	89 4c 24 38	 mov	 DWORD PTR [rsp+56], ecx
  02622	8b 8d a4 2a 00
	00		 mov	 ecx, DWORD PTR tv1623[rbp]
  02628	89 4c 24 30	 mov	 DWORD PTR [rsp+48], ecx
  0262c	8b 8d a8 2a 00
	00		 mov	 ecx, DWORD PTR tv1627[rbp]
  02632	89 4c 24 28	 mov	 DWORD PTR [rsp+40], ecx
  02636	8b 8d ac 2a 00
	00		 mov	 ecx, DWORD PTR tv1631[rbp]
  0263c	89 4c 24 20	 mov	 DWORD PTR [rsp+32], ecx
  02640	8b 8d b0 2a 00
	00		 mov	 ecx, DWORD PTR tv1635[rbp]
  02646	44 8b c9	 mov	 r9d, ecx
  02649	44 0f bf c0	 movsx	 r8d, ax
  0264d	ba 08 00 00 00	 mov	 edx, 8
  02652	48 8d 8d e8 13
	00 00		 lea	 rcx, QWORD PTR $T74[rbp]
  02659	e8 00 00 00 00	 call	 ??0Chain@Rule@GRB@@QEAA@FFZZ ; GRB::Rule::Chain::Chain
  0265e	48 8d 8d 20 20
	00 00		 lea	 rcx, QWORD PTR $T139[rbp]
  02665	48 8b f9	 mov	 rdi, rcx
  02668	48 8b f0	 mov	 rsi, rax
  0266b	b9 10 00 00 00	 mov	 ecx, 16
  02670	f3 a4		 rep movsb
  02672	b1 4e		 mov	 cl, 78			; 0000004eH
  02674	e8 00 00 00 00	 call	 ?N@Chain@Rule@GRB@@SAFD@Z ; GRB::Rule::Chain::N
  02679	98		 cwde
  0267a	89 85 b4 2a 00
	00		 mov	 DWORD PTR tv1646[rbp], eax
  02680	b1 3b		 mov	 cl, 59			; 0000003bH
  02682	e8 00 00 00 00	 call	 ?T@Chain@Rule@GRB@@SAFD@Z ; GRB::Rule::Chain::T
  02687	98		 cwde
  02688	89 85 b8 2a 00
	00		 mov	 DWORD PTR tv1650[rbp], eax
  0268e	b1 5d		 mov	 cl, 93			; 0000005dH
  02690	e8 00 00 00 00	 call	 ?T@Chain@Rule@GRB@@SAFD@Z ; GRB::Rule::Chain::T
  02695	98		 cwde
  02696	89 85 bc 2a 00
	00		 mov	 DWORD PTR tv1654[rbp], eax
  0269c	b1 45		 mov	 cl, 69			; 00000045H
  0269e	e8 00 00 00 00	 call	 ?N@Chain@Rule@GRB@@SAFD@Z ; GRB::Rule::Chain::N
  026a3	98		 cwde
  026a4	89 85 c0 2a 00
	00		 mov	 DWORD PTR tv1658[rbp], eax
  026aa	b1 5b		 mov	 cl, 91			; 0000005bH
  026ac	e8 00 00 00 00	 call	 ?T@Chain@Rule@GRB@@SAFD@Z ; GRB::Rule::Chain::T
  026b1	98		 cwde
  026b2	89 85 c4 2a 00
	00		 mov	 DWORD PTR tv1662[rbp], eax
  026b8	b1 69		 mov	 cl, 105			; 00000069H
  026ba	e8 00 00 00 00	 call	 ?T@Chain@Rule@GRB@@SAFD@Z ; GRB::Rule::Chain::T
  026bf	98		 cwde
  026c0	89 85 c8 2a 00
	00		 mov	 DWORD PTR tv1666[rbp], eax
  026c6	b1 74		 mov	 cl, 116			; 00000074H
  026c8	e8 00 00 00 00	 call	 ?T@Chain@Rule@GRB@@SAFD@Z ; GRB::Rule::Chain::T
  026cd	8b 8d b4 2a 00
	00		 mov	 ecx, DWORD PTR tv1646[rbp]
  026d3	89 4c 24 40	 mov	 DWORD PTR [rsp+64], ecx
  026d7	8b 8d b8 2a 00
	00		 mov	 ecx, DWORD PTR tv1650[rbp]
  026dd	89 4c 24 38	 mov	 DWORD PTR [rsp+56], ecx
  026e1	8b 8d bc 2a 00
	00		 mov	 ecx, DWORD PTR tv1654[rbp]
  026e7	89 4c 24 30	 mov	 DWORD PTR [rsp+48], ecx
  026eb	8b 8d c0 2a 00
	00		 mov	 ecx, DWORD PTR tv1658[rbp]
  026f1	89 4c 24 28	 mov	 DWORD PTR [rsp+40], ecx
  026f5	8b 8d c4 2a 00
	00		 mov	 ecx, DWORD PTR tv1662[rbp]
  026fb	89 4c 24 20	 mov	 DWORD PTR [rsp+32], ecx
  026ff	8b 8d c8 2a 00
	00		 mov	 ecx, DWORD PTR tv1666[rbp]
  02705	44 8b c9	 mov	 r9d, ecx
  02708	44 0f bf c0	 movsx	 r8d, ax
  0270c	ba 07 00 00 00	 mov	 edx, 7
  02711	48 8d 8d 18 14
	00 00		 lea	 rcx, QWORD PTR $T75[rbp]
  02718	e8 00 00 00 00	 call	 ??0Chain@Rule@GRB@@QEAA@FFZZ ; GRB::Rule::Chain::Chain
  0271d	48 8d 8d f0 1f
	00 00		 lea	 rcx, QWORD PTR $T138[rbp]
  02724	48 8b f9	 mov	 rdi, rcx
  02727	48 8b f0	 mov	 rsi, rax
  0272a	b9 10 00 00 00	 mov	 ecx, 16
  0272f	f3 a4		 rep movsb
  02731	b1 4e		 mov	 cl, 78			; 0000004eH
  02733	e8 00 00 00 00	 call	 ?N@Chain@Rule@GRB@@SAFD@Z ; GRB::Rule::Chain::N
  02738	98		 cwde
  02739	89 85 cc 2a 00
	00		 mov	 DWORD PTR tv1677[rbp], eax
  0273f	b1 3b		 mov	 cl, 59			; 0000003bH
  02741	e8 00 00 00 00	 call	 ?T@Chain@Rule@GRB@@SAFD@Z ; GRB::Rule::Chain::T
  02746	98		 cwde
  02747	89 85 d0 2a 00
	00		 mov	 DWORD PTR tv1681[rbp], eax
  0274d	b1 29		 mov	 cl, 41			; 00000029H
  0274f	e8 00 00 00 00	 call	 ?T@Chain@Rule@GRB@@SAFD@Z ; GRB::Rule::Chain::T
  02754	98		 cwde
  02755	89 85 d4 2a 00
	00		 mov	 DWORD PTR tv1685[rbp], eax
  0275b	b1 45		 mov	 cl, 69			; 00000045H
  0275d	e8 00 00 00 00	 call	 ?N@Chain@Rule@GRB@@SAFD@Z ; GRB::Rule::Chain::N
  02762	98		 cwde
  02763	89 85 d8 2a 00
	00		 mov	 DWORD PTR tv1689[rbp], eax
  02769	b1 28		 mov	 cl, 40			; 00000028H
  0276b	e8 00 00 00 00	 call	 ?T@Chain@Rule@GRB@@SAFD@Z ; GRB::Rule::Chain::T
  02770	98		 cwde
  02771	89 85 dc 2a 00
	00		 mov	 DWORD PTR tv1693[rbp], eax
  02777	b1 69		 mov	 cl, 105			; 00000069H
  02779	e8 00 00 00 00	 call	 ?T@Chain@Rule@GRB@@SAFD@Z ; GRB::Rule::Chain::T
  0277e	8b 8d cc 2a 00
	00		 mov	 ecx, DWORD PTR tv1677[rbp]
  02784	89 4c 24 38	 mov	 DWORD PTR [rsp+56], ecx
  02788	8b 8d d0 2a 00
	00		 mov	 ecx, DWORD PTR tv1681[rbp]
  0278e	89 4c 24 30	 mov	 DWORD PTR [rsp+48], ecx
  02792	8b 8d d4 2a 00
	00		 mov	 ecx, DWORD PTR tv1685[rbp]
  02798	89 4c 24 28	 mov	 DWORD PTR [rsp+40], ecx
  0279c	8b 8d d8 2a 00
	00		 mov	 ecx, DWORD PTR tv1689[rbp]
  027a2	89 4c 24 20	 mov	 DWORD PTR [rsp+32], ecx
  027a6	8b 8d dc 2a 00
	00		 mov	 ecx, DWORD PTR tv1693[rbp]
  027ac	44 8b c9	 mov	 r9d, ecx
  027af	44 0f bf c0	 movsx	 r8d, ax
  027b3	ba 06 00 00 00	 mov	 edx, 6
  027b8	48 8d 8d 48 14
	00 00		 lea	 rcx, QWORD PTR $T76[rbp]
  027bf	e8 00 00 00 00	 call	 ??0Chain@Rule@GRB@@QEAA@FFZZ ; GRB::Rule::Chain::Chain
  027c4	48 8d 8d c0 1f
	00 00		 lea	 rcx, QWORD PTR $T137[rbp]
  027cb	48 8b f9	 mov	 rdi, rcx
  027ce	48 8b f0	 mov	 rsi, rax
  027d1	b9 10 00 00 00	 mov	 ecx, 16
  027d6	f3 a4		 rep movsb
  027d8	b1 4e		 mov	 cl, 78			; 0000004eH
  027da	e8 00 00 00 00	 call	 ?N@Chain@Rule@GRB@@SAFD@Z ; GRB::Rule::Chain::N
  027df	98		 cwde
  027e0	89 85 e0 2a 00
	00		 mov	 DWORD PTR tv1704[rbp], eax
  027e6	b1 3b		 mov	 cl, 59			; 0000003bH
  027e8	e8 00 00 00 00	 call	 ?T@Chain@Rule@GRB@@SAFD@Z ; GRB::Rule::Chain::T
  027ed	98		 cwde
  027ee	89 85 e4 2a 00
	00		 mov	 DWORD PTR tv1708[rbp], eax
  027f4	b1 29		 mov	 cl, 41			; 00000029H
  027f6	e8 00 00 00 00	 call	 ?T@Chain@Rule@GRB@@SAFD@Z ; GRB::Rule::Chain::T
  027fb	98		 cwde
  027fc	89 85 e8 2a 00
	00		 mov	 DWORD PTR tv1712[rbp], eax
  02802	b1 45		 mov	 cl, 69			; 00000045H
  02804	e8 00 00 00 00	 call	 ?N@Chain@Rule@GRB@@SAFD@Z ; GRB::Rule::Chain::N
  02809	98		 cwde
  0280a	89 85 ec 2a 00
	00		 mov	 DWORD PTR tv1716[rbp], eax
  02810	b1 28		 mov	 cl, 40			; 00000028H
  02812	e8 00 00 00 00	 call	 ?T@Chain@Rule@GRB@@SAFD@Z ; GRB::Rule::Chain::T
  02817	98		 cwde
  02818	89 85 f0 2a 00
	00		 mov	 DWORD PTR tv1720[rbp], eax
  0281e	b1 77		 mov	 cl, 119			; 00000077H
  02820	e8 00 00 00 00	 call	 ?T@Chain@Rule@GRB@@SAFD@Z ; GRB::Rule::Chain::T
  02825	8b 8d e0 2a 00
	00		 mov	 ecx, DWORD PTR tv1704[rbp]
  0282b	89 4c 24 38	 mov	 DWORD PTR [rsp+56], ecx
  0282f	8b 8d e4 2a 00
	00		 mov	 ecx, DWORD PTR tv1708[rbp]
  02835	89 4c 24 30	 mov	 DWORD PTR [rsp+48], ecx
  02839	8b 8d e8 2a 00
	00		 mov	 ecx, DWORD PTR tv1712[rbp]
  0283f	89 4c 24 28	 mov	 DWORD PTR [rsp+40], ecx
  02843	8b 8d ec 2a 00
	00		 mov	 ecx, DWORD PTR tv1716[rbp]
  02849	89 4c 24 20	 mov	 DWORD PTR [rsp+32], ecx
  0284d	8b 8d f0 2a 00
	00		 mov	 ecx, DWORD PTR tv1720[rbp]
  02853	44 8b c9	 mov	 r9d, ecx
  02856	44 0f bf c0	 movsx	 r8d, ax
  0285a	ba 06 00 00 00	 mov	 edx, 6
  0285f	48 8d 8d 78 14
	00 00		 lea	 rcx, QWORD PTR $T77[rbp]
  02866	e8 00 00 00 00	 call	 ??0Chain@Rule@GRB@@QEAA@FFZZ ; GRB::Rule::Chain::Chain
  0286b	48 8d 8d 90 1f
	00 00		 lea	 rcx, QWORD PTR $T136[rbp]
  02872	48 8b f9	 mov	 rdi, rcx
  02875	48 8b f0	 mov	 rsi, rax
  02878	b9 10 00 00 00	 mov	 ecx, 16
  0287d	f3 a4		 rep movsb
  0287f	b1 4e		 mov	 cl, 78			; 0000004eH
  02881	e8 00 00 00 00	 call	 ?N@Chain@Rule@GRB@@SAFD@Z ; GRB::Rule::Chain::N
  02886	98		 cwde
  02887	89 85 f4 2a 00
	00		 mov	 DWORD PTR tv1731[rbp], eax
  0288d	b1 3b		 mov	 cl, 59			; 0000003bH
  0288f	e8 00 00 00 00	 call	 ?T@Chain@Rule@GRB@@SAFD@Z ; GRB::Rule::Chain::T
  02894	98		 cwde
  02895	89 85 f8 2a 00
	00		 mov	 DWORD PTR tv1735[rbp], eax
  0289b	b1 45		 mov	 cl, 69			; 00000045H
  0289d	e8 00 00 00 00	 call	 ?N@Chain@Rule@GRB@@SAFD@Z ; GRB::Rule::Chain::N
  028a2	98		 cwde
  028a3	89 85 fc 2a 00
	00		 mov	 DWORD PTR tv1739[rbp], eax
  028a9	b1 3d		 mov	 cl, 61			; 0000003dH
  028ab	e8 00 00 00 00	 call	 ?T@Chain@Rule@GRB@@SAFD@Z ; GRB::Rule::Chain::T
  028b0	98		 cwde
  028b1	89 85 00 2b 00
	00		 mov	 DWORD PTR tv1743[rbp], eax
  028b7	b1 69		 mov	 cl, 105			; 00000069H
  028b9	e8 00 00 00 00	 call	 ?T@Chain@Rule@GRB@@SAFD@Z ; GRB::Rule::Chain::T
  028be	98		 cwde
  028bf	89 85 04 2b 00
	00		 mov	 DWORD PTR tv1747[rbp], eax
  028c5	b1 74		 mov	 cl, 116			; 00000074H
  028c7	e8 00 00 00 00	 call	 ?T@Chain@Rule@GRB@@SAFD@Z ; GRB::Rule::Chain::T
  028cc	8b 8d f4 2a 00
	00		 mov	 ecx, DWORD PTR tv1731[rbp]
  028d2	89 4c 24 38	 mov	 DWORD PTR [rsp+56], ecx
  028d6	8b 8d f8 2a 00
	00		 mov	 ecx, DWORD PTR tv1735[rbp]
  028dc	89 4c 24 30	 mov	 DWORD PTR [rsp+48], ecx
  028e0	8b 8d fc 2a 00
	00		 mov	 ecx, DWORD PTR tv1739[rbp]
  028e6	89 4c 24 28	 mov	 DWORD PTR [rsp+40], ecx
  028ea	8b 8d 00 2b 00
	00		 mov	 ecx, DWORD PTR tv1743[rbp]
  028f0	89 4c 24 20	 mov	 DWORD PTR [rsp+32], ecx
  028f4	8b 8d 04 2b 00
	00		 mov	 ecx, DWORD PTR tv1747[rbp]
  028fa	44 8b c9	 mov	 r9d, ecx
  028fd	44 0f bf c0	 movsx	 r8d, ax
  02901	ba 06 00 00 00	 mov	 edx, 6
  02906	48 8d 8d a8 14
	00 00		 lea	 rcx, QWORD PTR $T78[rbp]
  0290d	e8 00 00 00 00	 call	 ??0Chain@Rule@GRB@@QEAA@FFZZ ; GRB::Rule::Chain::Chain
  02912	48 8d 8d 60 1f
	00 00		 lea	 rcx, QWORD PTR $T135[rbp]
  02919	48 8b f9	 mov	 rdi, rcx
  0291c	48 8b f0	 mov	 rsi, rax
  0291f	b9 10 00 00 00	 mov	 ecx, 16
  02924	f3 a4		 rep movsb
  02926	b1 4e		 mov	 cl, 78			; 0000004eH
  02928	e8 00 00 00 00	 call	 ?N@Chain@Rule@GRB@@SAFD@Z ; GRB::Rule::Chain::N
  0292d	98		 cwde
  0292e	89 85 08 2b 00
	00		 mov	 DWORD PTR tv1758[rbp], eax
  02934	b1 3b		 mov	 cl, 59			; 0000003bH
  02936	e8 00 00 00 00	 call	 ?T@Chain@Rule@GRB@@SAFD@Z ; GRB::Rule::Chain::T
  0293b	98		 cwde
  0293c	89 85 0c 2b 00
	00		 mov	 DWORD PTR tv1762[rbp], eax
  02942	b1 45		 mov	 cl, 69			; 00000045H
  02944	e8 00 00 00 00	 call	 ?N@Chain@Rule@GRB@@SAFD@Z ; GRB::Rule::Chain::N
  02949	98		 cwde
  0294a	89 85 10 2b 00
	00		 mov	 DWORD PTR tv1766[rbp], eax
  02950	b1 3d		 mov	 cl, 61			; 0000003dH
  02952	e8 00 00 00 00	 call	 ?T@Chain@Rule@GRB@@SAFD@Z ; GRB::Rule::Chain::T
  02957	98		 cwde
  02958	89 85 14 2b 00
	00		 mov	 DWORD PTR tv1770[rbp], eax
  0295e	b1 69		 mov	 cl, 105			; 00000069H
  02960	e8 00 00 00 00	 call	 ?T@Chain@Rule@GRB@@SAFD@Z ; GRB::Rule::Chain::T
  02965	8b 8d 08 2b 00
	00		 mov	 ecx, DWORD PTR tv1758[rbp]
  0296b	89 4c 24 30	 mov	 DWORD PTR [rsp+48], ecx
  0296f	8b 8d 0c 2b 00
	00		 mov	 ecx, DWORD PTR tv1762[rbp]
  02975	89 4c 24 28	 mov	 DWORD PTR [rsp+40], ecx
  02979	8b 8d 10 2b 00
	00		 mov	 ecx, DWORD PTR tv1766[rbp]
  0297f	89 4c 24 20	 mov	 DWORD PTR [rsp+32], ecx
  02983	8b 8d 14 2b 00
	00		 mov	 ecx, DWORD PTR tv1770[rbp]
  02989	44 8b c9	 mov	 r9d, ecx
  0298c	44 0f bf c0	 movsx	 r8d, ax
  02990	ba 05 00 00 00	 mov	 edx, 5
  02995	48 8d 8d d8 14
	00 00		 lea	 rcx, QWORD PTR $T79[rbp]
  0299c	e8 00 00 00 00	 call	 ??0Chain@Rule@GRB@@QEAA@FFZZ ; GRB::Rule::Chain::Chain
  029a1	48 8d 8d 30 1f
	00 00		 lea	 rcx, QWORD PTR $T134[rbp]
  029a8	48 8b f9	 mov	 rdi, rcx
  029ab	48 8b f0	 mov	 rsi, rax
  029ae	b9 10 00 00 00	 mov	 ecx, 16
  029b3	f3 a4		 rep movsb
  029b5	b1 4e		 mov	 cl, 78			; 0000004eH
  029b7	e8 00 00 00 00	 call	 ?N@Chain@Rule@GRB@@SAFD@Z ; GRB::Rule::Chain::N
  029bc	98		 cwde
  029bd	89 85 18 2b 00
	00		 mov	 DWORD PTR tv1781[rbp], eax
  029c3	b1 3b		 mov	 cl, 59			; 0000003bH
  029c5	e8 00 00 00 00	 call	 ?T@Chain@Rule@GRB@@SAFD@Z ; GRB::Rule::Chain::T
  029ca	98		 cwde
  029cb	89 85 1c 2b 00
	00		 mov	 DWORD PTR tv1785[rbp], eax
  029d1	b1 29		 mov	 cl, 41			; 00000029H
  029d3	e8 00 00 00 00	 call	 ?T@Chain@Rule@GRB@@SAFD@Z ; GRB::Rule::Chain::T
  029d8	98		 cwde
  029d9	89 85 20 2b 00
	00		 mov	 DWORD PTR tv1789[rbp], eax
  029df	b1 28		 mov	 cl, 40			; 00000028H
  029e1	e8 00 00 00 00	 call	 ?T@Chain@Rule@GRB@@SAFD@Z ; GRB::Rule::Chain::T
  029e6	98		 cwde
  029e7	89 85 24 2b 00
	00		 mov	 DWORD PTR tv1793[rbp], eax
  029ed	b1 77		 mov	 cl, 119			; 00000077H
  029ef	e8 00 00 00 00	 call	 ?T@Chain@Rule@GRB@@SAFD@Z ; GRB::Rule::Chain::T
  029f4	8b 8d 18 2b 00
	00		 mov	 ecx, DWORD PTR tv1781[rbp]
  029fa	89 4c 24 30	 mov	 DWORD PTR [rsp+48], ecx
  029fe	8b 8d 1c 2b 00
	00		 mov	 ecx, DWORD PTR tv1785[rbp]
  02a04	89 4c 24 28	 mov	 DWORD PTR [rsp+40], ecx
  02a08	8b 8d 20 2b 00
	00		 mov	 ecx, DWORD PTR tv1789[rbp]
  02a0e	89 4c 24 20	 mov	 DWORD PTR [rsp+32], ecx
  02a12	8b 8d 24 2b 00
	00		 mov	 ecx, DWORD PTR tv1793[rbp]
  02a18	44 8b c9	 mov	 r9d, ecx
  02a1b	44 0f bf c0	 movsx	 r8d, ax
  02a1f	ba 05 00 00 00	 mov	 edx, 5
  02a24	48 8d 8d 08 15
	00 00		 lea	 rcx, QWORD PTR $T80[rbp]
  02a2b	e8 00 00 00 00	 call	 ??0Chain@Rule@GRB@@QEAA@FFZZ ; GRB::Rule::Chain::Chain
  02a30	48 8d 8d 00 1f
	00 00		 lea	 rcx, QWORD PTR $T133[rbp]
  02a37	48 8b f9	 mov	 rdi, rcx
  02a3a	48 8b f0	 mov	 rsi, rax
  02a3d	b9 10 00 00 00	 mov	 ecx, 16
  02a42	f3 a4		 rep movsb
  02a44	b1 4e		 mov	 cl, 78			; 0000004eH
  02a46	e8 00 00 00 00	 call	 ?N@Chain@Rule@GRB@@SAFD@Z ; GRB::Rule::Chain::N
  02a4b	98		 cwde
  02a4c	89 85 28 2b 00
	00		 mov	 DWORD PTR tv1804[rbp], eax
  02a52	b1 3b		 mov	 cl, 59			; 0000003bH
  02a54	e8 00 00 00 00	 call	 ?T@Chain@Rule@GRB@@SAFD@Z ; GRB::Rule::Chain::T
  02a59	98		 cwde
  02a5a	89 85 2c 2b 00
	00		 mov	 DWORD PTR tv1808[rbp], eax
  02a60	b1 69		 mov	 cl, 105			; 00000069H
  02a62	e8 00 00 00 00	 call	 ?T@Chain@Rule@GRB@@SAFD@Z ; GRB::Rule::Chain::T
  02a67	98		 cwde
  02a68	89 85 30 2b 00
	00		 mov	 DWORD PTR tv1812[rbp], eax
  02a6e	b1 74		 mov	 cl, 116			; 00000074H
  02a70	e8 00 00 00 00	 call	 ?T@Chain@Rule@GRB@@SAFD@Z ; GRB::Rule::Chain::T
  02a75	8b 8d 28 2b 00
	00		 mov	 ecx, DWORD PTR tv1804[rbp]
  02a7b	89 4c 24 28	 mov	 DWORD PTR [rsp+40], ecx
  02a7f	8b 8d 2c 2b 00
	00		 mov	 ecx, DWORD PTR tv1808[rbp]
  02a85	89 4c 24 20	 mov	 DWORD PTR [rsp+32], ecx
  02a89	8b 8d 30 2b 00
	00		 mov	 ecx, DWORD PTR tv1812[rbp]
  02a8f	44 8b c9	 mov	 r9d, ecx
  02a92	44 0f bf c0	 movsx	 r8d, ax
  02a96	ba 04 00 00 00	 mov	 edx, 4
  02a9b	48 8d 8d 38 15
	00 00		 lea	 rcx, QWORD PTR $T81[rbp]
  02aa2	e8 00 00 00 00	 call	 ??0Chain@Rule@GRB@@QEAA@FFZZ ; GRB::Rule::Chain::Chain
  02aa7	48 8d 8d d0 1e
	00 00		 lea	 rcx, QWORD PTR $T132[rbp]
  02aae	48 8b f9	 mov	 rdi, rcx
  02ab1	48 8b f0	 mov	 rsi, rax
  02ab4	b9 10 00 00 00	 mov	 ecx, 16
  02ab9	f3 a4		 rep movsb
  02abb	b1 4e		 mov	 cl, 78			; 0000004eH
  02abd	e8 00 00 00 00	 call	 ?N@Chain@Rule@GRB@@SAFD@Z ; GRB::Rule::Chain::N
  02ac2	98		 cwde
  02ac3	89 85 34 2b 00
	00		 mov	 DWORD PTR tv1823[rbp], eax
  02ac9	b1 3b		 mov	 cl, 59			; 0000003bH
  02acb	e8 00 00 00 00	 call	 ?T@Chain@Rule@GRB@@SAFD@Z ; GRB::Rule::Chain::T
  02ad0	98		 cwde
  02ad1	89 85 38 2b 00
	00		 mov	 DWORD PTR tv1827[rbp], eax
  02ad7	b1 6e		 mov	 cl, 110			; 0000006eH
  02ad9	e8 00 00 00 00	 call	 ?T@Chain@Rule@GRB@@SAFD@Z ; GRB::Rule::Chain::T
  02ade	98		 cwde
  02adf	89 85 3c 2b 00
	00		 mov	 DWORD PTR tv1831[rbp], eax
  02ae5	b1 69		 mov	 cl, 105			; 00000069H
  02ae7	e8 00 00 00 00	 call	 ?T@Chain@Rule@GRB@@SAFD@Z ; GRB::Rule::Chain::T
  02aec	8b 8d 34 2b 00
	00		 mov	 ecx, DWORD PTR tv1823[rbp]
  02af2	89 4c 24 28	 mov	 DWORD PTR [rsp+40], ecx
  02af6	8b 8d 38 2b 00
	00		 mov	 ecx, DWORD PTR tv1827[rbp]
  02afc	89 4c 24 20	 mov	 DWORD PTR [rsp+32], ecx
  02b00	8b 8d 3c 2b 00
	00		 mov	 ecx, DWORD PTR tv1831[rbp]
  02b06	44 8b c9	 mov	 r9d, ecx
  02b09	44 0f bf c0	 movsx	 r8d, ax
  02b0d	ba 04 00 00 00	 mov	 edx, 4
  02b12	48 8d 8d 68 15
	00 00		 lea	 rcx, QWORD PTR $T82[rbp]
  02b19	e8 00 00 00 00	 call	 ??0Chain@Rule@GRB@@QEAA@FFZZ ; GRB::Rule::Chain::Chain
  02b1e	48 8d 8d a0 1e
	00 00		 lea	 rcx, QWORD PTR $T131[rbp]
  02b25	48 8b f9	 mov	 rdi, rcx
  02b28	48 8b f0	 mov	 rsi, rax
  02b2b	b9 10 00 00 00	 mov	 ecx, 16
  02b30	f3 a4		 rep movsb
  02b32	b1 4e		 mov	 cl, 78			; 0000004eH
  02b34	e8 00 00 00 00	 call	 ?N@Chain@Rule@GRB@@SAFD@Z ; GRB::Rule::Chain::N
  02b39	98		 cwde
  02b3a	89 85 40 2b 00
	00		 mov	 DWORD PTR tv1842[rbp], eax
  02b40	b1 3b		 mov	 cl, 59			; 0000003bH
  02b42	e8 00 00 00 00	 call	 ?T@Chain@Rule@GRB@@SAFD@Z ; GRB::Rule::Chain::T
  02b47	98		 cwde
  02b48	89 85 44 2b 00
	00		 mov	 DWORD PTR tv1846[rbp], eax
  02b4e	b1 6f		 mov	 cl, 111			; 0000006fH
  02b50	e8 00 00 00 00	 call	 ?T@Chain@Rule@GRB@@SAFD@Z ; GRB::Rule::Chain::T
  02b55	8b 8d 40 2b 00
	00		 mov	 ecx, DWORD PTR tv1842[rbp]
  02b5b	89 4c 24 20	 mov	 DWORD PTR [rsp+32], ecx
  02b5f	8b 8d 44 2b 00
	00		 mov	 ecx, DWORD PTR tv1846[rbp]
  02b65	44 8b c9	 mov	 r9d, ecx
  02b68	44 0f bf c0	 movsx	 r8d, ax
  02b6c	ba 03 00 00 00	 mov	 edx, 3
  02b71	48 8d 8d 98 15
	00 00		 lea	 rcx, QWORD PTR $T83[rbp]
  02b78	e8 00 00 00 00	 call	 ??0Chain@Rule@GRB@@QEAA@FFZZ ; GRB::Rule::Chain::Chain
  02b7d	48 8d 8d 70 1e
	00 00		 lea	 rcx, QWORD PTR $T130[rbp]
  02b84	48 8b f9	 mov	 rdi, rcx
  02b87	48 8b f0	 mov	 rsi, rax
  02b8a	b9 10 00 00 00	 mov	 ecx, 16
  02b8f	f3 a4		 rep movsb
  02b91	b1 4e		 mov	 cl, 78			; 0000004eH
  02b93	e8 00 00 00 00	 call	 ?N@Chain@Rule@GRB@@SAFD@Z ; GRB::Rule::Chain::N
  02b98	48 8d 8d 40 24
	00 00		 lea	 rcx, QWORD PTR $T161[rbp]
  02b9f	48 89 8c 24 18
	01 00 00	 mov	 QWORD PTR [rsp+280], rcx
  02ba7	48 8d 8d 10 24
	00 00		 lea	 rcx, QWORD PTR $T160[rbp]
  02bae	48 89 8c 24 10
	01 00 00	 mov	 QWORD PTR [rsp+272], rcx
  02bb6	48 8d 8d e0 23
	00 00		 lea	 rcx, QWORD PTR $T159[rbp]
  02bbd	48 89 8c 24 08
	01 00 00	 mov	 QWORD PTR [rsp+264], rcx
  02bc5	48 8d 8d b0 23
	00 00		 lea	 rcx, QWORD PTR $T158[rbp]
  02bcc	48 89 8c 24 00
	01 00 00	 mov	 QWORD PTR [rsp+256], rcx
  02bd4	48 8d 8d 80 23
	00 00		 lea	 rcx, QWORD PTR $T157[rbp]
  02bdb	48 89 8c 24 f8
	00 00 00	 mov	 QWORD PTR [rsp+248], rcx
  02be3	48 8d 8d 50 23
	00 00		 lea	 rcx, QWORD PTR $T156[rbp]
  02bea	48 89 8c 24 f0
	00 00 00	 mov	 QWORD PTR [rsp+240], rcx
  02bf2	48 8d 8d 20 23
	00 00		 lea	 rcx, QWORD PTR $T155[rbp]
  02bf9	48 89 8c 24 e8
	00 00 00	 mov	 QWORD PTR [rsp+232], rcx
  02c01	48 8d 8d f0 22
	00 00		 lea	 rcx, QWORD PTR $T154[rbp]
  02c08	48 89 8c 24 e0
	00 00 00	 mov	 QWORD PTR [rsp+224], rcx
  02c10	48 8d 8d c0 22
	00 00		 lea	 rcx, QWORD PTR $T153[rbp]
  02c17	48 89 8c 24 d8
	00 00 00	 mov	 QWORD PTR [rsp+216], rcx
  02c1f	48 8d 8d 90 22
	00 00		 lea	 rcx, QWORD PTR $T152[rbp]
  02c26	48 89 8c 24 d0
	00 00 00	 mov	 QWORD PTR [rsp+208], rcx
  02c2e	48 8d 8d 60 22
	00 00		 lea	 rcx, QWORD PTR $T151[rbp]
  02c35	48 89 8c 24 c8
	00 00 00	 mov	 QWORD PTR [rsp+200], rcx
  02c3d	48 8d 8d 30 22
	00 00		 lea	 rcx, QWORD PTR $T150[rbp]
  02c44	48 89 8c 24 c0
	00 00 00	 mov	 QWORD PTR [rsp+192], rcx
  02c4c	48 8d 8d 00 22
	00 00		 lea	 rcx, QWORD PTR $T149[rbp]
  02c53	48 89 8c 24 b8
	00 00 00	 mov	 QWORD PTR [rsp+184], rcx
  02c5b	48 8d 8d d0 21
	00 00		 lea	 rcx, QWORD PTR $T148[rbp]
  02c62	48 89 8c 24 b0
	00 00 00	 mov	 QWORD PTR [rsp+176], rcx
  02c6a	48 8d 8d a0 21
	00 00		 lea	 rcx, QWORD PTR $T147[rbp]
  02c71	48 89 8c 24 a8
	00 00 00	 mov	 QWORD PTR [rsp+168], rcx
  02c79	48 8d 8d 70 21
	00 00		 lea	 rcx, QWORD PTR $T146[rbp]
  02c80	48 89 8c 24 a0
	00 00 00	 mov	 QWORD PTR [rsp+160], rcx
  02c88	48 8d 8d 40 21
	00 00		 lea	 rcx, QWORD PTR $T145[rbp]
  02c8f	48 89 8c 24 98
	00 00 00	 mov	 QWORD PTR [rsp+152], rcx
  02c97	48 8d 8d 10 21
	00 00		 lea	 rcx, QWORD PTR $T144[rbp]
  02c9e	48 89 8c 24 90
	00 00 00	 mov	 QWORD PTR [rsp+144], rcx
  02ca6	48 8d 8d e0 20
	00 00		 lea	 rcx, QWORD PTR $T143[rbp]
  02cad	48 89 8c 24 88
	00 00 00	 mov	 QWORD PTR [rsp+136], rcx
  02cb5	48 8d 8d b0 20
	00 00		 lea	 rcx, QWORD PTR $T142[rbp]
  02cbc	48 89 8c 24 80
	00 00 00	 mov	 QWORD PTR [rsp+128], rcx
  02cc4	48 8d 8d 80 20
	00 00		 lea	 rcx, QWORD PTR $T141[rbp]
  02ccb	48 89 4c 24 78	 mov	 QWORD PTR [rsp+120], rcx
  02cd0	48 8d 8d 50 20
	00 00		 lea	 rcx, QWORD PTR $T140[rbp]
  02cd7	48 89 4c 24 70	 mov	 QWORD PTR [rsp+112], rcx
  02cdc	48 8d 8d 20 20
	00 00		 lea	 rcx, QWORD PTR $T139[rbp]
  02ce3	48 89 4c 24 68	 mov	 QWORD PTR [rsp+104], rcx
  02ce8	48 8d 8d f0 1f
	00 00		 lea	 rcx, QWORD PTR $T138[rbp]
  02cef	48 89 4c 24 60	 mov	 QWORD PTR [rsp+96], rcx
  02cf4	48 8d 8d c0 1f
	00 00		 lea	 rcx, QWORD PTR $T137[rbp]
  02cfb	48 89 4c 24 58	 mov	 QWORD PTR [rsp+88], rcx
  02d00	48 8d 8d 90 1f
	00 00		 lea	 rcx, QWORD PTR $T136[rbp]
  02d07	48 89 4c 24 50	 mov	 QWORD PTR [rsp+80], rcx
  02d0c	48 8d 8d 60 1f
	00 00		 lea	 rcx, QWORD PTR $T135[rbp]
  02d13	48 89 4c 24 48	 mov	 QWORD PTR [rsp+72], rcx
  02d18	48 8d 8d 30 1f
	00 00		 lea	 rcx, QWORD PTR $T134[rbp]
  02d1f	48 89 4c 24 40	 mov	 QWORD PTR [rsp+64], rcx
  02d24	48 8d 8d 00 1f
	00 00		 lea	 rcx, QWORD PTR $T133[rbp]
  02d2b	48 89 4c 24 38	 mov	 QWORD PTR [rsp+56], rcx
  02d30	48 8d 8d d0 1e
	00 00		 lea	 rcx, QWORD PTR $T132[rbp]
  02d37	48 89 4c 24 30	 mov	 QWORD PTR [rsp+48], rcx
  02d3c	48 8d 8d a0 1e
	00 00		 lea	 rcx, QWORD PTR $T131[rbp]
  02d43	48 89 4c 24 28	 mov	 QWORD PTR [rsp+40], rcx
  02d48	48 8d 8d 70 1e
	00 00		 lea	 rcx, QWORD PTR $T130[rbp]
  02d4f	48 89 4c 24 20	 mov	 QWORD PTR [rsp+32], rcx
  02d54	41 b9 20 00 00
	00		 mov	 r9d, 32			; 00000020H
  02d5a	41 b8 59 02 00
	00		 mov	 r8d, 601		; 00000259H
  02d60	0f bf d0	 movsx	 edx, ax
  02d63	48 8d 8d 98 0f
	00 00		 lea	 rcx, QWORD PTR $T51[rbp]
  02d6a	e8 00 00 00 00	 call	 ??0Rule@GRB@@QEAA@FHFUChain@01@ZZ ; GRB::Rule::Rule
  02d6f	48 8d 8d 10 25
	00 00		 lea	 rcx, QWORD PTR $T165[rbp]
  02d76	48 8b f9	 mov	 rdi, rcx
  02d79	48 8b f0	 mov	 rsi, rax
  02d7c	b9 18 00 00 00	 mov	 ecx, 24
  02d81	f3 a4		 rep movsb
  02d83	b1 7d		 mov	 cl, 125			; 0000007dH
  02d85	e8 00 00 00 00	 call	 ?T@Chain@Rule@GRB@@SAFD@Z ; GRB::Rule::Chain::T
  02d8a	98		 cwde
  02d8b	89 85 48 2b 00
	00		 mov	 DWORD PTR tv1865[rbp], eax
  02d91	b1 3b		 mov	 cl, 59			; 0000003bH
  02d93	e8 00 00 00 00	 call	 ?T@Chain@Rule@GRB@@SAFD@Z ; GRB::Rule::Chain::T
  02d98	98		 cwde
  02d99	89 85 4c 2b 00
	00		 mov	 DWORD PTR tv1869[rbp], eax
  02d9f	b1 58		 mov	 cl, 88			; 00000058H
  02da1	e8 00 00 00 00	 call	 ?N@Chain@Rule@GRB@@SAFD@Z ; GRB::Rule::Chain::N
  02da6	98		 cwde
  02da7	89 85 50 2b 00
	00		 mov	 DWORD PTR tv1873[rbp], eax
  02dad	b1 72		 mov	 cl, 114			; 00000072H
  02daf	e8 00 00 00 00	 call	 ?T@Chain@Rule@GRB@@SAFD@Z ; GRB::Rule::Chain::T
  02db4	98		 cwde
  02db5	89 85 54 2b 00
	00		 mov	 DWORD PTR tv1877[rbp], eax
  02dbb	b1 4e		 mov	 cl, 78			; 0000004eH
  02dbd	e8 00 00 00 00	 call	 ?N@Chain@Rule@GRB@@SAFD@Z ; GRB::Rule::Chain::N
  02dc2	98		 cwde
  02dc3	89 85 58 2b 00
	00		 mov	 DWORD PTR tv1881[rbp], eax
  02dc9	b1 7b		 mov	 cl, 123			; 0000007bH
  02dcb	e8 00 00 00 00	 call	 ?T@Chain@Rule@GRB@@SAFD@Z ; GRB::Rule::Chain::T
  02dd0	98		 cwde
  02dd1	89 85 5c 2b 00
	00		 mov	 DWORD PTR tv1885[rbp], eax
  02dd7	b1 6d		 mov	 cl, 109			; 0000006dH
  02dd9	e8 00 00 00 00	 call	 ?T@Chain@Rule@GRB@@SAFD@Z ; GRB::Rule::Chain::T
  02dde	8b 8d 48 2b 00
	00		 mov	 ecx, DWORD PTR tv1865[rbp]
  02de4	89 4c 24 40	 mov	 DWORD PTR [rsp+64], ecx
  02de8	8b 8d 4c 2b 00
	00		 mov	 ecx, DWORD PTR tv1869[rbp]
  02dee	89 4c 24 38	 mov	 DWORD PTR [rsp+56], ecx
  02df2	8b 8d 50 2b 00
	00		 mov	 ecx, DWORD PTR tv1873[rbp]
  02df8	89 4c 24 30	 mov	 DWORD PTR [rsp+48], ecx
  02dfc	8b 8d 54 2b 00
	00		 mov	 ecx, DWORD PTR tv1877[rbp]
  02e02	89 4c 24 28	 mov	 DWORD PTR [rsp+40], ecx
  02e06	8b 8d 58 2b 00
	00		 mov	 ecx, DWORD PTR tv1881[rbp]
  02e0c	89 4c 24 20	 mov	 DWORD PTR [rsp+32], ecx
  02e10	8b 8d 5c 2b 00
	00		 mov	 ecx, DWORD PTR tv1885[rbp]
  02e16	44 8b c9	 mov	 r9d, ecx
  02e19	44 0f bf c0	 movsx	 r8d, ax
  02e1d	ba 07 00 00 00	 mov	 edx, 7
  02e22	48 8d 8d f8 15
	00 00		 lea	 rcx, QWORD PTR $T85[rbp]
  02e29	e8 00 00 00 00	 call	 ??0Chain@Rule@GRB@@QEAA@FFZZ ; GRB::Rule::Chain::Chain
  02e2e	48 8d 8d a0 24
	00 00		 lea	 rcx, QWORD PTR $T163[rbp]
  02e35	48 8b f9	 mov	 rdi, rcx
  02e38	48 8b f0	 mov	 rsi, rax
  02e3b	b9 10 00 00 00	 mov	 ecx, 16
  02e40	f3 a4		 rep movsb
  02e42	b1 53		 mov	 cl, 83			; 00000053H
  02e44	e8 00 00 00 00	 call	 ?N@Chain@Rule@GRB@@SAFD@Z ; GRB::Rule::Chain::N
  02e49	98		 cwde
  02e4a	89 85 60 2b 00
	00		 mov	 DWORD PTR tv1896[rbp], eax
  02e50	b1 7d		 mov	 cl, 125			; 0000007dH
  02e52	e8 00 00 00 00	 call	 ?T@Chain@Rule@GRB@@SAFD@Z ; GRB::Rule::Chain::T
  02e57	98		 cwde
  02e58	89 85 64 2b 00
	00		 mov	 DWORD PTR tv1900[rbp], eax
  02e5e	b1 3b		 mov	 cl, 59			; 0000003bH
  02e60	e8 00 00 00 00	 call	 ?T@Chain@Rule@GRB@@SAFD@Z ; GRB::Rule::Chain::T
  02e65	98		 cwde
  02e66	89 85 68 2b 00
	00		 mov	 DWORD PTR tv1904[rbp], eax
  02e6c	b1 58		 mov	 cl, 88			; 00000058H
  02e6e	e8 00 00 00 00	 call	 ?N@Chain@Rule@GRB@@SAFD@Z ; GRB::Rule::Chain::N
  02e73	98		 cwde
  02e74	89 85 6c 2b 00
	00		 mov	 DWORD PTR tv1908[rbp], eax
  02e7a	b1 72		 mov	 cl, 114			; 00000072H
  02e7c	e8 00 00 00 00	 call	 ?T@Chain@Rule@GRB@@SAFD@Z ; GRB::Rule::Chain::T
  02e81	98		 cwde
  02e82	89 85 70 2b 00
	00		 mov	 DWORD PTR tv1912[rbp], eax
  02e88	b1 4e		 mov	 cl, 78			; 0000004eH
  02e8a	e8 00 00 00 00	 call	 ?N@Chain@Rule@GRB@@SAFD@Z ; GRB::Rule::Chain::N
  02e8f	98		 cwde
  02e90	89 85 74 2b 00
	00		 mov	 DWORD PTR tv1916[rbp], eax
  02e96	b1 7b		 mov	 cl, 123			; 0000007bH
  02e98	e8 00 00 00 00	 call	 ?T@Chain@Rule@GRB@@SAFD@Z ; GRB::Rule::Chain::T
  02e9d	98		 cwde
  02e9e	89 85 78 2b 00
	00		 mov	 DWORD PTR tv1920[rbp], eax
  02ea4	b1 29		 mov	 cl, 41			; 00000029H
  02ea6	e8 00 00 00 00	 call	 ?T@Chain@Rule@GRB@@SAFD@Z ; GRB::Rule::Chain::T
  02eab	98		 cwde
  02eac	89 85 7c 2b 00
	00		 mov	 DWORD PTR tv1924[rbp], eax
  02eb2	b1 46		 mov	 cl, 70			; 00000046H
  02eb4	e8 00 00 00 00	 call	 ?N@Chain@Rule@GRB@@SAFD@Z ; GRB::Rule::Chain::N
  02eb9	98		 cwde
  02eba	89 85 80 2b 00
	00		 mov	 DWORD PTR tv1928[rbp], eax
  02ec0	b1 28		 mov	 cl, 40			; 00000028H
  02ec2	e8 00 00 00 00	 call	 ?T@Chain@Rule@GRB@@SAFD@Z ; GRB::Rule::Chain::T
  02ec7	98		 cwde
  02ec8	89 85 84 2b 00
	00		 mov	 DWORD PTR tv1932[rbp], eax
  02ece	b1 69		 mov	 cl, 105			; 00000069H
  02ed0	e8 00 00 00 00	 call	 ?T@Chain@Rule@GRB@@SAFD@Z ; GRB::Rule::Chain::T
  02ed5	98		 cwde
  02ed6	89 85 88 2b 00
	00		 mov	 DWORD PTR tv1936[rbp], eax
  02edc	b1 66		 mov	 cl, 102			; 00000066H
  02ede	e8 00 00 00 00	 call	 ?T@Chain@Rule@GRB@@SAFD@Z ; GRB::Rule::Chain::T
  02ee3	98		 cwde
  02ee4	89 85 8c 2b 00
	00		 mov	 DWORD PTR tv1940[rbp], eax
  02eea	b1 74		 mov	 cl, 116			; 00000074H
  02eec	e8 00 00 00 00	 call	 ?T@Chain@Rule@GRB@@SAFD@Z ; GRB::Rule::Chain::T
  02ef1	8b 8d 60 2b 00
	00		 mov	 ecx, DWORD PTR tv1896[rbp]
  02ef7	89 4c 24 70	 mov	 DWORD PTR [rsp+112], ecx
  02efb	8b 8d 64 2b 00
	00		 mov	 ecx, DWORD PTR tv1900[rbp]
  02f01	89 4c 24 68	 mov	 DWORD PTR [rsp+104], ecx
  02f05	8b 8d 68 2b 00
	00		 mov	 ecx, DWORD PTR tv1904[rbp]
  02f0b	89 4c 24 60	 mov	 DWORD PTR [rsp+96], ecx
  02f0f	8b 8d 6c 2b 00
	00		 mov	 ecx, DWORD PTR tv1908[rbp]
  02f15	89 4c 24 58	 mov	 DWORD PTR [rsp+88], ecx
  02f19	8b 8d 70 2b 00
	00		 mov	 ecx, DWORD PTR tv1912[rbp]
  02f1f	89 4c 24 50	 mov	 DWORD PTR [rsp+80], ecx
  02f23	8b 8d 74 2b 00
	00		 mov	 ecx, DWORD PTR tv1916[rbp]
  02f29	89 4c 24 48	 mov	 DWORD PTR [rsp+72], ecx
  02f2d	8b 8d 78 2b 00
	00		 mov	 ecx, DWORD PTR tv1920[rbp]
  02f33	89 4c 24 40	 mov	 DWORD PTR [rsp+64], ecx
  02f37	8b 8d 7c 2b 00
	00		 mov	 ecx, DWORD PTR tv1924[rbp]
  02f3d	89 4c 24 38	 mov	 DWORD PTR [rsp+56], ecx
  02f41	8b 8d 80 2b 00
	00		 mov	 ecx, DWORD PTR tv1928[rbp]
  02f47	89 4c 24 30	 mov	 DWORD PTR [rsp+48], ecx
  02f4b	8b 8d 84 2b 00
	00		 mov	 ecx, DWORD PTR tv1932[rbp]
  02f51	89 4c 24 28	 mov	 DWORD PTR [rsp+40], ecx
  02f55	8b 8d 88 2b 00
	00		 mov	 ecx, DWORD PTR tv1936[rbp]
  02f5b	89 4c 24 20	 mov	 DWORD PTR [rsp+32], ecx
  02f5f	8b 8d 8c 2b 00
	00		 mov	 ecx, DWORD PTR tv1940[rbp]
  02f65	44 8b c9	 mov	 r9d, ecx
  02f68	44 0f bf c0	 movsx	 r8d, ax
  02f6c	ba 0d 00 00 00	 mov	 edx, 13
  02f71	48 8d 8d 28 16
	00 00		 lea	 rcx, QWORD PTR $T86[rbp]
  02f78	e8 00 00 00 00	 call	 ??0Chain@Rule@GRB@@QEAA@FFZZ ; GRB::Rule::Chain::Chain
  02f7d	48 8d 8d 70 24
	00 00		 lea	 rcx, QWORD PTR $T162[rbp]
  02f84	48 8b f9	 mov	 rdi, rcx
  02f87	48 8b f0	 mov	 rsi, rax
  02f8a	b9 10 00 00 00	 mov	 ecx, 16
  02f8f	f3 a4		 rep movsb
  02f91	b1 53		 mov	 cl, 83			; 00000053H
  02f93	e8 00 00 00 00	 call	 ?N@Chain@Rule@GRB@@SAFD@Z ; GRB::Rule::Chain::N
  02f98	48 8d 8d a0 24
	00 00		 lea	 rcx, QWORD PTR $T163[rbp]
  02f9f	48 89 4c 24 28	 mov	 QWORD PTR [rsp+40], rcx
  02fa4	48 8d 8d 70 24
	00 00		 lea	 rcx, QWORD PTR $T162[rbp]
  02fab	48 89 4c 24 20	 mov	 QWORD PTR [rsp+32], rcx
  02fb0	41 b9 02 00 00
	00		 mov	 r9d, 2
  02fb6	41 b8 58 02 00
	00		 mov	 r8d, 600		; 00000258H
  02fbc	0f bf d0	 movsx	 edx, ax
  02fbf	48 8d 8d c8 15
	00 00		 lea	 rcx, QWORD PTR $T84[rbp]
  02fc6	e8 00 00 00 00	 call	 ??0Rule@GRB@@QEAA@FHFUChain@01@ZZ ; GRB::Rule::Rule
  02fcb	48 8d 8d d0 24
	00 00		 lea	 rcx, QWORD PTR $T164[rbp]
  02fd2	48 8b f9	 mov	 rdi, rcx
  02fd5	48 8b f0	 mov	 rsi, rax
  02fd8	b9 18 00 00 00	 mov	 ecx, 24
  02fdd	f3 a4		 rep movsb
  02fdf	b1 24		 mov	 cl, 36			; 00000024H
  02fe1	e8 00 00 00 00	 call	 ?T@Chain@Rule@GRB@@SAFD@Z ; GRB::Rule::Chain::T
  02fe6	66 89 85 90 2b
	00 00		 mov	 WORD PTR tv1640[rbp], ax
  02fed	b1 53		 mov	 cl, 83			; 00000053H
  02fef	e8 00 00 00 00	 call	 ?N@Chain@Rule@GRB@@SAFD@Z ; GRB::Rule::Chain::N
  02ff4	48 8d 8d d0 26
	00 00		 lea	 rcx, QWORD PTR $T172[rbp]
  02ffb	48 89 4c 24 60	 mov	 QWORD PTR [rsp+96], rcx
  03000	48 8d 8d 90 26
	00 00		 lea	 rcx, QWORD PTR $T171[rbp]
  03007	48 89 4c 24 58	 mov	 QWORD PTR [rsp+88], rcx
  0300c	48 8d 8d 50 26
	00 00		 lea	 rcx, QWORD PTR $T170[rbp]
  03013	48 89 4c 24 50	 mov	 QWORD PTR [rsp+80], rcx
  03018	48 8d 8d 10 26
	00 00		 lea	 rcx, QWORD PTR $T169[rbp]
  0301f	48 89 4c 24 48	 mov	 QWORD PTR [rsp+72], rcx
  03024	48 8d 8d d0 25
	00 00		 lea	 rcx, QWORD PTR $T168[rbp]
  0302b	48 89 4c 24 40	 mov	 QWORD PTR [rsp+64], rcx
  03030	48 8d 8d 90 25
	00 00		 lea	 rcx, QWORD PTR $T167[rbp]
  03037	48 89 4c 24 38	 mov	 QWORD PTR [rsp+56], rcx
  0303c	48 8d 8d 50 25
	00 00		 lea	 rcx, QWORD PTR $T166[rbp]
  03043	48 89 4c 24 30	 mov	 QWORD PTR [rsp+48], rcx
  03048	48 8d 8d 10 25
	00 00		 lea	 rcx, QWORD PTR $T165[rbp]
  0304f	48 89 4c 24 28	 mov	 QWORD PTR [rsp+40], rcx
  03054	48 8d 8d d0 24
	00 00		 lea	 rcx, QWORD PTR $T164[rbp]
  0305b	48 89 4c 24 20	 mov	 QWORD PTR [rsp+32], rcx
  03060	41 b9 09 00 00
	00		 mov	 r9d, 9
  03066	0f b7 8d 90 2b
	00 00		 movzx	 ecx, WORD PTR tv1640[rbp]
  0306d	44 0f bf c1	 movsx	 r8d, cx
  03071	0f bf d0	 movsx	 edx, ax
  03074	48 8d 0d 00 00
	00 00		 lea	 rcx, OFFSET FLAT:?greibach@GRB@@3UGreibach@1@A ; GRB::greibach
  0307b	e8 00 00 00 00	 call	 ??0Greibach@GRB@@QEAA@FFFURule@1@ZZ ; GRB::Greibach::Greibach
  03080	48 8d a5 a0 2b
	00 00		 lea	 rsp, QWORD PTR [rbp+11168]
  03087	5f		 pop	 rdi
  03088	5e		 pop	 rsi
  03089	5d		 pop	 rbp
  0308a	c3		 ret	 0
??__Egreibach@GRB@@YAXXZ ENDP				; GRB::`dynamic initializer for 'greibach''
text$di	ENDS
; Function compile flags: /Odtp /RTCsu /ZI
; File C:\Users\Skvortsoff\OneDrive\Документы\GitHub\course_LP\course_LP\GRB.cpp
;	COMDAT ?getGreibach@GRB@@YA?AUGreibach@1@XZ
_TEXT	SEGMENT
__$ReturnUdt$ = 224
?getGreibach@GRB@@YA?AUGreibach@1@XZ PROC		; GRB::getGreibach, COMDAT

; 189  : 	Greibach getGreibach() { return greibach; }

$LN4:
  00000	48 89 4c 24 08	 mov	 QWORD PTR [rsp+8], rcx
  00005	55		 push	 rbp
  00006	56		 push	 rsi
  00007	57		 push	 rdi
  00008	48 81 ec e0 00
	00 00		 sub	 rsp, 224		; 000000e0H
  0000f	48 8d 6c 24 20	 lea	 rbp, QWORD PTR [rsp+32]
  00014	48 8b fc	 mov	 rdi, rsp
  00017	b9 38 00 00 00	 mov	 ecx, 56			; 00000038H
  0001c	b8 cc cc cc cc	 mov	 eax, -858993460		; ccccccccH
  00021	f3 ab		 rep stosd
  00023	48 8b 8c 24 08
	01 00 00	 mov	 rcx, QWORD PTR [rsp+264]
  0002b	48 8d 0d 00 00
	00 00		 lea	 rcx, OFFSET FLAT:__5D9978A4_GRB@cpp
  00032	e8 00 00 00 00	 call	 __CheckForDebuggerJustMyCode
  00037	48 8d 05 00 00
	00 00		 lea	 rax, OFFSET FLAT:?greibach@GRB@@3UGreibach@1@A ; GRB::greibach
  0003e	48 8b bd e0 00
	00 00		 mov	 rdi, QWORD PTR __$ReturnUdt$[rbp]
  00045	48 8b f0	 mov	 rsi, rax
  00048	b9 10 00 00 00	 mov	 ecx, 16
  0004d	f3 a4		 rep movsb
  0004f	48 8b 85 e0 00
	00 00		 mov	 rax, QWORD PTR __$ReturnUdt$[rbp]
  00056	48 8d a5 c0 00
	00 00		 lea	 rsp, QWORD PTR [rbp+192]
  0005d	5f		 pop	 rdi
  0005e	5e		 pop	 rsi
  0005f	5d		 pop	 rbp
  00060	c3		 ret	 0
?getGreibach@GRB@@YA?AUGreibach@1@XZ ENDP		; GRB::getGreibach
_TEXT	ENDS
; Function compile flags: /Odtp /RTCsu /ZI
; File C:\Users\Skvortsoff\OneDrive\Документы\GitHub\course_LP\course_LP\GRB.cpp
;	COMDAT ?getRule@Greibach@GRB@@QEAA?AURule@2@F@Z
_TEXT	SEGMENT
rc$ = 8
__$ArrayPad$ = 232
this$ = 272
__$ReturnUdt$ = 280
n$ = 288
?getRule@Greibach@GRB@@QEAA?AURule@2@F@Z PROC		; GRB::Greibach::getRule, COMDAT

; 47   : 	{

$LN5:
  00000	66 44 89 44 24
	18		 mov	 WORD PTR [rsp+24], r8w
  00006	48 89 54 24 10	 mov	 QWORD PTR [rsp+16], rdx
  0000b	48 89 4c 24 08	 mov	 QWORD PTR [rsp+8], rcx
  00010	55		 push	 rbp
  00011	56		 push	 rsi
  00012	57		 push	 rdi
  00013	48 81 ec 10 01
	00 00		 sub	 rsp, 272		; 00000110H
  0001a	48 8d 6c 24 20	 lea	 rbp, QWORD PTR [rsp+32]
  0001f	48 8b fc	 mov	 rdi, rsp
  00022	b9 44 00 00 00	 mov	 ecx, 68			; 00000044H
  00027	b8 cc cc cc cc	 mov	 eax, -858993460		; ccccccccH
  0002c	f3 ab		 rep stosd
  0002e	48 8b 8c 24 38
	01 00 00	 mov	 rcx, QWORD PTR [rsp+312]
  00036	48 8b 05 00 00
	00 00		 mov	 rax, QWORD PTR __security_cookie
  0003d	48 33 c5	 xor	 rax, rbp
  00040	48 89 85 e8 00
	00 00		 mov	 QWORD PTR __$ArrayPad$[rbp], rax
  00047	48 8d 0d 00 00
	00 00		 lea	 rcx, OFFSET FLAT:__5D9978A4_GRB@cpp
  0004e	e8 00 00 00 00	 call	 __CheckForDebuggerJustMyCode

; 48   : 		Rule rc;

  00053	48 8d 4d 08	 lea	 rcx, QWORD PTR rc$[rbp]
  00057	e8 00 00 00 00	 call	 ??0Rule@GRB@@QEAA@XZ	; GRB::Rule::Rule

; 49   : 		if (n < size) rc = rules[n];

  0005c	0f bf 85 20 01
	00 00		 movsx	 eax, WORD PTR n$[rbp]
  00063	48 8b 8d 10 01
	00 00		 mov	 rcx, QWORD PTR this$[rbp]
  0006a	0f bf 09	 movsx	 ecx, WORD PTR [rcx]
  0006d	3b c1		 cmp	 eax, ecx
  0006f	7d 29		 jge	 SHORT $LN2@getRule
  00071	48 0f bf 85 20
	01 00 00	 movsx	 rax, WORD PTR n$[rbp]
  00079	48 6b c0 18	 imul	 rax, rax, 24
  0007d	48 8b 8d 10 01
	00 00		 mov	 rcx, QWORD PTR this$[rbp]
  00084	48 8b 49 08	 mov	 rcx, QWORD PTR [rcx+8]
  00088	48 8d 55 08	 lea	 rdx, QWORD PTR rc$[rbp]
  0008c	48 8b fa	 mov	 rdi, rdx
  0008f	48 8d 34 01	 lea	 rsi, QWORD PTR [rcx+rax]
  00093	b9 18 00 00 00	 mov	 ecx, 24
  00098	f3 a4		 rep movsb
$LN2@getRule:

; 50   : 		return rc;

  0009a	48 8d 45 08	 lea	 rax, QWORD PTR rc$[rbp]
  0009e	48 8b bd 18 01
	00 00		 mov	 rdi, QWORD PTR __$ReturnUdt$[rbp]
  000a5	48 8b f0	 mov	 rsi, rax
  000a8	b9 18 00 00 00	 mov	 ecx, 24
  000ad	f3 a4		 rep movsb
  000af	48 8b 85 18 01
	00 00		 mov	 rax, QWORD PTR __$ReturnUdt$[rbp]

; 51   : 	};

  000b6	48 8b f8	 mov	 rdi, rax
  000b9	48 8d 4d e0	 lea	 rcx, QWORD PTR [rbp-32]
  000bd	48 8d 15 00 00
	00 00		 lea	 rdx, OFFSET FLAT:?getRule@Greibach@GRB@@QEAA?AURule@2@F@Z$rtcFrameData
  000c4	e8 00 00 00 00	 call	 _RTC_CheckStackVars
  000c9	48 8b c7	 mov	 rax, rdi
  000cc	48 8b 8d e8 00
	00 00		 mov	 rcx, QWORD PTR __$ArrayPad$[rbp]
  000d3	48 33 cd	 xor	 rcx, rbp
  000d6	e8 00 00 00 00	 call	 __security_check_cookie
  000db	48 8d a5 f0 00
	00 00		 lea	 rsp, QWORD PTR [rbp+240]
  000e2	5f		 pop	 rdi
  000e3	5e		 pop	 rsi
  000e4	5d		 pop	 rbp
  000e5	c3		 ret	 0
?getRule@Greibach@GRB@@QEAA?AURule@2@F@Z ENDP		; GRB::Greibach::getRule
_TEXT	ENDS
; Function compile flags: /Odtp /RTCsu /ZI
; File C:\Users\Skvortsoff\OneDrive\Документы\GitHub\course_LP\course_LP\GRB.cpp
;	COMDAT ?getRule@Greibach@GRB@@QEAAFFAEAURule@2@@Z
_TEXT	SEGMENT
rc$ = 4
k$ = 36
this$ = 288
pnn$ = 296
prule$ = 304
?getRule@Greibach@GRB@@QEAAFFAEAURule@2@@Z PROC		; GRB::Greibach::getRule, COMDAT

; 39   : 	{

$LN8:
  00000	4c 89 44 24 18	 mov	 QWORD PTR [rsp+24], r8
  00005	66 89 54 24 10	 mov	 WORD PTR [rsp+16], dx
  0000a	48 89 4c 24 08	 mov	 QWORD PTR [rsp+8], rcx
  0000f	55		 push	 rbp
  00010	56		 push	 rsi
  00011	57		 push	 rdi
  00012	48 81 ec 20 01
	00 00		 sub	 rsp, 288		; 00000120H
  00019	48 8d 6c 24 20	 lea	 rbp, QWORD PTR [rsp+32]
  0001e	48 8b fc	 mov	 rdi, rsp
  00021	b9 48 00 00 00	 mov	 ecx, 72			; 00000048H
  00026	b8 cc cc cc cc	 mov	 eax, -858993460		; ccccccccH
  0002b	f3 ab		 rep stosd
  0002d	48 8b 8c 24 48
	01 00 00	 mov	 rcx, QWORD PTR [rsp+328]
  00035	48 8d 0d 00 00
	00 00		 lea	 rcx, OFFSET FLAT:__5D9978A4_GRB@cpp
  0003c	e8 00 00 00 00	 call	 __CheckForDebuggerJustMyCode

; 40   : 		short rc = -1;

  00041	b8 ff ff ff ff	 mov	 eax, -1
  00046	66 89 45 04	 mov	 WORD PTR rc$[rbp], ax

; 41   : 		short k = 0;

  0004a	33 c0		 xor	 eax, eax
  0004c	66 89 45 24	 mov	 WORD PTR k$[rbp], ax
$LN2@getRule:

; 42   : 		while (k < size && rules[k].nn != pnn) k++;

  00050	0f bf 45 24	 movsx	 eax, WORD PTR k$[rbp]
  00054	48 8b 8d 20 01
	00 00		 mov	 rcx, QWORD PTR this$[rbp]
  0005b	0f bf 09	 movsx	 ecx, WORD PTR [rcx]
  0005e	3b c1		 cmp	 eax, ecx
  00060	7d 30		 jge	 SHORT $LN3@getRule
  00062	48 0f bf 45 24	 movsx	 rax, WORD PTR k$[rbp]
  00067	48 6b c0 18	 imul	 rax, rax, 24
  0006b	48 8b 8d 20 01
	00 00		 mov	 rcx, QWORD PTR this$[rbp]
  00072	48 8b 49 08	 mov	 rcx, QWORD PTR [rcx+8]
  00076	0f bf 04 01	 movsx	 eax, WORD PTR [rcx+rax]
  0007a	0f bf 8d 28 01
	00 00		 movsx	 ecx, WORD PTR pnn$[rbp]
  00081	3b c1		 cmp	 eax, ecx
  00083	74 0d		 je	 SHORT $LN3@getRule
  00085	0f b7 45 24	 movzx	 eax, WORD PTR k$[rbp]
  00089	66 ff c0	 inc	 ax
  0008c	66 89 45 24	 mov	 WORD PTR k$[rbp], ax
  00090	eb be		 jmp	 SHORT $LN2@getRule
$LN3@getRule:

; 43   : 		if (k < size) prule = rules[rc = k];

  00092	0f bf 45 24	 movsx	 eax, WORD PTR k$[rbp]
  00096	48 8b 8d 20 01
	00 00		 mov	 rcx, QWORD PTR this$[rbp]
  0009d	0f bf 09	 movsx	 ecx, WORD PTR [rcx]
  000a0	3b c1		 cmp	 eax, ecx
  000a2	7d 2e		 jge	 SHORT $LN4@getRule
  000a4	0f b7 45 24	 movzx	 eax, WORD PTR k$[rbp]
  000a8	66 89 45 04	 mov	 WORD PTR rc$[rbp], ax
  000ac	48 0f bf 45 04	 movsx	 rax, WORD PTR rc$[rbp]
  000b1	48 6b c0 18	 imul	 rax, rax, 24
  000b5	48 8b 8d 20 01
	00 00		 mov	 rcx, QWORD PTR this$[rbp]
  000bc	48 8b 49 08	 mov	 rcx, QWORD PTR [rcx+8]
  000c0	48 8b bd 30 01
	00 00		 mov	 rdi, QWORD PTR prule$[rbp]
  000c7	48 8d 34 01	 lea	 rsi, QWORD PTR [rcx+rax]
  000cb	b9 18 00 00 00	 mov	 ecx, 24
  000d0	f3 a4		 rep movsb
$LN4@getRule:

; 44   : 		return rc;

  000d2	0f b7 45 04	 movzx	 eax, WORD PTR rc$[rbp]

; 45   : 	};

  000d6	48 8d a5 00 01
	00 00		 lea	 rsp, QWORD PTR [rbp+256]
  000dd	5f		 pop	 rdi
  000de	5e		 pop	 rsi
  000df	5d		 pop	 rbp
  000e0	c3		 ret	 0
?getRule@Greibach@GRB@@QEAAFFAEAURule@2@@Z ENDP		; GRB::Greibach::getRule
_TEXT	ENDS
; Function compile flags: /Odtp /RTCsu /ZI
; File C:\Users\Skvortsoff\OneDrive\Документы\GitHub\course_LP\course_LP\GRB.cpp
;	COMDAT ??0Greibach@GRB@@QEAA@FFFURule@1@ZZ
_TEXT	SEGMENT
p$ = 8
i$1 = 36
$T2 = 264
$T3 = 296
$T4 = 328
tv92 = 344
this$ = 384
psrartN$ = 392
pstbottom$ = 400
psize$ = 408
r$ = 416
??0Greibach@GRB@@QEAA@FFFURule@1@ZZ PROC		; GRB::Greibach::Greibach, COMDAT

; 28   : 	{

$LN12:
  00000	66 44 89 4c 24
	20		 mov	 WORD PTR [rsp+32], r9w
  00006	66 44 89 44 24
	18		 mov	 WORD PTR [rsp+24], r8w
  0000c	66 89 54 24 10	 mov	 WORD PTR [rsp+16], dx
  00011	48 89 4c 24 08	 mov	 QWORD PTR [rsp+8], rcx
  00016	55		 push	 rbp
  00017	56		 push	 rsi
  00018	57		 push	 rdi
  00019	48 81 ec 80 01
	00 00		 sub	 rsp, 384		; 00000180H
  00020	48 8d 6c 24 20	 lea	 rbp, QWORD PTR [rsp+32]
  00025	48 8b fc	 mov	 rdi, rsp
  00028	b9 60 00 00 00	 mov	 ecx, 96			; 00000060H
  0002d	b8 cc cc cc cc	 mov	 eax, -858993460		; ccccccccH
  00032	f3 ab		 rep stosd
  00034	48 8b 8c 24 a8
	01 00 00	 mov	 rcx, QWORD PTR [rsp+424]
  0003c	48 8d 0d 00 00
	00 00		 lea	 rcx, OFFSET FLAT:__5D9978A4_GRB@cpp
  00043	e8 00 00 00 00	 call	 __CheckForDebuggerJustMyCode

; 29   : 		startN = psrartN;

  00048	48 8b 85 80 01
	00 00		 mov	 rax, QWORD PTR this$[rbp]
  0004f	0f b7 8d 88 01
	00 00		 movzx	 ecx, WORD PTR psrartN$[rbp]
  00056	66 89 48 02	 mov	 WORD PTR [rax+2], cx

; 30   : 		stbottomT = pstbottom;

  0005a	48 8b 85 80 01
	00 00		 mov	 rax, QWORD PTR this$[rbp]
  00061	0f b7 8d 90 01
	00 00		 movzx	 ecx, WORD PTR pstbottom$[rbp]
  00068	66 89 48 04	 mov	 WORD PTR [rax+4], cx

; 31   : 		rules = new Rule[size = psize];

  0006c	48 8b 85 80 01
	00 00		 mov	 rax, QWORD PTR this$[rbp]
  00073	0f b7 8d 98 01
	00 00		 movzx	 ecx, WORD PTR psize$[rbp]
  0007a	66 89 08	 mov	 WORD PTR [rax], cx
  0007d	48 0f bf 85 98
	01 00 00	 movsx	 rax, WORD PTR psize$[rbp]
  00085	48 89 85 08 01
	00 00		 mov	 QWORD PTR $T2[rbp], rax
  0008c	b8 18 00 00 00	 mov	 eax, 24
  00091	48 f7 a5 08 01
	00 00		 mul	 QWORD PTR $T2[rbp]
  00098	48 c7 c1 ff ff
	ff ff		 mov	 rcx, -1
  0009f	48 0f 40 c1	 cmovo	 rax, rcx
  000a3	48 8b c8	 mov	 rcx, rax
  000a6	e8 00 00 00 00	 call	 ??_U@YAPEAX_K@Z		; operator new[]
  000ab	48 89 85 48 01
	00 00		 mov	 QWORD PTR $T4[rbp], rax
  000b2	48 83 bd 48 01
	00 00 00	 cmp	 QWORD PTR $T4[rbp], 0
  000ba	74 2f		 je	 SHORT $LN6@Greibach
  000bc	4c 8d 0d 00 00
	00 00		 lea	 r9, OFFSET FLAT:??0Rule@GRB@@QEAA@XZ ; GRB::Rule::Rule
  000c3	4c 8b 85 08 01
	00 00		 mov	 r8, QWORD PTR $T2[rbp]
  000ca	ba 18 00 00 00	 mov	 edx, 24
  000cf	48 8b 8d 48 01
	00 00		 mov	 rcx, QWORD PTR $T4[rbp]
  000d6	e8 00 00 00 00	 call	 ??_H@YAXPEAX_K1P6APEAX0@Z@Z
  000db	48 8b 85 48 01
	00 00		 mov	 rax, QWORD PTR $T4[rbp]
  000e2	48 89 85 58 01
	00 00		 mov	 QWORD PTR tv92[rbp], rax
  000e9	eb 0b		 jmp	 SHORT $LN7@Greibach
$LN6@Greibach:
  000eb	48 c7 85 58 01
	00 00 00 00 00
	00		 mov	 QWORD PTR tv92[rbp], 0
$LN7@Greibach:
  000f6	48 8b 85 58 01
	00 00		 mov	 rax, QWORD PTR tv92[rbp]
  000fd	48 89 85 28 01
	00 00		 mov	 QWORD PTR $T3[rbp], rax
  00104	48 8b 85 80 01
	00 00		 mov	 rax, QWORD PTR this$[rbp]
  0010b	48 8b 8d 28 01
	00 00		 mov	 rcx, QWORD PTR $T3[rbp]
  00112	48 89 48 08	 mov	 QWORD PTR [rax+8], rcx

; 32   : 		Rule* p = &r;

  00116	48 8b 85 a0 01
	00 00		 mov	 rax, QWORD PTR r$[rbp]
  0011d	48 89 45 08	 mov	 QWORD PTR p$[rbp], rax

; 33   : 		for (int i = 0; i < size; i++) rules[i] = p[i];

  00121	c7 45 24 00 00
	00 00		 mov	 DWORD PTR i$1[rbp], 0
  00128	eb 08		 jmp	 SHORT $LN4@Greibach
$LN2@Greibach:
  0012a	8b 45 24	 mov	 eax, DWORD PTR i$1[rbp]
  0012d	ff c0		 inc	 eax
  0012f	89 45 24	 mov	 DWORD PTR i$1[rbp], eax
$LN4@Greibach:
  00132	48 8b 85 80 01
	00 00		 mov	 rax, QWORD PTR this$[rbp]
  00139	0f bf 00	 movsx	 eax, WORD PTR [rax]
  0013c	39 45 24	 cmp	 DWORD PTR i$1[rbp], eax
  0013f	7d 30		 jge	 SHORT $LN3@Greibach
  00141	48 63 45 24	 movsxd	 rax, DWORD PTR i$1[rbp]
  00145	48 6b c0 18	 imul	 rax, rax, 24
  00149	48 63 4d 24	 movsxd	 rcx, DWORD PTR i$1[rbp]
  0014d	48 6b c9 18	 imul	 rcx, rcx, 24
  00151	48 8b 95 80 01
	00 00		 mov	 rdx, QWORD PTR this$[rbp]
  00158	48 8b 52 08	 mov	 rdx, QWORD PTR [rdx+8]
  0015c	4c 8b 45 08	 mov	 r8, QWORD PTR p$[rbp]
  00160	48 8d 3c 0a	 lea	 rdi, QWORD PTR [rdx+rcx]
  00164	49 8d 34 00	 lea	 rsi, QWORD PTR [r8+rax]
  00168	b9 18 00 00 00	 mov	 ecx, 24
  0016d	f3 a4		 rep movsb
  0016f	eb b9		 jmp	 SHORT $LN2@Greibach
$LN3@Greibach:

; 34   : 
; 35   : 	};

  00171	48 8b 85 80 01
	00 00		 mov	 rax, QWORD PTR this$[rbp]
  00178	48 8d a5 60 01
	00 00		 lea	 rsp, QWORD PTR [rbp+352]
  0017f	5f		 pop	 rdi
  00180	5e		 pop	 rsi
  00181	5d		 pop	 rbp
  00182	c3		 ret	 0
??0Greibach@GRB@@QEAA@FFFURule@1@ZZ ENDP		; GRB::Greibach::Greibach
_TEXT	ENDS
;	COMDAT text$x
text$x	SEGMENT
p$ = 8
i$1 = 36
$T2 = 264
$T3 = 296
$T4 = 328
tv92 = 344
this$ = 384
psrartN$ = 392
pstbottom$ = 400
psize$ = 408
r$ = 416
?dtor$0@?0???0Greibach@GRB@@QEAA@FFFURule@1@ZZ@4HA PROC	; `GRB::Greibach::Greibach'::`1'::dtor$0
  00000	48 89 4c 24 08	 mov	 QWORD PTR [rsp+8], rcx
  00005	48 89 54 24 10	 mov	 QWORD PTR [rsp+16], rdx
  0000a	55		 push	 rbp
  0000b	57		 push	 rdi
  0000c	48 83 ec 28	 sub	 rsp, 40			; 00000028H
  00010	48 8d 6a 20	 lea	 rbp, QWORD PTR [rdx+32]
  00014	b8 18 00 00 00	 mov	 eax, 24
  00019	48 f7 a5 08 01
	00 00		 mul	 QWORD PTR $T2[rbp]
  00020	48 8b d0	 mov	 rdx, rax
  00023	48 c7 c0 ff ff
	ff ff		 mov	 rax, -1
  0002a	48 0f 40 d0	 cmovo	 rdx, rax
  0002e	48 8b 8d 48 01
	00 00		 mov	 rcx, QWORD PTR $T4[rbp]
  00035	e8 00 00 00 00	 call	 ??_V@YAXPEAX_K@Z	; operator delete[]
  0003a	48 83 c4 28	 add	 rsp, 40			; 00000028H
  0003e	5f		 pop	 rdi
  0003f	5d		 pop	 rbp
  00040	c3		 ret	 0
?dtor$0@?0???0Greibach@GRB@@QEAA@FFFURule@1@ZZ@4HA ENDP	; `GRB::Greibach::Greibach'::`1'::dtor$0
text$x	ENDS
; Function compile flags: /Odtp /RTCsu /ZI
;	COMDAT text$x
text$x	SEGMENT
p$ = 8
i$1 = 36
$T2 = 264
$T3 = 296
$T4 = 328
tv92 = 344
this$ = 384
psrartN$ = 392
pstbottom$ = 400
psize$ = 408
r$ = 416
?dtor$0@?0???0Greibach@GRB@@QEAA@FFFURule@1@ZZ@4HA PROC	; `GRB::Greibach::Greibach'::`1'::dtor$0
  00000	48 89 4c 24 08	 mov	 QWORD PTR [rsp+8], rcx
  00005	48 89 54 24 10	 mov	 QWORD PTR [rsp+16], rdx
  0000a	55		 push	 rbp
  0000b	57		 push	 rdi
  0000c	48 83 ec 28	 sub	 rsp, 40			; 00000028H
  00010	48 8d 6a 20	 lea	 rbp, QWORD PTR [rdx+32]
  00014	b8 18 00 00 00	 mov	 eax, 24
  00019	48 f7 a5 08 01
	00 00		 mul	 QWORD PTR $T2[rbp]
  00020	48 8b d0	 mov	 rdx, rax
  00023	48 c7 c0 ff ff
	ff ff		 mov	 rax, -1
  0002a	48 0f 40 d0	 cmovo	 rdx, rax
  0002e	48 8b 8d 48 01
	00 00		 mov	 rcx, QWORD PTR $T4[rbp]
  00035	e8 00 00 00 00	 call	 ??_V@YAXPEAX_K@Z	; operator delete[]
  0003a	48 83 c4 28	 add	 rsp, 40			; 00000028H
  0003e	5f		 pop	 rdi
  0003f	5d		 pop	 rbp
  00040	c3		 ret	 0
?dtor$0@?0???0Greibach@GRB@@QEAA@FFFURule@1@ZZ@4HA ENDP	; `GRB::Greibach::Greibach'::`1'::dtor$0
text$x	ENDS
; Function compile flags: /Odtp /RTCsu /ZI
; File C:\Users\Skvortsoff\OneDrive\Документы\GitHub\course_LP\course_LP\GRB.cpp
;	COMDAT ?getNextChain@Rule@GRB@@QEAAFFAEAUChain@12@G@Z
_TEXT	SEGMENT
rc$ = 4
tv84 = 212
this$ = 256
t$ = 264
pchain$ = 272
j$ = 280
?getNextChain@Rule@GRB@@QEAAFFAEAUChain@12@G@Z PROC	; GRB::Rule::getNextChain, COMDAT

; 64   : 	{

$LN10:
  00000	66 44 89 4c 24
	20		 mov	 WORD PTR [rsp+32], r9w
  00006	4c 89 44 24 18	 mov	 QWORD PTR [rsp+24], r8
  0000b	66 89 54 24 10	 mov	 WORD PTR [rsp+16], dx
  00010	48 89 4c 24 08	 mov	 QWORD PTR [rsp+8], rcx
  00015	55		 push	 rbp
  00016	56		 push	 rsi
  00017	57		 push	 rdi
  00018	48 81 ec 00 01
	00 00		 sub	 rsp, 256		; 00000100H
  0001f	48 8d 6c 24 20	 lea	 rbp, QWORD PTR [rsp+32]
  00024	48 8b fc	 mov	 rdi, rsp
  00027	b9 40 00 00 00	 mov	 ecx, 64			; 00000040H
  0002c	b8 cc cc cc cc	 mov	 eax, -858993460		; ccccccccH
  00031	f3 ab		 rep stosd
  00033	48 8b 8c 24 28
	01 00 00	 mov	 rcx, QWORD PTR [rsp+296]
  0003b	48 8d 0d 00 00
	00 00		 lea	 rcx, OFFSET FLAT:__5D9978A4_GRB@cpp
  00042	e8 00 00 00 00	 call	 __CheckForDebuggerJustMyCode

; 65   : 		short rc = -1;

  00047	b8 ff ff ff ff	 mov	 eax, -1
  0004c	66 89 45 04	 mov	 WORD PTR rc$[rbp], ax
$LN2@getNextCha:

; 66   : 		while (j < size && chains[j].nt[0] != t) ++j;

  00050	0f b7 85 18 01
	00 00		 movzx	 eax, WORD PTR j$[rbp]
  00057	48 8b 8d 00 01
	00 00		 mov	 rcx, QWORD PTR this$[rbp]
  0005e	0f bf 49 08	 movsx	 ecx, WORD PTR [rcx+8]
  00062	3b c1		 cmp	 eax, ecx
  00064	7d 46		 jge	 SHORT $LN3@getNextCha
  00066	0f b7 85 18 01
	00 00		 movzx	 eax, WORD PTR j$[rbp]
  0006d	48 6b c0 10	 imul	 rax, rax, 16
  00071	48 8b 8d 00 01
	00 00		 mov	 rcx, QWORD PTR this$[rbp]
  00078	48 8b 49 10	 mov	 rcx, QWORD PTR [rcx+16]
  0007c	ba 02 00 00 00	 mov	 edx, 2
  00081	48 6b d2 00	 imul	 rdx, rdx, 0
  00085	48 8b 44 01 08	 mov	 rax, QWORD PTR [rcx+rax+8]
  0008a	0f bf 04 10	 movsx	 eax, WORD PTR [rax+rdx]
  0008e	0f bf 8d 08 01
	00 00		 movsx	 ecx, WORD PTR t$[rbp]
  00095	3b c1		 cmp	 eax, ecx
  00097	74 13		 je	 SHORT $LN3@getNextCha
  00099	0f b7 85 18 01
	00 00		 movzx	 eax, WORD PTR j$[rbp]
  000a0	66 ff c0	 inc	 ax
  000a3	66 89 85 18 01
	00 00		 mov	 WORD PTR j$[rbp], ax
  000aa	eb a4		 jmp	 SHORT $LN2@getNextCha
$LN3@getNextCha:

; 67   : 		rc = (j < size ? j : -1);

  000ac	0f b7 85 18 01
	00 00		 movzx	 eax, WORD PTR j$[rbp]
  000b3	48 8b 8d 00 01
	00 00		 mov	 rcx, QWORD PTR this$[rbp]
  000ba	0f bf 49 08	 movsx	 ecx, WORD PTR [rcx+8]
  000be	3b c1		 cmp	 eax, ecx
  000c0	7d 0f		 jge	 SHORT $LN6@getNextCha
  000c2	0f b7 85 18 01
	00 00		 movzx	 eax, WORD PTR j$[rbp]
  000c9	89 85 d4 00 00
	00		 mov	 DWORD PTR tv84[rbp], eax
  000cf	eb 0a		 jmp	 SHORT $LN7@getNextCha
$LN6@getNextCha:
  000d1	c7 85 d4 00 00
	00 ff ff ff ff	 mov	 DWORD PTR tv84[rbp], -1
$LN7@getNextCha:
  000db	0f b7 85 d4 00
	00 00		 movzx	 eax, WORD PTR tv84[rbp]
  000e2	66 89 45 04	 mov	 WORD PTR rc$[rbp], ax

; 68   : 		if (rc >= 0) pchain = chains[rc];

  000e6	0f bf 45 04	 movsx	 eax, WORD PTR rc$[rbp]
  000ea	85 c0		 test	 eax, eax
  000ec	7c 26		 jl	 SHORT $LN4@getNextCha
  000ee	48 0f bf 45 04	 movsx	 rax, WORD PTR rc$[rbp]
  000f3	48 6b c0 10	 imul	 rax, rax, 16
  000f7	48 8b 8d 00 01
	00 00		 mov	 rcx, QWORD PTR this$[rbp]
  000fe	48 8b 49 10	 mov	 rcx, QWORD PTR [rcx+16]
  00102	48 8b bd 10 01
	00 00		 mov	 rdi, QWORD PTR pchain$[rbp]
  00109	48 8d 34 01	 lea	 rsi, QWORD PTR [rcx+rax]
  0010d	b9 10 00 00 00	 mov	 ecx, 16
  00112	f3 a4		 rep movsb
$LN4@getNextCha:

; 69   : 		return rc;

  00114	0f b7 45 04	 movzx	 eax, WORD PTR rc$[rbp]

; 70   : 	};

  00118	48 8d a5 e0 00
	00 00		 lea	 rsp, QWORD PTR [rbp+224]
  0011f	5f		 pop	 rdi
  00120	5e		 pop	 rsi
  00121	5d		 pop	 rbp
  00122	c3		 ret	 0
?getNextChain@Rule@GRB@@QEAAFFAEAUChain@12@G@Z ENDP	; GRB::Rule::getNextChain
_TEXT	ENDS
; Function compile flags: /Odtp /RTCsu /ZI
; File C:\Users\Skvortsoff\OneDrive\Документы\GitHub\course_LP\course_LP\GRB.cpp
;	COMDAT ?getCRule@Rule@GRB@@QEAAPEADPEADF@Z
_TEXT	SEGMENT
bchain$ = 16
__$ArrayPad$ = 424
this$ = 464
b$ = 472
nchain$ = 480
?getCRule@Rule@GRB@@QEAAPEADPEADF@Z PROC		; GRB::Rule::getCRule, COMDAT

; 53   : 	{

$LN4:
  00000	66 44 89 44 24
	18		 mov	 WORD PTR [rsp+24], r8w
  00006	48 89 54 24 10	 mov	 QWORD PTR [rsp+16], rdx
  0000b	48 89 4c 24 08	 mov	 QWORD PTR [rsp+8], rcx
  00010	55		 push	 rbp
  00011	57		 push	 rdi
  00012	48 81 ec d8 01
	00 00		 sub	 rsp, 472		; 000001d8H
  00019	48 8d 6c 24 20	 lea	 rbp, QWORD PTR [rsp+32]
  0001e	48 8b fc	 mov	 rdi, rsp
  00021	b9 76 00 00 00	 mov	 ecx, 118		; 00000076H
  00026	b8 cc cc cc cc	 mov	 eax, -858993460		; ccccccccH
  0002b	f3 ab		 rep stosd
  0002d	48 8b 8c 24 f8
	01 00 00	 mov	 rcx, QWORD PTR [rsp+504]
  00035	48 8b 05 00 00
	00 00		 mov	 rax, QWORD PTR __security_cookie
  0003c	48 33 c5	 xor	 rax, rbp
  0003f	48 89 85 a8 01
	00 00		 mov	 QWORD PTR __$ArrayPad$[rbp], rax
  00046	48 8d 0d 00 00
	00 00		 lea	 rcx, OFFSET FLAT:__5D9978A4_GRB@cpp
  0004d	e8 00 00 00 00	 call	 __CheckForDebuggerJustMyCode

; 54   : 		char bchain[200];
; 55   : 		b[0] = Chain::alphabet_to_char(nn);

  00052	48 8b 85 d0 01
	00 00		 mov	 rax, QWORD PTR this$[rbp]
  00059	0f b7 08	 movzx	 ecx, WORD PTR [rax]
  0005c	e8 00 00 00 00	 call	 ?alphabet_to_char@Chain@Rule@GRB@@SADF@Z ; GRB::Rule::Chain::alphabet_to_char
  00061	b9 01 00 00 00	 mov	 ecx, 1
  00066	48 6b c9 00	 imul	 rcx, rcx, 0
  0006a	48 8b 95 d8 01
	00 00		 mov	 rdx, QWORD PTR b$[rbp]
  00071	88 04 0a	 mov	 BYTE PTR [rdx+rcx], al

; 56   : 		b[1] = '-';

  00074	b8 01 00 00 00	 mov	 eax, 1
  00079	48 6b c0 01	 imul	 rax, rax, 1
  0007d	48 8b 8d d8 01
	00 00		 mov	 rcx, QWORD PTR b$[rbp]
  00084	c6 04 01 2d	 mov	 BYTE PTR [rcx+rax], 45	; 0000002dH

; 57   : 		b[2] = '>';

  00088	b8 01 00 00 00	 mov	 eax, 1
  0008d	48 6b c0 02	 imul	 rax, rax, 2
  00091	48 8b 8d d8 01
	00 00		 mov	 rcx, QWORD PTR b$[rbp]
  00098	c6 04 01 3e	 mov	 BYTE PTR [rcx+rax], 62	; 0000003eH

; 58   : 		b[2] = 0x00;

  0009c	b8 01 00 00 00	 mov	 eax, 1
  000a1	48 6b c0 02	 imul	 rax, rax, 2
  000a5	48 8b 8d d8 01
	00 00		 mov	 rcx, QWORD PTR b$[rbp]
  000ac	c6 04 01 00	 mov	 BYTE PTR [rcx+rax], 0

; 59   : 		chains[nchain].getCChain(bchain);

  000b0	48 0f bf 85 e0
	01 00 00	 movsx	 rax, WORD PTR nchain$[rbp]
  000b8	48 6b c0 10	 imul	 rax, rax, 16
  000bc	48 8b 8d d0 01
	00 00		 mov	 rcx, QWORD PTR this$[rbp]
  000c3	48 03 41 10	 add	 rax, QWORD PTR [rcx+16]
  000c7	48 8d 55 10	 lea	 rdx, QWORD PTR bchain$[rbp]
  000cb	48 8b c8	 mov	 rcx, rax
  000ce	e8 00 00 00 00	 call	 ?getCChain@Chain@Rule@GRB@@QEAAPEADPEAD@Z ; GRB::Rule::Chain::getCChain

; 60   : 		strcat_s(b, sizeof(bchain) + 5, bchain);

  000d3	4c 8d 45 10	 lea	 r8, QWORD PTR bchain$[rbp]
  000d7	ba cd 00 00 00	 mov	 edx, 205		; 000000cdH
  000dc	48 8b 8d d8 01
	00 00		 mov	 rcx, QWORD PTR b$[rbp]
  000e3	ff 15 00 00 00
	00		 call	 QWORD PTR __imp_strcat_s

; 61   : 		return b;

  000e9	48 8b 85 d8 01
	00 00		 mov	 rax, QWORD PTR b$[rbp]

; 62   : 	};

  000f0	48 8b f8	 mov	 rdi, rax
  000f3	48 8d 4d e0	 lea	 rcx, QWORD PTR [rbp-32]
  000f7	48 8d 15 00 00
	00 00		 lea	 rdx, OFFSET FLAT:?getCRule@Rule@GRB@@QEAAPEADPEADF@Z$rtcFrameData
  000fe	e8 00 00 00 00	 call	 _RTC_CheckStackVars
  00103	48 8b c7	 mov	 rax, rdi
  00106	48 8b 8d a8 01
	00 00		 mov	 rcx, QWORD PTR __$ArrayPad$[rbp]
  0010d	48 33 cd	 xor	 rcx, rbp
  00110	e8 00 00 00 00	 call	 __security_check_cookie
  00115	48 8d a5 b8 01
	00 00		 lea	 rsp, QWORD PTR [rbp+440]
  0011c	5f		 pop	 rdi
  0011d	5d		 pop	 rbp
  0011e	c3		 ret	 0
?getCRule@Rule@GRB@@QEAAPEADPEADF@Z ENDP		; GRB::Rule::getCRule
_TEXT	ENDS
; Function compile flags: /Odtp /RTCsu /ZI
; File C:\Users\Skvortsoff\OneDrive\Документы\GitHub\course_LP\course_LP\GRB.cpp
;	COMDAT ??0Rule@GRB@@QEAA@FHFUChain@01@ZZ
_TEXT	SEGMENT
p$ = 8
i$1 = 36
$T2 = 264
$T3 = 296
$T4 = 328
tv92 = 344
this$ = 384
pnn$ = 392
piderror$ = 400
psize$ = 408
c$ = 416
??0Rule@GRB@@QEAA@FHFUChain@01@ZZ PROC			; GRB::Rule::Rule, COMDAT

; 18   : 	{

$LN12:
  00000	66 44 89 4c 24
	20		 mov	 WORD PTR [rsp+32], r9w
  00006	44 89 44 24 18	 mov	 DWORD PTR [rsp+24], r8d
  0000b	66 89 54 24 10	 mov	 WORD PTR [rsp+16], dx
  00010	48 89 4c 24 08	 mov	 QWORD PTR [rsp+8], rcx
  00015	55		 push	 rbp
  00016	56		 push	 rsi
  00017	57		 push	 rdi
  00018	48 81 ec 80 01
	00 00		 sub	 rsp, 384		; 00000180H
  0001f	48 8d 6c 24 20	 lea	 rbp, QWORD PTR [rsp+32]
  00024	48 8b fc	 mov	 rdi, rsp
  00027	b9 60 00 00 00	 mov	 ecx, 96			; 00000060H
  0002c	b8 cc cc cc cc	 mov	 eax, -858993460		; ccccccccH
  00031	f3 ab		 rep stosd
  00033	48 8b 8c 24 a8
	01 00 00	 mov	 rcx, QWORD PTR [rsp+424]
  0003b	48 8d 0d 00 00
	00 00		 lea	 rcx, OFFSET FLAT:__5D9978A4_GRB@cpp
  00042	e8 00 00 00 00	 call	 __CheckForDebuggerJustMyCode

; 19   : 		nn = pnn;

  00047	48 8b 85 80 01
	00 00		 mov	 rax, QWORD PTR this$[rbp]
  0004e	0f b7 8d 88 01
	00 00		 movzx	 ecx, WORD PTR pnn$[rbp]
  00055	66 89 08	 mov	 WORD PTR [rax], cx

; 20   : 		iderror = piderror;

  00058	48 8b 85 80 01
	00 00		 mov	 rax, QWORD PTR this$[rbp]
  0005f	8b 8d 90 01 00
	00		 mov	 ecx, DWORD PTR piderror$[rbp]
  00065	89 48 04	 mov	 DWORD PTR [rax+4], ecx

; 21   : 		chains = new Chain[size = psize];

  00068	48 8b 85 80 01
	00 00		 mov	 rax, QWORD PTR this$[rbp]
  0006f	0f b7 8d 98 01
	00 00		 movzx	 ecx, WORD PTR psize$[rbp]
  00076	66 89 48 08	 mov	 WORD PTR [rax+8], cx
  0007a	48 0f bf 85 98
	01 00 00	 movsx	 rax, WORD PTR psize$[rbp]
  00082	48 89 85 08 01
	00 00		 mov	 QWORD PTR $T2[rbp], rax
  00089	b8 10 00 00 00	 mov	 eax, 16
  0008e	48 f7 a5 08 01
	00 00		 mul	 QWORD PTR $T2[rbp]
  00095	48 c7 c1 ff ff
	ff ff		 mov	 rcx, -1
  0009c	48 0f 40 c1	 cmovo	 rax, rcx
  000a0	48 8b c8	 mov	 rcx, rax
  000a3	e8 00 00 00 00	 call	 ??_U@YAPEAX_K@Z		; operator new[]
  000a8	48 89 85 48 01
	00 00		 mov	 QWORD PTR $T4[rbp], rax
  000af	48 83 bd 48 01
	00 00 00	 cmp	 QWORD PTR $T4[rbp], 0
  000b7	74 2f		 je	 SHORT $LN6@Rule
  000b9	4c 8d 0d 00 00
	00 00		 lea	 r9, OFFSET FLAT:??0Chain@Rule@GRB@@QEAA@XZ ; GRB::Rule::Chain::Chain
  000c0	4c 8b 85 08 01
	00 00		 mov	 r8, QWORD PTR $T2[rbp]
  000c7	ba 10 00 00 00	 mov	 edx, 16
  000cc	48 8b 8d 48 01
	00 00		 mov	 rcx, QWORD PTR $T4[rbp]
  000d3	e8 00 00 00 00	 call	 ??_H@YAXPEAX_K1P6APEAX0@Z@Z
  000d8	48 8b 85 48 01
	00 00		 mov	 rax, QWORD PTR $T4[rbp]
  000df	48 89 85 58 01
	00 00		 mov	 QWORD PTR tv92[rbp], rax
  000e6	eb 0b		 jmp	 SHORT $LN7@Rule
$LN6@Rule:
  000e8	48 c7 85 58 01
	00 00 00 00 00
	00		 mov	 QWORD PTR tv92[rbp], 0
$LN7@Rule:
  000f3	48 8b 85 58 01
	00 00		 mov	 rax, QWORD PTR tv92[rbp]
  000fa	48 89 85 28 01
	00 00		 mov	 QWORD PTR $T3[rbp], rax
  00101	48 8b 85 80 01
	00 00		 mov	 rax, QWORD PTR this$[rbp]
  00108	48 8b 8d 28 01
	00 00		 mov	 rcx, QWORD PTR $T3[rbp]
  0010f	48 89 48 10	 mov	 QWORD PTR [rax+16], rcx

; 22   : 		Chain* p = &c;

  00113	48 8b 85 a0 01
	00 00		 mov	 rax, QWORD PTR c$[rbp]
  0011a	48 89 45 08	 mov	 QWORD PTR p$[rbp], rax

; 23   : 		for (int i = 0; i < size; i++) chains[i] = p[i];

  0011e	c7 45 24 00 00
	00 00		 mov	 DWORD PTR i$1[rbp], 0
  00125	eb 08		 jmp	 SHORT $LN4@Rule
$LN2@Rule:
  00127	8b 45 24	 mov	 eax, DWORD PTR i$1[rbp]
  0012a	ff c0		 inc	 eax
  0012c	89 45 24	 mov	 DWORD PTR i$1[rbp], eax
$LN4@Rule:
  0012f	48 8b 85 80 01
	00 00		 mov	 rax, QWORD PTR this$[rbp]
  00136	0f bf 40 08	 movsx	 eax, WORD PTR [rax+8]
  0013a	39 45 24	 cmp	 DWORD PTR i$1[rbp], eax
  0013d	7d 30		 jge	 SHORT $LN3@Rule
  0013f	48 63 45 24	 movsxd	 rax, DWORD PTR i$1[rbp]
  00143	48 6b c0 10	 imul	 rax, rax, 16
  00147	48 63 4d 24	 movsxd	 rcx, DWORD PTR i$1[rbp]
  0014b	48 6b c9 10	 imul	 rcx, rcx, 16
  0014f	48 8b 95 80 01
	00 00		 mov	 rdx, QWORD PTR this$[rbp]
  00156	48 8b 52 10	 mov	 rdx, QWORD PTR [rdx+16]
  0015a	4c 8b 45 08	 mov	 r8, QWORD PTR p$[rbp]
  0015e	48 8d 3c 0a	 lea	 rdi, QWORD PTR [rdx+rcx]
  00162	49 8d 34 00	 lea	 rsi, QWORD PTR [r8+rax]
  00166	b9 10 00 00 00	 mov	 ecx, 16
  0016b	f3 a4		 rep movsb
  0016d	eb b8		 jmp	 SHORT $LN2@Rule
$LN3@Rule:

; 24   : 
; 25   : 	};

  0016f	48 8b 85 80 01
	00 00		 mov	 rax, QWORD PTR this$[rbp]
  00176	48 8d a5 60 01
	00 00		 lea	 rsp, QWORD PTR [rbp+352]
  0017d	5f		 pop	 rdi
  0017e	5e		 pop	 rsi
  0017f	5d		 pop	 rbp
  00180	c3		 ret	 0
??0Rule@GRB@@QEAA@FHFUChain@01@ZZ ENDP			; GRB::Rule::Rule
_TEXT	ENDS
;	COMDAT text$x
text$x	SEGMENT
p$ = 8
i$1 = 36
$T2 = 264
$T3 = 296
$T4 = 328
tv92 = 344
this$ = 384
pnn$ = 392
piderror$ = 400
psize$ = 408
c$ = 416
?dtor$0@?0???0Rule@GRB@@QEAA@FHFUChain@01@ZZ@4HA PROC	; `GRB::Rule::Rule'::`1'::dtor$0
  00000	48 89 4c 24 08	 mov	 QWORD PTR [rsp+8], rcx
  00005	48 89 54 24 10	 mov	 QWORD PTR [rsp+16], rdx
  0000a	55		 push	 rbp
  0000b	57		 push	 rdi
  0000c	48 83 ec 28	 sub	 rsp, 40			; 00000028H
  00010	48 8d 6a 20	 lea	 rbp, QWORD PTR [rdx+32]
  00014	b8 10 00 00 00	 mov	 eax, 16
  00019	48 f7 a5 08 01
	00 00		 mul	 QWORD PTR $T2[rbp]
  00020	48 8b d0	 mov	 rdx, rax
  00023	48 c7 c0 ff ff
	ff ff		 mov	 rax, -1
  0002a	48 0f 40 d0	 cmovo	 rdx, rax
  0002e	48 8b 8d 48 01
	00 00		 mov	 rcx, QWORD PTR $T4[rbp]
  00035	e8 00 00 00 00	 call	 ??_V@YAXPEAX_K@Z	; operator delete[]
  0003a	48 83 c4 28	 add	 rsp, 40			; 00000028H
  0003e	5f		 pop	 rdi
  0003f	5d		 pop	 rbp
  00040	c3		 ret	 0
?dtor$0@?0???0Rule@GRB@@QEAA@FHFUChain@01@ZZ@4HA ENDP	; `GRB::Rule::Rule'::`1'::dtor$0
text$x	ENDS
; Function compile flags: /Odtp /RTCsu /ZI
;	COMDAT text$x
text$x	SEGMENT
p$ = 8
i$1 = 36
$T2 = 264
$T3 = 296
$T4 = 328
tv92 = 344
this$ = 384
pnn$ = 392
piderror$ = 400
psize$ = 408
c$ = 416
?dtor$0@?0???0Rule@GRB@@QEAA@FHFUChain@01@ZZ@4HA PROC	; `GRB::Rule::Rule'::`1'::dtor$0
  00000	48 89 4c 24 08	 mov	 QWORD PTR [rsp+8], rcx
  00005	48 89 54 24 10	 mov	 QWORD PTR [rsp+16], rdx
  0000a	55		 push	 rbp
  0000b	57		 push	 rdi
  0000c	48 83 ec 28	 sub	 rsp, 40			; 00000028H
  00010	48 8d 6a 20	 lea	 rbp, QWORD PTR [rdx+32]
  00014	b8 10 00 00 00	 mov	 eax, 16
  00019	48 f7 a5 08 01
	00 00		 mul	 QWORD PTR $T2[rbp]
  00020	48 8b d0	 mov	 rdx, rax
  00023	48 c7 c0 ff ff
	ff ff		 mov	 rax, -1
  0002a	48 0f 40 d0	 cmovo	 rdx, rax
  0002e	48 8b 8d 48 01
	00 00		 mov	 rcx, QWORD PTR $T4[rbp]
  00035	e8 00 00 00 00	 call	 ??_V@YAXPEAX_K@Z	; operator delete[]
  0003a	48 83 c4 28	 add	 rsp, 40			; 00000028H
  0003e	5f		 pop	 rdi
  0003f	5d		 pop	 rbp
  00040	c3		 ret	 0
?dtor$0@?0???0Rule@GRB@@QEAA@FHFUChain@01@ZZ@4HA ENDP	; `GRB::Rule::Rule'::`1'::dtor$0
text$x	ENDS
; Function compile flags: /Odtp /RTCsu /ZI
; File C:\Users\Skvortsoff\OneDrive\Документы\GitHub\course_LP\course_LP\GRB.h
;	COMDAT ??0Rule@GRB@@QEAA@XZ
_TEXT	SEGMENT
this$ = 224
??0Rule@GRB@@QEAA@XZ PROC				; GRB::Rule::Rule, COMDAT

; 32   : 		Rule() {nn = 0x00; size = 0; }

$LN4:
  00000	48 89 4c 24 08	 mov	 QWORD PTR [rsp+8], rcx
  00005	55		 push	 rbp
  00006	57		 push	 rdi
  00007	48 81 ec e8 00
	00 00		 sub	 rsp, 232		; 000000e8H
  0000e	48 8d 6c 24 20	 lea	 rbp, QWORD PTR [rsp+32]
  00013	48 8b fc	 mov	 rdi, rsp
  00016	b9 3a 00 00 00	 mov	 ecx, 58			; 0000003aH
  0001b	b8 cc cc cc cc	 mov	 eax, -858993460		; ccccccccH
  00020	f3 ab		 rep stosd
  00022	48 8b 8c 24 08
	01 00 00	 mov	 rcx, QWORD PTR [rsp+264]
  0002a	48 8d 0d 00 00
	00 00		 lea	 rcx, OFFSET FLAT:__20961129_GRB@h
  00031	e8 00 00 00 00	 call	 __CheckForDebuggerJustMyCode
  00036	33 c0		 xor	 eax, eax
  00038	48 8b 8d e0 00
	00 00		 mov	 rcx, QWORD PTR this$[rbp]
  0003f	66 89 01	 mov	 WORD PTR [rcx], ax
  00042	33 c0		 xor	 eax, eax
  00044	48 8b 8d e0 00
	00 00		 mov	 rcx, QWORD PTR this$[rbp]
  0004b	66 89 41 08	 mov	 WORD PTR [rcx+8], ax
  0004f	48 8b 85 e0 00
	00 00		 mov	 rax, QWORD PTR this$[rbp]
  00056	48 8d a5 c8 00
	00 00		 lea	 rsp, QWORD PTR [rbp+200]
  0005d	5f		 pop	 rdi
  0005e	5d		 pop	 rbp
  0005f	c3		 ret	 0
??0Rule@GRB@@QEAA@XZ ENDP				; GRB::Rule::Rule
_TEXT	ENDS
; Function compile flags: /Odtp /RTCsu /ZI
; File C:\Users\Skvortsoff\OneDrive\Документы\GitHub\course_LP\course_LP\GRB.h
;	COMDAT ?alphabet_to_char@Chain@Rule@GRB@@SADF@Z
_TEXT	SEGMENT
tv71 = 192
s$ = 240
?alphabet_to_char@Chain@Rule@GRB@@SADF@Z PROC		; GRB::Rule::Chain::alphabet_to_char, COMDAT

; 28   : 			static char alphabet_to_char(GRBALPHABET s) { return isT(s) ? char(s) : char(-s); };

$LN6:
  00000	66 89 4c 24 08	 mov	 WORD PTR [rsp+8], cx
  00005	55		 push	 rbp
  00006	57		 push	 rdi
  00007	48 81 ec f8 00
	00 00		 sub	 rsp, 248		; 000000f8H
  0000e	48 8d 6c 24 20	 lea	 rbp, QWORD PTR [rsp+32]
  00013	48 8b fc	 mov	 rdi, rsp
  00016	b9 3e 00 00 00	 mov	 ecx, 62			; 0000003eH
  0001b	b8 cc cc cc cc	 mov	 eax, -858993460		; ccccccccH
  00020	f3 ab		 rep stosd
  00022	0f b7 8c 24 18
	01 00 00	 movzx	 ecx, WORD PTR [rsp+280]
  0002a	48 8d 0d 00 00
	00 00		 lea	 rcx, OFFSET FLAT:__20961129_GRB@h
  00031	e8 00 00 00 00	 call	 __CheckForDebuggerJustMyCode
  00036	0f b7 8d f0 00
	00 00		 movzx	 ecx, WORD PTR s$[rbp]
  0003d	e8 00 00 00 00	 call	 ?isT@Chain@Rule@GRB@@SA_NF@Z ; GRB::Rule::Chain::isT
  00042	0f b6 c0	 movzx	 eax, al
  00045	85 c0		 test	 eax, eax
  00047	74 0f		 je	 SHORT $LN3@alphabet_t
  00049	0f b6 85 f0 00
	00 00		 movzx	 eax, BYTE PTR s$[rbp]
  00050	88 85 c0 00 00
	00		 mov	 BYTE PTR tv71[rbp], al
  00056	eb 0f		 jmp	 SHORT $LN4@alphabet_t
$LN3@alphabet_t:
  00058	0f bf 85 f0 00
	00 00		 movsx	 eax, WORD PTR s$[rbp]
  0005f	f7 d8		 neg	 eax
  00061	88 85 c0 00 00
	00		 mov	 BYTE PTR tv71[rbp], al
$LN4@alphabet_t:
  00067	0f b6 85 c0 00
	00 00		 movzx	 eax, BYTE PTR tv71[rbp]
  0006e	48 8d a5 d8 00
	00 00		 lea	 rsp, QWORD PTR [rbp+216]
  00075	5f		 pop	 rdi
  00076	5d		 pop	 rbp
  00077	c3		 ret	 0
?alphabet_to_char@Chain@Rule@GRB@@SADF@Z ENDP		; GRB::Rule::Chain::alphabet_to_char
_TEXT	ENDS
; Function compile flags: /Odtp /RTCsu /ZI
; File C:\Users\Skvortsoff\OneDrive\Документы\GitHub\course_LP\course_LP\GRB.h
;	COMDAT ?isT@Chain@Rule@GRB@@SA_NF@Z
_TEXT	SEGMENT
tv66 = 192
s$ = 240
?isT@Chain@Rule@GRB@@SA_NF@Z PROC			; GRB::Rule::Chain::isT, COMDAT

; 26   : 			static bool isT(GRBALPHABET s) { return s > 0; }			// терминал?	

$LN6:
  00000	66 89 4c 24 08	 mov	 WORD PTR [rsp+8], cx
  00005	55		 push	 rbp
  00006	57		 push	 rdi
  00007	48 81 ec f8 00
	00 00		 sub	 rsp, 248		; 000000f8H
  0000e	48 8d 6c 24 20	 lea	 rbp, QWORD PTR [rsp+32]
  00013	48 8b fc	 mov	 rdi, rsp
  00016	b9 3e 00 00 00	 mov	 ecx, 62			; 0000003eH
  0001b	b8 cc cc cc cc	 mov	 eax, -858993460		; ccccccccH
  00020	f3 ab		 rep stosd
  00022	0f b7 8c 24 18
	01 00 00	 movzx	 ecx, WORD PTR [rsp+280]
  0002a	48 8d 0d 00 00
	00 00		 lea	 rcx, OFFSET FLAT:__20961129_GRB@h
  00031	e8 00 00 00 00	 call	 __CheckForDebuggerJustMyCode
  00036	0f bf 85 f0 00
	00 00		 movsx	 eax, WORD PTR s$[rbp]
  0003d	85 c0		 test	 eax, eax
  0003f	7e 0c		 jle	 SHORT $LN3@isT
  00041	c7 85 c0 00 00
	00 01 00 00 00	 mov	 DWORD PTR tv66[rbp], 1
  0004b	eb 0a		 jmp	 SHORT $LN4@isT
$LN3@isT:
  0004d	c7 85 c0 00 00
	00 00 00 00 00	 mov	 DWORD PTR tv66[rbp], 0
$LN4@isT:
  00057	0f b6 85 c0 00
	00 00		 movzx	 eax, BYTE PTR tv66[rbp]
  0005e	48 8d a5 d8 00
	00 00		 lea	 rsp, QWORD PTR [rbp+216]
  00065	5f		 pop	 rdi
  00066	5d		 pop	 rbp
  00067	c3		 ret	 0
?isT@Chain@Rule@GRB@@SA_NF@Z ENDP			; GRB::Rule::Chain::isT
_TEXT	ENDS
; Function compile flags: /Odtp /RTCsu /ZI
; File C:\Users\Skvortsoff\OneDrive\Документы\GitHub\course_LP\course_LP\GRB.h
;	COMDAT ?N@Chain@Rule@GRB@@SAFD@Z
_TEXT	SEGMENT
n$ = 224
?N@Chain@Rule@GRB@@SAFD@Z PROC				; GRB::Rule::Chain::N, COMDAT

; 25   : 			static GRBALPHABET N(char n) { return -GRBALPHABET(n); }	// не терминал

$LN4:
  00000	88 4c 24 08	 mov	 BYTE PTR [rsp+8], cl
  00004	55		 push	 rbp
  00005	57		 push	 rdi
  00006	48 81 ec e8 00
	00 00		 sub	 rsp, 232		; 000000e8H
  0000d	48 8d 6c 24 20	 lea	 rbp, QWORD PTR [rsp+32]
  00012	48 8b fc	 mov	 rdi, rsp
  00015	b9 3a 00 00 00	 mov	 ecx, 58			; 0000003aH
  0001a	b8 cc cc cc cc	 mov	 eax, -858993460		; ccccccccH
  0001f	f3 ab		 rep stosd
  00021	0f b6 8c 24 08
	01 00 00	 movzx	 ecx, BYTE PTR [rsp+264]
  00029	48 8d 0d 00 00
	00 00		 lea	 rcx, OFFSET FLAT:__20961129_GRB@h
  00030	e8 00 00 00 00	 call	 __CheckForDebuggerJustMyCode
  00035	0f be 85 e0 00
	00 00		 movsx	 eax, BYTE PTR n$[rbp]
  0003c	f7 d8		 neg	 eax
  0003e	48 8d a5 c8 00
	00 00		 lea	 rsp, QWORD PTR [rbp+200]
  00045	5f		 pop	 rdi
  00046	5d		 pop	 rbp
  00047	c3		 ret	 0
?N@Chain@Rule@GRB@@SAFD@Z ENDP				; GRB::Rule::Chain::N
_TEXT	ENDS
; Function compile flags: /Odtp /RTCsu /ZI
; File C:\Users\Skvortsoff\OneDrive\Документы\GitHub\course_LP\course_LP\GRB.h
;	COMDAT ?T@Chain@Rule@GRB@@SAFD@Z
_TEXT	SEGMENT
t$ = 224
?T@Chain@Rule@GRB@@SAFD@Z PROC				; GRB::Rule::Chain::T, COMDAT

; 24   : 			static GRBALPHABET T(char t) { return GRBALPHABET(t); }		// терминал

$LN4:
  00000	88 4c 24 08	 mov	 BYTE PTR [rsp+8], cl
  00004	55		 push	 rbp
  00005	57		 push	 rdi
  00006	48 81 ec e8 00
	00 00		 sub	 rsp, 232		; 000000e8H
  0000d	48 8d 6c 24 20	 lea	 rbp, QWORD PTR [rsp+32]
  00012	48 8b fc	 mov	 rdi, rsp
  00015	b9 3a 00 00 00	 mov	 ecx, 58			; 0000003aH
  0001a	b8 cc cc cc cc	 mov	 eax, -858993460		; ccccccccH
  0001f	f3 ab		 rep stosd
  00021	0f b6 8c 24 08
	01 00 00	 movzx	 ecx, BYTE PTR [rsp+264]
  00029	48 8d 0d 00 00
	00 00		 lea	 rcx, OFFSET FLAT:__20961129_GRB@h
  00030	e8 00 00 00 00	 call	 __CheckForDebuggerJustMyCode
  00035	66 0f be 85 e0
	00 00 00	 movsx	 ax, BYTE PTR t$[rbp]
  0003d	48 8d a5 c8 00
	00 00		 lea	 rsp, QWORD PTR [rbp+200]
  00044	5f		 pop	 rdi
  00045	5d		 pop	 rbp
  00046	c3		 ret	 0
?T@Chain@Rule@GRB@@SAFD@Z ENDP				; GRB::Rule::Chain::T
_TEXT	ENDS
; Function compile flags: /Odtp /RTCsu /ZI
; File C:\Users\Skvortsoff\OneDrive\Документы\GitHub\course_LP\course_LP\GRB.cpp
;	COMDAT ?getCChain@Chain@Rule@GRB@@QEAAPEADPEAD@Z
_TEXT	SEGMENT
i$1 = 4
this$ = 256
b$ = 264
?getCChain@Chain@Rule@GRB@@QEAAPEADPEAD@Z PROC		; GRB::Rule::Chain::getCChain, COMDAT

; 72   : 	{

$LN9:
  00000	48 89 54 24 10	 mov	 QWORD PTR [rsp+16], rdx
  00005	48 89 4c 24 08	 mov	 QWORD PTR [rsp+8], rcx
  0000a	55		 push	 rbp
  0000b	57		 push	 rdi
  0000c	48 81 ec 08 01
	00 00		 sub	 rsp, 264		; 00000108H
  00013	48 8d 6c 24 20	 lea	 rbp, QWORD PTR [rsp+32]
  00018	48 8b fc	 mov	 rdi, rsp
  0001b	b9 42 00 00 00	 mov	 ecx, 66			; 00000042H
  00020	b8 cc cc cc cc	 mov	 eax, -858993460		; ccccccccH
  00025	f3 ab		 rep stosd
  00027	48 8b 8c 24 28
	01 00 00	 mov	 rcx, QWORD PTR [rsp+296]
  0002f	48 8d 0d 00 00
	00 00		 lea	 rcx, OFFSET FLAT:__5D9978A4_GRB@cpp
  00036	e8 00 00 00 00	 call	 __CheckForDebuggerJustMyCode

; 73   : 		for (int i = 0; i < size; i++)b[i] = Chain::alphabet_to_char(nt[i]);

  0003b	c7 45 04 00 00
	00 00		 mov	 DWORD PTR i$1[rbp], 0
  00042	eb 08		 jmp	 SHORT $LN4@getCChain
$LN2@getCChain:
  00044	8b 45 04	 mov	 eax, DWORD PTR i$1[rbp]
  00047	ff c0		 inc	 eax
  00049	89 45 04	 mov	 DWORD PTR i$1[rbp], eax
$LN4@getCChain:
  0004c	48 8b 85 00 01
	00 00		 mov	 rax, QWORD PTR this$[rbp]
  00053	0f bf 00	 movsx	 eax, WORD PTR [rax]
  00056	39 45 04	 cmp	 DWORD PTR i$1[rbp], eax
  00059	7d 28		 jge	 SHORT $LN3@getCChain
  0005b	48 63 45 04	 movsxd	 rax, DWORD PTR i$1[rbp]
  0005f	48 8b 8d 00 01
	00 00		 mov	 rcx, QWORD PTR this$[rbp]
  00066	48 8b 49 08	 mov	 rcx, QWORD PTR [rcx+8]
  0006a	0f b7 0c 41	 movzx	 ecx, WORD PTR [rcx+rax*2]
  0006e	e8 00 00 00 00	 call	 ?alphabet_to_char@Chain@Rule@GRB@@SADF@Z ; GRB::Rule::Chain::alphabet_to_char
  00073	48 63 4d 04	 movsxd	 rcx, DWORD PTR i$1[rbp]
  00077	48 8b 95 08 01
	00 00		 mov	 rdx, QWORD PTR b$[rbp]
  0007e	88 04 0a	 mov	 BYTE PTR [rdx+rcx], al
  00081	eb c1		 jmp	 SHORT $LN2@getCChain
$LN3@getCChain:

; 74   : 		b[size] = 0x00;

  00083	48 8b 85 00 01
	00 00		 mov	 rax, QWORD PTR this$[rbp]
  0008a	48 0f bf 00	 movsx	 rax, WORD PTR [rax]
  0008e	48 8b 8d 08 01
	00 00		 mov	 rcx, QWORD PTR b$[rbp]
  00095	c6 04 01 00	 mov	 BYTE PTR [rcx+rax], 0

; 75   : 		return b;

  00099	48 8b 85 08 01
	00 00		 mov	 rax, QWORD PTR b$[rbp]

; 76   : 	}

  000a0	48 8d a5 e8 00
	00 00		 lea	 rsp, QWORD PTR [rbp+232]
  000a7	5f		 pop	 rdi
  000a8	5d		 pop	 rbp
  000a9	c3		 ret	 0
?getCChain@Chain@Rule@GRB@@QEAAPEADPEAD@Z ENDP		; GRB::Rule::Chain::getCChain
_TEXT	ENDS
; Function compile flags: /Odtp /RTCsu /ZI
; File C:\Users\Skvortsoff\OneDrive\Документы\GitHub\course_LP\course_LP\GRB.cpp
;	COMDAT ??0Chain@Rule@GRB@@QEAA@FFZZ
_TEXT	SEGMENT
p$ = 8
i$1 = 36
$T2 = 264
tv69 = 280
this$ = 320
psize$ = 328
s$ = 336
??0Chain@Rule@GRB@@QEAA@FFZZ PROC			; GRB::Rule::Chain::Chain, COMDAT

; 8    : 	{

$LN9:
  00000	66 44 89 44 24
	18		 mov	 WORD PTR [rsp+24], r8w
  00006	66 89 54 24 10	 mov	 WORD PTR [rsp+16], dx
  0000b	48 89 4c 24 08	 mov	 QWORD PTR [rsp+8], rcx
  00010	4c 89 4c 24 20	 mov	 QWORD PTR [rsp+32], r9
  00015	55		 push	 rbp
  00016	57		 push	 rdi
  00017	48 81 ec 48 01
	00 00		 sub	 rsp, 328		; 00000148H
  0001e	48 8d 6c 24 20	 lea	 rbp, QWORD PTR [rsp+32]
  00023	48 8b fc	 mov	 rdi, rsp
  00026	b9 52 00 00 00	 mov	 ecx, 82			; 00000052H
  0002b	b8 cc cc cc cc	 mov	 eax, -858993460		; ccccccccH
  00030	f3 ab		 rep stosd
  00032	48 8b 8c 24 68
	01 00 00	 mov	 rcx, QWORD PTR [rsp+360]
  0003a	48 8d 0d 00 00
	00 00		 lea	 rcx, OFFSET FLAT:__5D9978A4_GRB@cpp
  00041	e8 00 00 00 00	 call	 __CheckForDebuggerJustMyCode

; 9    : 		nt = new GRBALPHABET[size = psize];

  00046	48 8b 85 40 01
	00 00		 mov	 rax, QWORD PTR this$[rbp]
  0004d	0f b7 8d 48 01
	00 00		 movzx	 ecx, WORD PTR psize$[rbp]
  00054	66 89 08	 mov	 WORD PTR [rax], cx
  00057	48 0f bf 85 48
	01 00 00	 movsx	 rax, WORD PTR psize$[rbp]
  0005f	48 89 85 18 01
	00 00		 mov	 QWORD PTR tv69[rbp], rax
  00066	b8 02 00 00 00	 mov	 eax, 2
  0006b	48 8b 8d 18 01
	00 00		 mov	 rcx, QWORD PTR tv69[rbp]
  00072	48 f7 e1	 mul	 rcx
  00075	48 c7 c1 ff ff
	ff ff		 mov	 rcx, -1
  0007c	48 0f 40 c1	 cmovo	 rax, rcx
  00080	48 8b c8	 mov	 rcx, rax
  00083	e8 00 00 00 00	 call	 ??_U@YAPEAX_K@Z		; operator new[]
  00088	48 89 85 08 01
	00 00		 mov	 QWORD PTR $T2[rbp], rax
  0008f	48 8b 85 40 01
	00 00		 mov	 rax, QWORD PTR this$[rbp]
  00096	48 8b 8d 08 01
	00 00		 mov	 rcx, QWORD PTR $T2[rbp]
  0009d	48 89 48 08	 mov	 QWORD PTR [rax+8], rcx

; 10   : 		int* p = (int*)&s;

  000a1	48 8d 85 50 01
	00 00		 lea	 rax, QWORD PTR s$[rbp]
  000a8	48 89 45 08	 mov	 QWORD PTR p$[rbp], rax

; 11   : 		for (short i = 0; i < psize; i++)

  000ac	33 c0		 xor	 eax, eax
  000ae	66 89 45 24	 mov	 WORD PTR i$1[rbp], ax
  000b2	eb 0b		 jmp	 SHORT $LN4@Chain
$LN2@Chain:
  000b4	0f b7 45 24	 movzx	 eax, WORD PTR i$1[rbp]
  000b8	66 ff c0	 inc	 ax
  000bb	66 89 45 24	 mov	 WORD PTR i$1[rbp], ax
$LN4@Chain:
  000bf	0f bf 45 24	 movsx	 eax, WORD PTR i$1[rbp]
  000c3	0f bf 8d 48 01
	00 00		 movsx	 ecx, WORD PTR psize$[rbp]
  000ca	3b c1		 cmp	 eax, ecx
  000cc	7d 24		 jge	 SHORT $LN3@Chain

; 12   : 		{
; 13   : 			nt[i] = (GRBALPHABET)p[i];

  000ce	48 0f bf 45 24	 movsx	 rax, WORD PTR i$1[rbp]
  000d3	48 0f bf 4d 24	 movsx	 rcx, WORD PTR i$1[rbp]
  000d8	48 8b 95 40 01
	00 00		 mov	 rdx, QWORD PTR this$[rbp]
  000df	48 8b 52 08	 mov	 rdx, QWORD PTR [rdx+8]
  000e3	4c 8b 45 08	 mov	 r8, QWORD PTR p$[rbp]
  000e7	41 0f b7 04 80	 movzx	 eax, WORD PTR [r8+rax*4]
  000ec	66 89 04 4a	 mov	 WORD PTR [rdx+rcx*2], ax

; 14   : 		}

  000f0	eb c2		 jmp	 SHORT $LN2@Chain
$LN3@Chain:

; 15   : 	};

  000f2	48 8b 85 40 01
	00 00		 mov	 rax, QWORD PTR this$[rbp]
  000f9	48 8d a5 28 01
	00 00		 lea	 rsp, QWORD PTR [rbp+296]
  00100	5f		 pop	 rdi
  00101	5d		 pop	 rbp
  00102	c3		 ret	 0
??0Chain@Rule@GRB@@QEAA@FFZZ ENDP			; GRB::Rule::Chain::Chain
_TEXT	ENDS
; Function compile flags: /Odtp /RTCsu /ZI
; File C:\Users\Skvortsoff\OneDrive\Документы\GitHub\course_LP\course_LP\GRB.h
;	COMDAT ??0Chain@Rule@GRB@@QEAA@XZ
_TEXT	SEGMENT
this$ = 224
??0Chain@Rule@GRB@@QEAA@XZ PROC				; GRB::Rule::Chain::Chain, COMDAT

; 19   : 			Chain() {size = 0; nt = 0; };

$LN4:
  00000	48 89 4c 24 08	 mov	 QWORD PTR [rsp+8], rcx
  00005	55		 push	 rbp
  00006	57		 push	 rdi
  00007	48 81 ec e8 00
	00 00		 sub	 rsp, 232		; 000000e8H
  0000e	48 8d 6c 24 20	 lea	 rbp, QWORD PTR [rsp+32]
  00013	48 8b fc	 mov	 rdi, rsp
  00016	b9 3a 00 00 00	 mov	 ecx, 58			; 0000003aH
  0001b	b8 cc cc cc cc	 mov	 eax, -858993460		; ccccccccH
  00020	f3 ab		 rep stosd
  00022	48 8b 8c 24 08
	01 00 00	 mov	 rcx, QWORD PTR [rsp+264]
  0002a	48 8d 0d 00 00
	00 00		 lea	 rcx, OFFSET FLAT:__20961129_GRB@h
  00031	e8 00 00 00 00	 call	 __CheckForDebuggerJustMyCode
  00036	33 c0		 xor	 eax, eax
  00038	48 8b 8d e0 00
	00 00		 mov	 rcx, QWORD PTR this$[rbp]
  0003f	66 89 01	 mov	 WORD PTR [rcx], ax
  00042	48 8b 85 e0 00
	00 00		 mov	 rax, QWORD PTR this$[rbp]
  00049	48 c7 40 08 00
	00 00 00	 mov	 QWORD PTR [rax+8], 0
  00051	48 8b 85 e0 00
	00 00		 mov	 rax, QWORD PTR this$[rbp]
  00058	48 8d a5 c8 00
	00 00		 lea	 rsp, QWORD PTR [rbp+200]
  0005f	5f		 pop	 rdi
  00060	5d		 pop	 rbp
  00061	c3		 ret	 0
??0Chain@Rule@GRB@@QEAA@XZ ENDP				; GRB::Rule::Chain::Chain
_TEXT	ENDS
; Function compile flags: /Odtp /RTCsu /ZI
;	COMDAT ??_H@YAXPEAX_K1P6APEAX0@Z@Z
_TEXT	SEGMENT
tv66 = 192
tv67 = 200
__t$ = 240
__s$ = 248
__n$ = 256
__f$ = 264
??_H@YAXPEAX_K1P6APEAX0@Z@Z PROC			; `vector constructor iterator', COMDAT
$LN9:
  00000	4c 89 4c 24 20	 mov	 QWORD PTR [rsp+32], r9
  00005	4c 89 44 24 18	 mov	 QWORD PTR [rsp+24], r8
  0000a	48 89 54 24 10	 mov	 QWORD PTR [rsp+16], rdx
  0000f	48 89 4c 24 08	 mov	 QWORD PTR [rsp+8], rcx
  00014	55		 push	 rbp
  00015	57		 push	 rdi
  00016	48 81 ec f8 00
	00 00		 sub	 rsp, 248		; 000000f8H
  0001d	48 8d 6c 24 20	 lea	 rbp, QWORD PTR [rsp+32]
  00022	48 8b fc	 mov	 rdi, rsp
  00025	b9 3e 00 00 00	 mov	 ecx, 62			; 0000003eH
  0002a	b8 cc cc cc cc	 mov	 eax, -858993460		; ccccccccH
  0002f	f3 ab		 rep stosd
  00031	48 8b 8c 24 18
	01 00 00	 mov	 rcx, QWORD PTR [rsp+280]
$LN2@vector:
  00039	48 8b 85 00 01
	00 00		 mov	 rax, QWORD PTR __n$[rbp]
  00040	48 89 85 c0 00
	00 00		 mov	 QWORD PTR tv66[rbp], rax
  00047	48 8b 85 00 01
	00 00		 mov	 rax, QWORD PTR __n$[rbp]
  0004e	48 ff c8	 dec	 rax
  00051	48 89 85 00 01
	00 00		 mov	 QWORD PTR __n$[rbp], rax
  00058	48 83 bd c0 00
	00 00 00	 cmp	 QWORD PTR tv66[rbp], 0
  00060	76 0c		 jbe	 SHORT $LN5@vector
  00062	c7 85 c8 00 00
	00 01 00 00 00	 mov	 DWORD PTR tv67[rbp], 1
  0006c	eb 0a		 jmp	 SHORT $LN6@vector
$LN5@vector:
  0006e	c7 85 c8 00 00
	00 00 00 00 00	 mov	 DWORD PTR tv67[rbp], 0
$LN6@vector:
  00078	83 bd c8 00 00
	00 00		 cmp	 DWORD PTR tv67[rbp], 0
  0007f	74 2a		 je	 SHORT $LN3@vector
  00081	48 8b 8d f0 00
	00 00		 mov	 rcx, QWORD PTR __t$[rbp]
  00088	ff 95 08 01 00
	00		 call	 QWORD PTR __f$[rbp]
  0008e	48 8b 85 f8 00
	00 00		 mov	 rax, QWORD PTR __s$[rbp]
  00095	48 8b 8d f0 00
	00 00		 mov	 rcx, QWORD PTR __t$[rbp]
  0009c	48 03 c8	 add	 rcx, rax
  0009f	48 8b c1	 mov	 rax, rcx
  000a2	48 89 85 f0 00
	00 00		 mov	 QWORD PTR __t$[rbp], rax
  000a9	eb 8e		 jmp	 SHORT $LN2@vector
$LN3@vector:
  000ab	48 8d a5 d8 00
	00 00		 lea	 rsp, QWORD PTR [rbp+216]
  000b2	5f		 pop	 rdi
  000b3	5d		 pop	 rbp
  000b4	c3		 ret	 0
??_H@YAXPEAX_K1P6APEAX0@Z@Z ENDP			; `vector constructor iterator'
_TEXT	ENDS
END
