; Listing generated by Microsoft (R) Optimizing Compiler Version 19.27.29112.0 

include listing.inc

INCLUDELIB MSVCRTD
INCLUDELIB OLDNAMES

msvcjmc	SEGMENT
__367CC694_corecrt_memcpy_s@h DB 01H
__F66CEB67_corecrt_stdio_config@h DB 01H
__5467428D_corecrt_wconio@h DB 01H
__4442441F_corecrt_wio@h DB 01H
__101834BA_corecrt_wstdio@h DB 01H
__DC9673E3_corecrt_wstring@h DB 01H
__45F4AF76_corecrt_wtime@h DB 01H
__186FF47F_stat@h DB 01H
__534C724A_wchar@h DB 01H
__62A468D7_tchar@h DB 01H
__FC8B975D_vcruntime_new@h DB 01H
__AD6A91B7_stdio@h DB 01H
__09340588_corecrt_math@h DB 01H
__24E9E95F_stdlib@h DB 01H
__51019776_cstdlib DB 01H
__5E219BC0_limits DB 01H
__B236D4B0_type_traits DB 01H
__B0C4CEA9_malloc@h DB 01H
__18D87206_vcruntime_exception@h DB 01H
__1302BCB8_exception DB 01H
__35D7DDB3_corecrt_memory@h DB 01H
__A29A7DFB_string@h DB 01H
__36E77527_xutility DB 01H
__0C99713E_xmemory DB 01H
__784AF7A2_xstring DB 01H
__7242C389_ctype@h DB 01H
__965C11D2_string DB 01H
__8AA3BE86_time@h DB 01H
__9A4C86E5_stdexcept DB 01H
__238A5427_xcall_once@h DB 01H
__3514C702_atomic DB 01H
__9CD74607_system_error DB 01H
__7B3ADE64_vcruntime_typeinfo@h DB 01H
__4638863E_typeinfo DB 01H
__E28F974E_memory DB 01H
__CECAC041_xfacet DB 01H
__59B165F6_xlocinfo DB 01H
__A7748393_xlocale DB 01H
__605412E5_xiosbase DB 01H
__8B7874EF_xlocmes DB 01H
__102707BA_cmath DB 01H
__39F3E584_xlocnum DB 01H
__1291F0BC_xlocmon DB 01H
__FDACCCE4_xloctime DB 01H
__D3011E72_ios DB 01H
__21FC1C84_fstream DB 01H
__7CEFA1A0_LT@h DB 01H
__4B315192_IT@h DB 01H
__BE522193_DP@h DB 01H
__20961129_GRB@h DB 01H
__22E0C0CC_MFST@h DB 01H
__C7E585C7_In@cpp DB 01H
__660C12FD_utility DB 01H
__D7B46C6D_istream DB 01H
__B4645957_ostream DB 01H
__496265E3_locale DB 01H
__98EC3E59_streambuf DB 01H
__274BC267_iterator DB 01H
__92C84E46_iosfwd DB 01H
__911385EF_xstddef DB 01H
__190E306E_xatomic@h DB 01H
msvcjmc	ENDS
PUBLIC	?__empty_global_delete@@YAXPEAX@Z		; __empty_global_delete
PUBLIC	?__empty_global_delete@@YAXPEAX_K@Z		; __empty_global_delete
PUBLIC	wmemcpy
PUBLIC	??2@YAPEAX_KPEAX@Z				; operator new
PUBLIC	?max@?$numeric_limits@_J@std@@SA_JXZ		; std::numeric_limits<__int64>::max
PUBLIC	??0exception@std@@QEAA@QEBDH@Z			; std::exception::exception
PUBLIC	??0exception@std@@QEAA@AEBV01@@Z		; std::exception::exception
PUBLIC	??1exception@std@@UEAA@XZ			; std::exception::~exception
PUBLIC	?what@exception@std@@UEBAPEBDXZ			; std::exception::what
PUBLIC	??_Gexception@std@@UEAAPEAXI@Z			; std::exception::`scalar deleting destructor'
PUBLIC	??0bad_alloc@std@@AEAA@QEBD@Z			; std::bad_alloc::bad_alloc
PUBLIC	??1bad_alloc@std@@UEAA@XZ			; std::bad_alloc::~bad_alloc
PUBLIC	??0bad_alloc@std@@QEAA@AEBV01@@Z		; std::bad_alloc::bad_alloc
PUBLIC	??_Gbad_alloc@std@@UEAAPEAXI@Z			; std::bad_alloc::`scalar deleting destructor'
PUBLIC	??0bad_array_new_length@std@@QEAA@XZ		; std::bad_array_new_length::bad_array_new_length
PUBLIC	??1bad_array_new_length@std@@UEAA@XZ		; std::bad_array_new_length::~bad_array_new_length
PUBLIC	??0bad_array_new_length@std@@QEAA@AEBV01@@Z	; std::bad_array_new_length::bad_array_new_length
PUBLIC	??_Gbad_array_new_length@std@@UEAAPEAXI@Z	; std::bad_array_new_length::`scalar deleting destructor'
PUBLIC	?_Throw_bad_array_new_length@std@@YAXXZ		; std::_Throw_bad_array_new_length
PUBLIC	?_Allocate@_Default_allocate_traits@std@@SAPEAX_K@Z ; std::_Default_allocate_traits::_Allocate
PUBLIC	?_Adjust_manually_vector_aligned@std@@YAXAEAPEAXAEA_K@Z ; std::_Adjust_manually_vector_aligned
PUBLIC	??0_Container_proxy@std@@QEAA@PEAU_Container_base12@1@@Z ; std::_Container_proxy::_Container_proxy
PUBLIC	??0_Container_base12@std@@QEAA@XZ		; std::_Container_base12::_Container_base12
PUBLIC	?_Orphan_all@_Container_base12@std@@QEAAXXZ	; std::_Container_base12::_Orphan_all
PUBLIC	??$_Construct_in_place@U_Container_proxy@std@@PEAU_Container_base12@2@@std@@YAXAEAU_Container_proxy@0@$$QEAPEAU_Container_base12@0@@Z ; std::_Construct_in_place<std::_Container_proxy,std::_Container_base12 *>
PUBLIC	?copy@?$_Narrow_char_traits@DH@std@@SAPEADQEADQEBD_K@Z ; std::_Narrow_char_traits<char,int>::copy
PUBLIC	?move@?$_Narrow_char_traits@DH@std@@SAPEADQEADQEBD_K@Z ; std::_Narrow_char_traits<char,int>::move
PUBLIC	?assign@?$_Narrow_char_traits@DH@std@@SAXAEADAEBD@Z ; std::_Narrow_char_traits<char,int>::assign
PUBLIC	?to_char_type@?$_Narrow_char_traits@DH@std@@SADAEBH@Z ; std::_Narrow_char_traits<char,int>::to_char_type
PUBLIC	?to_int_type@?$_Narrow_char_traits@DH@std@@SAHAEBD@Z ; std::_Narrow_char_traits<char,int>::to_int_type
PUBLIC	?eq_int_type@?$_Narrow_char_traits@DH@std@@SA_NAEBH0@Z ; std::_Narrow_char_traits<char,int>::eq_int_type
PUBLIC	?not_eof@?$_Narrow_char_traits@DH@std@@SAHAEBH@Z ; std::_Narrow_char_traits<char,int>::not_eof
PUBLIC	?eof@?$_Narrow_char_traits@DH@std@@SAHXZ	; std::_Narrow_char_traits<char,int>::eof
PUBLIC	?_Xlen_string@std@@YAXXZ			; std::_Xlen_string
PUBLIC	??0?$allocator@D@std@@QEAA@XZ			; std::allocator<char>::allocator<char>
PUBLIC	?deallocate@?$allocator@D@std@@QEAAXQEAD_K@Z	; std::allocator<char>::deallocate
PUBLIC	?allocate@?$allocator@D@std@@QEAAPEAD_K@Z	; std::allocator<char>::allocate
PUBLIC	?max_size@?$_Default_allocator_traits@V?$allocator@D@std@@@std@@SA_KAEBV?$allocator@D@2@@Z ; std::_Default_allocator_traits<std::allocator<char> >::max_size
PUBLIC	??0?$_String_val@U?$_Simple_types@D@std@@@std@@QEAA@XZ ; std::_String_val<std::_Simple_types<char> >::_String_val<std::_Simple_types<char> >
PUBLIC	?_Myptr@?$_String_val@U?$_Simple_types@D@std@@@std@@QEAAPEADXZ ; std::_String_val<std::_Simple_types<char> >::_Myptr
PUBLIC	?_Myptr@?$_String_val@U?$_Simple_types@D@std@@@std@@QEBAPEBDXZ ; std::_String_val<std::_Simple_types<char> >::_Myptr
PUBLIC	?_Large_string_engaged@?$_String_val@U?$_Simple_types@D@std@@@std@@QEBA_NXZ ; std::_String_val<std::_Simple_types<char> >::_Large_string_engaged
PUBLIC	?_Check_offset@?$_String_val@U?$_Simple_types@D@std@@@std@@QEBAX_K@Z ; std::_String_val<std::_Simple_types<char> >::_Check_offset
PUBLIC	?_Xran@?$_String_val@U?$_Simple_types@D@std@@@std@@SAXXZ ; std::_String_val<std::_Simple_types<char> >::_Xran
PUBLIC	?_Clamp_suffix_size@?$_String_val@U?$_Simple_types@D@std@@@std@@QEBA_K_K0@Z ; std::_String_val<std::_Simple_types<char> >::_Clamp_suffix_size
PUBLIC	??0_Bxty@?$_String_val@U?$_Simple_types@D@std@@@std@@QEAA@XZ ; std::_String_val<std::_Simple_types<char> >::_Bxty::_Bxty
PUBLIC	??1_Bxty@?$_String_val@U?$_Simple_types@D@std@@@std@@QEAA@XZ ; std::_String_val<std::_Simple_types<char> >::_Bxty::~_Bxty
PUBLIC	??1?$_String_val@U?$_Simple_types@D@std@@@std@@QEAA@XZ ; std::_String_val<std::_Simple_types<char> >::~_String_val<std::_Simple_types<char> >
PUBLIC	??0?$basic_string@DU?$char_traits@D@std@@V?$allocator@D@2@@std@@QEAA@XZ ; std::basic_string<char,std::char_traits<char>,std::allocator<char> >::basic_string<char,std::char_traits<char>,std::allocator<char> >
PUBLIC	??1?$basic_string@DU?$char_traits@D@std@@V?$allocator@D@2@@std@@QEAA@XZ ; std::basic_string<char,std::char_traits<char>,std::allocator<char> >::~basic_string<char,std::char_traits<char>,std::allocator<char> >
PUBLIC	?erase@?$basic_string@DU?$char_traits@D@std@@V?$allocator@D@2@@std@@QEAAAEAV12@_K_K@Z ; std::basic_string<char,std::char_traits<char>,std::allocator<char> >::erase
PUBLIC	?push_back@?$basic_string@DU?$char_traits@D@std@@V?$allocator@D@2@@std@@QEAAXD@Z ; std::basic_string<char,std::char_traits<char>,std::allocator<char> >::push_back
PUBLIC	?front@?$basic_string@DU?$char_traits@D@std@@V?$allocator@D@2@@std@@QEAAAEADXZ ; std::basic_string<char,std::char_traits<char>,std::allocator<char> >::front
PUBLIC	?data@?$basic_string@DU?$char_traits@D@std@@V?$allocator@D@2@@std@@QEBAPEBDXZ ; std::basic_string<char,std::char_traits<char>,std::allocator<char> >::data
PUBLIC	?size@?$basic_string@DU?$char_traits@D@std@@V?$allocator@D@2@@std@@QEBA_KXZ ; std::basic_string<char,std::char_traits<char>,std::allocator<char> >::size
PUBLIC	?max_size@?$basic_string@DU?$char_traits@D@std@@V?$allocator@D@2@@std@@QEBA_KXZ ; std::basic_string<char,std::char_traits<char>,std::allocator<char> >::max_size
PUBLIC	?_Calculate_growth@?$basic_string@DU?$char_traits@D@std@@V?$allocator@D@2@@std@@CA_K_K00@Z ; std::basic_string<char,std::char_traits<char>,std::allocator<char> >::_Calculate_growth
PUBLIC	?_Calculate_growth@?$basic_string@DU?$char_traits@D@std@@V?$allocator@D@2@@std@@AEBA_K_K@Z ; std::basic_string<char,std::char_traits<char>,std::allocator<char> >::_Calculate_growth
PUBLIC	?_Tidy_init@?$basic_string@DU?$char_traits@D@std@@V?$allocator@D@2@@std@@AEAAXXZ ; std::basic_string<char,std::char_traits<char>,std::allocator<char> >::_Tidy_init
PUBLIC	?_Tidy_deallocate@?$basic_string@DU?$char_traits@D@std@@V?$allocator@D@2@@std@@AEAAXXZ ; std::basic_string<char,std::char_traits<char>,std::allocator<char> >::_Tidy_deallocate
PUBLIC	?_Getal@?$basic_string@DU?$char_traits@D@std@@V?$allocator@D@2@@std@@AEAAAEAV?$allocator@D@2@XZ ; std::basic_string<char,std::char_traits<char>,std::allocator<char> >::_Getal
PUBLIC	?_Getal@?$basic_string@DU?$char_traits@D@std@@V?$allocator@D@2@@std@@AEBAAEBV?$allocator@D@2@XZ ; std::basic_string<char,std::char_traits<char>,std::allocator<char> >::_Getal
PUBLIC	?_Get_first@?$_Compressed_pair@V?$allocator@D@std@@V?$_String_val@U?$_Simple_types@D@std@@@2@$00@std@@QEAAAEAV?$allocator@D@2@XZ ; std::_Compressed_pair<std::allocator<char>,std::_String_val<std::_Simple_types<char> >,1>::_Get_first
PUBLIC	?_Get_first@?$_Compressed_pair@V?$allocator@D@std@@V?$_String_val@U?$_Simple_types@D@std@@@2@$00@std@@QEBAAEBV?$allocator@D@2@XZ ; std::_Compressed_pair<std::allocator<char>,std::_String_val<std::_Simple_types<char> >,1>::_Get_first
PUBLIC	??1?$_Compressed_pair@V?$allocator@D@std@@V?$_String_val@U?$_Simple_types@D@std@@@2@$00@std@@QEAA@XZ ; std::_Compressed_pair<std::allocator<char>,std::_String_val<std::_Simple_types<char> >,1>::~_Compressed_pair<std::allocator<char>,std::_String_val<std::_Simple_types<char> >,1>
PUBLIC	??0bad_cast@std@@QEAA@XZ			; std::bad_cast::bad_cast
PUBLIC	??1bad_cast@std@@UEAA@XZ			; std::bad_cast::~bad_cast
PUBLIC	??0bad_cast@std@@QEAA@AEBV01@@Z			; std::bad_cast::bad_cast
PUBLIC	??_Gbad_cast@std@@UEAAPEAXI@Z			; std::bad_cast::`scalar deleting destructor'
PUBLIC	?_Throw_bad_cast@std@@YAXXZ			; std::_Throw_bad_cast
PUBLIC	??1locale@std@@QEAA@XZ				; std::locale::~locale
PUBLIC	?_Getfacet@locale@std@@QEBAPEBVfacet@12@_K@Z	; std::locale::_Getfacet
PUBLIC	??$_Maklocstr@_W@std@@YAPEA_WPEBDPEA_WAEBU_Cvtvec@@@Z ; std::_Maklocstr<wchar_t>
PUBLIC	??0?$fpos@U_Mbstatet@@@std@@QEAA@_J@Z		; std::fpos<_Mbstatet>::fpos<_Mbstatet>
PUBLIC	??0?$fpos@U_Mbstatet@@@std@@QEAA@U_Mbstatet@@_J@Z ; std::fpos<_Mbstatet>::fpos<_Mbstatet>
PUBLIC	?state@?$fpos@U_Mbstatet@@@std@@QEBA?AU_Mbstatet@@XZ ; std::fpos<_Mbstatet>::state
PUBLIC	??B?$fpos@U_Mbstatet@@@std@@QEBA_JXZ		; std::fpos<_Mbstatet>::operator __int64
PUBLIC	?_Maklocwcs@std@@YAPEA_WPEB_W@Z			; std::_Maklocwcs
PUBLIC	??$_Maklocstr@D@std@@YAPEADPEBDPEADAEBU_Cvtvec@@@Z ; std::_Maklocstr<char>
PUBLIC	??$_Getvals@_W@?$time_get@DV?$istreambuf_iterator@DU?$char_traits@D@std@@@std@@@std@@IEAAX_WAEBV_Locinfo@1@@Z ; std::time_get<char,std::istreambuf_iterator<char,std::char_traits<char> > >::_Getvals<wchar_t>
PUBLIC	??$_Getvals@_W@?$time_get@_WV?$istreambuf_iterator@_WU?$char_traits@_W@std@@@std@@@std@@IEAAX_WAEBV_Locinfo@1@@Z ; std::time_get<wchar_t,std::istreambuf_iterator<wchar_t,std::char_traits<wchar_t> > >::_Getvals<wchar_t>
PUBLIC	??$_Fgetc@D@std@@YA_NAEADPEAU_iobuf@@@Z		; std::_Fgetc<char>
PUBLIC	??$_Fputc@D@std@@YA_NDPEAU_iobuf@@@Z		; std::_Fputc<char>
PUBLIC	??$_Ungetc@D@std@@YA_NAEBDPEAU_iobuf@@@Z	; std::_Ungetc<char>
PUBLIC	??0IN@In@@QEAA@XZ				; In::IN::IN
PUBLIC	?getin@In@@YA?AUIN@1@QEA_W@Z			; In::getin
PUBLIC	??0?$basic_fstream@DU?$char_traits@D@std@@@std@@QEAA@PEB_WHH@Z ; std::basic_fstream<char,std::char_traits<char> >::basic_fstream<char,std::char_traits<char> >
PUBLIC	??1?$basic_fstream@DU?$char_traits@D@std@@@std@@UEAA@XZ ; std::basic_fstream<char,std::char_traits<char> >::~basic_fstream<char,std::char_traits<char> >
PUBLIC	?close@?$basic_fstream@DU?$char_traits@D@std@@@std@@QEAAXXZ ; std::basic_fstream<char,std::char_traits<char> >::close
PUBLIC	??0?$basic_filebuf@DU?$char_traits@D@std@@@std@@QEAA@XZ ; std::basic_filebuf<char,std::char_traits<char> >::basic_filebuf<char,std::char_traits<char> >
PUBLIC	??1?$basic_filebuf@DU?$char_traits@D@std@@@std@@UEAA@XZ ; std::basic_filebuf<char,std::char_traits<char> >::~basic_filebuf<char,std::char_traits<char> >
PUBLIC	?open@?$basic_filebuf@DU?$char_traits@D@std@@@std@@QEAAPEAV12@PEB_WHH@Z ; std::basic_filebuf<char,std::char_traits<char> >::open
PUBLIC	?close@?$basic_filebuf@DU?$char_traits@D@std@@@std@@QEAAPEAV12@XZ ; std::basic_filebuf<char,std::char_traits<char> >::close
PUBLIC	?_Lock@?$basic_filebuf@DU?$char_traits@D@std@@@std@@UEAAXXZ ; std::basic_filebuf<char,std::char_traits<char> >::_Lock
PUBLIC	?_Unlock@?$basic_filebuf@DU?$char_traits@D@std@@@std@@UEAAXXZ ; std::basic_filebuf<char,std::char_traits<char> >::_Unlock
PUBLIC	?overflow@?$basic_filebuf@DU?$char_traits@D@std@@@std@@MEAAHH@Z ; std::basic_filebuf<char,std::char_traits<char> >::overflow
PUBLIC	?pbackfail@?$basic_filebuf@DU?$char_traits@D@std@@@std@@MEAAHH@Z ; std::basic_filebuf<char,std::char_traits<char> >::pbackfail
PUBLIC	?underflow@?$basic_filebuf@DU?$char_traits@D@std@@@std@@MEAAHXZ ; std::basic_filebuf<char,std::char_traits<char> >::underflow
PUBLIC	?uflow@?$basic_filebuf@DU?$char_traits@D@std@@@std@@MEAAHXZ ; std::basic_filebuf<char,std::char_traits<char> >::uflow
PUBLIC	?xsgetn@?$basic_filebuf@DU?$char_traits@D@std@@@std@@MEAA_JPEAD_J@Z ; std::basic_filebuf<char,std::char_traits<char> >::xsgetn
PUBLIC	?xsputn@?$basic_filebuf@DU?$char_traits@D@std@@@std@@MEAA_JPEBD_J@Z ; std::basic_filebuf<char,std::char_traits<char> >::xsputn
PUBLIC	?seekoff@?$basic_filebuf@DU?$char_traits@D@std@@@std@@MEAA?AV?$fpos@U_Mbstatet@@@2@_JHH@Z ; std::basic_filebuf<char,std::char_traits<char> >::seekoff
PUBLIC	?seekpos@?$basic_filebuf@DU?$char_traits@D@std@@@std@@MEAA?AV?$fpos@U_Mbstatet@@@2@V32@H@Z ; std::basic_filebuf<char,std::char_traits<char> >::seekpos
PUBLIC	?setbuf@?$basic_filebuf@DU?$char_traits@D@std@@@std@@MEAAPEAV?$basic_streambuf@DU?$char_traits@D@std@@@2@PEAD_J@Z ; std::basic_filebuf<char,std::char_traits<char> >::setbuf
PUBLIC	?sync@?$basic_filebuf@DU?$char_traits@D@std@@@std@@MEAAHXZ ; std::basic_filebuf<char,std::char_traits<char> >::sync
PUBLIC	?imbue@?$basic_filebuf@DU?$char_traits@D@std@@@std@@MEAAXAEBVlocale@2@@Z ; std::basic_filebuf<char,std::char_traits<char> >::imbue
PUBLIC	?_Init@?$basic_filebuf@DU?$char_traits@D@std@@@std@@IEAAXPEAU_iobuf@@W4_Initfl@12@@Z ; std::basic_filebuf<char,std::char_traits<char> >::_Init
PUBLIC	?_Endwrite@?$basic_filebuf@DU?$char_traits@D@std@@@std@@IEAA_NXZ ; std::basic_filebuf<char,std::char_traits<char> >::_Endwrite
PUBLIC	?_Initcvt@?$basic_filebuf@DU?$char_traits@D@std@@@std@@IEAAXAEBV?$codecvt@DDU_Mbstatet@@@2@@Z ; std::basic_filebuf<char,std::char_traits<char> >::_Initcvt
PUBLIC	?_Reset_back@?$basic_filebuf@DU?$char_traits@D@std@@@std@@AEAAXXZ ; std::basic_filebuf<char,std::char_traits<char> >::_Reset_back
PUBLIC	?_Set_back@?$basic_filebuf@DU?$char_traits@D@std@@@std@@AEAAXXZ ; std::basic_filebuf<char,std::char_traits<char> >::_Set_back
PUBLIC	??_G?$basic_filebuf@DU?$char_traits@D@std@@@std@@UEAAPEAXI@Z ; std::basic_filebuf<char,std::char_traits<char> >::`scalar deleting destructor'
PUBLIC	?__autoclassinit2@?$basic_fstream@DU?$char_traits@D@std@@@std@@QEAAX_K@Z ; std::basic_fstream<char,std::char_traits<char> >::__autoclassinit2
PUBLIC	??_G?$basic_fstream@DU?$char_traits@D@std@@@std@@UEAAPEAXI@Z ; std::basic_fstream<char,std::char_traits<char> >::`scalar deleting destructor'
PUBLIC	??_D?$basic_fstream@DU?$char_traits@D@std@@@std@@QEAAXXZ ; std::basic_fstream<char,std::char_traits<char> >::`vbase destructor'
PUBLIC	??$use_facet@V?$codecvt@DDU_Mbstatet@@@std@@@std@@YAAEBV?$codecvt@DDU_Mbstatet@@@0@AEBVlocale@0@@Z ; std::use_facet<std::codecvt<char,char,_Mbstatet> >
PUBLIC	??$min@_K@std@@YAAEB_KAEB_K0@Z			; std::min<unsigned __int64>
PUBLIC	??$addressof@V?$basic_filebuf@DU?$char_traits@D@std@@@std@@@std@@YAPEAV?$basic_filebuf@DU?$char_traits@D@std@@@0@AEAV10@@Z ; std::addressof<std::basic_filebuf<char,std::char_traits<char> > >
PUBLIC	?allocate@?$allocator@U_Container_proxy@std@@@std@@QEAAPEAU_Container_proxy@2@_K@Z ; std::allocator<std::_Container_proxy>::allocate
PUBLIC	??$_Delete_plain_internal@V?$allocator@U_Container_proxy@std@@@std@@@std@@YAXAEAV?$allocator@U_Container_proxy@std@@@0@QEAU_Container_proxy@0@@Z ; std::_Delete_plain_internal<std::allocator<std::_Container_proxy> >
PUBLIC	??$_Alloc_proxy@V?$allocator@U_Container_proxy@std@@@std@@@_Container_base12@std@@QEAAX$$QEAV?$allocator@U_Container_proxy@std@@@1@@Z ; std::_Container_base12::_Alloc_proxy<std::allocator<std::_Container_proxy> >
PUBLIC	??$?0D@?$allocator@U_Container_proxy@std@@@std@@QEAA@AEBV?$allocator@D@1@@Z ; std::allocator<std::_Container_proxy>::allocator<std::_Container_proxy><char>
PUBLIC	??$?0$$V@?$_Compressed_pair@V?$allocator@D@std@@V?$_String_val@U?$_Simple_types@D@std@@@2@$00@std@@QEAA@U_Zero_then_variadic_args_t@1@@Z ; std::_Compressed_pair<std::allocator<char>,std::_String_val<std::_Simple_types<char> >,1>::_Compressed_pair<std::allocator<char>,std::_String_val<std::_Simple_types<char> >,1><>
PUBLIC	??$_Unfancy@U_Container_proxy@std@@@std@@YAPEAU_Container_proxy@0@PEAU10@@Z ; std::_Unfancy<std::_Container_proxy>
PUBLIC	??$addressof@$$CBV?$codecvt@DDU_Mbstatet@@@std@@@std@@YAPEBV?$codecvt@DDU_Mbstatet@@@0@AEBV10@@Z ; std::addressof<std::codecvt<char,char,_Mbstatet> const >
PUBLIC	??$_Destroy_in_place@PEAD@std@@YAXAEAPEAD@Z	; std::_Destroy_in_place<char *>
PUBLIC	??R<lambda_319d5e083f45f90dcdce5dce53cbb275>@@QEBA@QEADQEBD_KD@Z ; <lambda_319d5e083f45f90dcdce5dce53cbb275>::operator()
PUBLIC	??$_Reallocate_grow_by@V<lambda_319d5e083f45f90dcdce5dce53cbb275>@@D@?$basic_string@DU?$char_traits@D@std@@V?$allocator@D@2@@std@@AEAAAEAV01@_KV<lambda_319d5e083f45f90dcdce5dce53cbb275>@@D@Z ; std::basic_string<char,std::char_traits<char>,std::allocator<char> >::_Reallocate_grow_by<<lambda_319d5e083f45f90dcdce5dce53cbb275>,char>
PUBLIC	??$_Construct_in_place@PEADAEBQEAD@std@@YAXAEAPEADAEBQEAD@Z ; std::_Construct_in_place<char *,char * const &>
PUBLIC	??$_Unfancy@D@std@@YAPEADPEAD@Z			; std::_Unfancy<char>
PUBLIC	??$max@_K@std@@YAAEB_KAEB_K0@Z			; std::max<unsigned __int64>
PUBLIC	??$_Get_size_of_n@$0BA@@std@@YA_K_K@Z		; std::_Get_size_of_n<16>
PUBLIC	??$_Allocate@$0BA@U_Default_allocate_traits@std@@$0A@@std@@YAPEAX_K@Z ; std::_Allocate<16,std::_Default_allocate_traits,0>
PUBLIC	??$_Deallocate@$0BA@$0A@@std@@YAXPEAX_K@Z	; std::_Deallocate<16,0>
PUBLIC	??$_Get_size_of_n@$00@std@@YA_K_K@Z		; std::_Get_size_of_n<1>
PUBLIC	??$addressof@U_Container_proxy@std@@@std@@YAPEAU_Container_proxy@0@AEAU10@@Z ; std::addressof<std::_Container_proxy>
PUBLIC	??$forward@PEAU_Container_base12@std@@@std@@YA$$QEAPEAU_Container_base12@0@AEAPEAU10@@Z ; std::forward<std::_Container_base12 *>
PUBLIC	??R?$default_delete@V_Facet_base@std@@@std@@QEBAXPEAV_Facet_base@1@@Z ; std::default_delete<std::_Facet_base>::operator()
PUBLIC	??1?$unique_ptr@V_Facet_base@std@@U?$default_delete@V_Facet_base@std@@@2@@std@@QEAA@XZ ; std::unique_ptr<std::_Facet_base,std::default_delete<std::_Facet_base> >::~unique_ptr<std::_Facet_base,std::default_delete<std::_Facet_base> >
PUBLIC	?release@?$unique_ptr@V_Facet_base@std@@U?$default_delete@V_Facet_base@std@@@2@@std@@QEAAPEAV_Facet_base@2@XZ ; std::unique_ptr<std::_Facet_base,std::default_delete<std::_Facet_base> >::release
PUBLIC	?_Get_first@?$_Compressed_pair@U?$default_delete@V_Facet_base@std@@@std@@PEAV_Facet_base@2@$00@std@@QEAAAEAU?$default_delete@V_Facet_base@std@@@2@XZ ; std::_Compressed_pair<std::default_delete<std::_Facet_base>,std::_Facet_base *,1>::_Get_first
PUBLIC	?__autoclassinit2@?$unique_ptr@V_Facet_base@std@@U?$default_delete@V_Facet_base@std@@@2@@std@@QEAAX_K@Z ; std::unique_ptr<std::_Facet_base,std::default_delete<std::_Facet_base> >::__autoclassinit2
PUBLIC	??$?0U?$default_delete@V_Facet_base@std@@@std@@$0A@@?$unique_ptr@V_Facet_base@std@@U?$default_delete@V_Facet_base@std@@@2@@std@@QEAA@PEAV_Facet_base@1@@Z ; std::unique_ptr<std::_Facet_base,std::default_delete<std::_Facet_base> >::unique_ptr<std::_Facet_base,std::default_delete<std::_Facet_base> ><std::default_delete<std::_Facet_base>,0>
PUBLIC	??$_Deallocate_plain@V?$allocator@U_Container_proxy@std@@@std@@@std@@YAXAEAV?$allocator@U_Container_proxy@std@@@0@QEAU_Container_proxy@0@@Z ; std::_Deallocate_plain<std::allocator<std::_Container_proxy> >
PUBLIC	??$addressof@PEAD@std@@YAPEAPEADAEAPEAD@Z	; std::addressof<char *>
PUBLIC	??$forward@AEBQEAD@std@@YAAEBQEADAEBQEAD@Z	; std::forward<char * const &>
PUBLIC	??$_Allocate_manually_vector_aligned@U_Default_allocate_traits@std@@@std@@YAPEAX_K@Z ; std::_Allocate_manually_vector_aligned<std::_Default_allocate_traits>
PUBLIC	??$exchange@PEAV_Facet_base@std@@PEAV12@@std@@YAPEAV_Facet_base@0@AEAPEAV10@$$QEAPEAV10@@Z ; std::exchange<std::_Facet_base *,std::_Facet_base *>
PUBLIC	??$?0AEAPEAV_Facet_base@std@@@?$_Compressed_pair@U?$default_delete@V_Facet_base@std@@@std@@PEAV_Facet_base@2@$00@std@@QEAA@U_Zero_then_variadic_args_t@1@AEAPEAV_Facet_base@1@@Z ; std::_Compressed_pair<std::default_delete<std::_Facet_base>,std::_Facet_base *,1>::_Compressed_pair<std::default_delete<std::_Facet_base>,std::_Facet_base *,1><std::_Facet_base * &>
PUBLIC	?deallocate@?$_Default_allocator_traits@V?$allocator@U_Container_proxy@std@@@std@@@std@@SAXAEAV?$allocator@U_Container_proxy@std@@@2@QEAU_Container_proxy@2@_K@Z ; std::_Default_allocator_traits<std::allocator<std::_Container_proxy> >::deallocate
PUBLIC	??$forward@AEAPEAV_Facet_base@std@@@std@@YAAEAPEAV_Facet_base@0@AEAPEAV10@@Z ; std::forward<std::_Facet_base * &>
PUBLIC	??_E?$basic_fstream@DU?$char_traits@D@std@@@std@@$4PPPPPPPM@A@EAAPEAXI@Z ; std::basic_fstream<char,std::char_traits<char> >::`vector deleting destructor'
PUBLIC	__JustMyCode_Default
PUBLIC	??_7exception@std@@6B@				; std::exception::`vftable'
PUBLIC	??_C@_0BC@EOODALEL@Unknown?5exception@		; `string'
PUBLIC	??_7bad_alloc@std@@6B@				; std::bad_alloc::`vftable'
PUBLIC	??_7bad_array_new_length@std@@6B@		; std::bad_array_new_length::`vftable'
PUBLIC	??_C@_0BF@KINCDENJ@bad?5array?5new?5length@	; `string'
PUBLIC	_TI3?AVbad_array_new_length@std@@
PUBLIC	_CTA3?AVbad_array_new_length@std@@
PUBLIC	??_R0?AVbad_array_new_length@std@@@8		; std::bad_array_new_length `RTTI Type Descriptor'
PUBLIC	_CT??_R0?AVbad_array_new_length@std@@@8??0bad_array_new_length@std@@QEAA@AEBV01@@Z24
PUBLIC	??_R0?AVbad_alloc@std@@@8			; std::bad_alloc `RTTI Type Descriptor'
PUBLIC	_CT??_R0?AVbad_alloc@std@@@8??0bad_alloc@std@@QEAA@AEBV01@@Z24
PUBLIC	??_R0?AVexception@std@@@8			; std::exception `RTTI Type Descriptor'
PUBLIC	_CT??_R0?AVexception@std@@@8??0exception@std@@QEAA@AEBV01@@Z24
PUBLIC	?__LINE__Var@?0??_Adjust_manually_vector_aligned@std@@YAXAEAPEAXAEA_K@Z@4JA ; `std::_Adjust_manually_vector_aligned'::`1'::__LINE__Var
PUBLIC	??_C@_0BB@FCMFBGOM@invalid?5argument@		; `string'
PUBLIC	??_C@_02DKCKIIND@?$CFs@				; `string'
PUBLIC	??_C@_0GJ@EHJGLGPD@C?3?2Program?5Files?5?$CIx86?$CJ?2Microsof@ ; `string'
PUBLIC	??_C@_1NC@LBGPBFDE@?$AAC?$AA?3?$AA?2?$AAP?$AAr?$AAo?$AAg?$AAr?$AAa?$AAm?$AA?5?$AAF?$AAi?$AAl?$AAe@ ; `string'
PUBLIC	??_C@_1EK@NIFDJFDG@?$AAs?$AAt?$AAd?$AA?3?$AA?3?$AA_?$AAA?$AAd?$AAj?$AAu?$AAs?$AAt?$AA_?$AAm?$AAa@ ; `string'
PUBLIC	??_C@_1CG@JNLFBNGN@?$AA?$CC?$AAi?$AAn?$AAv?$AAa?$AAl?$AAi?$AAd?$AA?5?$AAa?$AAr?$AAg?$AAu?$AAm?$AAe@ ; `string'
PUBLIC	??_C@_0BA@JFNIOLAK@string?5too?5long@		; `string'
PUBLIC	??_7bad_cast@std@@6B@				; std::bad_cast::`vftable'
PUBLIC	??_C@_08EPJLHIJG@bad?5cast@			; `string'
PUBLIC	_TI2?AVbad_cast@std@@
PUBLIC	_CTA2?AVbad_cast@std@@
PUBLIC	??_R0?AVbad_cast@std@@@8			; std::bad_cast `RTTI Type Descriptor'
PUBLIC	_CT??_R0?AVbad_cast@std@@@8??0bad_cast@std@@QEAA@AEBV01@@Z24
PUBLIC	??_C@_0GJ@OPFKIEFE@C?3?2Program?5Files?5?$CIx86?$CJ?2Microsof@ ; `string'
PUBLIC	?__LINE__Var@?0??_Maklocwcs@std@@YAPEA_WPEB_W@Z@4JA ; `std::_Maklocwcs'::`1'::__LINE__Var
PUBLIC	??_C@_0GJ@GMBHIGPF@C?3?2Program?5Files?5?$CIx86?$CJ?2Microsof@ ; `string'
PUBLIC	??_7?$basic_filebuf@DU?$char_traits@D@std@@@std@@6B@ ; std::basic_filebuf<char,std::char_traits<char> >::`vftable'
PUBLIC	??_7?$basic_fstream@DU?$char_traits@D@std@@@std@@6B@ ; std::basic_fstream<char,std::char_traits<char> >::`vftable'
PUBLIC	??_8?$basic_fstream@DU?$char_traits@D@std@@@std@@7B?$basic_istream@DU?$char_traits@D@std@@@1@@ ; std::basic_fstream<char,std::char_traits<char> >::`vbtable'
PUBLIC	??_8?$basic_fstream@DU?$char_traits@D@std@@@std@@7B?$basic_ostream@DU?$char_traits@D@std@@@1@@ ; std::basic_fstream<char,std::char_traits<char> >::`vbtable'
PUBLIC	_TI1?AUERROR@Error@@
PUBLIC	_CTA1?AUERROR@Error@@
PUBLIC	??_R0?AUERROR@Error@@@8				; Error::ERROR `RTTI Type Descriptor'
PUBLIC	_CT??_R0?AUERROR@Error@@@8208
PUBLIC	??_C@_0N@LPFKKEBD@?3AM?3am?3PM?3pm@		; `string'
PUBLIC	??_C@_0GJ@LOFLLKBK@C?3?2Program?5Files?5?$CIx86?$CJ?2Microsof@ ; `string'
PUBLIC	??_C@_1NC@FPODOMOF@?$AAC?$AA?3?$AA?2?$AAP?$AAr?$AAo?$AAg?$AAr?$AAa?$AAm?$AA?5?$AAF?$AAi?$AAl?$AAe@ ; `string'
PUBLIC	?_Stinit@?1??_Init@?$basic_filebuf@DU?$char_traits@D@std@@@std@@IEAAXPEAU_iobuf@@W4_Initfl@23@@Z@4U_Mbstatet@@A ; `std::basic_filebuf<char,std::char_traits<char> >::_Init'::`2'::_Stinit
PUBLIC	??_C@_0BP@PFIPNLNI@front?$CI?$CJ?5called?5on?5empty?5string@ ; `string'
PUBLIC	??_C@_1LC@BJDDPGPA@?$AAs?$AAt?$AAd?$AA?3?$AA?3?$AAb?$AAa?$AAs?$AAi?$AAc?$AA_?$AAs?$AAt?$AAr?$AAi@ ; `string'
PUBLIC	??_C@_1EC@DINNLDHA@?$AA?$CC?$AAf?$AAr?$AAo?$AAn?$AAt?$AA?$CI?$AA?$CJ?$AA?5?$AAc?$AAa?$AAl?$AAl?$AAe?$AAd@ ; `string'
PUBLIC	??_C@_0BI@CFPLBAOH@invalid?5string?5position@	; `string'
PUBLIC	??_C@_1BK@MHIKGOKE@?$AA?3?$AAA?$AAM?$AA?3?$AAa?$AAm?$AA?3?$AAP?$AAM?$AA?3?$AAp?$AAm@ ; `string'
PUBLIC	?_Psave@?$_Facetptr@V?$codecvt@DDU_Mbstatet@@@std@@@std@@2PEBVfacet@locale@2@EB ; std::_Facetptr<std::codecvt<char,char,_Mbstatet> >::_Psave
PUBLIC	??_C@_1EO@GFNCMDLA@?$AAs?$AAt?$AAd?$AA?3?$AA?3?$AA_?$AAA?$AAl?$AAl?$AAo?$AAc?$AAa?$AAt?$AAe?$AA_@ ; `string'
PUBLIC	??_R4exception@std@@6B@				; std::exception::`RTTI Complete Object Locator'
PUBLIC	??_R3exception@std@@8				; std::exception::`RTTI Class Hierarchy Descriptor'
PUBLIC	??_R2exception@std@@8				; std::exception::`RTTI Base Class Array'
PUBLIC	??_R1A@?0A@EA@exception@std@@8			; std::exception::`RTTI Base Class Descriptor at (0,-1,0,64)'
PUBLIC	??_R4bad_alloc@std@@6B@				; std::bad_alloc::`RTTI Complete Object Locator'
PUBLIC	??_R3bad_alloc@std@@8				; std::bad_alloc::`RTTI Class Hierarchy Descriptor'
PUBLIC	??_R2bad_alloc@std@@8				; std::bad_alloc::`RTTI Base Class Array'
PUBLIC	??_R1A@?0A@EA@bad_alloc@std@@8			; std::bad_alloc::`RTTI Base Class Descriptor at (0,-1,0,64)'
PUBLIC	??_R4bad_array_new_length@std@@6B@		; std::bad_array_new_length::`RTTI Complete Object Locator'
PUBLIC	??_R3bad_array_new_length@std@@8		; std::bad_array_new_length::`RTTI Class Hierarchy Descriptor'
PUBLIC	??_R2bad_array_new_length@std@@8		; std::bad_array_new_length::`RTTI Base Class Array'
PUBLIC	??_R1A@?0A@EA@bad_array_new_length@std@@8	; std::bad_array_new_length::`RTTI Base Class Descriptor at (0,-1,0,64)'
PUBLIC	??_R4?$basic_filebuf@DU?$char_traits@D@std@@@std@@6B@ ; std::basic_filebuf<char,std::char_traits<char> >::`RTTI Complete Object Locator'
PUBLIC	??_R0?AV?$basic_filebuf@DU?$char_traits@D@std@@@std@@@8 ; std::basic_filebuf<char,std::char_traits<char> > `RTTI Type Descriptor'
PUBLIC	??_R3?$basic_filebuf@DU?$char_traits@D@std@@@std@@8 ; std::basic_filebuf<char,std::char_traits<char> >::`RTTI Class Hierarchy Descriptor'
PUBLIC	??_R2?$basic_filebuf@DU?$char_traits@D@std@@@std@@8 ; std::basic_filebuf<char,std::char_traits<char> >::`RTTI Base Class Array'
PUBLIC	??_R1A@?0A@EA@?$basic_filebuf@DU?$char_traits@D@std@@@std@@8 ; std::basic_filebuf<char,std::char_traits<char> >::`RTTI Base Class Descriptor at (0,-1,0,64)'
PUBLIC	??_R1A@?0A@EA@?$basic_streambuf@DU?$char_traits@D@std@@@std@@8 ; std::basic_streambuf<char,std::char_traits<char> >::`RTTI Base Class Descriptor at (0,-1,0,64)'
PUBLIC	??_R0?AV?$basic_streambuf@DU?$char_traits@D@std@@@std@@@8 ; std::basic_streambuf<char,std::char_traits<char> > `RTTI Type Descriptor'
PUBLIC	??_R3?$basic_streambuf@DU?$char_traits@D@std@@@std@@8 ; std::basic_streambuf<char,std::char_traits<char> >::`RTTI Class Hierarchy Descriptor'
PUBLIC	??_R2?$basic_streambuf@DU?$char_traits@D@std@@@std@@8 ; std::basic_streambuf<char,std::char_traits<char> >::`RTTI Base Class Array'
PUBLIC	??_R4?$basic_fstream@DU?$char_traits@D@std@@@std@@6B@ ; std::basic_fstream<char,std::char_traits<char> >::`RTTI Complete Object Locator'
PUBLIC	??_R0?AV?$basic_fstream@DU?$char_traits@D@std@@@std@@@8 ; std::basic_fstream<char,std::char_traits<char> > `RTTI Type Descriptor'
PUBLIC	??_R3?$basic_fstream@DU?$char_traits@D@std@@@std@@8 ; std::basic_fstream<char,std::char_traits<char> >::`RTTI Class Hierarchy Descriptor'
PUBLIC	??_R2?$basic_fstream@DU?$char_traits@D@std@@@std@@8 ; std::basic_fstream<char,std::char_traits<char> >::`RTTI Base Class Array'
PUBLIC	??_R1A@?0A@EA@?$basic_fstream@DU?$char_traits@D@std@@@std@@8 ; std::basic_fstream<char,std::char_traits<char> >::`RTTI Base Class Descriptor at (0,-1,0,64)'
PUBLIC	??_R1A@?0A@EA@?$basic_iostream@DU?$char_traits@D@std@@@std@@8 ; std::basic_iostream<char,std::char_traits<char> >::`RTTI Base Class Descriptor at (0,-1,0,64)'
PUBLIC	??_R0?AV?$basic_iostream@DU?$char_traits@D@std@@@std@@@8 ; std::basic_iostream<char,std::char_traits<char> > `RTTI Type Descriptor'
PUBLIC	??_R3?$basic_iostream@DU?$char_traits@D@std@@@std@@8 ; std::basic_iostream<char,std::char_traits<char> >::`RTTI Class Hierarchy Descriptor'
PUBLIC	??_R2?$basic_iostream@DU?$char_traits@D@std@@@std@@8 ; std::basic_iostream<char,std::char_traits<char> >::`RTTI Base Class Array'
PUBLIC	??_R1A@?0A@EA@?$basic_istream@DU?$char_traits@D@std@@@std@@8 ; std::basic_istream<char,std::char_traits<char> >::`RTTI Base Class Descriptor at (0,-1,0,64)'
PUBLIC	??_R0?AV?$basic_istream@DU?$char_traits@D@std@@@std@@@8 ; std::basic_istream<char,std::char_traits<char> > `RTTI Type Descriptor'
PUBLIC	??_R3?$basic_istream@DU?$char_traits@D@std@@@std@@8 ; std::basic_istream<char,std::char_traits<char> >::`RTTI Class Hierarchy Descriptor'
PUBLIC	??_R2?$basic_istream@DU?$char_traits@D@std@@@std@@8 ; std::basic_istream<char,std::char_traits<char> >::`RTTI Base Class Array'
PUBLIC	??_R1A@A@3FA@?$basic_ios@DU?$char_traits@D@std@@@std@@8 ; std::basic_ios<char,std::char_traits<char> >::`RTTI Base Class Descriptor at (0,0,4,80)'
PUBLIC	??_R0?AV?$basic_ios@DU?$char_traits@D@std@@@std@@@8 ; std::basic_ios<char,std::char_traits<char> > `RTTI Type Descriptor'
PUBLIC	??_R3?$basic_ios@DU?$char_traits@D@std@@@std@@8	; std::basic_ios<char,std::char_traits<char> >::`RTTI Class Hierarchy Descriptor'
PUBLIC	??_R2?$basic_ios@DU?$char_traits@D@std@@@std@@8	; std::basic_ios<char,std::char_traits<char> >::`RTTI Base Class Array'
PUBLIC	??_R1A@?0A@EA@?$basic_ios@DU?$char_traits@D@std@@@std@@8 ; std::basic_ios<char,std::char_traits<char> >::`RTTI Base Class Descriptor at (0,-1,0,64)'
PUBLIC	??_R1A@?0A@EA@ios_base@std@@8			; std::ios_base::`RTTI Base Class Descriptor at (0,-1,0,64)'
PUBLIC	??_R0?AVios_base@std@@@8			; std::ios_base `RTTI Type Descriptor'
PUBLIC	??_R3ios_base@std@@8				; std::ios_base::`RTTI Class Hierarchy Descriptor'
PUBLIC	??_R2ios_base@std@@8				; std::ios_base::`RTTI Base Class Array'
PUBLIC	??_R17?0A@EA@?$_Iosb@H@std@@8			; std::_Iosb<int>::`RTTI Base Class Descriptor at (8,-1,0,64)'
PUBLIC	??_R0?AV?$_Iosb@H@std@@@8			; std::_Iosb<int> `RTTI Type Descriptor'
PUBLIC	??_R3?$_Iosb@H@std@@8				; std::_Iosb<int>::`RTTI Class Hierarchy Descriptor'
PUBLIC	??_R2?$_Iosb@H@std@@8				; std::_Iosb<int>::`RTTI Base Class Array'
PUBLIC	??_R1A@?0A@EA@?$_Iosb@H@std@@8			; std::_Iosb<int>::`RTTI Base Class Descriptor at (0,-1,0,64)'
PUBLIC	??_R1A@A@3EA@ios_base@std@@8			; std::ios_base::`RTTI Base Class Descriptor at (0,0,4,64)'
PUBLIC	??_R17A@3EA@?$_Iosb@H@std@@8			; std::_Iosb<int>::`RTTI Base Class Descriptor at (8,0,4,64)'
PUBLIC	??_R1BA@?0A@EA@?$basic_ostream@DU?$char_traits@D@std@@@std@@8 ; std::basic_ostream<char,std::char_traits<char> >::`RTTI Base Class Descriptor at (16,-1,0,64)'
PUBLIC	??_R0?AV?$basic_ostream@DU?$char_traits@D@std@@@std@@@8 ; std::basic_ostream<char,std::char_traits<char> > `RTTI Type Descriptor'
PUBLIC	??_R3?$basic_ostream@DU?$char_traits@D@std@@@std@@8 ; std::basic_ostream<char,std::char_traits<char> >::`RTTI Class Hierarchy Descriptor'
PUBLIC	??_R2?$basic_ostream@DU?$char_traits@D@std@@@std@@8 ; std::basic_ostream<char,std::char_traits<char> >::`RTTI Base Class Array'
PUBLIC	??_R1A@?0A@EA@?$basic_ostream@DU?$char_traits@D@std@@@std@@8 ; std::basic_ostream<char,std::char_traits<char> >::`RTTI Base Class Descriptor at (0,-1,0,64)'
PUBLIC	??_R4bad_cast@std@@6B@				; std::bad_cast::`RTTI Complete Object Locator'
PUBLIC	??_R3bad_cast@std@@8				; std::bad_cast::`RTTI Class Hierarchy Descriptor'
PUBLIC	??_R2bad_cast@std@@8				; std::bad_cast::`RTTI Base Class Array'
PUBLIC	??_R1A@?0A@EA@bad_cast@std@@8			; std::bad_cast::`RTTI Base Class Descriptor at (0,-1,0,64)'
EXTRN	??2@YAPEAX_K@Z:PROC				; operator new
EXTRN	??3@YAXPEAX_K@Z:PROC				; operator delete
EXTRN	??_U@YAPEAX_K@Z:PROC				; operator new[]
EXTRN	__imp__invalid_parameter:PROC
EXTRN	memcpy:PROC
EXTRN	memmove:PROC
EXTRN	__imp_wcslen:PROC
EXTRN	__imp__calloc_dbg:PROC
EXTRN	__imp__CrtDbgReport:PROC
EXTRN	__imp_??0_Lockit@std@@QEAA@H@Z:PROC
EXTRN	__imp_??1_Lockit@std@@QEAA@XZ:PROC
EXTRN	__imp__get_stream_buffer_pointers:PROC
EXTRN	__imp_fclose:PROC
EXTRN	__imp_fflush:PROC
EXTRN	__imp_fgetc:PROC
EXTRN	__imp_fgetpos:PROC
EXTRN	__imp_fputc:PROC
EXTRN	__imp_fread:PROC
EXTRN	__imp_fsetpos:PROC
EXTRN	__imp__fseeki64:PROC
EXTRN	__imp_fwrite:PROC
EXTRN	__imp_setvbuf:PROC
EXTRN	__imp_ungetc:PROC
EXTRN	__imp__lock_file:PROC
EXTRN	__imp__unlock_file:PROC
EXTRN	__std_exception_copy:PROC
EXTRN	__std_exception_destroy:PROC
EXTRN	??_Eexception@std@@UEAAPEAXI@Z:PROC		; std::exception::`vector deleting destructor'
EXTRN	??_Ebad_alloc@std@@UEAAPEAXI@Z:PROC		; std::bad_alloc::`vector deleting destructor'
EXTRN	??_Ebad_array_new_length@std@@UEAAPEAXI@Z:PROC	; std::bad_array_new_length::`vector deleting destructor'
EXTRN	strlen:PROC
EXTRN	?_Xbad_alloc@std@@YAXXZ:PROC			; std::_Xbad_alloc
EXTRN	?_Xlength_error@std@@YAXPEBD@Z:PROC		; std::_Xlength_error
EXTRN	?_Xout_of_range@std@@YAXPEBD@Z:PROC		; std::_Xout_of_range
EXTRN	??_Ebad_cast@std@@UEAAPEAXI@Z:PROC		; std::bad_cast::`vector deleting destructor'
EXTRN	?_Facet_Register@std@@YAXPEAV_Facet_base@1@@Z:PROC ; std::_Facet_Register
EXTRN	_Mbrtowc:PROC
EXTRN	__imp_?_Getcvt@_Locinfo@std@@QEBA?AU_Cvtvec@@XZ:PROC
EXTRN	__imp_?_Getdays@_Locinfo@std@@QEBAPEBDXZ:PROC
EXTRN	__imp_?_Getmonths@_Locinfo@std@@QEBAPEBDXZ:PROC
EXTRN	__imp_?_W_Getdays@_Locinfo@std@@QEBAPEBGXZ:PROC
EXTRN	__imp_?_W_Getmonths@_Locinfo@std@@QEBAPEBGXZ:PROC
EXTRN	__imp_??Bid@locale@std@@QEAA_KXZ:PROC
EXTRN	?_Getgloballocale@locale@std@@CAPEAV_Locimp@12@XZ:PROC ; std::locale::_Getgloballocale
EXTRN	__imp_?always_noconv@codecvt_base@std@@QEBA_NXZ:PROC
EXTRN	__imp_?in@?$codecvt@DDU_Mbstatet@@@std@@QEBAHAEAU_Mbstatet@@PEBD1AEAPEBDPEAD3AEAPEAD@Z:PROC
EXTRN	__imp_?out@?$codecvt@DDU_Mbstatet@@@std@@QEBAHAEAU_Mbstatet@@PEBD1AEAPEBDPEAD3AEAPEAD@Z:PROC
EXTRN	__imp_?unshift@?$codecvt@DDU_Mbstatet@@@std@@QEBAHAEAU_Mbstatet@@PEAD1AEAPEAD@Z:PROC
EXTRN	__imp_?_Getcat@?$codecvt@DDU_Mbstatet@@@std@@SA_KPEAPEBVfacet@locale@2@PEBV42@@Z:PROC
EXTRN	__imp_?eof@ios_base@std@@QEBA_NXZ:PROC
EXTRN	__imp_?fail@ios_base@std@@QEBA_NXZ:PROC
EXTRN	__imp_??0?$basic_streambuf@DU?$char_traits@D@std@@@std@@IEAA@XZ:PROC
EXTRN	__imp_??1?$basic_streambuf@DU?$char_traits@D@std@@@std@@UEAA@XZ:PROC
EXTRN	__imp_?getloc@?$basic_streambuf@DU?$char_traits@D@std@@@std@@QEBA?AVlocale@2@XZ:PROC
EXTRN	__imp_?eback@?$basic_streambuf@DU?$char_traits@D@std@@@std@@IEBAPEADXZ:PROC
EXTRN	__imp_?gptr@?$basic_streambuf@DU?$char_traits@D@std@@@std@@IEBAPEADXZ:PROC
EXTRN	__imp_?pptr@?$basic_streambuf@DU?$char_traits@D@std@@@std@@IEBAPEADXZ:PROC
EXTRN	__imp_?egptr@?$basic_streambuf@DU?$char_traits@D@std@@@std@@IEBAPEADXZ:PROC
EXTRN	__imp_?gbump@?$basic_streambuf@DU?$char_traits@D@std@@@std@@IEAAXH@Z:PROC
EXTRN	__imp_?setg@?$basic_streambuf@DU?$char_traits@D@std@@@std@@IEAAXPEAD00@Z:PROC
EXTRN	__imp_?epptr@?$basic_streambuf@DU?$char_traits@D@std@@@std@@IEBAPEADXZ:PROC
EXTRN	__imp_?_Gndec@?$basic_streambuf@DU?$char_traits@D@std@@@std@@IEAAPEADXZ:PROC
EXTRN	__imp_?_Gninc@?$basic_streambuf@DU?$char_traits@D@std@@@std@@IEAAPEADXZ:PROC
EXTRN	__imp_?_Gnavail@?$basic_streambuf@DU?$char_traits@D@std@@@std@@IEBA_JXZ:PROC
EXTRN	__imp_?pbump@?$basic_streambuf@DU?$char_traits@D@std@@@std@@IEAAXH@Z:PROC
EXTRN	__imp_?_Pninc@?$basic_streambuf@DU?$char_traits@D@std@@@std@@IEAAPEADXZ:PROC
EXTRN	__imp_?_Pnavail@?$basic_streambuf@DU?$char_traits@D@std@@@std@@IEBA_JXZ:PROC
EXTRN	__imp_?_Init@?$basic_streambuf@DU?$char_traits@D@std@@@std@@IEAAXXZ:PROC
EXTRN	__imp_?_Init@?$basic_streambuf@DU?$char_traits@D@std@@@std@@IEAAXPEAPEAD0PEAH001@Z:PROC
EXTRN	__imp_?xsgetn@?$basic_streambuf@DU?$char_traits@D@std@@@std@@MEAA_JPEAD_J@Z:PROC
EXTRN	__imp_?xsputn@?$basic_streambuf@DU?$char_traits@D@std@@@std@@MEAA_JPEBD_J@Z:PROC
EXTRN	__imp_??1?$basic_ios@DU?$char_traits@D@std@@@std@@UEAA@XZ:PROC
EXTRN	__imp_?setstate@?$basic_ios@DU?$char_traits@D@std@@@std@@QEAAXH_N@Z:PROC
EXTRN	__imp_??0?$basic_ios@DU?$char_traits@D@std@@@std@@IEAA@XZ:PROC
EXTRN	__imp_?get@?$basic_istream@DU?$char_traits@D@std@@@std@@QEAAHXZ:PROC
EXTRN	__imp_??0?$basic_iostream@DU?$char_traits@D@std@@@std@@QEAA@PEAV?$basic_streambuf@DU?$char_traits@D@std@@@1@@Z:PROC
EXTRN	__imp_??1?$basic_iostream@DU?$char_traits@D@std@@@std@@UEAA@XZ:PROC
EXTRN	?_Fiopen@std@@YAPEAU_iobuf@@PEB_WHH@Z:PROC	; std::_Fiopen
EXTRN	?geterror@Error@@YA?AUERROR@1@H@Z:PROC		; Error::geterror
EXTRN	?geterrorin@Error@@YA?AUERROR@1@HHH@Z:PROC	; Error::geterrorin
EXTRN	??_E?$basic_filebuf@DU?$char_traits@D@std@@@std@@UEAAPEAXI@Z:PROC ; std::basic_filebuf<char,std::char_traits<char> >::`vector deleting destructor'
EXTRN	??_E?$basic_fstream@DU?$char_traits@D@std@@@std@@UEAAPEAXI@Z:PROC ; std::basic_fstream<char,std::char_traits<char> >::`vector deleting destructor'
EXTRN	?showmanyc@?$basic_streambuf@DU?$char_traits@D@std@@@std@@MEAA_JXZ:PROC ; std::basic_streambuf<char,std::char_traits<char> >::showmanyc
EXTRN	_CxxThrowException:PROC
EXTRN	_RTC_CheckStackVars:PROC
EXTRN	_RTC_InitBase:PROC
EXTRN	_RTC_Shutdown:PROC
EXTRN	__CheckForDebuggerJustMyCode:PROC
EXTRN	__CxxFrameHandler4:PROC
EXTRN	__GSHandlerCheck:PROC
EXTRN	__GSHandlerCheck_EH4:PROC
EXTRN	__chkstk:PROC
EXTRN	__security_check_cookie:PROC
EXTRN	??_7type_info@@6B@:BYTE				; type_info::`vftable'
EXTRN	__imp_?id@?$codecvt@DDU_Mbstatet@@@std@@2V0locale@2@A:QWORD
EXTRN	__ImageBase:BYTE
EXTRN	__security_cookie:QWORD
;	COMDAT ?_Stinit@?1??_Init@?$basic_filebuf@DU?$char_traits@D@std@@@std@@IEAAXPEAU_iobuf@@W4_Initfl@23@@Z@4U_Mbstatet@@A
_BSS	SEGMENT
?_Stinit@?1??_Init@?$basic_filebuf@DU?$char_traits@D@std@@@std@@IEAAXPEAU_iobuf@@W4_Initfl@23@@Z@4U_Mbstatet@@A DQ 01H DUP (?) ; `std::basic_filebuf<char,std::char_traits<char> >::_Init'::`2'::_Stinit
_BSS	ENDS
;	COMDAT ?_Psave@?$_Facetptr@V?$codecvt@DDU_Mbstatet@@@std@@@std@@2PEBVfacet@locale@2@EB
_BSS	SEGMENT
?_Psave@?$_Facetptr@V?$codecvt@DDU_Mbstatet@@@std@@@std@@2PEBVfacet@locale@2@EB DQ 01H DUP (?) ; std::_Facetptr<std::codecvt<char,char,_Mbstatet> >::_Psave
_BSS	ENDS
;	COMDAT pdata
pdata	SEGMENT
$pdata$?__empty_global_delete@@YAXPEAX@Z DD imagerel $LN4
	DD	imagerel $LN4+64
	DD	imagerel $unwind$?__empty_global_delete@@YAXPEAX@Z
pdata	ENDS
;	COMDAT pdata
pdata	SEGMENT
$pdata$?__empty_global_delete@@YAXPEAX_K@Z DD imagerel $LN4
	DD	imagerel $LN4+69
	DD	imagerel $unwind$?__empty_global_delete@@YAXPEAX_K@Z
pdata	ENDS
;	COMDAT pdata
pdata	SEGMENT
$pdata$wmemcpy DD imagerel $LN4
	DD	imagerel $LN4+106
	DD	imagerel $unwind$wmemcpy
pdata	ENDS
;	COMDAT pdata
pdata	SEGMENT
$pdata$??2@YAPEAX_KPEAX@Z DD imagerel $LN4
	DD	imagerel $LN4+76
	DD	imagerel $unwind$??2@YAPEAX_KPEAX@Z
pdata	ENDS
;	COMDAT pdata
pdata	SEGMENT
$pdata$?max@?$numeric_limits@_J@std@@SA_JXZ DD imagerel $LN3
	DD	imagerel $LN3+62
	DD	imagerel $unwind$?max@?$numeric_limits@_J@std@@SA_JXZ
pdata	ENDS
;	COMDAT pdata
pdata	SEGMENT
$pdata$??0exception@std@@QEAA@QEBDH@Z DD imagerel $LN3
	DD	imagerel $LN3+139
	DD	imagerel $unwind$??0exception@std@@QEAA@QEBDH@Z
pdata	ENDS
;	COMDAT pdata
pdata	SEGMENT
$pdata$??0exception@std@@QEAA@AEBV01@@Z DD imagerel $LN3
	DD	imagerel $LN3+146
	DD	imagerel $unwind$??0exception@std@@QEAA@AEBV01@@Z
pdata	ENDS
;	COMDAT pdata
pdata	SEGMENT
$pdata$??1exception@std@@UEAA@XZ DD imagerel $LN3
	DD	imagerel $LN3+101
	DD	imagerel $unwind$??1exception@std@@UEAA@XZ
pdata	ENDS
;	COMDAT pdata
pdata	SEGMENT
$pdata$?what@exception@std@@UEBAPEBDXZ DD imagerel $LN5
	DD	imagerel $LN5+119
	DD	imagerel $unwind$?what@exception@std@@UEBAPEBDXZ
pdata	ENDS
;	COMDAT pdata
pdata	SEGMENT
$pdata$??_Gexception@std@@UEAAPEAXI@Z DD imagerel $LN4
	DD	imagerel $LN4+105
	DD	imagerel $unwind$??_Gexception@std@@UEAAPEAXI@Z
pdata	ENDS
;	COMDAT pdata
pdata	SEGMENT
$pdata$??0bad_alloc@std@@AEAA@QEBD@Z DD imagerel $LN3
	DD	imagerel $LN3+118
	DD	imagerel $unwind$??0bad_alloc@std@@AEAA@QEBD@Z
pdata	ENDS
;	COMDAT pdata
pdata	SEGMENT
$pdata$??1bad_alloc@std@@UEAA@XZ DD imagerel $LN3
	DD	imagerel $LN3+64
	DD	imagerel $unwind$??1bad_alloc@std@@UEAA@XZ
pdata	ENDS
;	COMDAT pdata
pdata	SEGMENT
$pdata$??0bad_alloc@std@@QEAA@AEBV01@@Z DD imagerel $LN3
	DD	imagerel $LN3+100
	DD	imagerel $unwind$??0bad_alloc@std@@QEAA@AEBV01@@Z
pdata	ENDS
;	COMDAT pdata
pdata	SEGMENT
$pdata$??_Gbad_alloc@std@@UEAAPEAXI@Z DD imagerel $LN4
	DD	imagerel $LN4+105
	DD	imagerel $unwind$??_Gbad_alloc@std@@UEAAPEAXI@Z
pdata	ENDS
;	COMDAT pdata
pdata	SEGMENT
$pdata$??0bad_array_new_length@std@@QEAA@XZ DD imagerel $LN3
	DD	imagerel $LN3+107
	DD	imagerel $unwind$??0bad_array_new_length@std@@QEAA@XZ
pdata	ENDS
;	COMDAT pdata
pdata	SEGMENT
$pdata$??1bad_array_new_length@std@@UEAA@XZ DD imagerel $LN3
	DD	imagerel $LN3+64
	DD	imagerel $unwind$??1bad_array_new_length@std@@UEAA@XZ
pdata	ENDS
;	COMDAT pdata
pdata	SEGMENT
$pdata$??0bad_array_new_length@std@@QEAA@AEBV01@@Z DD imagerel $LN3
	DD	imagerel $LN3+100
	DD	imagerel $unwind$??0bad_array_new_length@std@@QEAA@AEBV01@@Z
pdata	ENDS
;	COMDAT pdata
pdata	SEGMENT
$pdata$??_Gbad_array_new_length@std@@UEAAPEAXI@Z DD imagerel $LN4
	DD	imagerel $LN4+105
	DD	imagerel $unwind$??_Gbad_array_new_length@std@@UEAAPEAXI@Z
pdata	ENDS
;	COMDAT pdata
pdata	SEGMENT
$pdata$?_Throw_bad_array_new_length@std@@YAXXZ DD imagerel $LN3
	DD	imagerel $LN3+83
	DD	imagerel $unwind$?_Throw_bad_array_new_length@std@@YAXXZ
pdata	ENDS
;	COMDAT pdata
pdata	SEGMENT
$pdata$?_Allocate@_Default_allocate_traits@std@@SAPEAX_K@Z DD imagerel $LN3
	DD	imagerel $LN3+76
	DD	imagerel $unwind$?_Allocate@_Default_allocate_traits@std@@SAPEAX_K@Z
pdata	ENDS
;	COMDAT pdata
pdata	SEGMENT
$pdata$?_Adjust_manually_vector_aligned@std@@YAXAEAPEAXAEA_K@Z DD imagerel $LN21
	DD	imagerel $LN21+476
	DD	imagerel $unwind$?_Adjust_manually_vector_aligned@std@@YAXAEAPEAXAEA_K@Z
pdata	ENDS
;	COMDAT pdata
pdata	SEGMENT
$pdata$??0_Container_proxy@std@@QEAA@PEAU_Container_base12@1@@Z DD imagerel $LN3
	DD	imagerel $LN3+108
	DD	imagerel $unwind$??0_Container_proxy@std@@QEAA@PEAU_Container_base12@1@@Z
pdata	ENDS
;	COMDAT pdata
pdata	SEGMENT
$pdata$??0_Container_base12@std@@QEAA@XZ DD imagerel $LN3
	DD	imagerel $LN3+85
	DD	imagerel $unwind$??0_Container_base12@std@@QEAA@XZ
pdata	ENDS
;	COMDAT pdata
pdata	SEGMENT
$pdata$?_Orphan_all@_Container_base12@std@@QEAAXXZ DD imagerel $LN7
	DD	imagerel $LN7+233
	DD	imagerel $unwind$?_Orphan_all@_Container_base12@std@@QEAAXXZ
pdata	ENDS
;	COMDAT pdata
pdata	SEGMENT
$pdata$??$_Construct_in_place@U_Container_proxy@std@@PEAU_Container_base12@2@@std@@YAXAEAU_Container_proxy@0@$$QEAPEAU_Container_base12@0@@Z DD imagerel $LN3
	DD	imagerel $LN3+129
	DD	imagerel $unwind$??$_Construct_in_place@U_Container_proxy@std@@PEAU_Container_base12@2@@std@@YAXAEAU_Container_proxy@0@$$QEAPEAU_Container_base12@0@@Z
pdata	ENDS
;	COMDAT pdata
pdata	SEGMENT
$pdata$?copy@?$_Narrow_char_traits@DH@std@@SAPEADQEADQEBD_K@Z DD imagerel $LN3
	DD	imagerel $LN3+101
	DD	imagerel $unwind$?copy@?$_Narrow_char_traits@DH@std@@SAPEADQEADQEBD_K@Z
pdata	ENDS
;	COMDAT pdata
pdata	SEGMENT
$pdata$?move@?$_Narrow_char_traits@DH@std@@SAPEADQEADQEBD_K@Z DD imagerel $LN3
	DD	imagerel $LN3+101
	DD	imagerel $unwind$?move@?$_Narrow_char_traits@DH@std@@SAPEADQEADQEBD_K@Z
pdata	ENDS
;	COMDAT pdata
pdata	SEGMENT
$pdata$?assign@?$_Narrow_char_traits@DH@std@@SAXAEADAEBD@Z DD imagerel $LN3
	DD	imagerel $LN3+88
	DD	imagerel $unwind$?assign@?$_Narrow_char_traits@DH@std@@SAXAEADAEBD@Z
pdata	ENDS
;	COMDAT pdata
pdata	SEGMENT
$pdata$?to_char_type@?$_Narrow_char_traits@DH@std@@SADAEBH@Z DD imagerel $LN3
	DD	imagerel $LN3+74
	DD	imagerel $unwind$?to_char_type@?$_Narrow_char_traits@DH@std@@SADAEBH@Z
pdata	ENDS
;	COMDAT pdata
pdata	SEGMENT
$pdata$?to_int_type@?$_Narrow_char_traits@DH@std@@SAHAEBD@Z DD imagerel $LN3
	DD	imagerel $LN3+74
	DD	imagerel $unwind$?to_int_type@?$_Narrow_char_traits@DH@std@@SAHAEBD@Z
pdata	ENDS
;	COMDAT pdata
pdata	SEGMENT
$pdata$?eq_int_type@?$_Narrow_char_traits@DH@std@@SA_NAEBH0@Z DD imagerel $LN5
	DD	imagerel $LN5+118
	DD	imagerel $unwind$?eq_int_type@?$_Narrow_char_traits@DH@std@@SA_NAEBH0@Z
pdata	ENDS
;	COMDAT pdata
pdata	SEGMENT
$pdata$?not_eof@?$_Narrow_char_traits@DH@std@@SAHAEBH@Z DD imagerel $LN7
	DD	imagerel $LN7+146
	DD	imagerel $unwind$?not_eof@?$_Narrow_char_traits@DH@std@@SAHAEBH@Z
pdata	ENDS
;	COMDAT pdata
pdata	SEGMENT
$pdata$?eof@?$_Narrow_char_traits@DH@std@@SAHXZ DD imagerel $LN3
	DD	imagerel $LN3+57
	DD	imagerel $unwind$?eof@?$_Narrow_char_traits@DH@std@@SAHXZ
pdata	ENDS
;	COMDAT pdata
pdata	SEGMENT
$pdata$?_Xlen_string@std@@YAXXZ DD imagerel $LN3
	DD	imagerel $LN3+64
	DD	imagerel $unwind$?_Xlen_string@std@@YAXXZ
pdata	ENDS
;	COMDAT pdata
pdata	SEGMENT
$pdata$??0?$allocator@D@std@@QEAA@XZ DD imagerel $LN3
	DD	imagerel $LN3+71
	DD	imagerel $unwind$??0?$allocator@D@std@@QEAA@XZ
pdata	ENDS
;	COMDAT pdata
pdata	SEGMENT
$pdata$?deallocate@?$allocator@D@std@@QEAAXQEAD_K@Z DD imagerel $LN3
	DD	imagerel $LN3+93
	DD	imagerel $unwind$?deallocate@?$allocator@D@std@@QEAAXQEAD_K@Z
pdata	ENDS
;	COMDAT pdata
pdata	SEGMENT
$pdata$?allocate@?$allocator@D@std@@QEAAPEAD_K@Z DD imagerel $LN3
	DD	imagerel $LN3+89
	DD	imagerel $unwind$?allocate@?$allocator@D@std@@QEAAPEAD_K@Z
pdata	ENDS
;	COMDAT pdata
pdata	SEGMENT
$pdata$?max_size@?$_Default_allocator_traits@V?$allocator@D@std@@@std@@SA_KAEBV?$allocator@D@2@@Z DD imagerel $LN3
	DD	imagerel $LN3+71
	DD	imagerel $unwind$?max_size@?$_Default_allocator_traits@V?$allocator@D@std@@@std@@SA_KAEBV?$allocator@D@2@@Z
pdata	ENDS
;	COMDAT pdata
pdata	SEGMENT
$pdata$??0?$_String_val@U?$_Simple_types@D@std@@@std@@QEAA@XZ DD imagerel $LN4
	DD	imagerel $LN4+132
	DD	imagerel $unwind$??0?$_String_val@U?$_Simple_types@D@std@@@std@@QEAA@XZ
pdata	ENDS
;	COMDAT pdata
pdata	SEGMENT
$pdata$?_Myptr@?$_String_val@U?$_Simple_types@D@std@@@std@@QEAAPEADXZ DD imagerel $LN4
	DD	imagerel $LN4+122
	DD	imagerel $unwind$?_Myptr@?$_String_val@U?$_Simple_types@D@std@@@std@@QEAAPEADXZ
pdata	ENDS
;	COMDAT pdata
pdata	SEGMENT
$pdata$?_Myptr@?$_String_val@U?$_Simple_types@D@std@@@std@@QEBAPEBDXZ DD imagerel $LN4
	DD	imagerel $LN4+122
	DD	imagerel $unwind$?_Myptr@?$_String_val@U?$_Simple_types@D@std@@@std@@QEBAPEBDXZ
pdata	ENDS
;	COMDAT pdata
pdata	SEGMENT
$pdata$?_Large_string_engaged@?$_String_val@U?$_Simple_types@D@std@@@std@@QEBA_NXZ DD imagerel $LN5
	DD	imagerel $LN5+107
	DD	imagerel $unwind$?_Large_string_engaged@?$_String_val@U?$_Simple_types@D@std@@@std@@QEBA_NXZ
pdata	ENDS
;	COMDAT pdata
pdata	SEGMENT
$pdata$?_Check_offset@?$_String_val@U?$_Simple_types@D@std@@@std@@QEBAX_K@Z DD imagerel $LN4
	DD	imagerel $LN4+94
	DD	imagerel $unwind$?_Check_offset@?$_String_val@U?$_Simple_types@D@std@@@std@@QEBAX_K@Z
pdata	ENDS
;	COMDAT pdata
pdata	SEGMENT
$pdata$?_Xran@?$_String_val@U?$_Simple_types@D@std@@@std@@SAXXZ DD imagerel $LN3
	DD	imagerel $LN3+64
	DD	imagerel $unwind$?_Xran@?$_String_val@U?$_Simple_types@D@std@@@std@@SAXXZ
pdata	ENDS
;	COMDAT pdata
pdata	SEGMENT
$pdata$?_Clamp_suffix_size@?$_String_val@U?$_Simple_types@D@std@@@std@@QEBA_K_K0@Z DD imagerel $LN3
	DD	imagerel $LN3+124
	DD	imagerel $unwind$?_Clamp_suffix_size@?$_String_val@U?$_Simple_types@D@std@@@std@@QEBA_K_K0@Z
pdata	ENDS
;	COMDAT pdata
pdata	SEGMENT
$pdata$??0_Bxty@?$_String_val@U?$_Simple_types@D@std@@@std@@QEAA@XZ DD imagerel $LN3
	DD	imagerel $LN3+71
	DD	imagerel $unwind$??0_Bxty@?$_String_val@U?$_Simple_types@D@std@@@std@@QEAA@XZ
pdata	ENDS
;	COMDAT pdata
pdata	SEGMENT
$pdata$??1_Bxty@?$_String_val@U?$_Simple_types@D@std@@@std@@QEAA@XZ DD imagerel $LN3
	DD	imagerel $LN3+65
	DD	imagerel $unwind$??1_Bxty@?$_String_val@U?$_Simple_types@D@std@@@std@@QEAA@XZ
pdata	ENDS
;	COMDAT pdata
pdata	SEGMENT
$pdata$??1?$_String_val@U?$_Simple_types@D@std@@@std@@QEAA@XZ DD imagerel $LN3
	DD	imagerel $LN3+71
	DD	imagerel $unwind$??1?$_String_val@U?$_Simple_types@D@std@@@std@@QEAA@XZ
pdata	ENDS
;	COMDAT pdata
pdata	SEGMENT
$pdata$??0?$basic_string@DU?$char_traits@D@std@@V?$allocator@D@2@@std@@QEAA@XZ DD imagerel $LN3
	DD	imagerel $LN3+147
	DD	imagerel $unwind$??0?$basic_string@DU?$char_traits@D@std@@V?$allocator@D@2@@std@@QEAA@XZ
pdata	ENDS
;	COMDAT pdata
pdata	SEGMENT
$pdata$??1?$basic_string@DU?$char_traits@D@std@@V?$allocator@D@2@@std@@QEAA@XZ DD imagerel $LN3
	DD	imagerel $LN3+213
	DD	imagerel $unwind$??1?$basic_string@DU?$char_traits@D@std@@V?$allocator@D@2@@std@@QEAA@XZ
pdata	ENDS
;	COMDAT pdata
pdata	SEGMENT
$pdata$?erase@?$basic_string@DU?$char_traits@D@std@@V?$allocator@D@2@@std@@QEAAAEAV12@_K_K@Z DD imagerel $LN3
	DD	imagerel $LN3+282
	DD	imagerel $unwind$?erase@?$basic_string@DU?$char_traits@D@std@@V?$allocator@D@2@@std@@QEAAAEAV12@_K_K@Z
pdata	ENDS
;	COMDAT pdata
pdata	SEGMENT
$pdata$?push_back@?$basic_string@DU?$char_traits@D@std@@V?$allocator@D@2@@std@@QEAAXD@Z DD imagerel $LN4
	DD	imagerel $LN4+255
	DD	imagerel $unwind$?push_back@?$basic_string@DU?$char_traits@D@std@@V?$allocator@D@2@@std@@QEAAXD@Z
pdata	ENDS
;	COMDAT pdata
pdata	SEGMENT
$pdata$?front@?$basic_string@DU?$char_traits@D@std@@V?$allocator@D@2@@std@@QEAAAEADXZ DD imagerel $LN12
	DD	imagerel $LN12+224
	DD	imagerel $unwind$?front@?$basic_string@DU?$char_traits@D@std@@V?$allocator@D@2@@std@@QEAAAEADXZ
pdata	ENDS
;	COMDAT pdata
pdata	SEGMENT
$pdata$?data@?$basic_string@DU?$char_traits@D@std@@V?$allocator@D@2@@std@@QEBAPEBDXZ DD imagerel $LN3
	DD	imagerel $LN3+80
	DD	imagerel $unwind$?data@?$basic_string@DU?$char_traits@D@std@@V?$allocator@D@2@@std@@QEBAPEBDXZ
pdata	ENDS
;	COMDAT pdata
pdata	SEGMENT
$pdata$?size@?$basic_string@DU?$char_traits@D@std@@V?$allocator@D@2@@std@@QEBA_KXZ DD imagerel $LN3
	DD	imagerel $LN3+75
	DD	imagerel $unwind$?size@?$basic_string@DU?$char_traits@D@std@@V?$allocator@D@2@@std@@QEBA_KXZ
pdata	ENDS
;	COMDAT pdata
pdata	SEGMENT
$pdata$?max_size@?$basic_string@DU?$char_traits@D@std@@V?$allocator@D@2@@std@@QEBA_KXZ DD imagerel $LN3
	DD	imagerel $LN3+224
	DD	imagerel $unwind$?max_size@?$basic_string@DU?$char_traits@D@std@@V?$allocator@D@2@@std@@QEBA_KXZ
pdata	ENDS
;	COMDAT pdata
pdata	SEGMENT
$pdata$?_Calculate_growth@?$basic_string@DU?$char_traits@D@std@@V?$allocator@D@2@@std@@CA_K_K00@Z DD imagerel $LN5
	DD	imagerel $LN5+269
	DD	imagerel $unwind$?_Calculate_growth@?$basic_string@DU?$char_traits@D@std@@V?$allocator@D@2@@std@@CA_K_K00@Z
pdata	ENDS
;	COMDAT pdata
pdata	SEGMENT
$pdata$?_Calculate_growth@?$basic_string@DU?$char_traits@D@std@@V?$allocator@D@2@@std@@AEBA_K_K@Z DD imagerel $LN3
	DD	imagerel $LN3+108
	DD	imagerel $unwind$?_Calculate_growth@?$basic_string@DU?$char_traits@D@std@@V?$allocator@D@2@@std@@AEBA_K_K@Z
pdata	ENDS
;	COMDAT pdata
pdata	SEGMENT
$pdata$?_Tidy_init@?$basic_string@DU?$char_traits@D@std@@V?$allocator@D@2@@std@@AEAAXXZ DD imagerel $LN3
	DD	imagerel $LN3+138
	DD	imagerel $unwind$?_Tidy_init@?$basic_string@DU?$char_traits@D@std@@V?$allocator@D@2@@std@@AEAAXXZ
pdata	ENDS
;	COMDAT pdata
pdata	SEGMENT
$pdata$?_Tidy_deallocate@?$basic_string@DU?$char_traits@D@std@@V?$allocator@D@2@@std@@AEAAXXZ DD imagerel $LN4
	DD	imagerel $LN4+255
	DD	imagerel $unwind$?_Tidy_deallocate@?$basic_string@DU?$char_traits@D@std@@V?$allocator@D@2@@std@@AEAAXXZ
pdata	ENDS
;	COMDAT pdata
pdata	SEGMENT
$pdata$?_Getal@?$basic_string@DU?$char_traits@D@std@@V?$allocator@D@2@@std@@AEAAAEAV?$allocator@D@2@XZ DD imagerel $LN3
	DD	imagerel $LN3+80
	DD	imagerel $unwind$?_Getal@?$basic_string@DU?$char_traits@D@std@@V?$allocator@D@2@@std@@AEAAAEAV?$allocator@D@2@XZ
pdata	ENDS
;	COMDAT pdata
pdata	SEGMENT
$pdata$?_Getal@?$basic_string@DU?$char_traits@D@std@@V?$allocator@D@2@@std@@AEBAAEBV?$allocator@D@2@XZ DD imagerel $LN3
	DD	imagerel $LN3+80
	DD	imagerel $unwind$?_Getal@?$basic_string@DU?$char_traits@D@std@@V?$allocator@D@2@@std@@AEBAAEBV?$allocator@D@2@XZ
pdata	ENDS
;	COMDAT pdata
pdata	SEGMENT
$pdata$?_Get_first@?$_Compressed_pair@V?$allocator@D@std@@V?$_String_val@U?$_Simple_types@D@std@@@2@$00@std@@QEAAAEAV?$allocator@D@2@XZ DD imagerel $LN3
	DD	imagerel $LN3+71
	DD	imagerel $unwind$?_Get_first@?$_Compressed_pair@V?$allocator@D@std@@V?$_String_val@U?$_Simple_types@D@std@@@2@$00@std@@QEAAAEAV?$allocator@D@2@XZ
pdata	ENDS
;	COMDAT pdata
pdata	SEGMENT
$pdata$?_Get_first@?$_Compressed_pair@V?$allocator@D@std@@V?$_String_val@U?$_Simple_types@D@std@@@2@$00@std@@QEBAAEBV?$allocator@D@2@XZ DD imagerel $LN3
	DD	imagerel $LN3+71
	DD	imagerel $unwind$?_Get_first@?$_Compressed_pair@V?$allocator@D@std@@V?$_String_val@U?$_Simple_types@D@std@@@2@$00@std@@QEBAAEBV?$allocator@D@2@XZ
pdata	ENDS
;	COMDAT pdata
pdata	SEGMENT
$pdata$??1?$_Compressed_pair@V?$allocator@D@std@@V?$_String_val@U?$_Simple_types@D@std@@@2@$00@std@@QEAA@XZ DD imagerel $LN3
	DD	imagerel $LN3+67
	DD	imagerel $unwind$??1?$_Compressed_pair@V?$allocator@D@std@@V?$_String_val@U?$_Simple_types@D@std@@@2@$00@std@@QEAA@XZ
pdata	ENDS
;	COMDAT pdata
pdata	SEGMENT
$pdata$??0bad_cast@std@@QEAA@XZ DD imagerel $LN3
	DD	imagerel $LN3+113
	DD	imagerel $unwind$??0bad_cast@std@@QEAA@XZ
pdata	ENDS
;	COMDAT pdata
pdata	SEGMENT
$pdata$??1bad_cast@std@@UEAA@XZ DD imagerel $LN3
	DD	imagerel $LN3+64
	DD	imagerel $unwind$??1bad_cast@std@@UEAA@XZ
pdata	ENDS
;	COMDAT pdata
pdata	SEGMENT
$pdata$??0bad_cast@std@@QEAA@AEBV01@@Z DD imagerel $LN3
	DD	imagerel $LN3+100
	DD	imagerel $unwind$??0bad_cast@std@@QEAA@AEBV01@@Z
pdata	ENDS
;	COMDAT pdata
pdata	SEGMENT
$pdata$??_Gbad_cast@std@@UEAAPEAXI@Z DD imagerel $LN4
	DD	imagerel $LN4+105
	DD	imagerel $unwind$??_Gbad_cast@std@@UEAAPEAXI@Z
pdata	ENDS
;	COMDAT pdata
pdata	SEGMENT
$pdata$?_Throw_bad_cast@std@@YAXXZ DD imagerel $LN3
	DD	imagerel $LN3+83
	DD	imagerel $unwind$?_Throw_bad_cast@std@@YAXXZ
pdata	ENDS
;	COMDAT pdata
pdata	SEGMENT
$pdata$??1locale@std@@QEAA@XZ DD imagerel $LN6
	DD	imagerel $LN6+167
	DD	imagerel $unwind$??1locale@std@@QEAA@XZ
pdata	ENDS
;	COMDAT pdata
pdata	SEGMENT
$pdata$?_Getfacet@locale@std@@QEBAPEBVfacet@12@_K@Z DD imagerel $LN8
	DD	imagerel $LN8+231
	DD	imagerel $unwind$?_Getfacet@locale@std@@QEBAPEBVfacet@12@_K@Z
pdata	ENDS
;	COMDAT pdata
pdata	SEGMENT
$pdata$??$_Maklocstr@_W@std@@YAPEA_WPEBDPEA_WAEBU_Cvtvec@@@Z DD imagerel $LN12
	DD	imagerel $LN12+584
	DD	imagerel $unwind$??$_Maklocstr@_W@std@@YAPEA_WPEBDPEA_WAEBU_Cvtvec@@@Z
pdata	ENDS
;	COMDAT pdata
pdata	SEGMENT
$pdata$??0?$fpos@U_Mbstatet@@@std@@QEAA@_J@Z DD imagerel $LN3
	DD	imagerel $LN3+131
	DD	imagerel $unwind$??0?$fpos@U_Mbstatet@@@std@@QEAA@_J@Z
pdata	ENDS
;	COMDAT pdata
pdata	SEGMENT
$pdata$??0?$fpos@U_Mbstatet@@@std@@QEAA@U_Mbstatet@@_J@Z DD imagerel $LN3
	DD	imagerel $LN3+131
	DD	imagerel $unwind$??0?$fpos@U_Mbstatet@@@std@@QEAA@U_Mbstatet@@_J@Z
pdata	ENDS
;	COMDAT pdata
pdata	SEGMENT
$pdata$?state@?$fpos@U_Mbstatet@@@std@@QEBA?AU_Mbstatet@@XZ DD imagerel $LN3
	DD	imagerel $LN3+97
	DD	imagerel $unwind$?state@?$fpos@U_Mbstatet@@@std@@QEBA?AU_Mbstatet@@XZ
pdata	ENDS
;	COMDAT pdata
pdata	SEGMENT
$pdata$??B?$fpos@U_Mbstatet@@@std@@QEBA_JXZ DD imagerel $LN3
	DD	imagerel $LN3+85
	DD	imagerel $unwind$??B?$fpos@U_Mbstatet@@@std@@QEBA_JXZ
pdata	ENDS
;	COMDAT pdata
pdata	SEGMENT
$pdata$?_Maklocwcs@std@@YAPEA_WPEB_W@Z DD imagerel $LN4
	DD	imagerel $LN4+165
	DD	imagerel $unwind$?_Maklocwcs@std@@YAPEA_WPEB_W@Z
pdata	ENDS
;	COMDAT pdata
pdata	SEGMENT
$pdata$??$_Maklocstr@D@std@@YAPEADPEBDPEADAEBU_Cvtvec@@@Z DD imagerel $LN7
	DD	imagerel $LN7+223
	DD	imagerel $unwind$??$_Maklocstr@D@std@@YAPEADPEBDPEADAEBU_Cvtvec@@@Z
pdata	ENDS
;	COMDAT pdata
pdata	SEGMENT
$pdata$??$_Getvals@_W@?$time_get@DV?$istreambuf_iterator@DU?$char_traits@D@std@@@std@@@std@@IEAAX_WAEBV_Locinfo@1@@Z DD imagerel $LN5
	DD	imagerel $LN5+379
	DD	imagerel $unwind$??$_Getvals@_W@?$time_get@DV?$istreambuf_iterator@DU?$char_traits@D@std@@@std@@@std@@IEAAX_WAEBV_Locinfo@1@@Z
pdata	ENDS
;	COMDAT pdata
pdata	SEGMENT
$pdata$??$_Getvals@_W@?$time_get@_WV?$istreambuf_iterator@_WU?$char_traits@_W@std@@@std@@@std@@IEAAX_WAEBV_Locinfo@1@@Z DD imagerel $LN5
	DD	imagerel $LN5+379
	DD	imagerel $unwind$??$_Getvals@_W@?$time_get@_WV?$istreambuf_iterator@_WU?$char_traits@_W@std@@@std@@@std@@IEAAX_WAEBV_Locinfo@1@@Z
pdata	ENDS
;	COMDAT pdata
pdata	SEGMENT
$pdata$??$_Fgetc@D@std@@YA_NAEADPEAU_iobuf@@@Z DD imagerel $LN5
	DD	imagerel $LN5+112
	DD	imagerel $unwind$??$_Fgetc@D@std@@YA_NAEADPEAU_iobuf@@@Z
pdata	ENDS
;	COMDAT pdata
pdata	SEGMENT
$pdata$??$_Fputc@D@std@@YA_NDPEAU_iobuf@@@Z DD imagerel $LN5
	DD	imagerel $LN5+124
	DD	imagerel $unwind$??$_Fputc@D@std@@YA_NDPEAU_iobuf@@@Z
pdata	ENDS
;	COMDAT pdata
pdata	SEGMENT
$pdata$??$_Ungetc@D@std@@YA_NAEBDPEAU_iobuf@@@Z DD imagerel $LN5
	DD	imagerel $LN5+128
	DD	imagerel $unwind$??$_Ungetc@D@std@@YA_NAEBDPEAU_iobuf@@@Z
pdata	ENDS
;	COMDAT pdata
pdata	SEGMENT
$pdata$??0IN@In@@QEAA@XZ DD imagerel $LN4
	DD	imagerel $LN4+4548
	DD	imagerel $unwind$??0IN@In@@QEAA@XZ
pdata	ENDS
;	COMDAT pdata
pdata	SEGMENT
$pdata$?getin@In@@YA?AUIN@1@QEA_W@Z DD imagerel $LN59
	DD	imagerel $LN59+1708
	DD	imagerel $unwind$?getin@In@@YA?AUIN@1@QEA_W@Z
pdata	ENDS
;	COMDAT pdata
pdata	SEGMENT
$pdata$?dtor$0@?0??getin@In@@YA?AUIN@1@QEA_W@Z@4HA DD imagerel ?dtor$0@?0??getin@In@@YA?AUIN@1@QEA_W@Z@4HA
	DD	imagerel ?dtor$0@?0??getin@In@@YA?AUIN@1@QEA_W@Z@4HA+39
	DD	imagerel $unwind$?dtor$0@?0??getin@In@@YA?AUIN@1@QEA_W@Z@4HA
pdata	ENDS
;	COMDAT pdata
pdata	SEGMENT
$pdata$??0?$basic_fstream@DU?$char_traits@D@std@@@std@@QEAA@PEB_WHH@Z DD imagerel $LN9
	DD	imagerel $LN9+404
	DD	imagerel $unwind$??0?$basic_fstream@DU?$char_traits@D@std@@@std@@QEAA@PEB_WHH@Z
pdata	ENDS
;	COMDAT pdata
pdata	SEGMENT
$pdata$?dtor$0@?0???0?$basic_fstream@DU?$char_traits@D@std@@@std@@QEAA@PEB_WHH@Z@4HA DD imagerel ?dtor$0@?0???0?$basic_fstream@DU?$char_traits@D@std@@@std@@QEAA@PEB_WHH@Z@4HA
	DD	imagerel ?dtor$0@?0???0?$basic_fstream@DU?$char_traits@D@std@@@std@@QEAA@PEB_WHH@Z@4HA+67
	DD	imagerel $unwind$?dtor$0@?0???0?$basic_fstream@DU?$char_traits@D@std@@@std@@QEAA@PEB_WHH@Z@4HA
pdata	ENDS
;	COMDAT pdata
pdata	SEGMENT
$pdata$?dtor$1@?0???0?$basic_fstream@DU?$char_traits@D@std@@@std@@QEAA@PEB_WHH@Z@4HA DD imagerel ?dtor$1@?0???0?$basic_fstream@DU?$char_traits@D@std@@@std@@QEAA@PEB_WHH@Z@4HA
	DD	imagerel ?dtor$1@?0???0?$basic_fstream@DU?$char_traits@D@std@@@std@@QEAA@PEB_WHH@Z@4HA+44
	DD	imagerel $unwind$?dtor$1@?0???0?$basic_fstream@DU?$char_traits@D@std@@@std@@QEAA@PEB_WHH@Z@4HA
pdata	ENDS
;	COMDAT pdata
pdata	SEGMENT
$pdata$?dtor$2@?0???0?$basic_fstream@DU?$char_traits@D@std@@@std@@QEAA@PEB_WHH@Z@4HA DD imagerel ?dtor$2@?0???0?$basic_fstream@DU?$char_traits@D@std@@@std@@QEAA@PEB_WHH@Z@4HA
	DD	imagerel ?dtor$2@?0???0?$basic_fstream@DU?$char_traits@D@std@@@std@@QEAA@PEB_WHH@Z@4HA+43
	DD	imagerel $unwind$?dtor$2@?0???0?$basic_fstream@DU?$char_traits@D@std@@@std@@QEAA@PEB_WHH@Z@4HA
pdata	ENDS
;	COMDAT pdata
pdata	SEGMENT
$pdata$??1?$basic_fstream@DU?$char_traits@D@std@@@std@@UEAA@XZ DD imagerel $LN3
	DD	imagerel $LN3+204
	DD	imagerel $unwind$??1?$basic_fstream@DU?$char_traits@D@std@@@std@@UEAA@XZ
pdata	ENDS
;	COMDAT pdata
pdata	SEGMENT
$pdata$?close@?$basic_fstream@DU?$char_traits@D@std@@@std@@QEAAXXZ DD imagerel $LN4
	DD	imagerel $LN4+132
	DD	imagerel $unwind$?close@?$basic_fstream@DU?$char_traits@D@std@@@std@@QEAAXXZ
pdata	ENDS
;	COMDAT pdata
pdata	SEGMENT
$pdata$??0?$basic_filebuf@DU?$char_traits@D@std@@@std@@QEAA@XZ DD imagerel $LN4
	DD	imagerel $LN4+120
	DD	imagerel $unwind$??0?$basic_filebuf@DU?$char_traits@D@std@@@std@@QEAA@XZ
pdata	ENDS
;	COMDAT pdata
pdata	SEGMENT
$pdata$?dtor$0@?0???0?$basic_filebuf@DU?$char_traits@D@std@@@std@@QEAA@XZ@4HA DD imagerel ?dtor$0@?0???0?$basic_filebuf@DU?$char_traits@D@std@@@std@@QEAA@XZ@4HA
	DD	imagerel ?dtor$0@?0???0?$basic_filebuf@DU?$char_traits@D@std@@@std@@QEAA@XZ@4HA+40
	DD	imagerel $unwind$?dtor$0@?0???0?$basic_filebuf@DU?$char_traits@D@std@@@std@@QEAA@XZ@4HA
pdata	ENDS
;	COMDAT pdata
pdata	SEGMENT
$pdata$??1?$basic_filebuf@DU?$char_traits@D@std@@@std@@UEAA@XZ DD imagerel $LN5
	DD	imagerel $LN5+151
	DD	imagerel $unwind$??1?$basic_filebuf@DU?$char_traits@D@std@@@std@@UEAA@XZ
pdata	ENDS
;	COMDAT pdata
pdata	SEGMENT
$pdata$?open@?$basic_filebuf@DU?$char_traits@D@std@@@std@@QEAAPEAV12@PEB_WHH@Z DD imagerel $LN6
	DD	imagerel $LN6+253
	DD	imagerel $unwind$?open@?$basic_filebuf@DU?$char_traits@D@std@@@std@@QEAAPEAV12@PEB_WHH@Z
pdata	ENDS
;	COMDAT pdata
pdata	SEGMENT
$pdata$?dtor$0@?0??open@?$basic_filebuf@DU?$char_traits@D@std@@@std@@QEAAPEAV12@PEB_WHH@Z@4HA DD imagerel ?dtor$0@?0??open@?$basic_filebuf@DU?$char_traits@D@std@@@std@@QEAAPEAV12@PEB_WHH@Z@4HA
	DD	imagerel ?dtor$0@?0??open@?$basic_filebuf@DU?$char_traits@D@std@@@std@@QEAAPEAV12@PEB_WHH@Z@4HA+39
	DD	imagerel $unwind$?dtor$0@?0??open@?$basic_filebuf@DU?$char_traits@D@std@@@std@@QEAAPEAV12@PEB_WHH@Z@4HA
pdata	ENDS
;	COMDAT pdata
pdata	SEGMENT
$pdata$?close@?$basic_filebuf@DU?$char_traits@D@std@@@std@@QEAAPEAV12@XZ DD imagerel $LN7
	DD	imagerel $LN7+185
	DD	imagerel $unwind$?close@?$basic_filebuf@DU?$char_traits@D@std@@@std@@QEAAPEAV12@XZ
pdata	ENDS
;	COMDAT pdata
pdata	SEGMENT
$pdata$?_Lock@?$basic_filebuf@DU?$char_traits@D@std@@@std@@UEAAXXZ DD imagerel $LN4
	DD	imagerel $LN4+101
	DD	imagerel $unwind$?_Lock@?$basic_filebuf@DU?$char_traits@D@std@@@std@@UEAAXXZ
pdata	ENDS
;	COMDAT pdata
pdata	SEGMENT
$pdata$?_Unlock@?$basic_filebuf@DU?$char_traits@D@std@@@std@@UEAAXXZ DD imagerel $LN4
	DD	imagerel $LN4+101
	DD	imagerel $unwind$?_Unlock@?$basic_filebuf@DU?$char_traits@D@std@@@std@@UEAAXXZ
pdata	ENDS
;	COMDAT pdata
pdata	SEGMENT
$pdata$?overflow@?$basic_filebuf@DU?$char_traits@D@std@@@std@@MEAAHH@Z DD imagerel $LN18
	DD	imagerel $LN18+763
	DD	imagerel $unwind$?overflow@?$basic_filebuf@DU?$char_traits@D@std@@@std@@MEAAHH@Z
pdata	ENDS
;	COMDAT pdata
pdata	SEGMENT
$pdata$?pbackfail@?$basic_filebuf@DU?$char_traits@D@std@@@std@@MEAAHH@Z DD imagerel $LN13
	DD	imagerel $LN13+498
	DD	imagerel $unwind$?pbackfail@?$basic_filebuf@DU?$char_traits@D@std@@@std@@MEAAHH@Z
pdata	ENDS
;	COMDAT pdata
pdata	SEGMENT
$pdata$?underflow@?$basic_filebuf@DU?$char_traits@D@std@@@std@@MEAAHXZ DD imagerel $LN7
	DD	imagerel $LN7+296
	DD	imagerel $unwind$?underflow@?$basic_filebuf@DU?$char_traits@D@std@@@std@@MEAAHXZ
pdata	ENDS
;	COMDAT pdata
pdata	SEGMENT
$pdata$?uflow@?$basic_filebuf@DU?$char_traits@D@std@@@std@@MEAAHXZ DD imagerel $LN21
	DD	imagerel $LN21+912
	DD	imagerel $unwind$?uflow@?$basic_filebuf@DU?$char_traits@D@std@@@std@@MEAAHXZ
pdata	ENDS
;	COMDAT pdata
pdata	SEGMENT
$pdata$?dtor$0@?0??uflow@?$basic_filebuf@DU?$char_traits@D@std@@@std@@MEAAHXZ@4HA DD imagerel ?dtor$0@?0??uflow@?$basic_filebuf@DU?$char_traits@D@std@@@std@@MEAAHXZ@4HA
	DD	imagerel ?dtor$0@?0??uflow@?$basic_filebuf@DU?$char_traits@D@std@@@std@@MEAAHXZ@4HA+36
	DD	imagerel $unwind$?dtor$0@?0??uflow@?$basic_filebuf@DU?$char_traits@D@std@@@std@@MEAAHXZ@4HA
pdata	ENDS
;	COMDAT pdata
pdata	SEGMENT
$pdata$?xsgetn@?$basic_filebuf@DU?$char_traits@D@std@@@std@@MEAA_JPEAD_J@Z DD imagerel $LN11
	DD	imagerel $LN11+599
	DD	imagerel $unwind$?xsgetn@?$basic_filebuf@DU?$char_traits@D@std@@@std@@MEAA_JPEAD_J@Z
pdata	ENDS
;	COMDAT pdata
pdata	SEGMENT
$pdata$?xsputn@?$basic_filebuf@DU?$char_traits@D@std@@@std@@MEAA_JPEBD_J@Z DD imagerel $LN7
	DD	imagerel $LN7+388
	DD	imagerel $unwind$?xsputn@?$basic_filebuf@DU?$char_traits@D@std@@@std@@MEAA_JPEBD_J@Z
pdata	ENDS
;	COMDAT pdata
pdata	SEGMENT
$pdata$?seekoff@?$basic_filebuf@DU?$char_traits@D@std@@@std@@MEAA?AV?$fpos@U_Mbstatet@@@2@_JHH@Z DD imagerel $LN8
	DD	imagerel $LN8+397
	DD	imagerel $unwind$?seekoff@?$basic_filebuf@DU?$char_traits@D@std@@@std@@MEAA?AV?$fpos@U_Mbstatet@@@2@_JHH@Z
pdata	ENDS
;	COMDAT pdata
pdata	SEGMENT
$pdata$?seekpos@?$basic_filebuf@DU?$char_traits@D@std@@@std@@MEAA?AV?$fpos@U_Mbstatet@@@2@V32@H@Z DD imagerel $LN5
	DD	imagerel $LN5+320
	DD	imagerel $unwind$?seekpos@?$basic_filebuf@DU?$char_traits@D@std@@@std@@MEAA?AV?$fpos@U_Mbstatet@@@2@V32@H@Z
pdata	ENDS
;	COMDAT pdata
pdata	SEGMENT
$pdata$?setbuf@?$basic_filebuf@DU?$char_traits@D@std@@@std@@MEAAPEAV?$basic_streambuf@DU?$char_traits@D@std@@@2@PEAD_J@Z DD imagerel $LN7
	DD	imagerel $LN7+220
	DD	imagerel $unwind$?setbuf@?$basic_filebuf@DU?$char_traits@D@std@@@std@@MEAAPEAV?$basic_streambuf@DU?$char_traits@D@std@@@2@PEAD_J@Z
pdata	ENDS
;	COMDAT pdata
pdata	SEGMENT
$pdata$?sync@?$basic_filebuf@DU?$char_traits@D@std@@@std@@MEAAHXZ DD imagerel $LN5
	DD	imagerel $LN5+198
	DD	imagerel $unwind$?sync@?$basic_filebuf@DU?$char_traits@D@std@@@std@@MEAAHXZ
pdata	ENDS
;	COMDAT pdata
pdata	SEGMENT
$pdata$?imbue@?$basic_filebuf@DU?$char_traits@D@std@@@std@@MEAAXAEBVlocale@2@@Z DD imagerel $LN3
	DD	imagerel $LN3+96
	DD	imagerel $unwind$?imbue@?$basic_filebuf@DU?$char_traits@D@std@@@std@@MEAAXAEBVlocale@2@@Z
pdata	ENDS
;	COMDAT pdata
pdata	SEGMENT
$pdata$?_Init@?$basic_filebuf@DU?$char_traits@D@std@@@std@@IEAAXPEAU_iobuf@@W4_Initfl@12@@Z DD imagerel $LN6
	DD	imagerel $LN6+374
	DD	imagerel $unwind$?_Init@?$basic_filebuf@DU?$char_traits@D@std@@@std@@IEAAXPEAU_iobuf@@W4_Initfl@12@@Z
pdata	ENDS
;	COMDAT pdata
pdata	SEGMENT
$pdata$?_Endwrite@?$basic_filebuf@DU?$char_traits@D@std@@@std@@IEAA_NXZ DD imagerel $LN15
	DD	imagerel $LN15+500
	DD	imagerel $unwind$?_Endwrite@?$basic_filebuf@DU?$char_traits@D@std@@@std@@IEAA_NXZ
pdata	ENDS
;	COMDAT pdata
pdata	SEGMENT
$pdata$?_Initcvt@?$basic_filebuf@DU?$char_traits@D@std@@@std@@IEAAXAEBV?$codecvt@DDU_Mbstatet@@@2@@Z DD imagerel $LN5
	DD	imagerel $LN5+142
	DD	imagerel $unwind$?_Initcvt@?$basic_filebuf@DU?$char_traits@D@std@@@std@@IEAAXAEBV?$codecvt@DDU_Mbstatet@@@2@@Z
pdata	ENDS
;	COMDAT pdata
pdata	SEGMENT
$pdata$?_Reset_back@?$basic_filebuf@DU?$char_traits@D@std@@@std@@AEAAXXZ DD imagerel $LN4
	DD	imagerel $LN4+148
	DD	imagerel $unwind$?_Reset_back@?$basic_filebuf@DU?$char_traits@D@std@@@std@@AEAAXXZ
pdata	ENDS
;	COMDAT pdata
pdata	SEGMENT
$pdata$?_Set_back@?$basic_filebuf@DU?$char_traits@D@std@@@std@@AEAAXXZ DD imagerel $LN4
	DD	imagerel $LN4+199
	DD	imagerel $unwind$?_Set_back@?$basic_filebuf@DU?$char_traits@D@std@@@std@@AEAAXXZ
pdata	ENDS
;	COMDAT pdata
pdata	SEGMENT
$pdata$??_G?$basic_filebuf@DU?$char_traits@D@std@@@std@@UEAAPEAXI@Z DD imagerel $LN4
	DD	imagerel $LN4+105
	DD	imagerel $unwind$??_G?$basic_filebuf@DU?$char_traits@D@std@@@std@@UEAAPEAXI@Z
pdata	ENDS
;	COMDAT pdata
pdata	SEGMENT
$pdata$?__autoclassinit2@?$basic_fstream@DU?$char_traits@D@std@@@std@@QEAAX_K@Z DD imagerel $LN3
	DD	imagerel $LN3+73
	DD	imagerel $unwind$?__autoclassinit2@?$basic_fstream@DU?$char_traits@D@std@@@std@@QEAAX_K@Z
pdata	ENDS
;	COMDAT pdata
pdata	SEGMENT
$pdata$??_G?$basic_fstream@DU?$char_traits@D@std@@@std@@UEAAPEAXI@Z DD imagerel $LN4
	DD	imagerel $LN4+129
	DD	imagerel $unwind$??_G?$basic_fstream@DU?$char_traits@D@std@@@std@@UEAAPEAXI@Z
pdata	ENDS
;	COMDAT pdata
pdata	SEGMENT
$pdata$??_D?$basic_fstream@DU?$char_traits@D@std@@@std@@QEAAXXZ DD imagerel $LN3
	DD	imagerel $LN3+95
	DD	imagerel $unwind$??_D?$basic_fstream@DU?$char_traits@D@std@@@std@@QEAAXXZ
pdata	ENDS
;	COMDAT pdata
pdata	SEGMENT
$pdata$??$use_facet@V?$codecvt@DDU_Mbstatet@@@std@@@std@@YAAEBV?$codecvt@DDU_Mbstatet@@@0@AEBVlocale@0@@Z DD imagerel $LN11
	DD	imagerel $LN11+393
	DD	imagerel $unwind$??$use_facet@V?$codecvt@DDU_Mbstatet@@@std@@@std@@YAAEBV?$codecvt@DDU_Mbstatet@@@0@AEBVlocale@0@@Z
pdata	ENDS
;	COMDAT pdata
pdata	SEGMENT
$pdata$?dtor$0@?0???$use_facet@V?$codecvt@DDU_Mbstatet@@@std@@@std@@YAAEBV?$codecvt@DDU_Mbstatet@@@0@AEBVlocale@0@@Z@4HA DD imagerel ?dtor$0@?0???$use_facet@V?$codecvt@DDU_Mbstatet@@@std@@@std@@YAAEBV?$codecvt@DDU_Mbstatet@@@0@AEBVlocale@0@@Z@4HA
	DD	imagerel ?dtor$0@?0???$use_facet@V?$codecvt@DDU_Mbstatet@@@std@@@std@@YAAEBV?$codecvt@DDU_Mbstatet@@@0@AEBVlocale@0@@Z@4HA+37
	DD	imagerel $unwind$?dtor$0@?0???$use_facet@V?$codecvt@DDU_Mbstatet@@@std@@@std@@YAAEBV?$codecvt@DDU_Mbstatet@@@0@AEBVlocale@0@@Z@4HA
pdata	ENDS
;	COMDAT pdata
pdata	SEGMENT
$pdata$?dtor$1@?0???$use_facet@V?$codecvt@DDU_Mbstatet@@@std@@@std@@YAAEBV?$codecvt@DDU_Mbstatet@@@0@AEBVlocale@0@@Z@4HA DD imagerel ?dtor$1@?0???$use_facet@V?$codecvt@DDU_Mbstatet@@@std@@@std@@YAAEBV?$codecvt@DDU_Mbstatet@@@0@AEBVlocale@0@@Z@4HA
	DD	imagerel ?dtor$1@?0???$use_facet@V?$codecvt@DDU_Mbstatet@@@std@@@std@@YAAEBV?$codecvt@DDU_Mbstatet@@@0@AEBVlocale@0@@Z@4HA+39
	DD	imagerel $unwind$?dtor$1@?0???$use_facet@V?$codecvt@DDU_Mbstatet@@@std@@@std@@YAAEBV?$codecvt@DDU_Mbstatet@@@0@AEBVlocale@0@@Z@4HA
pdata	ENDS
;	COMDAT pdata
pdata	SEGMENT
$pdata$??$min@_K@std@@YAAEB_KAEB_K0@Z DD imagerel $LN5
	DD	imagerel $LN5+142
	DD	imagerel $unwind$??$min@_K@std@@YAAEB_KAEB_K0@Z
pdata	ENDS
;	COMDAT pdata
pdata	SEGMENT
$pdata$??$addressof@V?$basic_filebuf@DU?$char_traits@D@std@@@std@@@std@@YAPEAV?$basic_filebuf@DU?$char_traits@D@std@@@0@AEAV10@@Z DD imagerel $LN3
	DD	imagerel $LN3+71
	DD	imagerel $unwind$??$addressof@V?$basic_filebuf@DU?$char_traits@D@std@@@std@@@std@@YAPEAV?$basic_filebuf@DU?$char_traits@D@std@@@0@AEAV10@@Z
pdata	ENDS
;	COMDAT pdata
pdata	SEGMENT
$pdata$?allocate@?$allocator@U_Container_proxy@std@@@std@@QEAAPEAU_Container_proxy@2@_K@Z DD imagerel $LN3
	DD	imagerel $LN3+89
	DD	imagerel $unwind$?allocate@?$allocator@U_Container_proxy@std@@@std@@QEAAPEAU_Container_proxy@2@_K@Z
pdata	ENDS
;	COMDAT pdata
pdata	SEGMENT
$pdata$??$_Delete_plain_internal@V?$allocator@U_Container_proxy@std@@@std@@@std@@YAXAEAV?$allocator@U_Container_proxy@std@@@0@QEAU_Container_proxy@0@@Z DD imagerel $LN3
	DD	imagerel $LN3+89
	DD	imagerel $unwind$??$_Delete_plain_internal@V?$allocator@U_Container_proxy@std@@@std@@@std@@YAXAEAV?$allocator@U_Container_proxy@std@@@0@QEAU_Container_proxy@0@@Z
pdata	ENDS
;	COMDAT pdata
pdata	SEGMENT
$pdata$??$_Alloc_proxy@V?$allocator@U_Container_proxy@std@@@std@@@_Container_base12@std@@QEAAX$$QEAV?$allocator@U_Container_proxy@std@@@1@@Z DD imagerel $LN3
	DD	imagerel $LN3+156
	DD	imagerel $unwind$??$_Alloc_proxy@V?$allocator@U_Container_proxy@std@@@std@@@_Container_base12@std@@QEAAX$$QEAV?$allocator@U_Container_proxy@std@@@1@@Z
pdata	ENDS
;	COMDAT pdata
pdata	SEGMENT
$pdata$??$?0D@?$allocator@U_Container_proxy@std@@@std@@QEAA@AEBV?$allocator@D@1@@Z DD imagerel $LN3
	DD	imagerel $LN3+76
	DD	imagerel $unwind$??$?0D@?$allocator@U_Container_proxy@std@@@std@@QEAA@AEBV?$allocator@D@1@@Z
pdata	ENDS
;	COMDAT pdata
pdata	SEGMENT
$pdata$??$?0$$V@?$_Compressed_pair@V?$allocator@D@std@@V?$_String_val@U?$_Simple_types@D@std@@@2@$00@std@@QEAA@U_Zero_then_variadic_args_t@1@@Z DD imagerel $LN4
	DD	imagerel $LN4+102
	DD	imagerel $unwind$??$?0$$V@?$_Compressed_pair@V?$allocator@D@std@@V?$_String_val@U?$_Simple_types@D@std@@@2@$00@std@@QEAA@U_Zero_then_variadic_args_t@1@@Z
pdata	ENDS
;	COMDAT pdata
pdata	SEGMENT
$pdata$??$_Unfancy@U_Container_proxy@std@@@std@@YAPEAU_Container_proxy@0@PEAU10@@Z DD imagerel $LN3
	DD	imagerel $LN3+71
	DD	imagerel $unwind$??$_Unfancy@U_Container_proxy@std@@@std@@YAPEAU_Container_proxy@0@PEAU10@@Z
pdata	ENDS
;	COMDAT pdata
pdata	SEGMENT
$pdata$??$addressof@$$CBV?$codecvt@DDU_Mbstatet@@@std@@@std@@YAPEBV?$codecvt@DDU_Mbstatet@@@0@AEBV10@@Z DD imagerel $LN3
	DD	imagerel $LN3+71
	DD	imagerel $unwind$??$addressof@$$CBV?$codecvt@DDU_Mbstatet@@@std@@@std@@YAPEBV?$codecvt@DDU_Mbstatet@@@0@AEBV10@@Z
pdata	ENDS
;	COMDAT pdata
pdata	SEGMENT
$pdata$??$_Destroy_in_place@PEAD@std@@YAXAEAPEAD@Z DD imagerel $LN3
	DD	imagerel $LN3+65
	DD	imagerel $unwind$??$_Destroy_in_place@PEAD@std@@YAXAEAPEAD@Z
pdata	ENDS
;	COMDAT pdata
pdata	SEGMENT
$pdata$??R<lambda_319d5e083f45f90dcdce5dce53cbb275>@@QEBA@QEADQEBD_KD@Z DD imagerel $LN3
	DD	imagerel $LN3+181
	DD	imagerel $unwind$??R<lambda_319d5e083f45f90dcdce5dce53cbb275>@@QEBA@QEADQEBD_KD@Z
pdata	ENDS
;	COMDAT pdata
pdata	SEGMENT
$pdata$??$_Reallocate_grow_by@V<lambda_319d5e083f45f90dcdce5dce53cbb275>@@D@?$basic_string@DU?$char_traits@D@std@@V?$allocator@D@2@@std@@AEAAAEAV01@_KV<lambda_319d5e083f45f90dcdce5dce53cbb275>@@D@Z DD imagerel $LN6
	DD	imagerel $LN6+552
	DD	imagerel $unwind$??$_Reallocate_grow_by@V<lambda_319d5e083f45f90dcdce5dce53cbb275>@@D@?$basic_string@DU?$char_traits@D@std@@V?$allocator@D@2@@std@@AEAAAEAV01@_KV<lambda_319d5e083f45f90dcdce5dce53cbb275>@@D@Z
pdata	ENDS
;	COMDAT pdata
pdata	SEGMENT
$pdata$??$_Construct_in_place@PEADAEBQEAD@std@@YAXAEAPEADAEBQEAD@Z DD imagerel $LN3
	DD	imagerel $LN3+126
	DD	imagerel $unwind$??$_Construct_in_place@PEADAEBQEAD@std@@YAXAEAPEADAEBQEAD@Z
pdata	ENDS
;	COMDAT pdata
pdata	SEGMENT
$pdata$??$_Unfancy@D@std@@YAPEADPEAD@Z DD imagerel $LN3
	DD	imagerel $LN3+71
	DD	imagerel $unwind$??$_Unfancy@D@std@@YAPEADPEAD@Z
pdata	ENDS
;	COMDAT pdata
pdata	SEGMENT
$pdata$??$max@_K@std@@YAAEB_KAEB_K0@Z DD imagerel $LN5
	DD	imagerel $LN5+142
	DD	imagerel $unwind$??$max@_K@std@@YAAEB_KAEB_K0@Z
pdata	ENDS
;	COMDAT pdata
pdata	SEGMENT
$pdata$??$_Get_size_of_n@$0BA@@std@@YA_K_K@Z DD imagerel $LN4
	DD	imagerel $LN4+114
	DD	imagerel $unwind$??$_Get_size_of_n@$0BA@@std@@YA_K_K@Z
pdata	ENDS
;	COMDAT pdata
pdata	SEGMENT
$pdata$??$_Allocate@$0BA@U_Default_allocate_traits@std@@$0A@@std@@YAPEAX_K@Z DD imagerel $LN5
	DD	imagerel $LN5+117
	DD	imagerel $unwind$??$_Allocate@$0BA@U_Default_allocate_traits@std@@$0A@@std@@YAPEAX_K@Z
pdata	ENDS
;	COMDAT pdata
pdata	SEGMENT
$pdata$??$_Deallocate@$0BA@$0A@@std@@YAXPEAX_K@Z DD imagerel $LN4
	DD	imagerel $LN4+121
	DD	imagerel $unwind$??$_Deallocate@$0BA@$0A@@std@@YAXPEAX_K@Z
pdata	ENDS
;	COMDAT pdata
pdata	SEGMENT
$pdata$??$_Get_size_of_n@$00@std@@YA_K_K@Z DD imagerel $LN3
	DD	imagerel $LN3+75
	DD	imagerel $unwind$??$_Get_size_of_n@$00@std@@YA_K_K@Z
pdata	ENDS
;	COMDAT pdata
pdata	SEGMENT
$pdata$??$addressof@U_Container_proxy@std@@@std@@YAPEAU_Container_proxy@0@AEAU10@@Z DD imagerel $LN3
	DD	imagerel $LN3+71
	DD	imagerel $unwind$??$addressof@U_Container_proxy@std@@@std@@YAPEAU_Container_proxy@0@AEAU10@@Z
pdata	ENDS
;	COMDAT pdata
pdata	SEGMENT
$pdata$??$forward@PEAU_Container_base12@std@@@std@@YA$$QEAPEAU_Container_base12@0@AEAPEAU10@@Z DD imagerel $LN3
	DD	imagerel $LN3+71
	DD	imagerel $unwind$??$forward@PEAU_Container_base12@std@@@std@@YA$$QEAPEAU_Container_base12@0@AEAPEAU10@@Z
pdata	ENDS
;	COMDAT pdata
pdata	SEGMENT
$pdata$??R?$default_delete@V_Facet_base@std@@@std@@QEBAXPEAV_Facet_base@1@@Z DD imagerel $LN5
	DD	imagerel $LN5+137
	DD	imagerel $unwind$??R?$default_delete@V_Facet_base@std@@@std@@QEBAXPEAV_Facet_base@1@@Z
pdata	ENDS
;	COMDAT pdata
pdata	SEGMENT
$pdata$??1?$unique_ptr@V_Facet_base@std@@U?$default_delete@V_Facet_base@std@@@2@@std@@QEAA@XZ DD imagerel $LN4
	DD	imagerel $LN4+111
	DD	imagerel $unwind$??1?$unique_ptr@V_Facet_base@std@@U?$default_delete@V_Facet_base@std@@@2@@std@@QEAA@XZ
pdata	ENDS
;	COMDAT pdata
pdata	SEGMENT
$pdata$?release@?$unique_ptr@V_Facet_base@std@@U?$default_delete@V_Facet_base@std@@@2@@std@@QEAAPEAV_Facet_base@2@XZ DD imagerel $LN3
	DD	imagerel $LN3+98
	DD	imagerel $unwind$?release@?$unique_ptr@V_Facet_base@std@@U?$default_delete@V_Facet_base@std@@@2@@std@@QEAAPEAV_Facet_base@2@XZ
pdata	ENDS
;	COMDAT pdata
pdata	SEGMENT
$pdata$?_Get_first@?$_Compressed_pair@U?$default_delete@V_Facet_base@std@@@std@@PEAV_Facet_base@2@$00@std@@QEAAAEAU?$default_delete@V_Facet_base@std@@@2@XZ DD imagerel $LN3
	DD	imagerel $LN3+71
	DD	imagerel $unwind$?_Get_first@?$_Compressed_pair@U?$default_delete@V_Facet_base@std@@@std@@PEAV_Facet_base@2@$00@std@@QEAAAEAU?$default_delete@V_Facet_base@std@@@2@XZ
pdata	ENDS
;	COMDAT pdata
pdata	SEGMENT
$pdata$?__autoclassinit2@?$unique_ptr@V_Facet_base@std@@U?$default_delete@V_Facet_base@std@@@2@@std@@QEAAX_K@Z DD imagerel $LN3
	DD	imagerel $LN3+73
	DD	imagerel $unwind$?__autoclassinit2@?$unique_ptr@V_Facet_base@std@@U?$default_delete@V_Facet_base@std@@@2@@std@@QEAAX_K@Z
pdata	ENDS
;	COMDAT pdata
pdata	SEGMENT
$pdata$??$?0U?$default_delete@V_Facet_base@std@@@std@@$0A@@?$unique_ptr@V_Facet_base@std@@U?$default_delete@V_Facet_base@std@@@2@@std@@QEAA@PEAV_Facet_base@1@@Z DD imagerel $LN3
	DD	imagerel $LN3+105
	DD	imagerel $unwind$??$?0U?$default_delete@V_Facet_base@std@@@std@@$0A@@?$unique_ptr@V_Facet_base@std@@U?$default_delete@V_Facet_base@std@@@2@@std@@QEAA@PEAV_Facet_base@1@@Z
pdata	ENDS
;	COMDAT pdata
pdata	SEGMENT
$pdata$??$_Deallocate_plain@V?$allocator@U_Container_proxy@std@@@std@@@std@@YAXAEAV?$allocator@U_Container_proxy@std@@@0@QEAU_Container_proxy@0@@Z DD imagerel $LN3
	DD	imagerel $LN3+95
	DD	imagerel $unwind$??$_Deallocate_plain@V?$allocator@U_Container_proxy@std@@@std@@@std@@YAXAEAV?$allocator@U_Container_proxy@std@@@0@QEAU_Container_proxy@0@@Z
pdata	ENDS
;	COMDAT pdata
pdata	SEGMENT
$pdata$??$addressof@PEAD@std@@YAPEAPEADAEAPEAD@Z DD imagerel $LN3
	DD	imagerel $LN3+71
	DD	imagerel $unwind$??$addressof@PEAD@std@@YAPEAPEADAEAPEAD@Z
pdata	ENDS
;	COMDAT pdata
pdata	SEGMENT
$pdata$??$forward@AEBQEAD@std@@YAAEBQEADAEBQEAD@Z DD imagerel $LN3
	DD	imagerel $LN3+71
	DD	imagerel $unwind$??$forward@AEBQEAD@std@@YAAEBQEADAEBQEAD@Z
pdata	ENDS
;	COMDAT pdata
pdata	SEGMENT
$pdata$??$_Allocate_manually_vector_aligned@U_Default_allocate_traits@std@@@std@@YAPEAX_K@Z DD imagerel $LN13
	DD	imagerel $LN13+300
	DD	imagerel $unwind$??$_Allocate_manually_vector_aligned@U_Default_allocate_traits@std@@@std@@YAPEAX_K@Z
pdata	ENDS
;	COMDAT pdata
pdata	SEGMENT
$pdata$??$exchange@PEAV_Facet_base@std@@PEAV12@@std@@YAPEAV_Facet_base@0@AEAPEAV10@$$QEAPEAV10@@Z DD imagerel $LN3
	DD	imagerel $LN3+107
	DD	imagerel $unwind$??$exchange@PEAV_Facet_base@std@@PEAV12@@std@@YAPEAV_Facet_base@0@AEAPEAV10@$$QEAPEAV10@@Z
pdata	ENDS
;	COMDAT pdata
pdata	SEGMENT
$pdata$??$?0AEAPEAV_Facet_base@std@@@?$_Compressed_pair@U?$default_delete@V_Facet_base@std@@@std@@PEAV_Facet_base@2@$00@std@@QEAA@U_Zero_then_variadic_args_t@1@AEAPEAV_Facet_base@1@@Z DD imagerel $LN3
	DD	imagerel $LN3+105
	DD	imagerel $unwind$??$?0AEAPEAV_Facet_base@std@@@?$_Compressed_pair@U?$default_delete@V_Facet_base@std@@@std@@PEAV_Facet_base@2@$00@std@@QEAA@U_Zero_then_variadic_args_t@1@AEAPEAV_Facet_base@1@@Z
pdata	ENDS
;	COMDAT pdata
pdata	SEGMENT
$pdata$?deallocate@?$_Default_allocator_traits@V?$allocator@U_Container_proxy@std@@@std@@@std@@SAXAEAV?$allocator@U_Container_proxy@std@@@2@QEAU_Container_proxy@2@_K@Z DD imagerel $LN3
	DD	imagerel $LN3+97
	DD	imagerel $unwind$?deallocate@?$_Default_allocator_traits@V?$allocator@U_Container_proxy@std@@@std@@@std@@SAXAEAV?$allocator@U_Container_proxy@std@@@2@QEAU_Container_proxy@2@_K@Z
pdata	ENDS
;	COMDAT pdata
pdata	SEGMENT
$pdata$??$forward@AEAPEAV_Facet_base@std@@@std@@YAAEAPEAV_Facet_base@0@AEAPEAV10@@Z DD imagerel $LN3
	DD	imagerel $LN3+71
	DD	imagerel $unwind$??$forward@AEAPEAV_Facet_base@std@@@std@@YAAEAPEAV_Facet_base@0@AEAPEAV10@@Z
pdata	ENDS
;	COMDAT rtc$TMZ
rtc$TMZ	SEGMENT
_RTC_Shutdown.rtc$TMZ DQ FLAT:_RTC_Shutdown
rtc$TMZ	ENDS
;	COMDAT rtc$IMZ
rtc$IMZ	SEGMENT
_RTC_InitBase.rtc$IMZ DQ FLAT:_RTC_InitBase
rtc$IMZ	ENDS
;	COMDAT ??_R1A@?0A@EA@bad_cast@std@@8
rdata$r	SEGMENT
??_R1A@?0A@EA@bad_cast@std@@8 DD imagerel ??_R0?AVbad_cast@std@@@8 ; std::bad_cast::`RTTI Base Class Descriptor at (0,-1,0,64)'
	DD	01H
	DD	00H
	DD	0ffffffffH
	DD	00H
	DD	040H
	DD	imagerel ??_R3bad_cast@std@@8
rdata$r	ENDS
;	COMDAT ??_R2bad_cast@std@@8
rdata$r	SEGMENT
??_R2bad_cast@std@@8 DD imagerel ??_R1A@?0A@EA@bad_cast@std@@8 ; std::bad_cast::`RTTI Base Class Array'
	DD	imagerel ??_R1A@?0A@EA@exception@std@@8
	ORG $+3
rdata$r	ENDS
;	COMDAT ??_R3bad_cast@std@@8
rdata$r	SEGMENT
??_R3bad_cast@std@@8 DD 00H				; std::bad_cast::`RTTI Class Hierarchy Descriptor'
	DD	00H
	DD	02H
	DD	imagerel ??_R2bad_cast@std@@8
rdata$r	ENDS
;	COMDAT ??_R4bad_cast@std@@6B@
rdata$r	SEGMENT
??_R4bad_cast@std@@6B@ DD 01H				; std::bad_cast::`RTTI Complete Object Locator'
	DD	00H
	DD	00H
	DD	imagerel ??_R0?AVbad_cast@std@@@8
	DD	imagerel ??_R3bad_cast@std@@8
	DD	imagerel ??_R4bad_cast@std@@6B@
rdata$r	ENDS
;	COMDAT ??_R1A@?0A@EA@?$basic_ostream@DU?$char_traits@D@std@@@std@@8
rdata$r	SEGMENT
??_R1A@?0A@EA@?$basic_ostream@DU?$char_traits@D@std@@@std@@8 DD imagerel ??_R0?AV?$basic_ostream@DU?$char_traits@D@std@@@std@@@8 ; std::basic_ostream<char,std::char_traits<char> >::`RTTI Base Class Descriptor at (0,-1,0,64)'
	DD	03H
	DD	00H
	DD	0ffffffffH
	DD	00H
	DD	040H
	DD	imagerel ??_R3?$basic_ostream@DU?$char_traits@D@std@@@std@@8
rdata$r	ENDS
;	COMDAT ??_R2?$basic_ostream@DU?$char_traits@D@std@@@std@@8
rdata$r	SEGMENT
??_R2?$basic_ostream@DU?$char_traits@D@std@@@std@@8 DD imagerel ??_R1A@?0A@EA@?$basic_ostream@DU?$char_traits@D@std@@@std@@8 ; std::basic_ostream<char,std::char_traits<char> >::`RTTI Base Class Array'
	DD	imagerel ??_R1A@A@3FA@?$basic_ios@DU?$char_traits@D@std@@@std@@8
	DD	imagerel ??_R1A@A@3EA@ios_base@std@@8
	DD	imagerel ??_R17A@3EA@?$_Iosb@H@std@@8
	ORG $+3
rdata$r	ENDS
;	COMDAT ??_R3?$basic_ostream@DU?$char_traits@D@std@@@std@@8
rdata$r	SEGMENT
??_R3?$basic_ostream@DU?$char_traits@D@std@@@std@@8 DD 00H ; std::basic_ostream<char,std::char_traits<char> >::`RTTI Class Hierarchy Descriptor'
	DD	00H
	DD	04H
	DD	imagerel ??_R2?$basic_ostream@DU?$char_traits@D@std@@@std@@8
rdata$r	ENDS
;	COMDAT ??_R0?AV?$basic_ostream@DU?$char_traits@D@std@@@std@@@8
data$r	SEGMENT
??_R0?AV?$basic_ostream@DU?$char_traits@D@std@@@std@@@8 DQ FLAT:??_7type_info@@6B@ ; std::basic_ostream<char,std::char_traits<char> > `RTTI Type Descriptor'
	DQ	0000000000000000H
	DB	'.?AV?$basic_ostream@DU?$char_traits@D@std@@@std@@', 00H
data$r	ENDS
;	COMDAT ??_R1BA@?0A@EA@?$basic_ostream@DU?$char_traits@D@std@@@std@@8
rdata$r	SEGMENT
??_R1BA@?0A@EA@?$basic_ostream@DU?$char_traits@D@std@@@std@@8 DD imagerel ??_R0?AV?$basic_ostream@DU?$char_traits@D@std@@@std@@@8 ; std::basic_ostream<char,std::char_traits<char> >::`RTTI Base Class Descriptor at (16,-1,0,64)'
	DD	03H
	DD	010H
	DD	0ffffffffH
	DD	00H
	DD	040H
	DD	imagerel ??_R3?$basic_ostream@DU?$char_traits@D@std@@@std@@8
rdata$r	ENDS
;	COMDAT ??_R17A@3EA@?$_Iosb@H@std@@8
rdata$r	SEGMENT
??_R17A@3EA@?$_Iosb@H@std@@8 DD imagerel ??_R0?AV?$_Iosb@H@std@@@8 ; std::_Iosb<int>::`RTTI Base Class Descriptor at (8,0,4,64)'
	DD	00H
	DD	08H
	DD	00H
	DD	04H
	DD	040H
	DD	imagerel ??_R3?$_Iosb@H@std@@8
rdata$r	ENDS
;	COMDAT ??_R1A@A@3EA@ios_base@std@@8
rdata$r	SEGMENT
??_R1A@A@3EA@ios_base@std@@8 DD imagerel ??_R0?AVios_base@std@@@8 ; std::ios_base::`RTTI Base Class Descriptor at (0,0,4,64)'
	DD	01H
	DD	00H
	DD	00H
	DD	04H
	DD	040H
	DD	imagerel ??_R3ios_base@std@@8
rdata$r	ENDS
;	COMDAT ??_R1A@?0A@EA@?$_Iosb@H@std@@8
rdata$r	SEGMENT
??_R1A@?0A@EA@?$_Iosb@H@std@@8 DD imagerel ??_R0?AV?$_Iosb@H@std@@@8 ; std::_Iosb<int>::`RTTI Base Class Descriptor at (0,-1,0,64)'
	DD	00H
	DD	00H
	DD	0ffffffffH
	DD	00H
	DD	040H
	DD	imagerel ??_R3?$_Iosb@H@std@@8
rdata$r	ENDS
;	COMDAT ??_R2?$_Iosb@H@std@@8
rdata$r	SEGMENT
??_R2?$_Iosb@H@std@@8 DD imagerel ??_R1A@?0A@EA@?$_Iosb@H@std@@8 ; std::_Iosb<int>::`RTTI Base Class Array'
	ORG $+3
rdata$r	ENDS
;	COMDAT ??_R3?$_Iosb@H@std@@8
rdata$r	SEGMENT
??_R3?$_Iosb@H@std@@8 DD 00H				; std::_Iosb<int>::`RTTI Class Hierarchy Descriptor'
	DD	00H
	DD	01H
	DD	imagerel ??_R2?$_Iosb@H@std@@8
rdata$r	ENDS
;	COMDAT ??_R0?AV?$_Iosb@H@std@@@8
data$r	SEGMENT
??_R0?AV?$_Iosb@H@std@@@8 DQ FLAT:??_7type_info@@6B@	; std::_Iosb<int> `RTTI Type Descriptor'
	DQ	0000000000000000H
	DB	'.?AV?$_Iosb@H@std@@', 00H
data$r	ENDS
;	COMDAT ??_R17?0A@EA@?$_Iosb@H@std@@8
rdata$r	SEGMENT
??_R17?0A@EA@?$_Iosb@H@std@@8 DD imagerel ??_R0?AV?$_Iosb@H@std@@@8 ; std::_Iosb<int>::`RTTI Base Class Descriptor at (8,-1,0,64)'
	DD	00H
	DD	08H
	DD	0ffffffffH
	DD	00H
	DD	040H
	DD	imagerel ??_R3?$_Iosb@H@std@@8
rdata$r	ENDS
;	COMDAT ??_R2ios_base@std@@8
rdata$r	SEGMENT
??_R2ios_base@std@@8 DD imagerel ??_R1A@?0A@EA@ios_base@std@@8 ; std::ios_base::`RTTI Base Class Array'
	DD	imagerel ??_R17?0A@EA@?$_Iosb@H@std@@8
	ORG $+3
rdata$r	ENDS
;	COMDAT ??_R3ios_base@std@@8
rdata$r	SEGMENT
??_R3ios_base@std@@8 DD 00H				; std::ios_base::`RTTI Class Hierarchy Descriptor'
	DD	00H
	DD	02H
	DD	imagerel ??_R2ios_base@std@@8
rdata$r	ENDS
;	COMDAT ??_R0?AVios_base@std@@@8
data$r	SEGMENT
??_R0?AVios_base@std@@@8 DQ FLAT:??_7type_info@@6B@	; std::ios_base `RTTI Type Descriptor'
	DQ	0000000000000000H
	DB	'.?AVios_base@std@@', 00H
data$r	ENDS
;	COMDAT ??_R1A@?0A@EA@ios_base@std@@8
rdata$r	SEGMENT
??_R1A@?0A@EA@ios_base@std@@8 DD imagerel ??_R0?AVios_base@std@@@8 ; std::ios_base::`RTTI Base Class Descriptor at (0,-1,0,64)'
	DD	01H
	DD	00H
	DD	0ffffffffH
	DD	00H
	DD	040H
	DD	imagerel ??_R3ios_base@std@@8
rdata$r	ENDS
;	COMDAT ??_R1A@?0A@EA@?$basic_ios@DU?$char_traits@D@std@@@std@@8
rdata$r	SEGMENT
??_R1A@?0A@EA@?$basic_ios@DU?$char_traits@D@std@@@std@@8 DD imagerel ??_R0?AV?$basic_ios@DU?$char_traits@D@std@@@std@@@8 ; std::basic_ios<char,std::char_traits<char> >::`RTTI Base Class Descriptor at (0,-1,0,64)'
	DD	02H
	DD	00H
	DD	0ffffffffH
	DD	00H
	DD	040H
	DD	imagerel ??_R3?$basic_ios@DU?$char_traits@D@std@@@std@@8
rdata$r	ENDS
;	COMDAT ??_R2?$basic_ios@DU?$char_traits@D@std@@@std@@8
rdata$r	SEGMENT
??_R2?$basic_ios@DU?$char_traits@D@std@@@std@@8 DD imagerel ??_R1A@?0A@EA@?$basic_ios@DU?$char_traits@D@std@@@std@@8 ; std::basic_ios<char,std::char_traits<char> >::`RTTI Base Class Array'
	DD	imagerel ??_R1A@?0A@EA@ios_base@std@@8
	DD	imagerel ??_R17?0A@EA@?$_Iosb@H@std@@8
	ORG $+3
rdata$r	ENDS
;	COMDAT ??_R3?$basic_ios@DU?$char_traits@D@std@@@std@@8
rdata$r	SEGMENT
??_R3?$basic_ios@DU?$char_traits@D@std@@@std@@8 DD 00H	; std::basic_ios<char,std::char_traits<char> >::`RTTI Class Hierarchy Descriptor'
	DD	00H
	DD	03H
	DD	imagerel ??_R2?$basic_ios@DU?$char_traits@D@std@@@std@@8
rdata$r	ENDS
;	COMDAT ??_R0?AV?$basic_ios@DU?$char_traits@D@std@@@std@@@8
data$r	SEGMENT
??_R0?AV?$basic_ios@DU?$char_traits@D@std@@@std@@@8 DQ FLAT:??_7type_info@@6B@ ; std::basic_ios<char,std::char_traits<char> > `RTTI Type Descriptor'
	DQ	0000000000000000H
	DB	'.?AV?$basic_ios@DU?$char_traits@D@std@@@std@@', 00H
data$r	ENDS
;	COMDAT ??_R1A@A@3FA@?$basic_ios@DU?$char_traits@D@std@@@std@@8
rdata$r	SEGMENT
??_R1A@A@3FA@?$basic_ios@DU?$char_traits@D@std@@@std@@8 DD imagerel ??_R0?AV?$basic_ios@DU?$char_traits@D@std@@@std@@@8 ; std::basic_ios<char,std::char_traits<char> >::`RTTI Base Class Descriptor at (0,0,4,80)'
	DD	02H
	DD	00H
	DD	00H
	DD	04H
	DD	050H
	DD	imagerel ??_R3?$basic_ios@DU?$char_traits@D@std@@@std@@8
rdata$r	ENDS
;	COMDAT ??_R2?$basic_istream@DU?$char_traits@D@std@@@std@@8
rdata$r	SEGMENT
??_R2?$basic_istream@DU?$char_traits@D@std@@@std@@8 DD imagerel ??_R1A@?0A@EA@?$basic_istream@DU?$char_traits@D@std@@@std@@8 ; std::basic_istream<char,std::char_traits<char> >::`RTTI Base Class Array'
	DD	imagerel ??_R1A@A@3FA@?$basic_ios@DU?$char_traits@D@std@@@std@@8
	DD	imagerel ??_R1A@A@3EA@ios_base@std@@8
	DD	imagerel ??_R17A@3EA@?$_Iosb@H@std@@8
	ORG $+3
rdata$r	ENDS
;	COMDAT ??_R3?$basic_istream@DU?$char_traits@D@std@@@std@@8
rdata$r	SEGMENT
??_R3?$basic_istream@DU?$char_traits@D@std@@@std@@8 DD 00H ; std::basic_istream<char,std::char_traits<char> >::`RTTI Class Hierarchy Descriptor'
	DD	00H
	DD	04H
	DD	imagerel ??_R2?$basic_istream@DU?$char_traits@D@std@@@std@@8
rdata$r	ENDS
;	COMDAT ??_R0?AV?$basic_istream@DU?$char_traits@D@std@@@std@@@8
data$r	SEGMENT
??_R0?AV?$basic_istream@DU?$char_traits@D@std@@@std@@@8 DQ FLAT:??_7type_info@@6B@ ; std::basic_istream<char,std::char_traits<char> > `RTTI Type Descriptor'
	DQ	0000000000000000H
	DB	'.?AV?$basic_istream@DU?$char_traits@D@std@@@std@@', 00H
data$r	ENDS
;	COMDAT ??_R1A@?0A@EA@?$basic_istream@DU?$char_traits@D@std@@@std@@8
rdata$r	SEGMENT
??_R1A@?0A@EA@?$basic_istream@DU?$char_traits@D@std@@@std@@8 DD imagerel ??_R0?AV?$basic_istream@DU?$char_traits@D@std@@@std@@@8 ; std::basic_istream<char,std::char_traits<char> >::`RTTI Base Class Descriptor at (0,-1,0,64)'
	DD	03H
	DD	00H
	DD	0ffffffffH
	DD	00H
	DD	040H
	DD	imagerel ??_R3?$basic_istream@DU?$char_traits@D@std@@@std@@8
rdata$r	ENDS
;	COMDAT ??_R2?$basic_iostream@DU?$char_traits@D@std@@@std@@8
rdata$r	SEGMENT
??_R2?$basic_iostream@DU?$char_traits@D@std@@@std@@8 DD imagerel ??_R1A@?0A@EA@?$basic_iostream@DU?$char_traits@D@std@@@std@@8 ; std::basic_iostream<char,std::char_traits<char> >::`RTTI Base Class Array'
	DD	imagerel ??_R1A@?0A@EA@?$basic_istream@DU?$char_traits@D@std@@@std@@8
	DD	imagerel ??_R1A@A@3FA@?$basic_ios@DU?$char_traits@D@std@@@std@@8
	DD	imagerel ??_R1A@A@3EA@ios_base@std@@8
	DD	imagerel ??_R17A@3EA@?$_Iosb@H@std@@8
	DD	imagerel ??_R1BA@?0A@EA@?$basic_ostream@DU?$char_traits@D@std@@@std@@8
	DD	imagerel ??_R1A@A@3FA@?$basic_ios@DU?$char_traits@D@std@@@std@@8
	DD	imagerel ??_R1A@A@3EA@ios_base@std@@8
	DD	imagerel ??_R17A@3EA@?$_Iosb@H@std@@8
	ORG $+3
rdata$r	ENDS
;	COMDAT ??_R3?$basic_iostream@DU?$char_traits@D@std@@@std@@8
rdata$r	SEGMENT
??_R3?$basic_iostream@DU?$char_traits@D@std@@@std@@8 DD 00H ; std::basic_iostream<char,std::char_traits<char> >::`RTTI Class Hierarchy Descriptor'
	DD	03H
	DD	09H
	DD	imagerel ??_R2?$basic_iostream@DU?$char_traits@D@std@@@std@@8
rdata$r	ENDS
;	COMDAT ??_R0?AV?$basic_iostream@DU?$char_traits@D@std@@@std@@@8
data$r	SEGMENT
??_R0?AV?$basic_iostream@DU?$char_traits@D@std@@@std@@@8 DQ FLAT:??_7type_info@@6B@ ; std::basic_iostream<char,std::char_traits<char> > `RTTI Type Descriptor'
	DQ	0000000000000000H
	DB	'.?AV?$basic_iostream@DU?$char_traits@D@std@@@std@@', 00H
data$r	ENDS
;	COMDAT ??_R1A@?0A@EA@?$basic_iostream@DU?$char_traits@D@std@@@std@@8
rdata$r	SEGMENT
??_R1A@?0A@EA@?$basic_iostream@DU?$char_traits@D@std@@@std@@8 DD imagerel ??_R0?AV?$basic_iostream@DU?$char_traits@D@std@@@std@@@8 ; std::basic_iostream<char,std::char_traits<char> >::`RTTI Base Class Descriptor at (0,-1,0,64)'
	DD	08H
	DD	00H
	DD	0ffffffffH
	DD	00H
	DD	040H
	DD	imagerel ??_R3?$basic_iostream@DU?$char_traits@D@std@@@std@@8
rdata$r	ENDS
;	COMDAT ??_R1A@?0A@EA@?$basic_fstream@DU?$char_traits@D@std@@@std@@8
rdata$r	SEGMENT
??_R1A@?0A@EA@?$basic_fstream@DU?$char_traits@D@std@@@std@@8 DD imagerel ??_R0?AV?$basic_fstream@DU?$char_traits@D@std@@@std@@@8 ; std::basic_fstream<char,std::char_traits<char> >::`RTTI Base Class Descriptor at (0,-1,0,64)'
	DD	09H
	DD	00H
	DD	0ffffffffH
	DD	00H
	DD	040H
	DD	imagerel ??_R3?$basic_fstream@DU?$char_traits@D@std@@@std@@8
rdata$r	ENDS
;	COMDAT ??_R2?$basic_fstream@DU?$char_traits@D@std@@@std@@8
rdata$r	SEGMENT
??_R2?$basic_fstream@DU?$char_traits@D@std@@@std@@8 DD imagerel ??_R1A@?0A@EA@?$basic_fstream@DU?$char_traits@D@std@@@std@@8 ; std::basic_fstream<char,std::char_traits<char> >::`RTTI Base Class Array'
	DD	imagerel ??_R1A@?0A@EA@?$basic_iostream@DU?$char_traits@D@std@@@std@@8
	DD	imagerel ??_R1A@?0A@EA@?$basic_istream@DU?$char_traits@D@std@@@std@@8
	DD	imagerel ??_R1A@A@3FA@?$basic_ios@DU?$char_traits@D@std@@@std@@8
	DD	imagerel ??_R1A@A@3EA@ios_base@std@@8
	DD	imagerel ??_R17A@3EA@?$_Iosb@H@std@@8
	DD	imagerel ??_R1BA@?0A@EA@?$basic_ostream@DU?$char_traits@D@std@@@std@@8
	DD	imagerel ??_R1A@A@3FA@?$basic_ios@DU?$char_traits@D@std@@@std@@8
	DD	imagerel ??_R1A@A@3EA@ios_base@std@@8
	DD	imagerel ??_R17A@3EA@?$_Iosb@H@std@@8
	ORG $+3
rdata$r	ENDS
;	COMDAT ??_R3?$basic_fstream@DU?$char_traits@D@std@@@std@@8
rdata$r	SEGMENT
??_R3?$basic_fstream@DU?$char_traits@D@std@@@std@@8 DD 00H ; std::basic_fstream<char,std::char_traits<char> >::`RTTI Class Hierarchy Descriptor'
	DD	03H
	DD	0aH
	DD	imagerel ??_R2?$basic_fstream@DU?$char_traits@D@std@@@std@@8
rdata$r	ENDS
;	COMDAT ??_R0?AV?$basic_fstream@DU?$char_traits@D@std@@@std@@@8
data$r	SEGMENT
??_R0?AV?$basic_fstream@DU?$char_traits@D@std@@@std@@@8 DQ FLAT:??_7type_info@@6B@ ; std::basic_fstream<char,std::char_traits<char> > `RTTI Type Descriptor'
	DQ	0000000000000000H
	DB	'.?AV?$basic_fstream@DU?$char_traits@D@std@@@std@@', 00H
data$r	ENDS
;	COMDAT ??_R4?$basic_fstream@DU?$char_traits@D@std@@@std@@6B@
rdata$r	SEGMENT
??_R4?$basic_fstream@DU?$char_traits@D@std@@@std@@6B@ DD 01H ; std::basic_fstream<char,std::char_traits<char> >::`RTTI Complete Object Locator'
	DD	0b8H
	DD	04H
	DD	imagerel ??_R0?AV?$basic_fstream@DU?$char_traits@D@std@@@std@@@8
	DD	imagerel ??_R3?$basic_fstream@DU?$char_traits@D@std@@@std@@8
	DD	imagerel ??_R4?$basic_fstream@DU?$char_traits@D@std@@@std@@6B@
rdata$r	ENDS
;	COMDAT ??_R2?$basic_streambuf@DU?$char_traits@D@std@@@std@@8
rdata$r	SEGMENT
??_R2?$basic_streambuf@DU?$char_traits@D@std@@@std@@8 DD imagerel ??_R1A@?0A@EA@?$basic_streambuf@DU?$char_traits@D@std@@@std@@8 ; std::basic_streambuf<char,std::char_traits<char> >::`RTTI Base Class Array'
	ORG $+3
rdata$r	ENDS
;	COMDAT ??_R3?$basic_streambuf@DU?$char_traits@D@std@@@std@@8
rdata$r	SEGMENT
??_R3?$basic_streambuf@DU?$char_traits@D@std@@@std@@8 DD 00H ; std::basic_streambuf<char,std::char_traits<char> >::`RTTI Class Hierarchy Descriptor'
	DD	00H
	DD	01H
	DD	imagerel ??_R2?$basic_streambuf@DU?$char_traits@D@std@@@std@@8
rdata$r	ENDS
;	COMDAT ??_R0?AV?$basic_streambuf@DU?$char_traits@D@std@@@std@@@8
data$r	SEGMENT
??_R0?AV?$basic_streambuf@DU?$char_traits@D@std@@@std@@@8 DQ FLAT:??_7type_info@@6B@ ; std::basic_streambuf<char,std::char_traits<char> > `RTTI Type Descriptor'
	DQ	0000000000000000H
	DB	'.?AV?$basic_streambuf@DU?$char_traits@D@std@@@std@@', 00H
data$r	ENDS
;	COMDAT ??_R1A@?0A@EA@?$basic_streambuf@DU?$char_traits@D@std@@@std@@8
rdata$r	SEGMENT
??_R1A@?0A@EA@?$basic_streambuf@DU?$char_traits@D@std@@@std@@8 DD imagerel ??_R0?AV?$basic_streambuf@DU?$char_traits@D@std@@@std@@@8 ; std::basic_streambuf<char,std::char_traits<char> >::`RTTI Base Class Descriptor at (0,-1,0,64)'
	DD	00H
	DD	00H
	DD	0ffffffffH
	DD	00H
	DD	040H
	DD	imagerel ??_R3?$basic_streambuf@DU?$char_traits@D@std@@@std@@8
rdata$r	ENDS
;	COMDAT ??_R1A@?0A@EA@?$basic_filebuf@DU?$char_traits@D@std@@@std@@8
rdata$r	SEGMENT
??_R1A@?0A@EA@?$basic_filebuf@DU?$char_traits@D@std@@@std@@8 DD imagerel ??_R0?AV?$basic_filebuf@DU?$char_traits@D@std@@@std@@@8 ; std::basic_filebuf<char,std::char_traits<char> >::`RTTI Base Class Descriptor at (0,-1,0,64)'
	DD	01H
	DD	00H
	DD	0ffffffffH
	DD	00H
	DD	040H
	DD	imagerel ??_R3?$basic_filebuf@DU?$char_traits@D@std@@@std@@8
rdata$r	ENDS
;	COMDAT ??_R2?$basic_filebuf@DU?$char_traits@D@std@@@std@@8
rdata$r	SEGMENT
??_R2?$basic_filebuf@DU?$char_traits@D@std@@@std@@8 DD imagerel ??_R1A@?0A@EA@?$basic_filebuf@DU?$char_traits@D@std@@@std@@8 ; std::basic_filebuf<char,std::char_traits<char> >::`RTTI Base Class Array'
	DD	imagerel ??_R1A@?0A@EA@?$basic_streambuf@DU?$char_traits@D@std@@@std@@8
	ORG $+3
rdata$r	ENDS
;	COMDAT ??_R3?$basic_filebuf@DU?$char_traits@D@std@@@std@@8
rdata$r	SEGMENT
??_R3?$basic_filebuf@DU?$char_traits@D@std@@@std@@8 DD 00H ; std::basic_filebuf<char,std::char_traits<char> >::`RTTI Class Hierarchy Descriptor'
	DD	00H
	DD	02H
	DD	imagerel ??_R2?$basic_filebuf@DU?$char_traits@D@std@@@std@@8
rdata$r	ENDS
;	COMDAT ??_R0?AV?$basic_filebuf@DU?$char_traits@D@std@@@std@@@8
data$r	SEGMENT
??_R0?AV?$basic_filebuf@DU?$char_traits@D@std@@@std@@@8 DQ FLAT:??_7type_info@@6B@ ; std::basic_filebuf<char,std::char_traits<char> > `RTTI Type Descriptor'
	DQ	0000000000000000H
	DB	'.?AV?$basic_filebuf@DU?$char_traits@D@std@@@std@@', 00H
data$r	ENDS
;	COMDAT ??_R4?$basic_filebuf@DU?$char_traits@D@std@@@std@@6B@
rdata$r	SEGMENT
??_R4?$basic_filebuf@DU?$char_traits@D@std@@@std@@6B@ DD 01H ; std::basic_filebuf<char,std::char_traits<char> >::`RTTI Complete Object Locator'
	DD	00H
	DD	00H
	DD	imagerel ??_R0?AV?$basic_filebuf@DU?$char_traits@D@std@@@std@@@8
	DD	imagerel ??_R3?$basic_filebuf@DU?$char_traits@D@std@@@std@@8
	DD	imagerel ??_R4?$basic_filebuf@DU?$char_traits@D@std@@@std@@6B@
rdata$r	ENDS
;	COMDAT ??_R1A@?0A@EA@bad_array_new_length@std@@8
rdata$r	SEGMENT
??_R1A@?0A@EA@bad_array_new_length@std@@8 DD imagerel ??_R0?AVbad_array_new_length@std@@@8 ; std::bad_array_new_length::`RTTI Base Class Descriptor at (0,-1,0,64)'
	DD	02H
	DD	00H
	DD	0ffffffffH
	DD	00H
	DD	040H
	DD	imagerel ??_R3bad_array_new_length@std@@8
rdata$r	ENDS
;	COMDAT ??_R2bad_array_new_length@std@@8
rdata$r	SEGMENT
??_R2bad_array_new_length@std@@8 DD imagerel ??_R1A@?0A@EA@bad_array_new_length@std@@8 ; std::bad_array_new_length::`RTTI Base Class Array'
	DD	imagerel ??_R1A@?0A@EA@bad_alloc@std@@8
	DD	imagerel ??_R1A@?0A@EA@exception@std@@8
	ORG $+3
rdata$r	ENDS
;	COMDAT ??_R3bad_array_new_length@std@@8
rdata$r	SEGMENT
??_R3bad_array_new_length@std@@8 DD 00H			; std::bad_array_new_length::`RTTI Class Hierarchy Descriptor'
	DD	00H
	DD	03H
	DD	imagerel ??_R2bad_array_new_length@std@@8
rdata$r	ENDS
;	COMDAT ??_R4bad_array_new_length@std@@6B@
rdata$r	SEGMENT
??_R4bad_array_new_length@std@@6B@ DD 01H		; std::bad_array_new_length::`RTTI Complete Object Locator'
	DD	00H
	DD	00H
	DD	imagerel ??_R0?AVbad_array_new_length@std@@@8
	DD	imagerel ??_R3bad_array_new_length@std@@8
	DD	imagerel ??_R4bad_array_new_length@std@@6B@
rdata$r	ENDS
;	COMDAT ??_R1A@?0A@EA@bad_alloc@std@@8
rdata$r	SEGMENT
??_R1A@?0A@EA@bad_alloc@std@@8 DD imagerel ??_R0?AVbad_alloc@std@@@8 ; std::bad_alloc::`RTTI Base Class Descriptor at (0,-1,0,64)'
	DD	01H
	DD	00H
	DD	0ffffffffH
	DD	00H
	DD	040H
	DD	imagerel ??_R3bad_alloc@std@@8
rdata$r	ENDS
;	COMDAT ??_R2bad_alloc@std@@8
rdata$r	SEGMENT
??_R2bad_alloc@std@@8 DD imagerel ??_R1A@?0A@EA@bad_alloc@std@@8 ; std::bad_alloc::`RTTI Base Class Array'
	DD	imagerel ??_R1A@?0A@EA@exception@std@@8
	ORG $+3
rdata$r	ENDS
;	COMDAT ??_R3bad_alloc@std@@8
rdata$r	SEGMENT
??_R3bad_alloc@std@@8 DD 00H				; std::bad_alloc::`RTTI Class Hierarchy Descriptor'
	DD	00H
	DD	02H
	DD	imagerel ??_R2bad_alloc@std@@8
rdata$r	ENDS
;	COMDAT ??_R4bad_alloc@std@@6B@
rdata$r	SEGMENT
??_R4bad_alloc@std@@6B@ DD 01H				; std::bad_alloc::`RTTI Complete Object Locator'
	DD	00H
	DD	00H
	DD	imagerel ??_R0?AVbad_alloc@std@@@8
	DD	imagerel ??_R3bad_alloc@std@@8
	DD	imagerel ??_R4bad_alloc@std@@6B@
rdata$r	ENDS
;	COMDAT ??_R1A@?0A@EA@exception@std@@8
rdata$r	SEGMENT
??_R1A@?0A@EA@exception@std@@8 DD imagerel ??_R0?AVexception@std@@@8 ; std::exception::`RTTI Base Class Descriptor at (0,-1,0,64)'
	DD	00H
	DD	00H
	DD	0ffffffffH
	DD	00H
	DD	040H
	DD	imagerel ??_R3exception@std@@8
rdata$r	ENDS
;	COMDAT ??_R2exception@std@@8
rdata$r	SEGMENT
??_R2exception@std@@8 DD imagerel ??_R1A@?0A@EA@exception@std@@8 ; std::exception::`RTTI Base Class Array'
	ORG $+3
rdata$r	ENDS
;	COMDAT ??_R3exception@std@@8
rdata$r	SEGMENT
??_R3exception@std@@8 DD 00H				; std::exception::`RTTI Class Hierarchy Descriptor'
	DD	00H
	DD	01H
	DD	imagerel ??_R2exception@std@@8
rdata$r	ENDS
;	COMDAT ??_R4exception@std@@6B@
rdata$r	SEGMENT
??_R4exception@std@@6B@ DD 01H				; std::exception::`RTTI Complete Object Locator'
	DD	00H
	DD	00H
	DD	imagerel ??_R0?AVexception@std@@@8
	DD	imagerel ??_R3exception@std@@8
	DD	imagerel ??_R4exception@std@@6B@
rdata$r	ENDS
;	COMDAT ??_C@_1EO@GFNCMDLA@?$AAs?$AAt?$AAd?$AA?3?$AA?3?$AA_?$AAA?$AAl?$AAl?$AAo?$AAc?$AAa?$AAt?$AAe?$AA_@
CONST	SEGMENT
??_C@_1EO@GFNCMDLA@?$AAs?$AAt?$AAd?$AA?3?$AA?3?$AA_?$AAA?$AAl?$AAl?$AAo?$AAc?$AAa?$AAt?$AAe?$AA_@ DB 's'
	DB	00H, 't', 00H, 'd', 00H, ':', 00H, ':', 00H, '_', 00H, 'A', 00H
	DB	'l', 00H, 'l', 00H, 'o', 00H, 'c', 00H, 'a', 00H, 't', 00H, 'e'
	DB	00H, '_', 00H, 'm', 00H, 'a', 00H, 'n', 00H, 'u', 00H, 'a', 00H
	DB	'l', 00H, 'l', 00H, 'y', 00H, '_', 00H, 'v', 00H, 'e', 00H, 'c'
	DB	00H, 't', 00H, 'o', 00H, 'r', 00H, '_', 00H, 'a', 00H, 'l', 00H
	DB	'i', 00H, 'g', 00H, 'n', 00H, 'e', 00H, 'd', 00H, 00H, 00H ; `string'
CONST	ENDS
;	COMDAT ??_C@_1BK@MHIKGOKE@?$AA?3?$AAA?$AAM?$AA?3?$AAa?$AAm?$AA?3?$AAP?$AAM?$AA?3?$AAp?$AAm@
CONST	SEGMENT
??_C@_1BK@MHIKGOKE@?$AA?3?$AAA?$AAM?$AA?3?$AAa?$AAm?$AA?3?$AAP?$AAM?$AA?3?$AAp?$AAm@ DB ':'
	DB	00H, 'A', 00H, 'M', 00H, ':', 00H, 'a', 00H, 'm', 00H, ':', 00H
	DB	'P', 00H, 'M', 00H, ':', 00H, 'p', 00H, 'm', 00H, 00H, 00H ; `string'
CONST	ENDS
;	COMDAT ??_C@_0BI@CFPLBAOH@invalid?5string?5position@
CONST	SEGMENT
??_C@_0BI@CFPLBAOH@invalid?5string?5position@ DB 'invalid string position'
	DB	00H						; `string'
CONST	ENDS
;	COMDAT ??_C@_1EC@DINNLDHA@?$AA?$CC?$AAf?$AAr?$AAo?$AAn?$AAt?$AA?$CI?$AA?$CJ?$AA?5?$AAc?$AAa?$AAl?$AAl?$AAe?$AAd@
CONST	SEGMENT
??_C@_1EC@DINNLDHA@?$AA?$CC?$AAf?$AAr?$AAo?$AAn?$AAt?$AA?$CI?$AA?$CJ?$AA?5?$AAc?$AAa?$AAl?$AAl?$AAe?$AAd@ DB '"'
	DB	00H, 'f', 00H, 'r', 00H, 'o', 00H, 'n', 00H, 't', 00H, '(', 00H
	DB	')', 00H, ' ', 00H, 'c', 00H, 'a', 00H, 'l', 00H, 'l', 00H, 'e'
	DB	00H, 'd', 00H, ' ', 00H, 'o', 00H, 'n', 00H, ' ', 00H, 'e', 00H
	DB	'm', 00H, 'p', 00H, 't', 00H, 'y', 00H, ' ', 00H, 's', 00H, 't'
	DB	00H, 'r', 00H, 'i', 00H, 'n', 00H, 'g', 00H, '"', 00H, 00H, 00H ; `string'
CONST	ENDS
;	COMDAT ??_C@_1LC@BJDDPGPA@?$AAs?$AAt?$AAd?$AA?3?$AA?3?$AAb?$AAa?$AAs?$AAi?$AAc?$AA_?$AAs?$AAt?$AAr?$AAi@
CONST	SEGMENT
??_C@_1LC@BJDDPGPA@?$AAs?$AAt?$AAd?$AA?3?$AA?3?$AAb?$AAa?$AAs?$AAi?$AAc?$AA_?$AAs?$AAt?$AAr?$AAi@ DB 's'
	DB	00H, 't', 00H, 'd', 00H, ':', 00H, ':', 00H, 'b', 00H, 'a', 00H
	DB	's', 00H, 'i', 00H, 'c', 00H, '_', 00H, 's', 00H, 't', 00H, 'r'
	DB	00H, 'i', 00H, 'n', 00H, 'g', 00H, '<', 00H, 'c', 00H, 'h', 00H
	DB	'a', 00H, 'r', 00H, ',', 00H, 's', 00H, 't', 00H, 'r', 00H, 'u'
	DB	00H, 'c', 00H, 't', 00H, ' ', 00H, 's', 00H, 't', 00H, 'd', 00H
	DB	':', 00H, ':', 00H, 'c', 00H, 'h', 00H, 'a', 00H, 'r', 00H, '_'
	DB	00H, 't', 00H, 'r', 00H, 'a', 00H, 'i', 00H, 't', 00H, 's', 00H
	DB	'<', 00H, 'c', 00H, 'h', 00H, 'a', 00H, 'r', 00H, '>', 00H, ','
	DB	00H, 'c', 00H, 'l', 00H, 'a', 00H, 's', 00H, 's', 00H, ' ', 00H
	DB	's', 00H, 't', 00H, 'd', 00H, ':', 00H, ':', 00H, 'a', 00H, 'l'
	DB	00H, 'l', 00H, 'o', 00H, 'c', 00H, 'a', 00H, 't', 00H, 'o', 00H
	DB	'r', 00H, '<', 00H, 'c', 00H, 'h', 00H, 'a', 00H, 'r', 00H, '>'
	DB	00H, ' ', 00H, '>', 00H, ':', 00H, ':', 00H, 'f', 00H, 'r', 00H
	DB	'o', 00H, 'n', 00H, 't', 00H, 00H, 00H	; `string'
CONST	ENDS
;	COMDAT ??_C@_0BP@PFIPNLNI@front?$CI?$CJ?5called?5on?5empty?5string@
CONST	SEGMENT
??_C@_0BP@PFIPNLNI@front?$CI?$CJ?5called?5on?5empty?5string@ DB 'front() '
	DB	'called on empty string', 00H		; `string'
CONST	ENDS
;	COMDAT ??_C@_1NC@FPODOMOF@?$AAC?$AA?3?$AA?2?$AAP?$AAr?$AAo?$AAg?$AAr?$AAa?$AAm?$AA?5?$AAF?$AAi?$AAl?$AAe@
CONST	SEGMENT
??_C@_1NC@FPODOMOF@?$AAC?$AA?3?$AA?2?$AAP?$AAr?$AAo?$AAg?$AAr?$AAa?$AAm?$AA?5?$AAF?$AAi?$AAl?$AAe@ DB 'C'
	DB	00H, ':', 00H, '\', 00H, 'P', 00H, 'r', 00H, 'o', 00H, 'g', 00H
	DB	'r', 00H, 'a', 00H, 'm', 00H, ' ', 00H, 'F', 00H, 'i', 00H, 'l'
	DB	00H, 'e', 00H, 's', 00H, ' ', 00H, '(', 00H, 'x', 00H, '8', 00H
	DB	'6', 00H, ')', 00H, '\', 00H, 'M', 00H, 'i', 00H, 'c', 00H, 'r'
	DB	00H, 'o', 00H, 's', 00H, 'o', 00H, 'f', 00H, 't', 00H, ' ', 00H
	DB	'V', 00H, 'i', 00H, 's', 00H, 'u', 00H, 'a', 00H, 'l', 00H, ' '
	DB	00H, 'S', 00H, 't', 00H, 'u', 00H, 'd', 00H, 'i', 00H, 'o', 00H
	DB	'\', 00H, '2', 00H, '0', 00H, '1', 00H, '9', 00H, '\', 00H, 'E'
	DB	00H, 'n', 00H, 't', 00H, 'e', 00H, 'r', 00H, 'p', 00H, 'r', 00H
	DB	'i', 00H, 's', 00H, 'e', 00H, '\', 00H, 'V', 00H, 'C', 00H, '\'
	DB	00H, 'T', 00H, 'o', 00H, 'o', 00H, 'l', 00H, 's', 00H, '\', 00H
	DB	'M', 00H, 'S', 00H, 'V', 00H, 'C', 00H, '\', 00H, '1', 00H, '4'
	DB	00H, '.', 00H, '2', 00H, '7', 00H, '.', 00H, '2', 00H, '9', 00H
	DB	'1', 00H, '1', 00H, '0', 00H, '\', 00H, 'i', 00H, 'n', 00H, 'c'
	DB	00H, 'l', 00H, 'u', 00H, 'd', 00H, 'e', 00H, '\', 00H, 'x', 00H
	DB	's', 00H, 't', 00H, 'r', 00H, 'i', 00H, 'n', 00H, 'g', 00H, 00H
	DB	00H						; `string'
CONST	ENDS
;	COMDAT ??_C@_0GJ@LOFLLKBK@C?3?2Program?5Files?5?$CIx86?$CJ?2Microsof@
CONST	SEGMENT
??_C@_0GJ@LOFLLKBK@C?3?2Program?5Files?5?$CIx86?$CJ?2Microsof@ DB 'C:\Pro'
	DB	'gram Files (x86)\Microsoft Visual Studio\2019\Enterprise\VC\T'
	DB	'ools\MSVC\14.27.29110\include\xstring', 00H	; `string'
CONST	ENDS
;	COMDAT ??_C@_0N@LPFKKEBD@?3AM?3am?3PM?3pm@
CONST	SEGMENT
??_C@_0N@LPFKKEBD@?3AM?3am?3PM?3pm@ DB ':AM:am:PM:pm', 00H ; `string'
CONST	ENDS
;	COMDAT _CT??_R0?AUERROR@Error@@@8208
xdata$x	SEGMENT
_CT??_R0?AUERROR@Error@@@8208 DD 00H
	DD	imagerel ??_R0?AUERROR@Error@@@8
	DD	00H
	DD	0ffffffffH
	ORG $+4
	DD	0d0H
	DD	00H
xdata$x	ENDS
;	COMDAT ??_R0?AUERROR@Error@@@8
data$r	SEGMENT
??_R0?AUERROR@Error@@@8 DQ FLAT:??_7type_info@@6B@	; Error::ERROR `RTTI Type Descriptor'
	DQ	0000000000000000H
	DB	'.?AUERROR@Error@@', 00H
data$r	ENDS
;	COMDAT _CTA1?AUERROR@Error@@
xdata$x	SEGMENT
_CTA1?AUERROR@Error@@ DD 01H
	DD	imagerel _CT??_R0?AUERROR@Error@@@8208
xdata$x	ENDS
;	COMDAT _TI1?AUERROR@Error@@
xdata$x	SEGMENT
_TI1?AUERROR@Error@@ DD 00H
	DD	00H
	DD	00H
	DD	imagerel _CTA1?AUERROR@Error@@
xdata$x	ENDS
;	COMDAT ??_8?$basic_fstream@DU?$char_traits@D@std@@@std@@7B?$basic_ostream@DU?$char_traits@D@std@@@1@@
CONST	SEGMENT
??_8?$basic_fstream@DU?$char_traits@D@std@@@std@@7B?$basic_ostream@DU?$char_traits@D@std@@@1@@ DD 00H ; std::basic_fstream<char,std::char_traits<char> >::`vbtable'
	DD	0a8H
CONST	ENDS
;	COMDAT ??_8?$basic_fstream@DU?$char_traits@D@std@@@std@@7B?$basic_istream@DU?$char_traits@D@std@@@1@@
CONST	SEGMENT
??_8?$basic_fstream@DU?$char_traits@D@std@@@std@@7B?$basic_istream@DU?$char_traits@D@std@@@1@@ DD 00H ; std::basic_fstream<char,std::char_traits<char> >::`vbtable'
	DD	0b8H
CONST	ENDS
;	COMDAT ??_7?$basic_fstream@DU?$char_traits@D@std@@@std@@6B@
CONST	SEGMENT
??_7?$basic_fstream@DU?$char_traits@D@std@@@std@@6B@ DQ FLAT:??_R4?$basic_fstream@DU?$char_traits@D@std@@@std@@6B@ ; std::basic_fstream<char,std::char_traits<char> >::`vftable'
	DQ	FLAT:??_E?$basic_fstream@DU?$char_traits@D@std@@@std@@$4PPPPPPPM@A@EAAPEAXI@Z
CONST	ENDS
;	COMDAT ??_7?$basic_filebuf@DU?$char_traits@D@std@@@std@@6B@
CONST	SEGMENT
??_7?$basic_filebuf@DU?$char_traits@D@std@@@std@@6B@ DQ FLAT:??_R4?$basic_filebuf@DU?$char_traits@D@std@@@std@@6B@ ; std::basic_filebuf<char,std::char_traits<char> >::`vftable'
	DQ	FLAT:??_E?$basic_filebuf@DU?$char_traits@D@std@@@std@@UEAAPEAXI@Z
	DQ	FLAT:?_Lock@?$basic_filebuf@DU?$char_traits@D@std@@@std@@UEAAXXZ
	DQ	FLAT:?_Unlock@?$basic_filebuf@DU?$char_traits@D@std@@@std@@UEAAXXZ
	DQ	FLAT:?overflow@?$basic_filebuf@DU?$char_traits@D@std@@@std@@MEAAHH@Z
	DQ	FLAT:?pbackfail@?$basic_filebuf@DU?$char_traits@D@std@@@std@@MEAAHH@Z
	DQ	FLAT:?showmanyc@?$basic_streambuf@DU?$char_traits@D@std@@@std@@MEAA_JXZ
	DQ	FLAT:?underflow@?$basic_filebuf@DU?$char_traits@D@std@@@std@@MEAAHXZ
	DQ	FLAT:?uflow@?$basic_filebuf@DU?$char_traits@D@std@@@std@@MEAAHXZ
	DQ	FLAT:?xsgetn@?$basic_filebuf@DU?$char_traits@D@std@@@std@@MEAA_JPEAD_J@Z
	DQ	FLAT:?xsputn@?$basic_filebuf@DU?$char_traits@D@std@@@std@@MEAA_JPEBD_J@Z
	DQ	FLAT:?seekoff@?$basic_filebuf@DU?$char_traits@D@std@@@std@@MEAA?AV?$fpos@U_Mbstatet@@@2@_JHH@Z
	DQ	FLAT:?seekpos@?$basic_filebuf@DU?$char_traits@D@std@@@std@@MEAA?AV?$fpos@U_Mbstatet@@@2@V32@H@Z
	DQ	FLAT:?setbuf@?$basic_filebuf@DU?$char_traits@D@std@@@std@@MEAAPEAV?$basic_streambuf@DU?$char_traits@D@std@@@2@PEAD_J@Z
	DQ	FLAT:?sync@?$basic_filebuf@DU?$char_traits@D@std@@@std@@MEAAHXZ
	DQ	FLAT:?imbue@?$basic_filebuf@DU?$char_traits@D@std@@@std@@MEAAXAEBVlocale@2@@Z
CONST	ENDS
;	COMDAT ??_C@_0GJ@GMBHIGPF@C?3?2Program?5Files?5?$CIx86?$CJ?2Microsof@
CONST	SEGMENT
??_C@_0GJ@GMBHIGPF@C?3?2Program?5Files?5?$CIx86?$CJ?2Microsof@ DB 'C:\Pro'
	DB	'gram Files (x86)\Microsoft Visual Studio\2019\Enterprise\VC\T'
	DB	'ools\MSVC\14.27.29110\include\xlocnum', 00H	; `string'
CONST	ENDS
;	COMDAT ?__LINE__Var@?0??_Maklocwcs@std@@YAPEA_WPEB_W@Z@4JA
_DATA	SEGMENT
?__LINE__Var@?0??_Maklocwcs@std@@YAPEA_WPEB_W@Z@4JA DD 05aH ; `std::_Maklocwcs'::`1'::__LINE__Var
_DATA	ENDS
;	COMDAT ??_C@_0GJ@OPFKIEFE@C?3?2Program?5Files?5?$CIx86?$CJ?2Microsof@
CONST	SEGMENT
??_C@_0GJ@OPFKIEFE@C?3?2Program?5Files?5?$CIx86?$CJ?2Microsof@ DB 'C:\Pro'
	DB	'gram Files (x86)\Microsoft Visual Studio\2019\Enterprise\VC\T'
	DB	'ools\MSVC\14.27.29110\include\xlocale', 00H	; `string'
CONST	ENDS
;	COMDAT _CT??_R0?AVbad_cast@std@@@8??0bad_cast@std@@QEAA@AEBV01@@Z24
xdata$x	SEGMENT
_CT??_R0?AVbad_cast@std@@@8??0bad_cast@std@@QEAA@AEBV01@@Z24 DD 00H
	DD	imagerel ??_R0?AVbad_cast@std@@@8
	DD	00H
	DD	0ffffffffH
	ORG $+4
	DD	018H
	DD	imagerel ??0bad_cast@std@@QEAA@AEBV01@@Z
xdata$x	ENDS
;	COMDAT ??_R0?AVbad_cast@std@@@8
data$r	SEGMENT
??_R0?AVbad_cast@std@@@8 DQ FLAT:??_7type_info@@6B@	; std::bad_cast `RTTI Type Descriptor'
	DQ	0000000000000000H
	DB	'.?AVbad_cast@std@@', 00H
data$r	ENDS
;	COMDAT _CTA2?AVbad_cast@std@@
xdata$x	SEGMENT
_CTA2?AVbad_cast@std@@ DD 02H
	DD	imagerel _CT??_R0?AVbad_cast@std@@@8??0bad_cast@std@@QEAA@AEBV01@@Z24
	DD	imagerel _CT??_R0?AVexception@std@@@8??0exception@std@@QEAA@AEBV01@@Z24
xdata$x	ENDS
;	COMDAT _TI2?AVbad_cast@std@@
xdata$x	SEGMENT
_TI2?AVbad_cast@std@@ DD 00H
	DD	imagerel ??1bad_cast@std@@UEAA@XZ
	DD	00H
	DD	imagerel _CTA2?AVbad_cast@std@@
xdata$x	ENDS
;	COMDAT ??_C@_08EPJLHIJG@bad?5cast@
CONST	SEGMENT
??_C@_08EPJLHIJG@bad?5cast@ DB 'bad cast', 00H		; `string'
CONST	ENDS
;	COMDAT ??_7bad_cast@std@@6B@
CONST	SEGMENT
??_7bad_cast@std@@6B@ DQ FLAT:??_R4bad_cast@std@@6B@	; std::bad_cast::`vftable'
	DQ	FLAT:??_Ebad_cast@std@@UEAAPEAXI@Z
	DQ	FLAT:?what@exception@std@@UEBAPEBDXZ
CONST	ENDS
;	COMDAT ??_C@_0BA@JFNIOLAK@string?5too?5long@
CONST	SEGMENT
??_C@_0BA@JFNIOLAK@string?5too?5long@ DB 'string too long', 00H ; `string'
CONST	ENDS
;	COMDAT ??_C@_1CG@JNLFBNGN@?$AA?$CC?$AAi?$AAn?$AAv?$AAa?$AAl?$AAi?$AAd?$AA?5?$AAa?$AAr?$AAg?$AAu?$AAm?$AAe@
CONST	SEGMENT
??_C@_1CG@JNLFBNGN@?$AA?$CC?$AAi?$AAn?$AAv?$AAa?$AAl?$AAi?$AAd?$AA?5?$AAa?$AAr?$AAg?$AAu?$AAm?$AAe@ DB '"'
	DB	00H, 'i', 00H, 'n', 00H, 'v', 00H, 'a', 00H, 'l', 00H, 'i', 00H
	DB	'd', 00H, ' ', 00H, 'a', 00H, 'r', 00H, 'g', 00H, 'u', 00H, 'm'
	DB	00H, 'e', 00H, 'n', 00H, 't', 00H, '"', 00H, 00H, 00H ; `string'
CONST	ENDS
;	COMDAT ??_C@_1EK@NIFDJFDG@?$AAs?$AAt?$AAd?$AA?3?$AA?3?$AA_?$AAA?$AAd?$AAj?$AAu?$AAs?$AAt?$AA_?$AAm?$AAa@
CONST	SEGMENT
??_C@_1EK@NIFDJFDG@?$AAs?$AAt?$AAd?$AA?3?$AA?3?$AA_?$AAA?$AAd?$AAj?$AAu?$AAs?$AAt?$AA_?$AAm?$AAa@ DB 's'
	DB	00H, 't', 00H, 'd', 00H, ':', 00H, ':', 00H, '_', 00H, 'A', 00H
	DB	'd', 00H, 'j', 00H, 'u', 00H, 's', 00H, 't', 00H, '_', 00H, 'm'
	DB	00H, 'a', 00H, 'n', 00H, 'u', 00H, 'a', 00H, 'l', 00H, 'l', 00H
	DB	'y', 00H, '_', 00H, 'v', 00H, 'e', 00H, 'c', 00H, 't', 00H, 'o'
	DB	00H, 'r', 00H, '_', 00H, 'a', 00H, 'l', 00H, 'i', 00H, 'g', 00H
	DB	'n', 00H, 'e', 00H, 'd', 00H, 00H, 00H	; `string'
CONST	ENDS
;	COMDAT ??_C@_1NC@LBGPBFDE@?$AAC?$AA?3?$AA?2?$AAP?$AAr?$AAo?$AAg?$AAr?$AAa?$AAm?$AA?5?$AAF?$AAi?$AAl?$AAe@
CONST	SEGMENT
??_C@_1NC@LBGPBFDE@?$AAC?$AA?3?$AA?2?$AAP?$AAr?$AAo?$AAg?$AAr?$AAa?$AAm?$AA?5?$AAF?$AAi?$AAl?$AAe@ DB 'C'
	DB	00H, ':', 00H, '\', 00H, 'P', 00H, 'r', 00H, 'o', 00H, 'g', 00H
	DB	'r', 00H, 'a', 00H, 'm', 00H, ' ', 00H, 'F', 00H, 'i', 00H, 'l'
	DB	00H, 'e', 00H, 's', 00H, ' ', 00H, '(', 00H, 'x', 00H, '8', 00H
	DB	'6', 00H, ')', 00H, '\', 00H, 'M', 00H, 'i', 00H, 'c', 00H, 'r'
	DB	00H, 'o', 00H, 's', 00H, 'o', 00H, 'f', 00H, 't', 00H, ' ', 00H
	DB	'V', 00H, 'i', 00H, 's', 00H, 'u', 00H, 'a', 00H, 'l', 00H, ' '
	DB	00H, 'S', 00H, 't', 00H, 'u', 00H, 'd', 00H, 'i', 00H, 'o', 00H
	DB	'\', 00H, '2', 00H, '0', 00H, '1', 00H, '9', 00H, '\', 00H, 'E'
	DB	00H, 'n', 00H, 't', 00H, 'e', 00H, 'r', 00H, 'p', 00H, 'r', 00H
	DB	'i', 00H, 's', 00H, 'e', 00H, '\', 00H, 'V', 00H, 'C', 00H, '\'
	DB	00H, 'T', 00H, 'o', 00H, 'o', 00H, 'l', 00H, 's', 00H, '\', 00H
	DB	'M', 00H, 'S', 00H, 'V', 00H, 'C', 00H, '\', 00H, '1', 00H, '4'
	DB	00H, '.', 00H, '2', 00H, '7', 00H, '.', 00H, '2', 00H, '9', 00H
	DB	'1', 00H, '1', 00H, '0', 00H, '\', 00H, 'i', 00H, 'n', 00H, 'c'
	DB	00H, 'l', 00H, 'u', 00H, 'd', 00H, 'e', 00H, '\', 00H, 'x', 00H
	DB	'm', 00H, 'e', 00H, 'm', 00H, 'o', 00H, 'r', 00H, 'y', 00H, 00H
	DB	00H						; `string'
CONST	ENDS
;	COMDAT ??_C@_0GJ@EHJGLGPD@C?3?2Program?5Files?5?$CIx86?$CJ?2Microsof@
CONST	SEGMENT
??_C@_0GJ@EHJGLGPD@C?3?2Program?5Files?5?$CIx86?$CJ?2Microsof@ DB 'C:\Pro'
	DB	'gram Files (x86)\Microsoft Visual Studio\2019\Enterprise\VC\T'
	DB	'ools\MSVC\14.27.29110\include\xmemory', 00H	; `string'
CONST	ENDS
;	COMDAT ??_C@_02DKCKIIND@?$CFs@
CONST	SEGMENT
??_C@_02DKCKIIND@?$CFs@ DB '%s', 00H			; `string'
CONST	ENDS
;	COMDAT ??_C@_0BB@FCMFBGOM@invalid?5argument@
CONST	SEGMENT
??_C@_0BB@FCMFBGOM@invalid?5argument@ DB 'invalid argument', 00H ; `string'
CONST	ENDS
;	COMDAT ?__LINE__Var@?0??_Adjust_manually_vector_aligned@std@@YAXAEAPEAXAEA_K@Z@4JA
_DATA	SEGMENT
?__LINE__Var@?0??_Adjust_manually_vector_aligned@std@@YAXAEAPEAXAEA_K@Z@4JA DD 084H ; `std::_Adjust_manually_vector_aligned'::`1'::__LINE__Var
_DATA	ENDS
;	COMDAT _CT??_R0?AVexception@std@@@8??0exception@std@@QEAA@AEBV01@@Z24
xdata$x	SEGMENT
_CT??_R0?AVexception@std@@@8??0exception@std@@QEAA@AEBV01@@Z24 DD 00H
	DD	imagerel ??_R0?AVexception@std@@@8
	DD	00H
	DD	0ffffffffH
	ORG $+4
	DD	018H
	DD	imagerel ??0exception@std@@QEAA@AEBV01@@Z
xdata$x	ENDS
;	COMDAT ??_R0?AVexception@std@@@8
data$r	SEGMENT
??_R0?AVexception@std@@@8 DQ FLAT:??_7type_info@@6B@	; std::exception `RTTI Type Descriptor'
	DQ	0000000000000000H
	DB	'.?AVexception@std@@', 00H
data$r	ENDS
;	COMDAT _CT??_R0?AVbad_alloc@std@@@8??0bad_alloc@std@@QEAA@AEBV01@@Z24
xdata$x	SEGMENT
_CT??_R0?AVbad_alloc@std@@@8??0bad_alloc@std@@QEAA@AEBV01@@Z24 DD 010H
	DD	imagerel ??_R0?AVbad_alloc@std@@@8
	DD	00H
	DD	0ffffffffH
	ORG $+4
	DD	018H
	DD	imagerel ??0bad_alloc@std@@QEAA@AEBV01@@Z
xdata$x	ENDS
;	COMDAT ??_R0?AVbad_alloc@std@@@8
data$r	SEGMENT
??_R0?AVbad_alloc@std@@@8 DQ FLAT:??_7type_info@@6B@	; std::bad_alloc `RTTI Type Descriptor'
	DQ	0000000000000000H
	DB	'.?AVbad_alloc@std@@', 00H
data$r	ENDS
;	COMDAT _CT??_R0?AVbad_array_new_length@std@@@8??0bad_array_new_length@std@@QEAA@AEBV01@@Z24
xdata$x	SEGMENT
_CT??_R0?AVbad_array_new_length@std@@@8??0bad_array_new_length@std@@QEAA@AEBV01@@Z24 DD 00H
	DD	imagerel ??_R0?AVbad_array_new_length@std@@@8
	DD	00H
	DD	0ffffffffH
	ORG $+4
	DD	018H
	DD	imagerel ??0bad_array_new_length@std@@QEAA@AEBV01@@Z
xdata$x	ENDS
;	COMDAT ??_R0?AVbad_array_new_length@std@@@8
data$r	SEGMENT
??_R0?AVbad_array_new_length@std@@@8 DQ FLAT:??_7type_info@@6B@ ; std::bad_array_new_length `RTTI Type Descriptor'
	DQ	0000000000000000H
	DB	'.?AVbad_array_new_length@std@@', 00H
data$r	ENDS
;	COMDAT _CTA3?AVbad_array_new_length@std@@
xdata$x	SEGMENT
_CTA3?AVbad_array_new_length@std@@ DD 03H
	DD	imagerel _CT??_R0?AVbad_array_new_length@std@@@8??0bad_array_new_length@std@@QEAA@AEBV01@@Z24
	DD	imagerel _CT??_R0?AVbad_alloc@std@@@8??0bad_alloc@std@@QEAA@AEBV01@@Z24
	DD	imagerel _CT??_R0?AVexception@std@@@8??0exception@std@@QEAA@AEBV01@@Z24
xdata$x	ENDS
;	COMDAT _TI3?AVbad_array_new_length@std@@
xdata$x	SEGMENT
_TI3?AVbad_array_new_length@std@@ DD 00H
	DD	imagerel ??1bad_array_new_length@std@@UEAA@XZ
	DD	00H
	DD	imagerel _CTA3?AVbad_array_new_length@std@@
xdata$x	ENDS
;	COMDAT ??_C@_0BF@KINCDENJ@bad?5array?5new?5length@
CONST	SEGMENT
??_C@_0BF@KINCDENJ@bad?5array?5new?5length@ DB 'bad array new length', 00H ; `string'
CONST	ENDS
;	COMDAT ??_7bad_array_new_length@std@@6B@
CONST	SEGMENT
??_7bad_array_new_length@std@@6B@ DQ FLAT:??_R4bad_array_new_length@std@@6B@ ; std::bad_array_new_length::`vftable'
	DQ	FLAT:??_Ebad_array_new_length@std@@UEAAPEAXI@Z
	DQ	FLAT:?what@exception@std@@UEBAPEBDXZ
CONST	ENDS
;	COMDAT ??_7bad_alloc@std@@6B@
CONST	SEGMENT
??_7bad_alloc@std@@6B@ DQ FLAT:??_R4bad_alloc@std@@6B@	; std::bad_alloc::`vftable'
	DQ	FLAT:??_Ebad_alloc@std@@UEAAPEAXI@Z
	DQ	FLAT:?what@exception@std@@UEBAPEBDXZ
CONST	ENDS
;	COMDAT ??_C@_0BC@EOODALEL@Unknown?5exception@
CONST	SEGMENT
??_C@_0BC@EOODALEL@Unknown?5exception@ DB 'Unknown exception', 00H ; `string'
CONST	ENDS
;	COMDAT ??_7exception@std@@6B@
CONST	SEGMENT
??_7exception@std@@6B@ DQ FLAT:??_R4exception@std@@6B@	; std::exception::`vftable'
	DQ	FLAT:??_Eexception@std@@UEAAPEAXI@Z
	DQ	FLAT:?what@exception@std@@UEBAPEBDXZ
CONST	ENDS
;	COMDAT xdata
xdata	SEGMENT
$ip2state$??$forward@AEAPEAV_Facet_base@std@@@std@@YAAEAPEAV_Facet_base@0@AEAPEAV10@@Z DB 02H
	DB	00H
	DB	00H
xdata	ENDS
;	COMDAT xdata
xdata	SEGMENT
$cppxdata$??$forward@AEAPEAV_Facet_base@std@@@std@@YAAEAPEAV_Facet_base@0@AEAPEAV10@@Z DB 060H
	DD	imagerel $ip2state$??$forward@AEAPEAV_Facet_base@std@@@std@@YAAEAPEAV_Facet_base@0@AEAPEAV10@@Z
xdata	ENDS
;	COMDAT xdata
xdata	SEGMENT
$unwind$??$forward@AEAPEAV_Facet_base@std@@@std@@YAAEAPEAV_Facet_base@0@AEAPEAV10@@Z DD 025052a19H
	DD	010e2313H
	DD	07007001dH
	DD	05006H
	DD	imagerel __CxxFrameHandler4
	DD	imagerel $cppxdata$??$forward@AEAPEAV_Facet_base@std@@@std@@YAAEAPEAV_Facet_base@0@AEAPEAV10@@Z
xdata	ENDS
;	COMDAT xdata
xdata	SEGMENT
$unwind$?deallocate@?$_Default_allocator_traits@V?$allocator@U_Container_proxy@std@@@std@@@std@@SAXAEAV?$allocator@U_Container_proxy@std@@@2@QEAU_Container_proxy@2@_K@Z DD 025053401H
	DD	0118231dH
	DD	07011001dH
	DD	05010H
xdata	ENDS
;	COMDAT xdata
xdata	SEGMENT
$ip2state$??$?0AEAPEAV_Facet_base@std@@@?$_Compressed_pair@U?$default_delete@V_Facet_base@std@@@std@@PEAV_Facet_base@2@$00@std@@QEAA@U_Zero_then_variadic_args_t@1@AEAPEAV_Facet_base@1@@Z DB 02H
	DB	00H
	DB	00H
xdata	ENDS
;	COMDAT xdata
xdata	SEGMENT
$cppxdata$??$?0AEAPEAV_Facet_base@std@@@?$_Compressed_pair@U?$default_delete@V_Facet_base@std@@@std@@PEAV_Facet_base@2@$00@std@@QEAA@U_Zero_then_variadic_args_t@1@AEAPEAV_Facet_base@1@@Z DB 060H
	DD	imagerel $ip2state$??$?0AEAPEAV_Facet_base@std@@@?$_Compressed_pair@U?$default_delete@V_Facet_base@std@@@std@@PEAV_Facet_base@2@$00@std@@QEAA@U_Zero_then_variadic_args_t@1@AEAPEAV_Facet_base@1@@Z
xdata	ENDS
;	COMDAT xdata
xdata	SEGMENT
$unwind$??$?0AEAPEAV_Facet_base@std@@@?$_Compressed_pair@U?$default_delete@V_Facet_base@std@@@std@@PEAV_Facet_base@2@$00@std@@QEAA@U_Zero_then_variadic_args_t@1@AEAPEAV_Facet_base@1@@Z DD 025053319H
	DD	0117231cH
	DD	07010001dH
	DD	0500fH
	DD	imagerel __CxxFrameHandler4
	DD	imagerel $cppxdata$??$?0AEAPEAV_Facet_base@std@@@?$_Compressed_pair@U?$default_delete@V_Facet_base@std@@@std@@PEAV_Facet_base@2@$00@std@@QEAA@U_Zero_then_variadic_args_t@1@AEAPEAV_Facet_base@1@@Z
xdata	ENDS
;	COMDAT xdata
xdata	SEGMENT
$ip2state$??$exchange@PEAV_Facet_base@std@@PEAV12@@std@@YAPEAV_Facet_base@0@AEAPEAV10@$$QEAPEAV10@@Z DB 02H
	DB	00H
	DB	00H
xdata	ENDS
;	COMDAT xdata
xdata	SEGMENT
$cppxdata$??$exchange@PEAV_Facet_base@std@@PEAV12@@std@@YAPEAV_Facet_base@0@AEAPEAV10@$$QEAPEAV10@@Z DB 060H
	DD	imagerel $ip2state$??$exchange@PEAV_Facet_base@std@@PEAV12@@std@@YAPEAV_Facet_base@0@AEAPEAV10@$$QEAPEAV10@@Z
xdata	ENDS
;	COMDAT xdata
xdata	SEGMENT
$unwind$??$exchange@PEAV_Facet_base@std@@PEAV12@@std@@YAPEAV_Facet_base@0@AEAPEAV10@$$QEAPEAV10@@Z DD 025052f19H
	DD	01132318H
	DD	0700c0021H
	DD	0500bH
	DD	imagerel __CxxFrameHandler4
	DD	imagerel $cppxdata$??$exchange@PEAV_Facet_base@std@@PEAV12@@std@@YAPEAV_Facet_base@0@AEAPEAV10@$$QEAPEAV10@@Z
xdata	ENDS
;	COMDAT xdata
xdata	SEGMENT
$unwind$??$_Allocate_manually_vector_aligned@U_Default_allocate_traits@std@@@std@@YAPEAX_K@Z DD 035052a01H
	DD	010e3313H
	DD	07007002bH
	DD	05006H
xdata	ENDS
;	COMDAT xdata
xdata	SEGMENT
$ip2state$??$forward@AEBQEAD@std@@YAAEBQEADAEBQEAD@Z DB 02H
	DB	00H
	DB	00H
xdata	ENDS
;	COMDAT xdata
xdata	SEGMENT
$cppxdata$??$forward@AEBQEAD@std@@YAAEBQEADAEBQEAD@Z DB 060H
	DD	imagerel $ip2state$??$forward@AEBQEAD@std@@YAAEBQEADAEBQEAD@Z
xdata	ENDS
;	COMDAT xdata
xdata	SEGMENT
$unwind$??$forward@AEBQEAD@std@@YAAEBQEADAEBQEAD@Z DD 025052a19H
	DD	010e2313H
	DD	07007001dH
	DD	05006H
	DD	imagerel __CxxFrameHandler4
	DD	imagerel $cppxdata$??$forward@AEBQEAD@std@@YAAEBQEADAEBQEAD@Z
xdata	ENDS
;	COMDAT xdata
xdata	SEGMENT
$ip2state$??$addressof@PEAD@std@@YAPEAPEADAEAPEAD@Z DB 02H
	DB	00H
	DB	00H
xdata	ENDS
;	COMDAT xdata
xdata	SEGMENT
$cppxdata$??$addressof@PEAD@std@@YAPEAPEADAEAPEAD@Z DB 060H
	DD	imagerel $ip2state$??$addressof@PEAD@std@@YAPEAPEADAEAPEAD@Z
xdata	ENDS
;	COMDAT xdata
xdata	SEGMENT
$unwind$??$addressof@PEAD@std@@YAPEAPEADAEAPEAD@Z DD 025052a19H
	DD	010e2313H
	DD	07007001dH
	DD	05006H
	DD	imagerel __CxxFrameHandler4
	DD	imagerel $cppxdata$??$addressof@PEAD@std@@YAPEAPEADAEAPEAD@Z
xdata	ENDS
;	COMDAT xdata
xdata	SEGMENT
$ip2state$??$_Deallocate_plain@V?$allocator@U_Container_proxy@std@@@std@@@std@@YAXAEAV?$allocator@U_Container_proxy@std@@@0@QEAU_Container_proxy@0@@Z DB 02H
	DB	00H
	DB	00H
xdata	ENDS
;	COMDAT xdata
xdata	SEGMENT
$cppxdata$??$_Deallocate_plain@V?$allocator@U_Container_proxy@std@@@std@@@std@@YAXAEAV?$allocator@U_Container_proxy@std@@@0@QEAU_Container_proxy@0@@Z DB 060H
	DD	imagerel $ip2state$??$_Deallocate_plain@V?$allocator@U_Container_proxy@std@@@std@@@std@@YAXAEAV?$allocator@U_Container_proxy@std@@@0@QEAU_Container_proxy@0@@Z
xdata	ENDS
;	COMDAT xdata
xdata	SEGMENT
$unwind$??$_Deallocate_plain@V?$allocator@U_Container_proxy@std@@@std@@@std@@YAXAEAV?$allocator@U_Container_proxy@std@@@0@QEAU_Container_proxy@0@@Z DD 025052f19H
	DD	01132318H
	DD	0700c001dH
	DD	0500bH
	DD	imagerel __CxxFrameHandler4
	DD	imagerel $cppxdata$??$_Deallocate_plain@V?$allocator@U_Container_proxy@std@@@std@@@std@@YAXAEAV?$allocator@U_Container_proxy@std@@@0@QEAU_Container_proxy@0@@Z
xdata	ENDS
;	COMDAT xdata
xdata	SEGMENT
$ip2state$??$?0U?$default_delete@V_Facet_base@std@@@std@@$0A@@?$unique_ptr@V_Facet_base@std@@U?$default_delete@V_Facet_base@std@@@2@@std@@QEAA@PEAV_Facet_base@1@@Z DB 02H
	DB	00H
	DB	00H
xdata	ENDS
;	COMDAT xdata
xdata	SEGMENT
$cppxdata$??$?0U?$default_delete@V_Facet_base@std@@@std@@$0A@@?$unique_ptr@V_Facet_base@std@@U?$default_delete@V_Facet_base@std@@@2@@std@@QEAA@PEAV_Facet_base@1@@Z DB 060H
	DD	imagerel $ip2state$??$?0U?$default_delete@V_Facet_base@std@@@std@@$0A@@?$unique_ptr@V_Facet_base@std@@U?$default_delete@V_Facet_base@std@@@2@@std@@QEAA@PEAV_Facet_base@1@@Z
xdata	ENDS
;	COMDAT xdata
xdata	SEGMENT
$unwind$??$?0U?$default_delete@V_Facet_base@std@@@std@@$0A@@?$unique_ptr@V_Facet_base@std@@U?$default_delete@V_Facet_base@std@@@2@@std@@QEAA@PEAV_Facet_base@1@@Z DD 025052f19H
	DD	01132318H
	DD	0700c0021H
	DD	0500bH
	DD	imagerel __CxxFrameHandler4
	DD	imagerel $cppxdata$??$?0U?$default_delete@V_Facet_base@std@@@std@@$0A@@?$unique_ptr@V_Facet_base@std@@U?$default_delete@V_Facet_base@std@@@2@@std@@QEAA@PEAV_Facet_base@1@@Z
xdata	ENDS
;	COMDAT xdata
xdata	SEGMENT
$unwind$?__autoclassinit2@?$unique_ptr@V_Facet_base@std@@U?$default_delete@V_Facet_base@std@@@2@@std@@QEAAX_K@Z DD 05052d01H
	DD	01130316H
	DD	0700c0019H
	DD	0500bH
xdata	ENDS
;	COMDAT xdata
xdata	SEGMENT
$ip2state$?_Get_first@?$_Compressed_pair@U?$default_delete@V_Facet_base@std@@@std@@PEAV_Facet_base@2@$00@std@@QEAAAEAU?$default_delete@V_Facet_base@std@@@2@XZ DB 02H
	DB	00H
	DB	00H
xdata	ENDS
;	COMDAT xdata
xdata	SEGMENT
$cppxdata$?_Get_first@?$_Compressed_pair@U?$default_delete@V_Facet_base@std@@@std@@PEAV_Facet_base@2@$00@std@@QEAAAEAU?$default_delete@V_Facet_base@std@@@2@XZ DB 060H
	DD	imagerel $ip2state$?_Get_first@?$_Compressed_pair@U?$default_delete@V_Facet_base@std@@@std@@PEAV_Facet_base@2@$00@std@@QEAAAEAU?$default_delete@V_Facet_base@std@@@2@XZ
xdata	ENDS
;	COMDAT xdata
xdata	SEGMENT
$unwind$?_Get_first@?$_Compressed_pair@U?$default_delete@V_Facet_base@std@@@std@@PEAV_Facet_base@2@$00@std@@QEAAAEAU?$default_delete@V_Facet_base@std@@@2@XZ DD 025052a19H
	DD	010e2313H
	DD	07007001dH
	DD	05006H
	DD	imagerel __CxxFrameHandler4
	DD	imagerel $cppxdata$?_Get_first@?$_Compressed_pair@U?$default_delete@V_Facet_base@std@@@std@@PEAV_Facet_base@2@$00@std@@QEAAAEAU?$default_delete@V_Facet_base@std@@@2@XZ
xdata	ENDS
;	COMDAT xdata
xdata	SEGMENT
$ip2state$?release@?$unique_ptr@V_Facet_base@std@@U?$default_delete@V_Facet_base@std@@@2@@std@@QEAAPEAV_Facet_base@2@XZ DB 02H
	DB	00H
	DB	00H
xdata	ENDS
;	COMDAT xdata
xdata	SEGMENT
$cppxdata$?release@?$unique_ptr@V_Facet_base@std@@U?$default_delete@V_Facet_base@std@@@2@@std@@QEAAPEAV_Facet_base@2@XZ DB 060H
	DD	imagerel $ip2state$?release@?$unique_ptr@V_Facet_base@std@@U?$default_delete@V_Facet_base@std@@@2@@std@@QEAAPEAV_Facet_base@2@XZ
xdata	ENDS
;	COMDAT xdata
xdata	SEGMENT
$unwind$?release@?$unique_ptr@V_Facet_base@std@@U?$default_delete@V_Facet_base@std@@@2@@std@@QEAAPEAV_Facet_base@2@XZ DD 025052a19H
	DD	010e2313H
	DD	070070021H
	DD	05006H
	DD	imagerel __CxxFrameHandler4
	DD	imagerel $cppxdata$?release@?$unique_ptr@V_Facet_base@std@@U?$default_delete@V_Facet_base@std@@@2@@std@@QEAAPEAV_Facet_base@2@XZ
xdata	ENDS
;	COMDAT xdata
xdata	SEGMENT
$ip2state$??1?$unique_ptr@V_Facet_base@std@@U?$default_delete@V_Facet_base@std@@@2@@std@@QEAA@XZ DB 02H
	DB	00H
	DB	00H
xdata	ENDS
;	COMDAT xdata
xdata	SEGMENT
$cppxdata$??1?$unique_ptr@V_Facet_base@std@@U?$default_delete@V_Facet_base@std@@@2@@std@@QEAA@XZ DB 060H
	DD	imagerel $ip2state$??1?$unique_ptr@V_Facet_base@std@@U?$default_delete@V_Facet_base@std@@@2@@std@@QEAA@XZ
xdata	ENDS
;	COMDAT xdata
xdata	SEGMENT
$unwind$??1?$unique_ptr@V_Facet_base@std@@U?$default_delete@V_Facet_base@std@@@2@@std@@QEAA@XZ DD 025052a19H
	DD	010e2313H
	DD	07007001dH
	DD	05006H
	DD	imagerel __CxxFrameHandler4
	DD	imagerel $cppxdata$??1?$unique_ptr@V_Facet_base@std@@U?$default_delete@V_Facet_base@std@@@2@@std@@QEAA@XZ
xdata	ENDS
;	COMDAT xdata
xdata	SEGMENT
$ip2state$??R?$default_delete@V_Facet_base@std@@@std@@QEBAXPEAV_Facet_base@1@@Z DB 02H
	DB	00H
	DB	00H
xdata	ENDS
;	COMDAT xdata
xdata	SEGMENT
$cppxdata$??R?$default_delete@V_Facet_base@std@@@std@@QEBAXPEAV_Facet_base@1@@Z DB 060H
	DD	imagerel $ip2state$??R?$default_delete@V_Facet_base@std@@@std@@QEBAXPEAV_Facet_base@1@@Z
xdata	ENDS
;	COMDAT xdata
xdata	SEGMENT
$unwind$??R?$default_delete@V_Facet_base@std@@@std@@QEBAXPEAV_Facet_base@1@@Z DD 025052f19H
	DD	01132318H
	DD	0700c0021H
	DD	0500bH
	DD	imagerel __CxxFrameHandler4
	DD	imagerel $cppxdata$??R?$default_delete@V_Facet_base@std@@@std@@QEBAXPEAV_Facet_base@1@@Z
xdata	ENDS
;	COMDAT xdata
xdata	SEGMENT
$ip2state$??$forward@PEAU_Container_base12@std@@@std@@YA$$QEAPEAU_Container_base12@0@AEAPEAU10@@Z DB 02H
	DB	00H
	DB	00H
xdata	ENDS
;	COMDAT xdata
xdata	SEGMENT
$cppxdata$??$forward@PEAU_Container_base12@std@@@std@@YA$$QEAPEAU_Container_base12@0@AEAPEAU10@@Z DB 060H
	DD	imagerel $ip2state$??$forward@PEAU_Container_base12@std@@@std@@YA$$QEAPEAU_Container_base12@0@AEAPEAU10@@Z
xdata	ENDS
;	COMDAT xdata
xdata	SEGMENT
$unwind$??$forward@PEAU_Container_base12@std@@@std@@YA$$QEAPEAU_Container_base12@0@AEAPEAU10@@Z DD 025052a19H
	DD	010e2313H
	DD	07007001dH
	DD	05006H
	DD	imagerel __CxxFrameHandler4
	DD	imagerel $cppxdata$??$forward@PEAU_Container_base12@std@@@std@@YA$$QEAPEAU_Container_base12@0@AEAPEAU10@@Z
xdata	ENDS
;	COMDAT xdata
xdata	SEGMENT
$ip2state$??$addressof@U_Container_proxy@std@@@std@@YAPEAU_Container_proxy@0@AEAU10@@Z DB 02H
	DB	00H
	DB	00H
xdata	ENDS
;	COMDAT xdata
xdata	SEGMENT
$cppxdata$??$addressof@U_Container_proxy@std@@@std@@YAPEAU_Container_proxy@0@AEAU10@@Z DB 060H
	DD	imagerel $ip2state$??$addressof@U_Container_proxy@std@@@std@@YAPEAU_Container_proxy@0@AEAU10@@Z
xdata	ENDS
;	COMDAT xdata
xdata	SEGMENT
$unwind$??$addressof@U_Container_proxy@std@@@std@@YAPEAU_Container_proxy@0@AEAU10@@Z DD 025052a19H
	DD	010e2313H
	DD	07007001dH
	DD	05006H
	DD	imagerel __CxxFrameHandler4
	DD	imagerel $cppxdata$??$addressof@U_Container_proxy@std@@@std@@YAPEAU_Container_proxy@0@AEAU10@@Z
xdata	ENDS
;	COMDAT xdata
xdata	SEGMENT
$unwind$??$_Get_size_of_n@$00@std@@YA_K_K@Z DD 025052a01H
	DD	010e2313H
	DD	070070021H
	DD	05006H
xdata	ENDS
;	COMDAT xdata
xdata	SEGMENT
$ip2state$??$_Deallocate@$0BA@$0A@@std@@YAXPEAX_K@Z DB 02H
	DB	00H
	DB	00H
xdata	ENDS
;	COMDAT xdata
xdata	SEGMENT
$cppxdata$??$_Deallocate@$0BA@$0A@@std@@YAXPEAX_K@Z DB 060H
	DD	imagerel $ip2state$??$_Deallocate@$0BA@$0A@@std@@YAXPEAX_K@Z
xdata	ENDS
;	COMDAT xdata
xdata	SEGMENT
$unwind$??$_Deallocate@$0BA@$0A@@std@@YAXPEAX_K@Z DD 025052f19H
	DD	01132318H
	DD	0700c001dH
	DD	0500bH
	DD	imagerel __CxxFrameHandler4
	DD	imagerel $cppxdata$??$_Deallocate@$0BA@$0A@@std@@YAXPEAX_K@Z
xdata	ENDS
;	COMDAT xdata
xdata	SEGMENT
$unwind$??$_Allocate@$0BA@U_Default_allocate_traits@std@@$0A@@std@@YAPEAX_K@Z DD 025052a01H
	DD	010e2313H
	DD	07007001dH
	DD	05006H
xdata	ENDS
;	COMDAT xdata
xdata	SEGMENT
$unwind$??$_Get_size_of_n@$0BA@@std@@YA_K_K@Z DD 025052a01H
	DD	010e2313H
	DD	070070025H
	DD	05006H
xdata	ENDS
;	COMDAT xdata
xdata	SEGMENT
$ip2state$??$max@_K@std@@YAAEB_KAEB_K0@Z DB 02H
	DB	00H
	DB	00H
xdata	ENDS
;	COMDAT xdata
xdata	SEGMENT
$cppxdata$??$max@_K@std@@YAAEB_KAEB_K0@Z DB 060H
	DD	imagerel $ip2state$??$max@_K@std@@YAAEB_KAEB_K0@Z
xdata	ENDS
;	COMDAT xdata
xdata	SEGMENT
$unwind$??$max@_K@std@@YAAEB_KAEB_K0@Z DD 025052f19H
	DD	01132318H
	DD	0700c0021H
	DD	0500bH
	DD	imagerel __CxxFrameHandler4
	DD	imagerel $cppxdata$??$max@_K@std@@YAAEB_KAEB_K0@Z
xdata	ENDS
;	COMDAT xdata
xdata	SEGMENT
$ip2state$??$_Unfancy@D@std@@YAPEADPEAD@Z DB 02H
	DB	00H
	DB	00H
xdata	ENDS
;	COMDAT xdata
xdata	SEGMENT
$cppxdata$??$_Unfancy@D@std@@YAPEADPEAD@Z DB 060H
	DD	imagerel $ip2state$??$_Unfancy@D@std@@YAPEADPEAD@Z
xdata	ENDS
;	COMDAT xdata
xdata	SEGMENT
$unwind$??$_Unfancy@D@std@@YAPEADPEAD@Z DD 025052a19H
	DD	010e2313H
	DD	07007001dH
	DD	05006H
	DD	imagerel __CxxFrameHandler4
	DD	imagerel $cppxdata$??$_Unfancy@D@std@@YAPEADPEAD@Z
xdata	ENDS
;	COMDAT xdata
xdata	SEGMENT
$ip2state$??$_Construct_in_place@PEADAEBQEAD@std@@YAXAEAPEADAEBQEAD@Z DB 02H
	DB	00H
	DB	00H
xdata	ENDS
;	COMDAT xdata
xdata	SEGMENT
$cppxdata$??$_Construct_in_place@PEADAEBQEAD@std@@YAXAEAPEADAEBQEAD@Z DB 060H
	DD	imagerel $ip2state$??$_Construct_in_place@PEADAEBQEAD@std@@YAXAEAPEADAEBQEAD@Z
xdata	ENDS
;	COMDAT xdata
xdata	SEGMENT
$unwind$??$_Construct_in_place@PEADAEBQEAD@std@@YAXAEAPEADAEBQEAD@Z DD 025052f19H
	DD	01132318H
	DD	0700c0021H
	DD	0500bH
	DD	imagerel __CxxFrameHandler4
	DD	imagerel $cppxdata$??$_Construct_in_place@PEADAEBQEAD@std@@YAXAEAPEADAEBQEAD@Z
xdata	ENDS
;	COMDAT xdata
xdata	SEGMENT
$unwind$??$_Reallocate_grow_by@V<lambda_319d5e083f45f90dcdce5dce53cbb275>@@D@?$basic_string@DU?$char_traits@D@std@@V?$allocator@D@2@@std@@AEAAAEAV01@_KV<lambda_319d5e083f45f90dcdce5dce53cbb275>@@D@Z DD 035054a19H
	DD	011d3322H
	DD	070160043H
	DD	05015H
	DD	imagerel __GSHandlerCheck
	DD	0208H
xdata	ENDS
;	COMDAT CONST
CONST	SEGMENT
??$_Reallocate_grow_by@V<lambda_319d5e083f45f90dcdce5dce53cbb275>@@D@?$basic_string@DU?$char_traits@D@std@@V?$allocator@D@2@@std@@AEAAAEAV01@_KV<lambda_319d5e083f45f90dcdce5dce53cbb275>@@D@Z$rtcName$0 DB 05fH ; std::basic_string<char,std::char_traits<char>,std::allocator<char> >::_Reallocate_grow_by<<lambda_319d5e083f45f90dcdce5dce53cbb275>,char>
	DB	04eH
	DB	065H
	DB	077H
	DB	05fH
	DB	070H
	DB	074H
	DB	072H
	DB	00H
	ORG $+7
??$_Reallocate_grow_by@V<lambda_319d5e083f45f90dcdce5dce53cbb275>@@D@?$basic_string@DU?$char_traits@D@std@@V?$allocator@D@2@@std@@AEAAAEAV01@_KV<lambda_319d5e083f45f90dcdce5dce53cbb275>@@D@Z$rtcVarDesc DD 0f8H ; std::basic_string<char,std::char_traits<char>,std::allocator<char> >::_Reallocate_grow_by<<lambda_319d5e083f45f90dcdce5dce53cbb275>,char>
	DD	08H
	DQ	FLAT:??$_Reallocate_grow_by@V<lambda_319d5e083f45f90dcdce5dce53cbb275>@@D@?$basic_string@DU?$char_traits@D@std@@V?$allocator@D@2@@std@@AEAAAEAV01@_KV<lambda_319d5e083f45f90dcdce5dce53cbb275>@@D@Z$rtcName$0
	ORG $+48
??$_Reallocate_grow_by@V<lambda_319d5e083f45f90dcdce5dce53cbb275>@@D@?$basic_string@DU?$char_traits@D@std@@V?$allocator@D@2@@std@@AEAAAEAV01@_KV<lambda_319d5e083f45f90dcdce5dce53cbb275>@@D@Z$rtcFrameData DD 01H ; std::basic_string<char,std::char_traits<char>,std::allocator<char> >::_Reallocate_grow_by<<lambda_319d5e083f45f90dcdce5dce53cbb275>,char>
	DD	00H
	DQ	FLAT:??$_Reallocate_grow_by@V<lambda_319d5e083f45f90dcdce5dce53cbb275>@@D@?$basic_string@DU?$char_traits@D@std@@V?$allocator@D@2@@std@@AEAAAEAV01@_KV<lambda_319d5e083f45f90dcdce5dce53cbb275>@@D@Z$rtcVarDesc
CONST	ENDS
;	COMDAT xdata
xdata	SEGMENT
$unwind$??R<lambda_319d5e083f45f90dcdce5dce53cbb275>@@QEBA@QEADQEBD_KD@Z DD 025053901H
	DD	011d2322H
	DD	070160021H
	DD	05015H
xdata	ENDS
;	COMDAT xdata
xdata	SEGMENT
$ip2state$??$_Destroy_in_place@PEAD@std@@YAXAEAPEAD@Z DB 02H
	DB	00H
	DB	00H
xdata	ENDS
;	COMDAT xdata
xdata	SEGMENT
$cppxdata$??$_Destroy_in_place@PEAD@std@@YAXAEAPEAD@Z DB 060H
	DD	imagerel $ip2state$??$_Destroy_in_place@PEAD@std@@YAXAEAPEAD@Z
xdata	ENDS
;	COMDAT xdata
xdata	SEGMENT
$unwind$??$_Destroy_in_place@PEAD@std@@YAXAEAPEAD@Z DD 025052a19H
	DD	010e2313H
	DD	07007001dH
	DD	05006H
	DD	imagerel __CxxFrameHandler4
	DD	imagerel $cppxdata$??$_Destroy_in_place@PEAD@std@@YAXAEAPEAD@Z
xdata	ENDS
;	COMDAT xdata
xdata	SEGMENT
$ip2state$??$addressof@$$CBV?$codecvt@DDU_Mbstatet@@@std@@@std@@YAPEBV?$codecvt@DDU_Mbstatet@@@0@AEBV10@@Z DB 02H
	DB	00H
	DB	00H
xdata	ENDS
;	COMDAT xdata
xdata	SEGMENT
$cppxdata$??$addressof@$$CBV?$codecvt@DDU_Mbstatet@@@std@@@std@@YAPEBV?$codecvt@DDU_Mbstatet@@@0@AEBV10@@Z DB 060H
	DD	imagerel $ip2state$??$addressof@$$CBV?$codecvt@DDU_Mbstatet@@@std@@@std@@YAPEBV?$codecvt@DDU_Mbstatet@@@0@AEBV10@@Z
xdata	ENDS
;	COMDAT xdata
xdata	SEGMENT
$unwind$??$addressof@$$CBV?$codecvt@DDU_Mbstatet@@@std@@@std@@YAPEBV?$codecvt@DDU_Mbstatet@@@0@AEBV10@@Z DD 025052a19H
	DD	010e2313H
	DD	07007001dH
	DD	05006H
	DD	imagerel __CxxFrameHandler4
	DD	imagerel $cppxdata$??$addressof@$$CBV?$codecvt@DDU_Mbstatet@@@std@@@std@@YAPEBV?$codecvt@DDU_Mbstatet@@@0@AEBV10@@Z
xdata	ENDS
;	COMDAT xdata
xdata	SEGMENT
$ip2state$??$_Unfancy@U_Container_proxy@std@@@std@@YAPEAU_Container_proxy@0@PEAU10@@Z DB 02H
	DB	00H
	DB	00H
xdata	ENDS
;	COMDAT xdata
xdata	SEGMENT
$cppxdata$??$_Unfancy@U_Container_proxy@std@@@std@@YAPEAU_Container_proxy@0@PEAU10@@Z DB 060H
	DD	imagerel $ip2state$??$_Unfancy@U_Container_proxy@std@@@std@@YAPEAU_Container_proxy@0@PEAU10@@Z
xdata	ENDS
;	COMDAT xdata
xdata	SEGMENT
$unwind$??$_Unfancy@U_Container_proxy@std@@@std@@YAPEAU_Container_proxy@0@PEAU10@@Z DD 025052a19H
	DD	010e2313H
	DD	07007001dH
	DD	05006H
	DD	imagerel __CxxFrameHandler4
	DD	imagerel $cppxdata$??$_Unfancy@U_Container_proxy@std@@@std@@YAPEAU_Container_proxy@0@PEAU10@@Z
xdata	ENDS
;	COMDAT xdata
xdata	SEGMENT
$unwind$??$?0$$V@?$_Compressed_pair@V?$allocator@D@std@@V?$_String_val@U?$_Simple_types@D@std@@@2@$00@std@@QEAA@U_Zero_then_variadic_args_t@1@@Z DD 025052e01H
	DD	01122317H
	DD	0700b001dH
	DD	0500aH
xdata	ENDS
;	COMDAT xdata
xdata	SEGMENT
$ip2state$??$?0D@?$allocator@U_Container_proxy@std@@@std@@QEAA@AEBV?$allocator@D@1@@Z DB 02H
	DB	00H
	DB	00H
xdata	ENDS
;	COMDAT xdata
xdata	SEGMENT
$cppxdata$??$?0D@?$allocator@U_Container_proxy@std@@@std@@QEAA@AEBV?$allocator@D@1@@Z DB 060H
	DD	imagerel $ip2state$??$?0D@?$allocator@U_Container_proxy@std@@@std@@QEAA@AEBV?$allocator@D@1@@Z
xdata	ENDS
;	COMDAT xdata
xdata	SEGMENT
$unwind$??$?0D@?$allocator@U_Container_proxy@std@@@std@@QEAA@AEBV?$allocator@D@1@@Z DD 025052f19H
	DD	01132318H
	DD	0700c001dH
	DD	0500bH
	DD	imagerel __CxxFrameHandler4
	DD	imagerel $cppxdata$??$?0D@?$allocator@U_Container_proxy@std@@@std@@QEAA@AEBV?$allocator@D@1@@Z
xdata	ENDS
;	COMDAT xdata
xdata	SEGMENT
$unwind$??$_Alloc_proxy@V?$allocator@U_Container_proxy@std@@@std@@@_Container_base12@std@@QEAAX$$QEAV?$allocator@U_Container_proxy@std@@@1@@Z DD 025052f01H
	DD	01132318H
	DD	0700c0025H
	DD	0500bH
xdata	ENDS
;	COMDAT xdata
xdata	SEGMENT
$ip2state$??$_Delete_plain_internal@V?$allocator@U_Container_proxy@std@@@std@@@std@@YAXAEAV?$allocator@U_Container_proxy@std@@@0@QEAU_Container_proxy@0@@Z DB 02H
	DB	00H
	DB	00H
xdata	ENDS
;	COMDAT xdata
xdata	SEGMENT
$cppxdata$??$_Delete_plain_internal@V?$allocator@U_Container_proxy@std@@@std@@@std@@YAXAEAV?$allocator@U_Container_proxy@std@@@0@QEAU_Container_proxy@0@@Z DB 060H
	DD	imagerel $ip2state$??$_Delete_plain_internal@V?$allocator@U_Container_proxy@std@@@std@@@std@@YAXAEAV?$allocator@U_Container_proxy@std@@@0@QEAU_Container_proxy@0@@Z
xdata	ENDS
;	COMDAT xdata
xdata	SEGMENT
$unwind$??$_Delete_plain_internal@V?$allocator@U_Container_proxy@std@@@std@@@std@@YAXAEAV?$allocator@U_Container_proxy@std@@@0@QEAU_Container_proxy@0@@Z DD 025052f19H
	DD	01132318H
	DD	0700c001dH
	DD	0500bH
	DD	imagerel __CxxFrameHandler4
	DD	imagerel $cppxdata$??$_Delete_plain_internal@V?$allocator@U_Container_proxy@std@@@std@@@std@@YAXAEAV?$allocator@U_Container_proxy@std@@@0@QEAU_Container_proxy@0@@Z
xdata	ENDS
;	COMDAT xdata
xdata	SEGMENT
$unwind$?allocate@?$allocator@U_Container_proxy@std@@@std@@QEAAPEAU_Container_proxy@2@_K@Z DD 025052f01H
	DD	01132318H
	DD	0700c001dH
	DD	0500bH
xdata	ENDS
;	COMDAT xdata
xdata	SEGMENT
$ip2state$??$addressof@V?$basic_filebuf@DU?$char_traits@D@std@@@std@@@std@@YAPEAV?$basic_filebuf@DU?$char_traits@D@std@@@0@AEAV10@@Z DB 02H
	DB	00H
	DB	00H
xdata	ENDS
;	COMDAT xdata
xdata	SEGMENT
$cppxdata$??$addressof@V?$basic_filebuf@DU?$char_traits@D@std@@@std@@@std@@YAPEAV?$basic_filebuf@DU?$char_traits@D@std@@@0@AEAV10@@Z DB 060H
	DD	imagerel $ip2state$??$addressof@V?$basic_filebuf@DU?$char_traits@D@std@@@std@@@std@@YAPEAV?$basic_filebuf@DU?$char_traits@D@std@@@0@AEAV10@@Z
xdata	ENDS
;	COMDAT xdata
xdata	SEGMENT
$unwind$??$addressof@V?$basic_filebuf@DU?$char_traits@D@std@@@std@@@std@@YAPEAV?$basic_filebuf@DU?$char_traits@D@std@@@0@AEAV10@@Z DD 025052a19H
	DD	010e2313H
	DD	07007001dH
	DD	05006H
	DD	imagerel __CxxFrameHandler4
	DD	imagerel $cppxdata$??$addressof@V?$basic_filebuf@DU?$char_traits@D@std@@@std@@@std@@YAPEAV?$basic_filebuf@DU?$char_traits@D@std@@@0@AEAV10@@Z
xdata	ENDS
;	COMDAT xdata
xdata	SEGMENT
$ip2state$??$min@_K@std@@YAAEB_KAEB_K0@Z DB 02H
	DB	00H
	DB	00H
xdata	ENDS
;	COMDAT xdata
xdata	SEGMENT
$cppxdata$??$min@_K@std@@YAAEB_KAEB_K0@Z DB 060H
	DD	imagerel $ip2state$??$min@_K@std@@YAAEB_KAEB_K0@Z
xdata	ENDS
;	COMDAT xdata
xdata	SEGMENT
$unwind$??$min@_K@std@@YAAEB_KAEB_K0@Z DD 025052f19H
	DD	01132318H
	DD	0700c0021H
	DD	0500bH
	DD	imagerel __CxxFrameHandler4
	DD	imagerel $cppxdata$??$min@_K@std@@YAAEB_KAEB_K0@Z
xdata	ENDS
;	COMDAT xdata
xdata	SEGMENT
$unwind$?dtor$1@?0???$use_facet@V?$codecvt@DDU_Mbstatet@@@std@@@std@@YAAEBV?$codecvt@DDU_Mbstatet@@@0@AEBVlocale@0@@Z@4HA DD 031001H
	DD	0700c4210H
	DD	0500bH
xdata	ENDS
;	COMDAT xdata
xdata	SEGMENT
$unwind$?dtor$0@?0???$use_facet@V?$codecvt@DDU_Mbstatet@@@std@@@std@@YAAEBV?$codecvt@DDU_Mbstatet@@@0@AEBVlocale@0@@Z@4HA DD 031001H
	DD	0700c4210H
	DD	0500bH
xdata	ENDS
;	COMDAT xdata
xdata	SEGMENT
$ip2state$??$use_facet@V?$codecvt@DDU_Mbstatet@@@std@@@std@@YAAEBV?$codecvt@DDU_Mbstatet@@@0@AEBVlocale@0@@Z DB 0aH
	DB	00H
	DB	00H
	DB	0a8H
	DB	02H
	DB	'y', 02H
	DB	04H
	DB	080H
	DB	02H
	DB	'.'
	DB	00H
xdata	ENDS
;	COMDAT xdata
xdata	SEGMENT
$stateUnwindMap$??$use_facet@V?$codecvt@DDU_Mbstatet@@@std@@@std@@YAAEBV?$codecvt@DDU_Mbstatet@@@0@AEBVlocale@0@@Z DB 04H
	DB	0eH
	DD	imagerel ?dtor$0@?0???$use_facet@V?$codecvt@DDU_Mbstatet@@@std@@@std@@YAAEBV?$codecvt@DDU_Mbstatet@@@0@AEBVlocale@0@@Z@4HA
	DB	02eH
	DD	imagerel ?dtor$1@?0???$use_facet@V?$codecvt@DDU_Mbstatet@@@std@@@std@@YAAEBV?$codecvt@DDU_Mbstatet@@@0@AEBVlocale@0@@Z@4HA
xdata	ENDS
;	COMDAT xdata
xdata	SEGMENT
$cppxdata$??$use_facet@V?$codecvt@DDU_Mbstatet@@@std@@@std@@YAAEBV?$codecvt@DDU_Mbstatet@@@0@AEBVlocale@0@@Z DB 028H
	DD	imagerel $stateUnwindMap$??$use_facet@V?$codecvt@DDU_Mbstatet@@@std@@@std@@YAAEBV?$codecvt@DDU_Mbstatet@@@0@AEBVlocale@0@@Z
	DD	imagerel $ip2state$??$use_facet@V?$codecvt@DDU_Mbstatet@@@std@@@std@@YAAEBV?$codecvt@DDU_Mbstatet@@@0@AEBVlocale@0@@Z
xdata	ENDS
;	COMDAT xdata
xdata	SEGMENT
$unwind$??$use_facet@V?$codecvt@DDU_Mbstatet@@@std@@@std@@YAAEBV?$codecvt@DDU_Mbstatet@@@0@AEBVlocale@0@@Z DD 025053b19H
	DD	010e2313H
	DD	070070039H
	DD	05006H
	DD	imagerel __GSHandlerCheck_EH4
	DD	imagerel $cppxdata$??$use_facet@V?$codecvt@DDU_Mbstatet@@@std@@@std@@YAAEBV?$codecvt@DDU_Mbstatet@@@0@AEBVlocale@0@@Z
	DD	01baH
xdata	ENDS
;	COMDAT CONST
CONST	SEGMENT
??$use_facet@V?$codecvt@DDU_Mbstatet@@@std@@@std@@YAAEBV?$codecvt@DDU_Mbstatet@@@0@AEBVlocale@0@@Z$rtcName$0 DB 05fH ; std::use_facet<std::codecvt<char,char,_Mbstatet> >
	DB	04cH
	DB	06fH
	DB	063H
	DB	06bH
	DB	00H
	ORG $+2
??$use_facet@V?$codecvt@DDU_Mbstatet@@@std@@@std@@YAAEBV?$codecvt@DDU_Mbstatet@@@0@AEBVlocale@0@@Z$rtcName$1 DB 05fH ; std::use_facet<std::codecvt<char,char,_Mbstatet> >
	DB	050H
	DB	073H
	DB	061H
	DB	076H
	DB	065H
	DB	00H
	ORG $+1
??$use_facet@V?$codecvt@DDU_Mbstatet@@@std@@@std@@YAAEBV?$codecvt@DDU_Mbstatet@@@0@AEBVlocale@0@@Z$rtcName$2 DB 05fH ; std::use_facet<std::codecvt<char,char,_Mbstatet> >
	DB	050H
	DB	073H
	DB	061H
	DB	076H
	DB	065H
	DB	05fH
	DB	067H
	DB	075H
	DB	061H
	DB	072H
	DB	064H
	DB	00H
	ORG $+3
??$use_facet@V?$codecvt@DDU_Mbstatet@@@std@@@std@@YAAEBV?$codecvt@DDU_Mbstatet@@@0@AEBVlocale@0@@Z$rtcVarDesc DD 0c8H ; std::use_facet<std::codecvt<char,char,_Mbstatet> >
	DD	08H
	DQ	FLAT:??$use_facet@V?$codecvt@DDU_Mbstatet@@@std@@@std@@YAAEBV?$codecvt@DDU_Mbstatet@@@0@AEBVlocale@0@@Z$rtcName$2
	DD	048H
	DD	08H
	DQ	FLAT:??$use_facet@V?$codecvt@DDU_Mbstatet@@@std@@@std@@YAAEBV?$codecvt@DDU_Mbstatet@@@0@AEBVlocale@0@@Z$rtcName$1
	DD	024H
	DD	04H
	DQ	FLAT:??$use_facet@V?$codecvt@DDU_Mbstatet@@@std@@@std@@YAAEBV?$codecvt@DDU_Mbstatet@@@0@AEBVlocale@0@@Z$rtcName$0
	ORG $+144
??$use_facet@V?$codecvt@DDU_Mbstatet@@@std@@@std@@YAAEBV?$codecvt@DDU_Mbstatet@@@0@AEBVlocale@0@@Z$rtcFrameData DD 03H ; std::use_facet<std::codecvt<char,char,_Mbstatet> >
	DD	00H
	DQ	FLAT:??$use_facet@V?$codecvt@DDU_Mbstatet@@@std@@@std@@YAAEBV?$codecvt@DDU_Mbstatet@@@0@AEBVlocale@0@@Z$rtcVarDesc
CONST	ENDS
;	COMDAT xdata
xdata	SEGMENT
$unwind$??_D?$basic_fstream@DU?$char_traits@D@std@@@std@@QEAAXXZ DD 025052a01H
	DD	010e2313H
	DD	07007001dH
	DD	05006H
xdata	ENDS
;	COMDAT xdata
xdata	SEGMENT
$unwind$??_G?$basic_fstream@DU?$char_traits@D@std@@@std@@UEAAPEAXI@Z DD 025052e01H
	DD	01122317H
	DD	0700b001dH
	DD	0500aH
xdata	ENDS
;	COMDAT xdata
xdata	SEGMENT
$unwind$?__autoclassinit2@?$basic_fstream@DU?$char_traits@D@std@@@std@@QEAAX_K@Z DD 05052d01H
	DD	01130316H
	DD	0700c0019H
	DD	0500bH
xdata	ENDS
;	COMDAT xdata
xdata	SEGMENT
$unwind$??_G?$basic_filebuf@DU?$char_traits@D@std@@@std@@UEAAPEAXI@Z DD 025052e01H
	DD	01122317H
	DD	0700b001dH
	DD	0500aH
xdata	ENDS
;	COMDAT xdata
xdata	SEGMENT
$unwind$?_Set_back@?$basic_filebuf@DU?$char_traits@D@std@@@std@@AEAAXXZ DD 025052a01H
	DD	010e2313H
	DD	07007001dH
	DD	05006H
xdata	ENDS
;	COMDAT xdata
xdata	SEGMENT
$unwind$?_Reset_back@?$basic_filebuf@DU?$char_traits@D@std@@@std@@AEAAXXZ DD 025052a01H
	DD	010e2313H
	DD	07007001dH
	DD	05006H
xdata	ENDS
;	COMDAT xdata
xdata	SEGMENT
$unwind$?_Initcvt@?$basic_filebuf@DU?$char_traits@D@std@@@std@@IEAAXAEBV?$codecvt@DDU_Mbstatet@@@2@@Z DD 025052f01H
	DD	01132318H
	DD	0700c001dH
	DD	0500bH
xdata	ENDS
;	COMDAT xdata
xdata	SEGMENT
$unwind$?_Endwrite@?$basic_filebuf@DU?$char_traits@D@std@@@std@@IEAA_NXZ DD 035053b19H
	DD	010e3313H
	DD	07007003dH
	DD	05006H
	DD	imagerel __GSHandlerCheck
	DD	01d0H
xdata	ENDS
;	COMDAT CONST
CONST	SEGMENT
?_Endwrite@?$basic_filebuf@DU?$char_traits@D@std@@@std@@IEAA_NXZ$rtcName$0 DB 05fH ; std::basic_filebuf<char,std::char_traits<char> >::_Endwrite
	DB	053H
	DB	074H
	DB	072H
	DB	00H
	ORG $+3
?_Endwrite@?$basic_filebuf@DU?$char_traits@D@std@@@std@@IEAA_NXZ$rtcName$1 DB 05fH ; std::basic_filebuf<char,std::char_traits<char> >::_Endwrite
	DB	044H
	DB	065H
	DB	073H
	DB	074H
	DB	00H
	ORG $+2
?_Endwrite@?$basic_filebuf@DU?$char_traits@D@std@@@std@@IEAA_NXZ$rtcVarDesc DD 098H ; std::basic_filebuf<char,std::char_traits<char> >::_Endwrite
	DD	08H
	DQ	FLAT:?_Endwrite@?$basic_filebuf@DU?$char_traits@D@std@@@std@@IEAA_NXZ$rtcName$1
	DD	058H
	DD	020H
	DQ	FLAT:?_Endwrite@?$basic_filebuf@DU?$char_traits@D@std@@@std@@IEAA_NXZ$rtcName$0
	ORG $+96
?_Endwrite@?$basic_filebuf@DU?$char_traits@D@std@@@std@@IEAA_NXZ$rtcFrameData DD 02H ; std::basic_filebuf<char,std::char_traits<char> >::_Endwrite
	DD	00H
	DQ	FLAT:?_Endwrite@?$basic_filebuf@DU?$char_traits@D@std@@@std@@IEAA_NXZ$rtcVarDesc
CONST	ENDS
;	COMDAT xdata
xdata	SEGMENT
$unwind$?_Init@?$basic_filebuf@DU?$char_traits@D@std@@@std@@IEAAXPEAU_iobuf@@W4_Initfl@12@@Z DD 045054519H
	DD	0118431dH
	DD	070110031H
	DD	05010H
	DD	imagerel __GSHandlerCheck
	DD	0178H
xdata	ENDS
;	COMDAT CONST
CONST	SEGMENT
?_Init@?$basic_filebuf@DU?$char_traits@D@std@@@std@@IEAAXPEAU_iobuf@@W4_Initfl@12@@Z$rtcName$0 DB 05fH ; std::basic_filebuf<char,std::char_traits<char> >::_Init
	DB	050H
	DB	062H
	DB	00H
?_Init@?$basic_filebuf@DU?$char_traits@D@std@@@std@@IEAAXPEAU_iobuf@@W4_Initfl@12@@Z$rtcName$1 DB 05fH ; std::basic_filebuf<char,std::char_traits<char> >::_Init
	DB	050H
	DB	06eH
	DB	00H
?_Init@?$basic_filebuf@DU?$char_traits@D@std@@@std@@IEAAXPEAU_iobuf@@W4_Initfl@12@@Z$rtcName$2 DB 05fH ; std::basic_filebuf<char,std::char_traits<char> >::_Init
	DB	04eH
	DB	072H
	DB	00H
	ORG $+4
?_Init@?$basic_filebuf@DU?$char_traits@D@std@@@std@@IEAAXPEAU_iobuf@@W4_Initfl@12@@Z$rtcVarDesc DD 088H ; std::basic_filebuf<char,std::char_traits<char> >::_Init
	DD	08H
	DQ	FLAT:?_Init@?$basic_filebuf@DU?$char_traits@D@std@@@std@@IEAAXPEAU_iobuf@@W4_Initfl@12@@Z$rtcName$2
	DD	068H
	DD	08H
	DQ	FLAT:?_Init@?$basic_filebuf@DU?$char_traits@D@std@@@std@@IEAAXPEAU_iobuf@@W4_Initfl@12@@Z$rtcName$1
	DD	048H
	DD	08H
	DQ	FLAT:?_Init@?$basic_filebuf@DU?$char_traits@D@std@@@std@@IEAAXPEAU_iobuf@@W4_Initfl@12@@Z$rtcName$0
	ORG $+144
?_Init@?$basic_filebuf@DU?$char_traits@D@std@@@std@@IEAAXPEAU_iobuf@@W4_Initfl@12@@Z$rtcFrameData DD 03H ; std::basic_filebuf<char,std::char_traits<char> >::_Init
	DD	00H
	DQ	FLAT:?_Init@?$basic_filebuf@DU?$char_traits@D@std@@@std@@IEAAXPEAU_iobuf@@W4_Initfl@12@@Z$rtcVarDesc
CONST	ENDS
;	COMDAT xdata
xdata	SEGMENT
$unwind$?imbue@?$basic_filebuf@DU?$char_traits@D@std@@@std@@MEAAXAEBVlocale@2@@Z DD 025052f01H
	DD	01132318H
	DD	0700c001dH
	DD	0500bH
xdata	ENDS
;	COMDAT xdata
xdata	SEGMENT
$unwind$?sync@?$basic_filebuf@DU?$char_traits@D@std@@@std@@MEAAHXZ DD 025052a01H
	DD	010e2313H
	DD	070070025H
	DD	05006H
xdata	ENDS
;	COMDAT xdata
xdata	SEGMENT
$unwind$?setbuf@?$basic_filebuf@DU?$char_traits@D@std@@@std@@MEAAPEAV?$basic_streambuf@DU?$char_traits@D@std@@@2@PEAD_J@Z DD 025053401H
	DD	0118231dH
	DD	070110025H
	DD	05010H
xdata	ENDS
;	COMDAT xdata
xdata	SEGMENT
$unwind$?seekpos@?$basic_filebuf@DU?$char_traits@D@std@@@std@@MEAA?AV?$fpos@U_Mbstatet@@@2@V32@H@Z DD 025054a19H
	DD	011d2322H
	DD	070160025H
	DD	05015H
	DD	imagerel __GSHandlerCheck
	DD	0118H
xdata	ENDS
;	COMDAT CONST
CONST	SEGMENT
?seekpos@?$basic_filebuf@DU?$char_traits@D@std@@@std@@MEAA?AV?$fpos@U_Mbstatet@@@2@V32@H@Z$rtcName$0 DB 05fH ; std::basic_filebuf<char,std::char_traits<char> >::seekpos
	DB	04fH
	DB	066H
	DB	066H
	DB	00H
	ORG $+11
?seekpos@?$basic_filebuf@DU?$char_traits@D@std@@@std@@MEAA?AV?$fpos@U_Mbstatet@@@2@V32@H@Z$rtcVarDesc DD 028H ; std::basic_filebuf<char,std::char_traits<char> >::seekpos
	DD	08H
	DQ	FLAT:?seekpos@?$basic_filebuf@DU?$char_traits@D@std@@@std@@MEAA?AV?$fpos@U_Mbstatet@@@2@V32@H@Z$rtcName$0
	ORG $+48
?seekpos@?$basic_filebuf@DU?$char_traits@D@std@@@std@@MEAA?AV?$fpos@U_Mbstatet@@@2@V32@H@Z$rtcFrameData DD 01H ; std::basic_filebuf<char,std::char_traits<char> >::seekpos
	DD	00H
	DQ	FLAT:?seekpos@?$basic_filebuf@DU?$char_traits@D@std@@@std@@MEAA?AV?$fpos@U_Mbstatet@@@2@V32@H@Z$rtcVarDesc
CONST	ENDS
;	COMDAT xdata
xdata	SEGMENT
$unwind$?seekoff@?$basic_filebuf@DU?$char_traits@D@std@@@std@@MEAA?AV?$fpos@U_Mbstatet@@@2@_JHH@Z DD 025054a19H
	DD	011d2322H
	DD	070160021H
	DD	05015H
	DD	imagerel __GSHandlerCheck
	DD	0f8H
xdata	ENDS
;	COMDAT CONST
CONST	SEGMENT
?seekoff@?$basic_filebuf@DU?$char_traits@D@std@@@std@@MEAA?AV?$fpos@U_Mbstatet@@@2@_JHH@Z$rtcName$0 DB 05fH ; std::basic_filebuf<char,std::char_traits<char> >::seekoff
	DB	046H
	DB	069H
	DB	06cH
	DB	065H
	DB	070H
	DB	06fH
	DB	073H
	DB	069H
	DB	074H
	DB	069H
	DB	06fH
	DB	06eH
	DB	00H
	ORG $+2
?seekoff@?$basic_filebuf@DU?$char_traits@D@std@@@std@@MEAA?AV?$fpos@U_Mbstatet@@@2@_JHH@Z$rtcVarDesc DD 028H ; std::basic_filebuf<char,std::char_traits<char> >::seekoff
	DD	08H
	DQ	FLAT:?seekoff@?$basic_filebuf@DU?$char_traits@D@std@@@std@@MEAA?AV?$fpos@U_Mbstatet@@@2@_JHH@Z$rtcName$0
	ORG $+48
?seekoff@?$basic_filebuf@DU?$char_traits@D@std@@@std@@MEAA?AV?$fpos@U_Mbstatet@@@2@_JHH@Z$rtcFrameData DD 01H ; std::basic_filebuf<char,std::char_traits<char> >::seekoff
	DD	00H
	DQ	FLAT:?seekoff@?$basic_filebuf@DU?$char_traits@D@std@@@std@@MEAA?AV?$fpos@U_Mbstatet@@@2@_JHH@Z$rtcVarDesc
CONST	ENDS
;	COMDAT xdata
xdata	SEGMENT
$unwind$?xsputn@?$basic_filebuf@DU?$char_traits@D@std@@@std@@MEAA_JPEBD_J@Z DD 025053401H
	DD	0118231dH
	DD	070110025H
	DD	05010H
xdata	ENDS
;	COMDAT xdata
xdata	SEGMENT
$unwind$?xsgetn@?$basic_filebuf@DU?$char_traits@D@std@@@std@@MEAA_JPEAD_J@Z DD 025054519H
	DD	0118231dH
	DD	070110035H
	DD	05010H
	DD	imagerel __GSHandlerCheck
	DD	0198H
xdata	ENDS
;	COMDAT CONST
CONST	SEGMENT
?xsgetn@?$basic_filebuf@DU?$char_traits@D@std@@@std@@MEAA_JPEAD_J@Z$rtcName$0 DB 05fH ; std::basic_filebuf<char,std::char_traits<char> >::xsgetn
	DB	043H
	DB	06fH
	DB	075H
	DB	06eH
	DB	074H
	DB	05fH
	DB	073H
	DB	00H
	ORG $+7
?xsgetn@?$basic_filebuf@DU?$char_traits@D@std@@@std@@MEAA_JPEAD_J@Z$rtcName$1 DB 05fH ; std::basic_filebuf<char,std::char_traits<char> >::xsgetn
	DB	041H
	DB	076H
	DB	061H
	DB	069H
	DB	06cH
	DB	061H
	DB	062H
	DB	06cH
	DB	065H
	DB	00H
	ORG $+5
?xsgetn@?$basic_filebuf@DU?$char_traits@D@std@@@std@@MEAA_JPEAD_J@Z$rtcVarDesc DD 068H ; std::basic_filebuf<char,std::char_traits<char> >::xsgetn
	DD	08H
	DQ	FLAT:?xsgetn@?$basic_filebuf@DU?$char_traits@D@std@@@std@@MEAA_JPEAD_J@Z$rtcName$1
	DD	028H
	DD	08H
	DQ	FLAT:?xsgetn@?$basic_filebuf@DU?$char_traits@D@std@@@std@@MEAA_JPEAD_J@Z$rtcName$0
	ORG $+96
?xsgetn@?$basic_filebuf@DU?$char_traits@D@std@@@std@@MEAA_JPEAD_J@Z$rtcFrameData DD 02H ; std::basic_filebuf<char,std::char_traits<char> >::xsgetn
	DD	00H
	DQ	FLAT:?xsgetn@?$basic_filebuf@DU?$char_traits@D@std@@@std@@MEAA_JPEAD_J@Z$rtcVarDesc
CONST	ENDS
;	COMDAT xdata
xdata	SEGMENT
$unwind$?dtor$0@?0??uflow@?$basic_filebuf@DU?$char_traits@D@std@@@std@@MEAAHXZ@4HA DD 031001H
	DD	0700c4210H
	DD	0500bH
xdata	ENDS
;	COMDAT xdata
xdata	SEGMENT
$ip2state$?uflow@?$basic_filebuf@DU?$char_traits@D@std@@@std@@MEAAHXZ DB 016H
	DB	00H
	DB	00H
	DB	091H, 04H
	DB	02H
	DB	'\'
	DB	00H
	DB	'('
	DB	02H
	DB	0e5H, 05H
	DB	00H
	DB	'"'
	DB	02H
	DB	'j'
	DB	00H
	DB	'"'
	DB	02H
	DB	016H
	DB	00H
	DB	'"'
	DB	02H
	DB	01eH
	DB	00H
xdata	ENDS
;	COMDAT xdata
xdata	SEGMENT
$stateUnwindMap$?uflow@?$basic_filebuf@DU?$char_traits@D@std@@@std@@MEAAHXZ DB 02H
	DB	0eH
	DD	imagerel ?dtor$0@?0??uflow@?$basic_filebuf@DU?$char_traits@D@std@@@std@@MEAAHXZ@4HA
xdata	ENDS
;	COMDAT xdata
xdata	SEGMENT
$cppxdata$?uflow@?$basic_filebuf@DU?$char_traits@D@std@@@std@@MEAAHXZ DB 028H
	DD	imagerel $stateUnwindMap$?uflow@?$basic_filebuf@DU?$char_traits@D@std@@@std@@MEAAHXZ
	DD	imagerel $ip2state$?uflow@?$basic_filebuf@DU?$char_traits@D@std@@@std@@MEAAHXZ
xdata	ENDS
;	COMDAT xdata
xdata	SEGMENT
$unwind$?uflow@?$basic_filebuf@DU?$char_traits@D@std@@@std@@MEAAHXZ DD 045053b19H
	DD	010e4313H
	DD	070070055H
	DD	05006H
	DD	imagerel __GSHandlerCheck_EH4
	DD	imagerel $cppxdata$?uflow@?$basic_filebuf@DU?$char_traits@D@std@@@std@@MEAAHXZ
	DD	029aH
xdata	ENDS
;	COMDAT CONST
CONST	SEGMENT
?uflow@?$basic_filebuf@DU?$char_traits@D@std@@@std@@MEAAHXZ$rtcName$0 DB 05fH ; std::basic_filebuf<char,std::char_traits<char> >::uflow
	DB	043H
	DB	068H
	DB	00H
?uflow@?$basic_filebuf@DU?$char_traits@D@std@@@std@@MEAAHXZ$rtcName$1 DB 05fH ; std::basic_filebuf<char,std::char_traits<char> >::uflow
	DB	053H
	DB	074H
	DB	072H
	DB	00H
	ORG $+3
?uflow@?$basic_filebuf@DU?$char_traits@D@std@@@std@@MEAAHXZ$rtcName$2 DB 05fH ; std::basic_filebuf<char,std::char_traits<char> >::uflow
	DB	053H
	DB	072H
	DB	063H
	DB	00H
	ORG $+3
?uflow@?$basic_filebuf@DU?$char_traits@D@std@@@std@@MEAAHXZ$rtcName$3 DB 05fH ; std::basic_filebuf<char,std::char_traits<char> >::uflow
	DB	043H
	DB	068H
	DB	00H
?uflow@?$basic_filebuf@DU?$char_traits@D@std@@@std@@MEAAHXZ$rtcName$4 DB 05fH ; std::basic_filebuf<char,std::char_traits<char> >::uflow
	DB	044H
	DB	065H
	DB	073H
	DB	074H
	DB	00H
	ORG $+2
?uflow@?$basic_filebuf@DU?$char_traits@D@std@@@std@@MEAAHXZ$rtcVarDesc DD 0108H ; std::basic_filebuf<char,std::char_traits<char> >::uflow
	DD	08H
	DQ	FLAT:?uflow@?$basic_filebuf@DU?$char_traits@D@std@@@std@@MEAAHXZ$rtcName$4
	DD	0e4H
	DD	01H
	DQ	FLAT:?uflow@?$basic_filebuf@DU?$char_traits@D@std@@@std@@MEAAHXZ$rtcName$3
	DD	0a8H
	DD	08H
	DQ	FLAT:?uflow@?$basic_filebuf@DU?$char_traits@D@std@@@std@@MEAAHXZ$rtcName$2
	DD	068H
	DD	028H
	DQ	FLAT:?uflow@?$basic_filebuf@DU?$char_traits@D@std@@@std@@MEAAHXZ$rtcName$1
	DD	044H
	DD	01H
	DQ	FLAT:?uflow@?$basic_filebuf@DU?$char_traits@D@std@@@std@@MEAAHXZ$rtcName$0
	ORG $+240
?uflow@?$basic_filebuf@DU?$char_traits@D@std@@@std@@MEAAHXZ$rtcFrameData DD 05H ; std::basic_filebuf<char,std::char_traits<char> >::uflow
	DD	00H
	DQ	FLAT:?uflow@?$basic_filebuf@DU?$char_traits@D@std@@@std@@MEAAHXZ$rtcVarDesc
CONST	ENDS
;	COMDAT xdata
xdata	SEGMENT
$unwind$?underflow@?$basic_filebuf@DU?$char_traits@D@std@@@std@@MEAAHXZ DD 025053b19H
	DD	010e2313H
	DD	070070027H
	DD	05006H
	DD	imagerel __GSHandlerCheck
	DD	0120H
xdata	ENDS
;	COMDAT CONST
CONST	SEGMENT
?underflow@?$basic_filebuf@DU?$char_traits@D@std@@@std@@MEAAHXZ$rtcName$0 DB 05fH ; std::basic_filebuf<char,std::char_traits<char> >::underflow
	DB	04dH
	DB	065H
	DB	074H
	DB	061H
	DB	00H
	ORG $+10
?underflow@?$basic_filebuf@DU?$char_traits@D@std@@@std@@MEAAHXZ$rtcVarDesc DD 024H ; std::basic_filebuf<char,std::char_traits<char> >::underflow
	DD	04H
	DQ	FLAT:?underflow@?$basic_filebuf@DU?$char_traits@D@std@@@std@@MEAAHXZ$rtcName$0
	ORG $+48
?underflow@?$basic_filebuf@DU?$char_traits@D@std@@@std@@MEAAHXZ$rtcFrameData DD 01H ; std::basic_filebuf<char,std::char_traits<char> >::underflow
	DD	00H
	DQ	FLAT:?underflow@?$basic_filebuf@DU?$char_traits@D@std@@@std@@MEAAHXZ$rtcVarDesc
CONST	ENDS
;	COMDAT xdata
xdata	SEGMENT
$unwind$?pbackfail@?$basic_filebuf@DU?$char_traits@D@std@@@std@@MEAAHH@Z DD 025052e01H
	DD	01122317H
	DD	0700b002dH
	DD	0500aH
xdata	ENDS
;	COMDAT xdata
xdata	SEGMENT
$unwind$?overflow@?$basic_filebuf@DU?$char_traits@D@std@@@std@@MEAAHH@Z DD 045053f19H
	DD	01124317H
	DD	0700b0043H
	DD	0500aH
	DD	imagerel __GSHandlerCheck
	DD	0200H
xdata	ENDS
;	COMDAT CONST
CONST	SEGMENT
?overflow@?$basic_filebuf@DU?$char_traits@D@std@@@std@@MEAAHH@Z$rtcName$0 DB 05fH ; std::basic_filebuf<char,std::char_traits<char> >::overflow
	DB	053H
	DB	074H
	DB	072H
	DB	00H
	ORG $+3
?overflow@?$basic_filebuf@DU?$char_traits@D@std@@@std@@MEAAHH@Z$rtcName$1 DB 05fH ; std::basic_filebuf<char,std::char_traits<char> >::overflow
	DB	043H
	DB	068H
	DB	00H
?overflow@?$basic_filebuf@DU?$char_traits@D@std@@@std@@MEAAHH@Z$rtcName$2 DB 05fH ; std::basic_filebuf<char,std::char_traits<char> >::overflow
	DB	053H
	DB	072H
	DB	063H
	DB	00H
	ORG $+3
?overflow@?$basic_filebuf@DU?$char_traits@D@std@@@std@@MEAAHH@Z$rtcName$3 DB 05fH ; std::basic_filebuf<char,std::char_traits<char> >::overflow
	DB	044H
	DB	065H
	DB	073H
	DB	074H
	DB	00H
	ORG $+6
?overflow@?$basic_filebuf@DU?$char_traits@D@std@@@std@@MEAAHH@Z$rtcVarDesc DD 0e8H ; std::basic_filebuf<char,std::char_traits<char> >::overflow
	DD	08H
	DQ	FLAT:?overflow@?$basic_filebuf@DU?$char_traits@D@std@@@std@@MEAAHH@Z$rtcName$3
	DD	0c8H
	DD	08H
	DQ	FLAT:?overflow@?$basic_filebuf@DU?$char_traits@D@std@@@std@@MEAAHH@Z$rtcName$2
	DD	0a4H
	DD	01H
	DQ	FLAT:?overflow@?$basic_filebuf@DU?$char_traits@D@std@@@std@@MEAAHH@Z$rtcName$1
	DD	068H
	DD	020H
	DQ	FLAT:?overflow@?$basic_filebuf@DU?$char_traits@D@std@@@std@@MEAAHH@Z$rtcName$0
	ORG $+192
?overflow@?$basic_filebuf@DU?$char_traits@D@std@@@std@@MEAAHH@Z$rtcFrameData DD 04H ; std::basic_filebuf<char,std::char_traits<char> >::overflow
	DD	00H
	DQ	FLAT:?overflow@?$basic_filebuf@DU?$char_traits@D@std@@@std@@MEAAHH@Z$rtcVarDesc
CONST	ENDS
;	COMDAT xdata
xdata	SEGMENT
$unwind$?_Unlock@?$basic_filebuf@DU?$char_traits@D@std@@@std@@UEAAXXZ DD 025052a01H
	DD	010e2313H
	DD	07007001dH
	DD	05006H
xdata	ENDS
;	COMDAT xdata
xdata	SEGMENT
$unwind$?_Lock@?$basic_filebuf@DU?$char_traits@D@std@@@std@@UEAAXXZ DD 025052a01H
	DD	010e2313H
	DD	07007001dH
	DD	05006H
xdata	ENDS
;	COMDAT xdata
xdata	SEGMENT
$unwind$?close@?$basic_filebuf@DU?$char_traits@D@std@@@std@@QEAAPEAV12@XZ DD 025052a01H
	DD	010e2313H
	DD	070070021H
	DD	05006H
xdata	ENDS
;	COMDAT xdata
xdata	SEGMENT
$unwind$?dtor$0@?0??open@?$basic_filebuf@DU?$char_traits@D@std@@@std@@QEAAPEAV12@PEB_WHH@Z@4HA DD 031001H
	DD	0700c4210H
	DD	0500bH
xdata	ENDS
;	COMDAT xdata
xdata	SEGMENT
$ip2state$?open@?$basic_filebuf@DU?$char_traits@D@std@@@std@@QEAAPEAV12@PEB_WHH@Z DB 06H
	DB	00H
	DB	00H
	DB	011H, 03H
	DB	02H
	DB	'8'
	DB	00H
xdata	ENDS
;	COMDAT xdata
xdata	SEGMENT
$stateUnwindMap$?open@?$basic_filebuf@DU?$char_traits@D@std@@@std@@QEAAPEAV12@PEB_WHH@Z DB 02H
	DB	0eH
	DD	imagerel ?dtor$0@?0??open@?$basic_filebuf@DU?$char_traits@D@std@@@std@@QEAAPEAV12@PEB_WHH@Z@4HA
xdata	ENDS
;	COMDAT xdata
xdata	SEGMENT
$cppxdata$?open@?$basic_filebuf@DU?$char_traits@D@std@@@std@@QEAAPEAV12@PEB_WHH@Z DB 028H
	DD	imagerel $stateUnwindMap$?open@?$basic_filebuf@DU?$char_traits@D@std@@@std@@QEAAPEAV12@PEB_WHH@Z
	DD	imagerel $ip2state$?open@?$basic_filebuf@DU?$char_traits@D@std@@@std@@QEAAPEAV12@PEB_WHH@Z
xdata	ENDS
;	COMDAT xdata
xdata	SEGMENT
$unwind$?open@?$basic_filebuf@DU?$char_traits@D@std@@@std@@QEAAPEAV12@PEB_WHH@Z DD 025053911H
	DD	011d2322H
	DD	070160029H
	DD	05015H
	DD	imagerel __CxxFrameHandler4
	DD	imagerel $cppxdata$?open@?$basic_filebuf@DU?$char_traits@D@std@@@std@@QEAAPEAV12@PEB_WHH@Z
xdata	ENDS
;	COMDAT xdata
xdata	SEGMENT
$ip2state$??1?$basic_filebuf@DU?$char_traits@D@std@@@std@@UEAA@XZ DB 02H
	DB	00H
	DB	00H
xdata	ENDS
;	COMDAT xdata
xdata	SEGMENT
$cppxdata$??1?$basic_filebuf@DU?$char_traits@D@std@@@std@@UEAA@XZ DB 060H
	DD	imagerel $ip2state$??1?$basic_filebuf@DU?$char_traits@D@std@@@std@@UEAA@XZ
xdata	ENDS
;	COMDAT xdata
xdata	SEGMENT
$unwind$??1?$basic_filebuf@DU?$char_traits@D@std@@@std@@UEAA@XZ DD 025052a19H
	DD	010e2313H
	DD	07007001dH
	DD	05006H
	DD	imagerel __CxxFrameHandler4
	DD	imagerel $cppxdata$??1?$basic_filebuf@DU?$char_traits@D@std@@@std@@UEAA@XZ
xdata	ENDS
;	COMDAT xdata
xdata	SEGMENT
$unwind$?dtor$0@?0???0?$basic_filebuf@DU?$char_traits@D@std@@@std@@QEAA@XZ@4HA DD 031001H
	DD	0700c4210H
	DD	0500bH
xdata	ENDS
;	COMDAT xdata
xdata	SEGMENT
$ip2state$??0?$basic_filebuf@DU?$char_traits@D@std@@@std@@QEAA@XZ DB 06H
	DB	00H
	DB	00H
	DB	088H
	DB	02H
	DB	'F'
	DB	00H
xdata	ENDS
;	COMDAT xdata
xdata	SEGMENT
$stateUnwindMap$??0?$basic_filebuf@DU?$char_traits@D@std@@@std@@QEAA@XZ DB 02H
	DB	0eH
	DD	imagerel ?dtor$0@?0???0?$basic_filebuf@DU?$char_traits@D@std@@@std@@QEAA@XZ@4HA
xdata	ENDS
;	COMDAT xdata
xdata	SEGMENT
$cppxdata$??0?$basic_filebuf@DU?$char_traits@D@std@@@std@@QEAA@XZ DB 028H
	DD	imagerel $stateUnwindMap$??0?$basic_filebuf@DU?$char_traits@D@std@@@std@@QEAA@XZ
	DD	imagerel $ip2state$??0?$basic_filebuf@DU?$char_traits@D@std@@@std@@QEAA@XZ
xdata	ENDS
;	COMDAT xdata
xdata	SEGMENT
$unwind$??0?$basic_filebuf@DU?$char_traits@D@std@@@std@@QEAA@XZ DD 025052a11H
	DD	010e2313H
	DD	07007001dH
	DD	05006H
	DD	imagerel __CxxFrameHandler4
	DD	imagerel $cppxdata$??0?$basic_filebuf@DU?$char_traits@D@std@@@std@@QEAA@XZ
xdata	ENDS
;	COMDAT xdata
xdata	SEGMENT
$unwind$?close@?$basic_fstream@DU?$char_traits@D@std@@@std@@QEAAXXZ DD 025052a01H
	DD	010e2313H
	DD	07007001dH
	DD	05006H
xdata	ENDS
;	COMDAT xdata
xdata	SEGMENT
$ip2state$??1?$basic_fstream@DU?$char_traits@D@std@@@std@@UEAA@XZ DB 02H
	DB	00H
	DB	00H
xdata	ENDS
;	COMDAT xdata
xdata	SEGMENT
$cppxdata$??1?$basic_fstream@DU?$char_traits@D@std@@@std@@UEAA@XZ DB 060H
	DD	imagerel $ip2state$??1?$basic_fstream@DU?$char_traits@D@std@@@std@@UEAA@XZ
xdata	ENDS
;	COMDAT xdata
xdata	SEGMENT
$unwind$??1?$basic_fstream@DU?$char_traits@D@std@@@std@@UEAA@XZ DD 025052a19H
	DD	010e2313H
	DD	07007001dH
	DD	05006H
	DD	imagerel __CxxFrameHandler4
	DD	imagerel $cppxdata$??1?$basic_fstream@DU?$char_traits@D@std@@@std@@UEAA@XZ
xdata	ENDS
;	COMDAT xdata
xdata	SEGMENT
$unwind$?dtor$2@?0???0?$basic_fstream@DU?$char_traits@D@std@@@std@@QEAA@PEB_WHH@Z@4HA DD 031001H
	DD	0700c4210H
	DD	0500bH
xdata	ENDS
;	COMDAT xdata
xdata	SEGMENT
$unwind$?dtor$1@?0???0?$basic_fstream@DU?$char_traits@D@std@@@std@@QEAA@PEB_WHH@Z@4HA DD 031001H
	DD	0700c4210H
	DD	0500bH
xdata	ENDS
;	COMDAT xdata
xdata	SEGMENT
$unwind$?dtor$0@?0???0?$basic_fstream@DU?$char_traits@D@std@@@std@@QEAA@PEB_WHH@Z@4HA DD 031001H
	DD	0700c4210H
	DD	0500bH
xdata	ENDS
;	COMDAT xdata
xdata	SEGMENT
$ip2state$??0?$basic_fstream@DU?$char_traits@D@std@@@std@@QEAA@PEB_WHH@Z DB 0aH
	DB	00H
	DB	00H
	DB	'I', 02H
	DB	02H
	DB	'l'
	DB	04H
	DB	0c2H
	DB	06H
	DB	0b4H
	DB	00H
xdata	ENDS
;	COMDAT xdata
xdata	SEGMENT
$stateUnwindMap$??0?$basic_fstream@DU?$char_traits@D@std@@@std@@QEAA@PEB_WHH@Z DB 06H
	DB	0eH
	DD	imagerel ?dtor$0@?0???0?$basic_fstream@DU?$char_traits@D@std@@@std@@QEAA@PEB_WHH@Z@4HA
	DB	02eH
	DD	imagerel ?dtor$1@?0???0?$basic_fstream@DU?$char_traits@D@std@@@std@@QEAA@PEB_WHH@Z@4HA
	DB	02eH
	DD	imagerel ?dtor$2@?0???0?$basic_fstream@DU?$char_traits@D@std@@@std@@QEAA@PEB_WHH@Z@4HA
xdata	ENDS
;	COMDAT xdata
xdata	SEGMENT
$cppxdata$??0?$basic_fstream@DU?$char_traits@D@std@@@std@@QEAA@PEB_WHH@Z DB 028H
	DD	imagerel $stateUnwindMap$??0?$basic_fstream@DU?$char_traits@D@std@@@std@@QEAA@PEB_WHH@Z
	DD	imagerel $ip2state$??0?$basic_fstream@DU?$char_traits@D@std@@@std@@QEAA@PEB_WHH@Z
xdata	ENDS
;	COMDAT xdata
xdata	SEGMENT
$unwind$??0?$basic_fstream@DU?$char_traits@D@std@@@std@@QEAA@PEB_WHH@Z DD 025053911H
	DD	011d2322H
	DD	070160021H
	DD	05015H
	DD	imagerel __CxxFrameHandler4
	DD	imagerel $cppxdata$??0?$basic_fstream@DU?$char_traits@D@std@@@std@@QEAA@PEB_WHH@Z
xdata	ENDS
;	COMDAT xdata
xdata	SEGMENT
$unwind$?dtor$0@?0??getin@In@@YA?AUIN@1@QEA_W@Z@4HA DD 031001H
	DD	0700c4210H
	DD	0500bH
xdata	ENDS
;	COMDAT xdata
xdata	SEGMENT
$ip2state$?getin@In@@YA?AUIN@1@QEA_W@Z DB 08H
	DB	00H
	DB	00H
	DB	0adH, 02H
	DB	02H
	DB	'-', 016H
	DB	00H
	DB	0bcH
	DB	02H
xdata	ENDS
;	COMDAT xdata
xdata	SEGMENT
$stateUnwindMap$?getin@In@@YA?AUIN@1@QEA_W@Z DB 02H
	DB	0eH
	DD	imagerel ?dtor$0@?0??getin@In@@YA?AUIN@1@QEA_W@Z@4HA
xdata	ENDS
;	COMDAT xdata
xdata	SEGMENT
$cppxdata$?getin@In@@YA?AUIN@1@QEA_W@Z DB 028H
	DD	imagerel $stateUnwindMap$?getin@In@@YA?AUIN@1@QEA_W@Z
	DD	imagerel $ip2state$?getin@In@@YA?AUIN@1@QEA_W@Z
xdata	ENDS
;	COMDAT xdata
xdata	SEGMENT
$unwind$?getin@In@@YA?AUIN@1@QEA_W@Z DD 035064719H
	DD	011a331fH
	DD	0700d03baH
	DD	0500b600cH
	DD	imagerel __GSHandlerCheck_EH4
	DD	imagerel $cppxdata$?getin@In@@YA?AUIN@1@QEA_W@Z
	DD	01dcaH
xdata	ENDS
;	COMDAT CONST
CONST	SEGMENT
?getin@In@@YA?AUIN@1@QEA_W@Z$rtcName$0 DB 066H		; In::getin
	DB	069H
	DB	06eH
	DB	00H
?getin@In@@YA?AUIN@1@QEA_W@Z$rtcName$1 DB 069H		; In::getin
	DB	06eH
	DB	00H
	ORG $+9
?getin@In@@YA?AUIN@1@QEA_W@Z$rtcVarDesc DD 0220H	; In::getin
	DD	0218H
	DQ	FLAT:?getin@In@@YA?AUIN@1@QEA_W@Z$rtcName$1
	DD	0e0H
	DD	0118H
	DQ	FLAT:?getin@In@@YA?AUIN@1@QEA_W@Z$rtcName$0
	ORG $+96
?getin@In@@YA?AUIN@1@QEA_W@Z$rtcFrameData DD 02H	; In::getin
	DD	00H
	DQ	FLAT:?getin@In@@YA?AUIN@1@QEA_W@Z$rtcVarDesc
CONST	ENDS
;	COMDAT xdata
xdata	SEGMENT
$unwind$??0IN@In@@QEAA@XZ DD 05052801H
	DD	010e0311H
	DD	070070019H
	DD	05006H
xdata	ENDS
;	COMDAT xdata
xdata	SEGMENT
$unwind$??$_Ungetc@D@std@@YA_NAEBDPEAU_iobuf@@@Z DD 025052f01H
	DD	01132318H
	DD	0700c001fH
	DD	0500bH
xdata	ENDS
;	COMDAT xdata
xdata	SEGMENT
$unwind$??$_Fputc@D@std@@YA_NDPEAU_iobuf@@@Z DD 025052e01H
	DD	01122317H
	DD	0700b001fH
	DD	0500aH
xdata	ENDS
;	COMDAT xdata
xdata	SEGMENT
$unwind$??$_Fgetc@D@std@@YA_NAEADPEAU_iobuf@@@Z DD 025052f01H
	DD	01132318H
	DD	0700c0021H
	DD	0500bH
xdata	ENDS
;	COMDAT xdata
xdata	SEGMENT
$unwind$??$_Getvals@_W@?$time_get@_WV?$istreambuf_iterator@_WU?$char_traits@_W@std@@@std@@@std@@IEAAX_WAEBV_Locinfo@1@@Z DD 025063501H
	DD	0119231eH
	DD	070120026H
	DD	050106011H
xdata	ENDS
;	COMDAT xdata
xdata	SEGMENT
$unwind$??$_Getvals@_W@?$time_get@DV?$istreambuf_iterator@DU?$char_traits@D@std@@@std@@@std@@IEAAX_WAEBV_Locinfo@1@@Z DD 025063501H
	DD	0119231eH
	DD	070120026H
	DD	050106011H
xdata	ENDS
;	COMDAT xdata
xdata	SEGMENT
$unwind$??$_Maklocstr@D@std@@YAPEADPEBDPEADAEBU_Cvtvec@@@Z DD 035053401H
	DD	0118331dH
	DD	07011002bH
	DD	05010H
xdata	ENDS
;	COMDAT xdata
xdata	SEGMENT
$unwind$?_Maklocwcs@std@@YAPEA_WPEB_W@Z DD 035052a01H
	DD	010e3313H
	DD	070070027H
	DD	05006H
xdata	ENDS
;	COMDAT xdata
xdata	SEGMENT
$unwind$??B?$fpos@U_Mbstatet@@@std@@QEBA_JXZ DD 025052a01H
	DD	010e2313H
	DD	07007001dH
	DD	05006H
xdata	ENDS
;	COMDAT xdata
xdata	SEGMENT
$unwind$?state@?$fpos@U_Mbstatet@@@std@@QEBA?AU_Mbstatet@@XZ DD 025052f01H
	DD	01132318H
	DD	0700c001dH
	DD	0500bH
xdata	ENDS
;	COMDAT xdata
xdata	SEGMENT
$unwind$??0?$fpos@U_Mbstatet@@@std@@QEAA@U_Mbstatet@@_J@Z DD 025053401H
	DD	0118231dH
	DD	07011001dH
	DD	05010H
xdata	ENDS
;	COMDAT xdata
xdata	SEGMENT
$unwind$??0?$fpos@U_Mbstatet@@@std@@QEAA@_J@Z DD 025052f01H
	DD	01132318H
	DD	0700c001dH
	DD	0500bH
xdata	ENDS
;	COMDAT xdata
xdata	SEGMENT
$unwind$??$_Maklocstr@_W@std@@YAPEA_WPEBDPEA_WAEBU_Cvtvec@@@Z DD 035054519H
	DD	0118331dH
	DD	070110047H
	DD	05010H
	DD	imagerel __GSHandlerCheck
	DD	0228H
xdata	ENDS
;	COMDAT CONST
CONST	SEGMENT
??$_Maklocstr@_W@std@@YAPEA_WPEBDPEA_WAEBU_Cvtvec@@@Z$rtcName$0 DB 05fH ; std::_Maklocstr<wchar_t>
	DB	057H
	DB	063H
	DB	00H
??$_Maklocstr@_W@std@@YAPEA_WPEBDPEA_WAEBU_Cvtvec@@@Z$rtcName$1 DB 05fH ; std::_Maklocstr<wchar_t>
	DB	04dH
	DB	062H
	DB	073H
	DB	074H
	DB	031H
	DB	00H
	ORG $+1
??$_Maklocstr@_W@std@@YAPEA_WPEBDPEA_WAEBU_Cvtvec@@@Z$rtcName$2 DB 05fH ; std::_Maklocstr<wchar_t>
	DB	04dH
	DB	062H
	DB	073H
	DB	074H
	DB	032H
	DB	00H
	ORG $+13
??$_Maklocstr@_W@std@@YAPEA_WPEBDPEA_WAEBU_Cvtvec@@@Z$rtcVarDesc DD 0158H ; std::_Maklocstr<wchar_t>
	DD	08H
	DQ	FLAT:??$_Maklocstr@_W@std@@YAPEA_WPEBDPEA_WAEBU_Cvtvec@@@Z$rtcName$2
	DD	0f8H
	DD	08H
	DQ	FLAT:??$_Maklocstr@_W@std@@YAPEA_WPEBDPEA_WAEBU_Cvtvec@@@Z$rtcName$1
	DD	0d4H
	DD	02H
	DQ	FLAT:??$_Maklocstr@_W@std@@YAPEA_WPEBDPEA_WAEBU_Cvtvec@@@Z$rtcName$0
	ORG $+144
??$_Maklocstr@_W@std@@YAPEA_WPEBDPEA_WAEBU_Cvtvec@@@Z$rtcFrameData DD 03H ; std::_Maklocstr<wchar_t>
	DD	00H
	DQ	FLAT:??$_Maklocstr@_W@std@@YAPEA_WPEBDPEA_WAEBU_Cvtvec@@@Z$rtcVarDesc
CONST	ENDS
;	COMDAT xdata
xdata	SEGMENT
$unwind$?_Getfacet@locale@std@@QEBAPEBVfacet@12@_K@Z DD 025052f01H
	DD	01132318H
	DD	0700c0025H
	DD	0500bH
xdata	ENDS
;	COMDAT xdata
xdata	SEGMENT
$ip2state$??1locale@std@@QEAA@XZ DB 02H
	DB	00H
	DB	00H
xdata	ENDS
;	COMDAT xdata
xdata	SEGMENT
$cppxdata$??1locale@std@@QEAA@XZ DB 060H
	DD	imagerel $ip2state$??1locale@std@@QEAA@XZ
xdata	ENDS
;	COMDAT xdata
xdata	SEGMENT
$unwind$??1locale@std@@QEAA@XZ DD 025052a19H
	DD	010e2313H
	DD	070070021H
	DD	05006H
	DD	imagerel __CxxFrameHandler4
	DD	imagerel $cppxdata$??1locale@std@@QEAA@XZ
xdata	ENDS
;	COMDAT xdata
xdata	SEGMENT
$unwind$?_Throw_bad_cast@std@@YAXXZ DD 025051e01H
	DD	010a230fH
	DD	070030023H
	DD	05002H
xdata	ENDS
;	COMDAT xdata
xdata	SEGMENT
$unwind$??_Gbad_cast@std@@UEAAPEAXI@Z DD 025052e01H
	DD	01122317H
	DD	0700b001dH
	DD	0500aH
xdata	ENDS
;	COMDAT xdata
xdata	SEGMENT
$unwind$??0bad_cast@std@@QEAA@AEBV01@@Z DD 025052f01H
	DD	01132318H
	DD	0700c001dH
	DD	0500bH
xdata	ENDS
;	COMDAT xdata
xdata	SEGMENT
$unwind$??1bad_cast@std@@UEAA@XZ DD 025052a01H
	DD	010e2313H
	DD	07007001dH
	DD	05006H
xdata	ENDS
;	COMDAT xdata
xdata	SEGMENT
$ip2state$??0bad_cast@std@@QEAA@XZ DB 02H
	DB	00H
	DB	00H
xdata	ENDS
;	COMDAT xdata
xdata	SEGMENT
$cppxdata$??0bad_cast@std@@QEAA@XZ DB 060H
	DD	imagerel $ip2state$??0bad_cast@std@@QEAA@XZ
xdata	ENDS
;	COMDAT xdata
xdata	SEGMENT
$unwind$??0bad_cast@std@@QEAA@XZ DD 025052a19H
	DD	010e2313H
	DD	07007001dH
	DD	05006H
	DD	imagerel __CxxFrameHandler4
	DD	imagerel $cppxdata$??0bad_cast@std@@QEAA@XZ
xdata	ENDS
;	COMDAT xdata
xdata	SEGMENT
$unwind$??1?$_Compressed_pair@V?$allocator@D@std@@V?$_String_val@U?$_Simple_types@D@std@@@2@$00@std@@QEAA@XZ DD 025052a01H
	DD	010e2313H
	DD	07007001dH
	DD	05006H
xdata	ENDS
;	COMDAT xdata
xdata	SEGMENT
$ip2state$?_Get_first@?$_Compressed_pair@V?$allocator@D@std@@V?$_String_val@U?$_Simple_types@D@std@@@2@$00@std@@QEBAAEBV?$allocator@D@2@XZ DB 02H
	DB	00H
	DB	00H
xdata	ENDS
;	COMDAT xdata
xdata	SEGMENT
$cppxdata$?_Get_first@?$_Compressed_pair@V?$allocator@D@std@@V?$_String_val@U?$_Simple_types@D@std@@@2@$00@std@@QEBAAEBV?$allocator@D@2@XZ DB 060H
	DD	imagerel $ip2state$?_Get_first@?$_Compressed_pair@V?$allocator@D@std@@V?$_String_val@U?$_Simple_types@D@std@@@2@$00@std@@QEBAAEBV?$allocator@D@2@XZ
xdata	ENDS
;	COMDAT xdata
xdata	SEGMENT
$unwind$?_Get_first@?$_Compressed_pair@V?$allocator@D@std@@V?$_String_val@U?$_Simple_types@D@std@@@2@$00@std@@QEBAAEBV?$allocator@D@2@XZ DD 025052a19H
	DD	010e2313H
	DD	07007001dH
	DD	05006H
	DD	imagerel __CxxFrameHandler4
	DD	imagerel $cppxdata$?_Get_first@?$_Compressed_pair@V?$allocator@D@std@@V?$_String_val@U?$_Simple_types@D@std@@@2@$00@std@@QEBAAEBV?$allocator@D@2@XZ
xdata	ENDS
;	COMDAT xdata
xdata	SEGMENT
$ip2state$?_Get_first@?$_Compressed_pair@V?$allocator@D@std@@V?$_String_val@U?$_Simple_types@D@std@@@2@$00@std@@QEAAAEAV?$allocator@D@2@XZ DB 02H
	DB	00H
	DB	00H
xdata	ENDS
;	COMDAT xdata
xdata	SEGMENT
$cppxdata$?_Get_first@?$_Compressed_pair@V?$allocator@D@std@@V?$_String_val@U?$_Simple_types@D@std@@@2@$00@std@@QEAAAEAV?$allocator@D@2@XZ DB 060H
	DD	imagerel $ip2state$?_Get_first@?$_Compressed_pair@V?$allocator@D@std@@V?$_String_val@U?$_Simple_types@D@std@@@2@$00@std@@QEAAAEAV?$allocator@D@2@XZ
xdata	ENDS
;	COMDAT xdata
xdata	SEGMENT
$unwind$?_Get_first@?$_Compressed_pair@V?$allocator@D@std@@V?$_String_val@U?$_Simple_types@D@std@@@2@$00@std@@QEAAAEAV?$allocator@D@2@XZ DD 025052a19H
	DD	010e2313H
	DD	07007001dH
	DD	05006H
	DD	imagerel __CxxFrameHandler4
	DD	imagerel $cppxdata$?_Get_first@?$_Compressed_pair@V?$allocator@D@std@@V?$_String_val@U?$_Simple_types@D@std@@@2@$00@std@@QEAAAEAV?$allocator@D@2@XZ
xdata	ENDS
;	COMDAT xdata
xdata	SEGMENT
$ip2state$?_Getal@?$basic_string@DU?$char_traits@D@std@@V?$allocator@D@2@@std@@AEBAAEBV?$allocator@D@2@XZ DB 02H
	DB	00H
	DB	00H
xdata	ENDS
;	COMDAT xdata
xdata	SEGMENT
$cppxdata$?_Getal@?$basic_string@DU?$char_traits@D@std@@V?$allocator@D@2@@std@@AEBAAEBV?$allocator@D@2@XZ DB 060H
	DD	imagerel $ip2state$?_Getal@?$basic_string@DU?$char_traits@D@std@@V?$allocator@D@2@@std@@AEBAAEBV?$allocator@D@2@XZ
xdata	ENDS
;	COMDAT xdata
xdata	SEGMENT
$unwind$?_Getal@?$basic_string@DU?$char_traits@D@std@@V?$allocator@D@2@@std@@AEBAAEBV?$allocator@D@2@XZ DD 025052a19H
	DD	010e2313H
	DD	07007001dH
	DD	05006H
	DD	imagerel __CxxFrameHandler4
	DD	imagerel $cppxdata$?_Getal@?$basic_string@DU?$char_traits@D@std@@V?$allocator@D@2@@std@@AEBAAEBV?$allocator@D@2@XZ
xdata	ENDS
;	COMDAT xdata
xdata	SEGMENT
$ip2state$?_Getal@?$basic_string@DU?$char_traits@D@std@@V?$allocator@D@2@@std@@AEAAAEAV?$allocator@D@2@XZ DB 02H
	DB	00H
	DB	00H
xdata	ENDS
;	COMDAT xdata
xdata	SEGMENT
$cppxdata$?_Getal@?$basic_string@DU?$char_traits@D@std@@V?$allocator@D@2@@std@@AEAAAEAV?$allocator@D@2@XZ DB 060H
	DD	imagerel $ip2state$?_Getal@?$basic_string@DU?$char_traits@D@std@@V?$allocator@D@2@@std@@AEAAAEAV?$allocator@D@2@XZ
xdata	ENDS
;	COMDAT xdata
xdata	SEGMENT
$unwind$?_Getal@?$basic_string@DU?$char_traits@D@std@@V?$allocator@D@2@@std@@AEAAAEAV?$allocator@D@2@XZ DD 025052a19H
	DD	010e2313H
	DD	07007001dH
	DD	05006H
	DD	imagerel __CxxFrameHandler4
	DD	imagerel $cppxdata$?_Getal@?$basic_string@DU?$char_traits@D@std@@V?$allocator@D@2@@std@@AEAAAEAV?$allocator@D@2@XZ
xdata	ENDS
;	COMDAT xdata
xdata	SEGMENT
$ip2state$?_Tidy_deallocate@?$basic_string@DU?$char_traits@D@std@@V?$allocator@D@2@@std@@AEAAXXZ DB 02H
	DB	00H
	DB	00H
xdata	ENDS
;	COMDAT xdata
xdata	SEGMENT
$cppxdata$?_Tidy_deallocate@?$basic_string@DU?$char_traits@D@std@@V?$allocator@D@2@@std@@AEAAXXZ DB 060H
	DD	imagerel $ip2state$?_Tidy_deallocate@?$basic_string@DU?$char_traits@D@std@@V?$allocator@D@2@@std@@AEAAXXZ
xdata	ENDS
;	COMDAT xdata
xdata	SEGMENT
$unwind$?_Tidy_deallocate@?$basic_string@DU?$char_traits@D@std@@V?$allocator@D@2@@std@@AEAAXXZ DD 025052a19H
	DD	010e2313H
	DD	070070029H
	DD	05006H
	DD	imagerel __CxxFrameHandler4
	DD	imagerel $cppxdata$?_Tidy_deallocate@?$basic_string@DU?$char_traits@D@std@@V?$allocator@D@2@@std@@AEAAXXZ
xdata	ENDS
;	COMDAT xdata
xdata	SEGMENT
$ip2state$?_Tidy_init@?$basic_string@DU?$char_traits@D@std@@V?$allocator@D@2@@std@@AEAAXXZ DB 02H
	DB	00H
	DB	00H
xdata	ENDS
;	COMDAT xdata
xdata	SEGMENT
$cppxdata$?_Tidy_init@?$basic_string@DU?$char_traits@D@std@@V?$allocator@D@2@@std@@AEAAXXZ DB 060H
	DD	imagerel $ip2state$?_Tidy_init@?$basic_string@DU?$char_traits@D@std@@V?$allocator@D@2@@std@@AEAAXXZ
xdata	ENDS
;	COMDAT xdata
xdata	SEGMENT
$unwind$?_Tidy_init@?$basic_string@DU?$char_traits@D@std@@V?$allocator@D@2@@std@@AEAAXXZ DD 025052a19H
	DD	010e2313H
	DD	070070021H
	DD	05006H
	DD	imagerel __CxxFrameHandler4
	DD	imagerel $cppxdata$?_Tidy_init@?$basic_string@DU?$char_traits@D@std@@V?$allocator@D@2@@std@@AEAAXXZ
xdata	ENDS
;	COMDAT xdata
xdata	SEGMENT
$ip2state$?_Calculate_growth@?$basic_string@DU?$char_traits@D@std@@V?$allocator@D@2@@std@@AEBA_K_K@Z DB 02H
	DB	00H
	DB	00H
xdata	ENDS
;	COMDAT xdata
xdata	SEGMENT
$cppxdata$?_Calculate_growth@?$basic_string@DU?$char_traits@D@std@@V?$allocator@D@2@@std@@AEBA_K_K@Z DB 060H
	DD	imagerel $ip2state$?_Calculate_growth@?$basic_string@DU?$char_traits@D@std@@V?$allocator@D@2@@std@@AEBA_K_K@Z
xdata	ENDS
;	COMDAT xdata
xdata	SEGMENT
$unwind$?_Calculate_growth@?$basic_string@DU?$char_traits@D@std@@V?$allocator@D@2@@std@@AEBA_K_K@Z DD 025052f19H
	DD	01132318H
	DD	0700c001dH
	DD	0500bH
	DD	imagerel __CxxFrameHandler4
	DD	imagerel $cppxdata$?_Calculate_growth@?$basic_string@DU?$char_traits@D@std@@V?$allocator@D@2@@std@@AEBA_K_K@Z
xdata	ENDS
;	COMDAT xdata
xdata	SEGMENT
$ip2state$?_Calculate_growth@?$basic_string@DU?$char_traits@D@std@@V?$allocator@D@2@@std@@CA_K_K00@Z DB 02H
	DB	00H
	DB	00H
xdata	ENDS
;	COMDAT xdata
xdata	SEGMENT
$cppxdata$?_Calculate_growth@?$basic_string@DU?$char_traits@D@std@@V?$allocator@D@2@@std@@CA_K_K00@Z DB 060H
	DD	imagerel $ip2state$?_Calculate_growth@?$basic_string@DU?$char_traits@D@std@@V?$allocator@D@2@@std@@CA_K_K00@Z
xdata	ENDS
;	COMDAT xdata
xdata	SEGMENT
$unwind$?_Calculate_growth@?$basic_string@DU?$char_traits@D@std@@V?$allocator@D@2@@std@@CA_K_K00@Z DD 025054519H
	DD	0118231dH
	DD	070110025H
	DD	05010H
	DD	imagerel __GSHandlerCheck_EH4
	DD	imagerel $cppxdata$?_Calculate_growth@?$basic_string@DU?$char_traits@D@std@@V?$allocator@D@2@@std@@CA_K_K00@Z
	DD	011bH
xdata	ENDS
;	COMDAT CONST
CONST	SEGMENT
?_Calculate_growth@?$basic_string@DU?$char_traits@D@std@@V?$allocator@D@2@@std@@CA_K_K00@Z$rtcName$0 DB 05fH ; std::basic_string<char,std::char_traits<char>,std::allocator<char> >::_Calculate_growth
	DB	04dH
	DB	061H
	DB	073H
	DB	06bH
	DB	065H
	DB	064H
	DB	00H
	ORG $+8
?_Calculate_growth@?$basic_string@DU?$char_traits@D@std@@V?$allocator@D@2@@std@@CA_K_K00@Z$rtcVarDesc DD 028H ; std::basic_string<char,std::char_traits<char>,std::allocator<char> >::_Calculate_growth
	DD	08H
	DQ	FLAT:?_Calculate_growth@?$basic_string@DU?$char_traits@D@std@@V?$allocator@D@2@@std@@CA_K_K00@Z$rtcName$0
	ORG $+48
?_Calculate_growth@?$basic_string@DU?$char_traits@D@std@@V?$allocator@D@2@@std@@CA_K_K00@Z$rtcFrameData DD 01H ; std::basic_string<char,std::char_traits<char>,std::allocator<char> >::_Calculate_growth
	DD	00H
	DQ	FLAT:?_Calculate_growth@?$basic_string@DU?$char_traits@D@std@@V?$allocator@D@2@@std@@CA_K_K00@Z$rtcVarDesc
CONST	ENDS
;	COMDAT xdata
xdata	SEGMENT
$ip2state$?max_size@?$basic_string@DU?$char_traits@D@std@@V?$allocator@D@2@@std@@QEBA_KXZ DB 02H
	DB	00H
	DB	00H
xdata	ENDS
;	COMDAT xdata
xdata	SEGMENT
$cppxdata$?max_size@?$basic_string@DU?$char_traits@D@std@@V?$allocator@D@2@@std@@QEBA_KXZ DB 060H
	DD	imagerel $ip2state$?max_size@?$basic_string@DU?$char_traits@D@std@@V?$allocator@D@2@@std@@QEBA_KXZ
xdata	ENDS
;	COMDAT xdata
xdata	SEGMENT
$unwind$?max_size@?$basic_string@DU?$char_traits@D@std@@V?$allocator@D@2@@std@@QEBA_KXZ DD 025053b19H
	DD	010e2313H
	DD	070070031H
	DD	05006H
	DD	imagerel __GSHandlerCheck_EH4
	DD	imagerel $cppxdata$?max_size@?$basic_string@DU?$char_traits@D@std@@V?$allocator@D@2@@std@@QEBA_KXZ
	DD	017bH
xdata	ENDS
;	COMDAT CONST
CONST	SEGMENT
?max_size@?$basic_string@DU?$char_traits@D@std@@V?$allocator@D@2@@std@@QEBA_KXZ$rtcName$0 DB 05fH ; std::basic_string<char,std::char_traits<char>,std::allocator<char> >::max_size
	DB	041H
	DB	06cH
	DB	06cH
	DB	06fH
	DB	063H
	DB	05fH
	DB	06dH
	DB	061H
	DB	078H
	DB	00H
	ORG $+5
?max_size@?$basic_string@DU?$char_traits@D@std@@V?$allocator@D@2@@std@@QEBA_KXZ$rtcVarDesc DD 028H ; std::basic_string<char,std::char_traits<char>,std::allocator<char> >::max_size
	DD	08H
	DQ	FLAT:?max_size@?$basic_string@DU?$char_traits@D@std@@V?$allocator@D@2@@std@@QEBA_KXZ$rtcName$0
	ORG $+48
?max_size@?$basic_string@DU?$char_traits@D@std@@V?$allocator@D@2@@std@@QEBA_KXZ$rtcFrameData DD 01H ; std::basic_string<char,std::char_traits<char>,std::allocator<char> >::max_size
	DD	00H
	DQ	FLAT:?max_size@?$basic_string@DU?$char_traits@D@std@@V?$allocator@D@2@@std@@QEBA_KXZ$rtcVarDesc
CONST	ENDS
;	COMDAT xdata
xdata	SEGMENT
$ip2state$?size@?$basic_string@DU?$char_traits@D@std@@V?$allocator@D@2@@std@@QEBA_KXZ DB 02H
	DB	00H
	DB	00H
xdata	ENDS
;	COMDAT xdata
xdata	SEGMENT
$cppxdata$?size@?$basic_string@DU?$char_traits@D@std@@V?$allocator@D@2@@std@@QEBA_KXZ DB 060H
	DD	imagerel $ip2state$?size@?$basic_string@DU?$char_traits@D@std@@V?$allocator@D@2@@std@@QEBA_KXZ
xdata	ENDS
;	COMDAT xdata
xdata	SEGMENT
$unwind$?size@?$basic_string@DU?$char_traits@D@std@@V?$allocator@D@2@@std@@QEBA_KXZ DD 025052a19H
	DD	010e2313H
	DD	07007001dH
	DD	05006H
	DD	imagerel __CxxFrameHandler4
	DD	imagerel $cppxdata$?size@?$basic_string@DU?$char_traits@D@std@@V?$allocator@D@2@@std@@QEBA_KXZ
xdata	ENDS
;	COMDAT xdata
xdata	SEGMENT
$ip2state$?data@?$basic_string@DU?$char_traits@D@std@@V?$allocator@D@2@@std@@QEBAPEBDXZ DB 02H
	DB	00H
	DB	00H
xdata	ENDS
;	COMDAT xdata
xdata	SEGMENT
$cppxdata$?data@?$basic_string@DU?$char_traits@D@std@@V?$allocator@D@2@@std@@QEBAPEBDXZ DB 060H
	DD	imagerel $ip2state$?data@?$basic_string@DU?$char_traits@D@std@@V?$allocator@D@2@@std@@QEBAPEBDXZ
xdata	ENDS
;	COMDAT xdata
xdata	SEGMENT
$unwind$?data@?$basic_string@DU?$char_traits@D@std@@V?$allocator@D@2@@std@@QEBAPEBDXZ DD 025052a19H
	DD	010e2313H
	DD	07007001dH
	DD	05006H
	DD	imagerel __CxxFrameHandler4
	DD	imagerel $cppxdata$?data@?$basic_string@DU?$char_traits@D@std@@V?$allocator@D@2@@std@@QEBAPEBDXZ
xdata	ENDS
;	COMDAT xdata
xdata	SEGMENT
$ip2state$?front@?$basic_string@DU?$char_traits@D@std@@V?$allocator@D@2@@std@@QEAAAEADXZ DB 02H
	DB	00H
	DB	00H
xdata	ENDS
;	COMDAT xdata
xdata	SEGMENT
$cppxdata$?front@?$basic_string@DU?$char_traits@D@std@@V?$allocator@D@2@@std@@QEAAAEADXZ DB 060H
	DD	imagerel $ip2state$?front@?$basic_string@DU?$char_traits@D@std@@V?$allocator@D@2@@std@@QEAAAEADXZ
xdata	ENDS
;	COMDAT xdata
xdata	SEGMENT
$unwind$?front@?$basic_string@DU?$char_traits@D@std@@V?$allocator@D@2@@std@@QEAAAEADXZ DD 035052a19H
	DD	010e3313H
	DD	07007001fH
	DD	05006H
	DD	imagerel __CxxFrameHandler4
	DD	imagerel $cppxdata$?front@?$basic_string@DU?$char_traits@D@std@@V?$allocator@D@2@@std@@QEAAAEADXZ
xdata	ENDS
;	COMDAT xdata
xdata	SEGMENT
$unwind$?push_back@?$basic_string@DU?$char_traits@D@std@@V?$allocator@D@2@@std@@QEAAXD@Z DD 025052e01H
	DD	01122317H
	DD	0700b002dH
	DD	0500aH
xdata	ENDS
;	COMDAT xdata
xdata	SEGMENT
$unwind$?erase@?$basic_string@DU?$char_traits@D@std@@V?$allocator@D@2@@std@@QEAAAEAV12@_K_K@Z DD 025053401H
	DD	0118231dH
	DD	07011002dH
	DD	05010H
xdata	ENDS
;	COMDAT xdata
xdata	SEGMENT
$ip2state$??1?$basic_string@DU?$char_traits@D@std@@V?$allocator@D@2@@std@@QEAA@XZ DB 02H
	DB	00H
	DB	00H
xdata	ENDS
;	COMDAT xdata
xdata	SEGMENT
$cppxdata$??1?$basic_string@DU?$char_traits@D@std@@V?$allocator@D@2@@std@@QEAA@XZ DB 060H
	DD	imagerel $ip2state$??1?$basic_string@DU?$char_traits@D@std@@V?$allocator@D@2@@std@@QEAA@XZ
xdata	ENDS
;	COMDAT xdata
xdata	SEGMENT
$unwind$??1?$basic_string@DU?$char_traits@D@std@@V?$allocator@D@2@@std@@QEAA@XZ DD 025053b19H
	DD	010e2313H
	DD	070070029H
	DD	05006H
	DD	imagerel __GSHandlerCheck_EH4
	DD	imagerel $cppxdata$??1?$basic_string@DU?$char_traits@D@std@@V?$allocator@D@2@@std@@QEAA@XZ
	DD	013bH
xdata	ENDS
;	COMDAT CONST
CONST	SEGMENT
??1?$basic_string@DU?$char_traits@D@std@@V?$allocator@D@2@@std@@QEAA@XZ$rtcName$0 DB 024H ; std::basic_string<char,std::char_traits<char>,std::allocator<char> >::~basic_string<char,std::char_traits<char>,std::allocator<char> >
	DB	053H
	DB	038H
	DB	00H
	ORG $+12
??1?$basic_string@DU?$char_traits@D@std@@V?$allocator@D@2@@std@@QEAA@XZ$rtcVarDesc DD 044H ; std::basic_string<char,std::char_traits<char>,std::allocator<char> >::~basic_string<char,std::char_traits<char>,std::allocator<char> >
	DD	01H
	DQ	FLAT:??1?$basic_string@DU?$char_traits@D@std@@V?$allocator@D@2@@std@@QEAA@XZ$rtcName$0
	ORG $+48
??1?$basic_string@DU?$char_traits@D@std@@V?$allocator@D@2@@std@@QEAA@XZ$rtcFrameData DD 01H ; std::basic_string<char,std::char_traits<char>,std::allocator<char> >::~basic_string<char,std::char_traits<char>,std::allocator<char> >
	DD	00H
	DQ	FLAT:??1?$basic_string@DU?$char_traits@D@std@@V?$allocator@D@2@@std@@QEAA@XZ$rtcVarDesc
CONST	ENDS
;	COMDAT xdata
xdata	SEGMENT
$ip2state$??0?$basic_string@DU?$char_traits@D@std@@V?$allocator@D@2@@std@@QEAA@XZ DB 02H
	DB	00H
	DB	00H
xdata	ENDS
;	COMDAT xdata
xdata	SEGMENT
$cppxdata$??0?$basic_string@DU?$char_traits@D@std@@V?$allocator@D@2@@std@@QEAA@XZ DB 060H
	DD	imagerel $ip2state$??0?$basic_string@DU?$char_traits@D@std@@V?$allocator@D@2@@std@@QEAA@XZ
xdata	ENDS
;	COMDAT xdata
xdata	SEGMENT
$unwind$??0?$basic_string@DU?$char_traits@D@std@@V?$allocator@D@2@@std@@QEAA@XZ DD 025052a19H
	DD	010e2313H
	DD	070070025H
	DD	05006H
	DD	imagerel __CxxFrameHandler4
	DD	imagerel $cppxdata$??0?$basic_string@DU?$char_traits@D@std@@V?$allocator@D@2@@std@@QEAA@XZ
xdata	ENDS
;	COMDAT xdata
xdata	SEGMENT
$unwind$??1?$_String_val@U?$_Simple_types@D@std@@@std@@QEAA@XZ DD 025052a01H
	DD	010e2313H
	DD	07007001dH
	DD	05006H
xdata	ENDS
;	COMDAT xdata
xdata	SEGMENT
$ip2state$??1_Bxty@?$_String_val@U?$_Simple_types@D@std@@@std@@QEAA@XZ DB 02H
	DB	00H
	DB	00H
xdata	ENDS
;	COMDAT xdata
xdata	SEGMENT
$cppxdata$??1_Bxty@?$_String_val@U?$_Simple_types@D@std@@@std@@QEAA@XZ DB 060H
	DD	imagerel $ip2state$??1_Bxty@?$_String_val@U?$_Simple_types@D@std@@@std@@QEAA@XZ
xdata	ENDS
;	COMDAT xdata
xdata	SEGMENT
$unwind$??1_Bxty@?$_String_val@U?$_Simple_types@D@std@@@std@@QEAA@XZ DD 025052a19H
	DD	010e2313H
	DD	07007001dH
	DD	05006H
	DD	imagerel __CxxFrameHandler4
	DD	imagerel $cppxdata$??1_Bxty@?$_String_val@U?$_Simple_types@D@std@@@std@@QEAA@XZ
xdata	ENDS
;	COMDAT xdata
xdata	SEGMENT
$unwind$??0_Bxty@?$_String_val@U?$_Simple_types@D@std@@@std@@QEAA@XZ DD 025052a01H
	DD	010e2313H
	DD	07007001dH
	DD	05006H
xdata	ENDS
;	COMDAT xdata
xdata	SEGMENT
$ip2state$?_Clamp_suffix_size@?$_String_val@U?$_Simple_types@D@std@@@std@@QEBA_K_K0@Z DB 02H
	DB	00H
	DB	00H
xdata	ENDS
;	COMDAT xdata
xdata	SEGMENT
$cppxdata$?_Clamp_suffix_size@?$_String_val@U?$_Simple_types@D@std@@@std@@QEBA_K_K0@Z DB 060H
	DD	imagerel $ip2state$?_Clamp_suffix_size@?$_String_val@U?$_Simple_types@D@std@@@std@@QEBA_K_K0@Z
xdata	ENDS
;	COMDAT xdata
xdata	SEGMENT
$unwind$?_Clamp_suffix_size@?$_String_val@U?$_Simple_types@D@std@@@std@@QEBA_K_K0@Z DD 025053419H
	DD	0118231dH
	DD	070110021H
	DD	05010H
	DD	imagerel __CxxFrameHandler4
	DD	imagerel $cppxdata$?_Clamp_suffix_size@?$_String_val@U?$_Simple_types@D@std@@@std@@QEBA_K_K0@Z
xdata	ENDS
;	COMDAT xdata
xdata	SEGMENT
$unwind$?_Xran@?$_String_val@U?$_Simple_types@D@std@@@std@@SAXXZ DD 025051e01H
	DD	010a230fH
	DD	07003001dH
	DD	05002H
xdata	ENDS
;	COMDAT xdata
xdata	SEGMENT
$unwind$?_Check_offset@?$_String_val@U?$_Simple_types@D@std@@@std@@QEBAX_K@Z DD 025052f01H
	DD	01132318H
	DD	0700c001dH
	DD	0500bH
xdata	ENDS
;	COMDAT xdata
xdata	SEGMENT
$ip2state$?_Large_string_engaged@?$_String_val@U?$_Simple_types@D@std@@@std@@QEBA_NXZ DB 02H
	DB	00H
	DB	00H
xdata	ENDS
;	COMDAT xdata
xdata	SEGMENT
$cppxdata$?_Large_string_engaged@?$_String_val@U?$_Simple_types@D@std@@@std@@QEBA_NXZ DB 060H
	DD	imagerel $ip2state$?_Large_string_engaged@?$_String_val@U?$_Simple_types@D@std@@@std@@QEBA_NXZ
xdata	ENDS
;	COMDAT xdata
xdata	SEGMENT
$unwind$?_Large_string_engaged@?$_String_val@U?$_Simple_types@D@std@@@std@@QEBA_NXZ DD 025052a19H
	DD	010e2313H
	DD	07007001fH
	DD	05006H
	DD	imagerel __CxxFrameHandler4
	DD	imagerel $cppxdata$?_Large_string_engaged@?$_String_val@U?$_Simple_types@D@std@@@std@@QEBA_NXZ
xdata	ENDS
;	COMDAT xdata
xdata	SEGMENT
$ip2state$?_Myptr@?$_String_val@U?$_Simple_types@D@std@@@std@@QEBAPEBDXZ DB 02H
	DB	00H
	DB	00H
xdata	ENDS
;	COMDAT xdata
xdata	SEGMENT
$cppxdata$?_Myptr@?$_String_val@U?$_Simple_types@D@std@@@std@@QEBAPEBDXZ DB 060H
	DD	imagerel $ip2state$?_Myptr@?$_String_val@U?$_Simple_types@D@std@@@std@@QEBAPEBDXZ
xdata	ENDS
;	COMDAT xdata
xdata	SEGMENT
$unwind$?_Myptr@?$_String_val@U?$_Simple_types@D@std@@@std@@QEBAPEBDXZ DD 025052a19H
	DD	010e2313H
	DD	070070021H
	DD	05006H
	DD	imagerel __CxxFrameHandler4
	DD	imagerel $cppxdata$?_Myptr@?$_String_val@U?$_Simple_types@D@std@@@std@@QEBAPEBDXZ
xdata	ENDS
;	COMDAT xdata
xdata	SEGMENT
$ip2state$?_Myptr@?$_String_val@U?$_Simple_types@D@std@@@std@@QEAAPEADXZ DB 02H
	DB	00H
	DB	00H
xdata	ENDS
;	COMDAT xdata
xdata	SEGMENT
$cppxdata$?_Myptr@?$_String_val@U?$_Simple_types@D@std@@@std@@QEAAPEADXZ DB 060H
	DD	imagerel $ip2state$?_Myptr@?$_String_val@U?$_Simple_types@D@std@@@std@@QEAAPEADXZ
xdata	ENDS
;	COMDAT xdata
xdata	SEGMENT
$unwind$?_Myptr@?$_String_val@U?$_Simple_types@D@std@@@std@@QEAAPEADXZ DD 025052a19H
	DD	010e2313H
	DD	070070021H
	DD	05006H
	DD	imagerel __CxxFrameHandler4
	DD	imagerel $cppxdata$?_Myptr@?$_String_val@U?$_Simple_types@D@std@@@std@@QEAAPEADXZ
xdata	ENDS
;	COMDAT xdata
xdata	SEGMENT
$unwind$??0?$_String_val@U?$_Simple_types@D@std@@@std@@QEAA@XZ DD 025052a01H
	DD	010e2313H
	DD	07007001dH
	DD	05006H
xdata	ENDS
;	COMDAT xdata
xdata	SEGMENT
$ip2state$?max_size@?$_Default_allocator_traits@V?$allocator@D@std@@@std@@SA_KAEBV?$allocator@D@2@@Z DB 02H
	DB	00H
	DB	00H
xdata	ENDS
;	COMDAT xdata
xdata	SEGMENT
$cppxdata$?max_size@?$_Default_allocator_traits@V?$allocator@D@std@@@std@@SA_KAEBV?$allocator@D@2@@Z DB 060H
	DD	imagerel $ip2state$?max_size@?$_Default_allocator_traits@V?$allocator@D@std@@@std@@SA_KAEBV?$allocator@D@2@@Z
xdata	ENDS
;	COMDAT xdata
xdata	SEGMENT
$unwind$?max_size@?$_Default_allocator_traits@V?$allocator@D@std@@@std@@SA_KAEBV?$allocator@D@2@@Z DD 025052a19H
	DD	010e2313H
	DD	07007001dH
	DD	05006H
	DD	imagerel __CxxFrameHandler4
	DD	imagerel $cppxdata$?max_size@?$_Default_allocator_traits@V?$allocator@D@std@@@std@@SA_KAEBV?$allocator@D@2@@Z
xdata	ENDS
;	COMDAT xdata
xdata	SEGMENT
$unwind$?allocate@?$allocator@D@std@@QEAAPEAD_K@Z DD 025052f01H
	DD	01132318H
	DD	0700c001dH
	DD	0500bH
xdata	ENDS
;	COMDAT xdata
xdata	SEGMENT
$unwind$?deallocate@?$allocator@D@std@@QEAAXQEAD_K@Z DD 025053401H
	DD	0118231dH
	DD	07011001dH
	DD	05010H
xdata	ENDS
;	COMDAT xdata
xdata	SEGMENT
$ip2state$??0?$allocator@D@std@@QEAA@XZ DB 02H
	DB	00H
	DB	00H
xdata	ENDS
;	COMDAT xdata
xdata	SEGMENT
$cppxdata$??0?$allocator@D@std@@QEAA@XZ DB 060H
	DD	imagerel $ip2state$??0?$allocator@D@std@@QEAA@XZ
xdata	ENDS
;	COMDAT xdata
xdata	SEGMENT
$unwind$??0?$allocator@D@std@@QEAA@XZ DD 025052a19H
	DD	010e2313H
	DD	07007001dH
	DD	05006H
	DD	imagerel __CxxFrameHandler4
	DD	imagerel $cppxdata$??0?$allocator@D@std@@QEAA@XZ
xdata	ENDS
;	COMDAT xdata
xdata	SEGMENT
$unwind$?_Xlen_string@std@@YAXXZ DD 025051e01H
	DD	010a230fH
	DD	07003001dH
	DD	05002H
xdata	ENDS
;	COMDAT xdata
xdata	SEGMENT
$ip2state$?eof@?$_Narrow_char_traits@DH@std@@SAHXZ DB 02H
	DB	00H
	DB	00H
xdata	ENDS
;	COMDAT xdata
xdata	SEGMENT
$cppxdata$?eof@?$_Narrow_char_traits@DH@std@@SAHXZ DB 060H
	DD	imagerel $ip2state$?eof@?$_Narrow_char_traits@DH@std@@SAHXZ
xdata	ENDS
;	COMDAT xdata
xdata	SEGMENT
$unwind$?eof@?$_Narrow_char_traits@DH@std@@SAHXZ DD 025051e19H
	DD	010a230fH
	DD	07003001dH
	DD	05002H
	DD	imagerel __CxxFrameHandler4
	DD	imagerel $cppxdata$?eof@?$_Narrow_char_traits@DH@std@@SAHXZ
xdata	ENDS
;	COMDAT xdata
xdata	SEGMENT
$ip2state$?not_eof@?$_Narrow_char_traits@DH@std@@SAHAEBH@Z DB 02H
	DB	00H
	DB	00H
xdata	ENDS
;	COMDAT xdata
xdata	SEGMENT
$cppxdata$?not_eof@?$_Narrow_char_traits@DH@std@@SAHAEBH@Z DB 060H
	DD	imagerel $ip2state$?not_eof@?$_Narrow_char_traits@DH@std@@SAHAEBH@Z
xdata	ENDS
;	COMDAT xdata
xdata	SEGMENT
$unwind$?not_eof@?$_Narrow_char_traits@DH@std@@SAHAEBH@Z DD 025052a19H
	DD	010e2313H
	DD	07007001fH
	DD	05006H
	DD	imagerel __CxxFrameHandler4
	DD	imagerel $cppxdata$?not_eof@?$_Narrow_char_traits@DH@std@@SAHAEBH@Z
xdata	ENDS
;	COMDAT xdata
xdata	SEGMENT
$ip2state$?eq_int_type@?$_Narrow_char_traits@DH@std@@SA_NAEBH0@Z DB 02H
	DB	00H
	DB	00H
xdata	ENDS
;	COMDAT xdata
xdata	SEGMENT
$cppxdata$?eq_int_type@?$_Narrow_char_traits@DH@std@@SA_NAEBH0@Z DB 060H
	DD	imagerel $ip2state$?eq_int_type@?$_Narrow_char_traits@DH@std@@SA_NAEBH0@Z
xdata	ENDS
;	COMDAT xdata
xdata	SEGMENT
$unwind$?eq_int_type@?$_Narrow_char_traits@DH@std@@SA_NAEBH0@Z DD 025052f19H
	DD	01132318H
	DD	0700c001fH
	DD	0500bH
	DD	imagerel __CxxFrameHandler4
	DD	imagerel $cppxdata$?eq_int_type@?$_Narrow_char_traits@DH@std@@SA_NAEBH0@Z
xdata	ENDS
;	COMDAT xdata
xdata	SEGMENT
$ip2state$?to_int_type@?$_Narrow_char_traits@DH@std@@SAHAEBD@Z DB 02H
	DB	00H
	DB	00H
xdata	ENDS
;	COMDAT xdata
xdata	SEGMENT
$cppxdata$?to_int_type@?$_Narrow_char_traits@DH@std@@SAHAEBD@Z DB 060H
	DD	imagerel $ip2state$?to_int_type@?$_Narrow_char_traits@DH@std@@SAHAEBD@Z
xdata	ENDS
;	COMDAT xdata
xdata	SEGMENT
$unwind$?to_int_type@?$_Narrow_char_traits@DH@std@@SAHAEBD@Z DD 025052a19H
	DD	010e2313H
	DD	07007001dH
	DD	05006H
	DD	imagerel __CxxFrameHandler4
	DD	imagerel $cppxdata$?to_int_type@?$_Narrow_char_traits@DH@std@@SAHAEBD@Z
xdata	ENDS
;	COMDAT xdata
xdata	SEGMENT
$ip2state$?to_char_type@?$_Narrow_char_traits@DH@std@@SADAEBH@Z DB 02H
	DB	00H
	DB	00H
xdata	ENDS
;	COMDAT xdata
xdata	SEGMENT
$cppxdata$?to_char_type@?$_Narrow_char_traits@DH@std@@SADAEBH@Z DB 060H
	DD	imagerel $ip2state$?to_char_type@?$_Narrow_char_traits@DH@std@@SADAEBH@Z
xdata	ENDS
;	COMDAT xdata
xdata	SEGMENT
$unwind$?to_char_type@?$_Narrow_char_traits@DH@std@@SADAEBH@Z DD 025052a19H
	DD	010e2313H
	DD	07007001dH
	DD	05006H
	DD	imagerel __CxxFrameHandler4
	DD	imagerel $cppxdata$?to_char_type@?$_Narrow_char_traits@DH@std@@SADAEBH@Z
xdata	ENDS
;	COMDAT xdata
xdata	SEGMENT
$ip2state$?assign@?$_Narrow_char_traits@DH@std@@SAXAEADAEBD@Z DB 02H
	DB	00H
	DB	00H
xdata	ENDS
;	COMDAT xdata
xdata	SEGMENT
$cppxdata$?assign@?$_Narrow_char_traits@DH@std@@SAXAEADAEBD@Z DB 060H
	DD	imagerel $ip2state$?assign@?$_Narrow_char_traits@DH@std@@SAXAEADAEBD@Z
xdata	ENDS
;	COMDAT xdata
xdata	SEGMENT
$unwind$?assign@?$_Narrow_char_traits@DH@std@@SAXAEADAEBD@Z DD 025052f19H
	DD	01132318H
	DD	0700c001dH
	DD	0500bH
	DD	imagerel __CxxFrameHandler4
	DD	imagerel $cppxdata$?assign@?$_Narrow_char_traits@DH@std@@SAXAEADAEBD@Z
xdata	ENDS
;	COMDAT xdata
xdata	SEGMENT
$ip2state$?move@?$_Narrow_char_traits@DH@std@@SAPEADQEADQEBD_K@Z DB 02H
	DB	00H
	DB	00H
xdata	ENDS
;	COMDAT xdata
xdata	SEGMENT
$cppxdata$?move@?$_Narrow_char_traits@DH@std@@SAPEADQEADQEBD_K@Z DB 060H
	DD	imagerel $ip2state$?move@?$_Narrow_char_traits@DH@std@@SAPEADQEADQEBD_K@Z
xdata	ENDS
;	COMDAT xdata
xdata	SEGMENT
$unwind$?move@?$_Narrow_char_traits@DH@std@@SAPEADQEADQEBD_K@Z DD 025053419H
	DD	0118231dH
	DD	07011001dH
	DD	05010H
	DD	imagerel __CxxFrameHandler4
	DD	imagerel $cppxdata$?move@?$_Narrow_char_traits@DH@std@@SAPEADQEADQEBD_K@Z
xdata	ENDS
;	COMDAT xdata
xdata	SEGMENT
$ip2state$?copy@?$_Narrow_char_traits@DH@std@@SAPEADQEADQEBD_K@Z DB 02H
	DB	00H
	DB	00H
xdata	ENDS
;	COMDAT xdata
xdata	SEGMENT
$cppxdata$?copy@?$_Narrow_char_traits@DH@std@@SAPEADQEADQEBD_K@Z DB 060H
	DD	imagerel $ip2state$?copy@?$_Narrow_char_traits@DH@std@@SAPEADQEADQEBD_K@Z
xdata	ENDS
;	COMDAT xdata
xdata	SEGMENT
$unwind$?copy@?$_Narrow_char_traits@DH@std@@SAPEADQEADQEBD_K@Z DD 025053419H
	DD	0118231dH
	DD	07011001dH
	DD	05010H
	DD	imagerel __CxxFrameHandler4
	DD	imagerel $cppxdata$?copy@?$_Narrow_char_traits@DH@std@@SAPEADQEADQEBD_K@Z
xdata	ENDS
;	COMDAT xdata
xdata	SEGMENT
$ip2state$??$_Construct_in_place@U_Container_proxy@std@@PEAU_Container_base12@2@@std@@YAXAEAU_Container_proxy@0@$$QEAPEAU_Container_base12@0@@Z DB 02H
	DB	00H
	DB	00H
xdata	ENDS
;	COMDAT xdata
xdata	SEGMENT
$cppxdata$??$_Construct_in_place@U_Container_proxy@std@@PEAU_Container_base12@2@@std@@YAXAEAU_Container_proxy@0@$$QEAPEAU_Container_base12@0@@Z DB 060H
	DD	imagerel $ip2state$??$_Construct_in_place@U_Container_proxy@std@@PEAU_Container_base12@2@@std@@YAXAEAU_Container_proxy@0@$$QEAPEAU_Container_base12@0@@Z
xdata	ENDS
;	COMDAT xdata
xdata	SEGMENT
$unwind$??$_Construct_in_place@U_Container_proxy@std@@PEAU_Container_base12@2@@std@@YAXAEAU_Container_proxy@0@$$QEAPEAU_Container_base12@0@@Z DD 025052f19H
	DD	01132318H
	DD	0700c0021H
	DD	0500bH
	DD	imagerel __CxxFrameHandler4
	DD	imagerel $cppxdata$??$_Construct_in_place@U_Container_proxy@std@@PEAU_Container_base12@2@@std@@YAXAEAU_Container_proxy@0@$$QEAPEAU_Container_base12@0@@Z
xdata	ENDS
;	COMDAT xdata
xdata	SEGMENT
$ip2state$?_Orphan_all@_Container_base12@std@@QEAAXXZ DB 02H
	DB	00H
	DB	00H
xdata	ENDS
;	COMDAT xdata
xdata	SEGMENT
$cppxdata$?_Orphan_all@_Container_base12@std@@QEAAXXZ DB 060H
	DD	imagerel $ip2state$?_Orphan_all@_Container_base12@std@@QEAAXXZ
xdata	ENDS
;	COMDAT xdata
xdata	SEGMENT
$unwind$?_Orphan_all@_Container_base12@std@@QEAAXXZ DD 025053b19H
	DD	010e2313H
	DD	070070025H
	DD	05006H
	DD	imagerel __GSHandlerCheck_EH4
	DD	imagerel $cppxdata$?_Orphan_all@_Container_base12@std@@QEAAXXZ
	DD	011bH
xdata	ENDS
;	COMDAT CONST
CONST	SEGMENT
?_Orphan_all@_Container_base12@std@@QEAAXXZ$rtcName$0 DB 05fH ; std::_Container_base12::_Orphan_all
	DB	04cH
	DB	06fH
	DB	063H
	DB	06bH
	DB	00H
	ORG $+10
?_Orphan_all@_Container_base12@std@@QEAAXXZ$rtcVarDesc DD 024H ; std::_Container_base12::_Orphan_all
	DD	04H
	DQ	FLAT:?_Orphan_all@_Container_base12@std@@QEAAXXZ$rtcName$0
	ORG $+48
?_Orphan_all@_Container_base12@std@@QEAAXXZ$rtcFrameData DD 01H ; std::_Container_base12::_Orphan_all
	DD	00H
	DQ	FLAT:?_Orphan_all@_Container_base12@std@@QEAAXXZ$rtcVarDesc
CONST	ENDS
;	COMDAT xdata
xdata	SEGMENT
$ip2state$??0_Container_base12@std@@QEAA@XZ DB 02H
	DB	00H
	DB	00H
xdata	ENDS
;	COMDAT xdata
xdata	SEGMENT
$cppxdata$??0_Container_base12@std@@QEAA@XZ DB 060H
	DD	imagerel $ip2state$??0_Container_base12@std@@QEAA@XZ
xdata	ENDS
;	COMDAT xdata
xdata	SEGMENT
$unwind$??0_Container_base12@std@@QEAA@XZ DD 025052a19H
	DD	010e2313H
	DD	07007001dH
	DD	05006H
	DD	imagerel __CxxFrameHandler4
	DD	imagerel $cppxdata$??0_Container_base12@std@@QEAA@XZ
xdata	ENDS
;	COMDAT xdata
xdata	SEGMENT
$ip2state$??0_Container_proxy@std@@QEAA@PEAU_Container_base12@1@@Z DB 02H
	DB	00H
	DB	00H
xdata	ENDS
;	COMDAT xdata
xdata	SEGMENT
$cppxdata$??0_Container_proxy@std@@QEAA@PEAU_Container_base12@1@@Z DB 060H
	DD	imagerel $ip2state$??0_Container_proxy@std@@QEAA@PEAU_Container_base12@1@@Z
xdata	ENDS
;	COMDAT xdata
xdata	SEGMENT
$unwind$??0_Container_proxy@std@@QEAA@PEAU_Container_base12@1@@Z DD 025052f19H
	DD	01132318H
	DD	0700c001dH
	DD	0500bH
	DD	imagerel __CxxFrameHandler4
	DD	imagerel $cppxdata$??0_Container_proxy@std@@QEAA@PEAU_Container_base12@1@@Z
xdata	ENDS
;	COMDAT xdata
xdata	SEGMENT
$unwind$?_Adjust_manually_vector_aligned@std@@YAXAEAPEAXAEA_K@Z DD 035052f01H
	DD	01133318H
	DD	0700c002fH
	DD	0500bH
xdata	ENDS
;	COMDAT xdata
xdata	SEGMENT
$unwind$?_Allocate@_Default_allocate_traits@std@@SAPEAX_K@Z DD 025052a01H
	DD	010e2313H
	DD	07007001dH
	DD	05006H
xdata	ENDS
;	COMDAT xdata
xdata	SEGMENT
$unwind$?_Throw_bad_array_new_length@std@@YAXXZ DD 025051e01H
	DD	010a230fH
	DD	070030023H
	DD	05002H
xdata	ENDS
;	COMDAT xdata
xdata	SEGMENT
$unwind$??_Gbad_array_new_length@std@@UEAAPEAXI@Z DD 025052e01H
	DD	01122317H
	DD	0700b001dH
	DD	0500aH
xdata	ENDS
;	COMDAT xdata
xdata	SEGMENT
$unwind$??0bad_array_new_length@std@@QEAA@AEBV01@@Z DD 025052f01H
	DD	01132318H
	DD	0700c001dH
	DD	0500bH
xdata	ENDS
;	COMDAT xdata
xdata	SEGMENT
$unwind$??1bad_array_new_length@std@@UEAA@XZ DD 025052a01H
	DD	010e2313H
	DD	07007001dH
	DD	05006H
xdata	ENDS
;	COMDAT xdata
xdata	SEGMENT
$ip2state$??0bad_array_new_length@std@@QEAA@XZ DB 02H
	DB	00H
	DB	00H
xdata	ENDS
;	COMDAT xdata
xdata	SEGMENT
$cppxdata$??0bad_array_new_length@std@@QEAA@XZ DB 060H
	DD	imagerel $ip2state$??0bad_array_new_length@std@@QEAA@XZ
xdata	ENDS
;	COMDAT xdata
xdata	SEGMENT
$unwind$??0bad_array_new_length@std@@QEAA@XZ DD 025052a19H
	DD	010e2313H
	DD	07007001dH
	DD	05006H
	DD	imagerel __CxxFrameHandler4
	DD	imagerel $cppxdata$??0bad_array_new_length@std@@QEAA@XZ
xdata	ENDS
;	COMDAT xdata
xdata	SEGMENT
$unwind$??_Gbad_alloc@std@@UEAAPEAXI@Z DD 025052e01H
	DD	01122317H
	DD	0700b001dH
	DD	0500aH
xdata	ENDS
;	COMDAT xdata
xdata	SEGMENT
$unwind$??0bad_alloc@std@@QEAA@AEBV01@@Z DD 025052f01H
	DD	01132318H
	DD	0700c001dH
	DD	0500bH
xdata	ENDS
;	COMDAT xdata
xdata	SEGMENT
$unwind$??1bad_alloc@std@@UEAA@XZ DD 025052a01H
	DD	010e2313H
	DD	07007001dH
	DD	05006H
xdata	ENDS
;	COMDAT xdata
xdata	SEGMENT
$ip2state$??0bad_alloc@std@@AEAA@QEBD@Z DB 02H
	DB	00H
	DB	00H
xdata	ENDS
;	COMDAT xdata
xdata	SEGMENT
$cppxdata$??0bad_alloc@std@@AEAA@QEBD@Z DB 060H
	DD	imagerel $ip2state$??0bad_alloc@std@@AEAA@QEBD@Z
xdata	ENDS
;	COMDAT xdata
xdata	SEGMENT
$unwind$??0bad_alloc@std@@AEAA@QEBD@Z DD 025052f19H
	DD	01132318H
	DD	0700c001dH
	DD	0500bH
	DD	imagerel __CxxFrameHandler4
	DD	imagerel $cppxdata$??0bad_alloc@std@@AEAA@QEBD@Z
xdata	ENDS
;	COMDAT xdata
xdata	SEGMENT
$unwind$??_Gexception@std@@UEAAPEAXI@Z DD 025052e01H
	DD	01122317H
	DD	0700b001dH
	DD	0500aH
xdata	ENDS
;	COMDAT xdata
xdata	SEGMENT
$unwind$?what@exception@std@@UEBAPEBDXZ DD 025052a01H
	DD	010e2313H
	DD	07007001fH
	DD	05006H
xdata	ENDS
;	COMDAT xdata
xdata	SEGMENT
$ip2state$??1exception@std@@UEAA@XZ DB 02H
	DB	00H
	DB	00H
xdata	ENDS
;	COMDAT xdata
xdata	SEGMENT
$cppxdata$??1exception@std@@UEAA@XZ DB 060H
	DD	imagerel $ip2state$??1exception@std@@UEAA@XZ
xdata	ENDS
;	COMDAT xdata
xdata	SEGMENT
$unwind$??1exception@std@@UEAA@XZ DD 025052a19H
	DD	010e2313H
	DD	07007001dH
	DD	05006H
	DD	imagerel __CxxFrameHandler4
	DD	imagerel $cppxdata$??1exception@std@@UEAA@XZ
xdata	ENDS
;	COMDAT xdata
xdata	SEGMENT
$ip2state$??0exception@std@@QEAA@AEBV01@@Z DB 02H
	DB	00H
	DB	00H
xdata	ENDS
;	COMDAT xdata
xdata	SEGMENT
$cppxdata$??0exception@std@@QEAA@AEBV01@@Z DB 060H
	DD	imagerel $ip2state$??0exception@std@@QEAA@AEBV01@@Z
xdata	ENDS
;	COMDAT xdata
xdata	SEGMENT
$unwind$??0exception@std@@QEAA@AEBV01@@Z DD 025052f19H
	DD	01132318H
	DD	0700c001dH
	DD	0500bH
	DD	imagerel __CxxFrameHandler4
	DD	imagerel $cppxdata$??0exception@std@@QEAA@AEBV01@@Z
xdata	ENDS
;	COMDAT xdata
xdata	SEGMENT
$ip2state$??0exception@std@@QEAA@QEBDH@Z DB 02H
	DB	00H
	DB	00H
xdata	ENDS
;	COMDAT xdata
xdata	SEGMENT
$cppxdata$??0exception@std@@QEAA@QEBDH@Z DB 060H
	DD	imagerel $ip2state$??0exception@std@@QEAA@QEBDH@Z
xdata	ENDS
;	COMDAT xdata
xdata	SEGMENT
$unwind$??0exception@std@@QEAA@QEBDH@Z DD 025053419H
	DD	0118231dH
	DD	07011001dH
	DD	05010H
	DD	imagerel __CxxFrameHandler4
	DD	imagerel $cppxdata$??0exception@std@@QEAA@QEBDH@Z
xdata	ENDS
;	COMDAT xdata
xdata	SEGMENT
$ip2state$?max@?$numeric_limits@_J@std@@SA_JXZ DB 02H
	DB	00H
	DB	00H
xdata	ENDS
;	COMDAT xdata
xdata	SEGMENT
$cppxdata$?max@?$numeric_limits@_J@std@@SA_JXZ DB 060H
	DD	imagerel $ip2state$?max@?$numeric_limits@_J@std@@SA_JXZ
xdata	ENDS
;	COMDAT xdata
xdata	SEGMENT
$unwind$?max@?$numeric_limits@_J@std@@SA_JXZ DD 025051e19H
	DD	010a230fH
	DD	07003001dH
	DD	05002H
	DD	imagerel __CxxFrameHandler4
	DD	imagerel $cppxdata$?max@?$numeric_limits@_J@std@@SA_JXZ
xdata	ENDS
;	COMDAT xdata
xdata	SEGMENT
$ip2state$??2@YAPEAX_KPEAX@Z DB 02H
	DB	00H
	DB	00H
xdata	ENDS
;	COMDAT xdata
xdata	SEGMENT
$cppxdata$??2@YAPEAX_KPEAX@Z DB 060H
	DD	imagerel $ip2state$??2@YAPEAX_KPEAX@Z
xdata	ENDS
;	COMDAT xdata
xdata	SEGMENT
$unwind$??2@YAPEAX_KPEAX@Z DD 025052f19H
	DD	01132318H
	DD	0700c001dH
	DD	0500bH
	DD	imagerel __CxxFrameHandler4
	DD	imagerel $cppxdata$??2@YAPEAX_KPEAX@Z
xdata	ENDS
;	COMDAT xdata
xdata	SEGMENT
$unwind$wmemcpy DD 025053401H
	DD	0118231dH
	DD	07011001dH
	DD	05010H
xdata	ENDS
;	COMDAT xdata
xdata	SEGMENT
$unwind$?__empty_global_delete@@YAXPEAX_K@Z DD 025052f01H
	DD	01132318H
	DD	0700c001dH
	DD	0500bH
xdata	ENDS
;	COMDAT xdata
xdata	SEGMENT
$unwind$?__empty_global_delete@@YAXPEAX@Z DD 025052a01H
	DD	010e2313H
	DD	07007001dH
	DD	05006H
xdata	ENDS
; Function compile flags: /Odt
;	COMDAT __JustMyCode_Default
_TEXT	SEGMENT
__JustMyCode_Default PROC				; COMDAT
  00000	c2 00 00	 ret	 0
__JustMyCode_Default ENDP
_TEXT	ENDS
; Function compile flags: /Odsp /RTCsu /ZI
;	COMDAT ??_E?$basic_fstream@DU?$char_traits@D@std@@@std@@$4PPPPPPPM@A@EAAPEAXI@Z
_TEXT	SEGMENT
??_E?$basic_fstream@DU?$char_traits@D@std@@@std@@$4PPPPPPPM@A@EAAPEAXI@Z PROC ; std::basic_fstream<char,std::char_traits<char> >::`vector deleting destructor', COMDAT
  00000	48 63 41 fc	 movsxd	 rax, DWORD PTR [rcx-4]
  00004	48 2b c8	 sub	 rcx, rax
  00007	e9 00 00 00 00	 jmp	 ??_E?$basic_fstream@DU?$char_traits@D@std@@@std@@UEAAPEAXI@Z
??_E?$basic_fstream@DU?$char_traits@D@std@@@std@@$4PPPPPPPM@A@EAAPEAXI@Z ENDP ; std::basic_fstream<char,std::char_traits<char> >::`vector deleting destructor'
_TEXT	ENDS
; Function compile flags: /Odtp /RTCsu /ZI
; File C:\Program Files (x86)\Microsoft Visual Studio\2019\Enterprise\VC\Tools\MSVC\14.27.29110\include\type_traits
;	COMDAT ??$forward@AEAPEAV_Facet_base@std@@@std@@YAAEAPEAV_Facet_base@0@AEAPEAV10@@Z
_TEXT	SEGMENT
_Arg$ = 224
??$forward@AEAPEAV_Facet_base@std@@@std@@YAAEAPEAV_Facet_base@0@AEAPEAV10@@Z PROC ; std::forward<std::_Facet_base * &>, COMDAT

; 1454 :     remove_reference_t<_Ty>& _Arg) noexcept { // forward an lvalue as either an lvalue or an rvalue

$LN3:
  00000	48 89 4c 24 08	 mov	 QWORD PTR [rsp+8], rcx
  00005	55		 push	 rbp
  00006	57		 push	 rdi
  00007	48 81 ec e8 00
	00 00		 sub	 rsp, 232		; 000000e8H
  0000e	48 8d 6c 24 20	 lea	 rbp, QWORD PTR [rsp+32]
  00013	48 8b fc	 mov	 rdi, rsp
  00016	b9 3a 00 00 00	 mov	 ecx, 58			; 0000003aH
  0001b	b8 cc cc cc cc	 mov	 eax, -858993460		; ccccccccH
  00020	f3 ab		 rep stosd
  00022	48 8b 8c 24 08
	01 00 00	 mov	 rcx, QWORD PTR [rsp+264]
  0002a	48 8d 0d 00 00
	00 00		 lea	 rcx, OFFSET FLAT:__B236D4B0_type_traits
  00031	e8 00 00 00 00	 call	 __CheckForDebuggerJustMyCode

; 1455 :     return static_cast<_Ty&&>(_Arg);

  00036	48 8b 85 e0 00
	00 00		 mov	 rax, QWORD PTR _Arg$[rbp]

; 1456 : }

  0003d	48 8d a5 c8 00
	00 00		 lea	 rsp, QWORD PTR [rbp+200]
  00044	5f		 pop	 rdi
  00045	5d		 pop	 rbp
  00046	c3		 ret	 0
??$forward@AEAPEAV_Facet_base@std@@@std@@YAAEAPEAV_Facet_base@0@AEAPEAV10@@Z ENDP ; std::forward<std::_Facet_base * &>
_TEXT	ENDS
; Function compile flags: /Odtp /RTCsu /ZI
; File C:\Program Files (x86)\Microsoft Visual Studio\2019\Enterprise\VC\Tools\MSVC\14.27.29110\include\xmemory
;	COMDAT ?deallocate@?$_Default_allocator_traits@V?$allocator@U_Container_proxy@std@@@std@@@std@@SAXAEAV?$allocator@U_Container_proxy@std@@@2@QEAU_Container_proxy@2@_K@Z
_TEXT	SEGMENT
__formal$ = 224
_Ptr$ = 232
_Count$ = 240
?deallocate@?$_Default_allocator_traits@V?$allocator@U_Container_proxy@std@@@std@@@std@@SAXAEAV?$allocator@U_Container_proxy@std@@@2@QEAU_Container_proxy@2@_K@Z PROC ; std::_Default_allocator_traits<std::allocator<std::_Container_proxy> >::deallocate, COMDAT

; 687  :     static void deallocate(_Alloc&, const pointer _Ptr, const size_type _Count) {

$LN3:
  00000	4c 89 44 24 18	 mov	 QWORD PTR [rsp+24], r8
  00005	48 89 54 24 10	 mov	 QWORD PTR [rsp+16], rdx
  0000a	48 89 4c 24 08	 mov	 QWORD PTR [rsp+8], rcx
  0000f	55		 push	 rbp
  00010	57		 push	 rdi
  00011	48 81 ec e8 00
	00 00		 sub	 rsp, 232		; 000000e8H
  00018	48 8d 6c 24 20	 lea	 rbp, QWORD PTR [rsp+32]
  0001d	48 8b fc	 mov	 rdi, rsp
  00020	b9 3a 00 00 00	 mov	 ecx, 58			; 0000003aH
  00025	b8 cc cc cc cc	 mov	 eax, -858993460		; ccccccccH
  0002a	f3 ab		 rep stosd
  0002c	48 8b 8c 24 08
	01 00 00	 mov	 rcx, QWORD PTR [rsp+264]
  00034	48 8d 0d 00 00
	00 00		 lea	 rcx, OFFSET FLAT:__0C99713E_xmemory
  0003b	e8 00 00 00 00	 call	 __CheckForDebuggerJustMyCode

; 688  :         // no overflow check on the following multiply; we assume _Allocate did that check
; 689  :         _Deallocate<_New_alignof<value_type>>(_Ptr, sizeof(value_type) * _Count);

  00040	48 6b 85 f0 00
	00 00 10	 imul	 rax, QWORD PTR _Count$[rbp], 16
  00048	48 8b d0	 mov	 rdx, rax
  0004b	48 8b 8d e8 00
	00 00		 mov	 rcx, QWORD PTR _Ptr$[rbp]
  00052	e8 00 00 00 00	 call	 ??$_Deallocate@$0BA@$0A@@std@@YAXPEAX_K@Z ; std::_Deallocate<16,0>

; 690  :     }

  00057	48 8d a5 c8 00
	00 00		 lea	 rsp, QWORD PTR [rbp+200]
  0005e	5f		 pop	 rdi
  0005f	5d		 pop	 rbp
  00060	c3		 ret	 0
?deallocate@?$_Default_allocator_traits@V?$allocator@U_Container_proxy@std@@@std@@@std@@SAXAEAV?$allocator@U_Container_proxy@std@@@2@QEAU_Container_proxy@2@_K@Z ENDP ; std::_Default_allocator_traits<std::allocator<std::_Container_proxy> >::deallocate
_TEXT	ENDS
; Function compile flags: /Odtp /RTCsu /ZI
; File C:\Program Files (x86)\Microsoft Visual Studio\2019\Enterprise\VC\Tools\MSVC\14.27.29110\include\xmemory
;	COMDAT ??$?0AEAPEAV_Facet_base@std@@@?$_Compressed_pair@U?$default_delete@V_Facet_base@std@@@std@@PEAV_Facet_base@2@$00@std@@QEAA@U_Zero_then_variadic_args_t@1@AEAPEAV_Facet_base@1@@Z
_TEXT	SEGMENT
this$ = 224
__formal$ = 232
<_Val2_0>$ = 240
??$?0AEAPEAV_Facet_base@std@@@?$_Compressed_pair@U?$default_delete@V_Facet_base@std@@@std@@PEAV_Facet_base@2@$00@std@@QEAA@U_Zero_then_variadic_args_t@1@AEAPEAV_Facet_base@1@@Z PROC ; std::_Compressed_pair<std::default_delete<std::_Facet_base>,std::_Facet_base *,1>::_Compressed_pair<std::default_delete<std::_Facet_base>,std::_Facet_base *,1><std::_Facet_base * &>, COMDAT

; 1336 :         : _Ty1(), _Myval2(_STD forward<_Other2>(_Val2)...) {}

$LN3:
  00000	4c 89 44 24 18	 mov	 QWORD PTR [rsp+24], r8
  00005	88 54 24 10	 mov	 BYTE PTR [rsp+16], dl
  00009	48 89 4c 24 08	 mov	 QWORD PTR [rsp+8], rcx
  0000e	55		 push	 rbp
  0000f	57		 push	 rdi
  00010	48 81 ec e8 00
	00 00		 sub	 rsp, 232		; 000000e8H
  00017	48 8d 6c 24 20	 lea	 rbp, QWORD PTR [rsp+32]
  0001c	48 8b fc	 mov	 rdi, rsp
  0001f	b9 3a 00 00 00	 mov	 ecx, 58			; 0000003aH
  00024	b8 cc cc cc cc	 mov	 eax, -858993460		; ccccccccH
  00029	f3 ab		 rep stosd
  0002b	48 8b 8c 24 08
	01 00 00	 mov	 rcx, QWORD PTR [rsp+264]
  00033	48 8d 0d 00 00
	00 00		 lea	 rcx, OFFSET FLAT:__0C99713E_xmemory
  0003a	e8 00 00 00 00	 call	 __CheckForDebuggerJustMyCode
  0003f	48 8b 8d f0 00
	00 00		 mov	 rcx, QWORD PTR <_Val2_0>$[rbp]
  00046	e8 00 00 00 00	 call	 ??$forward@AEAPEAV_Facet_base@std@@@std@@YAAEAPEAV_Facet_base@0@AEAPEAV10@@Z ; std::forward<std::_Facet_base * &>
  0004b	48 8b 8d e0 00
	00 00		 mov	 rcx, QWORD PTR this$[rbp]
  00052	48 8b 00	 mov	 rax, QWORD PTR [rax]
  00055	48 89 01	 mov	 QWORD PTR [rcx], rax
  00058	48 8b 85 e0 00
	00 00		 mov	 rax, QWORD PTR this$[rbp]
  0005f	48 8d a5 c8 00
	00 00		 lea	 rsp, QWORD PTR [rbp+200]
  00066	5f		 pop	 rdi
  00067	5d		 pop	 rbp
  00068	c3		 ret	 0
??$?0AEAPEAV_Facet_base@std@@@?$_Compressed_pair@U?$default_delete@V_Facet_base@std@@@std@@PEAV_Facet_base@2@$00@std@@QEAA@U_Zero_then_variadic_args_t@1@AEAPEAV_Facet_base@1@@Z ENDP ; std::_Compressed_pair<std::default_delete<std::_Facet_base>,std::_Facet_base *,1>::_Compressed_pair<std::default_delete<std::_Facet_base>,std::_Facet_base *,1><std::_Facet_base * &>
_TEXT	ENDS
; Function compile flags: /Odtp /RTCsu /ZI
; File C:\Program Files (x86)\Microsoft Visual Studio\2019\Enterprise\VC\Tools\MSVC\14.27.29110\include\utility
;	COMDAT ??$exchange@PEAV_Facet_base@std@@PEAV12@@std@@YAPEAV_Facet_base@0@AEAPEAV10@$$QEAPEAV10@@Z
_TEXT	SEGMENT
_Old_val$ = 8
_Val$ = 256
_New_val$ = 264
??$exchange@PEAV_Facet_base@std@@PEAV12@@std@@YAPEAV_Facet_base@0@AEAPEAV10@$$QEAPEAV10@@Z PROC ; std::exchange<std::_Facet_base *,std::_Facet_base *>, COMDAT

; 597  :     conjunction_v<is_nothrow_move_constructible<_Ty>, is_nothrow_assignable<_Ty&, _Other>>) /* strengthened */ {

$LN3:
  00000	48 89 54 24 10	 mov	 QWORD PTR [rsp+16], rdx
  00005	48 89 4c 24 08	 mov	 QWORD PTR [rsp+8], rcx
  0000a	55		 push	 rbp
  0000b	57		 push	 rdi
  0000c	48 81 ec 08 01
	00 00		 sub	 rsp, 264		; 00000108H
  00013	48 8d 6c 24 20	 lea	 rbp, QWORD PTR [rsp+32]
  00018	48 8b fc	 mov	 rdi, rsp
  0001b	b9 42 00 00 00	 mov	 ecx, 66			; 00000042H
  00020	b8 cc cc cc cc	 mov	 eax, -858993460		; ccccccccH
  00025	f3 ab		 rep stosd
  00027	48 8b 8c 24 28
	01 00 00	 mov	 rcx, QWORD PTR [rsp+296]
  0002f	48 8d 0d 00 00
	00 00		 lea	 rcx, OFFSET FLAT:__660C12FD_utility
  00036	e8 00 00 00 00	 call	 __CheckForDebuggerJustMyCode

; 598  :     // assign _New_val to _Val, return previous _Val
; 599  :     _Ty _Old_val = static_cast<_Ty&&>(_Val);

  0003b	48 8b 85 00 01
	00 00		 mov	 rax, QWORD PTR _Val$[rbp]
  00042	48 8b 00	 mov	 rax, QWORD PTR [rax]
  00045	48 89 45 08	 mov	 QWORD PTR _Old_val$[rbp], rax

; 600  :     _Val         = static_cast<_Other&&>(_New_val);

  00049	48 8b 85 00 01
	00 00		 mov	 rax, QWORD PTR _Val$[rbp]
  00050	48 8b 8d 08 01
	00 00		 mov	 rcx, QWORD PTR _New_val$[rbp]
  00057	48 8b 09	 mov	 rcx, QWORD PTR [rcx]
  0005a	48 89 08	 mov	 QWORD PTR [rax], rcx

; 601  :     return _Old_val;

  0005d	48 8b 45 08	 mov	 rax, QWORD PTR _Old_val$[rbp]

; 602  : }

  00061	48 8d a5 e8 00
	00 00		 lea	 rsp, QWORD PTR [rbp+232]
  00068	5f		 pop	 rdi
  00069	5d		 pop	 rbp
  0006a	c3		 ret	 0
??$exchange@PEAV_Facet_base@std@@PEAV12@@std@@YAPEAV_Facet_base@0@AEAPEAV10@$$QEAPEAV10@@Z ENDP ; std::exchange<std::_Facet_base *,std::_Facet_base *>
_TEXT	ENDS
; Function compile flags: /Odtp /RTCsu /ZI
; File C:\Program Files (x86)\Microsoft Visual Studio\2019\Enterprise\VC\Tools\MSVC\14.27.29110\include\xmemory
;	COMDAT ??$_Allocate_manually_vector_aligned@U_Default_allocate_traits@std@@@std@@YAPEAX_K@Z
_TEXT	SEGMENT
_Block_size$ = 8
_Ptr_container$ = 40
_Ptr$ = 72
_Bytes$ = 320
??$_Allocate_manually_vector_aligned@U_Default_allocate_traits@std@@@std@@YAPEAX_K@Z PROC ; std::_Allocate_manually_vector_aligned<std::_Default_allocate_traits>, COMDAT

; 113  : __declspec(allocator) void* _Allocate_manually_vector_aligned(const size_t _Bytes) {

$LN13:
  00000	48 89 4c 24 08	 mov	 QWORD PTR [rsp+8], rcx
  00005	55		 push	 rbp
  00006	57		 push	 rdi
  00007	48 81 ec 58 01
	00 00		 sub	 rsp, 344		; 00000158H
  0000e	48 8d 6c 24 30	 lea	 rbp, QWORD PTR [rsp+48]
  00013	48 8b fc	 mov	 rdi, rsp
  00016	b9 56 00 00 00	 mov	 ecx, 86			; 00000056H
  0001b	b8 cc cc cc cc	 mov	 eax, -858993460		; ccccccccH
  00020	f3 ab		 rep stosd
  00022	48 8b 8c 24 78
	01 00 00	 mov	 rcx, QWORD PTR [rsp+376]
  0002a	48 8d 0d 00 00
	00 00		 lea	 rcx, OFFSET FLAT:__0C99713E_xmemory
  00031	e8 00 00 00 00	 call	 __CheckForDebuggerJustMyCode

; 114  :     // allocate _Bytes manually aligned to at least _Big_allocation_alignment
; 115  :     const size_t _Block_size = _Non_user_size + _Bytes;

  00036	48 8b 85 40 01
	00 00		 mov	 rax, QWORD PTR _Bytes$[rbp]
  0003d	48 83 c0 2f	 add	 rax, 47			; 0000002fH
  00041	48 89 45 08	 mov	 QWORD PTR _Block_size$[rbp], rax

; 116  :     if (_Block_size <= _Bytes) {

  00045	48 8b 85 40 01
	00 00		 mov	 rax, QWORD PTR _Bytes$[rbp]
  0004c	48 39 45 08	 cmp	 QWORD PTR _Block_size$[rbp], rax
  00050	77 05		 ja	 SHORT $LN8@Allocate_m

; 117  :         _Throw_bad_array_new_length(); // add overflow

  00052	e8 00 00 00 00	 call	 ?_Throw_bad_array_new_length@std@@YAXXZ ; std::_Throw_bad_array_new_length
$LN8@Allocate_m:

; 118  :     }
; 119  : 
; 120  :     const uintptr_t _Ptr_container = reinterpret_cast<uintptr_t>(_Traits::_Allocate(_Block_size));

  00057	48 8b 4d 08	 mov	 rcx, QWORD PTR _Block_size$[rbp]
  0005b	e8 00 00 00 00	 call	 ?_Allocate@_Default_allocate_traits@std@@SAPEAX_K@Z ; std::_Default_allocate_traits::_Allocate
  00060	48 89 45 28	 mov	 QWORD PTR _Ptr_container$[rbp], rax
$LN4@Allocate_m:

; 121  :     _STL_VERIFY(_Ptr_container != 0, "invalid argument"); // validate even in release since we're doing p[-1]

  00064	48 83 7d 28 00	 cmp	 QWORD PTR _Ptr_container$[rbp], 0
  00069	74 02		 je	 SHORT $LN9@Allocate_m
  0006b	eb 6b		 jmp	 SHORT $LN10@Allocate_m
$LN9@Allocate_m:
$LN7@Allocate_m:
  0006d	48 8d 05 00 00
	00 00		 lea	 rax, OFFSET FLAT:??_C@_0BB@FCMFBGOM@invalid?5argument@
  00074	48 89 44 24 28	 mov	 QWORD PTR [rsp+40], rax
  00079	48 8d 05 00 00
	00 00		 lea	 rax, OFFSET FLAT:??_C@_02DKCKIIND@?$CFs@
  00080	48 89 44 24 20	 mov	 QWORD PTR [rsp+32], rax
  00085	45 33 c9	 xor	 r9d, r9d
  00088	41 b8 79 00 00
	00		 mov	 r8d, 121		; 00000079H
  0008e	48 8d 15 00 00
	00 00		 lea	 rdx, OFFSET FLAT:??_C@_0GJ@EHJGLGPD@C?3?2Program?5Files?5?$CIx86?$CJ?2Microsof@
  00095	b9 02 00 00 00	 mov	 ecx, 2
  0009a	ff 15 00 00 00
	00		 call	 QWORD PTR __imp__CrtDbgReport
  000a0	83 f8 01	 cmp	 eax, 1
  000a3	75 03		 jne	 SHORT $LN12@Allocate_m
  000a5	cc		 int	 3
  000a6	33 c0		 xor	 eax, eax
$LN12@Allocate_m:
  000a8	48 c7 44 24 20
	00 00 00 00	 mov	 QWORD PTR [rsp+32], 0
  000b1	41 b9 79 00 00
	00		 mov	 r9d, 121		; 00000079H
  000b7	4c 8d 05 00 00
	00 00		 lea	 r8, OFFSET FLAT:??_C@_1NC@LBGPBFDE@?$AAC?$AA?3?$AA?2?$AAP?$AAr?$AAo?$AAg?$AAr?$AAa?$AAm?$AA?5?$AAF?$AAi?$AAl?$AAe@
  000be	48 8d 15 00 00
	00 00		 lea	 rdx, OFFSET FLAT:??_C@_1EO@GFNCMDLA@?$AAs?$AAt?$AAd?$AA?3?$AA?3?$AA_?$AAA?$AAl?$AAl?$AAo?$AAc?$AAa?$AAt?$AAe?$AA_@
  000c5	48 8d 0d 00 00
	00 00		 lea	 rcx, OFFSET FLAT:??_C@_1CG@JNLFBNGN@?$AA?$CC?$AAi?$AAn?$AAv?$AAa?$AAl?$AAi?$AAd?$AA?5?$AAa?$AAr?$AAg?$AAu?$AAm?$AAe@
  000cc	ff 15 00 00 00
	00		 call	 QWORD PTR __imp__invalid_parameter
  000d2	33 c0		 xor	 eax, eax
  000d4	85 c0		 test	 eax, eax
  000d6	75 95		 jne	 SHORT $LN7@Allocate_m
$LN10@Allocate_m:
  000d8	33 c0		 xor	 eax, eax
  000da	85 c0		 test	 eax, eax
  000dc	75 86		 jne	 SHORT $LN4@Allocate_m

; 122  :     void* const _Ptr = reinterpret_cast<void*>((_Ptr_container + _Non_user_size) & ~(_Big_allocation_alignment - 1));

  000de	48 8b 45 28	 mov	 rax, QWORD PTR _Ptr_container$[rbp]
  000e2	48 83 c0 2f	 add	 rax, 47			; 0000002fH
  000e6	48 83 e0 e0	 and	 rax, -32		; ffffffffffffffe0H
  000ea	48 89 45 48	 mov	 QWORD PTR _Ptr$[rbp], rax

; 123  :     static_cast<uintptr_t*>(_Ptr)[-1] = _Ptr_container;

  000ee	b8 08 00 00 00	 mov	 eax, 8
  000f3	48 6b c0 ff	 imul	 rax, rax, -1
  000f7	48 8b 4d 48	 mov	 rcx, QWORD PTR _Ptr$[rbp]
  000fb	48 8b 55 28	 mov	 rdx, QWORD PTR _Ptr_container$[rbp]
  000ff	48 89 14 01	 mov	 QWORD PTR [rcx+rax], rdx

; 124  : 
; 125  : #ifdef _DEBUG
; 126  :     static_cast<uintptr_t*>(_Ptr)[-2] = _Big_allocation_sentinel;

  00103	b8 08 00 00 00	 mov	 eax, 8
  00108	48 6b c0 fe	 imul	 rax, rax, -2
  0010c	48 8b 4d 48	 mov	 rcx, QWORD PTR _Ptr$[rbp]
  00110	48 ba fa fa fa
	fa fa fa fa fa	 mov	 rdx, -361700864190383366 ; fafafafafafafafaH
  0011a	48 89 14 01	 mov	 QWORD PTR [rcx+rax], rdx

; 127  : #endif // _DEBUG
; 128  :     return _Ptr;

  0011e	48 8b 45 48	 mov	 rax, QWORD PTR _Ptr$[rbp]
$LN11@Allocate_m:

; 129  : }

  00122	48 8d a5 28 01
	00 00		 lea	 rsp, QWORD PTR [rbp+296]
  00129	5f		 pop	 rdi
  0012a	5d		 pop	 rbp
  0012b	c3		 ret	 0
??$_Allocate_manually_vector_aligned@U_Default_allocate_traits@std@@@std@@YAPEAX_K@Z ENDP ; std::_Allocate_manually_vector_aligned<std::_Default_allocate_traits>
_TEXT	ENDS
; Function compile flags: /Odtp /RTCsu /ZI
; File C:\Program Files (x86)\Microsoft Visual Studio\2019\Enterprise\VC\Tools\MSVC\14.27.29110\include\type_traits
;	COMDAT ??$forward@AEBQEAD@std@@YAAEBQEADAEBQEAD@Z
_TEXT	SEGMENT
_Arg$ = 224
??$forward@AEBQEAD@std@@YAAEBQEADAEBQEAD@Z PROC		; std::forward<char * const &>, COMDAT

; 1454 :     remove_reference_t<_Ty>& _Arg) noexcept { // forward an lvalue as either an lvalue or an rvalue

$LN3:
  00000	48 89 4c 24 08	 mov	 QWORD PTR [rsp+8], rcx
  00005	55		 push	 rbp
  00006	57		 push	 rdi
  00007	48 81 ec e8 00
	00 00		 sub	 rsp, 232		; 000000e8H
  0000e	48 8d 6c 24 20	 lea	 rbp, QWORD PTR [rsp+32]
  00013	48 8b fc	 mov	 rdi, rsp
  00016	b9 3a 00 00 00	 mov	 ecx, 58			; 0000003aH
  0001b	b8 cc cc cc cc	 mov	 eax, -858993460		; ccccccccH
  00020	f3 ab		 rep stosd
  00022	48 8b 8c 24 08
	01 00 00	 mov	 rcx, QWORD PTR [rsp+264]
  0002a	48 8d 0d 00 00
	00 00		 lea	 rcx, OFFSET FLAT:__B236D4B0_type_traits
  00031	e8 00 00 00 00	 call	 __CheckForDebuggerJustMyCode

; 1455 :     return static_cast<_Ty&&>(_Arg);

  00036	48 8b 85 e0 00
	00 00		 mov	 rax, QWORD PTR _Arg$[rbp]

; 1456 : }

  0003d	48 8d a5 c8 00
	00 00		 lea	 rsp, QWORD PTR [rbp+200]
  00044	5f		 pop	 rdi
  00045	5d		 pop	 rbp
  00046	c3		 ret	 0
??$forward@AEBQEAD@std@@YAAEBQEADAEBQEAD@Z ENDP		; std::forward<char * const &>
_TEXT	ENDS
; Function compile flags: /Odtp /RTCsu /ZI
; File C:\Program Files (x86)\Microsoft Visual Studio\2019\Enterprise\VC\Tools\MSVC\14.27.29110\include\xstddef
;	COMDAT ??$addressof@PEAD@std@@YAPEAPEADAEAPEAD@Z
_TEXT	SEGMENT
_Val$ = 224
??$addressof@PEAD@std@@YAPEAPEADAEAPEAD@Z PROC		; std::addressof<char *>, COMDAT

; 274  : _NODISCARD constexpr _Ty* addressof(_Ty& _Val) noexcept {

$LN3:
  00000	48 89 4c 24 08	 mov	 QWORD PTR [rsp+8], rcx
  00005	55		 push	 rbp
  00006	57		 push	 rdi
  00007	48 81 ec e8 00
	00 00		 sub	 rsp, 232		; 000000e8H
  0000e	48 8d 6c 24 20	 lea	 rbp, QWORD PTR [rsp+32]
  00013	48 8b fc	 mov	 rdi, rsp
  00016	b9 3a 00 00 00	 mov	 ecx, 58			; 0000003aH
  0001b	b8 cc cc cc cc	 mov	 eax, -858993460		; ccccccccH
  00020	f3 ab		 rep stosd
  00022	48 8b 8c 24 08
	01 00 00	 mov	 rcx, QWORD PTR [rsp+264]
  0002a	48 8d 0d 00 00
	00 00		 lea	 rcx, OFFSET FLAT:__911385EF_xstddef
  00031	e8 00 00 00 00	 call	 __CheckForDebuggerJustMyCode

; 275  :     return __builtin_addressof(_Val);

  00036	48 8b 85 e0 00
	00 00		 mov	 rax, QWORD PTR _Val$[rbp]

; 276  : }

  0003d	48 8d a5 c8 00
	00 00		 lea	 rsp, QWORD PTR [rbp+200]
  00044	5f		 pop	 rdi
  00045	5d		 pop	 rbp
  00046	c3		 ret	 0
??$addressof@PEAD@std@@YAPEAPEADAEAPEAD@Z ENDP		; std::addressof<char *>
_TEXT	ENDS
; Function compile flags: /Odtp /RTCsu /ZI
; File C:\Program Files (x86)\Microsoft Visual Studio\2019\Enterprise\VC\Tools\MSVC\14.27.29110\include\xmemory
;	COMDAT ??$_Deallocate_plain@V?$allocator@U_Container_proxy@std@@@std@@@std@@YAXAEAV?$allocator@U_Container_proxy@std@@@0@QEAU_Container_proxy@0@@Z
_TEXT	SEGMENT
_Al$ = 224
_Ptr$ = 232
??$_Deallocate_plain@V?$allocator@U_Container_proxy@std@@@std@@@std@@YAXAEAV?$allocator@U_Container_proxy@std@@@0@QEAU_Container_proxy@0@@Z PROC ; std::_Deallocate_plain<std::allocator<std::_Container_proxy> >, COMDAT

; 998  : void _Deallocate_plain(_Alloc& _Al, typename _Alloc::value_type* const _Ptr) noexcept {

$LN3:
  00000	48 89 54 24 10	 mov	 QWORD PTR [rsp+16], rdx
  00005	48 89 4c 24 08	 mov	 QWORD PTR [rsp+8], rcx
  0000a	55		 push	 rbp
  0000b	57		 push	 rdi
  0000c	48 81 ec e8 00
	00 00		 sub	 rsp, 232		; 000000e8H
  00013	48 8d 6c 24 20	 lea	 rbp, QWORD PTR [rsp+32]
  00018	48 8b fc	 mov	 rdi, rsp
  0001b	b9 3a 00 00 00	 mov	 ecx, 58			; 0000003aH
  00020	b8 cc cc cc cc	 mov	 eax, -858993460		; ccccccccH
  00025	f3 ab		 rep stosd
  00027	48 8b 8c 24 08
	01 00 00	 mov	 rcx, QWORD PTR [rsp+264]
  0002f	48 8d 0d 00 00
	00 00		 lea	 rcx, OFFSET FLAT:__0C99713E_xmemory
  00036	e8 00 00 00 00	 call	 __CheckForDebuggerJustMyCode

; 999  :     // deallocate a plain pointer using an allocator
; 1000 :     using _Alloc_traits = allocator_traits<_Alloc>;
; 1001 :     if constexpr (is_same_v<_Alloc_ptr_t<_Alloc>, typename _Alloc::value_type*>) {
; 1002 :         _Alloc_traits::deallocate(_Al, _Ptr, 1);

  0003b	41 b8 01 00 00
	00		 mov	 r8d, 1
  00041	48 8b 95 e8 00
	00 00		 mov	 rdx, QWORD PTR _Ptr$[rbp]
  00048	48 8b 8d e0 00
	00 00		 mov	 rcx, QWORD PTR _Al$[rbp]
  0004f	e8 00 00 00 00	 call	 ?deallocate@?$_Default_allocator_traits@V?$allocator@U_Container_proxy@std@@@std@@@std@@SAXAEAV?$allocator@U_Container_proxy@std@@@2@QEAU_Container_proxy@2@_K@Z ; std::_Default_allocator_traits<std::allocator<std::_Container_proxy> >::deallocate
  00054	90		 npad	 1

; 1003 :     } else {
; 1004 :         using _Ptr_traits = pointer_traits<_Alloc_ptr_t<_Alloc>>;
; 1005 :         _Alloc_traits::deallocate(_Al, _Ptr_traits::pointer_to(*_Ptr), 1);
; 1006 :     }
; 1007 : }

  00055	48 8d a5 c8 00
	00 00		 lea	 rsp, QWORD PTR [rbp+200]
  0005c	5f		 pop	 rdi
  0005d	5d		 pop	 rbp
  0005e	c3		 ret	 0
??$_Deallocate_plain@V?$allocator@U_Container_proxy@std@@@std@@@std@@YAXAEAV?$allocator@U_Container_proxy@std@@@0@QEAU_Container_proxy@0@@Z ENDP ; std::_Deallocate_plain<std::allocator<std::_Container_proxy> >
_TEXT	ENDS
; Function compile flags: /Odtp /RTCsu /ZI
; File C:\Program Files (x86)\Microsoft Visual Studio\2019\Enterprise\VC\Tools\MSVC\14.27.29110\include\memory
;	COMDAT ??$?0U?$default_delete@V_Facet_base@std@@@std@@$0A@@?$unique_ptr@V_Facet_base@std@@U?$default_delete@V_Facet_base@std@@@2@@std@@QEAA@PEAV_Facet_base@1@@Z
_TEXT	SEGMENT
$T1 = 196
this$ = 256
_Ptr$ = 264
??$?0U?$default_delete@V_Facet_base@std@@@std@@$0A@@?$unique_ptr@V_Facet_base@std@@U?$default_delete@V_Facet_base@std@@@2@@std@@QEAA@PEAV_Facet_base@1@@Z PROC ; std::unique_ptr<std::_Facet_base,std::default_delete<std::_Facet_base> >::unique_ptr<std::_Facet_base,std::default_delete<std::_Facet_base> ><std::default_delete<std::_Facet_base>,0>, COMDAT

; 2455 :     explicit unique_ptr(pointer _Ptr) noexcept : _Mypair(_Zero_then_variadic_args_t{}, _Ptr) {}

$LN3:
  00000	48 89 54 24 10	 mov	 QWORD PTR [rsp+16], rdx
  00005	48 89 4c 24 08	 mov	 QWORD PTR [rsp+8], rcx
  0000a	55		 push	 rbp
  0000b	57		 push	 rdi
  0000c	48 81 ec 08 01
	00 00		 sub	 rsp, 264		; 00000108H
  00013	48 8d 6c 24 20	 lea	 rbp, QWORD PTR [rsp+32]
  00018	48 8b fc	 mov	 rdi, rsp
  0001b	b9 42 00 00 00	 mov	 ecx, 66			; 00000042H
  00020	b8 cc cc cc cc	 mov	 eax, -858993460		; ccccccccH
  00025	f3 ab		 rep stosd
  00027	48 8b 8c 24 28
	01 00 00	 mov	 rcx, QWORD PTR [rsp+296]
  0002f	48 8d 0d 00 00
	00 00		 lea	 rcx, OFFSET FLAT:__E28F974E_memory
  00036	e8 00 00 00 00	 call	 __CheckForDebuggerJustMyCode
  0003b	48 8b 85 00 01
	00 00		 mov	 rax, QWORD PTR this$[rbp]
  00042	4c 8d 85 08 01
	00 00		 lea	 r8, QWORD PTR _Ptr$[rbp]
  00049	0f b6 95 c4 00
	00 00		 movzx	 edx, BYTE PTR $T1[rbp]
  00050	48 8b c8	 mov	 rcx, rax
  00053	e8 00 00 00 00	 call	 ??$?0AEAPEAV_Facet_base@std@@@?$_Compressed_pair@U?$default_delete@V_Facet_base@std@@@std@@PEAV_Facet_base@2@$00@std@@QEAA@U_Zero_then_variadic_args_t@1@AEAPEAV_Facet_base@1@@Z ; std::_Compressed_pair<std::default_delete<std::_Facet_base>,std::_Facet_base *,1>::_Compressed_pair<std::default_delete<std::_Facet_base>,std::_Facet_base *,1><std::_Facet_base * &>
  00058	48 8b 85 00 01
	00 00		 mov	 rax, QWORD PTR this$[rbp]
  0005f	48 8d a5 e8 00
	00 00		 lea	 rsp, QWORD PTR [rbp+232]
  00066	5f		 pop	 rdi
  00067	5d		 pop	 rbp
  00068	c3		 ret	 0
??$?0U?$default_delete@V_Facet_base@std@@@std@@$0A@@?$unique_ptr@V_Facet_base@std@@U?$default_delete@V_Facet_base@std@@@2@@std@@QEAA@PEAV_Facet_base@1@@Z ENDP ; std::unique_ptr<std::_Facet_base,std::default_delete<std::_Facet_base> >::unique_ptr<std::_Facet_base,std::default_delete<std::_Facet_base> ><std::default_delete<std::_Facet_base>,0>
_TEXT	ENDS
; Function compile flags: /Odtp /RTCsu /ZI
;	COMDAT ?__autoclassinit2@?$unique_ptr@V_Facet_base@std@@U?$default_delete@V_Facet_base@std@@@2@@std@@QEAAX_K@Z
_TEXT	SEGMENT
this$ = 224
classSize$ = 232
?__autoclassinit2@?$unique_ptr@V_Facet_base@std@@U?$default_delete@V_Facet_base@std@@@2@@std@@QEAAX_K@Z PROC ; std::unique_ptr<std::_Facet_base,std::default_delete<std::_Facet_base> >::__autoclassinit2, COMDAT
$LN3:
  00000	48 89 54 24 10	 mov	 QWORD PTR [rsp+16], rdx
  00005	48 89 4c 24 08	 mov	 QWORD PTR [rsp+8], rcx
  0000a	55		 push	 rbp
  0000b	57		 push	 rdi
  0000c	48 81 ec c8 00
	00 00		 sub	 rsp, 200		; 000000c8H
  00013	48 8b ec	 mov	 rbp, rsp
  00016	48 8b fc	 mov	 rdi, rsp
  00019	b9 32 00 00 00	 mov	 ecx, 50			; 00000032H
  0001e	b8 cc cc cc cc	 mov	 eax, -858993460		; ccccccccH
  00023	f3 ab		 rep stosd
  00025	48 8b 8c 24 e8
	00 00 00	 mov	 rcx, QWORD PTR [rsp+232]
  0002d	48 8b bd e0 00
	00 00		 mov	 rdi, QWORD PTR this$[rbp]
  00034	33 c0		 xor	 eax, eax
  00036	48 8b 8d e8 00
	00 00		 mov	 rcx, QWORD PTR classSize$[rbp]
  0003d	f3 aa		 rep stosb
  0003f	48 8d a5 c8 00
	00 00		 lea	 rsp, QWORD PTR [rbp+200]
  00046	5f		 pop	 rdi
  00047	5d		 pop	 rbp
  00048	c3		 ret	 0
?__autoclassinit2@?$unique_ptr@V_Facet_base@std@@U?$default_delete@V_Facet_base@std@@@2@@std@@QEAAX_K@Z ENDP ; std::unique_ptr<std::_Facet_base,std::default_delete<std::_Facet_base> >::__autoclassinit2
_TEXT	ENDS
; Function compile flags: /Odtp /RTCsu /ZI
; File C:\Program Files (x86)\Microsoft Visual Studio\2019\Enterprise\VC\Tools\MSVC\14.27.29110\include\xmemory
;	COMDAT ?_Get_first@?$_Compressed_pair@U?$default_delete@V_Facet_base@std@@@std@@PEAV_Facet_base@2@$00@std@@QEAAAEAU?$default_delete@V_Facet_base@std@@@2@XZ
_TEXT	SEGMENT
this$ = 224
?_Get_first@?$_Compressed_pair@U?$default_delete@V_Facet_base@std@@@std@@PEAV_Facet_base@2@$00@std@@QEAAAEAU?$default_delete@V_Facet_base@std@@@2@XZ PROC ; std::_Compressed_pair<std::default_delete<std::_Facet_base>,std::_Facet_base *,1>::_Get_first, COMDAT

; 1343 :     constexpr _Ty1& _Get_first() noexcept {

$LN3:
  00000	48 89 4c 24 08	 mov	 QWORD PTR [rsp+8], rcx
  00005	55		 push	 rbp
  00006	57		 push	 rdi
  00007	48 81 ec e8 00
	00 00		 sub	 rsp, 232		; 000000e8H
  0000e	48 8d 6c 24 20	 lea	 rbp, QWORD PTR [rsp+32]
  00013	48 8b fc	 mov	 rdi, rsp
  00016	b9 3a 00 00 00	 mov	 ecx, 58			; 0000003aH
  0001b	b8 cc cc cc cc	 mov	 eax, -858993460		; ccccccccH
  00020	f3 ab		 rep stosd
  00022	48 8b 8c 24 08
	01 00 00	 mov	 rcx, QWORD PTR [rsp+264]
  0002a	48 8d 0d 00 00
	00 00		 lea	 rcx, OFFSET FLAT:__0C99713E_xmemory
  00031	e8 00 00 00 00	 call	 __CheckForDebuggerJustMyCode

; 1344 :         return *this;

  00036	48 8b 85 e0 00
	00 00		 mov	 rax, QWORD PTR this$[rbp]

; 1345 :     }

  0003d	48 8d a5 c8 00
	00 00		 lea	 rsp, QWORD PTR [rbp+200]
  00044	5f		 pop	 rdi
  00045	5d		 pop	 rbp
  00046	c3		 ret	 0
?_Get_first@?$_Compressed_pair@U?$default_delete@V_Facet_base@std@@@std@@PEAV_Facet_base@2@$00@std@@QEAAAEAU?$default_delete@V_Facet_base@std@@@2@XZ ENDP ; std::_Compressed_pair<std::default_delete<std::_Facet_base>,std::_Facet_base *,1>::_Get_first
_TEXT	ENDS
; Function compile flags: /Odtp /RTCsu /ZI
; File C:\Program Files (x86)\Microsoft Visual Studio\2019\Enterprise\VC\Tools\MSVC\14.27.29110\include\memory
;	COMDAT ?release@?$unique_ptr@V_Facet_base@std@@U?$default_delete@V_Facet_base@std@@@2@@std@@QEAAPEAV_Facet_base@2@XZ
_TEXT	SEGMENT
$T1 = 200
this$ = 256
?release@?$unique_ptr@V_Facet_base@std@@U?$default_delete@V_Facet_base@std@@@2@@std@@QEAAPEAV_Facet_base@2@XZ PROC ; std::unique_ptr<std::_Facet_base,std::default_delete<std::_Facet_base> >::release, COMDAT

; 2540 :     pointer release() noexcept {

$LN3:
  00000	48 89 4c 24 08	 mov	 QWORD PTR [rsp+8], rcx
  00005	55		 push	 rbp
  00006	57		 push	 rdi
  00007	48 81 ec 08 01
	00 00		 sub	 rsp, 264		; 00000108H
  0000e	48 8d 6c 24 20	 lea	 rbp, QWORD PTR [rsp+32]
  00013	48 8b fc	 mov	 rdi, rsp
  00016	b9 42 00 00 00	 mov	 ecx, 66			; 00000042H
  0001b	b8 cc cc cc cc	 mov	 eax, -858993460		; ccccccccH
  00020	f3 ab		 rep stosd
  00022	48 8b 8c 24 28
	01 00 00	 mov	 rcx, QWORD PTR [rsp+296]
  0002a	48 8d 0d 00 00
	00 00		 lea	 rcx, OFFSET FLAT:__E28F974E_memory
  00031	e8 00 00 00 00	 call	 __CheckForDebuggerJustMyCode

; 2541 :         return _STD exchange(_Mypair._Myval2, pointer());

  00036	48 c7 85 c8 00
	00 00 00 00 00
	00		 mov	 QWORD PTR $T1[rbp], 0
  00041	48 8b 85 00 01
	00 00		 mov	 rax, QWORD PTR this$[rbp]
  00048	48 8d 95 c8 00
	00 00		 lea	 rdx, QWORD PTR $T1[rbp]
  0004f	48 8b c8	 mov	 rcx, rax
  00052	e8 00 00 00 00	 call	 ??$exchange@PEAV_Facet_base@std@@PEAV12@@std@@YAPEAV_Facet_base@0@AEAPEAV10@$$QEAPEAV10@@Z ; std::exchange<std::_Facet_base *,std::_Facet_base *>
  00057	90		 npad	 1

; 2542 :     }

  00058	48 8d a5 e8 00
	00 00		 lea	 rsp, QWORD PTR [rbp+232]
  0005f	5f		 pop	 rdi
  00060	5d		 pop	 rbp
  00061	c3		 ret	 0
?release@?$unique_ptr@V_Facet_base@std@@U?$default_delete@V_Facet_base@std@@@2@@std@@QEAAPEAV_Facet_base@2@XZ ENDP ; std::unique_ptr<std::_Facet_base,std::default_delete<std::_Facet_base> >::release
_TEXT	ENDS
; Function compile flags: /Odtp /RTCsu /ZI
; File C:\Program Files (x86)\Microsoft Visual Studio\2019\Enterprise\VC\Tools\MSVC\14.27.29110\include\memory
;	COMDAT ??1?$unique_ptr@V_Facet_base@std@@U?$default_delete@V_Facet_base@std@@@2@@std@@QEAA@XZ
_TEXT	SEGMENT
this$ = 224
??1?$unique_ptr@V_Facet_base@std@@U?$default_delete@V_Facet_base@std@@@2@@std@@QEAA@XZ PROC ; std::unique_ptr<std::_Facet_base,std::default_delete<std::_Facet_base> >::~unique_ptr<std::_Facet_base,std::default_delete<std::_Facet_base> >, COMDAT

; 2510 :     ~unique_ptr() noexcept {

$LN4:
  00000	48 89 4c 24 08	 mov	 QWORD PTR [rsp+8], rcx
  00005	55		 push	 rbp
  00006	57		 push	 rdi
  00007	48 81 ec e8 00
	00 00		 sub	 rsp, 232		; 000000e8H
  0000e	48 8d 6c 24 20	 lea	 rbp, QWORD PTR [rsp+32]
  00013	48 8b fc	 mov	 rdi, rsp
  00016	b9 3a 00 00 00	 mov	 ecx, 58			; 0000003aH
  0001b	b8 cc cc cc cc	 mov	 eax, -858993460		; ccccccccH
  00020	f3 ab		 rep stosd
  00022	48 8b 8c 24 08
	01 00 00	 mov	 rcx, QWORD PTR [rsp+264]
  0002a	48 8d 0d 00 00
	00 00		 lea	 rcx, OFFSET FLAT:__E28F974E_memory
  00031	e8 00 00 00 00	 call	 __CheckForDebuggerJustMyCode

; 2511 :         if (_Mypair._Myval2) {

  00036	48 8b 85 e0 00
	00 00		 mov	 rax, QWORD PTR this$[rbp]
  0003d	48 83 38 00	 cmp	 QWORD PTR [rax], 0
  00041	74 22		 je	 SHORT $LN2@unique_ptr

; 2512 :             _Mypair._Get_first()(_Mypair._Myval2);

  00043	48 8b 85 e0 00
	00 00		 mov	 rax, QWORD PTR this$[rbp]
  0004a	48 8b c8	 mov	 rcx, rax
  0004d	e8 00 00 00 00	 call	 ?_Get_first@?$_Compressed_pair@U?$default_delete@V_Facet_base@std@@@std@@PEAV_Facet_base@2@$00@std@@QEAAAEAU?$default_delete@V_Facet_base@std@@@2@XZ ; std::_Compressed_pair<std::default_delete<std::_Facet_base>,std::_Facet_base *,1>::_Get_first
  00052	48 8b 8d e0 00
	00 00		 mov	 rcx, QWORD PTR this$[rbp]
  00059	48 8b 11	 mov	 rdx, QWORD PTR [rcx]
  0005c	48 8b c8	 mov	 rcx, rax
  0005f	e8 00 00 00 00	 call	 ??R?$default_delete@V_Facet_base@std@@@std@@QEBAXPEAV_Facet_base@1@@Z ; std::default_delete<std::_Facet_base>::operator()
  00064	90		 npad	 1
$LN2@unique_ptr:

; 2513 :         }
; 2514 :     }

  00065	48 8d a5 c8 00
	00 00		 lea	 rsp, QWORD PTR [rbp+200]
  0006c	5f		 pop	 rdi
  0006d	5d		 pop	 rbp
  0006e	c3		 ret	 0
??1?$unique_ptr@V_Facet_base@std@@U?$default_delete@V_Facet_base@std@@@2@@std@@QEAA@XZ ENDP ; std::unique_ptr<std::_Facet_base,std::default_delete<std::_Facet_base> >::~unique_ptr<std::_Facet_base,std::default_delete<std::_Facet_base> >
_TEXT	ENDS
; Function compile flags: /Odtp /RTCsu /ZI
; File C:\Program Files (x86)\Microsoft Visual Studio\2019\Enterprise\VC\Tools\MSVC\14.27.29110\include\memory
;	COMDAT ??R?$default_delete@V_Facet_base@std@@@std@@QEBAXPEAV_Facet_base@1@@Z
_TEXT	SEGMENT
$T1 = 200
tv70 = 216
this$ = 256
_Ptr$ = 264
??R?$default_delete@V_Facet_base@std@@@std@@QEBAXPEAV_Facet_base@1@@Z PROC ; std::default_delete<std::_Facet_base>::operator(), COMDAT

; 2400 :     void operator()(_Ty* _Ptr) const noexcept /* strengthened */ { // delete a pointer

$LN5:
  00000	48 89 54 24 10	 mov	 QWORD PTR [rsp+16], rdx
  00005	48 89 4c 24 08	 mov	 QWORD PTR [rsp+8], rcx
  0000a	55		 push	 rbp
  0000b	57		 push	 rdi
  0000c	48 81 ec 08 01
	00 00		 sub	 rsp, 264		; 00000108H
  00013	48 8d 6c 24 20	 lea	 rbp, QWORD PTR [rsp+32]
  00018	48 8b fc	 mov	 rdi, rsp
  0001b	b9 42 00 00 00	 mov	 ecx, 66			; 00000042H
  00020	b8 cc cc cc cc	 mov	 eax, -858993460		; ccccccccH
  00025	f3 ab		 rep stosd
  00027	48 8b 8c 24 28
	01 00 00	 mov	 rcx, QWORD PTR [rsp+296]
  0002f	48 8d 0d 00 00
	00 00		 lea	 rcx, OFFSET FLAT:__E28F974E_memory
  00036	e8 00 00 00 00	 call	 __CheckForDebuggerJustMyCode

; 2401 :         static_assert(0 < sizeof(_Ty), "can't delete an incomplete type");
; 2402 :         delete _Ptr;

  0003b	48 8b 85 08 01
	00 00		 mov	 rax, QWORD PTR _Ptr$[rbp]
  00042	48 89 85 c8 00
	00 00		 mov	 QWORD PTR $T1[rbp], rax
  00049	48 83 bd c8 00
	00 00 00	 cmp	 QWORD PTR $T1[rbp], 0
  00051	74 21		 je	 SHORT $LN3@operator
  00053	48 8b 85 c8 00
	00 00		 mov	 rax, QWORD PTR $T1[rbp]
  0005a	48 8b 00	 mov	 rax, QWORD PTR [rax]
  0005d	ba 01 00 00 00	 mov	 edx, 1
  00062	48 8b 8d c8 00
	00 00		 mov	 rcx, QWORD PTR $T1[rbp]
  00069	ff 10		 call	 QWORD PTR [rax]
  0006b	48 89 85 d8 00
	00 00		 mov	 QWORD PTR tv70[rbp], rax
  00072	eb 0b		 jmp	 SHORT $LN4@operator
$LN3@operator:
  00074	48 c7 85 d8 00
	00 00 00 00 00
	00		 mov	 QWORD PTR tv70[rbp], 0
$LN4@operator:

; 2403 :     }

  0007f	48 8d a5 e8 00
	00 00		 lea	 rsp, QWORD PTR [rbp+232]
  00086	5f		 pop	 rdi
  00087	5d		 pop	 rbp
  00088	c3		 ret	 0
??R?$default_delete@V_Facet_base@std@@@std@@QEBAXPEAV_Facet_base@1@@Z ENDP ; std::default_delete<std::_Facet_base>::operator()
_TEXT	ENDS
; Function compile flags: /Odtp /RTCsu /ZI
; File C:\Program Files (x86)\Microsoft Visual Studio\2019\Enterprise\VC\Tools\MSVC\14.27.29110\include\type_traits
;	COMDAT ??$forward@PEAU_Container_base12@std@@@std@@YA$$QEAPEAU_Container_base12@0@AEAPEAU10@@Z
_TEXT	SEGMENT
_Arg$ = 224
??$forward@PEAU_Container_base12@std@@@std@@YA$$QEAPEAU_Container_base12@0@AEAPEAU10@@Z PROC ; std::forward<std::_Container_base12 *>, COMDAT

; 1454 :     remove_reference_t<_Ty>& _Arg) noexcept { // forward an lvalue as either an lvalue or an rvalue

$LN3:
  00000	48 89 4c 24 08	 mov	 QWORD PTR [rsp+8], rcx
  00005	55		 push	 rbp
  00006	57		 push	 rdi
  00007	48 81 ec e8 00
	00 00		 sub	 rsp, 232		; 000000e8H
  0000e	48 8d 6c 24 20	 lea	 rbp, QWORD PTR [rsp+32]
  00013	48 8b fc	 mov	 rdi, rsp
  00016	b9 3a 00 00 00	 mov	 ecx, 58			; 0000003aH
  0001b	b8 cc cc cc cc	 mov	 eax, -858993460		; ccccccccH
  00020	f3 ab		 rep stosd
  00022	48 8b 8c 24 08
	01 00 00	 mov	 rcx, QWORD PTR [rsp+264]
  0002a	48 8d 0d 00 00
	00 00		 lea	 rcx, OFFSET FLAT:__B236D4B0_type_traits
  00031	e8 00 00 00 00	 call	 __CheckForDebuggerJustMyCode

; 1455 :     return static_cast<_Ty&&>(_Arg);

  00036	48 8b 85 e0 00
	00 00		 mov	 rax, QWORD PTR _Arg$[rbp]

; 1456 : }

  0003d	48 8d a5 c8 00
	00 00		 lea	 rsp, QWORD PTR [rbp+200]
  00044	5f		 pop	 rdi
  00045	5d		 pop	 rbp
  00046	c3		 ret	 0
??$forward@PEAU_Container_base12@std@@@std@@YA$$QEAPEAU_Container_base12@0@AEAPEAU10@@Z ENDP ; std::forward<std::_Container_base12 *>
_TEXT	ENDS
; Function compile flags: /Odtp /RTCsu /ZI
; File C:\Program Files (x86)\Microsoft Visual Studio\2019\Enterprise\VC\Tools\MSVC\14.27.29110\include\xstddef
;	COMDAT ??$addressof@U_Container_proxy@std@@@std@@YAPEAU_Container_proxy@0@AEAU10@@Z
_TEXT	SEGMENT
_Val$ = 224
??$addressof@U_Container_proxy@std@@@std@@YAPEAU_Container_proxy@0@AEAU10@@Z PROC ; std::addressof<std::_Container_proxy>, COMDAT

; 274  : _NODISCARD constexpr _Ty* addressof(_Ty& _Val) noexcept {

$LN3:
  00000	48 89 4c 24 08	 mov	 QWORD PTR [rsp+8], rcx
  00005	55		 push	 rbp
  00006	57		 push	 rdi
  00007	48 81 ec e8 00
	00 00		 sub	 rsp, 232		; 000000e8H
  0000e	48 8d 6c 24 20	 lea	 rbp, QWORD PTR [rsp+32]
  00013	48 8b fc	 mov	 rdi, rsp
  00016	b9 3a 00 00 00	 mov	 ecx, 58			; 0000003aH
  0001b	b8 cc cc cc cc	 mov	 eax, -858993460		; ccccccccH
  00020	f3 ab		 rep stosd
  00022	48 8b 8c 24 08
	01 00 00	 mov	 rcx, QWORD PTR [rsp+264]
  0002a	48 8d 0d 00 00
	00 00		 lea	 rcx, OFFSET FLAT:__911385EF_xstddef
  00031	e8 00 00 00 00	 call	 __CheckForDebuggerJustMyCode

; 275  :     return __builtin_addressof(_Val);

  00036	48 8b 85 e0 00
	00 00		 mov	 rax, QWORD PTR _Val$[rbp]

; 276  : }

  0003d	48 8d a5 c8 00
	00 00		 lea	 rsp, QWORD PTR [rbp+200]
  00044	5f		 pop	 rdi
  00045	5d		 pop	 rbp
  00046	c3		 ret	 0
??$addressof@U_Container_proxy@std@@@std@@YAPEAU_Container_proxy@0@AEAU10@@Z ENDP ; std::addressof<std::_Container_proxy>
_TEXT	ENDS
; Function compile flags: /Odtp /RTCsu /ZI
; File C:\Program Files (x86)\Microsoft Visual Studio\2019\Enterprise\VC\Tools\MSVC\14.27.29110\include\xmemory
;	COMDAT ??$_Get_size_of_n@$00@std@@YA_K_K@Z
_TEXT	SEGMENT
_Overflow_is_possible$ = 4
_Count$ = 256
??$_Get_size_of_n@$00@std@@YA_K_K@Z PROC		; std::_Get_size_of_n<1>, COMDAT

; 55   : _NODISCARD constexpr size_t _Get_size_of_n(const size_t _Count) {

$LN3:
  00000	48 89 4c 24 08	 mov	 QWORD PTR [rsp+8], rcx
  00005	55		 push	 rbp
  00006	57		 push	 rdi
  00007	48 81 ec 08 01
	00 00		 sub	 rsp, 264		; 00000108H
  0000e	48 8d 6c 24 20	 lea	 rbp, QWORD PTR [rsp+32]
  00013	48 8b fc	 mov	 rdi, rsp
  00016	b9 42 00 00 00	 mov	 ecx, 66			; 00000042H
  0001b	b8 cc cc cc cc	 mov	 eax, -858993460		; ccccccccH
  00020	f3 ab		 rep stosd
  00022	48 8b 8c 24 28
	01 00 00	 mov	 rcx, QWORD PTR [rsp+296]
  0002a	48 8d 0d 00 00
	00 00		 lea	 rcx, OFFSET FLAT:__0C99713E_xmemory
  00031	e8 00 00 00 00	 call	 __CheckForDebuggerJustMyCode

; 56   :     constexpr bool _Overflow_is_possible = _Ty_size > 1;

  00036	c6 45 04 00	 mov	 BYTE PTR _Overflow_is_possible$[rbp], 0

; 57   : 
; 58   :     if _CONSTEXPR_IF (_Overflow_is_possible) {
; 59   :         constexpr size_t _Max_possible = static_cast<size_t>(-1) / _Ty_size;
; 60   :         if (_Count > _Max_possible) {
; 61   :             _Throw_bad_array_new_length(); // multiply overflow
; 62   :         }
; 63   :     }
; 64   : 
; 65   :     return _Count * _Ty_size;

  0003a	48 8b 85 00 01
	00 00		 mov	 rax, QWORD PTR _Count$[rbp]

; 66   : }

  00041	48 8d a5 e8 00
	00 00		 lea	 rsp, QWORD PTR [rbp+232]
  00048	5f		 pop	 rdi
  00049	5d		 pop	 rbp
  0004a	c3		 ret	 0
??$_Get_size_of_n@$00@std@@YA_K_K@Z ENDP		; std::_Get_size_of_n<1>
_TEXT	ENDS
; Function compile flags: /Odtp /RTCsu /ZI
; File C:\Program Files (x86)\Microsoft Visual Studio\2019\Enterprise\VC\Tools\MSVC\14.27.29110\include\xmemory
;	COMDAT ??$_Deallocate@$0BA@$0A@@std@@YAXPEAX_K@Z
_TEXT	SEGMENT
_Ptr$ = 224
_Bytes$ = 232
??$_Deallocate@$0BA@$0A@@std@@YAXPEAX_K@Z PROC		; std::_Deallocate<16,0>, COMDAT

; 213  : void _Deallocate(void* _Ptr, size_t _Bytes) noexcept {

$LN4:
  00000	48 89 54 24 10	 mov	 QWORD PTR [rsp+16], rdx
  00005	48 89 4c 24 08	 mov	 QWORD PTR [rsp+8], rcx
  0000a	55		 push	 rbp
  0000b	57		 push	 rdi
  0000c	48 81 ec e8 00
	00 00		 sub	 rsp, 232		; 000000e8H
  00013	48 8d 6c 24 20	 lea	 rbp, QWORD PTR [rsp+32]
  00018	48 8b fc	 mov	 rdi, rsp
  0001b	b9 3a 00 00 00	 mov	 ecx, 58			; 0000003aH
  00020	b8 cc cc cc cc	 mov	 eax, -858993460		; ccccccccH
  00025	f3 ab		 rep stosd
  00027	48 8b 8c 24 08
	01 00 00	 mov	 rcx, QWORD PTR [rsp+264]
  0002f	48 8d 0d 00 00
	00 00		 lea	 rcx, OFFSET FLAT:__0C99713E_xmemory
  00036	e8 00 00 00 00	 call	 __CheckForDebuggerJustMyCode

; 214  :     // deallocate storage allocated by _Allocate when !_HAS_ALIGNED_NEW || _Align <= __STDCPP_DEFAULT_NEW_ALIGNMENT__
; 215  : #if defined(_M_IX86) || defined(_M_X64)
; 216  :     if (_Bytes >= _Big_allocation_threshold) { // boost the alignment of big allocations to help autovectorization

  0003b	48 81 bd e8 00
	00 00 00 10 00
	00		 cmp	 QWORD PTR _Bytes$[rbp], 4096 ; 00001000H
  00046	72 13		 jb	 SHORT $LN2@Deallocate

; 217  :         _Adjust_manually_vector_aligned(_Ptr, _Bytes);

  00048	48 8d 95 e8 00
	00 00		 lea	 rdx, QWORD PTR _Bytes$[rbp]
  0004f	48 8d 8d e0 00
	00 00		 lea	 rcx, QWORD PTR _Ptr$[rbp]
  00056	e8 00 00 00 00	 call	 ?_Adjust_manually_vector_aligned@std@@YAXAEAPEAXAEA_K@Z ; std::_Adjust_manually_vector_aligned
$LN2@Deallocate:

; 218  :     }
; 219  : #endif // defined(_M_IX86) || defined(_M_X64)
; 220  : 
; 221  :     ::operator delete(_Ptr, _Bytes);

  0005b	48 8b 95 e8 00
	00 00		 mov	 rdx, QWORD PTR _Bytes$[rbp]
  00062	48 8b 8d e0 00
	00 00		 mov	 rcx, QWORD PTR _Ptr$[rbp]
  00069	e8 00 00 00 00	 call	 ??3@YAXPEAX_K@Z		; operator delete
  0006e	90		 npad	 1

; 222  : }

  0006f	48 8d a5 c8 00
	00 00		 lea	 rsp, QWORD PTR [rbp+200]
  00076	5f		 pop	 rdi
  00077	5d		 pop	 rbp
  00078	c3		 ret	 0
??$_Deallocate@$0BA@$0A@@std@@YAXPEAX_K@Z ENDP		; std::_Deallocate<16,0>
_TEXT	ENDS
; Function compile flags: /Odtp /RTCsu /ZI
; File C:\Program Files (x86)\Microsoft Visual Studio\2019\Enterprise\VC\Tools\MSVC\14.27.29110\include\xmemory
;	COMDAT ??$_Allocate@$0BA@U_Default_allocate_traits@std@@$0A@@std@@YAPEAX_K@Z
_TEXT	SEGMENT
_Bytes$ = 224
??$_Allocate@$0BA@U_Default_allocate_traits@std@@$0A@@std@@YAPEAX_K@Z PROC ; std::_Allocate<16,std::_Default_allocate_traits,0>, COMDAT

; 197  : __declspec(allocator) void* _Allocate(const size_t _Bytes) {

$LN5:
  00000	48 89 4c 24 08	 mov	 QWORD PTR [rsp+8], rcx
  00005	55		 push	 rbp
  00006	57		 push	 rdi
  00007	48 81 ec e8 00
	00 00		 sub	 rsp, 232		; 000000e8H
  0000e	48 8d 6c 24 20	 lea	 rbp, QWORD PTR [rsp+32]
  00013	48 8b fc	 mov	 rdi, rsp
  00016	b9 3a 00 00 00	 mov	 ecx, 58			; 0000003aH
  0001b	b8 cc cc cc cc	 mov	 eax, -858993460		; ccccccccH
  00020	f3 ab		 rep stosd
  00022	48 8b 8c 24 08
	01 00 00	 mov	 rcx, QWORD PTR [rsp+264]
  0002a	48 8d 0d 00 00
	00 00		 lea	 rcx, OFFSET FLAT:__0C99713E_xmemory
  00031	e8 00 00 00 00	 call	 __CheckForDebuggerJustMyCode

; 198  :     // allocate _Bytes when !_HAS_ALIGNED_NEW || _Align <= __STDCPP_DEFAULT_NEW_ALIGNMENT__
; 199  : #if defined(_M_IX86) || defined(_M_X64)
; 200  :     if (_Bytes >= _Big_allocation_threshold) { // boost the alignment of big allocations to help autovectorization

  00036	48 81 bd e0 00
	00 00 00 10 00
	00		 cmp	 QWORD PTR _Bytes$[rbp], 4096 ; 00001000H
  00041	72 0e		 jb	 SHORT $LN2@Allocate

; 201  :         return _Allocate_manually_vector_aligned<_Traits>(_Bytes);

  00043	48 8b 8d e0 00
	00 00		 mov	 rcx, QWORD PTR _Bytes$[rbp]
  0004a	e8 00 00 00 00	 call	 ??$_Allocate_manually_vector_aligned@U_Default_allocate_traits@std@@@std@@YAPEAX_K@Z ; std::_Allocate_manually_vector_aligned<std::_Default_allocate_traits>
  0004f	eb 1a		 jmp	 SHORT $LN1@Allocate
$LN2@Allocate:

; 202  :     }
; 203  : #endif // defined(_M_IX86) || defined(_M_X64)
; 204  : 
; 205  :     if (_Bytes != 0) {

  00051	48 83 bd e0 00
	00 00 00	 cmp	 QWORD PTR _Bytes$[rbp], 0
  00059	74 0e		 je	 SHORT $LN3@Allocate

; 206  :         return _Traits::_Allocate(_Bytes);

  0005b	48 8b 8d e0 00
	00 00		 mov	 rcx, QWORD PTR _Bytes$[rbp]
  00062	e8 00 00 00 00	 call	 ?_Allocate@_Default_allocate_traits@std@@SAPEAX_K@Z ; std::_Default_allocate_traits::_Allocate
  00067	eb 02		 jmp	 SHORT $LN1@Allocate
$LN3@Allocate:

; 207  :     }
; 208  : 
; 209  :     return nullptr;

  00069	33 c0		 xor	 eax, eax
$LN1@Allocate:

; 210  : }

  0006b	48 8d a5 c8 00
	00 00		 lea	 rsp, QWORD PTR [rbp+200]
  00072	5f		 pop	 rdi
  00073	5d		 pop	 rbp
  00074	c3		 ret	 0
??$_Allocate@$0BA@U_Default_allocate_traits@std@@$0A@@std@@YAPEAX_K@Z ENDP ; std::_Allocate<16,std::_Default_allocate_traits,0>
_TEXT	ENDS
; Function compile flags: /Odtp /RTCsu /ZI
; File C:\Program Files (x86)\Microsoft Visual Studio\2019\Enterprise\VC\Tools\MSVC\14.27.29110\include\xmemory
;	COMDAT ??$_Get_size_of_n@$0BA@@std@@YA_K_K@Z
_TEXT	SEGMENT
_Overflow_is_possible$ = 4
_Max_possible$1 = 40
_Count$ = 288
??$_Get_size_of_n@$0BA@@std@@YA_K_K@Z PROC		; std::_Get_size_of_n<16>, COMDAT

; 55   : _NODISCARD constexpr size_t _Get_size_of_n(const size_t _Count) {

$LN4:
  00000	48 89 4c 24 08	 mov	 QWORD PTR [rsp+8], rcx
  00005	55		 push	 rbp
  00006	57		 push	 rdi
  00007	48 81 ec 28 01
	00 00		 sub	 rsp, 296		; 00000128H
  0000e	48 8d 6c 24 20	 lea	 rbp, QWORD PTR [rsp+32]
  00013	48 8b fc	 mov	 rdi, rsp
  00016	b9 4a 00 00 00	 mov	 ecx, 74			; 0000004aH
  0001b	b8 cc cc cc cc	 mov	 eax, -858993460		; ccccccccH
  00020	f3 ab		 rep stosd
  00022	48 8b 8c 24 48
	01 00 00	 mov	 rcx, QWORD PTR [rsp+328]
  0002a	48 8d 0d 00 00
	00 00		 lea	 rcx, OFFSET FLAT:__0C99713E_xmemory
  00031	e8 00 00 00 00	 call	 __CheckForDebuggerJustMyCode

; 56   :     constexpr bool _Overflow_is_possible = _Ty_size > 1;

  00036	c6 45 04 01	 mov	 BYTE PTR _Overflow_is_possible$[rbp], 1

; 57   : 
; 58   :     if _CONSTEXPR_IF (_Overflow_is_possible) {
; 59   :         constexpr size_t _Max_possible = static_cast<size_t>(-1) / _Ty_size;

  0003a	48 b8 ff ff ff
	ff ff ff ff 0f	 mov	 rax, 1152921504606846975 ; 0fffffffffffffffH
  00044	48 89 45 28	 mov	 QWORD PTR _Max_possible$1[rbp], rax

; 60   :         if (_Count > _Max_possible) {

  00048	48 b8 ff ff ff
	ff ff ff ff 0f	 mov	 rax, 1152921504606846975 ; 0fffffffffffffffH
  00052	48 39 85 20 01
	00 00		 cmp	 QWORD PTR _Count$[rbp], rax
  00059	76 05		 jbe	 SHORT $LN2@Get_size_o

; 61   :             _Throw_bad_array_new_length(); // multiply overflow

  0005b	e8 00 00 00 00	 call	 ?_Throw_bad_array_new_length@std@@YAXXZ ; std::_Throw_bad_array_new_length
$LN2@Get_size_o:

; 62   :         }
; 63   :     }
; 64   : 
; 65   :     return _Count * _Ty_size;

  00060	48 6b 85 20 01
	00 00 10	 imul	 rax, QWORD PTR _Count$[rbp], 16
$LN3@Get_size_o:

; 66   : }

  00068	48 8d a5 08 01
	00 00		 lea	 rsp, QWORD PTR [rbp+264]
  0006f	5f		 pop	 rdi
  00070	5d		 pop	 rbp
  00071	c3		 ret	 0
??$_Get_size_of_n@$0BA@@std@@YA_K_K@Z ENDP		; std::_Get_size_of_n<16>
_TEXT	ENDS
; Function compile flags: /Odtp /RTCsu /ZI
; File C:\Program Files (x86)\Microsoft Visual Studio\2019\Enterprise\VC\Tools\MSVC\14.27.29110\include\utility
;	COMDAT ??$max@_K@std@@YAAEB_KAEB_K0@Z
_TEXT	SEGMENT
$T1 = 200
tv65 = 216
_Left$ = 256
_Right$ = 264
??$max@_K@std@@YAAEB_KAEB_K0@Z PROC			; std::max<unsigned __int64>, COMDAT

; 42   :     const _Ty& _Left, const _Ty& _Right) noexcept(noexcept(_Left < _Right)) /* strengthened */ {

$LN5:
  00000	48 89 54 24 10	 mov	 QWORD PTR [rsp+16], rdx
  00005	48 89 4c 24 08	 mov	 QWORD PTR [rsp+8], rcx
  0000a	55		 push	 rbp
  0000b	57		 push	 rdi
  0000c	48 81 ec 08 01
	00 00		 sub	 rsp, 264		; 00000108H
  00013	48 8d 6c 24 20	 lea	 rbp, QWORD PTR [rsp+32]
  00018	48 8b fc	 mov	 rdi, rsp
  0001b	b9 42 00 00 00	 mov	 ecx, 66			; 00000042H
  00020	b8 cc cc cc cc	 mov	 eax, -858993460		; ccccccccH
  00025	f3 ab		 rep stosd
  00027	48 8b 8c 24 28
	01 00 00	 mov	 rcx, QWORD PTR [rsp+296]
  0002f	48 8d 0d 00 00
	00 00		 lea	 rcx, OFFSET FLAT:__660C12FD_utility
  00036	e8 00 00 00 00	 call	 __CheckForDebuggerJustMyCode

; 43   :     // return larger of _Left and _Right
; 44   :     return _Left < _Right ? _Right : _Left;

  0003b	48 8b 85 00 01
	00 00		 mov	 rax, QWORD PTR _Left$[rbp]
  00042	48 8b 8d 08 01
	00 00		 mov	 rcx, QWORD PTR _Right$[rbp]
  00049	48 8b 09	 mov	 rcx, QWORD PTR [rcx]
  0004c	48 39 08	 cmp	 QWORD PTR [rax], rcx
  0004f	73 10		 jae	 SHORT $LN3@max
  00051	48 8b 85 08 01
	00 00		 mov	 rax, QWORD PTR _Right$[rbp]
  00058	48 89 85 d8 00
	00 00		 mov	 QWORD PTR tv65[rbp], rax
  0005f	eb 0e		 jmp	 SHORT $LN4@max
$LN3@max:
  00061	48 8b 85 00 01
	00 00		 mov	 rax, QWORD PTR _Left$[rbp]
  00068	48 89 85 d8 00
	00 00		 mov	 QWORD PTR tv65[rbp], rax
$LN4@max:
  0006f	48 8b 85 d8 00
	00 00		 mov	 rax, QWORD PTR tv65[rbp]
  00076	48 89 85 c8 00
	00 00		 mov	 QWORD PTR $T1[rbp], rax
  0007d	48 8b 85 c8 00
	00 00		 mov	 rax, QWORD PTR $T1[rbp]

; 45   : }

  00084	48 8d a5 e8 00
	00 00		 lea	 rsp, QWORD PTR [rbp+232]
  0008b	5f		 pop	 rdi
  0008c	5d		 pop	 rbp
  0008d	c3		 ret	 0
??$max@_K@std@@YAAEB_KAEB_K0@Z ENDP			; std::max<unsigned __int64>
_TEXT	ENDS
; Function compile flags: /Odtp /RTCsu /ZI
; File C:\Program Files (x86)\Microsoft Visual Studio\2019\Enterprise\VC\Tools\MSVC\14.27.29110\include\xstddef
;	COMDAT ??$_Unfancy@D@std@@YAPEADPEAD@Z
_TEXT	SEGMENT
_Ptr$ = 224
??$_Unfancy@D@std@@YAPEADPEAD@Z PROC			; std::_Unfancy<char>, COMDAT

; 288  : _NODISCARD constexpr _Ty* _Unfancy(_Ty* _Ptr) noexcept { // do nothing for plain pointers

$LN3:
  00000	48 89 4c 24 08	 mov	 QWORD PTR [rsp+8], rcx
  00005	55		 push	 rbp
  00006	57		 push	 rdi
  00007	48 81 ec e8 00
	00 00		 sub	 rsp, 232		; 000000e8H
  0000e	48 8d 6c 24 20	 lea	 rbp, QWORD PTR [rsp+32]
  00013	48 8b fc	 mov	 rdi, rsp
  00016	b9 3a 00 00 00	 mov	 ecx, 58			; 0000003aH
  0001b	b8 cc cc cc cc	 mov	 eax, -858993460		; ccccccccH
  00020	f3 ab		 rep stosd
  00022	48 8b 8c 24 08
	01 00 00	 mov	 rcx, QWORD PTR [rsp+264]
  0002a	48 8d 0d 00 00
	00 00		 lea	 rcx, OFFSET FLAT:__911385EF_xstddef
  00031	e8 00 00 00 00	 call	 __CheckForDebuggerJustMyCode

; 289  :     return _Ptr;

  00036	48 8b 85 e0 00
	00 00		 mov	 rax, QWORD PTR _Ptr$[rbp]

; 290  : }

  0003d	48 8d a5 c8 00
	00 00		 lea	 rsp, QWORD PTR [rbp+200]
  00044	5f		 pop	 rdi
  00045	5d		 pop	 rbp
  00046	c3		 ret	 0
??$_Unfancy@D@std@@YAPEADPEAD@Z ENDP			; std::_Unfancy<char>
_TEXT	ENDS
; Function compile flags: /Odtp /RTCsu /ZI
; File C:\Program Files (x86)\Microsoft Visual Studio\2019\Enterprise\VC\Tools\MSVC\14.27.29110\include\xmemory
;	COMDAT ??$_Construct_in_place@PEADAEBQEAD@std@@YAXAEAPEADAEBQEAD@Z
_TEXT	SEGMENT
$T1 = 200
_Obj$ = 256
<_Args_0>$ = 264
??$_Construct_in_place@PEADAEBQEAD@std@@YAXAEAPEADAEBQEAD@Z PROC ; std::_Construct_in_place<char *,char * const &>, COMDAT

; 228  : void _Construct_in_place(_Ty& _Obj, _Types&&... _Args) noexcept(is_nothrow_constructible_v<_Ty, _Types...>) {

$LN3:
  00000	48 89 54 24 10	 mov	 QWORD PTR [rsp+16], rdx
  00005	48 89 4c 24 08	 mov	 QWORD PTR [rsp+8], rcx
  0000a	55		 push	 rbp
  0000b	57		 push	 rdi
  0000c	48 81 ec 08 01
	00 00		 sub	 rsp, 264		; 00000108H
  00013	48 8d 6c 24 20	 lea	 rbp, QWORD PTR [rsp+32]
  00018	48 8b fc	 mov	 rdi, rsp
  0001b	b9 42 00 00 00	 mov	 ecx, 66			; 00000042H
  00020	b8 cc cc cc cc	 mov	 eax, -858993460		; ccccccccH
  00025	f3 ab		 rep stosd
  00027	48 8b 8c 24 28
	01 00 00	 mov	 rcx, QWORD PTR [rsp+296]
  0002f	48 8d 0d 00 00
	00 00		 lea	 rcx, OFFSET FLAT:__0C99713E_xmemory
  00036	e8 00 00 00 00	 call	 __CheckForDebuggerJustMyCode
  0003b	48 8b 8d 00 01
	00 00		 mov	 rcx, QWORD PTR _Obj$[rbp]
  00042	e8 00 00 00 00	 call	 ??$addressof@PEAD@std@@YAPEAPEADAEAPEAD@Z ; std::addressof<char *>
  00047	48 8b d0	 mov	 rdx, rax
  0004a	b9 08 00 00 00	 mov	 ecx, 8
  0004f	e8 00 00 00 00	 call	 ??2@YAPEAX_KPEAX@Z	; operator new
  00054	48 89 85 c8 00
	00 00		 mov	 QWORD PTR $T1[rbp], rax
  0005b	48 8b 8d 08 01
	00 00		 mov	 rcx, QWORD PTR <_Args_0>$[rbp]
  00062	e8 00 00 00 00	 call	 ??$forward@AEBQEAD@std@@YAAEBQEADAEBQEAD@Z ; std::forward<char * const &>
  00067	48 8b 8d c8 00
	00 00		 mov	 rcx, QWORD PTR $T1[rbp]
  0006e	48 8b 00	 mov	 rax, QWORD PTR [rax]
  00071	48 89 01	 mov	 QWORD PTR [rcx], rax

; 229  :     ::new (const_cast<void*>(static_cast<const volatile void*>(_STD addressof(_Obj))))
; 230  :         _Ty(_STD forward<_Types>(_Args)...);
; 231  : }

  00074	48 8d a5 e8 00
	00 00		 lea	 rsp, QWORD PTR [rbp+232]
  0007b	5f		 pop	 rdi
  0007c	5d		 pop	 rbp
  0007d	c3		 ret	 0
??$_Construct_in_place@PEADAEBQEAD@std@@YAXAEAPEADAEBQEAD@Z ENDP ; std::_Construct_in_place<char *,char * const &>
_TEXT	ENDS
; Function compile flags: /Odtp /RTCsu /ZI
; File C:\Program Files (x86)\Microsoft Visual Studio\2019\Enterprise\VC\Tools\MSVC\14.27.29110\include\xstring
;	COMDAT ??$_Reallocate_grow_by@V<lambda_319d5e083f45f90dcdce5dce53cbb275>@@D@?$basic_string@DU?$char_traits@D@std@@V?$allocator@D@2@@std@@AEAAAEAV01@_KV<lambda_319d5e083f45f90dcdce5dce53cbb275>@@D@Z
_TEXT	SEGMENT
_My_data$ = 8
_Old_size$ = 40
_New_size$ = 72
_Old_capacity$ = 104
_New_capacity$ = 136
_Al$ = 168
_New_ptr$ = 200
_Raw_new$ = 232
_Old_ptr$4 = 264
__$ArrayPad$ = 472
this$ = 512
_Size_increase$ = 520
_Fn$ = 528
<_Args_0>$ = 536
??$_Reallocate_grow_by@V<lambda_319d5e083f45f90dcdce5dce53cbb275>@@D@?$basic_string@DU?$char_traits@D@std@@V?$allocator@D@2@@std@@AEAAAEAV01@_KV<lambda_319d5e083f45f90dcdce5dce53cbb275>@@D@Z PROC ; std::basic_string<char,std::char_traits<char>,std::allocator<char> >::_Reallocate_grow_by<<lambda_319d5e083f45f90dcdce5dce53cbb275>,char>, COMDAT

; 4244 :     basic_string& _Reallocate_grow_by(const size_type _Size_increase, _Fty _Fn, _ArgTys... _Args) {

$LN6:
  00000	44 88 4c 24 20	 mov	 BYTE PTR [rsp+32], r9b
  00005	44 88 44 24 18	 mov	 BYTE PTR [rsp+24], r8b
  0000a	48 89 54 24 10	 mov	 QWORD PTR [rsp+16], rdx
  0000f	48 89 4c 24 08	 mov	 QWORD PTR [rsp+8], rcx
  00014	55		 push	 rbp
  00015	57		 push	 rdi
  00016	48 81 ec 18 02
	00 00		 sub	 rsp, 536		; 00000218H
  0001d	48 8d 6c 24 30	 lea	 rbp, QWORD PTR [rsp+48]
  00022	48 8b fc	 mov	 rdi, rsp
  00025	b9 86 00 00 00	 mov	 ecx, 134		; 00000086H
  0002a	b8 cc cc cc cc	 mov	 eax, -858993460		; ccccccccH
  0002f	f3 ab		 rep stosd
  00031	48 8b 8c 24 38
	02 00 00	 mov	 rcx, QWORD PTR [rsp+568]
  00039	48 8b 05 00 00
	00 00		 mov	 rax, QWORD PTR __security_cookie
  00040	48 33 c5	 xor	 rax, rbp
  00043	48 89 85 d8 01
	00 00		 mov	 QWORD PTR __$ArrayPad$[rbp], rax
  0004a	48 8d 0d 00 00
	00 00		 lea	 rcx, OFFSET FLAT:__784AF7A2_xstring
  00051	e8 00 00 00 00	 call	 __CheckForDebuggerJustMyCode

; 4245 :         // reallocate to increase size by _Size_increase elements, new buffer prepared by
; 4246 :         // _Fn(_New_ptr, _Old_ptr, _Old_size, _Args...)
; 4247 :         auto& _My_data            = _Mypair._Myval2;

  00056	48 8b 85 00 02
	00 00		 mov	 rax, QWORD PTR this$[rbp]
  0005d	48 89 45 08	 mov	 QWORD PTR _My_data$[rbp], rax

; 4248 :         const size_type _Old_size = _My_data._Mysize;

  00061	48 8b 45 08	 mov	 rax, QWORD PTR _My_data$[rbp]
  00065	48 8b 40 18	 mov	 rax, QWORD PTR [rax+24]
  00069	48 89 45 28	 mov	 QWORD PTR _Old_size$[rbp], rax

; 4249 :         if (max_size() - _Old_size < _Size_increase) {

  0006d	48 8b 8d 00 02
	00 00		 mov	 rcx, QWORD PTR this$[rbp]
  00074	e8 00 00 00 00	 call	 ?max_size@?$basic_string@DU?$char_traits@D@std@@V?$allocator@D@2@@std@@QEBA_KXZ ; std::basic_string<char,std::char_traits<char>,std::allocator<char> >::max_size
  00079	48 2b 45 28	 sub	 rax, QWORD PTR _Old_size$[rbp]
  0007d	48 3b 85 08 02
	00 00		 cmp	 rax, QWORD PTR _Size_increase$[rbp]
  00084	73 05		 jae	 SHORT $LN2@Reallocate

; 4250 :             _Xlen_string(); // result too long

  00086	e8 00 00 00 00	 call	 ?_Xlen_string@std@@YAXXZ ; std::_Xlen_string
$LN2@Reallocate:

; 4251 :         }
; 4252 : 
; 4253 :         const size_type _New_size     = _Old_size + _Size_increase;

  0008b	48 8b 85 08 02
	00 00		 mov	 rax, QWORD PTR _Size_increase$[rbp]
  00092	48 8b 4d 28	 mov	 rcx, QWORD PTR _Old_size$[rbp]
  00096	48 03 c8	 add	 rcx, rax
  00099	48 8b c1	 mov	 rax, rcx
  0009c	48 89 45 48	 mov	 QWORD PTR _New_size$[rbp], rax

; 4254 :         const size_type _Old_capacity = _My_data._Myres;

  000a0	48 8b 45 08	 mov	 rax, QWORD PTR _My_data$[rbp]
  000a4	48 8b 40 20	 mov	 rax, QWORD PTR [rax+32]
  000a8	48 89 45 68	 mov	 QWORD PTR _Old_capacity$[rbp], rax

; 4255 :         const size_type _New_capacity = _Calculate_growth(_New_size);

  000ac	48 8b 55 48	 mov	 rdx, QWORD PTR _New_size$[rbp]
  000b0	48 8b 8d 00 02
	00 00		 mov	 rcx, QWORD PTR this$[rbp]
  000b7	e8 00 00 00 00	 call	 ?_Calculate_growth@?$basic_string@DU?$char_traits@D@std@@V?$allocator@D@2@@std@@AEBA_K_K@Z ; std::basic_string<char,std::char_traits<char>,std::allocator<char> >::_Calculate_growth
  000bc	48 89 85 88 00
	00 00		 mov	 QWORD PTR _New_capacity$[rbp], rax

; 4256 :         auto& _Al                     = _Getal();

  000c3	48 8b 8d 00 02
	00 00		 mov	 rcx, QWORD PTR this$[rbp]
  000ca	e8 00 00 00 00	 call	 ?_Getal@?$basic_string@DU?$char_traits@D@std@@V?$allocator@D@2@@std@@AEAAAEAV?$allocator@D@2@XZ ; std::basic_string<char,std::char_traits<char>,std::allocator<char> >::_Getal
  000cf	48 89 85 a8 00
	00 00		 mov	 QWORD PTR _Al$[rbp], rax

; 4257 :         const pointer _New_ptr        = _Al.allocate(_New_capacity + 1); // throws

  000d6	48 8b 85 88 00
	00 00		 mov	 rax, QWORD PTR _New_capacity$[rbp]
  000dd	48 83 c0 01	 add	 rax, 1
  000e1	48 c7 c1 ff ff
	ff ff		 mov	 rcx, -1
  000e8	48 0f 42 c1	 cmovb	 rax, rcx
  000ec	48 8b d0	 mov	 rdx, rax
  000ef	48 8b 8d a8 00
	00 00		 mov	 rcx, QWORD PTR _Al$[rbp]
  000f6	e8 00 00 00 00	 call	 ?allocate@?$allocator@D@std@@QEAAPEAD_K@Z ; std::allocator<char>::allocate
  000fb	48 89 85 c8 00
	00 00		 mov	 QWORD PTR _New_ptr$[rbp], rax

; 4258 :         _My_data._Orphan_all();

  00102	48 8b 4d 08	 mov	 rcx, QWORD PTR _My_data$[rbp]
  00106	e8 00 00 00 00	 call	 ?_Orphan_all@_Container_base12@std@@QEAAXXZ ; std::_Container_base12::_Orphan_all

; 4259 :         _My_data._Mysize      = _New_size;

  0010b	48 8b 45 08	 mov	 rax, QWORD PTR _My_data$[rbp]
  0010f	48 8b 4d 48	 mov	 rcx, QWORD PTR _New_size$[rbp]
  00113	48 89 48 18	 mov	 QWORD PTR [rax+24], rcx

; 4260 :         _My_data._Myres       = _New_capacity;

  00117	48 8b 45 08	 mov	 rax, QWORD PTR _My_data$[rbp]
  0011b	48 8b 8d 88 00
	00 00		 mov	 rcx, QWORD PTR _New_capacity$[rbp]
  00122	48 89 48 20	 mov	 QWORD PTR [rax+32], rcx

; 4261 :         _Elem* const _Raw_new = _Unfancy(_New_ptr);

  00126	48 8b 8d c8 00
	00 00		 mov	 rcx, QWORD PTR _New_ptr$[rbp]
  0012d	e8 00 00 00 00	 call	 ??$_Unfancy@D@std@@YAPEADPEAD@Z ; std::_Unfancy<char>
  00132	48 89 85 e8 00
	00 00		 mov	 QWORD PTR _Raw_new$[rbp], rax

; 4262 :         if (_BUF_SIZE <= _Old_capacity) {

  00139	48 83 7d 68 10	 cmp	 QWORD PTR _Old_capacity$[rbp], 16
  0013e	72 6e		 jb	 SHORT $LN3@Reallocate

; 4263 :             const pointer _Old_ptr = _My_data._Bx._Ptr;

  00140	48 8b 45 08	 mov	 rax, QWORD PTR _My_data$[rbp]
  00144	48 8b 40 08	 mov	 rax, QWORD PTR [rax+8]
  00148	48 89 85 08 01
	00 00		 mov	 QWORD PTR _Old_ptr$4[rbp], rax

; 4264 :             _Fn(_Raw_new, _Unfancy(_Old_ptr), _Old_size, _Args...);

  0014f	48 8b 8d 08 01
	00 00		 mov	 rcx, QWORD PTR _Old_ptr$4[rbp]
  00156	e8 00 00 00 00	 call	 ??$_Unfancy@D@std@@YAPEADPEAD@Z ; std::_Unfancy<char>
  0015b	0f b6 8d 18 02
	00 00		 movzx	 ecx, BYTE PTR <_Args_0>$[rbp]
  00162	88 4c 24 20	 mov	 BYTE PTR [rsp+32], cl
  00166	4c 8b 4d 28	 mov	 r9, QWORD PTR _Old_size$[rbp]
  0016a	4c 8b c0	 mov	 r8, rax
  0016d	48 8b 95 e8 00
	00 00		 mov	 rdx, QWORD PTR _Raw_new$[rbp]
  00174	48 8d 8d 10 02
	00 00		 lea	 rcx, QWORD PTR _Fn$[rbp]
  0017b	e8 00 00 00 00	 call	 ??R<lambda_319d5e083f45f90dcdce5dce53cbb275>@@QEBA@QEADQEBD_KD@Z ; <lambda_319d5e083f45f90dcdce5dce53cbb275>::operator()

; 4265 :             _Al.deallocate(_Old_ptr, _Old_capacity + 1);

  00180	48 8b 45 68	 mov	 rax, QWORD PTR _Old_capacity$[rbp]
  00184	48 ff c0	 inc	 rax
  00187	4c 8b c0	 mov	 r8, rax
  0018a	48 8b 95 08 01
	00 00		 mov	 rdx, QWORD PTR _Old_ptr$4[rbp]
  00191	48 8b 8d a8 00
	00 00		 mov	 rcx, QWORD PTR _Al$[rbp]
  00198	e8 00 00 00 00	 call	 ?deallocate@?$allocator@D@std@@QEAAXQEAD_K@Z ; std::allocator<char>::deallocate

; 4266 :             _My_data._Bx._Ptr = _New_ptr;

  0019d	48 8b 45 08	 mov	 rax, QWORD PTR _My_data$[rbp]
  001a1	48 8b 8d c8 00
	00 00		 mov	 rcx, QWORD PTR _New_ptr$[rbp]
  001a8	48 89 48 08	 mov	 QWORD PTR [rax+8], rcx

; 4267 :         } else {

  001ac	eb 44		 jmp	 SHORT $LN4@Reallocate
$LN3@Reallocate:

; 4268 :             _Fn(_Raw_new, _My_data._Bx._Buf, _Old_size, _Args...);

  001ae	48 8b 45 08	 mov	 rax, QWORD PTR _My_data$[rbp]
  001b2	48 83 c0 08	 add	 rax, 8
  001b6	0f b6 8d 18 02
	00 00		 movzx	 ecx, BYTE PTR <_Args_0>$[rbp]
  001bd	88 4c 24 20	 mov	 BYTE PTR [rsp+32], cl
  001c1	4c 8b 4d 28	 mov	 r9, QWORD PTR _Old_size$[rbp]
  001c5	4c 8b c0	 mov	 r8, rax
  001c8	48 8b 95 e8 00
	00 00		 mov	 rdx, QWORD PTR _Raw_new$[rbp]
  001cf	48 8d 8d 10 02
	00 00		 lea	 rcx, QWORD PTR _Fn$[rbp]
  001d6	e8 00 00 00 00	 call	 ??R<lambda_319d5e083f45f90dcdce5dce53cbb275>@@QEBA@QEADQEBD_KD@Z ; <lambda_319d5e083f45f90dcdce5dce53cbb275>::operator()

; 4269 :             _Construct_in_place(_My_data._Bx._Ptr, _New_ptr);

  001db	48 8b 45 08	 mov	 rax, QWORD PTR _My_data$[rbp]
  001df	48 83 c0 08	 add	 rax, 8
  001e3	48 8d 95 c8 00
	00 00		 lea	 rdx, QWORD PTR _New_ptr$[rbp]
  001ea	48 8b c8	 mov	 rcx, rax
  001ed	e8 00 00 00 00	 call	 ??$_Construct_in_place@PEADAEBQEAD@std@@YAXAEAPEADAEBQEAD@Z ; std::_Construct_in_place<char *,char * const &>
$LN4@Reallocate:

; 4270 :         }
; 4271 : 
; 4272 :         return *this;

  001f2	48 8b 85 00 02
	00 00		 mov	 rax, QWORD PTR this$[rbp]
$LN5@Reallocate:

; 4273 :     }

  001f9	48 8b f8	 mov	 rdi, rax
  001fc	48 8d 4d d0	 lea	 rcx, QWORD PTR [rbp-48]
  00200	48 8d 15 00 00
	00 00		 lea	 rdx, OFFSET FLAT:??$_Reallocate_grow_by@V<lambda_319d5e083f45f90dcdce5dce53cbb275>@@D@?$basic_string@DU?$char_traits@D@std@@V?$allocator@D@2@@std@@AEAAAEAV01@_KV<lambda_319d5e083f45f90dcdce5dce53cbb275>@@D@Z$rtcFrameData
  00207	e8 00 00 00 00	 call	 _RTC_CheckStackVars
  0020c	48 8b c7	 mov	 rax, rdi
  0020f	48 8b 8d d8 01
	00 00		 mov	 rcx, QWORD PTR __$ArrayPad$[rbp]
  00216	48 33 cd	 xor	 rcx, rbp
  00219	e8 00 00 00 00	 call	 __security_check_cookie
  0021e	48 8d a5 e8 01
	00 00		 lea	 rsp, QWORD PTR [rbp+488]
  00225	5f		 pop	 rdi
  00226	5d		 pop	 rbp
  00227	c3		 ret	 0
??$_Reallocate_grow_by@V<lambda_319d5e083f45f90dcdce5dce53cbb275>@@D@?$basic_string@DU?$char_traits@D@std@@V?$allocator@D@2@@std@@AEAAAEAV01@_KV<lambda_319d5e083f45f90dcdce5dce53cbb275>@@D@Z ENDP ; std::basic_string<char,std::char_traits<char>,std::allocator<char> >::_Reallocate_grow_by<<lambda_319d5e083f45f90dcdce5dce53cbb275>,char>
_TEXT	ENDS
; Function compile flags: /Odtp /RTCsu /ZI
; File C:\Program Files (x86)\Microsoft Visual Studio\2019\Enterprise\VC\Tools\MSVC\14.27.29110\include\xstring
;	COMDAT ??R<lambda_319d5e083f45f90dcdce5dce53cbb275>@@QEBA@QEADQEBD_KD@Z
_TEXT	SEGMENT
$T1 = 196
this$ = 256
_New_ptr$ = 264
_Old_ptr$ = 272
_Old_size$ = 280
_Ch$ = 288
??R<lambda_319d5e083f45f90dcdce5dce53cbb275>@@QEBA@QEADQEBD_KD@Z PROC ; <lambda_319d5e083f45f90dcdce5dce53cbb275>::operator(), COMDAT

; 3619 :             [](_Elem* const _New_ptr, const _Elem* const _Old_ptr, const size_type _Old_size, const _Elem _Ch) {

$LN3:
  00000	4c 89 4c 24 20	 mov	 QWORD PTR [rsp+32], r9
  00005	4c 89 44 24 18	 mov	 QWORD PTR [rsp+24], r8
  0000a	48 89 54 24 10	 mov	 QWORD PTR [rsp+16], rdx
  0000f	48 89 4c 24 08	 mov	 QWORD PTR [rsp+8], rcx
  00014	55		 push	 rbp
  00015	57		 push	 rdi
  00016	48 81 ec 08 01
	00 00		 sub	 rsp, 264		; 00000108H
  0001d	48 8d 6c 24 20	 lea	 rbp, QWORD PTR [rsp+32]
  00022	48 8b fc	 mov	 rdi, rsp
  00025	b9 42 00 00 00	 mov	 ecx, 66			; 00000042H
  0002a	b8 cc cc cc cc	 mov	 eax, -858993460		; ccccccccH
  0002f	f3 ab		 rep stosd
  00031	48 8b 8c 24 28
	01 00 00	 mov	 rcx, QWORD PTR [rsp+296]
  00039	48 8d 0d 00 00
	00 00		 lea	 rcx, OFFSET FLAT:__784AF7A2_xstring
  00040	e8 00 00 00 00	 call	 __CheckForDebuggerJustMyCode

; 3620 :                 _Traits::copy(_New_ptr, _Old_ptr, _Old_size);

  00045	4c 8b 85 18 01
	00 00		 mov	 r8, QWORD PTR _Old_size$[rbp]
  0004c	48 8b 95 10 01
	00 00		 mov	 rdx, QWORD PTR _Old_ptr$[rbp]
  00053	48 8b 8d 08 01
	00 00		 mov	 rcx, QWORD PTR _New_ptr$[rbp]
  0005a	e8 00 00 00 00	 call	 ?copy@?$_Narrow_char_traits@DH@std@@SAPEADQEADQEBD_K@Z ; std::_Narrow_char_traits<char,int>::copy

; 3621 :                 _Traits::assign(_New_ptr[_Old_size], _Ch);

  0005f	48 8b 85 18 01
	00 00		 mov	 rax, QWORD PTR _Old_size$[rbp]
  00066	48 8b 8d 08 01
	00 00		 mov	 rcx, QWORD PTR _New_ptr$[rbp]
  0006d	48 03 c8	 add	 rcx, rax
  00070	48 8b c1	 mov	 rax, rcx
  00073	48 8d 95 20 01
	00 00		 lea	 rdx, QWORD PTR _Ch$[rbp]
  0007a	48 8b c8	 mov	 rcx, rax
  0007d	e8 00 00 00 00	 call	 ?assign@?$_Narrow_char_traits@DH@std@@SAXAEADAEBD@Z ; std::_Narrow_char_traits<char,int>::assign

; 3622 :                 _Traits::assign(_New_ptr[_Old_size + 1], _Elem());

  00082	c6 85 c4 00 00
	00 00		 mov	 BYTE PTR $T1[rbp], 0
  00089	48 8b 85 08 01
	00 00		 mov	 rax, QWORD PTR _New_ptr$[rbp]
  00090	48 8b 8d 18 01
	00 00		 mov	 rcx, QWORD PTR _Old_size$[rbp]
  00097	48 8d 44 08 01	 lea	 rax, QWORD PTR [rax+rcx+1]
  0009c	48 8d 95 c4 00
	00 00		 lea	 rdx, QWORD PTR $T1[rbp]
  000a3	48 8b c8	 mov	 rcx, rax
  000a6	e8 00 00 00 00	 call	 ?assign@?$_Narrow_char_traits@DH@std@@SAXAEADAEBD@Z ; std::_Narrow_char_traits<char,int>::assign

; 3623 :             },

  000ab	48 8d a5 e8 00
	00 00		 lea	 rsp, QWORD PTR [rbp+232]
  000b2	5f		 pop	 rdi
  000b3	5d		 pop	 rbp
  000b4	c3		 ret	 0
??R<lambda_319d5e083f45f90dcdce5dce53cbb275>@@QEBA@QEADQEBD_KD@Z ENDP ; <lambda_319d5e083f45f90dcdce5dce53cbb275>::operator()
_TEXT	ENDS
; Function compile flags: /Odtp /RTCsu /ZI
; File C:\Program Files (x86)\Microsoft Visual Studio\2019\Enterprise\VC\Tools\MSVC\14.27.29110\include\xmemory
;	COMDAT ??$_Destroy_in_place@PEAD@std@@YAXAEAPEAD@Z
_TEXT	SEGMENT
_Obj$ = 224
??$_Destroy_in_place@PEAD@std@@YAXAEAPEAD@Z PROC	; std::_Destroy_in_place<char *>, COMDAT

; 267  : void _Destroy_in_place(_Ty& _Obj) noexcept {

$LN3:
  00000	48 89 4c 24 08	 mov	 QWORD PTR [rsp+8], rcx
  00005	55		 push	 rbp
  00006	57		 push	 rdi
  00007	48 81 ec e8 00
	00 00		 sub	 rsp, 232		; 000000e8H
  0000e	48 8d 6c 24 20	 lea	 rbp, QWORD PTR [rsp+32]
  00013	48 8b fc	 mov	 rdi, rsp
  00016	b9 3a 00 00 00	 mov	 ecx, 58			; 0000003aH
  0001b	b8 cc cc cc cc	 mov	 eax, -858993460		; ccccccccH
  00020	f3 ab		 rep stosd
  00022	48 8b 8c 24 08
	01 00 00	 mov	 rcx, QWORD PTR [rsp+264]
  0002a	48 8d 0d 00 00
	00 00		 lea	 rcx, OFFSET FLAT:__0C99713E_xmemory
  00031	e8 00 00 00 00	 call	 __CheckForDebuggerJustMyCode
  00036	90		 npad	 1

; 268  :     _Obj.~_Ty();
; 269  : }

  00037	48 8d a5 c8 00
	00 00		 lea	 rsp, QWORD PTR [rbp+200]
  0003e	5f		 pop	 rdi
  0003f	5d		 pop	 rbp
  00040	c3		 ret	 0
??$_Destroy_in_place@PEAD@std@@YAXAEAPEAD@Z ENDP	; std::_Destroy_in_place<char *>
_TEXT	ENDS
; Function compile flags: /Odtp /RTCsu /ZI
; File C:\Program Files (x86)\Microsoft Visual Studio\2019\Enterprise\VC\Tools\MSVC\14.27.29110\include\xstddef
;	COMDAT ??$addressof@$$CBV?$codecvt@DDU_Mbstatet@@@std@@@std@@YAPEBV?$codecvt@DDU_Mbstatet@@@0@AEBV10@@Z
_TEXT	SEGMENT
_Val$ = 224
??$addressof@$$CBV?$codecvt@DDU_Mbstatet@@@std@@@std@@YAPEBV?$codecvt@DDU_Mbstatet@@@0@AEBV10@@Z PROC ; std::addressof<std::codecvt<char,char,_Mbstatet> const >, COMDAT

; 274  : _NODISCARD constexpr _Ty* addressof(_Ty& _Val) noexcept {

$LN3:
  00000	48 89 4c 24 08	 mov	 QWORD PTR [rsp+8], rcx
  00005	55		 push	 rbp
  00006	57		 push	 rdi
  00007	48 81 ec e8 00
	00 00		 sub	 rsp, 232		; 000000e8H
  0000e	48 8d 6c 24 20	 lea	 rbp, QWORD PTR [rsp+32]
  00013	48 8b fc	 mov	 rdi, rsp
  00016	b9 3a 00 00 00	 mov	 ecx, 58			; 0000003aH
  0001b	b8 cc cc cc cc	 mov	 eax, -858993460		; ccccccccH
  00020	f3 ab		 rep stosd
  00022	48 8b 8c 24 08
	01 00 00	 mov	 rcx, QWORD PTR [rsp+264]
  0002a	48 8d 0d 00 00
	00 00		 lea	 rcx, OFFSET FLAT:__911385EF_xstddef
  00031	e8 00 00 00 00	 call	 __CheckForDebuggerJustMyCode

; 275  :     return __builtin_addressof(_Val);

  00036	48 8b 85 e0 00
	00 00		 mov	 rax, QWORD PTR _Val$[rbp]

; 276  : }

  0003d	48 8d a5 c8 00
	00 00		 lea	 rsp, QWORD PTR [rbp+200]
  00044	5f		 pop	 rdi
  00045	5d		 pop	 rbp
  00046	c3		 ret	 0
??$addressof@$$CBV?$codecvt@DDU_Mbstatet@@@std@@@std@@YAPEBV?$codecvt@DDU_Mbstatet@@@0@AEBV10@@Z ENDP ; std::addressof<std::codecvt<char,char,_Mbstatet> const >
_TEXT	ENDS
; Function compile flags: /Odtp /RTCsu /ZI
; File C:\Program Files (x86)\Microsoft Visual Studio\2019\Enterprise\VC\Tools\MSVC\14.27.29110\include\xstddef
;	COMDAT ??$_Unfancy@U_Container_proxy@std@@@std@@YAPEAU_Container_proxy@0@PEAU10@@Z
_TEXT	SEGMENT
_Ptr$ = 224
??$_Unfancy@U_Container_proxy@std@@@std@@YAPEAU_Container_proxy@0@PEAU10@@Z PROC ; std::_Unfancy<std::_Container_proxy>, COMDAT

; 288  : _NODISCARD constexpr _Ty* _Unfancy(_Ty* _Ptr) noexcept { // do nothing for plain pointers

$LN3:
  00000	48 89 4c 24 08	 mov	 QWORD PTR [rsp+8], rcx
  00005	55		 push	 rbp
  00006	57		 push	 rdi
  00007	48 81 ec e8 00
	00 00		 sub	 rsp, 232		; 000000e8H
  0000e	48 8d 6c 24 20	 lea	 rbp, QWORD PTR [rsp+32]
  00013	48 8b fc	 mov	 rdi, rsp
  00016	b9 3a 00 00 00	 mov	 ecx, 58			; 0000003aH
  0001b	b8 cc cc cc cc	 mov	 eax, -858993460		; ccccccccH
  00020	f3 ab		 rep stosd
  00022	48 8b 8c 24 08
	01 00 00	 mov	 rcx, QWORD PTR [rsp+264]
  0002a	48 8d 0d 00 00
	00 00		 lea	 rcx, OFFSET FLAT:__911385EF_xstddef
  00031	e8 00 00 00 00	 call	 __CheckForDebuggerJustMyCode

; 289  :     return _Ptr;

  00036	48 8b 85 e0 00
	00 00		 mov	 rax, QWORD PTR _Ptr$[rbp]

; 290  : }

  0003d	48 8d a5 c8 00
	00 00		 lea	 rsp, QWORD PTR [rbp+200]
  00044	5f		 pop	 rdi
  00045	5d		 pop	 rbp
  00046	c3		 ret	 0
??$_Unfancy@U_Container_proxy@std@@@std@@YAPEAU_Container_proxy@0@PEAU10@@Z ENDP ; std::_Unfancy<std::_Container_proxy>
_TEXT	ENDS
; Function compile flags: /Odtp /RTCsu /ZI
; File C:\Program Files (x86)\Microsoft Visual Studio\2019\Enterprise\VC\Tools\MSVC\14.27.29110\include\xmemory
;	COMDAT ??$?0$$V@?$_Compressed_pair@V?$allocator@D@std@@V?$_String_val@U?$_Simple_types@D@std@@@2@$00@std@@QEAA@U_Zero_then_variadic_args_t@1@@Z
_TEXT	SEGMENT
this$ = 224
__formal$ = 232
??$?0$$V@?$_Compressed_pair@V?$allocator@D@std@@V?$_String_val@U?$_Simple_types@D@std@@@2@$00@std@@QEAA@U_Zero_then_variadic_args_t@1@@Z PROC ; std::_Compressed_pair<std::allocator<char>,std::_String_val<std::_Simple_types<char> >,1>::_Compressed_pair<std::allocator<char>,std::_String_val<std::_Simple_types<char> >,1><>, COMDAT

; 1336 :         : _Ty1(), _Myval2(_STD forward<_Other2>(_Val2)...) {}

$LN4:
  00000	88 54 24 10	 mov	 BYTE PTR [rsp+16], dl
  00004	48 89 4c 24 08	 mov	 QWORD PTR [rsp+8], rcx
  00009	55		 push	 rbp
  0000a	57		 push	 rdi
  0000b	48 81 ec e8 00
	00 00		 sub	 rsp, 232		; 000000e8H
  00012	48 8d 6c 24 20	 lea	 rbp, QWORD PTR [rsp+32]
  00017	48 8b fc	 mov	 rdi, rsp
  0001a	b9 3a 00 00 00	 mov	 ecx, 58			; 0000003aH
  0001f	b8 cc cc cc cc	 mov	 eax, -858993460		; ccccccccH
  00024	f3 ab		 rep stosd
  00026	48 8b 8c 24 08
	01 00 00	 mov	 rcx, QWORD PTR [rsp+264]
  0002e	48 8d 0d 00 00
	00 00		 lea	 rcx, OFFSET FLAT:__0C99713E_xmemory
  00035	e8 00 00 00 00	 call	 __CheckForDebuggerJustMyCode
  0003a	48 8b 8d e0 00
	00 00		 mov	 rcx, QWORD PTR this$[rbp]
  00041	e8 00 00 00 00	 call	 ??0?$allocator@D@std@@QEAA@XZ ; std::allocator<char>::allocator<char>
  00046	48 8b 85 e0 00
	00 00		 mov	 rax, QWORD PTR this$[rbp]
  0004d	48 8b c8	 mov	 rcx, rax
  00050	e8 00 00 00 00	 call	 ??0?$_String_val@U?$_Simple_types@D@std@@@std@@QEAA@XZ ; std::_String_val<std::_Simple_types<char> >::_String_val<std::_Simple_types<char> >
  00055	48 8b 85 e0 00
	00 00		 mov	 rax, QWORD PTR this$[rbp]
  0005c	48 8d a5 c8 00
	00 00		 lea	 rsp, QWORD PTR [rbp+200]
  00063	5f		 pop	 rdi
  00064	5d		 pop	 rbp
  00065	c3		 ret	 0
??$?0$$V@?$_Compressed_pair@V?$allocator@D@std@@V?$_String_val@U?$_Simple_types@D@std@@@2@$00@std@@QEAA@U_Zero_then_variadic_args_t@1@@Z ENDP ; std::_Compressed_pair<std::allocator<char>,std::_String_val<std::_Simple_types<char> >,1>::_Compressed_pair<std::allocator<char>,std::_String_val<std::_Simple_types<char> >,1><>
_TEXT	ENDS
; Function compile flags: /Odtp /RTCsu /ZI
; File C:\Program Files (x86)\Microsoft Visual Studio\2019\Enterprise\VC\Tools\MSVC\14.27.29110\include\xmemory
;	COMDAT ??$?0D@?$allocator@U_Container_proxy@std@@@std@@QEAA@AEBV?$allocator@D@1@@Z
_TEXT	SEGMENT
this$ = 224
__formal$ = 232
??$?0D@?$allocator@U_Container_proxy@std@@@std@@QEAA@AEBV?$allocator@D@1@@Z PROC ; std::allocator<std::_Container_proxy>::allocator<std::_Container_proxy><char>, COMDAT

; 799  :     constexpr allocator(const allocator<_Other>&) noexcept {}

$LN3:
  00000	48 89 54 24 10	 mov	 QWORD PTR [rsp+16], rdx
  00005	48 89 4c 24 08	 mov	 QWORD PTR [rsp+8], rcx
  0000a	55		 push	 rbp
  0000b	57		 push	 rdi
  0000c	48 81 ec e8 00
	00 00		 sub	 rsp, 232		; 000000e8H
  00013	48 8d 6c 24 20	 lea	 rbp, QWORD PTR [rsp+32]
  00018	48 8b fc	 mov	 rdi, rsp
  0001b	b9 3a 00 00 00	 mov	 ecx, 58			; 0000003aH
  00020	b8 cc cc cc cc	 mov	 eax, -858993460		; ccccccccH
  00025	f3 ab		 rep stosd
  00027	48 8b 8c 24 08
	01 00 00	 mov	 rcx, QWORD PTR [rsp+264]
  0002f	48 8d 0d 00 00
	00 00		 lea	 rcx, OFFSET FLAT:__0C99713E_xmemory
  00036	e8 00 00 00 00	 call	 __CheckForDebuggerJustMyCode
  0003b	48 8b 85 e0 00
	00 00		 mov	 rax, QWORD PTR this$[rbp]
  00042	48 8d a5 c8 00
	00 00		 lea	 rsp, QWORD PTR [rbp+200]
  00049	5f		 pop	 rdi
  0004a	5d		 pop	 rbp
  0004b	c3		 ret	 0
??$?0D@?$allocator@U_Container_proxy@std@@@std@@QEAA@AEBV?$allocator@D@1@@Z ENDP ; std::allocator<std::_Container_proxy>::allocator<std::_Container_proxy><char>
_TEXT	ENDS
; Function compile flags: /Odtp /RTCsu /ZI
; File C:\Program Files (x86)\Microsoft Visual Studio\2019\Enterprise\VC\Tools\MSVC\14.27.29110\include\xmemory
;	COMDAT ??$_Alloc_proxy@V?$allocator@U_Container_proxy@std@@@std@@@_Container_base12@std@@QEAAX$$QEAV?$allocator@U_Container_proxy@std@@@1@@Z
_TEXT	SEGMENT
_New_proxy$ = 8
$T1 = 232
this$ = 288
_Al$ = 296
??$_Alloc_proxy@V?$allocator@U_Container_proxy@std@@@std@@@_Container_base12@std@@QEAAX$$QEAV?$allocator@U_Container_proxy@std@@@1@@Z PROC ; std::_Container_base12::_Alloc_proxy<std::allocator<std::_Container_proxy> >, COMDAT

; 1101 :     void _Alloc_proxy(_Alloc&& _Al) {

$LN3:
  00000	48 89 54 24 10	 mov	 QWORD PTR [rsp+16], rdx
  00005	48 89 4c 24 08	 mov	 QWORD PTR [rsp+8], rcx
  0000a	55		 push	 rbp
  0000b	57		 push	 rdi
  0000c	48 81 ec 28 01
	00 00		 sub	 rsp, 296		; 00000128H
  00013	48 8d 6c 24 20	 lea	 rbp, QWORD PTR [rsp+32]
  00018	48 8b fc	 mov	 rdi, rsp
  0001b	b9 4a 00 00 00	 mov	 ecx, 74			; 0000004aH
  00020	b8 cc cc cc cc	 mov	 eax, -858993460		; ccccccccH
  00025	f3 ab		 rep stosd
  00027	48 8b 8c 24 48
	01 00 00	 mov	 rcx, QWORD PTR [rsp+328]
  0002f	48 8d 0d 00 00
	00 00		 lea	 rcx, OFFSET FLAT:__0C99713E_xmemory
  00036	e8 00 00 00 00	 call	 __CheckForDebuggerJustMyCode

; 1102 :         _Container_proxy* const _New_proxy = _Unfancy(_Al.allocate(1));

  0003b	ba 01 00 00 00	 mov	 edx, 1
  00040	48 8b 8d 28 01
	00 00		 mov	 rcx, QWORD PTR _Al$[rbp]
  00047	e8 00 00 00 00	 call	 ?allocate@?$allocator@U_Container_proxy@std@@@std@@QEAAPEAU_Container_proxy@2@_K@Z ; std::allocator<std::_Container_proxy>::allocate
  0004c	48 8b c8	 mov	 rcx, rax
  0004f	e8 00 00 00 00	 call	 ??$_Unfancy@U_Container_proxy@std@@@std@@YAPEAU_Container_proxy@0@PEAU10@@Z ; std::_Unfancy<std::_Container_proxy>
  00054	48 89 45 08	 mov	 QWORD PTR _New_proxy$[rbp], rax

; 1103 :         _Construct_in_place(*_New_proxy, this);

  00058	48 8b 85 20 01
	00 00		 mov	 rax, QWORD PTR this$[rbp]
  0005f	48 89 85 e8 00
	00 00		 mov	 QWORD PTR $T1[rbp], rax
  00066	48 8d 95 e8 00
	00 00		 lea	 rdx, QWORD PTR $T1[rbp]
  0006d	48 8b 4d 08	 mov	 rcx, QWORD PTR _New_proxy$[rbp]
  00071	e8 00 00 00 00	 call	 ??$_Construct_in_place@U_Container_proxy@std@@PEAU_Container_base12@2@@std@@YAXAEAU_Container_proxy@0@$$QEAPEAU_Container_base12@0@@Z ; std::_Construct_in_place<std::_Container_proxy,std::_Container_base12 *>

; 1104 :         _Myproxy            = _New_proxy;

  00076	48 8b 85 20 01
	00 00		 mov	 rax, QWORD PTR this$[rbp]
  0007d	48 8b 4d 08	 mov	 rcx, QWORD PTR _New_proxy$[rbp]
  00081	48 89 08	 mov	 QWORD PTR [rax], rcx

; 1105 :         _New_proxy->_Mycont = this;

  00084	48 8b 45 08	 mov	 rax, QWORD PTR _New_proxy$[rbp]
  00088	48 8b 8d 20 01
	00 00		 mov	 rcx, QWORD PTR this$[rbp]
  0008f	48 89 08	 mov	 QWORD PTR [rax], rcx

; 1106 :     }

  00092	48 8d a5 08 01
	00 00		 lea	 rsp, QWORD PTR [rbp+264]
  00099	5f		 pop	 rdi
  0009a	5d		 pop	 rbp
  0009b	c3		 ret	 0
??$_Alloc_proxy@V?$allocator@U_Container_proxy@std@@@std@@@_Container_base12@std@@QEAAX$$QEAV?$allocator@U_Container_proxy@std@@@1@@Z ENDP ; std::_Container_base12::_Alloc_proxy<std::allocator<std::_Container_proxy> >
_TEXT	ENDS
; Function compile flags: /Odtp /RTCsu /ZI
; File C:\Program Files (x86)\Microsoft Visual Studio\2019\Enterprise\VC\Tools\MSVC\14.27.29110\include\xmemory
;	COMDAT ??$_Delete_plain_internal@V?$allocator@U_Container_proxy@std@@@std@@@std@@YAXAEAV?$allocator@U_Container_proxy@std@@@0@QEAU_Container_proxy@0@@Z
_TEXT	SEGMENT
_Al$ = 224
_Ptr$ = 232
??$_Delete_plain_internal@V?$allocator@U_Container_proxy@std@@@std@@@std@@YAXAEAV?$allocator@U_Container_proxy@std@@@0@QEAU_Container_proxy@0@@Z PROC ; std::_Delete_plain_internal<std::allocator<std::_Container_proxy> >, COMDAT

; 1026 : void _Delete_plain_internal(_Alloc& _Al, typename _Alloc::value_type* const _Ptr) noexcept {

$LN3:
  00000	48 89 54 24 10	 mov	 QWORD PTR [rsp+16], rdx
  00005	48 89 4c 24 08	 mov	 QWORD PTR [rsp+8], rcx
  0000a	55		 push	 rbp
  0000b	57		 push	 rdi
  0000c	48 81 ec e8 00
	00 00		 sub	 rsp, 232		; 000000e8H
  00013	48 8d 6c 24 20	 lea	 rbp, QWORD PTR [rsp+32]
  00018	48 8b fc	 mov	 rdi, rsp
  0001b	b9 3a 00 00 00	 mov	 ecx, 58			; 0000003aH
  00020	b8 cc cc cc cc	 mov	 eax, -858993460		; ccccccccH
  00025	f3 ab		 rep stosd
  00027	48 8b 8c 24 08
	01 00 00	 mov	 rcx, QWORD PTR [rsp+264]
  0002f	48 8d 0d 00 00
	00 00		 lea	 rcx, OFFSET FLAT:__0C99713E_xmemory
  00036	e8 00 00 00 00	 call	 __CheckForDebuggerJustMyCode

; 1027 :     // destroy *_Ptr in place, then deallocate _Ptr using _Al; used for internal container types the user didn't name
; 1028 :     using _Ty = typename _Alloc::value_type;
; 1029 :     _Ptr->~_Ty();
; 1030 :     _Deallocate_plain(_Al, _Ptr);

  0003b	48 8b 95 e8 00
	00 00		 mov	 rdx, QWORD PTR _Ptr$[rbp]
  00042	48 8b 8d e0 00
	00 00		 mov	 rcx, QWORD PTR _Al$[rbp]
  00049	e8 00 00 00 00	 call	 ??$_Deallocate_plain@V?$allocator@U_Container_proxy@std@@@std@@@std@@YAXAEAV?$allocator@U_Container_proxy@std@@@0@QEAU_Container_proxy@0@@Z ; std::_Deallocate_plain<std::allocator<std::_Container_proxy> >
  0004e	90		 npad	 1

; 1031 : }

  0004f	48 8d a5 c8 00
	00 00		 lea	 rsp, QWORD PTR [rbp+200]
  00056	5f		 pop	 rdi
  00057	5d		 pop	 rbp
  00058	c3		 ret	 0
??$_Delete_plain_internal@V?$allocator@U_Container_proxy@std@@@std@@@std@@YAXAEAV?$allocator@U_Container_proxy@std@@@0@QEAU_Container_proxy@0@@Z ENDP ; std::_Delete_plain_internal<std::allocator<std::_Container_proxy> >
_TEXT	ENDS
; Function compile flags: /Odtp /RTCsu /ZI
; File C:\Program Files (x86)\Microsoft Visual Studio\2019\Enterprise\VC\Tools\MSVC\14.27.29110\include\xmemory
;	COMDAT ?allocate@?$allocator@U_Container_proxy@std@@@std@@QEAAPEAU_Container_proxy@2@_K@Z
_TEXT	SEGMENT
this$ = 224
_Count$ = 232
?allocate@?$allocator@U_Container_proxy@std@@@std@@QEAAPEAU_Container_proxy@2@_K@Z PROC ; std::allocator<std::_Container_proxy>::allocate, COMDAT

; 806  :     _NODISCARD __declspec(allocator) _Ty* allocate(_CRT_GUARDOVERFLOW const size_t _Count) {

$LN3:
  00000	48 89 54 24 10	 mov	 QWORD PTR [rsp+16], rdx
  00005	48 89 4c 24 08	 mov	 QWORD PTR [rsp+8], rcx
  0000a	55		 push	 rbp
  0000b	57		 push	 rdi
  0000c	48 81 ec e8 00
	00 00		 sub	 rsp, 232		; 000000e8H
  00013	48 8d 6c 24 20	 lea	 rbp, QWORD PTR [rsp+32]
  00018	48 8b fc	 mov	 rdi, rsp
  0001b	b9 3a 00 00 00	 mov	 ecx, 58			; 0000003aH
  00020	b8 cc cc cc cc	 mov	 eax, -858993460		; ccccccccH
  00025	f3 ab		 rep stosd
  00027	48 8b 8c 24 08
	01 00 00	 mov	 rcx, QWORD PTR [rsp+264]
  0002f	48 8d 0d 00 00
	00 00		 lea	 rcx, OFFSET FLAT:__0C99713E_xmemory
  00036	e8 00 00 00 00	 call	 __CheckForDebuggerJustMyCode

; 807  :         return static_cast<_Ty*>(_Allocate<_New_alignof<_Ty>>(_Get_size_of_n<sizeof(_Ty)>(_Count)));

  0003b	48 8b 8d e8 00
	00 00		 mov	 rcx, QWORD PTR _Count$[rbp]
  00042	e8 00 00 00 00	 call	 ??$_Get_size_of_n@$0BA@@std@@YA_K_K@Z ; std::_Get_size_of_n<16>
  00047	48 8b c8	 mov	 rcx, rax
  0004a	e8 00 00 00 00	 call	 ??$_Allocate@$0BA@U_Default_allocate_traits@std@@$0A@@std@@YAPEAX_K@Z ; std::_Allocate<16,std::_Default_allocate_traits,0>

; 808  :     }

  0004f	48 8d a5 c8 00
	00 00		 lea	 rsp, QWORD PTR [rbp+200]
  00056	5f		 pop	 rdi
  00057	5d		 pop	 rbp
  00058	c3		 ret	 0
?allocate@?$allocator@U_Container_proxy@std@@@std@@QEAAPEAU_Container_proxy@2@_K@Z ENDP ; std::allocator<std::_Container_proxy>::allocate
_TEXT	ENDS
; Function compile flags: /Odtp /RTCsu /ZI
; File C:\Program Files (x86)\Microsoft Visual Studio\2019\Enterprise\VC\Tools\MSVC\14.27.29110\include\xstddef
;	COMDAT ??$addressof@V?$basic_filebuf@DU?$char_traits@D@std@@@std@@@std@@YAPEAV?$basic_filebuf@DU?$char_traits@D@std@@@0@AEAV10@@Z
_TEXT	SEGMENT
_Val$ = 224
??$addressof@V?$basic_filebuf@DU?$char_traits@D@std@@@std@@@std@@YAPEAV?$basic_filebuf@DU?$char_traits@D@std@@@0@AEAV10@@Z PROC ; std::addressof<std::basic_filebuf<char,std::char_traits<char> > >, COMDAT

; 274  : _NODISCARD constexpr _Ty* addressof(_Ty& _Val) noexcept {

$LN3:
  00000	48 89 4c 24 08	 mov	 QWORD PTR [rsp+8], rcx
  00005	55		 push	 rbp
  00006	57		 push	 rdi
  00007	48 81 ec e8 00
	00 00		 sub	 rsp, 232		; 000000e8H
  0000e	48 8d 6c 24 20	 lea	 rbp, QWORD PTR [rsp+32]
  00013	48 8b fc	 mov	 rdi, rsp
  00016	b9 3a 00 00 00	 mov	 ecx, 58			; 0000003aH
  0001b	b8 cc cc cc cc	 mov	 eax, -858993460		; ccccccccH
  00020	f3 ab		 rep stosd
  00022	48 8b 8c 24 08
	01 00 00	 mov	 rcx, QWORD PTR [rsp+264]
  0002a	48 8d 0d 00 00
	00 00		 lea	 rcx, OFFSET FLAT:__911385EF_xstddef
  00031	e8 00 00 00 00	 call	 __CheckForDebuggerJustMyCode

; 275  :     return __builtin_addressof(_Val);

  00036	48 8b 85 e0 00
	00 00		 mov	 rax, QWORD PTR _Val$[rbp]

; 276  : }

  0003d	48 8d a5 c8 00
	00 00		 lea	 rsp, QWORD PTR [rbp+200]
  00044	5f		 pop	 rdi
  00045	5d		 pop	 rbp
  00046	c3		 ret	 0
??$addressof@V?$basic_filebuf@DU?$char_traits@D@std@@@std@@@std@@YAPEAV?$basic_filebuf@DU?$char_traits@D@std@@@0@AEAV10@@Z ENDP ; std::addressof<std::basic_filebuf<char,std::char_traits<char> > >
_TEXT	ENDS
; Function compile flags: /Odtp /RTCsu /ZI
; File C:\Program Files (x86)\Microsoft Visual Studio\2019\Enterprise\VC\Tools\MSVC\14.27.29110\include\utility
;	COMDAT ??$min@_K@std@@YAAEB_KAEB_K0@Z
_TEXT	SEGMENT
$T1 = 200
tv65 = 216
_Left$ = 256
_Right$ = 264
??$min@_K@std@@YAAEB_KAEB_K0@Z PROC			; std::min<unsigned __int64>, COMDAT

; 67   :     const _Ty& _Left, const _Ty& _Right) noexcept(noexcept(_Right < _Left)) /* strengthened */ {

$LN5:
  00000	48 89 54 24 10	 mov	 QWORD PTR [rsp+16], rdx
  00005	48 89 4c 24 08	 mov	 QWORD PTR [rsp+8], rcx
  0000a	55		 push	 rbp
  0000b	57		 push	 rdi
  0000c	48 81 ec 08 01
	00 00		 sub	 rsp, 264		; 00000108H
  00013	48 8d 6c 24 20	 lea	 rbp, QWORD PTR [rsp+32]
  00018	48 8b fc	 mov	 rdi, rsp
  0001b	b9 42 00 00 00	 mov	 ecx, 66			; 00000042H
  00020	b8 cc cc cc cc	 mov	 eax, -858993460		; ccccccccH
  00025	f3 ab		 rep stosd
  00027	48 8b 8c 24 28
	01 00 00	 mov	 rcx, QWORD PTR [rsp+296]
  0002f	48 8d 0d 00 00
	00 00		 lea	 rcx, OFFSET FLAT:__660C12FD_utility
  00036	e8 00 00 00 00	 call	 __CheckForDebuggerJustMyCode

; 68   :     // return smaller of _Left and _Right
; 69   :     return _Right < _Left ? _Right : _Left;

  0003b	48 8b 85 08 01
	00 00		 mov	 rax, QWORD PTR _Right$[rbp]
  00042	48 8b 8d 00 01
	00 00		 mov	 rcx, QWORD PTR _Left$[rbp]
  00049	48 8b 09	 mov	 rcx, QWORD PTR [rcx]
  0004c	48 39 08	 cmp	 QWORD PTR [rax], rcx
  0004f	73 10		 jae	 SHORT $LN3@min
  00051	48 8b 85 08 01
	00 00		 mov	 rax, QWORD PTR _Right$[rbp]
  00058	48 89 85 d8 00
	00 00		 mov	 QWORD PTR tv65[rbp], rax
  0005f	eb 0e		 jmp	 SHORT $LN4@min
$LN3@min:
  00061	48 8b 85 00 01
	00 00		 mov	 rax, QWORD PTR _Left$[rbp]
  00068	48 89 85 d8 00
	00 00		 mov	 QWORD PTR tv65[rbp], rax
$LN4@min:
  0006f	48 8b 85 d8 00
	00 00		 mov	 rax, QWORD PTR tv65[rbp]
  00076	48 89 85 c8 00
	00 00		 mov	 QWORD PTR $T1[rbp], rax
  0007d	48 8b 85 c8 00
	00 00		 mov	 rax, QWORD PTR $T1[rbp]

; 70   : }

  00084	48 8d a5 e8 00
	00 00		 lea	 rsp, QWORD PTR [rbp+232]
  0008b	5f		 pop	 rdi
  0008c	5d		 pop	 rbp
  0008d	c3		 ret	 0
??$min@_K@std@@YAAEB_KAEB_K0@Z ENDP			; std::min<unsigned __int64>
_TEXT	ENDS
; Function compile flags: /Odtp /RTCsu /ZI
; File C:\Program Files (x86)\Microsoft Visual Studio\2019\Enterprise\VC\Tools\MSVC\14.27.29110\include\xlocale
;	COMDAT ??$use_facet@V?$codecvt@DDU_Mbstatet@@@std@@@std@@YAAEBV?$codecvt@DDU_Mbstatet@@@0@AEBVlocale@0@@Z
_TEXT	SEGMENT
_Lock$6 = 4
_Psave$7 = 40
_Id$8 = 72
_Pf$9 = 104
_Pfmod$10 = 136
_Psave_guard$11 = 168
$T12 = 392
__$ArrayPad$ = 408
_Loc$ = 448
??$use_facet@V?$codecvt@DDU_Mbstatet@@@std@@@std@@YAAEBV?$codecvt@DDU_Mbstatet@@@0@AEBVlocale@0@@Z PROC ; std::use_facet<std::codecvt<char,char,_Mbstatet> >, COMDAT

; 426  : const _Facet& __CRTDECL use_facet(const locale& _Loc) { // get facet reference from locale

$LN11:
  00000	48 89 4c 24 08	 mov	 QWORD PTR [rsp+8], rcx
  00005	55		 push	 rbp
  00006	57		 push	 rdi
  00007	48 81 ec c8 01
	00 00		 sub	 rsp, 456		; 000001c8H
  0000e	48 8d 6c 24 20	 lea	 rbp, QWORD PTR [rsp+32]
  00013	48 8b fc	 mov	 rdi, rsp
  00016	b9 72 00 00 00	 mov	 ecx, 114		; 00000072H
  0001b	b8 cc cc cc cc	 mov	 eax, -858993460		; ccccccccH
  00020	f3 ab		 rep stosd
  00022	48 8b 8c 24 e8
	01 00 00	 mov	 rcx, QWORD PTR [rsp+488]
  0002a	48 8b 05 00 00
	00 00		 mov	 rax, QWORD PTR __security_cookie
  00031	48 33 c5	 xor	 rax, rbp
  00034	48 89 85 98 01
	00 00		 mov	 QWORD PTR __$ArrayPad$[rbp], rax
  0003b	48 8d 0d 00 00
	00 00		 lea	 rcx, OFFSET FLAT:__A7748393_xlocale
  00042	e8 00 00 00 00	 call	 __CheckForDebuggerJustMyCode

; 427  :     _BEGIN_LOCK(_LOCK_LOCALE) // the thread lock, make get atomic

  00047	33 d2		 xor	 edx, edx
  00049	48 8d 4d 04	 lea	 rcx, QWORD PTR _Lock$6[rbp]
  0004d	ff 15 00 00 00
	00		 call	 QWORD PTR __imp_??0_Lockit@std@@QEAA@H@Z
  00053	90		 npad	 1

; 428  :     const locale::facet* _Psave = _Facetptr<_Facet>::_Psave; // static pointer to lazy facet

  00054	48 8b 05 00 00
	00 00		 mov	 rax, QWORD PTR ?_Psave@?$_Facetptr@V?$codecvt@DDU_Mbstatet@@@std@@@std@@2PEBVfacet@locale@2@EB ; std::_Facetptr<std::codecvt<char,char,_Mbstatet> >::_Psave
  0005b	48 89 45 28	 mov	 QWORD PTR _Psave$7[rbp], rax

; 429  : 
; 430  :     const size_t _Id         = _Facet::id;

  0005f	48 8b 0d 00 00
	00 00		 mov	 rcx, QWORD PTR __imp_?id@?$codecvt@DDU_Mbstatet@@@std@@2V0locale@2@A
  00066	ff 15 00 00 00
	00		 call	 QWORD PTR __imp_??Bid@locale@std@@QEAA_KXZ
  0006c	48 89 45 48	 mov	 QWORD PTR _Id$8[rbp], rax

; 431  :     const locale::facet* _Pf = _Loc._Getfacet(_Id);

  00070	48 8b 55 48	 mov	 rdx, QWORD PTR _Id$8[rbp]
  00074	48 8b 8d c0 01
	00 00		 mov	 rcx, QWORD PTR _Loc$[rbp]
  0007b	e8 00 00 00 00	 call	 ?_Getfacet@locale@std@@QEBAPEBVfacet@12@_K@Z ; std::locale::_Getfacet
  00080	48 89 45 68	 mov	 QWORD PTR _Pf$9[rbp], rax

; 432  : 
; 433  :     if (!_Pf) {

  00084	48 83 7d 68 00	 cmp	 QWORD PTR _Pf$9[rbp], 0
  00089	0f 85 af 00 00
	00		 jne	 $LN2@use_facet

; 434  :         if (_Psave) {

  0008f	48 83 7d 28 00	 cmp	 QWORD PTR _Psave$7[rbp], 0
  00094	74 0d		 je	 SHORT $LN3@use_facet

; 435  :             _Pf = _Psave; // lazy facet already allocated

  00096	48 8b 45 28	 mov	 rax, QWORD PTR _Psave$7[rbp]
  0009a	48 89 45 68	 mov	 QWORD PTR _Pf$9[rbp], rax
  0009e	e9 9b 00 00 00	 jmp	 $LN2@use_facet
$LN3@use_facet:

; 436  :         } else if (_Facet::_Getcat(&_Psave, &_Loc) == static_cast<size_t>(-1)) {

  000a3	48 8b 95 c0 01
	00 00		 mov	 rdx, QWORD PTR _Loc$[rbp]
  000aa	48 8d 4d 28	 lea	 rcx, QWORD PTR _Psave$7[rbp]
  000ae	ff 15 00 00 00
	00		 call	 QWORD PTR __imp_?_Getcat@?$codecvt@DDU_Mbstatet@@@std@@SA_KPEAPEBVfacet@locale@2@PEBV42@@Z
  000b4	48 83 f8 ff	 cmp	 rax, -1
  000b8	75 08		 jne	 SHORT $LN5@use_facet

; 437  : #if _HAS_EXCEPTIONS
; 438  :             _Throw_bad_cast(); // lazy disallowed

  000ba	e8 00 00 00 00	 call	 ?_Throw_bad_cast@std@@YAXXZ ; std::_Throw_bad_cast
  000bf	90		 npad	 1

; 439  : #else // _HAS_EXCEPTIONS
; 440  :             _CSTD abort(); // lazy disallowed
; 441  : #endif // _HAS_EXCEPTIONS
; 442  :         } else { // queue up lazy facet for destruction

  000c0	eb 7c		 jmp	 SHORT $LN2@use_facet
$LN5@use_facet:

; 443  :             auto _Pfmod = const_cast<locale::facet*>(_Psave);

  000c2	48 8b 45 28	 mov	 rax, QWORD PTR _Psave$7[rbp]
  000c6	48 89 85 88 00
	00 00		 mov	 QWORD PTR _Pfmod$10[rbp], rax

; 444  :             unique_ptr<_Facet_base> _Psave_guard(static_cast<_Facet_base*>(_Pfmod));

  000cd	ba 08 00 00 00	 mov	 edx, 8
  000d2	48 8d 8d a8 00
	00 00		 lea	 rcx, QWORD PTR _Psave_guard$11[rbp]
  000d9	e8 00 00 00 00	 call	 ?__autoclassinit2@?$unique_ptr@V_Facet_base@std@@U?$default_delete@V_Facet_base@std@@@2@@std@@QEAAX_K@Z
  000de	48 8b 95 88 00
	00 00		 mov	 rdx, QWORD PTR _Pfmod$10[rbp]
  000e5	48 8d 8d a8 00
	00 00		 lea	 rcx, QWORD PTR _Psave_guard$11[rbp]
  000ec	e8 00 00 00 00	 call	 ??$?0U?$default_delete@V_Facet_base@std@@@std@@$0A@@?$unique_ptr@V_Facet_base@std@@U?$default_delete@V_Facet_base@std@@@2@@std@@QEAA@PEAV_Facet_base@1@@Z ; std::unique_ptr<std::_Facet_base,std::default_delete<std::_Facet_base> >::unique_ptr<std::_Facet_base,std::default_delete<std::_Facet_base> ><std::default_delete<std::_Facet_base>,0>
  000f1	90		 npad	 1

; 445  : 
; 446  : #if defined(_M_CEE)
; 447  :             _Facet_Register_m(_Pfmod);
; 448  : #else // defined(_M_CEE)
; 449  :             _Facet_Register(_Pfmod);

  000f2	48 8b 8d 88 00
	00 00		 mov	 rcx, QWORD PTR _Pfmod$10[rbp]
  000f9	e8 00 00 00 00	 call	 ?_Facet_Register@std@@YAXPEAV_Facet_base@1@@Z ; std::_Facet_Register

; 450  : #endif // defined(_M_CEE)
; 451  : 
; 452  :             _Pfmod->_Incref();

  000fe	48 8b 85 88 00
	00 00		 mov	 rax, QWORD PTR _Pfmod$10[rbp]
  00105	48 8b 00	 mov	 rax, QWORD PTR [rax]
  00108	48 8b 8d 88 00
	00 00		 mov	 rcx, QWORD PTR _Pfmod$10[rbp]
  0010f	ff 50 08	 call	 QWORD PTR [rax+8]

; 453  :             _Facetptr<_Facet>::_Psave = _Psave;

  00112	48 8b 45 28	 mov	 rax, QWORD PTR _Psave$7[rbp]
  00116	48 89 05 00 00
	00 00		 mov	 QWORD PTR ?_Psave@?$_Facetptr@V?$codecvt@DDU_Mbstatet@@@std@@@std@@2PEBVfacet@locale@2@EB, rax ; std::_Facetptr<std::codecvt<char,char,_Mbstatet> >::_Psave

; 454  :             _Pf                       = _Psave;

  0011d	48 8b 45 28	 mov	 rax, QWORD PTR _Psave$7[rbp]
  00121	48 89 45 68	 mov	 QWORD PTR _Pf$9[rbp], rax

; 455  : 
; 456  :             (void) _Psave_guard.release();

  00125	48 8d 8d a8 00
	00 00		 lea	 rcx, QWORD PTR _Psave_guard$11[rbp]
  0012c	e8 00 00 00 00	 call	 ?release@?$unique_ptr@V_Facet_base@std@@U?$default_delete@V_Facet_base@std@@@2@@std@@QEAAPEAV_Facet_base@2@XZ ; std::unique_ptr<std::_Facet_base,std::default_delete<std::_Facet_base> >::release
  00131	90		 npad	 1

; 457  :         }

  00132	48 8d 8d a8 00
	00 00		 lea	 rcx, QWORD PTR _Psave_guard$11[rbp]
  00139	e8 00 00 00 00	 call	 ??1?$unique_ptr@V_Facet_base@std@@U?$default_delete@V_Facet_base@std@@@2@@std@@QEAA@XZ ; std::unique_ptr<std::_Facet_base,std::default_delete<std::_Facet_base> >::~unique_ptr<std::_Facet_base,std::default_delete<std::_Facet_base> >
$LN2@use_facet:

; 458  :     }
; 459  : 
; 460  :     return static_cast<const _Facet&>(*_Pf); // should be dynamic_cast

  0013e	48 8b 45 68	 mov	 rax, QWORD PTR _Pf$9[rbp]
  00142	48 89 85 88 01
	00 00		 mov	 QWORD PTR $T12[rbp], rax
  00149	48 8d 4d 04	 lea	 rcx, QWORD PTR _Lock$6[rbp]
  0014d	ff 15 00 00 00
	00		 call	 QWORD PTR __imp_??1_Lockit@std@@QEAA@XZ
  00153	48 8b 85 88 01
	00 00		 mov	 rax, QWORD PTR $T12[rbp]

; 461  :     _END_LOCK()
; 462  : } // end of use_facet body

  0015a	48 8b f8	 mov	 rdi, rax
  0015d	48 8d 4d e0	 lea	 rcx, QWORD PTR [rbp-32]
  00161	48 8d 15 00 00
	00 00		 lea	 rdx, OFFSET FLAT:??$use_facet@V?$codecvt@DDU_Mbstatet@@@std@@@std@@YAAEBV?$codecvt@DDU_Mbstatet@@@0@AEBVlocale@0@@Z$rtcFrameData
  00168	e8 00 00 00 00	 call	 _RTC_CheckStackVars
  0016d	48 8b c7	 mov	 rax, rdi
  00170	48 8b 8d 98 01
	00 00		 mov	 rcx, QWORD PTR __$ArrayPad$[rbp]
  00177	48 33 cd	 xor	 rcx, rbp
  0017a	e8 00 00 00 00	 call	 __security_check_cookie
  0017f	48 8d a5 a8 01
	00 00		 lea	 rsp, QWORD PTR [rbp+424]
  00186	5f		 pop	 rdi
  00187	5d		 pop	 rbp
  00188	c3		 ret	 0
$LN10@use_facet:
??$use_facet@V?$codecvt@DDU_Mbstatet@@@std@@@std@@YAAEBV?$codecvt@DDU_Mbstatet@@@0@AEBVlocale@0@@Z ENDP ; std::use_facet<std::codecvt<char,char,_Mbstatet> >
_TEXT	ENDS
;	COMDAT text$x
text$x	SEGMENT
_Lock$6 = 4
_Psave$7 = 40
_Id$8 = 72
_Pf$9 = 104
_Pfmod$10 = 136
_Psave_guard$11 = 168
$T12 = 392
__$ArrayPad$ = 408
_Loc$ = 448
?dtor$0@?0???$use_facet@V?$codecvt@DDU_Mbstatet@@@std@@@std@@YAAEBV?$codecvt@DDU_Mbstatet@@@0@AEBVlocale@0@@Z@4HA PROC ; `std::use_facet<std::codecvt<char,char,_Mbstatet> >'::`1'::dtor$0
  00000	48 89 4c 24 08	 mov	 QWORD PTR [rsp+8], rcx
  00005	48 89 54 24 10	 mov	 QWORD PTR [rsp+16], rdx
  0000a	55		 push	 rbp
  0000b	57		 push	 rdi
  0000c	48 83 ec 28	 sub	 rsp, 40			; 00000028H
  00010	48 8d 6a 20	 lea	 rbp, QWORD PTR [rdx+32]
  00014	48 8d 4d 04	 lea	 rcx, QWORD PTR _Lock$6[rbp]
  00018	ff 15 00 00 00
	00		 call	 QWORD PTR __imp_??1_Lockit@std@@QEAA@XZ
  0001e	48 83 c4 28	 add	 rsp, 40			; 00000028H
  00022	5f		 pop	 rdi
  00023	5d		 pop	 rbp
  00024	c3		 ret	 0
?dtor$0@?0???$use_facet@V?$codecvt@DDU_Mbstatet@@@std@@@std@@YAAEBV?$codecvt@DDU_Mbstatet@@@0@AEBVlocale@0@@Z@4HA ENDP ; `std::use_facet<std::codecvt<char,char,_Mbstatet> >'::`1'::dtor$0
text$x	ENDS
;	COMDAT text$x
text$x	SEGMENT
_Lock$6 = 4
_Psave$7 = 40
_Id$8 = 72
_Pf$9 = 104
_Pfmod$10 = 136
_Psave_guard$11 = 168
$T12 = 392
__$ArrayPad$ = 408
_Loc$ = 448
?dtor$1@?0???$use_facet@V?$codecvt@DDU_Mbstatet@@@std@@@std@@YAAEBV?$codecvt@DDU_Mbstatet@@@0@AEBVlocale@0@@Z@4HA PROC ; `std::use_facet<std::codecvt<char,char,_Mbstatet> >'::`1'::dtor$1
  00000	48 89 4c 24 08	 mov	 QWORD PTR [rsp+8], rcx
  00005	48 89 54 24 10	 mov	 QWORD PTR [rsp+16], rdx
  0000a	55		 push	 rbp
  0000b	57		 push	 rdi
  0000c	48 83 ec 28	 sub	 rsp, 40			; 00000028H
  00010	48 8d 6a 20	 lea	 rbp, QWORD PTR [rdx+32]
  00014	48 8d 8d a8 00
	00 00		 lea	 rcx, QWORD PTR _Psave_guard$11[rbp]
  0001b	e8 00 00 00 00	 call	 ??1?$unique_ptr@V_Facet_base@std@@U?$default_delete@V_Facet_base@std@@@2@@std@@QEAA@XZ ; std::unique_ptr<std::_Facet_base,std::default_delete<std::_Facet_base> >::~unique_ptr<std::_Facet_base,std::default_delete<std::_Facet_base> >
  00020	48 83 c4 28	 add	 rsp, 40			; 00000028H
  00024	5f		 pop	 rdi
  00025	5d		 pop	 rbp
  00026	c3		 ret	 0
?dtor$1@?0???$use_facet@V?$codecvt@DDU_Mbstatet@@@std@@@std@@YAAEBV?$codecvt@DDU_Mbstatet@@@0@AEBVlocale@0@@Z@4HA ENDP ; `std::use_facet<std::codecvt<char,char,_Mbstatet> >'::`1'::dtor$1
text$x	ENDS
; Function compile flags: /Odtp /RTCsu /ZI
;	COMDAT text$x
text$x	SEGMENT
_Lock$6 = 4
_Psave$7 = 40
_Id$8 = 72
_Pf$9 = 104
_Pfmod$10 = 136
_Psave_guard$11 = 168
$T12 = 392
__$ArrayPad$ = 408
_Loc$ = 448
?dtor$0@?0???$use_facet@V?$codecvt@DDU_Mbstatet@@@std@@@std@@YAAEBV?$codecvt@DDU_Mbstatet@@@0@AEBVlocale@0@@Z@4HA PROC ; `std::use_facet<std::codecvt<char,char,_Mbstatet> >'::`1'::dtor$0
  00000	48 89 4c 24 08	 mov	 QWORD PTR [rsp+8], rcx
  00005	48 89 54 24 10	 mov	 QWORD PTR [rsp+16], rdx
  0000a	55		 push	 rbp
  0000b	57		 push	 rdi
  0000c	48 83 ec 28	 sub	 rsp, 40			; 00000028H
  00010	48 8d 6a 20	 lea	 rbp, QWORD PTR [rdx+32]
  00014	48 8d 4d 04	 lea	 rcx, QWORD PTR _Lock$6[rbp]
  00018	ff 15 00 00 00
	00		 call	 QWORD PTR __imp_??1_Lockit@std@@QEAA@XZ
  0001e	48 83 c4 28	 add	 rsp, 40			; 00000028H
  00022	5f		 pop	 rdi
  00023	5d		 pop	 rbp
  00024	c3		 ret	 0
?dtor$0@?0???$use_facet@V?$codecvt@DDU_Mbstatet@@@std@@@std@@YAAEBV?$codecvt@DDU_Mbstatet@@@0@AEBVlocale@0@@Z@4HA ENDP ; `std::use_facet<std::codecvt<char,char,_Mbstatet> >'::`1'::dtor$0
text$x	ENDS
; Function compile flags: /Odtp /RTCsu /ZI
;	COMDAT text$x
text$x	SEGMENT
_Lock$6 = 4
_Psave$7 = 40
_Id$8 = 72
_Pf$9 = 104
_Pfmod$10 = 136
_Psave_guard$11 = 168
$T12 = 392
__$ArrayPad$ = 408
_Loc$ = 448
?dtor$1@?0???$use_facet@V?$codecvt@DDU_Mbstatet@@@std@@@std@@YAAEBV?$codecvt@DDU_Mbstatet@@@0@AEBVlocale@0@@Z@4HA PROC ; `std::use_facet<std::codecvt<char,char,_Mbstatet> >'::`1'::dtor$1
  00000	48 89 4c 24 08	 mov	 QWORD PTR [rsp+8], rcx
  00005	48 89 54 24 10	 mov	 QWORD PTR [rsp+16], rdx
  0000a	55		 push	 rbp
  0000b	57		 push	 rdi
  0000c	48 83 ec 28	 sub	 rsp, 40			; 00000028H
  00010	48 8d 6a 20	 lea	 rbp, QWORD PTR [rdx+32]
  00014	48 8d 8d a8 00
	00 00		 lea	 rcx, QWORD PTR _Psave_guard$11[rbp]
  0001b	e8 00 00 00 00	 call	 ??1?$unique_ptr@V_Facet_base@std@@U?$default_delete@V_Facet_base@std@@@2@@std@@QEAA@XZ ; std::unique_ptr<std::_Facet_base,std::default_delete<std::_Facet_base> >::~unique_ptr<std::_Facet_base,std::default_delete<std::_Facet_base> >
  00020	48 83 c4 28	 add	 rsp, 40			; 00000028H
  00024	5f		 pop	 rdi
  00025	5d		 pop	 rbp
  00026	c3		 ret	 0
?dtor$1@?0???$use_facet@V?$codecvt@DDU_Mbstatet@@@std@@@std@@YAAEBV?$codecvt@DDU_Mbstatet@@@0@AEBVlocale@0@@Z@4HA ENDP ; `std::use_facet<std::codecvt<char,char,_Mbstatet> >'::`1'::dtor$1
text$x	ENDS
; Function compile flags: /Odtp /RTCsu /ZI
;	COMDAT ??_D?$basic_fstream@DU?$char_traits@D@std@@@std@@QEAAXXZ
_TEXT	SEGMENT
this$ = 224
??_D?$basic_fstream@DU?$char_traits@D@std@@@std@@QEAAXXZ PROC ; std::basic_fstream<char,std::char_traits<char> >::`vbase destructor', COMDAT
$LN3:
  00000	48 89 4c 24 08	 mov	 QWORD PTR [rsp+8], rcx
  00005	55		 push	 rbp
  00006	57		 push	 rdi
  00007	48 81 ec e8 00
	00 00		 sub	 rsp, 232		; 000000e8H
  0000e	48 8d 6c 24 20	 lea	 rbp, QWORD PTR [rsp+32]
  00013	48 8b fc	 mov	 rdi, rsp
  00016	b9 3a 00 00 00	 mov	 ecx, 58			; 0000003aH
  0001b	b8 cc cc cc cc	 mov	 eax, -858993460		; ccccccccH
  00020	f3 ab		 rep stosd
  00022	48 8b 8c 24 08
	01 00 00	 mov	 rcx, QWORD PTR [rsp+264]
  0002a	48 8b 85 e0 00
	00 00		 mov	 rax, QWORD PTR this$[rbp]
  00031	48 05 b8 00 00
	00		 add	 rax, 184		; 000000b8H
  00037	48 8b c8	 mov	 rcx, rax
  0003a	e8 00 00 00 00	 call	 ??1?$basic_fstream@DU?$char_traits@D@std@@@std@@UEAA@XZ ; std::basic_fstream<char,std::char_traits<char> >::~basic_fstream<char,std::char_traits<char> >
  0003f	48 8b 85 e0 00
	00 00		 mov	 rax, QWORD PTR this$[rbp]
  00046	48 05 b8 00 00
	00		 add	 rax, 184		; 000000b8H
  0004c	48 8b c8	 mov	 rcx, rax
  0004f	ff 15 00 00 00
	00		 call	 QWORD PTR __imp_??1?$basic_ios@DU?$char_traits@D@std@@@std@@UEAA@XZ
  00055	48 8d a5 c8 00
	00 00		 lea	 rsp, QWORD PTR [rbp+200]
  0005c	5f		 pop	 rdi
  0005d	5d		 pop	 rbp
  0005e	c3		 ret	 0
??_D?$basic_fstream@DU?$char_traits@D@std@@@std@@QEAAXXZ ENDP ; std::basic_fstream<char,std::char_traits<char> >::`vbase destructor'
_TEXT	ENDS
; Function compile flags: /Odtp /RTCsu /ZI
;	COMDAT ??_G?$basic_fstream@DU?$char_traits@D@std@@@std@@UEAAPEAXI@Z
_TEXT	SEGMENT
this$ = 224
__flags$ = 232
??_G?$basic_fstream@DU?$char_traits@D@std@@@std@@UEAAPEAXI@Z PROC ; std::basic_fstream<char,std::char_traits<char> >::`scalar deleting destructor', COMDAT
$LN4:
  00000	89 54 24 10	 mov	 DWORD PTR [rsp+16], edx
  00004	48 89 4c 24 08	 mov	 QWORD PTR [rsp+8], rcx
  00009	55		 push	 rbp
  0000a	57		 push	 rdi
  0000b	48 81 ec e8 00
	00 00		 sub	 rsp, 232		; 000000e8H
  00012	48 8d 6c 24 20	 lea	 rbp, QWORD PTR [rsp+32]
  00017	48 8b fc	 mov	 rdi, rsp
  0001a	b9 3a 00 00 00	 mov	 ecx, 58			; 0000003aH
  0001f	b8 cc cc cc cc	 mov	 eax, -858993460		; ccccccccH
  00024	f3 ab		 rep stosd
  00026	48 8b 8c 24 08
	01 00 00	 mov	 rcx, QWORD PTR [rsp+264]
  0002e	48 8b 85 e0 00
	00 00		 mov	 rax, QWORD PTR this$[rbp]
  00035	48 2d b8 00 00
	00		 sub	 rax, 184		; 000000b8H
  0003b	48 8b c8	 mov	 rcx, rax
  0003e	e8 00 00 00 00	 call	 ??_D?$basic_fstream@DU?$char_traits@D@std@@@std@@QEAAXXZ
  00043	8b 85 e8 00 00
	00		 mov	 eax, DWORD PTR __flags$[rbp]
  00049	83 e0 01	 and	 eax, 1
  0004c	85 c0		 test	 eax, eax
  0004e	74 1a		 je	 SHORT $LN2@scalar
  00050	48 8b 85 e0 00
	00 00		 mov	 rax, QWORD PTR this$[rbp]
  00057	48 2d b8 00 00
	00		 sub	 rax, 184		; 000000b8H
  0005d	ba 18 01 00 00	 mov	 edx, 280		; 00000118H
  00062	48 8b c8	 mov	 rcx, rax
  00065	e8 00 00 00 00	 call	 ??3@YAXPEAX_K@Z		; operator delete
$LN2@scalar:
  0006a	48 8b 85 e0 00
	00 00		 mov	 rax, QWORD PTR this$[rbp]
  00071	48 2d b8 00 00
	00		 sub	 rax, 184		; 000000b8H
  00077	48 8d a5 c8 00
	00 00		 lea	 rsp, QWORD PTR [rbp+200]
  0007e	5f		 pop	 rdi
  0007f	5d		 pop	 rbp
  00080	c3		 ret	 0
??_G?$basic_fstream@DU?$char_traits@D@std@@@std@@UEAAPEAXI@Z ENDP ; std::basic_fstream<char,std::char_traits<char> >::`scalar deleting destructor'
_TEXT	ENDS
; Function compile flags: /Odtp /RTCsu /ZI
;	COMDAT ?__autoclassinit2@?$basic_fstream@DU?$char_traits@D@std@@@std@@QEAAX_K@Z
_TEXT	SEGMENT
this$ = 224
classSize$ = 232
?__autoclassinit2@?$basic_fstream@DU?$char_traits@D@std@@@std@@QEAAX_K@Z PROC ; std::basic_fstream<char,std::char_traits<char> >::__autoclassinit2, COMDAT
$LN3:
  00000	48 89 54 24 10	 mov	 QWORD PTR [rsp+16], rdx
  00005	48 89 4c 24 08	 mov	 QWORD PTR [rsp+8], rcx
  0000a	55		 push	 rbp
  0000b	57		 push	 rdi
  0000c	48 81 ec c8 00
	00 00		 sub	 rsp, 200		; 000000c8H
  00013	48 8b ec	 mov	 rbp, rsp
  00016	48 8b fc	 mov	 rdi, rsp
  00019	b9 32 00 00 00	 mov	 ecx, 50			; 00000032H
  0001e	b8 cc cc cc cc	 mov	 eax, -858993460		; ccccccccH
  00023	f3 ab		 rep stosd
  00025	48 8b 8c 24 e8
	00 00 00	 mov	 rcx, QWORD PTR [rsp+232]
  0002d	48 8b bd e0 00
	00 00		 mov	 rdi, QWORD PTR this$[rbp]
  00034	33 c0		 xor	 eax, eax
  00036	48 8b 8d e8 00
	00 00		 mov	 rcx, QWORD PTR classSize$[rbp]
  0003d	f3 aa		 rep stosb
  0003f	48 8d a5 c8 00
	00 00		 lea	 rsp, QWORD PTR [rbp+200]
  00046	5f		 pop	 rdi
  00047	5d		 pop	 rbp
  00048	c3		 ret	 0
?__autoclassinit2@?$basic_fstream@DU?$char_traits@D@std@@@std@@QEAAX_K@Z ENDP ; std::basic_fstream<char,std::char_traits<char> >::__autoclassinit2
_TEXT	ENDS
; Function compile flags: /Odtp /RTCsu /ZI
;	COMDAT ??_G?$basic_filebuf@DU?$char_traits@D@std@@@std@@UEAAPEAXI@Z
_TEXT	SEGMENT
this$ = 224
__flags$ = 232
??_G?$basic_filebuf@DU?$char_traits@D@std@@@std@@UEAAPEAXI@Z PROC ; std::basic_filebuf<char,std::char_traits<char> >::`scalar deleting destructor', COMDAT
$LN4:
  00000	89 54 24 10	 mov	 DWORD PTR [rsp+16], edx
  00004	48 89 4c 24 08	 mov	 QWORD PTR [rsp+8], rcx
  00009	55		 push	 rbp
  0000a	57		 push	 rdi
  0000b	48 81 ec e8 00
	00 00		 sub	 rsp, 232		; 000000e8H
  00012	48 8d 6c 24 20	 lea	 rbp, QWORD PTR [rsp+32]
  00017	48 8b fc	 mov	 rdi, rsp
  0001a	b9 3a 00 00 00	 mov	 ecx, 58			; 0000003aH
  0001f	b8 cc cc cc cc	 mov	 eax, -858993460		; ccccccccH
  00024	f3 ab		 rep stosd
  00026	48 8b 8c 24 08
	01 00 00	 mov	 rcx, QWORD PTR [rsp+264]
  0002e	48 8b 8d e0 00
	00 00		 mov	 rcx, QWORD PTR this$[rbp]
  00035	e8 00 00 00 00	 call	 ??1?$basic_filebuf@DU?$char_traits@D@std@@@std@@UEAA@XZ ; std::basic_filebuf<char,std::char_traits<char> >::~basic_filebuf<char,std::char_traits<char> >
  0003a	8b 85 e8 00 00
	00		 mov	 eax, DWORD PTR __flags$[rbp]
  00040	83 e0 01	 and	 eax, 1
  00043	85 c0		 test	 eax, eax
  00045	74 11		 je	 SHORT $LN2@scalar
  00047	ba 98 00 00 00	 mov	 edx, 152		; 00000098H
  0004c	48 8b 8d e0 00
	00 00		 mov	 rcx, QWORD PTR this$[rbp]
  00053	e8 00 00 00 00	 call	 ??3@YAXPEAX_K@Z		; operator delete
$LN2@scalar:
  00058	48 8b 85 e0 00
	00 00		 mov	 rax, QWORD PTR this$[rbp]
  0005f	48 8d a5 c8 00
	00 00		 lea	 rsp, QWORD PTR [rbp+200]
  00066	5f		 pop	 rdi
  00067	5d		 pop	 rbp
  00068	c3		 ret	 0
??_G?$basic_filebuf@DU?$char_traits@D@std@@@std@@UEAAPEAXI@Z ENDP ; std::basic_filebuf<char,std::char_traits<char> >::`scalar deleting destructor'
_TEXT	ENDS
; Function compile flags: /Odtp /RTCsu /ZI
; File C:\Program Files (x86)\Microsoft Visual Studio\2019\Enterprise\VC\Tools\MSVC\14.27.29110\include\fstream
;	COMDAT ?_Set_back@?$basic_filebuf@DU?$char_traits@D@std@@@std@@AEAAXXZ
_TEXT	SEGMENT
this$ = 224
?_Set_back@?$basic_filebuf@DU?$char_traits@D@std@@@std@@AEAAXXZ PROC ; std::basic_filebuf<char,std::char_traits<char> >::_Set_back, COMDAT

; 779  :     void _Set_back() { // set up putback area

$LN4:
  00000	48 89 4c 24 08	 mov	 QWORD PTR [rsp+8], rcx
  00005	55		 push	 rbp
  00006	57		 push	 rdi
  00007	48 81 ec e8 00
	00 00		 sub	 rsp, 232		; 000000e8H
  0000e	48 8d 6c 24 20	 lea	 rbp, QWORD PTR [rsp+32]
  00013	48 8b fc	 mov	 rdi, rsp
  00016	b9 3a 00 00 00	 mov	 ecx, 58			; 0000003aH
  0001b	b8 cc cc cc cc	 mov	 eax, -858993460		; ccccccccH
  00020	f3 ab		 rep stosd
  00022	48 8b 8c 24 08
	01 00 00	 mov	 rcx, QWORD PTR [rsp+264]
  0002a	48 8d 0d 00 00
	00 00		 lea	 rcx, OFFSET FLAT:__21FC1C84_fstream
  00031	e8 00 00 00 00	 call	 __CheckForDebuggerJustMyCode

; 780  :         if (_Mysb::eback() != &_Mychar) { // save current get buffer

  00036	48 8b 8d e0 00
	00 00		 mov	 rcx, QWORD PTR this$[rbp]
  0003d	ff 15 00 00 00
	00		 call	 QWORD PTR __imp_?eback@?$basic_streambuf@DU?$char_traits@D@std@@@std@@IEBAPEADXZ
  00043	48 8b 8d e0 00
	00 00		 mov	 rcx, QWORD PTR this$[rbp]
  0004a	48 83 c1 70	 add	 rcx, 112		; 00000070H
  0004e	48 3b c1	 cmp	 rax, rcx
  00051	74 36		 je	 SHORT $LN2@Set_back

; 781  :             _Set_eback = _Mysb::eback();

  00053	48 8b 8d e0 00
	00 00		 mov	 rcx, QWORD PTR this$[rbp]
  0005a	ff 15 00 00 00
	00		 call	 QWORD PTR __imp_?eback@?$basic_streambuf@DU?$char_traits@D@std@@@std@@IEBAPEADXZ
  00060	48 8b 8d e0 00
	00 00		 mov	 rcx, QWORD PTR this$[rbp]
  00067	48 89 81 88 00
	00 00		 mov	 QWORD PTR [rcx+136], rax

; 782  :             _Set_egptr = _Mysb::egptr();

  0006e	48 8b 8d e0 00
	00 00		 mov	 rcx, QWORD PTR this$[rbp]
  00075	ff 15 00 00 00
	00		 call	 QWORD PTR __imp_?egptr@?$basic_streambuf@DU?$char_traits@D@std@@@std@@IEBAPEADXZ
  0007b	48 8b 8d e0 00
	00 00		 mov	 rcx, QWORD PTR this$[rbp]
  00082	48 89 81 90 00
	00 00		 mov	 QWORD PTR [rcx+144], rax
$LN2@Set_back:

; 783  :         }
; 784  :         _Mysb::setg(&_Mychar, &_Mychar, &_Mychar + 1);

  00089	48 8b 85 e0 00
	00 00		 mov	 rax, QWORD PTR this$[rbp]
  00090	48 83 c0 71	 add	 rax, 113		; 00000071H
  00094	48 8b 8d e0 00
	00 00		 mov	 rcx, QWORD PTR this$[rbp]
  0009b	48 83 c1 70	 add	 rcx, 112		; 00000070H
  0009f	48 8b 95 e0 00
	00 00		 mov	 rdx, QWORD PTR this$[rbp]
  000a6	48 83 c2 70	 add	 rdx, 112		; 00000070H
  000aa	4c 8b c8	 mov	 r9, rax
  000ad	4c 8b c1	 mov	 r8, rcx
  000b0	48 8b 8d e0 00
	00 00		 mov	 rcx, QWORD PTR this$[rbp]
  000b7	ff 15 00 00 00
	00		 call	 QWORD PTR __imp_?setg@?$basic_streambuf@DU?$char_traits@D@std@@@std@@IEAAXPEAD00@Z

; 785  :     }

  000bd	48 8d a5 c8 00
	00 00		 lea	 rsp, QWORD PTR [rbp+200]
  000c4	5f		 pop	 rdi
  000c5	5d		 pop	 rbp
  000c6	c3		 ret	 0
?_Set_back@?$basic_filebuf@DU?$char_traits@D@std@@@std@@AEAAXXZ ENDP ; std::basic_filebuf<char,std::char_traits<char> >::_Set_back
_TEXT	ENDS
; Function compile flags: /Odtp /RTCsu /ZI
; File C:\Program Files (x86)\Microsoft Visual Studio\2019\Enterprise\VC\Tools\MSVC\14.27.29110\include\fstream
;	COMDAT ?_Reset_back@?$basic_filebuf@DU?$char_traits@D@std@@@std@@AEAAXXZ
_TEXT	SEGMENT
this$ = 224
?_Reset_back@?$basic_filebuf@DU?$char_traits@D@std@@@std@@AEAAXXZ PROC ; std::basic_filebuf<char,std::char_traits<char> >::_Reset_back, COMDAT

; 773  :     void _Reset_back() { // restore buffer after putback

$LN4:
  00000	48 89 4c 24 08	 mov	 QWORD PTR [rsp+8], rcx
  00005	55		 push	 rbp
  00006	57		 push	 rdi
  00007	48 81 ec e8 00
	00 00		 sub	 rsp, 232		; 000000e8H
  0000e	48 8d 6c 24 20	 lea	 rbp, QWORD PTR [rsp+32]
  00013	48 8b fc	 mov	 rdi, rsp
  00016	b9 3a 00 00 00	 mov	 ecx, 58			; 0000003aH
  0001b	b8 cc cc cc cc	 mov	 eax, -858993460		; ccccccccH
  00020	f3 ab		 rep stosd
  00022	48 8b 8c 24 08
	01 00 00	 mov	 rcx, QWORD PTR [rsp+264]
  0002a	48 8d 0d 00 00
	00 00		 lea	 rcx, OFFSET FLAT:__21FC1C84_fstream
  00031	e8 00 00 00 00	 call	 __CheckForDebuggerJustMyCode

; 774  :         if (_Mysb::eback() == &_Mychar) {

  00036	48 8b 8d e0 00
	00 00		 mov	 rcx, QWORD PTR this$[rbp]
  0003d	ff 15 00 00 00
	00		 call	 QWORD PTR __imp_?eback@?$basic_streambuf@DU?$char_traits@D@std@@@std@@IEBAPEADXZ
  00043	48 8b 8d e0 00
	00 00		 mov	 rcx, QWORD PTR this$[rbp]
  0004a	48 83 c1 70	 add	 rcx, 112		; 00000070H
  0004e	48 3b c1	 cmp	 rax, rcx
  00051	75 37		 jne	 SHORT $LN2@Reset_back

; 775  :             _Mysb::setg(_Set_eback, _Set_eback, _Set_egptr);

  00053	48 8b 85 e0 00
	00 00		 mov	 rax, QWORD PTR this$[rbp]
  0005a	4c 8b 88 90 00
	00 00		 mov	 r9, QWORD PTR [rax+144]
  00061	48 8b 85 e0 00
	00 00		 mov	 rax, QWORD PTR this$[rbp]
  00068	4c 8b 80 88 00
	00 00		 mov	 r8, QWORD PTR [rax+136]
  0006f	48 8b 85 e0 00
	00 00		 mov	 rax, QWORD PTR this$[rbp]
  00076	48 8b 90 88 00
	00 00		 mov	 rdx, QWORD PTR [rax+136]
  0007d	48 8b 8d e0 00
	00 00		 mov	 rcx, QWORD PTR this$[rbp]
  00084	ff 15 00 00 00
	00		 call	 QWORD PTR __imp_?setg@?$basic_streambuf@DU?$char_traits@D@std@@@std@@IEAAXPEAD00@Z
$LN2@Reset_back:

; 776  :         }
; 777  :     }

  0008a	48 8d a5 c8 00
	00 00		 lea	 rsp, QWORD PTR [rbp+200]
  00091	5f		 pop	 rdi
  00092	5d		 pop	 rbp
  00093	c3		 ret	 0
?_Reset_back@?$basic_filebuf@DU?$char_traits@D@std@@@std@@AEAAXXZ ENDP ; std::basic_filebuf<char,std::char_traits<char> >::_Reset_back
_TEXT	ENDS
; Function compile flags: /Odtp /RTCsu /ZI
; File C:\Program Files (x86)\Microsoft Visual Studio\2019\Enterprise\VC\Tools\MSVC\14.27.29110\include\fstream
;	COMDAT ?_Initcvt@?$basic_filebuf@DU?$char_traits@D@std@@@std@@IEAAXAEBV?$codecvt@DDU_Mbstatet@@@2@@Z
_TEXT	SEGMENT
this$ = 224
_Newcvt$ = 232
?_Initcvt@?$basic_filebuf@DU?$char_traits@D@std@@@std@@IEAAXAEBV?$codecvt@DDU_Mbstatet@@@2@@Z PROC ; std::basic_filebuf<char,std::char_traits<char> >::_Initcvt, COMDAT

; 756  :     void _Initcvt(const _Cvt& _Newcvt) { // initialize codecvt pointer

$LN5:
  00000	48 89 54 24 10	 mov	 QWORD PTR [rsp+16], rdx
  00005	48 89 4c 24 08	 mov	 QWORD PTR [rsp+8], rcx
  0000a	55		 push	 rbp
  0000b	57		 push	 rdi
  0000c	48 81 ec e8 00
	00 00		 sub	 rsp, 232		; 000000e8H
  00013	48 8d 6c 24 20	 lea	 rbp, QWORD PTR [rsp+32]
  00018	48 8b fc	 mov	 rdi, rsp
  0001b	b9 3a 00 00 00	 mov	 ecx, 58			; 0000003aH
  00020	b8 cc cc cc cc	 mov	 eax, -858993460		; ccccccccH
  00025	f3 ab		 rep stosd
  00027	48 8b 8c 24 08
	01 00 00	 mov	 rcx, QWORD PTR [rsp+264]
  0002f	48 8d 0d 00 00
	00 00		 lea	 rcx, OFFSET FLAT:__21FC1C84_fstream
  00036	e8 00 00 00 00	 call	 __CheckForDebuggerJustMyCode

; 757  :         if (_Newcvt.always_noconv()) {

  0003b	48 8b 8d e8 00
	00 00		 mov	 rcx, QWORD PTR _Newcvt$[rbp]
  00042	ff 15 00 00 00
	00		 call	 QWORD PTR __imp_?always_noconv@codecvt_base@std@@QEBA_NXZ
  00048	0f b6 c0	 movzx	 eax, al
  0004b	85 c0		 test	 eax, eax
  0004d	74 11		 je	 SHORT $LN2@Initcvt

; 758  :             _Pcvt = nullptr; // nothing to do

  0004f	48 8b 85 e0 00
	00 00		 mov	 rax, QWORD PTR this$[rbp]
  00056	48 c7 40 68 00
	00 00 00	 mov	 QWORD PTR [rax+104], 0

; 759  :         } else { // set up for nontrivial codecvt facet

  0005e	eb 24		 jmp	 SHORT $LN3@Initcvt
$LN2@Initcvt:

; 760  :             _Pcvt = _STD addressof(_Newcvt);

  00060	48 8b 8d e8 00
	00 00		 mov	 rcx, QWORD PTR _Newcvt$[rbp]
  00067	e8 00 00 00 00	 call	 ??$addressof@$$CBV?$codecvt@DDU_Mbstatet@@@std@@@std@@YAPEBV?$codecvt@DDU_Mbstatet@@@0@AEBV10@@Z ; std::addressof<std::codecvt<char,char,_Mbstatet> const >
  0006c	48 8b 8d e0 00
	00 00		 mov	 rcx, QWORD PTR this$[rbp]
  00073	48 89 41 68	 mov	 QWORD PTR [rcx+104], rax

; 761  :             _Mysb::_Init(); // reset any buffering

  00077	48 8b 8d e0 00
	00 00		 mov	 rcx, QWORD PTR this$[rbp]
  0007e	ff 15 00 00 00
	00		 call	 QWORD PTR __imp_?_Init@?$basic_streambuf@DU?$char_traits@D@std@@@std@@IEAAXXZ
$LN3@Initcvt:

; 762  :         }
; 763  :     }

  00084	48 8d a5 c8 00
	00 00		 lea	 rsp, QWORD PTR [rbp+200]
  0008b	5f		 pop	 rdi
  0008c	5d		 pop	 rbp
  0008d	c3		 ret	 0
?_Initcvt@?$basic_filebuf@DU?$char_traits@D@std@@@std@@IEAAXAEBV?$codecvt@DDU_Mbstatet@@@2@@Z ENDP ; std::basic_filebuf<char,std::char_traits<char> >::_Initcvt
_TEXT	ENDS
; Function compile flags: /Odtp /RTCsu /ZI
; File C:\Program Files (x86)\Microsoft Visual Studio\2019\Enterprise\VC\Tools\MSVC\14.27.29110\include\fstream
;	COMDAT ?_Endwrite@?$basic_filebuf@DU?$char_traits@D@std@@@std@@IEAA_NXZ
_TEXT	SEGMENT
_Codecvt_temp_buf$ = 8
_Str$ = 40
_Dest$ = 104
_Count$5 = 136
$T6 = 356
$T7 = 388
tv140 = 404
tv94 = 404
tv147 = 408
__$ArrayPad$ = 416
this$ = 464
?_Endwrite@?$basic_filebuf@DU?$char_traits@D@std@@@std@@IEAA_NXZ PROC ; std::basic_filebuf<char,std::char_traits<char> >::_Endwrite, COMDAT

; 720  :     bool _Endwrite() { // put shift to initial conversion state, as needed

$LN15:
  00000	48 89 4c 24 08	 mov	 QWORD PTR [rsp+8], rcx
  00005	55		 push	 rbp
  00006	57		 push	 rdi
  00007	48 81 ec e8 01
	00 00		 sub	 rsp, 488		; 000001e8H
  0000e	48 8d 6c 24 30	 lea	 rbp, QWORD PTR [rsp+48]
  00013	48 8b fc	 mov	 rdi, rsp
  00016	b9 7a 00 00 00	 mov	 ecx, 122		; 0000007aH
  0001b	b8 cc cc cc cc	 mov	 eax, -858993460		; ccccccccH
  00020	f3 ab		 rep stosd
  00022	48 8b 8c 24 08
	02 00 00	 mov	 rcx, QWORD PTR [rsp+520]
  0002a	48 8b 05 00 00
	00 00		 mov	 rax, QWORD PTR __security_cookie
  00031	48 33 c5	 xor	 rax, rbp
  00034	48 89 85 a0 01
	00 00		 mov	 QWORD PTR __$ArrayPad$[rbp], rax
  0003b	48 8d 0d 00 00
	00 00		 lea	 rcx, OFFSET FLAT:__21FC1C84_fstream
  00042	e8 00 00 00 00	 call	 __CheckForDebuggerJustMyCode

; 721  :         if (!_Pcvt || !_Wrotesome) {

  00047	48 8b 85 d0 01
	00 00		 mov	 rax, QWORD PTR this$[rbp]
  0004e	48 83 78 68 00	 cmp	 QWORD PTR [rax+104], 0
  00053	74 0f		 je	 SHORT $LN5@Endwrite
  00055	48 8b 85 d0 01
	00 00		 mov	 rax, QWORD PTR this$[rbp]
  0005c	0f b6 40 71	 movzx	 eax, BYTE PTR [rax+113]
  00060	85 c0		 test	 eax, eax
  00062	75 07		 jne	 SHORT $LN4@Endwrite
$LN5@Endwrite:

; 722  :             return true;

  00064	b0 01		 mov	 al, 1
  00066	e9 5a 01 00 00	 jmp	 $LN1@Endwrite
$LN4@Endwrite:

; 723  :         }
; 724  : 
; 725  :         // may have to put
; 726  :         if (_Traits::eq_int_type(_Traits::eof(), overflow())) {

  0006b	e8 00 00 00 00	 call	 ?eof@?$_Narrow_char_traits@DH@std@@SAHXZ ; std::_Narrow_char_traits<char,int>::eof
  00070	48 8b 8d d0 01
	00 00		 mov	 rcx, QWORD PTR this$[rbp]
  00077	48 8b 09	 mov	 rcx, QWORD PTR [rcx]
  0007a	48 89 8d 98 01
	00 00		 mov	 QWORD PTR tv147[rbp], rcx
  00081	8b d0		 mov	 edx, eax
  00083	48 8b 8d d0 01
	00 00		 mov	 rcx, QWORD PTR this$[rbp]
  0008a	48 8b 85 98 01
	00 00		 mov	 rax, QWORD PTR tv147[rbp]
  00091	ff 50 18	 call	 QWORD PTR [rax+24]
  00094	89 85 64 01 00
	00		 mov	 DWORD PTR $T6[rbp], eax
  0009a	e8 00 00 00 00	 call	 ?eof@?$_Narrow_char_traits@DH@std@@SAHXZ ; std::_Narrow_char_traits<char,int>::eof
  0009f	89 85 84 01 00
	00		 mov	 DWORD PTR $T7[rbp], eax
  000a5	48 8d 95 64 01
	00 00		 lea	 rdx, QWORD PTR $T6[rbp]
  000ac	48 8d 8d 84 01
	00 00		 lea	 rcx, QWORD PTR $T7[rbp]
  000b3	e8 00 00 00 00	 call	 ?eq_int_type@?$_Narrow_char_traits@DH@std@@SA_NAEBH0@Z ; std::_Narrow_char_traits<char,int>::eq_int_type
  000b8	0f b6 c0	 movzx	 eax, al
  000bb	85 c0		 test	 eax, eax
  000bd	74 07		 je	 SHORT $LN6@Endwrite

; 727  :             return false;

  000bf	32 c0		 xor	 al, al
  000c1	e9 ff 00 00 00	 jmp	 $LN1@Endwrite
$LN6@Endwrite:

; 728  :         }
; 729  : 
; 730  :         constexpr size_t _Codecvt_temp_buf = 32;

  000c6	48 c7 45 08 20
	00 00 00	 mov	 QWORD PTR _Codecvt_temp_buf$[rbp], 32 ; 00000020H

; 731  :         char _Str[_Codecvt_temp_buf];
; 732  :         char* _Dest;
; 733  :         switch (_Pcvt->unshift(_State, _Str, _Str + _Codecvt_temp_buf, _Dest)) { // test result of homing conversion

  000ce	48 8d 45 48	 lea	 rax, QWORD PTR _Str$[rbp+32]
  000d2	48 8b 8d d0 01
	00 00		 mov	 rcx, QWORD PTR this$[rbp]
  000d9	48 83 c1 74	 add	 rcx, 116		; 00000074H
  000dd	48 8d 55 68	 lea	 rdx, QWORD PTR _Dest$[rbp]
  000e1	48 89 54 24 20	 mov	 QWORD PTR [rsp+32], rdx
  000e6	4c 8b c8	 mov	 r9, rax
  000e9	4c 8d 45 28	 lea	 r8, QWORD PTR _Str$[rbp]
  000ed	48 8b d1	 mov	 rdx, rcx
  000f0	48 8b 85 d0 01
	00 00		 mov	 rax, QWORD PTR this$[rbp]
  000f7	48 8b 48 68	 mov	 rcx, QWORD PTR [rax+104]
  000fb	ff 15 00 00 00
	00		 call	 QWORD PTR __imp_?unshift@?$codecvt@DDU_Mbstatet@@@std@@QEBAHAEAU_Mbstatet@@PEAD1AEAPEAD@Z
  00101	89 85 94 01 00
	00		 mov	 DWORD PTR tv94[rbp], eax
  00107	83 bd 94 01 00
	00 00		 cmp	 DWORD PTR tv94[rbp], 0
  0010e	74 1b		 je	 SHORT $LN7@Endwrite
  00110	83 bd 94 01 00
	00 01		 cmp	 DWORD PTR tv94[rbp], 1
  00117	74 1d		 je	 SHORT $LN8@Endwrite
  00119	83 bd 94 01 00
	00 03		 cmp	 DWORD PTR tv94[rbp], 3
  00120	0f 84 8e 00 00
	00		 je	 $LN10@Endwrite
  00126	e9 98 00 00 00	 jmp	 $LN11@Endwrite
$LN7@Endwrite:

; 734  :         case codecvt_base::ok:
; 735  :             _Wrotesome = false; // homed successfully

  0012b	48 8b 85 d0 01
	00 00		 mov	 rax, QWORD PTR this$[rbp]
  00132	c6 40 71 00	 mov	 BYTE PTR [rax+113], 0
$LN8@Endwrite:

; 736  : 
; 737  :         case codecvt_base::partial: // fall through
; 738  :         { // put any generated bytes
; 739  :             const auto _Count = static_cast<size_t>(_Dest - _Str);

  00136	48 8d 45 28	 lea	 rax, QWORD PTR _Str$[rbp]
  0013a	48 8b 4d 68	 mov	 rcx, QWORD PTR _Dest$[rbp]
  0013e	48 2b c8	 sub	 rcx, rax
  00141	48 8b c1	 mov	 rax, rcx
  00144	48 89 85 88 00
	00 00		 mov	 QWORD PTR _Count$5[rbp], rax

; 740  :             if (0 < _Count && _Count != static_cast<size_t>(_CSTD fwrite(_Str, 1, _Count, _Myfile))) {

  0014b	48 83 bd 88 00
	00 00 00	 cmp	 QWORD PTR _Count$5[rbp], 0
  00153	76 31		 jbe	 SHORT $LN9@Endwrite
  00155	48 8b 85 d0 01
	00 00		 mov	 rax, QWORD PTR this$[rbp]
  0015c	4c 8b 88 80 00
	00 00		 mov	 r9, QWORD PTR [rax+128]
  00163	4c 8b 85 88 00
	00 00		 mov	 r8, QWORD PTR _Count$5[rbp]
  0016a	ba 01 00 00 00	 mov	 edx, 1
  0016f	48 8d 4d 28	 lea	 rcx, QWORD PTR _Str$[rbp]
  00173	ff 15 00 00 00
	00		 call	 QWORD PTR __imp_fwrite
  00179	48 39 85 88 00
	00 00		 cmp	 QWORD PTR _Count$5[rbp], rax
  00180	74 04		 je	 SHORT $LN9@Endwrite

; 741  :                 return false; // write failed

  00182	32 c0		 xor	 al, al
  00184	eb 3f		 jmp	 SHORT $LN1@Endwrite
$LN9@Endwrite:

; 742  :             }
; 743  : 
; 744  :             return !_Wrotesome;

  00186	48 8b 85 d0 01
	00 00		 mov	 rax, QWORD PTR this$[rbp]
  0018d	0f b6 40 71	 movzx	 eax, BYTE PTR [rax+113]
  00191	85 c0		 test	 eax, eax
  00193	75 0c		 jne	 SHORT $LN13@Endwrite
  00195	c7 85 94 01 00
	00 01 00 00 00	 mov	 DWORD PTR tv140[rbp], 1
  0019f	eb 0a		 jmp	 SHORT $LN14@Endwrite
$LN13@Endwrite:
  001a1	c7 85 94 01 00
	00 00 00 00 00	 mov	 DWORD PTR tv140[rbp], 0
$LN14@Endwrite:
  001ab	0f b6 85 94 01
	00 00		 movzx	 eax, BYTE PTR tv140[rbp]
  001b2	eb 11		 jmp	 SHORT $LN1@Endwrite
$LN10@Endwrite:

; 745  :         }
; 746  : 
; 747  :         case codecvt_base::noconv:
; 748  :             _Wrotesome = false; // homed successfully

  001b4	48 8b 85 d0 01
	00 00		 mov	 rax, QWORD PTR this$[rbp]
  001bb	c6 40 71 00	 mov	 BYTE PTR [rax+113], 0

; 749  :             return true; // nothing else to do

  001bf	b0 01		 mov	 al, 1
  001c1	eb 02		 jmp	 SHORT $LN1@Endwrite
$LN11@Endwrite:

; 750  : 
; 751  :         default:
; 752  :             return false; // conversion failed

  001c3	32 c0		 xor	 al, al
$LN1@Endwrite:

; 753  :         }
; 754  :     }

  001c5	48 8b f8	 mov	 rdi, rax
  001c8	48 8d 4d d0	 lea	 rcx, QWORD PTR [rbp-48]
  001cc	48 8d 15 00 00
	00 00		 lea	 rdx, OFFSET FLAT:?_Endwrite@?$basic_filebuf@DU?$char_traits@D@std@@@std@@IEAA_NXZ$rtcFrameData
  001d3	e8 00 00 00 00	 call	 _RTC_CheckStackVars
  001d8	48 8b c7	 mov	 rax, rdi
  001db	48 8b 8d a0 01
	00 00		 mov	 rcx, QWORD PTR __$ArrayPad$[rbp]
  001e2	48 33 cd	 xor	 rcx, rbp
  001e5	e8 00 00 00 00	 call	 __security_check_cookie
  001ea	48 8d a5 b8 01
	00 00		 lea	 rsp, QWORD PTR [rbp+440]
  001f1	5f		 pop	 rdi
  001f2	5d		 pop	 rbp
  001f3	c3		 ret	 0
?_Endwrite@?$basic_filebuf@DU?$char_traits@D@std@@@std@@IEAA_NXZ ENDP ; std::basic_filebuf<char,std::char_traits<char> >::_Endwrite
_TEXT	ENDS
; Function compile flags: /Odtp /RTCsu /ZI
; File C:\Program Files (x86)\Microsoft Visual Studio\2019\Enterprise\VC\Tools\MSVC\14.27.29110\include\fstream
;	COMDAT ?_Init@?$basic_filebuf@DU?$char_traits@D@std@@@std@@IEAAXPEAU_iobuf@@W4_Initfl@12@@Z
_TEXT	SEGMENT
_Pb$6 = 8
_Pn$7 = 40
_Nr$8 = 72
_Nw$9 = 104
tv66 = 308
__$ArrayPad$ = 312
this$ = 352
_File$ = 360
_Which$ = 368
?_Init@?$basic_filebuf@DU?$char_traits@D@std@@@std@@IEAAXPEAU_iobuf@@W4_Initfl@12@@Z PROC ; std::basic_filebuf<char,std::char_traits<char> >::_Init, COMDAT

; 693  :     void _Init(FILE* _File, _Initfl _Which) { // initialize to C stream _File after {new, open, close}

$LN6:
  00000	44 89 44 24 18	 mov	 DWORD PTR [rsp+24], r8d
  00005	48 89 54 24 10	 mov	 QWORD PTR [rsp+16], rdx
  0000a	48 89 4c 24 08	 mov	 QWORD PTR [rsp+8], rcx
  0000f	55		 push	 rbp
  00010	57		 push	 rdi
  00011	48 81 ec 88 01
	00 00		 sub	 rsp, 392		; 00000188H
  00018	48 8d 6c 24 40	 lea	 rbp, QWORD PTR [rsp+64]
  0001d	48 8b fc	 mov	 rdi, rsp
  00020	b9 62 00 00 00	 mov	 ecx, 98			; 00000062H
  00025	b8 cc cc cc cc	 mov	 eax, -858993460		; ccccccccH
  0002a	f3 ab		 rep stosd
  0002c	48 8b 8c 24 a8
	01 00 00	 mov	 rcx, QWORD PTR [rsp+424]
  00034	48 8b 05 00 00
	00 00		 mov	 rax, QWORD PTR __security_cookie
  0003b	48 33 c5	 xor	 rax, rbp
  0003e	48 89 85 38 01
	00 00		 mov	 QWORD PTR __$ArrayPad$[rbp], rax
  00045	48 8d 0d 00 00
	00 00		 lea	 rcx, OFFSET FLAT:__21FC1C84_fstream
  0004c	e8 00 00 00 00	 call	 __CheckForDebuggerJustMyCode

; 694  :         using _State_type = typename _Traits::state_type;
; 695  : 
; 696  :         __PURE_APPDOMAIN_GLOBAL static _State_type _Stinit; // initial state
; 697  : 
; 698  :         _Closef    = _Which == _Openfl;

  00051	83 bd 70 01 00
	00 01		 cmp	 DWORD PTR _Which$[rbp], 1
  00058	75 0c		 jne	 SHORT $LN4@Init
  0005a	c7 85 34 01 00
	00 01 00 00 00	 mov	 DWORD PTR tv66[rbp], 1
  00064	eb 0a		 jmp	 SHORT $LN5@Init
$LN4@Init:
  00066	c7 85 34 01 00
	00 00 00 00 00	 mov	 DWORD PTR tv66[rbp], 0
$LN5@Init:
  00070	48 8b 85 60 01
	00 00		 mov	 rax, QWORD PTR this$[rbp]
  00077	0f b6 8d 34 01
	00 00		 movzx	 ecx, BYTE PTR tv66[rbp]
  0007e	88 48 7c	 mov	 BYTE PTR [rax+124], cl

; 699  :         _Wrotesome = false;

  00081	48 8b 85 60 01
	00 00		 mov	 rax, QWORD PTR this$[rbp]
  00088	c6 40 71 00	 mov	 BYTE PTR [rax+113], 0

; 700  : 
; 701  :         _Mysb::_Init(); // initialize stream buffer base object

  0008c	48 8b 8d 60 01
	00 00		 mov	 rcx, QWORD PTR this$[rbp]
  00093	ff 15 00 00 00
	00		 call	 QWORD PTR __imp_?_Init@?$basic_streambuf@DU?$char_traits@D@std@@@std@@IEAAXXZ

; 702  : 
; 703  :         if (_File && sizeof(_Elem) == 1) { // point inside C stream with [first, first + count) buffer

  00099	48 83 bd 68 01
	00 00 00	 cmp	 QWORD PTR _File$[rbp], 0
  000a1	74 74		 je	 SHORT $LN2@Init
  000a3	33 c0		 xor	 eax, eax
  000a5	83 f8 01	 cmp	 eax, 1
  000a8	74 6d		 je	 SHORT $LN2@Init

; 704  :             _Elem** _Pb = nullptr;

  000aa	48 c7 45 08 00
	00 00 00	 mov	 QWORD PTR _Pb$6[rbp], 0

; 705  :             _Elem** _Pn = nullptr;

  000b2	48 c7 45 28 00
	00 00 00	 mov	 QWORD PTR _Pn$7[rbp], 0

; 706  :             int* _Nr    = nullptr;

  000ba	48 c7 45 48 00
	00 00 00	 mov	 QWORD PTR _Nr$8[rbp], 0

; 707  : 
; 708  :             ::_get_stream_buffer_pointers(

  000c2	4c 8d 4d 48	 lea	 r9, QWORD PTR _Nr$8[rbp]
  000c6	4c 8d 45 28	 lea	 r8, QWORD PTR _Pn$7[rbp]
  000ca	48 8d 55 08	 lea	 rdx, QWORD PTR _Pb$6[rbp]
  000ce	48 8b 8d 68 01
	00 00		 mov	 rcx, QWORD PTR _File$[rbp]
  000d5	ff 15 00 00 00
	00		 call	 QWORD PTR __imp__get_stream_buffer_pointers

; 709  :                 _File, reinterpret_cast<char***>(&_Pb), reinterpret_cast<char***>(&_Pn), &_Nr);
; 710  :             int* _Nw = _Nr;

  000db	48 8b 45 48	 mov	 rax, QWORD PTR _Nr$8[rbp]
  000df	48 89 45 68	 mov	 QWORD PTR _Nw$9[rbp], rax

; 711  : 
; 712  :             _Mysb::_Init(_Pb, _Pn, _Nr, _Pb, _Pn, _Nw);

  000e3	48 8b 45 68	 mov	 rax, QWORD PTR _Nw$9[rbp]
  000e7	48 89 44 24 30	 mov	 QWORD PTR [rsp+48], rax
  000ec	48 8b 45 28	 mov	 rax, QWORD PTR _Pn$7[rbp]
  000f0	48 89 44 24 28	 mov	 QWORD PTR [rsp+40], rax
  000f5	48 8b 45 08	 mov	 rax, QWORD PTR _Pb$6[rbp]
  000f9	48 89 44 24 20	 mov	 QWORD PTR [rsp+32], rax
  000fe	4c 8b 4d 48	 mov	 r9, QWORD PTR _Nr$8[rbp]
  00102	4c 8b 45 28	 mov	 r8, QWORD PTR _Pn$7[rbp]
  00106	48 8b 55 08	 mov	 rdx, QWORD PTR _Pb$6[rbp]
  0010a	48 8b 8d 60 01
	00 00		 mov	 rcx, QWORD PTR this$[rbp]
  00111	ff 15 00 00 00
	00		 call	 QWORD PTR __imp_?_Init@?$basic_streambuf@DU?$char_traits@D@std@@@std@@IEAAXPEAPEAD0PEAH001@Z
$LN2@Init:

; 713  :         }
; 714  : 
; 715  :         _Myfile = _File;

  00117	48 8b 85 60 01
	00 00		 mov	 rax, QWORD PTR this$[rbp]
  0011e	48 8b 8d 68 01
	00 00		 mov	 rcx, QWORD PTR _File$[rbp]
  00125	48 89 88 80 00
	00 00		 mov	 QWORD PTR [rax+128], rcx

; 716  :         _State  = _Stinit;

  0012c	48 8b 85 60 01
	00 00		 mov	 rax, QWORD PTR this$[rbp]
  00133	48 8b 0d 00 00
	00 00		 mov	 rcx, QWORD PTR ?_Stinit@?1??_Init@?$basic_filebuf@DU?$char_traits@D@std@@@std@@IEAAXPEAU_iobuf@@W4_Initfl@23@@Z@4U_Mbstatet@@A ; `std::basic_filebuf<char,std::char_traits<char> >::_Init'::`2'::_Stinit
  0013a	48 89 48 74	 mov	 QWORD PTR [rax+116], rcx

; 717  :         _Pcvt   = nullptr; // pointer to codecvt facet

  0013e	48 8b 85 60 01
	00 00		 mov	 rax, QWORD PTR this$[rbp]
  00145	48 c7 40 68 00
	00 00 00	 mov	 QWORD PTR [rax+104], 0

; 718  :     }

  0014d	48 8d 4d c0	 lea	 rcx, QWORD PTR [rbp-64]
  00151	48 8d 15 00 00
	00 00		 lea	 rdx, OFFSET FLAT:?_Init@?$basic_filebuf@DU?$char_traits@D@std@@@std@@IEAAXPEAU_iobuf@@W4_Initfl@12@@Z$rtcFrameData
  00158	e8 00 00 00 00	 call	 _RTC_CheckStackVars
  0015d	48 8b 8d 38 01
	00 00		 mov	 rcx, QWORD PTR __$ArrayPad$[rbp]
  00164	48 33 cd	 xor	 rcx, rbp
  00167	e8 00 00 00 00	 call	 __security_check_cookie
  0016c	48 8d a5 48 01
	00 00		 lea	 rsp, QWORD PTR [rbp+328]
  00173	5f		 pop	 rdi
  00174	5d		 pop	 rbp
  00175	c3		 ret	 0
?_Init@?$basic_filebuf@DU?$char_traits@D@std@@@std@@IEAAXPEAU_iobuf@@W4_Initfl@12@@Z ENDP ; std::basic_filebuf<char,std::char_traits<char> >::_Init
_TEXT	ENDS
; Function compile flags: /Odtp /RTCsu /ZI
; File C:\Program Files (x86)\Microsoft Visual Studio\2019\Enterprise\VC\Tools\MSVC\14.27.29110\include\fstream
;	COMDAT ?imbue@?$basic_filebuf@DU?$char_traits@D@std@@@std@@MEAAXAEBVlocale@2@@Z
_TEXT	SEGMENT
this$ = 224
_Loc$ = 232
?imbue@?$basic_filebuf@DU?$char_traits@D@std@@@std@@MEAAXAEBVlocale@2@@Z PROC ; std::basic_filebuf<char,std::char_traits<char> >::imbue, COMDAT

; 688  :     virtual void __CLR_OR_THIS_CALL imbue(const locale& _Loc) override {

$LN3:
  00000	48 89 54 24 10	 mov	 QWORD PTR [rsp+16], rdx
  00005	48 89 4c 24 08	 mov	 QWORD PTR [rsp+8], rcx
  0000a	55		 push	 rbp
  0000b	57		 push	 rdi
  0000c	48 81 ec e8 00
	00 00		 sub	 rsp, 232		; 000000e8H
  00013	48 8d 6c 24 20	 lea	 rbp, QWORD PTR [rsp+32]
  00018	48 8b fc	 mov	 rdi, rsp
  0001b	b9 3a 00 00 00	 mov	 ecx, 58			; 0000003aH
  00020	b8 cc cc cc cc	 mov	 eax, -858993460		; ccccccccH
  00025	f3 ab		 rep stosd
  00027	48 8b 8c 24 08
	01 00 00	 mov	 rcx, QWORD PTR [rsp+264]
  0002f	48 8d 0d 00 00
	00 00		 lea	 rcx, OFFSET FLAT:__21FC1C84_fstream
  00036	e8 00 00 00 00	 call	 __CheckForDebuggerJustMyCode

; 689  :         // set locale to argument (capture nontrivial codecvt facet)
; 690  :         _Initcvt(_STD use_facet<_Cvt>(_Loc));

  0003b	48 8b 8d e8 00
	00 00		 mov	 rcx, QWORD PTR _Loc$[rbp]
  00042	e8 00 00 00 00	 call	 ??$use_facet@V?$codecvt@DDU_Mbstatet@@@std@@@std@@YAAEBV?$codecvt@DDU_Mbstatet@@@0@AEBVlocale@0@@Z ; std::use_facet<std::codecvt<char,char,_Mbstatet> >
  00047	48 8b d0	 mov	 rdx, rax
  0004a	48 8b 8d e0 00
	00 00		 mov	 rcx, QWORD PTR this$[rbp]
  00051	e8 00 00 00 00	 call	 ?_Initcvt@?$basic_filebuf@DU?$char_traits@D@std@@@std@@IEAAXAEBV?$codecvt@DDU_Mbstatet@@@2@@Z ; std::basic_filebuf<char,std::char_traits<char> >::_Initcvt

; 691  :     }

  00056	48 8d a5 c8 00
	00 00		 lea	 rsp, QWORD PTR [rbp+200]
  0005d	5f		 pop	 rdi
  0005e	5d		 pop	 rbp
  0005f	c3		 ret	 0
?imbue@?$basic_filebuf@DU?$char_traits@D@std@@@std@@MEAAXAEBVlocale@2@@Z ENDP ; std::basic_filebuf<char,std::char_traits<char> >::imbue
_TEXT	ENDS
; Function compile flags: /Odtp /RTCsu /ZI
; File C:\Program Files (x86)\Microsoft Visual Studio\2019\Enterprise\VC\Tools\MSVC\14.27.29110\include\fstream
;	COMDAT ?sync@?$basic_filebuf@DU?$char_traits@D@std@@@std@@MEAAHXZ
_TEXT	SEGMENT
$T1 = 196
$T2 = 228
tv87 = 248
this$ = 288
?sync@?$basic_filebuf@DU?$char_traits@D@std@@@std@@MEAAHXZ PROC ; std::basic_filebuf<char,std::char_traits<char> >::sync, COMDAT

; 680  :     virtual int __CLR_OR_THIS_CALL sync() override { // synchronize C stream with external file

$LN5:
  00000	48 89 4c 24 08	 mov	 QWORD PTR [rsp+8], rcx
  00005	55		 push	 rbp
  00006	57		 push	 rdi
  00007	48 81 ec 28 01
	00 00		 sub	 rsp, 296		; 00000128H
  0000e	48 8d 6c 24 20	 lea	 rbp, QWORD PTR [rsp+32]
  00013	48 8b fc	 mov	 rdi, rsp
  00016	b9 4a 00 00 00	 mov	 ecx, 74			; 0000004aH
  0001b	b8 cc cc cc cc	 mov	 eax, -858993460		; ccccccccH
  00020	f3 ab		 rep stosd
  00022	48 8b 8c 24 48
	01 00 00	 mov	 rcx, QWORD PTR [rsp+328]
  0002a	48 8d 0d 00 00
	00 00		 lea	 rcx, OFFSET FLAT:__21FC1C84_fstream
  00031	e8 00 00 00 00	 call	 __CheckForDebuggerJustMyCode

; 681  :         if (!_Myfile || _Traits::eq_int_type(_Traits::eof(), overflow()) || 0 <= _CSTD fflush(_Myfile)) {

  00036	48 8b 85 20 01
	00 00		 mov	 rax, QWORD PTR this$[rbp]
  0003d	48 83 b8 80 00
	00 00 00	 cmp	 QWORD PTR [rax+128], 0
  00045	74 6c		 je	 SHORT $LN3@sync
  00047	e8 00 00 00 00	 call	 ?eof@?$_Narrow_char_traits@DH@std@@SAHXZ ; std::_Narrow_char_traits<char,int>::eof
  0004c	48 8b 8d 20 01
	00 00		 mov	 rcx, QWORD PTR this$[rbp]
  00053	48 8b 09	 mov	 rcx, QWORD PTR [rcx]
  00056	48 89 8d f8 00
	00 00		 mov	 QWORD PTR tv87[rbp], rcx
  0005d	8b d0		 mov	 edx, eax
  0005f	48 8b 8d 20 01
	00 00		 mov	 rcx, QWORD PTR this$[rbp]
  00066	48 8b 85 f8 00
	00 00		 mov	 rax, QWORD PTR tv87[rbp]
  0006d	ff 50 18	 call	 QWORD PTR [rax+24]
  00070	89 85 c4 00 00
	00		 mov	 DWORD PTR $T1[rbp], eax
  00076	e8 00 00 00 00	 call	 ?eof@?$_Narrow_char_traits@DH@std@@SAHXZ ; std::_Narrow_char_traits<char,int>::eof
  0007b	89 85 e4 00 00
	00		 mov	 DWORD PTR $T2[rbp], eax
  00081	48 8d 95 c4 00
	00 00		 lea	 rdx, QWORD PTR $T1[rbp]
  00088	48 8d 8d e4 00
	00 00		 lea	 rcx, QWORD PTR $T2[rbp]
  0008f	e8 00 00 00 00	 call	 ?eq_int_type@?$_Narrow_char_traits@DH@std@@SA_NAEBH0@Z ; std::_Narrow_char_traits<char,int>::eq_int_type
  00094	0f b6 c0	 movzx	 eax, al
  00097	85 c0		 test	 eax, eax
  00099	75 18		 jne	 SHORT $LN3@sync
  0009b	48 8b 85 20 01
	00 00		 mov	 rax, QWORD PTR this$[rbp]
  000a2	48 8b 88 80 00
	00 00		 mov	 rcx, QWORD PTR [rax+128]
  000a9	ff 15 00 00 00
	00		 call	 QWORD PTR __imp_fflush
  000af	85 c0		 test	 eax, eax
  000b1	7c 04		 jl	 SHORT $LN2@sync
$LN3@sync:

; 682  :             return 0;

  000b3	33 c0		 xor	 eax, eax
  000b5	eb 05		 jmp	 SHORT $LN1@sync
$LN2@sync:

; 683  :         }
; 684  : 
; 685  :         return -1;

  000b7	b8 ff ff ff ff	 mov	 eax, -1
$LN1@sync:

; 686  :     }

  000bc	48 8d a5 08 01
	00 00		 lea	 rsp, QWORD PTR [rbp+264]
  000c3	5f		 pop	 rdi
  000c4	5d		 pop	 rbp
  000c5	c3		 ret	 0
?sync@?$basic_filebuf@DU?$char_traits@D@std@@@std@@MEAAHXZ ENDP ; std::basic_filebuf<char,std::char_traits<char> >::sync
_TEXT	ENDS
; Function compile flags: /Odtp /RTCsu /ZI
; File C:\Program Files (x86)\Microsoft Visual Studio\2019\Enterprise\VC\Tools\MSVC\14.27.29110\include\fstream
;	COMDAT ?setbuf@?$basic_filebuf@DU?$char_traits@D@std@@@std@@MEAAPEAV?$basic_streambuf@DU?$char_traits@D@std@@@2@PEAD_J@Z
_TEXT	SEGMENT
_Mode$ = 4
_Size$ = 40
this$ = 288
_Buffer$ = 296
_Count$ = 304
?setbuf@?$basic_filebuf@DU?$char_traits@D@std@@@std@@MEAAPEAV?$basic_streambuf@DU?$char_traits@D@std@@@2@PEAD_J@Z PROC ; std::basic_filebuf<char,std::char_traits<char> >::setbuf, COMDAT

; 661  :     virtual _Mysb* __CLR_OR_THIS_CALL setbuf(_Elem* _Buffer, streamsize _Count) override { // offer _Buffer to C stream

$LN7:
  00000	4c 89 44 24 18	 mov	 QWORD PTR [rsp+24], r8
  00005	48 89 54 24 10	 mov	 QWORD PTR [rsp+16], rdx
  0000a	48 89 4c 24 08	 mov	 QWORD PTR [rsp+8], rcx
  0000f	55		 push	 rbp
  00010	57		 push	 rdi
  00011	48 81 ec 28 01
	00 00		 sub	 rsp, 296		; 00000128H
  00018	48 8d 6c 24 20	 lea	 rbp, QWORD PTR [rsp+32]
  0001d	48 8b fc	 mov	 rdi, rsp
  00020	b9 4a 00 00 00	 mov	 ecx, 74			; 0000004aH
  00025	b8 cc cc cc cc	 mov	 eax, -858993460		; ccccccccH
  0002a	f3 ab		 rep stosd
  0002c	48 8b 8c 24 48
	01 00 00	 mov	 rcx, QWORD PTR [rsp+328]
  00034	48 8d 0d 00 00
	00 00		 lea	 rcx, OFFSET FLAT:__21FC1C84_fstream
  0003b	e8 00 00 00 00	 call	 __CheckForDebuggerJustMyCode

; 662  :         int _Mode;
; 663  :         if (!_Buffer && _Count == 0) {

  00040	48 83 bd 28 01
	00 00 00	 cmp	 QWORD PTR _Buffer$[rbp], 0
  00048	75 13		 jne	 SHORT $LN2@setbuf
  0004a	48 83 bd 30 01
	00 00 00	 cmp	 QWORD PTR _Count$[rbp], 0
  00052	75 09		 jne	 SHORT $LN2@setbuf

; 664  :             _Mode = _IONBF;

  00054	c7 45 04 04 00
	00 00		 mov	 DWORD PTR _Mode$[rbp], 4

; 665  :         } else {

  0005b	eb 07		 jmp	 SHORT $LN3@setbuf
$LN2@setbuf:

; 666  :             _Mode = _IOFBF;

  0005d	c7 45 04 00 00
	00 00		 mov	 DWORD PTR _Mode$[rbp], 0
$LN3@setbuf:

; 667  :         }
; 668  : 
; 669  :         const size_t _Size = static_cast<size_t>(_Count) * sizeof(_Elem);

  00064	48 8b 85 30 01
	00 00		 mov	 rax, QWORD PTR _Count$[rbp]
  0006b	48 89 45 28	 mov	 QWORD PTR _Size$[rbp], rax

; 670  : 
; 671  :         if (!_Myfile || _CSTD setvbuf(_Myfile, reinterpret_cast<char*>(_Buffer), _Mode, _Size) != 0) {

  0006f	48 8b 85 20 01
	00 00		 mov	 rax, QWORD PTR this$[rbp]
  00076	48 83 b8 80 00
	00 00 00	 cmp	 QWORD PTR [rax+128], 0
  0007e	74 27		 je	 SHORT $LN5@setbuf
  00080	4c 8b 4d 28	 mov	 r9, QWORD PTR _Size$[rbp]
  00084	44 8b 45 04	 mov	 r8d, DWORD PTR _Mode$[rbp]
  00088	48 8b 95 28 01
	00 00		 mov	 rdx, QWORD PTR _Buffer$[rbp]
  0008f	48 8b 85 20 01
	00 00		 mov	 rax, QWORD PTR this$[rbp]
  00096	48 8b 88 80 00
	00 00		 mov	 rcx, QWORD PTR [rax+128]
  0009d	ff 15 00 00 00
	00		 call	 QWORD PTR __imp_setvbuf
  000a3	85 c0		 test	 eax, eax
  000a5	74 04		 je	 SHORT $LN4@setbuf
$LN5@setbuf:

; 672  :             return nullptr; // failed

  000a7	33 c0		 xor	 eax, eax
  000a9	eb 27		 jmp	 SHORT $LN1@setbuf
$LN4@setbuf:

; 673  :         }
; 674  : 
; 675  :         // new buffer, reinitialize pointers
; 676  :         _Init(_Myfile, _Openfl);

  000ab	41 b8 01 00 00
	00		 mov	 r8d, 1
  000b1	48 8b 85 20 01
	00 00		 mov	 rax, QWORD PTR this$[rbp]
  000b8	48 8b 90 80 00
	00 00		 mov	 rdx, QWORD PTR [rax+128]
  000bf	48 8b 8d 20 01
	00 00		 mov	 rcx, QWORD PTR this$[rbp]
  000c6	e8 00 00 00 00	 call	 ?_Init@?$basic_filebuf@DU?$char_traits@D@std@@@std@@IEAAXPEAU_iobuf@@W4_Initfl@12@@Z ; std::basic_filebuf<char,std::char_traits<char> >::_Init

; 677  :         return this;

  000cb	48 8b 85 20 01
	00 00		 mov	 rax, QWORD PTR this$[rbp]
$LN1@setbuf:

; 678  :     }

  000d2	48 8d a5 08 01
	00 00		 lea	 rsp, QWORD PTR [rbp+264]
  000d9	5f		 pop	 rdi
  000da	5d		 pop	 rbp
  000db	c3		 ret	 0
?setbuf@?$basic_filebuf@DU?$char_traits@D@std@@@std@@MEAAPEAV?$basic_streambuf@DU?$char_traits@D@std@@@2@PEAD_J@Z ENDP ; std::basic_filebuf<char,std::char_traits<char> >::setbuf
_TEXT	ENDS
; Function compile flags: /Odtp /RTCsu /ZI
; File C:\Program Files (x86)\Microsoft Visual Studio\2019\Enterprise\VC\Tools\MSVC\14.27.29110\include\fstream
;	COMDAT ?seekpos@?$basic_filebuf@DU?$char_traits@D@std@@@std@@MEAA?AV?$fpos@U_Mbstatet@@@2@V32@H@Z
_TEXT	SEGMENT
_Off$ = 8
$T4 = 228
__$ArrayPad$ = 248
this$ = 288
__$ReturnUdt$ = 296
_Pos$ = 304
__formal$ = 312
?seekpos@?$basic_filebuf@DU?$char_traits@D@std@@@std@@MEAA?AV?$fpos@U_Mbstatet@@@2@V32@H@Z PROC ; std::basic_filebuf<char,std::char_traits<char> >::seekpos, COMDAT

; 648  :         pos_type _Pos, ios_base::openmode = ios_base::in | ios_base::out) override {

$LN5:
  00000	44 89 4c 24 20	 mov	 DWORD PTR [rsp+32], r9d
  00005	4c 89 44 24 18	 mov	 QWORD PTR [rsp+24], r8
  0000a	48 89 54 24 10	 mov	 QWORD PTR [rsp+16], rdx
  0000f	48 89 4c 24 08	 mov	 QWORD PTR [rsp+8], rcx
  00014	55		 push	 rbp
  00015	57		 push	 rdi
  00016	48 81 ec 28 01
	00 00		 sub	 rsp, 296		; 00000128H
  0001d	48 8d 6c 24 20	 lea	 rbp, QWORD PTR [rsp+32]
  00022	48 8b fc	 mov	 rdi, rsp
  00025	b9 4a 00 00 00	 mov	 ecx, 74			; 0000004aH
  0002a	b8 cc cc cc cc	 mov	 eax, -858993460		; ccccccccH
  0002f	f3 ab		 rep stosd
  00031	48 8b 8c 24 48
	01 00 00	 mov	 rcx, QWORD PTR [rsp+328]
  00039	48 8b 05 00 00
	00 00		 mov	 rax, QWORD PTR __security_cookie
  00040	48 33 c5	 xor	 rax, rbp
  00043	48 89 85 f8 00
	00 00		 mov	 QWORD PTR __$ArrayPad$[rbp], rax
  0004a	48 8d 0d 00 00
	00 00		 lea	 rcx, OFFSET FLAT:__21FC1C84_fstream
  00051	e8 00 00 00 00	 call	 __CheckForDebuggerJustMyCode

; 649  :         // change position to _Pos
; 650  :         off_type _Off = static_cast<off_type>(_Pos);

  00056	48 8b 8d 30 01
	00 00		 mov	 rcx, QWORD PTR _Pos$[rbp]
  0005d	e8 00 00 00 00	 call	 ??B?$fpos@U_Mbstatet@@@std@@QEBA_JXZ ; std::fpos<_Mbstatet>::operator __int64
  00062	48 89 45 08	 mov	 QWORD PTR _Off$[rbp], rax

; 651  : 
; 652  :         if (!_Myfile || !_Endwrite() || _CSTD fsetpos(_Myfile, &_Off) != 0) {

  00066	48 8b 85 20 01
	00 00		 mov	 rax, QWORD PTR this$[rbp]
  0006d	48 83 b8 80 00
	00 00 00	 cmp	 QWORD PTR [rax+128], 0
  00075	74 2f		 je	 SHORT $LN3@seekpos
  00077	48 8b 8d 20 01
	00 00		 mov	 rcx, QWORD PTR this$[rbp]
  0007e	e8 00 00 00 00	 call	 ?_Endwrite@?$basic_filebuf@DU?$char_traits@D@std@@@std@@IEAA_NXZ ; std::basic_filebuf<char,std::char_traits<char> >::_Endwrite
  00083	0f b6 c0	 movzx	 eax, al
  00086	85 c0		 test	 eax, eax
  00088	74 1c		 je	 SHORT $LN3@seekpos
  0008a	48 8d 55 08	 lea	 rdx, QWORD PTR _Off$[rbp]
  0008e	48 8b 85 20 01
	00 00		 mov	 rax, QWORD PTR this$[rbp]
  00095	48 8b 88 80 00
	00 00		 mov	 rcx, QWORD PTR [rax+128]
  0009c	ff 15 00 00 00
	00		 call	 QWORD PTR __imp_fsetpos
  000a2	85 c0		 test	 eax, eax
  000a4	74 1c		 je	 SHORT $LN2@seekpos
$LN3@seekpos:

; 653  :             return pos_type(-1); // report failure

  000a6	48 c7 c2 ff ff
	ff ff		 mov	 rdx, -1
  000ad	48 8b 8d 28 01
	00 00		 mov	 rcx, QWORD PTR __$ReturnUdt$[rbp]
  000b4	e8 00 00 00 00	 call	 ??0?$fpos@U_Mbstatet@@@std@@QEAA@_J@Z ; std::fpos<_Mbstatet>::fpos<_Mbstatet>
  000b9	48 8b 85 28 01
	00 00		 mov	 rax, QWORD PTR __$ReturnUdt$[rbp]
  000c0	eb 4f		 jmp	 SHORT $LN1@seekpos
$LN2@seekpos:

; 654  :         }
; 655  : 
; 656  :         _State = _Pos.state();

  000c2	48 8d 95 e4 00
	00 00		 lea	 rdx, QWORD PTR $T4[rbp]
  000c9	48 8b 8d 30 01
	00 00		 mov	 rcx, QWORD PTR _Pos$[rbp]
  000d0	e8 00 00 00 00	 call	 ?state@?$fpos@U_Mbstatet@@@std@@QEBA?AU_Mbstatet@@XZ ; std::fpos<_Mbstatet>::state
  000d5	48 8b 00	 mov	 rax, QWORD PTR [rax]
  000d8	48 8b 8d 20 01
	00 00		 mov	 rcx, QWORD PTR this$[rbp]
  000df	48 89 41 74	 mov	 QWORD PTR [rcx+116], rax

; 657  :         _Reset_back(); // revert from _Mychar buffer, discarding any putback

  000e3	48 8b 8d 20 01
	00 00		 mov	 rcx, QWORD PTR this$[rbp]
  000ea	e8 00 00 00 00	 call	 ?_Reset_back@?$basic_filebuf@DU?$char_traits@D@std@@@std@@AEAAXXZ ; std::basic_filebuf<char,std::char_traits<char> >::_Reset_back

; 658  :         return pos_type(_State, _Off); // return new position

  000ef	4c 8b 45 08	 mov	 r8, QWORD PTR _Off$[rbp]
  000f3	48 8b 85 20 01
	00 00		 mov	 rax, QWORD PTR this$[rbp]
  000fa	48 8b 50 74	 mov	 rdx, QWORD PTR [rax+116]
  000fe	48 8b 8d 28 01
	00 00		 mov	 rcx, QWORD PTR __$ReturnUdt$[rbp]
  00105	e8 00 00 00 00	 call	 ??0?$fpos@U_Mbstatet@@@std@@QEAA@U_Mbstatet@@_J@Z ; std::fpos<_Mbstatet>::fpos<_Mbstatet>
  0010a	48 8b 85 28 01
	00 00		 mov	 rax, QWORD PTR __$ReturnUdt$[rbp]
$LN1@seekpos:

; 659  :     }

  00111	48 8b f8	 mov	 rdi, rax
  00114	48 8d 4d e0	 lea	 rcx, QWORD PTR [rbp-32]
  00118	48 8d 15 00 00
	00 00		 lea	 rdx, OFFSET FLAT:?seekpos@?$basic_filebuf@DU?$char_traits@D@std@@@std@@MEAA?AV?$fpos@U_Mbstatet@@@2@V32@H@Z$rtcFrameData
  0011f	e8 00 00 00 00	 call	 _RTC_CheckStackVars
  00124	48 8b c7	 mov	 rax, rdi
  00127	48 8b 8d f8 00
	00 00		 mov	 rcx, QWORD PTR __$ArrayPad$[rbp]
  0012e	48 33 cd	 xor	 rcx, rbp
  00131	e8 00 00 00 00	 call	 __security_check_cookie
  00136	48 8d a5 08 01
	00 00		 lea	 rsp, QWORD PTR [rbp+264]
  0013d	5f		 pop	 rdi
  0013e	5d		 pop	 rbp
  0013f	c3		 ret	 0
?seekpos@?$basic_filebuf@DU?$char_traits@D@std@@@std@@MEAA?AV?$fpos@U_Mbstatet@@@2@V32@H@Z ENDP ; std::basic_filebuf<char,std::char_traits<char> >::seekpos
_TEXT	ENDS
; Function compile flags: /Odtp /RTCsu /ZI
; File C:\Program Files (x86)\Microsoft Visual Studio\2019\Enterprise\VC\Tools\MSVC\14.27.29110\include\fstream
;	COMDAT ?seekoff@?$basic_filebuf@DU?$char_traits@D@std@@@std@@MEAA?AV?$fpos@U_Mbstatet@@@2@_JHH@Z
_TEXT	SEGMENT
_Fileposition$ = 8
__$ArrayPad$ = 216
this$ = 256
__$ReturnUdt$ = 264
_Off$ = 272
_Way$ = 280
__formal$ = 288
?seekoff@?$basic_filebuf@DU?$char_traits@D@std@@@std@@MEAA?AV?$fpos@U_Mbstatet@@@2@_JHH@Z PROC ; std::basic_filebuf<char,std::char_traits<char> >::seekoff, COMDAT

; 628  :         ios_base::openmode = ios_base::in | ios_base::out) override { // change position by _Off

$LN8:
  00000	44 89 4c 24 20	 mov	 DWORD PTR [rsp+32], r9d
  00005	4c 89 44 24 18	 mov	 QWORD PTR [rsp+24], r8
  0000a	48 89 54 24 10	 mov	 QWORD PTR [rsp+16], rdx
  0000f	48 89 4c 24 08	 mov	 QWORD PTR [rsp+8], rcx
  00014	55		 push	 rbp
  00015	57		 push	 rdi
  00016	48 81 ec 08 01
	00 00		 sub	 rsp, 264		; 00000108H
  0001d	48 8d 6c 24 20	 lea	 rbp, QWORD PTR [rsp+32]
  00022	48 8b fc	 mov	 rdi, rsp
  00025	b9 42 00 00 00	 mov	 ecx, 66			; 00000042H
  0002a	b8 cc cc cc cc	 mov	 eax, -858993460		; ccccccccH
  0002f	f3 ab		 rep stosd
  00031	48 8b 8c 24 28
	01 00 00	 mov	 rcx, QWORD PTR [rsp+296]
  00039	48 8b 05 00 00
	00 00		 mov	 rax, QWORD PTR __security_cookie
  00040	48 33 c5	 xor	 rax, rbp
  00043	48 89 85 d8 00
	00 00		 mov	 QWORD PTR __$ArrayPad$[rbp], rax
  0004a	48 8d 0d 00 00
	00 00		 lea	 rcx, OFFSET FLAT:__21FC1C84_fstream
  00051	e8 00 00 00 00	 call	 __CheckForDebuggerJustMyCode

; 629  :         fpos_t _Fileposition;
; 630  : 
; 631  :         if (_Mysb::gptr() == &_Mychar // something putback
; 632  :             && _Way == ios_base::cur // a relative seek
; 633  :             && !_Pcvt) { // not converting

  00056	48 8b 8d 00 01
	00 00		 mov	 rcx, QWORD PTR this$[rbp]
  0005d	ff 15 00 00 00
	00		 call	 QWORD PTR __imp_?gptr@?$basic_streambuf@DU?$char_traits@D@std@@@std@@IEBAPEADXZ
  00063	48 8b 8d 00 01
	00 00		 mov	 rcx, QWORD PTR this$[rbp]
  0006a	48 83 c1 70	 add	 rcx, 112		; 00000070H
  0006e	48 3b c1	 cmp	 rax, rcx
  00071	75 28		 jne	 SHORT $LN2@seekoff
  00073	83 bd 18 01 00
	00 01		 cmp	 DWORD PTR _Way$[rbp], 1
  0007a	75 1f		 jne	 SHORT $LN2@seekoff
  0007c	48 8b 85 00 01
	00 00		 mov	 rax, QWORD PTR this$[rbp]
  00083	48 83 78 68 00	 cmp	 QWORD PTR [rax+104], 0
  00088	75 11		 jne	 SHORT $LN2@seekoff

; 634  :             _Off -= static_cast<off_type>(sizeof(_Elem)); // back up over _Elem bytes

  0008a	48 8b 85 10 01
	00 00		 mov	 rax, QWORD PTR _Off$[rbp]
  00091	48 ff c8	 dec	 rax
  00094	48 89 85 10 01
	00 00		 mov	 QWORD PTR _Off$[rbp], rax
$LN2@seekoff:

; 635  :         }
; 636  : 
; 637  :         if (!_Myfile || !_Endwrite()
; 638  :             || ((_Off != 0 || _Way != ios_base::cur) && _CSTD _fseeki64(_Myfile, _Off, _Way) != 0)
; 639  :             || _CSTD fgetpos(_Myfile, &_Fileposition) != 0) {

  0009b	48 8b 85 00 01
	00 00		 mov	 rax, QWORD PTR this$[rbp]
  000a2	48 83 b8 80 00
	00 00 00	 cmp	 QWORD PTR [rax+128], 0
  000aa	74 68		 je	 SHORT $LN4@seekoff
  000ac	48 8b 8d 00 01
	00 00		 mov	 rcx, QWORD PTR this$[rbp]
  000b3	e8 00 00 00 00	 call	 ?_Endwrite@?$basic_filebuf@DU?$char_traits@D@std@@@std@@IEAA_NXZ ; std::basic_filebuf<char,std::char_traits<char> >::_Endwrite
  000b8	0f b6 c0	 movzx	 eax, al
  000bb	85 c0		 test	 eax, eax
  000bd	74 55		 je	 SHORT $LN4@seekoff
  000bf	48 83 bd 10 01
	00 00 00	 cmp	 QWORD PTR _Off$[rbp], 0
  000c7	75 09		 jne	 SHORT $LN6@seekoff
  000c9	83 bd 18 01 00
	00 01		 cmp	 DWORD PTR _Way$[rbp], 1
  000d0	74 26		 je	 SHORT $LN5@seekoff
$LN6@seekoff:
  000d2	44 8b 85 18 01
	00 00		 mov	 r8d, DWORD PTR _Way$[rbp]
  000d9	48 8b 95 10 01
	00 00		 mov	 rdx, QWORD PTR _Off$[rbp]
  000e0	48 8b 85 00 01
	00 00		 mov	 rax, QWORD PTR this$[rbp]
  000e7	48 8b 88 80 00
	00 00		 mov	 rcx, QWORD PTR [rax+128]
  000ee	ff 15 00 00 00
	00		 call	 QWORD PTR __imp__fseeki64
  000f4	85 c0		 test	 eax, eax
  000f6	75 1c		 jne	 SHORT $LN4@seekoff
$LN5@seekoff:
  000f8	48 8d 55 08	 lea	 rdx, QWORD PTR _Fileposition$[rbp]
  000fc	48 8b 85 00 01
	00 00		 mov	 rax, QWORD PTR this$[rbp]
  00103	48 8b 88 80 00
	00 00		 mov	 rcx, QWORD PTR [rax+128]
  0010a	ff 15 00 00 00
	00		 call	 QWORD PTR __imp_fgetpos
  00110	85 c0		 test	 eax, eax
  00112	74 1c		 je	 SHORT $LN3@seekoff
$LN4@seekoff:

; 640  :             return pos_type(-1); // report failure

  00114	48 c7 c2 ff ff
	ff ff		 mov	 rdx, -1
  0011b	48 8b 8d 08 01
	00 00		 mov	 rcx, QWORD PTR __$ReturnUdt$[rbp]
  00122	e8 00 00 00 00	 call	 ??0?$fpos@U_Mbstatet@@@std@@QEAA@_J@Z ; std::fpos<_Mbstatet>::fpos<_Mbstatet>
  00127	48 8b 85 08 01
	00 00		 mov	 rax, QWORD PTR __$ReturnUdt$[rbp]
  0012e	eb 2e		 jmp	 SHORT $LN1@seekoff
$LN3@seekoff:

; 641  :         }
; 642  : 
; 643  :         _Reset_back(); // revert from _Mychar buffer, discarding any putback

  00130	48 8b 8d 00 01
	00 00		 mov	 rcx, QWORD PTR this$[rbp]
  00137	e8 00 00 00 00	 call	 ?_Reset_back@?$basic_filebuf@DU?$char_traits@D@std@@@std@@AEAAXXZ ; std::basic_filebuf<char,std::char_traits<char> >::_Reset_back

; 644  :         return pos_type(_State, _Fileposition); // return new position

  0013c	4c 8b 45 08	 mov	 r8, QWORD PTR _Fileposition$[rbp]
  00140	48 8b 85 00 01
	00 00		 mov	 rax, QWORD PTR this$[rbp]
  00147	48 8b 50 74	 mov	 rdx, QWORD PTR [rax+116]
  0014b	48 8b 8d 08 01
	00 00		 mov	 rcx, QWORD PTR __$ReturnUdt$[rbp]
  00152	e8 00 00 00 00	 call	 ??0?$fpos@U_Mbstatet@@@std@@QEAA@U_Mbstatet@@_J@Z ; std::fpos<_Mbstatet>::fpos<_Mbstatet>
  00157	48 8b 85 08 01
	00 00		 mov	 rax, QWORD PTR __$ReturnUdt$[rbp]
$LN1@seekoff:

; 645  :     }

  0015e	48 8b f8	 mov	 rdi, rax
  00161	48 8d 4d e0	 lea	 rcx, QWORD PTR [rbp-32]
  00165	48 8d 15 00 00
	00 00		 lea	 rdx, OFFSET FLAT:?seekoff@?$basic_filebuf@DU?$char_traits@D@std@@@std@@MEAA?AV?$fpos@U_Mbstatet@@@2@_JHH@Z$rtcFrameData
  0016c	e8 00 00 00 00	 call	 _RTC_CheckStackVars
  00171	48 8b c7	 mov	 rax, rdi
  00174	48 8b 8d d8 00
	00 00		 mov	 rcx, QWORD PTR __$ArrayPad$[rbp]
  0017b	48 33 cd	 xor	 rcx, rbp
  0017e	e8 00 00 00 00	 call	 __security_check_cookie
  00183	48 8d a5 e8 00
	00 00		 lea	 rsp, QWORD PTR [rbp+232]
  0018a	5f		 pop	 rdi
  0018b	5d		 pop	 rbp
  0018c	c3		 ret	 0
?seekoff@?$basic_filebuf@DU?$char_traits@D@std@@@std@@MEAA?AV?$fpos@U_Mbstatet@@@2@_JHH@Z ENDP ; std::basic_filebuf<char,std::char_traits<char> >::seekoff
_TEXT	ENDS
; Function compile flags: /Odtp /RTCsu /ZI
; File C:\Program Files (x86)\Microsoft Visual Studio\2019\Enterprise\VC\Tools\MSVC\14.27.29110\include\fstream
;	COMDAT ?xsputn@?$basic_filebuf@DU?$char_traits@D@std@@@std@@MEAA_JPEBD_J@Z
_TEXT	SEGMENT
_Start_count$1 = 8
_Size$2 = 40
this$ = 288
_Ptr$ = 296
_Count$ = 304
?xsputn@?$basic_filebuf@DU?$char_traits@D@std@@@std@@MEAA_JPEBD_J@Z PROC ; std::basic_filebuf<char,std::char_traits<char> >::xsputn, COMDAT

; 596  :     virtual streamsize __CLR_OR_THIS_CALL xsputn(const _Elem* _Ptr, streamsize _Count) override {

$LN7:
  00000	4c 89 44 24 18	 mov	 QWORD PTR [rsp+24], r8
  00005	48 89 54 24 10	 mov	 QWORD PTR [rsp+16], rdx
  0000a	48 89 4c 24 08	 mov	 QWORD PTR [rsp+8], rcx
  0000f	55		 push	 rbp
  00010	57		 push	 rdi
  00011	48 81 ec 28 01
	00 00		 sub	 rsp, 296		; 00000128H
  00018	48 8d 6c 24 20	 lea	 rbp, QWORD PTR [rsp+32]
  0001d	48 8b fc	 mov	 rdi, rsp
  00020	b9 4a 00 00 00	 mov	 ecx, 74			; 0000004aH
  00025	b8 cc cc cc cc	 mov	 eax, -858993460		; ccccccccH
  0002a	f3 ab		 rep stosd
  0002c	48 8b 8c 24 48
	01 00 00	 mov	 rcx, QWORD PTR [rsp+328]
  00034	48 8d 0d 00 00
	00 00		 lea	 rcx, OFFSET FLAT:__21FC1C84_fstream
  0003b	e8 00 00 00 00	 call	 __CheckForDebuggerJustMyCode

; 597  :         // put _Count characters to stream
; 598  :         if _CONSTEXPR_IF (sizeof(_Elem) == 1) {
; 599  :             if (_Pcvt) { // if we need a nontrivial codecvt transform, do the default expensive thing

  00040	48 8b 85 20 01
	00 00		 mov	 rax, QWORD PTR this$[rbp]
  00047	48 83 78 68 00	 cmp	 QWORD PTR [rax+104], 0
  0004c	74 20		 je	 SHORT $LN2@xsputn

; 600  :                 return _Mysb::xsputn(_Ptr, _Count);

  0004e	4c 8b 85 30 01
	00 00		 mov	 r8, QWORD PTR _Count$[rbp]
  00055	48 8b 95 28 01
	00 00		 mov	 rdx, QWORD PTR _Ptr$[rbp]
  0005c	48 8b 8d 20 01
	00 00		 mov	 rcx, QWORD PTR this$[rbp]
  00063	ff 15 00 00 00
	00		 call	 QWORD PTR __imp_?xsputn@?$basic_streambuf@DU?$char_traits@D@std@@@std@@MEAA_JPEBD_J@Z
  00069	e9 0c 01 00 00	 jmp	 $LN1@xsputn
$LN2@xsputn:

; 601  :             }
; 602  : 
; 603  :             const streamsize _Start_count = _Count;

  0006e	48 8b 85 30 01
	00 00		 mov	 rax, QWORD PTR _Count$[rbp]
  00075	48 89 45 08	 mov	 QWORD PTR _Start_count$1[rbp], rax

; 604  :             streamsize _Size              = _Mysb::_Pnavail();

  00079	48 8b 8d 20 01
	00 00		 mov	 rcx, QWORD PTR this$[rbp]
  00080	ff 15 00 00 00
	00		 call	 QWORD PTR __imp_?_Pnavail@?$basic_streambuf@DU?$char_traits@D@std@@@std@@IEBA_JXZ
  00086	48 89 45 28	 mov	 QWORD PTR _Size$2[rbp], rax

; 605  :             if (0 < _Count && 0 < _Size) { // copy to write buffer

  0008a	48 83 bd 30 01
	00 00 00	 cmp	 QWORD PTR _Count$[rbp], 0
  00092	7e 7f		 jle	 SHORT $LN3@xsputn
  00094	48 83 7d 28 00	 cmp	 QWORD PTR _Size$2[rbp], 0
  00099	7e 78		 jle	 SHORT $LN3@xsputn

; 606  :                 if (_Count < _Size) {

  0009b	48 8b 45 28	 mov	 rax, QWORD PTR _Size$2[rbp]
  0009f	48 39 85 30 01
	00 00		 cmp	 QWORD PTR _Count$[rbp], rax
  000a6	7d 0b		 jge	 SHORT $LN4@xsputn

; 607  :                     _Size = _Count;

  000a8	48 8b 85 30 01
	00 00		 mov	 rax, QWORD PTR _Count$[rbp]
  000af	48 89 45 28	 mov	 QWORD PTR _Size$2[rbp], rax
$LN4@xsputn:

; 608  :                 }
; 609  : 
; 610  :                 _Traits::copy(_Mysb::pptr(), _Ptr, static_cast<size_t>(_Size));

  000b3	48 8b 8d 20 01
	00 00		 mov	 rcx, QWORD PTR this$[rbp]
  000ba	ff 15 00 00 00
	00		 call	 QWORD PTR __imp_?pptr@?$basic_streambuf@DU?$char_traits@D@std@@@std@@IEBAPEADXZ
  000c0	4c 8b 45 28	 mov	 r8, QWORD PTR _Size$2[rbp]
  000c4	48 8b 95 28 01
	00 00		 mov	 rdx, QWORD PTR _Ptr$[rbp]
  000cb	48 8b c8	 mov	 rcx, rax
  000ce	e8 00 00 00 00	 call	 ?copy@?$_Narrow_char_traits@DH@std@@SAPEADQEADQEBD_K@Z ; std::_Narrow_char_traits<char,int>::copy

; 611  :                 _Ptr += _Size;

  000d3	48 8b 45 28	 mov	 rax, QWORD PTR _Size$2[rbp]
  000d7	48 8b 8d 28 01
	00 00		 mov	 rcx, QWORD PTR _Ptr$[rbp]
  000de	48 03 c8	 add	 rcx, rax
  000e1	48 8b c1	 mov	 rax, rcx
  000e4	48 89 85 28 01
	00 00		 mov	 QWORD PTR _Ptr$[rbp], rax

; 612  :                 _Count -= _Size;

  000eb	48 8b 45 28	 mov	 rax, QWORD PTR _Size$2[rbp]
  000ef	48 8b 8d 30 01
	00 00		 mov	 rcx, QWORD PTR _Count$[rbp]
  000f6	48 2b c8	 sub	 rcx, rax
  000f9	48 8b c1	 mov	 rax, rcx
  000fc	48 89 85 30 01
	00 00		 mov	 QWORD PTR _Count$[rbp], rax

; 613  :                 _Mysb::pbump(static_cast<int>(_Size));

  00103	8b 55 28	 mov	 edx, DWORD PTR _Size$2[rbp]
  00106	48 8b 8d 20 01
	00 00		 mov	 rcx, QWORD PTR this$[rbp]
  0010d	ff 15 00 00 00
	00		 call	 QWORD PTR __imp_?pbump@?$basic_streambuf@DU?$char_traits@D@std@@@std@@IEAAXH@Z
$LN3@xsputn:

; 614  :             }
; 615  : 
; 616  :             if (0 < _Count && _Myfile) { // open C stream, attempt write

  00113	48 83 bd 30 01
	00 00 00	 cmp	 QWORD PTR _Count$[rbp], 0
  0011b	7e 4c		 jle	 SHORT $LN5@xsputn
  0011d	48 8b 85 20 01
	00 00		 mov	 rax, QWORD PTR this$[rbp]
  00124	48 83 b8 80 00
	00 00 00	 cmp	 QWORD PTR [rax+128], 0
  0012c	74 3b		 je	 SHORT $LN5@xsputn

; 617  :                 _Count -= _CSTD fwrite(_Ptr, sizeof(_Elem), static_cast<size_t>(_Count), _Myfile);

  0012e	48 8b 85 20 01
	00 00		 mov	 rax, QWORD PTR this$[rbp]
  00135	4c 8b 88 80 00
	00 00		 mov	 r9, QWORD PTR [rax+128]
  0013c	4c 8b 85 30 01
	00 00		 mov	 r8, QWORD PTR _Count$[rbp]
  00143	ba 01 00 00 00	 mov	 edx, 1
  00148	48 8b 8d 28 01
	00 00		 mov	 rcx, QWORD PTR _Ptr$[rbp]
  0014f	ff 15 00 00 00
	00		 call	 QWORD PTR __imp_fwrite
  00155	48 8b 8d 30 01
	00 00		 mov	 rcx, QWORD PTR _Count$[rbp]
  0015c	48 2b c8	 sub	 rcx, rax
  0015f	48 8b c1	 mov	 rax, rcx
  00162	48 89 85 30 01
	00 00		 mov	 QWORD PTR _Count$[rbp], rax
$LN5@xsputn:

; 618  :             }
; 619  : 
; 620  :             return _Start_count - _Count;

  00169	48 8b 85 30 01
	00 00		 mov	 rax, QWORD PTR _Count$[rbp]
  00170	48 8b 4d 08	 mov	 rcx, QWORD PTR _Start_count$1[rbp]
  00174	48 2b c8	 sub	 rcx, rax
  00177	48 8b c1	 mov	 rax, rcx
$LN1@xsputn:

; 621  :         } else { // non-chars always get element-by-element processing
; 622  :             return _Mysb::xsputn(_Ptr, _Count);
; 623  :         }
; 624  :     }

  0017a	48 8d a5 08 01
	00 00		 lea	 rsp, QWORD PTR [rbp+264]
  00181	5f		 pop	 rdi
  00182	5d		 pop	 rbp
  00183	c3		 ret	 0
?xsputn@?$basic_filebuf@DU?$char_traits@D@std@@@std@@MEAA_JPEBD_J@Z ENDP ; std::basic_filebuf<char,std::char_traits<char> >::xsputn
_TEXT	ENDS
; Function compile flags: /Odtp /RTCsu /ZI
; File C:\Program Files (x86)\Microsoft Visual Studio\2019\Enterprise\VC\Tools\MSVC\14.27.29110\include\fstream
;	COMDAT ?xsgetn@?$basic_filebuf@DU?$char_traits@D@std@@@std@@MEAA_JPEAD_J@Z
_TEXT	SEGMENT
_Count_s$5 = 8
_Start_count$6 = 40
_Available$7 = 72
_Read_size$8 = 104
_Read_size$9 = 136
_Actual_read$10 = 168
__$ArrayPad$ = 376
this$ = 416
_Ptr$ = 424
_Count$ = 432
?xsgetn@?$basic_filebuf@DU?$char_traits@D@std@@@std@@MEAA_JPEAD_J@Z PROC ; std::basic_filebuf<char,std::char_traits<char> >::xsgetn, COMDAT

; 548  :     virtual streamsize __CLR_OR_THIS_CALL xsgetn(_Elem* _Ptr, streamsize _Count) override {

$LN11:
  00000	4c 89 44 24 18	 mov	 QWORD PTR [rsp+24], r8
  00005	48 89 54 24 10	 mov	 QWORD PTR [rsp+16], rdx
  0000a	48 89 4c 24 08	 mov	 QWORD PTR [rsp+8], rcx
  0000f	55		 push	 rbp
  00010	57		 push	 rdi
  00011	48 81 ec a8 01
	00 00		 sub	 rsp, 424		; 000001a8H
  00018	48 8d 6c 24 20	 lea	 rbp, QWORD PTR [rsp+32]
  0001d	48 8b fc	 mov	 rdi, rsp
  00020	b9 6a 00 00 00	 mov	 ecx, 106		; 0000006aH
  00025	b8 cc cc cc cc	 mov	 eax, -858993460		; ccccccccH
  0002a	f3 ab		 rep stosd
  0002c	48 8b 8c 24 c8
	01 00 00	 mov	 rcx, QWORD PTR [rsp+456]
  00034	48 8b 05 00 00
	00 00		 mov	 rax, QWORD PTR __security_cookie
  0003b	48 33 c5	 xor	 rax, rbp
  0003e	48 89 85 78 01
	00 00		 mov	 QWORD PTR __$ArrayPad$[rbp], rax
  00045	48 8d 0d 00 00
	00 00		 lea	 rcx, OFFSET FLAT:__21FC1C84_fstream
  0004c	e8 00 00 00 00	 call	 __CheckForDebuggerJustMyCode

; 549  :         // get _Count characters from stream
; 550  :         if _CONSTEXPR_IF (sizeof(_Elem) == 1) {
; 551  :             if (_Count <= 0) {

  00051	48 83 bd b0 01
	00 00 00	 cmp	 QWORD PTR _Count$[rbp], 0
  00059	7f 07		 jg	 SHORT $LN4@xsgetn

; 552  :                 return 0;

  0005b	33 c0		 xor	 eax, eax
  0005d	e9 c6 01 00 00	 jmp	 $LN1@xsgetn
$LN4@xsgetn:

; 553  :             }
; 554  : 
; 555  :             if (_Pcvt) { // if we need a nontrivial codecvt transform, do the default expensive thing

  00062	48 8b 85 a0 01
	00 00		 mov	 rax, QWORD PTR this$[rbp]
  00069	48 83 78 68 00	 cmp	 QWORD PTR [rax+104], 0
  0006e	74 20		 je	 SHORT $LN5@xsgetn

; 556  :                 return _Mysb::xsgetn(_Ptr, _Count);

  00070	4c 8b 85 b0 01
	00 00		 mov	 r8, QWORD PTR _Count$[rbp]
  00077	48 8b 95 a8 01
	00 00		 mov	 rdx, QWORD PTR _Ptr$[rbp]
  0007e	48 8b 8d a0 01
	00 00		 mov	 rcx, QWORD PTR this$[rbp]
  00085	ff 15 00 00 00
	00		 call	 QWORD PTR __imp_?xsgetn@?$basic_streambuf@DU?$char_traits@D@std@@@std@@MEAA_JPEAD_J@Z
  0008b	e9 98 01 00 00	 jmp	 $LN1@xsgetn
$LN5@xsgetn:

; 557  :             }
; 558  : 
; 559  :             // assuming this is OK because _Ptr + _Count must be valid
; 560  :             auto _Count_s           = static_cast<size_t>(_Count);

  00090	48 8b 85 b0 01
	00 00		 mov	 rax, QWORD PTR _Count$[rbp]
  00097	48 89 45 08	 mov	 QWORD PTR _Count_s$5[rbp], rax

; 561  :             const auto _Start_count = _Count;

  0009b	48 8b 85 b0 01
	00 00		 mov	 rax, QWORD PTR _Count$[rbp]
  000a2	48 89 45 28	 mov	 QWORD PTR _Start_count$6[rbp], rax

; 562  :             const auto _Available   = static_cast<size_t>(_Mysb::_Gnavail());

  000a6	48 8b 8d a0 01
	00 00		 mov	 rcx, QWORD PTR this$[rbp]
  000ad	ff 15 00 00 00
	00		 call	 QWORD PTR __imp_?_Gnavail@?$basic_streambuf@DU?$char_traits@D@std@@@std@@IEBA_JXZ
  000b3	48 89 45 48	 mov	 QWORD PTR _Available$7[rbp], rax

; 563  :             if (0 < _Available) { // copy from get area

  000b7	48 83 7d 48 00	 cmp	 QWORD PTR _Available$7[rbp], 0
  000bc	76 6e		 jbe	 SHORT $LN6@xsgetn

; 564  :                 const auto _Read_size = (_STD min)(_Count_s, _Available);

  000be	48 8d 55 48	 lea	 rdx, QWORD PTR _Available$7[rbp]
  000c2	48 8d 4d 08	 lea	 rcx, QWORD PTR _Count_s$5[rbp]
  000c6	e8 00 00 00 00	 call	 ??$min@_K@std@@YAAEB_KAEB_K0@Z ; std::min<unsigned __int64>
  000cb	48 8b 00	 mov	 rax, QWORD PTR [rax]
  000ce	48 89 45 68	 mov	 QWORD PTR _Read_size$8[rbp], rax

; 565  :                 _Traits::copy(_Ptr, _Mysb::gptr(), _Read_size);

  000d2	48 8b 8d a0 01
	00 00		 mov	 rcx, QWORD PTR this$[rbp]
  000d9	ff 15 00 00 00
	00		 call	 QWORD PTR __imp_?gptr@?$basic_streambuf@DU?$char_traits@D@std@@@std@@IEBAPEADXZ
  000df	4c 8b 45 68	 mov	 r8, QWORD PTR _Read_size$8[rbp]
  000e3	48 8b d0	 mov	 rdx, rax
  000e6	48 8b 8d a8 01
	00 00		 mov	 rcx, QWORD PTR _Ptr$[rbp]
  000ed	e8 00 00 00 00	 call	 ?copy@?$_Narrow_char_traits@DH@std@@SAPEADQEADQEBD_K@Z ; std::_Narrow_char_traits<char,int>::copy

; 566  :                 _Ptr += _Read_size;

  000f2	48 8b 45 68	 mov	 rax, QWORD PTR _Read_size$8[rbp]
  000f6	48 8b 8d a8 01
	00 00		 mov	 rcx, QWORD PTR _Ptr$[rbp]
  000fd	48 03 c8	 add	 rcx, rax
  00100	48 8b c1	 mov	 rax, rcx
  00103	48 89 85 a8 01
	00 00		 mov	 QWORD PTR _Ptr$[rbp], rax

; 567  :                 _Count_s -= _Read_size;

  0010a	48 8b 45 68	 mov	 rax, QWORD PTR _Read_size$8[rbp]
  0010e	48 8b 4d 08	 mov	 rcx, QWORD PTR _Count_s$5[rbp]
  00112	48 2b c8	 sub	 rcx, rax
  00115	48 8b c1	 mov	 rax, rcx
  00118	48 89 45 08	 mov	 QWORD PTR _Count_s$5[rbp], rax

; 568  :                 _Mysb::gbump(static_cast<int>(_Read_size));

  0011c	8b 55 68	 mov	 edx, DWORD PTR _Read_size$8[rbp]
  0011f	48 8b 8d a0 01
	00 00		 mov	 rcx, QWORD PTR this$[rbp]
  00126	ff 15 00 00 00
	00		 call	 QWORD PTR __imp_?gbump@?$basic_streambuf@DU?$char_traits@D@std@@@std@@IEAAXH@Z
$LN6@xsgetn:

; 569  :             }
; 570  : 
; 571  :             if (_Myfile) { // open C stream, attempt read

  0012c	48 8b 85 a0 01
	00 00		 mov	 rax, QWORD PTR this$[rbp]
  00133	48 83 b8 80 00
	00 00 00	 cmp	 QWORD PTR [rax+128], 0
  0013b	0f 84 d9 00 00
	00		 je	 $LN7@xsgetn

; 572  :                 _Reset_back(); // revert from _Mychar buffer

  00141	48 8b 8d a0 01
	00 00		 mov	 rcx, QWORD PTR this$[rbp]
  00148	e8 00 00 00 00	 call	 ?_Reset_back@?$basic_filebuf@DU?$char_traits@D@std@@@std@@AEAAXXZ ; std::basic_filebuf<char,std::char_traits<char> >::_Reset_back

; 573  :                 // process in 4k - 1 chunks to avoid tripping over fread's clobber-the-end behavior when
; 574  :                 // doing \r\n -> \n translation
; 575  :                 constexpr size_t _Read_size = 4095; // _INTERNAL_BUFSIZ - 1

  0014d	48 c7 85 88 00
	00 00 ff 0f 00
	00		 mov	 QWORD PTR _Read_size$9[rbp], 4095 ; 00000fffH
$LN2@xsgetn:

; 576  :                 while (_Read_size < _Count_s) {

  00158	48 81 7d 08 ff
	0f 00 00	 cmp	 QWORD PTR _Count_s$5[rbp], 4095 ; 00000fffH
  00160	76 7f		 jbe	 SHORT $LN3@xsgetn

; 577  :                     const auto _Actual_read = _CSTD fread(_Ptr, sizeof(_Elem), _Read_size, _Myfile);

  00162	48 8b 85 a0 01
	00 00		 mov	 rax, QWORD PTR this$[rbp]
  00169	4c 8b 88 80 00
	00 00		 mov	 r9, QWORD PTR [rax+128]
  00170	41 b8 ff 0f 00
	00		 mov	 r8d, 4095		; 00000fffH
  00176	ba 01 00 00 00	 mov	 edx, 1
  0017b	48 8b 8d a8 01
	00 00		 mov	 rcx, QWORD PTR _Ptr$[rbp]
  00182	ff 15 00 00 00
	00		 call	 QWORD PTR __imp_fread
  00188	48 89 85 a8 00
	00 00		 mov	 QWORD PTR _Actual_read$10[rbp], rax

; 578  :                     _Ptr += _Actual_read;

  0018f	48 8b 85 a8 00
	00 00		 mov	 rax, QWORD PTR _Actual_read$10[rbp]
  00196	48 8b 8d a8 01
	00 00		 mov	 rcx, QWORD PTR _Ptr$[rbp]
  0019d	48 03 c8	 add	 rcx, rax
  001a0	48 8b c1	 mov	 rax, rcx
  001a3	48 89 85 a8 01
	00 00		 mov	 QWORD PTR _Ptr$[rbp], rax

; 579  :                     _Count_s -= _Actual_read;

  001aa	48 8b 85 a8 00
	00 00		 mov	 rax, QWORD PTR _Actual_read$10[rbp]
  001b1	48 8b 4d 08	 mov	 rcx, QWORD PTR _Count_s$5[rbp]
  001b5	48 2b c8	 sub	 rcx, rax
  001b8	48 8b c1	 mov	 rax, rcx
  001bb	48 89 45 08	 mov	 QWORD PTR _Count_s$5[rbp], rax

; 580  :                     if (_Actual_read != _Read_size) {

  001bf	48 81 bd a8 00
	00 00 ff 0f 00
	00		 cmp	 QWORD PTR _Actual_read$10[rbp], 4095 ; 00000fffH
  001ca	74 10		 je	 SHORT $LN8@xsgetn

; 581  :                         return static_cast<streamsize>(_Start_count - _Count_s);

  001cc	48 8b 45 08	 mov	 rax, QWORD PTR _Count_s$5[rbp]
  001d0	48 8b 4d 28	 mov	 rcx, QWORD PTR _Start_count$6[rbp]
  001d4	48 2b c8	 sub	 rcx, rax
  001d7	48 8b c1	 mov	 rax, rcx
  001da	eb 4c		 jmp	 SHORT $LN1@xsgetn
$LN8@xsgetn:

; 582  :                     }
; 583  :                 }

  001dc	e9 77 ff ff ff	 jmp	 $LN2@xsgetn
$LN3@xsgetn:

; 584  : 
; 585  :                 if (0 < _Count_s) {

  001e1	48 83 7d 08 00	 cmp	 QWORD PTR _Count_s$5[rbp], 0
  001e6	76 32		 jbe	 SHORT $LN9@xsgetn

; 586  :                     _Count_s -= _CSTD fread(_Ptr, sizeof(_Elem), _Count_s, _Myfile);

  001e8	48 8b 85 a0 01
	00 00		 mov	 rax, QWORD PTR this$[rbp]
  001ef	4c 8b 88 80 00
	00 00		 mov	 r9, QWORD PTR [rax+128]
  001f6	4c 8b 45 08	 mov	 r8, QWORD PTR _Count_s$5[rbp]
  001fa	ba 01 00 00 00	 mov	 edx, 1
  001ff	48 8b 8d a8 01
	00 00		 mov	 rcx, QWORD PTR _Ptr$[rbp]
  00206	ff 15 00 00 00
	00		 call	 QWORD PTR __imp_fread
  0020c	48 8b 4d 08	 mov	 rcx, QWORD PTR _Count_s$5[rbp]
  00210	48 2b c8	 sub	 rcx, rax
  00213	48 8b c1	 mov	 rax, rcx
  00216	48 89 45 08	 mov	 QWORD PTR _Count_s$5[rbp], rax
$LN9@xsgetn:
$LN7@xsgetn:

; 587  :                 }
; 588  :             }
; 589  : 
; 590  :             return static_cast<streamsize>(_Start_count - _Count_s);

  0021a	48 8b 45 08	 mov	 rax, QWORD PTR _Count_s$5[rbp]
  0021e	48 8b 4d 28	 mov	 rcx, QWORD PTR _Start_count$6[rbp]
  00222	48 2b c8	 sub	 rcx, rax
  00225	48 8b c1	 mov	 rax, rcx
$LN1@xsgetn:

; 591  :         } else { // non-chars always get element-by-element processing
; 592  :             return _Mysb::xsgetn(_Ptr, _Count);
; 593  :         }
; 594  :     }

  00228	48 8b f8	 mov	 rdi, rax
  0022b	48 8d 4d e0	 lea	 rcx, QWORD PTR [rbp-32]
  0022f	48 8d 15 00 00
	00 00		 lea	 rdx, OFFSET FLAT:?xsgetn@?$basic_filebuf@DU?$char_traits@D@std@@@std@@MEAA_JPEAD_J@Z$rtcFrameData
  00236	e8 00 00 00 00	 call	 _RTC_CheckStackVars
  0023b	48 8b c7	 mov	 rax, rdi
  0023e	48 8b 8d 78 01
	00 00		 mov	 rcx, QWORD PTR __$ArrayPad$[rbp]
  00245	48 33 cd	 xor	 rcx, rbp
  00248	e8 00 00 00 00	 call	 __security_check_cookie
  0024d	48 8d a5 88 01
	00 00		 lea	 rsp, QWORD PTR [rbp+392]
  00254	5f		 pop	 rdi
  00255	5d		 pop	 rbp
  00256	c3		 ret	 0
?xsgetn@?$basic_filebuf@DU?$char_traits@D@std@@@std@@MEAA_JPEAD_J@Z ENDP ; std::basic_filebuf<char,std::char_traits<char> >::xsgetn
_TEXT	ENDS
; Function compile flags: /Odtp /RTCsu /ZI
; File C:\Program Files (x86)\Microsoft Visual Studio\2019\Enterprise\VC\Tools\MSVC\14.27.29110\include\fstream
;	COMDAT ?uflow@?$basic_filebuf@DU?$char_traits@D@std@@@std@@MEAAHXZ
_TEXT	SEGMENT
_Ch$8 = 4
_Str$ = 40
_Src$9 = 104
_Meta$10 = 132
_Ch$11 = 164
_Dest$12 = 200
_Nleft$13 = 232
$T14 = 452
$T15 = 484
$T16 = 516
$T17 = 548
tv139 = 564
tv172 = 568
tv154 = 568
tv76 = 568
tv159 = 576
tv162 = 584
tv169 = 592
__$ArrayPad$ = 600
this$ = 640
?uflow@?$basic_filebuf@DU?$char_traits@D@std@@@std@@MEAAHXZ PROC ; std::basic_filebuf<char,std::char_traits<char> >::uflow, COMDAT

; 490  :     virtual int_type __CLR_OR_THIS_CALL uflow() override { // get an element from stream, point past it

$LN21:
  00000	48 89 4c 24 08	 mov	 QWORD PTR [rsp+8], rcx
  00005	55		 push	 rbp
  00006	57		 push	 rdi
  00007	48 81 ec a8 02
	00 00		 sub	 rsp, 680		; 000002a8H
  0000e	48 8d 6c 24 40	 lea	 rbp, QWORD PTR [rsp+64]
  00013	48 8b fc	 mov	 rdi, rsp
  00016	b9 aa 00 00 00	 mov	 ecx, 170		; 000000aaH
  0001b	b8 cc cc cc cc	 mov	 eax, -858993460		; ccccccccH
  00020	f3 ab		 rep stosd
  00022	48 8b 8c 24 c8
	02 00 00	 mov	 rcx, QWORD PTR [rsp+712]
  0002a	48 8b 05 00 00
	00 00		 mov	 rax, QWORD PTR __security_cookie
  00031	48 33 c5	 xor	 rax, rbp
  00034	48 89 85 58 02
	00 00		 mov	 QWORD PTR __$ArrayPad$[rbp], rax
  0003b	48 8d 0d 00 00
	00 00		 lea	 rcx, OFFSET FLAT:__21FC1C84_fstream
  00042	e8 00 00 00 00	 call	 __CheckForDebuggerJustMyCode

; 491  :         if (_Mysb::gptr() && _Mysb::gptr() < _Mysb::egptr()) {

  00047	48 8b 8d 80 02
	00 00		 mov	 rcx, QWORD PTR this$[rbp]
  0004e	ff 15 00 00 00
	00		 call	 QWORD PTR __imp_?gptr@?$basic_streambuf@DU?$char_traits@D@std@@@std@@IEBAPEADXZ
  00054	48 85 c0	 test	 rax, rax
  00057	74 47		 je	 SHORT $LN9@uflow
  00059	48 8b 8d 80 02
	00 00		 mov	 rcx, QWORD PTR this$[rbp]
  00060	ff 15 00 00 00
	00		 call	 QWORD PTR __imp_?gptr@?$basic_streambuf@DU?$char_traits@D@std@@@std@@IEBAPEADXZ
  00066	48 89 85 38 02
	00 00		 mov	 QWORD PTR tv76[rbp], rax
  0006d	48 8b 8d 80 02
	00 00		 mov	 rcx, QWORD PTR this$[rbp]
  00074	ff 15 00 00 00
	00		 call	 QWORD PTR __imp_?egptr@?$basic_streambuf@DU?$char_traits@D@std@@@std@@IEBAPEADXZ
  0007a	48 8b 8d 38 02
	00 00		 mov	 rcx, QWORD PTR tv76[rbp]
  00081	48 3b c8	 cmp	 rcx, rax
  00084	73 1a		 jae	 SHORT $LN9@uflow

; 492  :             return _Traits::to_int_type(*_Mysb::_Gninc()); // return buffered

  00086	48 8b 8d 80 02
	00 00		 mov	 rcx, QWORD PTR this$[rbp]
  0008d	ff 15 00 00 00
	00		 call	 QWORD PTR __imp_?_Gninc@?$basic_streambuf@DU?$char_traits@D@std@@@std@@IEAAPEADXZ
  00093	48 8b c8	 mov	 rcx, rax
  00096	e8 00 00 00 00	 call	 ?to_int_type@?$_Narrow_char_traits@DH@std@@SAHAEBD@Z ; std::_Narrow_char_traits<char,int>::to_int_type
  0009b	e9 c1 02 00 00	 jmp	 $LN1@uflow
$LN9@uflow:

; 493  :         }
; 494  : 
; 495  :         if (!_Myfile) {

  000a0	48 8b 85 80 02
	00 00		 mov	 rax, QWORD PTR this$[rbp]
  000a7	48 83 b8 80 00
	00 00 00	 cmp	 QWORD PTR [rax+128], 0
  000af	75 0a		 jne	 SHORT $LN10@uflow

; 496  :             return _Traits::eof(); // no open C stream, fail

  000b1	e8 00 00 00 00	 call	 ?eof@?$_Narrow_char_traits@DH@std@@SAHXZ ; std::_Narrow_char_traits<char,int>::eof
  000b6	e9 a6 02 00 00	 jmp	 $LN1@uflow
$LN10@uflow:

; 497  :         }
; 498  : 
; 499  :         _Reset_back(); // revert from _Mychar buffer

  000bb	48 8b 8d 80 02
	00 00		 mov	 rcx, QWORD PTR this$[rbp]
  000c2	e8 00 00 00 00	 call	 ?_Reset_back@?$basic_filebuf@DU?$char_traits@D@std@@@std@@AEAAXXZ ; std::basic_filebuf<char,std::char_traits<char> >::_Reset_back

; 500  :         if (!_Pcvt) { // no codecvt facet, just get it

  000c7	48 8b 85 80 02
	00 00		 mov	 rax, QWORD PTR this$[rbp]
  000ce	48 83 78 68 00	 cmp	 QWORD PTR [rax+104], 0
  000d3	75 45		 jne	 SHORT $LN11@uflow

; 501  :             _Elem _Ch;
; 502  :             return _Fgetc(_Ch, _Myfile) ? _Traits::to_int_type(_Ch) : _Traits::eof();

  000d5	48 8b 85 80 02
	00 00		 mov	 rax, QWORD PTR this$[rbp]
  000dc	48 8b 90 80 00
	00 00		 mov	 rdx, QWORD PTR [rax+128]
  000e3	48 8d 4d 04	 lea	 rcx, QWORD PTR _Ch$8[rbp]
  000e7	e8 00 00 00 00	 call	 ??$_Fgetc@D@std@@YA_NAEADPEAU_iobuf@@@Z ; std::_Fgetc<char>
  000ec	0f b6 c0	 movzx	 eax, al
  000ef	85 c0		 test	 eax, eax
  000f1	74 11		 je	 SHORT $LN18@uflow
  000f3	48 8d 4d 04	 lea	 rcx, QWORD PTR _Ch$8[rbp]
  000f7	e8 00 00 00 00	 call	 ?to_int_type@?$_Narrow_char_traits@DH@std@@SAHAEBD@Z ; std::_Narrow_char_traits<char,int>::to_int_type
  000fc	89 85 34 02 00
	00		 mov	 DWORD PTR tv139[rbp], eax
  00102	eb 0b		 jmp	 SHORT $LN19@uflow
$LN18@uflow:
  00104	e8 00 00 00 00	 call	 ?eof@?$_Narrow_char_traits@DH@std@@SAHXZ ; std::_Narrow_char_traits<char,int>::eof
  00109	89 85 34 02 00
	00		 mov	 DWORD PTR tv139[rbp], eax
$LN19@uflow:
  0010f	8b 85 34 02 00
	00		 mov	 eax, DWORD PTR tv139[rbp]
  00115	e9 47 02 00 00	 jmp	 $LN1@uflow
$LN11@uflow:

; 503  :         }
; 504  : 
; 505  :         // build string until codecvt succeeds
; 506  :         string _Str;

  0011a	48 8d 4d 28	 lea	 rcx, QWORD PTR _Str$[rbp]
  0011e	e8 00 00 00 00	 call	 ??0?$basic_string@DU?$char_traits@D@std@@V?$allocator@D@2@@std@@QEAA@XZ ; std::basic_string<char,std::char_traits<char>,std::allocator<char> >::basic_string<char,std::char_traits<char>,std::allocator<char> >
  00123	90		 npad	 1
$LN2@uflow:

; 507  : 
; 508  :         for (;;) { // get using codecvt facet
; 509  :             const char* _Src;
; 510  :             int _Meta = _CSTD fgetc(_Myfile);

  00124	48 8b 85 80 02
	00 00		 mov	 rax, QWORD PTR this$[rbp]
  0012b	48 8b 88 80 00
	00 00		 mov	 rcx, QWORD PTR [rax+128]
  00132	ff 15 00 00 00
	00		 call	 QWORD PTR __imp_fgetc
  00138	89 85 84 00 00
	00		 mov	 DWORD PTR _Meta$10[rbp], eax

; 511  : 
; 512  :             if (_Meta == EOF) {

  0013e	83 bd 84 00 00
	00 ff		 cmp	 DWORD PTR _Meta$10[rbp], -1
  00145	75 1f		 jne	 SHORT $LN12@uflow

; 513  :                 return _Traits::eof(); // partial char?

  00147	e8 00 00 00 00	 call	 ?eof@?$_Narrow_char_traits@DH@std@@SAHXZ ; std::_Narrow_char_traits<char,int>::eof
  0014c	89 85 c4 01 00
	00		 mov	 DWORD PTR $T14[rbp], eax
  00152	48 8d 4d 28	 lea	 rcx, QWORD PTR _Str$[rbp]
  00156	e8 00 00 00 00	 call	 ??1?$basic_string@DU?$char_traits@D@std@@V?$allocator@D@2@@std@@QEAA@XZ ; std::basic_string<char,std::char_traits<char>,std::allocator<char> >::~basic_string<char,std::char_traits<char>,std::allocator<char> >
  0015b	8b 85 c4 01 00
	00		 mov	 eax, DWORD PTR $T14[rbp]
  00161	e9 fb 01 00 00	 jmp	 $LN1@uflow
$LN12@uflow:

; 514  :             }
; 515  : 
; 516  :             _Str.push_back(static_cast<char>(_Meta)); // append byte and convert

  00166	0f b6 95 84 00
	00 00		 movzx	 edx, BYTE PTR _Meta$10[rbp]
  0016d	48 8d 4d 28	 lea	 rcx, QWORD PTR _Str$[rbp]
  00171	e8 00 00 00 00	 call	 ?push_back@?$basic_string@DU?$char_traits@D@std@@V?$allocator@D@2@@std@@QEAAXD@Z ; std::basic_string<char,std::char_traits<char>,std::allocator<char> >::push_back

; 517  : 
; 518  :             _Elem _Ch;
; 519  :             _Elem* _Dest;
; 520  :             switch (_Pcvt->in(_State, _Str.data(), _Str.data() + _Str.size(), _Src, &_Ch, &_Ch + 1,

  00176	48 8d 85 a5 00
	00 00		 lea	 rax, QWORD PTR _Ch$11[rbp+1]
  0017d	48 89 85 38 02
	00 00		 mov	 QWORD PTR tv154[rbp], rax
  00184	48 8d 4d 28	 lea	 rcx, QWORD PTR _Str$[rbp]
  00188	e8 00 00 00 00	 call	 ?data@?$basic_string@DU?$char_traits@D@std@@V?$allocator@D@2@@std@@QEBAPEBDXZ ; std::basic_string<char,std::char_traits<char>,std::allocator<char> >::data
  0018d	48 89 85 40 02
	00 00		 mov	 QWORD PTR tv159[rbp], rax
  00194	48 8d 4d 28	 lea	 rcx, QWORD PTR _Str$[rbp]
  00198	e8 00 00 00 00	 call	 ?size@?$basic_string@DU?$char_traits@D@std@@V?$allocator@D@2@@std@@QEBA_KXZ ; std::basic_string<char,std::char_traits<char>,std::allocator<char> >::size
  0019d	48 8b 8d 40 02
	00 00		 mov	 rcx, QWORD PTR tv159[rbp]
  001a4	48 03 c8	 add	 rcx, rax
  001a7	48 8b c1	 mov	 rax, rcx
  001aa	48 89 85 48 02
	00 00		 mov	 QWORD PTR tv162[rbp], rax
  001b1	48 8d 4d 28	 lea	 rcx, QWORD PTR _Str$[rbp]
  001b5	e8 00 00 00 00	 call	 ?data@?$basic_string@DU?$char_traits@D@std@@V?$allocator@D@2@@std@@QEBAPEBDXZ ; std::basic_string<char,std::char_traits<char>,std::allocator<char> >::data
  001ba	48 8b 8d 80 02
	00 00		 mov	 rcx, QWORD PTR this$[rbp]
  001c1	48 83 c1 74	 add	 rcx, 116		; 00000074H
  001c5	48 8d 95 c8 00
	00 00		 lea	 rdx, QWORD PTR _Dest$12[rbp]
  001cc	48 89 54 24 38	 mov	 QWORD PTR [rsp+56], rdx
  001d1	48 8b 95 38 02
	00 00		 mov	 rdx, QWORD PTR tv154[rbp]
  001d8	48 89 54 24 30	 mov	 QWORD PTR [rsp+48], rdx
  001dd	48 8d 95 a4 00
	00 00		 lea	 rdx, QWORD PTR _Ch$11[rbp]
  001e4	48 89 54 24 28	 mov	 QWORD PTR [rsp+40], rdx
  001e9	48 8d 55 68	 lea	 rdx, QWORD PTR _Src$9[rbp]
  001ed	48 89 54 24 20	 mov	 QWORD PTR [rsp+32], rdx
  001f2	48 8b 95 48 02
	00 00		 mov	 rdx, QWORD PTR tv162[rbp]
  001f9	4c 8b ca	 mov	 r9, rdx
  001fc	4c 8b c0	 mov	 r8, rax
  001ff	48 8b d1	 mov	 rdx, rcx
  00202	48 8b 85 80 02
	00 00		 mov	 rax, QWORD PTR this$[rbp]
  00209	48 8b 48 68	 mov	 rcx, QWORD PTR [rax+104]
  0020d	ff 15 00 00 00
	00		 call	 QWORD PTR __imp_?in@?$codecvt@DDU_Mbstatet@@@std@@QEBAHAEAU_Mbstatet@@PEBD1AEAPEBDPEAD3AEAPEAD@Z
  00213	89 85 50 02 00
	00		 mov	 DWORD PTR tv169[rbp], eax
  00219	83 bd 50 02 00
	00 00		 cmp	 DWORD PTR tv169[rbp], 0
  00220	0f 8c 10 01 00
	00		 jl	 $LN16@uflow
  00226	83 bd 50 02 00
	00 01		 cmp	 DWORD PTR tv169[rbp], 1
  0022d	7e 12		 jle	 SHORT $LN13@uflow
  0022f	83 bd 50 02 00
	00 03		 cmp	 DWORD PTR tv169[rbp], 3
  00236	0f 84 d7 00 00
	00		 je	 $LN15@uflow
  0023c	e9 f5 00 00 00	 jmp	 $LN16@uflow
$LN13@uflow:

; 521  :                 _Dest)) { // test result of converting one element
; 522  :             case codecvt_base::partial:
; 523  :             case codecvt_base::ok:
; 524  :                 if (_Dest != &_Ch) { // got an element, put back excess and deliver it

  00241	48 8d 85 a4 00
	00 00		 lea	 rax, QWORD PTR _Ch$11[rbp]
  00248	48 39 85 c8 00
	00 00		 cmp	 QWORD PTR _Dest$12[rbp], rax
  0024f	0f 84 9b 00 00
	00		 je	 $LN14@uflow

; 525  :                     auto _Nleft = _Str.data() + _Str.size() - _Src;

  00255	48 8d 4d 28	 lea	 rcx, QWORD PTR _Str$[rbp]
  00259	e8 00 00 00 00	 call	 ?data@?$basic_string@DU?$char_traits@D@std@@V?$allocator@D@2@@std@@QEBAPEBDXZ ; std::basic_string<char,std::char_traits<char>,std::allocator<char> >::data
  0025e	48 89 85 38 02
	00 00		 mov	 QWORD PTR tv172[rbp], rax
  00265	48 8d 4d 28	 lea	 rcx, QWORD PTR _Str$[rbp]
  00269	e8 00 00 00 00	 call	 ?size@?$basic_string@DU?$char_traits@D@std@@V?$allocator@D@2@@std@@QEBA_KXZ ; std::basic_string<char,std::char_traits<char>,std::allocator<char> >::size
  0026e	48 8b 8d 38 02
	00 00		 mov	 rcx, QWORD PTR tv172[rbp]
  00275	48 03 c8	 add	 rcx, rax
  00278	48 8b c1	 mov	 rax, rcx
  0027b	48 2b 45 68	 sub	 rax, QWORD PTR _Src$9[rbp]
  0027f	48 89 85 e8 00
	00 00		 mov	 QWORD PTR _Nleft$13[rbp], rax
$LN7@uflow:

; 526  :                     while (0 < _Nleft) {

  00286	48 83 bd e8 00
	00 00 00	 cmp	 QWORD PTR _Nleft$13[rbp], 0
  0028e	7e 3d		 jle	 SHORT $LN8@uflow

; 527  :                         _CSTD ungetc(_Src[--_Nleft], _Myfile);

  00290	48 8b 85 e8 00
	00 00		 mov	 rax, QWORD PTR _Nleft$13[rbp]
  00297	48 ff c8	 dec	 rax
  0029a	48 89 85 e8 00
	00 00		 mov	 QWORD PTR _Nleft$13[rbp], rax
  002a1	48 8b 85 e8 00
	00 00		 mov	 rax, QWORD PTR _Nleft$13[rbp]
  002a8	48 8b 4d 68	 mov	 rcx, QWORD PTR _Src$9[rbp]
  002ac	48 03 c8	 add	 rcx, rax
  002af	48 8b c1	 mov	 rax, rcx
  002b2	0f be 00	 movsx	 eax, BYTE PTR [rax]
  002b5	48 8b 8d 80 02
	00 00		 mov	 rcx, QWORD PTR this$[rbp]
  002bc	48 8b 91 80 00
	00 00		 mov	 rdx, QWORD PTR [rcx+128]
  002c3	8b c8		 mov	 ecx, eax
  002c5	ff 15 00 00 00
	00		 call	 QWORD PTR __imp_ungetc

; 528  :                     }

  002cb	eb b9		 jmp	 SHORT $LN7@uflow
$LN8@uflow:

; 529  : 
; 530  :                     return _Traits::to_int_type(_Ch);

  002cd	48 8d 8d a4 00
	00 00		 lea	 rcx, QWORD PTR _Ch$11[rbp]
  002d4	e8 00 00 00 00	 call	 ?to_int_type@?$_Narrow_char_traits@DH@std@@SAHAEBD@Z ; std::_Narrow_char_traits<char,int>::to_int_type
  002d9	89 85 e4 01 00
	00		 mov	 DWORD PTR $T15[rbp], eax
  002df	48 8d 4d 28	 lea	 rcx, QWORD PTR _Str$[rbp]
  002e3	e8 00 00 00 00	 call	 ??1?$basic_string@DU?$char_traits@D@std@@V?$allocator@D@2@@std@@QEAA@XZ ; std::basic_string<char,std::char_traits<char>,std::allocator<char> >::~basic_string<char,std::char_traits<char>,std::allocator<char> >
  002e8	8b 85 e4 01 00
	00		 mov	 eax, DWORD PTR $T15[rbp]
  002ee	eb 71		 jmp	 SHORT $LN1@uflow
$LN14@uflow:

; 531  :                 }
; 532  : 
; 533  :                 _Str.erase(0, static_cast<size_t>(_Src - _Str.data())); // partial, discard used input

  002f0	48 8d 4d 28	 lea	 rcx, QWORD PTR _Str$[rbp]
  002f4	e8 00 00 00 00	 call	 ?data@?$basic_string@DU?$char_traits@D@std@@V?$allocator@D@2@@std@@QEBAPEBDXZ ; std::basic_string<char,std::char_traits<char>,std::allocator<char> >::data
  002f9	48 8b 4d 68	 mov	 rcx, QWORD PTR _Src$9[rbp]
  002fd	48 2b c8	 sub	 rcx, rax
  00300	48 8b c1	 mov	 rax, rcx
  00303	4c 8b c0	 mov	 r8, rax
  00306	33 d2		 xor	 edx, edx
  00308	48 8d 4d 28	 lea	 rcx, QWORD PTR _Str$[rbp]
  0030c	e8 00 00 00 00	 call	 ?erase@?$basic_string@DU?$char_traits@D@std@@V?$allocator@D@2@@std@@QEAAAEAV12@_K_K@Z ; std::basic_string<char,std::char_traits<char>,std::allocator<char> >::erase

; 534  :                 break;

  00311	eb 3f		 jmp	 SHORT $LN5@uflow
$LN15@uflow:

; 535  : 
; 536  :             case codecvt_base::noconv:
; 537  :                 // noconv is only possible if _Elem is char, so we can use it directly
; 538  :                 return static_cast<int_type>(_Str.front());

  00313	48 8d 4d 28	 lea	 rcx, QWORD PTR _Str$[rbp]
  00317	e8 00 00 00 00	 call	 ?front@?$basic_string@DU?$char_traits@D@std@@V?$allocator@D@2@@std@@QEAAAEADXZ ; std::basic_string<char,std::char_traits<char>,std::allocator<char> >::front
  0031c	0f be 00	 movsx	 eax, BYTE PTR [rax]
  0031f	89 85 04 02 00
	00		 mov	 DWORD PTR $T16[rbp], eax
  00325	48 8d 4d 28	 lea	 rcx, QWORD PTR _Str$[rbp]
  00329	e8 00 00 00 00	 call	 ??1?$basic_string@DU?$char_traits@D@std@@V?$allocator@D@2@@std@@QEAA@XZ ; std::basic_string<char,std::char_traits<char>,std::allocator<char> >::~basic_string<char,std::char_traits<char>,std::allocator<char> >
  0032e	8b 85 04 02 00
	00		 mov	 eax, DWORD PTR $T16[rbp]
  00334	eb 2b		 jmp	 SHORT $LN1@uflow
$LN16@uflow:

; 539  : 
; 540  :             default:
; 541  :                 return _Traits::eof(); // conversion failed

  00336	e8 00 00 00 00	 call	 ?eof@?$_Narrow_char_traits@DH@std@@SAHXZ ; std::_Narrow_char_traits<char,int>::eof
  0033b	89 85 24 02 00
	00		 mov	 DWORD PTR $T17[rbp], eax
  00341	48 8d 4d 28	 lea	 rcx, QWORD PTR _Str$[rbp]
  00345	e8 00 00 00 00	 call	 ??1?$basic_string@DU?$char_traits@D@std@@V?$allocator@D@2@@std@@QEAA@XZ ; std::basic_string<char,std::char_traits<char>,std::allocator<char> >::~basic_string<char,std::char_traits<char>,std::allocator<char> >
  0034a	8b 85 24 02 00
	00		 mov	 eax, DWORD PTR $T17[rbp]
  00350	eb 0f		 jmp	 SHORT $LN1@uflow
$LN5@uflow:

; 542  :             }
; 543  :         }

  00352	e9 cd fd ff ff	 jmp	 $LN2@uflow

; 544  :     }

  00357	48 8d 4d 28	 lea	 rcx, QWORD PTR _Str$[rbp]
  0035b	e8 00 00 00 00	 call	 ??1?$basic_string@DU?$char_traits@D@std@@V?$allocator@D@2@@std@@QEAA@XZ ; std::basic_string<char,std::char_traits<char>,std::allocator<char> >::~basic_string<char,std::char_traits<char>,std::allocator<char> >
  00360	90		 npad	 1
$LN1@uflow:
  00361	48 8b f8	 mov	 rdi, rax
  00364	48 8d 4d c0	 lea	 rcx, QWORD PTR [rbp-64]
  00368	48 8d 15 00 00
	00 00		 lea	 rdx, OFFSET FLAT:?uflow@?$basic_filebuf@DU?$char_traits@D@std@@@std@@MEAAHXZ$rtcFrameData
  0036f	e8 00 00 00 00	 call	 _RTC_CheckStackVars
  00374	48 8b c7	 mov	 rax, rdi
  00377	48 8b 8d 58 02
	00 00		 mov	 rcx, QWORD PTR __$ArrayPad$[rbp]
  0037e	48 33 cd	 xor	 rcx, rbp
  00381	e8 00 00 00 00	 call	 __security_check_cookie
  00386	48 8d a5 68 02
	00 00		 lea	 rsp, QWORD PTR [rbp+616]
  0038d	5f		 pop	 rdi
  0038e	5d		 pop	 rbp
  0038f	c3		 ret	 0
?uflow@?$basic_filebuf@DU?$char_traits@D@std@@@std@@MEAAHXZ ENDP ; std::basic_filebuf<char,std::char_traits<char> >::uflow
_TEXT	ENDS
;	COMDAT text$x
text$x	SEGMENT
_Ch$8 = 4
_Str$ = 40
_Src$9 = 104
_Meta$10 = 132
_Ch$11 = 164
_Dest$12 = 200
_Nleft$13 = 232
$T14 = 452
$T15 = 484
$T16 = 516
$T17 = 548
tv139 = 564
tv172 = 568
tv154 = 568
tv76 = 568
tv159 = 576
tv162 = 584
tv169 = 592
__$ArrayPad$ = 600
this$ = 640
?dtor$0@?0??uflow@?$basic_filebuf@DU?$char_traits@D@std@@@std@@MEAAHXZ@4HA PROC ; `std::basic_filebuf<char,std::char_traits<char> >::uflow'::`1'::dtor$0
  00000	48 89 4c 24 08	 mov	 QWORD PTR [rsp+8], rcx
  00005	48 89 54 24 10	 mov	 QWORD PTR [rsp+16], rdx
  0000a	55		 push	 rbp
  0000b	57		 push	 rdi
  0000c	48 83 ec 28	 sub	 rsp, 40			; 00000028H
  00010	48 8d 6a 40	 lea	 rbp, QWORD PTR [rdx+64]
  00014	48 8d 4d 28	 lea	 rcx, QWORD PTR _Str$[rbp]
  00018	e8 00 00 00 00	 call	 ??1?$basic_string@DU?$char_traits@D@std@@V?$allocator@D@2@@std@@QEAA@XZ ; std::basic_string<char,std::char_traits<char>,std::allocator<char> >::~basic_string<char,std::char_traits<char>,std::allocator<char> >
  0001d	48 83 c4 28	 add	 rsp, 40			; 00000028H
  00021	5f		 pop	 rdi
  00022	5d		 pop	 rbp
  00023	c3		 ret	 0
?dtor$0@?0??uflow@?$basic_filebuf@DU?$char_traits@D@std@@@std@@MEAAHXZ@4HA ENDP ; `std::basic_filebuf<char,std::char_traits<char> >::uflow'::`1'::dtor$0
text$x	ENDS
; Function compile flags: /Odtp /RTCsu /ZI
;	COMDAT text$x
text$x	SEGMENT
_Ch$8 = 4
_Str$ = 40
_Src$9 = 104
_Meta$10 = 132
_Ch$11 = 164
_Dest$12 = 200
_Nleft$13 = 232
$T14 = 452
$T15 = 484
$T16 = 516
$T17 = 548
tv139 = 564
tv172 = 568
tv154 = 568
tv76 = 568
tv159 = 576
tv162 = 584
tv169 = 592
__$ArrayPad$ = 600
this$ = 640
?dtor$0@?0??uflow@?$basic_filebuf@DU?$char_traits@D@std@@@std@@MEAAHXZ@4HA PROC ; `std::basic_filebuf<char,std::char_traits<char> >::uflow'::`1'::dtor$0
  00000	48 89 4c 24 08	 mov	 QWORD PTR [rsp+8], rcx
  00005	48 89 54 24 10	 mov	 QWORD PTR [rsp+16], rdx
  0000a	55		 push	 rbp
  0000b	57		 push	 rdi
  0000c	48 83 ec 28	 sub	 rsp, 40			; 00000028H
  00010	48 8d 6a 40	 lea	 rbp, QWORD PTR [rdx+64]
  00014	48 8d 4d 28	 lea	 rcx, QWORD PTR _Str$[rbp]
  00018	e8 00 00 00 00	 call	 ??1?$basic_string@DU?$char_traits@D@std@@V?$allocator@D@2@@std@@QEAA@XZ ; std::basic_string<char,std::char_traits<char>,std::allocator<char> >::~basic_string<char,std::char_traits<char>,std::allocator<char> >
  0001d	48 83 c4 28	 add	 rsp, 40			; 00000028H
  00021	5f		 pop	 rdi
  00022	5d		 pop	 rbp
  00023	c3		 ret	 0
?dtor$0@?0??uflow@?$basic_filebuf@DU?$char_traits@D@std@@@std@@MEAAHXZ@4HA ENDP ; `std::basic_filebuf<char,std::char_traits<char> >::uflow'::`1'::dtor$0
text$x	ENDS
; Function compile flags: /Odtp /RTCsu /ZI
; File C:\Program Files (x86)\Microsoft Visual Studio\2019\Enterprise\VC\Tools\MSVC\14.27.29110\include\fstream
;	COMDAT ?underflow@?$basic_filebuf@DU?$char_traits@D@std@@@std@@MEAAHXZ
_TEXT	SEGMENT
_Meta$ = 4
$T4 = 228
tv76 = 248
__$ArrayPad$ = 256
this$ = 304
?underflow@?$basic_filebuf@DU?$char_traits@D@std@@@std@@MEAAHXZ PROC ; std::basic_filebuf<char,std::char_traits<char> >::underflow, COMDAT

; 478  :     virtual int_type __CLR_OR_THIS_CALL underflow() override { // get an element from stream, but don't point past it

$LN7:
  00000	48 89 4c 24 08	 mov	 QWORD PTR [rsp+8], rcx
  00005	55		 push	 rbp
  00006	57		 push	 rdi
  00007	48 81 ec 38 01
	00 00		 sub	 rsp, 312		; 00000138H
  0000e	48 8d 6c 24 20	 lea	 rbp, QWORD PTR [rsp+32]
  00013	48 8b fc	 mov	 rdi, rsp
  00016	b9 4e 00 00 00	 mov	 ecx, 78			; 0000004eH
  0001b	b8 cc cc cc cc	 mov	 eax, -858993460		; ccccccccH
  00020	f3 ab		 rep stosd
  00022	48 8b 8c 24 58
	01 00 00	 mov	 rcx, QWORD PTR [rsp+344]
  0002a	48 8b 05 00 00
	00 00		 mov	 rax, QWORD PTR __security_cookie
  00031	48 33 c5	 xor	 rax, rbp
  00034	48 89 85 00 01
	00 00		 mov	 QWORD PTR __$ArrayPad$[rbp], rax
  0003b	48 8d 0d 00 00
	00 00		 lea	 rcx, OFFSET FLAT:__21FC1C84_fstream
  00042	e8 00 00 00 00	 call	 __CheckForDebuggerJustMyCode

; 479  :         int_type _Meta;
; 480  :         if (_Mysb::gptr() && _Mysb::gptr() < _Mysb::egptr()) {

  00047	48 8b 8d 30 01
	00 00		 mov	 rcx, QWORD PTR this$[rbp]
  0004e	ff 15 00 00 00
	00		 call	 QWORD PTR __imp_?gptr@?$basic_streambuf@DU?$char_traits@D@std@@@std@@IEBAPEADXZ
  00054	48 85 c0	 test	 rax, rax
  00057	74 46		 je	 SHORT $LN2@underflow
  00059	48 8b 8d 30 01
	00 00		 mov	 rcx, QWORD PTR this$[rbp]
  00060	ff 15 00 00 00
	00		 call	 QWORD PTR __imp_?gptr@?$basic_streambuf@DU?$char_traits@D@std@@@std@@IEBAPEADXZ
  00066	48 89 85 f8 00
	00 00		 mov	 QWORD PTR tv76[rbp], rax
  0006d	48 8b 8d 30 01
	00 00		 mov	 rcx, QWORD PTR this$[rbp]
  00074	ff 15 00 00 00
	00		 call	 QWORD PTR __imp_?egptr@?$basic_streambuf@DU?$char_traits@D@std@@@std@@IEBAPEADXZ
  0007a	48 8b 8d f8 00
	00 00		 mov	 rcx, QWORD PTR tv76[rbp]
  00081	48 3b c8	 cmp	 rcx, rax
  00084	73 19		 jae	 SHORT $LN2@underflow

; 481  :             return _Traits::to_int_type(*_Mysb::gptr()); // return buffered

  00086	48 8b 8d 30 01
	00 00		 mov	 rcx, QWORD PTR this$[rbp]
  0008d	ff 15 00 00 00
	00		 call	 QWORD PTR __imp_?gptr@?$basic_streambuf@DU?$char_traits@D@std@@@std@@IEBAPEADXZ
  00093	48 8b c8	 mov	 rcx, rax
  00096	e8 00 00 00 00	 call	 ?to_int_type@?$_Narrow_char_traits@DH@std@@SAHAEBD@Z ; std::_Narrow_char_traits<char,int>::to_int_type
  0009b	eb 5c		 jmp	 SHORT $LN1@underflow
  0009d	eb 5a		 jmp	 SHORT $LN3@underflow
$LN2@underflow:

; 482  :         } else if (_Traits::eq_int_type(_Traits::eof(), _Meta = uflow())) {

  0009f	48 8b 85 30 01
	00 00		 mov	 rax, QWORD PTR this$[rbp]
  000a6	48 8b 00	 mov	 rax, QWORD PTR [rax]
  000a9	48 8b 8d 30 01
	00 00		 mov	 rcx, QWORD PTR this$[rbp]
  000b0	ff 50 38	 call	 QWORD PTR [rax+56]
  000b3	89 45 04	 mov	 DWORD PTR _Meta$[rbp], eax
  000b6	e8 00 00 00 00	 call	 ?eof@?$_Narrow_char_traits@DH@std@@SAHXZ ; std::_Narrow_char_traits<char,int>::eof
  000bb	89 85 e4 00 00
	00		 mov	 DWORD PTR $T4[rbp], eax
  000c1	48 8d 55 04	 lea	 rdx, QWORD PTR _Meta$[rbp]
  000c5	48 8d 8d e4 00
	00 00		 lea	 rcx, QWORD PTR $T4[rbp]
  000cc	e8 00 00 00 00	 call	 ?eq_int_type@?$_Narrow_char_traits@DH@std@@SA_NAEBH0@Z ; std::_Narrow_char_traits<char,int>::eq_int_type
  000d1	0f b6 c0	 movzx	 eax, al
  000d4	85 c0		 test	 eax, eax
  000d6	74 07		 je	 SHORT $LN4@underflow

; 483  :             return _Meta; // uflow failed, return EOF

  000d8	8b 45 04	 mov	 eax, DWORD PTR _Meta$[rbp]
  000db	eb 1c		 jmp	 SHORT $LN1@underflow

; 484  :         } else { // get a char, don't point past it

  000dd	eb 1a		 jmp	 SHORT $LN5@underflow
$LN4@underflow:

; 485  :             pbackfail(_Meta);

  000df	48 8b 85 30 01
	00 00		 mov	 rax, QWORD PTR this$[rbp]
  000e6	48 8b 00	 mov	 rax, QWORD PTR [rax]
  000e9	8b 55 04	 mov	 edx, DWORD PTR _Meta$[rbp]
  000ec	48 8b 8d 30 01
	00 00		 mov	 rcx, QWORD PTR this$[rbp]
  000f3	ff 50 20	 call	 QWORD PTR [rax+32]

; 486  :             return _Meta;

  000f6	8b 45 04	 mov	 eax, DWORD PTR _Meta$[rbp]
$LN5@underflow:
$LN3@underflow:
$LN1@underflow:

; 487  :         }
; 488  :     }

  000f9	48 8b f8	 mov	 rdi, rax
  000fc	48 8d 4d e0	 lea	 rcx, QWORD PTR [rbp-32]
  00100	48 8d 15 00 00
	00 00		 lea	 rdx, OFFSET FLAT:?underflow@?$basic_filebuf@DU?$char_traits@D@std@@@std@@MEAAHXZ$rtcFrameData
  00107	e8 00 00 00 00	 call	 _RTC_CheckStackVars
  0010c	48 8b c7	 mov	 rax, rdi
  0010f	48 8b 8d 00 01
	00 00		 mov	 rcx, QWORD PTR __$ArrayPad$[rbp]
  00116	48 33 cd	 xor	 rcx, rbp
  00119	e8 00 00 00 00	 call	 __security_check_cookie
  0011e	48 8d a5 18 01
	00 00		 lea	 rsp, QWORD PTR [rbp+280]
  00125	5f		 pop	 rdi
  00126	5d		 pop	 rbp
  00127	c3		 ret	 0
?underflow@?$basic_filebuf@DU?$char_traits@D@std@@@std@@MEAAHXZ ENDP ; std::basic_filebuf<char,std::char_traits<char> >::underflow
_TEXT	ENDS
; Function compile flags: /Odtp /RTCsu /ZI
; File C:\Program Files (x86)\Microsoft Visual Studio\2019\Enterprise\VC\Tools\MSVC\14.27.29110\include\fstream
;	COMDAT ?pbackfail@?$basic_filebuf@DU?$char_traits@D@std@@@std@@MEAAHH@Z
_TEXT	SEGMENT
$T1 = 196
$T2 = 228
$T3 = 260
$T4 = 292
tv76 = 312
this$ = 352
_Meta$ = 360
?pbackfail@?$basic_filebuf@DU?$char_traits@D@std@@@std@@MEAAHH@Z PROC ; std::basic_filebuf<char,std::char_traits<char> >::pbackfail, COMDAT

; 457  :     virtual int_type __CLR_OR_THIS_CALL pbackfail(int_type _Meta = _Traits::eof()) override {

$LN13:
  00000	89 54 24 10	 mov	 DWORD PTR [rsp+16], edx
  00004	48 89 4c 24 08	 mov	 QWORD PTR [rsp+8], rcx
  00009	55		 push	 rbp
  0000a	57		 push	 rdi
  0000b	48 81 ec 68 01
	00 00		 sub	 rsp, 360		; 00000168H
  00012	48 8d 6c 24 20	 lea	 rbp, QWORD PTR [rsp+32]
  00017	48 8b fc	 mov	 rdi, rsp
  0001a	b9 5a 00 00 00	 mov	 ecx, 90			; 0000005aH
  0001f	b8 cc cc cc cc	 mov	 eax, -858993460		; ccccccccH
  00024	f3 ab		 rep stosd
  00026	48 8b 8c 24 88
	01 00 00	 mov	 rcx, QWORD PTR [rsp+392]
  0002e	48 8d 0d 00 00
	00 00		 lea	 rcx, OFFSET FLAT:__21FC1C84_fstream
  00035	e8 00 00 00 00	 call	 __CheckForDebuggerJustMyCode

; 458  :         // put an element back to stream
; 459  :         if (_Mysb::gptr() && _Mysb::eback() < _Mysb::gptr()
; 460  :             && (_Traits::eq_int_type(_Traits::eof(), _Meta)

  0003a	48 8b 8d 60 01
	00 00		 mov	 rcx, QWORD PTR this$[rbp]
  00041	ff 15 00 00 00
	00		 call	 QWORD PTR __imp_?gptr@?$basic_streambuf@DU?$char_traits@D@std@@@std@@IEBAPEADXZ
  00047	48 85 c0	 test	 rax, rax
  0004a	0f 84 ba 00 00
	00		 je	 $LN2@pbackfail
  00050	48 8b 8d 60 01
	00 00		 mov	 rcx, QWORD PTR this$[rbp]
  00057	ff 15 00 00 00
	00		 call	 QWORD PTR __imp_?eback@?$basic_streambuf@DU?$char_traits@D@std@@@std@@IEBAPEADXZ
  0005d	48 89 85 38 01
	00 00		 mov	 QWORD PTR tv76[rbp], rax
  00064	48 8b 8d 60 01
	00 00		 mov	 rcx, QWORD PTR this$[rbp]
  0006b	ff 15 00 00 00
	00		 call	 QWORD PTR __imp_?gptr@?$basic_streambuf@DU?$char_traits@D@std@@@std@@IEBAPEADXZ
  00071	48 8b 8d 38 01
	00 00		 mov	 rcx, QWORD PTR tv76[rbp]
  00078	48 3b c8	 cmp	 rcx, rax
  0007b	0f 83 89 00 00
	00		 jae	 $LN2@pbackfail
  00081	e8 00 00 00 00	 call	 ?eof@?$_Narrow_char_traits@DH@std@@SAHXZ ; std::_Narrow_char_traits<char,int>::eof
  00086	89 85 c4 00 00
	00		 mov	 DWORD PTR $T1[rbp], eax
  0008c	48 8d 95 68 01
	00 00		 lea	 rdx, QWORD PTR _Meta$[rbp]
  00093	48 8d 8d c4 00
	00 00		 lea	 rcx, QWORD PTR $T1[rbp]
  0009a	e8 00 00 00 00	 call	 ?eq_int_type@?$_Narrow_char_traits@DH@std@@SA_NAEBH0@Z ; std::_Narrow_char_traits<char,int>::eq_int_type
  0009f	0f b6 c0	 movzx	 eax, al
  000a2	85 c0		 test	 eax, eax
  000a4	75 41		 jne	 SHORT $LN4@pbackfail
  000a6	48 8b 8d 60 01
	00 00		 mov	 rcx, QWORD PTR this$[rbp]
  000ad	ff 15 00 00 00
	00		 call	 QWORD PTR __imp_?gptr@?$basic_streambuf@DU?$char_traits@D@std@@@std@@IEBAPEADXZ
  000b3	b9 01 00 00 00	 mov	 ecx, 1
  000b8	48 6b c9 ff	 imul	 rcx, rcx, -1
  000bc	48 03 c1	 add	 rax, rcx
  000bf	48 8b c8	 mov	 rcx, rax
  000c2	e8 00 00 00 00	 call	 ?to_int_type@?$_Narrow_char_traits@DH@std@@SAHAEBD@Z ; std::_Narrow_char_traits<char,int>::to_int_type
  000c7	89 85 e4 00 00
	00		 mov	 DWORD PTR $T2[rbp], eax
  000cd	48 8d 95 68 01
	00 00		 lea	 rdx, QWORD PTR _Meta$[rbp]
  000d4	48 8d 8d e4 00
	00 00		 lea	 rcx, QWORD PTR $T2[rbp]
  000db	e8 00 00 00 00	 call	 ?eq_int_type@?$_Narrow_char_traits@DH@std@@SA_NAEBH0@Z ; std::_Narrow_char_traits<char,int>::eq_int_type
  000e0	0f b6 c0	 movzx	 eax, al
  000e3	85 c0		 test	 eax, eax
  000e5	74 23		 je	 SHORT $LN2@pbackfail
$LN4@pbackfail:

; 461  :                 || _Traits::eq_int_type(_Traits::to_int_type(_Mysb::gptr()[-1]),
; 462  :                     _Meta))) { // just back up position
; 463  :             _Mysb::_Gndec();

  000e7	48 8b 8d 60 01
	00 00		 mov	 rcx, QWORD PTR this$[rbp]
  000ee	ff 15 00 00 00
	00		 call	 QWORD PTR __imp_?_Gndec@?$basic_streambuf@DU?$char_traits@D@std@@@std@@IEAAPEADXZ

; 464  :             return _Traits::not_eof(_Meta);

  000f4	48 8d 8d 68 01
	00 00		 lea	 rcx, QWORD PTR _Meta$[rbp]
  000fb	e8 00 00 00 00	 call	 ?not_eof@?$_Narrow_char_traits@DH@std@@SAHAEBH@Z ; std::_Narrow_char_traits<char,int>::not_eof
  00100	e9 e3 00 00 00	 jmp	 $LN1@pbackfail
  00105	e9 de 00 00 00	 jmp	 $LN3@pbackfail
$LN2@pbackfail:

; 465  :         } else if (!_Myfile || _Traits::eq_int_type(_Traits::eof(), _Meta)) {

  0010a	48 8b 85 60 01
	00 00		 mov	 rax, QWORD PTR this$[rbp]
  00111	48 83 b8 80 00
	00 00 00	 cmp	 QWORD PTR [rax+128], 0
  00119	74 25		 je	 SHORT $LN7@pbackfail
  0011b	e8 00 00 00 00	 call	 ?eof@?$_Narrow_char_traits@DH@std@@SAHXZ ; std::_Narrow_char_traits<char,int>::eof
  00120	89 85 04 01 00
	00		 mov	 DWORD PTR $T3[rbp], eax
  00126	48 8d 95 68 01
	00 00		 lea	 rdx, QWORD PTR _Meta$[rbp]
  0012d	48 8d 8d 04 01
	00 00		 lea	 rcx, QWORD PTR $T3[rbp]
  00134	e8 00 00 00 00	 call	 ?eq_int_type@?$_Narrow_char_traits@DH@std@@SA_NAEBH0@Z ; std::_Narrow_char_traits<char,int>::eq_int_type
  00139	0f b6 c0	 movzx	 eax, al
  0013c	85 c0		 test	 eax, eax
  0013e	74 0f		 je	 SHORT $LN5@pbackfail
$LN7@pbackfail:

; 466  :             return _Traits::eof(); // no open C stream or EOF, fail

  00140	e8 00 00 00 00	 call	 ?eof@?$_Narrow_char_traits@DH@std@@SAHXZ ; std::_Narrow_char_traits<char,int>::eof
  00145	e9 9e 00 00 00	 jmp	 $LN1@pbackfail
  0014a	e9 99 00 00 00	 jmp	 $LN6@pbackfail
$LN5@pbackfail:

; 467  :         } else if (!_Pcvt && _Ungetc(_Traits::to_char_type(_Meta), _Myfile)) {

  0014f	48 8b 85 60 01
	00 00		 mov	 rax, QWORD PTR this$[rbp]
  00156	48 83 78 68 00	 cmp	 QWORD PTR [rax+104], 0
  0015b	75 3d		 jne	 SHORT $LN8@pbackfail
  0015d	48 8d 8d 68 01
	00 00		 lea	 rcx, QWORD PTR _Meta$[rbp]
  00164	e8 00 00 00 00	 call	 ?to_char_type@?$_Narrow_char_traits@DH@std@@SADAEBH@Z ; std::_Narrow_char_traits<char,int>::to_char_type
  00169	88 85 24 01 00
	00		 mov	 BYTE PTR $T4[rbp], al
  0016f	48 8b 85 60 01
	00 00		 mov	 rax, QWORD PTR this$[rbp]
  00176	48 8b 90 80 00
	00 00		 mov	 rdx, QWORD PTR [rax+128]
  0017d	48 8d 8d 24 01
	00 00		 lea	 rcx, QWORD PTR $T4[rbp]
  00184	e8 00 00 00 00	 call	 ??$_Ungetc@D@std@@YA_NAEBDPEAU_iobuf@@@Z ; std::_Ungetc<char>
  00189	0f b6 c0	 movzx	 eax, al
  0018c	85 c0		 test	 eax, eax
  0018e	74 0a		 je	 SHORT $LN8@pbackfail

; 468  :             return _Meta; // no facet and unget succeeded, return

  00190	8b 85 68 01 00
	00		 mov	 eax, DWORD PTR _Meta$[rbp]
  00196	eb 50		 jmp	 SHORT $LN1@pbackfail
  00198	eb 4e		 jmp	 SHORT $LN9@pbackfail
$LN8@pbackfail:

; 469  :         } else if (_Mysb::gptr() != &_Mychar) { // putback to _Mychar

  0019a	48 8b 8d 60 01
	00 00		 mov	 rcx, QWORD PTR this$[rbp]
  001a1	ff 15 00 00 00
	00		 call	 QWORD PTR __imp_?gptr@?$basic_streambuf@DU?$char_traits@D@std@@@std@@IEBAPEADXZ
  001a7	48 8b 8d 60 01
	00 00		 mov	 rcx, QWORD PTR this$[rbp]
  001ae	48 83 c1 70	 add	 rcx, 112		; 00000070H
  001b2	48 3b c1	 cmp	 rax, rcx
  001b5	74 2c		 je	 SHORT $LN10@pbackfail

; 470  :             _Mychar = _Traits::to_char_type(_Meta);

  001b7	48 8d 8d 68 01
	00 00		 lea	 rcx, QWORD PTR _Meta$[rbp]
  001be	e8 00 00 00 00	 call	 ?to_char_type@?$_Narrow_char_traits@DH@std@@SADAEBH@Z ; std::_Narrow_char_traits<char,int>::to_char_type
  001c3	48 8b 8d 60 01
	00 00		 mov	 rcx, QWORD PTR this$[rbp]
  001ca	88 41 70	 mov	 BYTE PTR [rcx+112], al

; 471  :             _Set_back(); // switch to _Mychar buffer

  001cd	48 8b 8d 60 01
	00 00		 mov	 rcx, QWORD PTR this$[rbp]
  001d4	e8 00 00 00 00	 call	 ?_Set_back@?$basic_filebuf@DU?$char_traits@D@std@@@std@@AEAAXXZ ; std::basic_filebuf<char,std::char_traits<char> >::_Set_back

; 472  :             return _Meta;

  001d9	8b 85 68 01 00
	00		 mov	 eax, DWORD PTR _Meta$[rbp]
  001df	eb 07		 jmp	 SHORT $LN1@pbackfail

; 473  :         } else {

  001e1	eb 05		 jmp	 SHORT $LN11@pbackfail
$LN10@pbackfail:

; 474  :             return _Traits::eof(); // nowhere to put back

  001e3	e8 00 00 00 00	 call	 ?eof@?$_Narrow_char_traits@DH@std@@SAHXZ ; std::_Narrow_char_traits<char,int>::eof
$LN11@pbackfail:
$LN9@pbackfail:
$LN6@pbackfail:
$LN3@pbackfail:
$LN1@pbackfail:

; 475  :         }
; 476  :     }

  001e8	48 8d a5 48 01
	00 00		 lea	 rsp, QWORD PTR [rbp+328]
  001ef	5f		 pop	 rdi
  001f0	5d		 pop	 rbp
  001f1	c3		 ret	 0
?pbackfail@?$basic_filebuf@DU?$char_traits@D@std@@@std@@MEAAHH@Z ENDP ; std::basic_filebuf<char,std::char_traits<char> >::pbackfail
_TEXT	ENDS
; Function compile flags: /Odtp /RTCsu /ZI
; File C:\Program Files (x86)\Microsoft Visual Studio\2019\Enterprise\VC\Tools\MSVC\14.27.29110\include\fstream
;	COMDAT ?overflow@?$basic_filebuf@DU?$char_traits@D@std@@@std@@MEAAHH@Z
_TEXT	SEGMENT
_Codecvt_temp_buf$ = 8
_Str$ = 40
_Ch$ = 100
_Src$ = 136
_Dest$ = 168
_Count$7 = 200
$T8 = 420
tv184 = 436
tv178 = 436
tv163 = 436
tv147 = 436
tv84 = 440
__$ArrayPad$ = 448
this$ = 496
_Meta$ = 504
?overflow@?$basic_filebuf@DU?$char_traits@D@std@@@std@@MEAAHH@Z PROC ; std::basic_filebuf<char,std::char_traits<char> >::overflow, COMDAT

; 406  :     virtual int_type __CLR_OR_THIS_CALL overflow(int_type _Meta = _Traits::eof()) override { // put an element to stream

$LN18:
  00000	89 54 24 10	 mov	 DWORD PTR [rsp+16], edx
  00004	48 89 4c 24 08	 mov	 QWORD PTR [rsp+8], rcx
  00009	55		 push	 rbp
  0000a	57		 push	 rdi
  0000b	48 81 ec 18 02
	00 00		 sub	 rsp, 536		; 00000218H
  00012	48 8d 6c 24 40	 lea	 rbp, QWORD PTR [rsp+64]
  00017	48 8b fc	 mov	 rdi, rsp
  0001a	b9 86 00 00 00	 mov	 ecx, 134		; 00000086H
  0001f	b8 cc cc cc cc	 mov	 eax, -858993460		; ccccccccH
  00024	f3 ab		 rep stosd
  00026	48 8b 8c 24 38
	02 00 00	 mov	 rcx, QWORD PTR [rsp+568]
  0002e	48 8b 05 00 00
	00 00		 mov	 rax, QWORD PTR __security_cookie
  00035	48 33 c5	 xor	 rax, rbp
  00038	48 89 85 c0 01
	00 00		 mov	 QWORD PTR __$ArrayPad$[rbp], rax
  0003f	48 8d 0d 00 00
	00 00		 lea	 rcx, OFFSET FLAT:__21FC1C84_fstream
  00046	e8 00 00 00 00	 call	 __CheckForDebuggerJustMyCode

; 407  :         if (_Traits::eq_int_type(_Traits::eof(), _Meta)) {

  0004b	e8 00 00 00 00	 call	 ?eof@?$_Narrow_char_traits@DH@std@@SAHXZ ; std::_Narrow_char_traits<char,int>::eof
  00050	89 85 a4 01 00
	00		 mov	 DWORD PTR $T8[rbp], eax
  00056	48 8d 95 f8 01
	00 00		 lea	 rdx, QWORD PTR _Meta$[rbp]
  0005d	48 8d 8d a4 01
	00 00		 lea	 rcx, QWORD PTR $T8[rbp]
  00064	e8 00 00 00 00	 call	 ?eq_int_type@?$_Narrow_char_traits@DH@std@@SA_NAEBH0@Z ; std::_Narrow_char_traits<char,int>::eq_int_type
  00069	0f b6 c0	 movzx	 eax, al
  0006c	85 c0		 test	 eax, eax
  0006e	74 11		 je	 SHORT $LN4@overflow

; 408  :             return _Traits::not_eof(_Meta); // EOF, return success code

  00070	48 8d 8d f8 01
	00 00		 lea	 rcx, QWORD PTR _Meta$[rbp]
  00077	e8 00 00 00 00	 call	 ?not_eof@?$_Narrow_char_traits@DH@std@@SAHAEBH@Z ; std::_Narrow_char_traits<char,int>::not_eof
  0007c	e9 4b 02 00 00	 jmp	 $LN1@overflow
$LN4@overflow:

; 409  :         }
; 410  : 
; 411  :         if (_Mysb::pptr() && _Mysb::pptr() < _Mysb::epptr()) { // room in buffer, store it

  00081	48 8b 8d f0 01
	00 00		 mov	 rcx, QWORD PTR this$[rbp]
  00088	ff 15 00 00 00
	00		 call	 QWORD PTR __imp_?pptr@?$basic_streambuf@DU?$char_traits@D@std@@@std@@IEBAPEADXZ
  0008e	48 85 c0	 test	 rax, rax
  00091	74 60		 je	 SHORT $LN5@overflow
  00093	48 8b 8d f0 01
	00 00		 mov	 rcx, QWORD PTR this$[rbp]
  0009a	ff 15 00 00 00
	00		 call	 QWORD PTR __imp_?pptr@?$basic_streambuf@DU?$char_traits@D@std@@@std@@IEBAPEADXZ
  000a0	48 89 85 b8 01
	00 00		 mov	 QWORD PTR tv84[rbp], rax
  000a7	48 8b 8d f0 01
	00 00		 mov	 rcx, QWORD PTR this$[rbp]
  000ae	ff 15 00 00 00
	00		 call	 QWORD PTR __imp_?epptr@?$basic_streambuf@DU?$char_traits@D@std@@@std@@IEBAPEADXZ
  000b4	48 8b 8d b8 01
	00 00		 mov	 rcx, QWORD PTR tv84[rbp]
  000bb	48 3b c8	 cmp	 rcx, rax
  000be	73 33		 jae	 SHORT $LN5@overflow

; 412  :             *_Mysb::_Pninc() = _Traits::to_char_type(_Meta);

  000c0	48 8d 8d f8 01
	00 00		 lea	 rcx, QWORD PTR _Meta$[rbp]
  000c7	e8 00 00 00 00	 call	 ?to_char_type@?$_Narrow_char_traits@DH@std@@SADAEBH@Z ; std::_Narrow_char_traits<char,int>::to_char_type
  000cc	88 85 b4 01 00
	00		 mov	 BYTE PTR tv178[rbp], al
  000d2	48 8b 8d f0 01
	00 00		 mov	 rcx, QWORD PTR this$[rbp]
  000d9	ff 15 00 00 00
	00		 call	 QWORD PTR __imp_?_Pninc@?$basic_streambuf@DU?$char_traits@D@std@@@std@@IEAAPEADXZ
  000df	0f b6 8d b4 01
	00 00		 movzx	 ecx, BYTE PTR tv178[rbp]
  000e6	88 08		 mov	 BYTE PTR [rax], cl

; 413  :             return _Meta;

  000e8	8b 85 f8 01 00
	00		 mov	 eax, DWORD PTR _Meta$[rbp]
  000ee	e9 d9 01 00 00	 jmp	 $LN1@overflow
$LN5@overflow:

; 414  :         }
; 415  : 
; 416  :         if (!_Myfile) {

  000f3	48 8b 85 f0 01
	00 00		 mov	 rax, QWORD PTR this$[rbp]
  000fa	48 83 b8 80 00
	00 00 00	 cmp	 QWORD PTR [rax+128], 0
  00102	75 0a		 jne	 SHORT $LN6@overflow

; 417  :             return _Traits::eof(); // no open C stream, fail

  00104	e8 00 00 00 00	 call	 ?eof@?$_Narrow_char_traits@DH@std@@SAHXZ ; std::_Narrow_char_traits<char,int>::eof
  00109	e9 be 01 00 00	 jmp	 $LN1@overflow
$LN6@overflow:

; 418  :         }
; 419  : 
; 420  :         _Reset_back(); // revert from _Mychar buffer

  0010e	48 8b 8d f0 01
	00 00		 mov	 rcx, QWORD PTR this$[rbp]
  00115	e8 00 00 00 00	 call	 ?_Reset_back@?$basic_filebuf@DU?$char_traits@D@std@@@std@@AEAAXXZ ; std::basic_filebuf<char,std::char_traits<char> >::_Reset_back

; 421  :         if (!_Pcvt) { // no codecvt facet, put as is

  0011a	48 8b 85 f0 01
	00 00		 mov	 rax, QWORD PTR this$[rbp]
  00121	48 83 78 68 00	 cmp	 QWORD PTR [rax+104], 0
  00126	75 4d		 jne	 SHORT $LN7@overflow

; 422  :             return _Fputc(_Traits::to_char_type(_Meta), _Myfile) ? _Meta : _Traits::eof();

  00128	48 8d 8d f8 01
	00 00		 lea	 rcx, QWORD PTR _Meta$[rbp]
  0012f	e8 00 00 00 00	 call	 ?to_char_type@?$_Narrow_char_traits@DH@std@@SADAEBH@Z ; std::_Narrow_char_traits<char,int>::to_char_type
  00134	48 8b 8d f0 01
	00 00		 mov	 rcx, QWORD PTR this$[rbp]
  0013b	48 8b 91 80 00
	00 00		 mov	 rdx, QWORD PTR [rcx+128]
  00142	0f b6 c8	 movzx	 ecx, al
  00145	e8 00 00 00 00	 call	 ??$_Fputc@D@std@@YA_NDPEAU_iobuf@@@Z ; std::_Fputc<char>
  0014a	0f b6 c0	 movzx	 eax, al
  0014d	85 c0		 test	 eax, eax
  0014f	74 0e		 je	 SHORT $LN14@overflow
  00151	8b 85 f8 01 00
	00		 mov	 eax, DWORD PTR _Meta$[rbp]
  00157	89 85 b4 01 00
	00		 mov	 DWORD PTR tv147[rbp], eax
  0015d	eb 0b		 jmp	 SHORT $LN15@overflow
$LN14@overflow:
  0015f	e8 00 00 00 00	 call	 ?eof@?$_Narrow_char_traits@DH@std@@SAHXZ ; std::_Narrow_char_traits<char,int>::eof
  00164	89 85 b4 01 00
	00		 mov	 DWORD PTR tv147[rbp], eax
$LN15@overflow:
  0016a	8b 85 b4 01 00
	00		 mov	 eax, DWORD PTR tv147[rbp]
  00170	e9 57 01 00 00	 jmp	 $LN1@overflow
$LN7@overflow:

; 423  :         }
; 424  : 
; 425  :         // put using codecvt facet
; 426  :         constexpr size_t _Codecvt_temp_buf = 32;

  00175	48 c7 45 08 20
	00 00 00	 mov	 QWORD PTR _Codecvt_temp_buf$[rbp], 32 ; 00000020H

; 427  :         char _Str[_Codecvt_temp_buf];
; 428  :         const _Elem _Ch = _Traits::to_char_type(_Meta);

  0017d	48 8d 8d f8 01
	00 00		 lea	 rcx, QWORD PTR _Meta$[rbp]
  00184	e8 00 00 00 00	 call	 ?to_char_type@?$_Narrow_char_traits@DH@std@@SADAEBH@Z ; std::_Narrow_char_traits<char,int>::to_char_type
  00189	88 45 64	 mov	 BYTE PTR _Ch$[rbp], al

; 429  :         const _Elem* _Src;
; 430  :         char* _Dest;
; 431  :         switch (_Pcvt->out(_State, &_Ch, &_Ch + 1, _Src, _Str, _Str + _Codecvt_temp_buf,

  0018c	48 8d 45 48	 lea	 rax, QWORD PTR _Str$[rbp+32]
  00190	48 8d 4d 65	 lea	 rcx, QWORD PTR _Ch$[rbp+1]
  00194	48 8b 95 f0 01
	00 00		 mov	 rdx, QWORD PTR this$[rbp]
  0019b	48 83 c2 74	 add	 rdx, 116		; 00000074H
  0019f	4c 8d 85 a8 00
	00 00		 lea	 r8, QWORD PTR _Dest$[rbp]
  001a6	4c 89 44 24 38	 mov	 QWORD PTR [rsp+56], r8
  001ab	48 89 44 24 30	 mov	 QWORD PTR [rsp+48], rax
  001b0	48 8d 45 28	 lea	 rax, QWORD PTR _Str$[rbp]
  001b4	48 89 44 24 28	 mov	 QWORD PTR [rsp+40], rax
  001b9	48 8d 85 88 00
	00 00		 lea	 rax, QWORD PTR _Src$[rbp]
  001c0	48 89 44 24 20	 mov	 QWORD PTR [rsp+32], rax
  001c5	4c 8b c9	 mov	 r9, rcx
  001c8	4c 8d 45 64	 lea	 r8, QWORD PTR _Ch$[rbp]
  001cc	48 8b 85 f0 01
	00 00		 mov	 rax, QWORD PTR this$[rbp]
  001d3	48 8b 48 68	 mov	 rcx, QWORD PTR [rax+104]
  001d7	ff 15 00 00 00
	00		 call	 QWORD PTR __imp_?out@?$codecvt@DDU_Mbstatet@@@std@@QEBAHAEAU_Mbstatet@@PEBD1AEAPEBDPEAD3AEAPEAD@Z
  001dd	89 85 b4 01 00
	00		 mov	 DWORD PTR tv163[rbp], eax
  001e3	83 bd b4 01 00
	00 00		 cmp	 DWORD PTR tv163[rbp], 0
  001ea	0f 8c d7 00 00
	00		 jl	 $LN12@overflow
  001f0	83 bd b4 01 00
	00 01		 cmp	 DWORD PTR tv163[rbp], 1
  001f7	7e 12		 jle	 SHORT $LN8@overflow
  001f9	83 bd b4 01 00
	00 03		 cmp	 DWORD PTR tv163[rbp], 3
  00200	0f 84 82 00 00
	00		 je	 $LN11@overflow
  00206	e9 bc 00 00 00	 jmp	 $LN12@overflow
$LN8@overflow:

; 432  :             _Dest)) { // test result of converting one element
; 433  :         case codecvt_base::partial:
; 434  :         case codecvt_base::ok: { // converted something, try to put it out
; 435  :             const auto _Count = static_cast<size_t>(_Dest - _Str);

  0020b	48 8d 45 28	 lea	 rax, QWORD PTR _Str$[rbp]
  0020f	48 8b 8d a8 00
	00 00		 mov	 rcx, QWORD PTR _Dest$[rbp]
  00216	48 2b c8	 sub	 rcx, rax
  00219	48 8b c1	 mov	 rax, rcx
  0021c	48 89 85 c8 00
	00 00		 mov	 QWORD PTR _Count$7[rbp], rax

; 436  :             if (0 < _Count && _Count != static_cast<size_t>(_CSTD fwrite(_Str, 1, _Count, _Myfile))) {

  00223	48 83 bd c8 00
	00 00 00	 cmp	 QWORD PTR _Count$7[rbp], 0
  0022b	76 34		 jbe	 SHORT $LN9@overflow
  0022d	48 8b 85 f0 01
	00 00		 mov	 rax, QWORD PTR this$[rbp]
  00234	4c 8b 88 80 00
	00 00		 mov	 r9, QWORD PTR [rax+128]
  0023b	4c 8b 85 c8 00
	00 00		 mov	 r8, QWORD PTR _Count$7[rbp]
  00242	ba 01 00 00 00	 mov	 edx, 1
  00247	48 8d 4d 28	 lea	 rcx, QWORD PTR _Str$[rbp]
  0024b	ff 15 00 00 00
	00		 call	 QWORD PTR __imp_fwrite
  00251	48 39 85 c8 00
	00 00		 cmp	 QWORD PTR _Count$7[rbp], rax
  00258	74 07		 je	 SHORT $LN9@overflow

; 437  :                 return _Traits::eof(); // write failed

  0025a	e8 00 00 00 00	 call	 ?eof@?$_Narrow_char_traits@DH@std@@SAHXZ ; std::_Narrow_char_traits<char,int>::eof
  0025f	eb 6b		 jmp	 SHORT $LN1@overflow
$LN9@overflow:

; 438  :             }
; 439  : 
; 440  :             _Wrotesome = true; // write succeeded

  00261	48 8b 85 f0 01
	00 00		 mov	 rax, QWORD PTR this$[rbp]
  00268	c6 40 71 01	 mov	 BYTE PTR [rax+113], 1

; 441  :             if (_Src != &_Ch) {

  0026c	48 8d 45 64	 lea	 rax, QWORD PTR _Ch$[rbp]
  00270	48 39 85 88 00
	00 00		 cmp	 QWORD PTR _Src$[rbp], rax
  00277	74 08		 je	 SHORT $LN10@overflow

; 442  :                 return _Meta; // converted whole element

  00279	8b 85 f8 01 00
	00		 mov	 eax, DWORD PTR _Meta$[rbp]
  0027f	eb 4b		 jmp	 SHORT $LN1@overflow
$LN10@overflow:

; 443  :             }
; 444  : 
; 445  :             return _Traits::eof(); // conversion failed

  00281	e8 00 00 00 00	 call	 ?eof@?$_Narrow_char_traits@DH@std@@SAHXZ ; std::_Narrow_char_traits<char,int>::eof
  00286	eb 44		 jmp	 SHORT $LN1@overflow
$LN11@overflow:

; 446  :         }
; 447  : 
; 448  :         case codecvt_base::noconv:
; 449  :             // no conversion, put as is
; 450  :             return _Fputc(_Ch, _Myfile) ? _Meta : _Traits::eof();

  00288	48 8b 85 f0 01
	00 00		 mov	 rax, QWORD PTR this$[rbp]
  0028f	48 8b 90 80 00
	00 00		 mov	 rdx, QWORD PTR [rax+128]
  00296	0f b6 4d 64	 movzx	 ecx, BYTE PTR _Ch$[rbp]
  0029a	e8 00 00 00 00	 call	 ??$_Fputc@D@std@@YA_NDPEAU_iobuf@@@Z ; std::_Fputc<char>
  0029f	0f b6 c0	 movzx	 eax, al
  002a2	85 c0		 test	 eax, eax
  002a4	74 0e		 je	 SHORT $LN16@overflow
  002a6	8b 85 f8 01 00
	00		 mov	 eax, DWORD PTR _Meta$[rbp]
  002ac	89 85 b4 01 00
	00		 mov	 DWORD PTR tv184[rbp], eax
  002b2	eb 0b		 jmp	 SHORT $LN17@overflow
$LN16@overflow:
  002b4	e8 00 00 00 00	 call	 ?eof@?$_Narrow_char_traits@DH@std@@SAHXZ ; std::_Narrow_char_traits<char,int>::eof
  002b9	89 85 b4 01 00
	00		 mov	 DWORD PTR tv184[rbp], eax
$LN17@overflow:
  002bf	8b 85 b4 01 00
	00		 mov	 eax, DWORD PTR tv184[rbp]
  002c5	eb 05		 jmp	 SHORT $LN1@overflow
$LN12@overflow:

; 451  : 
; 452  :         default:
; 453  :             return _Traits::eof(); // conversion failed

  002c7	e8 00 00 00 00	 call	 ?eof@?$_Narrow_char_traits@DH@std@@SAHXZ ; std::_Narrow_char_traits<char,int>::eof
$LN1@overflow:

; 454  :         }
; 455  :     }

  002cc	48 8b f8	 mov	 rdi, rax
  002cf	48 8d 4d c0	 lea	 rcx, QWORD PTR [rbp-64]
  002d3	48 8d 15 00 00
	00 00		 lea	 rdx, OFFSET FLAT:?overflow@?$basic_filebuf@DU?$char_traits@D@std@@@std@@MEAAHH@Z$rtcFrameData
  002da	e8 00 00 00 00	 call	 _RTC_CheckStackVars
  002df	48 8b c7	 mov	 rax, rdi
  002e2	48 8b 8d c0 01
	00 00		 mov	 rcx, QWORD PTR __$ArrayPad$[rbp]
  002e9	48 33 cd	 xor	 rcx, rbp
  002ec	e8 00 00 00 00	 call	 __security_check_cookie
  002f1	48 8d a5 d8 01
	00 00		 lea	 rsp, QWORD PTR [rbp+472]
  002f8	5f		 pop	 rdi
  002f9	5d		 pop	 rbp
  002fa	c3		 ret	 0
?overflow@?$basic_filebuf@DU?$char_traits@D@std@@@std@@MEAAHH@Z ENDP ; std::basic_filebuf<char,std::char_traits<char> >::overflow
_TEXT	ENDS
; Function compile flags: /Odtp /RTCsu /ZI
; File C:\Program Files (x86)\Microsoft Visual Studio\2019\Enterprise\VC\Tools\MSVC\14.27.29110\include\fstream
;	COMDAT ?_Unlock@?$basic_filebuf@DU?$char_traits@D@std@@@std@@UEAAXXZ
_TEXT	SEGMENT
this$ = 224
?_Unlock@?$basic_filebuf@DU?$char_traits@D@std@@@std@@UEAAXXZ PROC ; std::basic_filebuf<char,std::char_traits<char> >::_Unlock, COMDAT

; 399  :     virtual void __CLR_OR_THIS_CALL _Unlock() override { // unlock file instead of stream buffer

$LN4:
  00000	48 89 4c 24 08	 mov	 QWORD PTR [rsp+8], rcx
  00005	55		 push	 rbp
  00006	57		 push	 rdi
  00007	48 81 ec e8 00
	00 00		 sub	 rsp, 232		; 000000e8H
  0000e	48 8d 6c 24 20	 lea	 rbp, QWORD PTR [rsp+32]
  00013	48 8b fc	 mov	 rdi, rsp
  00016	b9 3a 00 00 00	 mov	 ecx, 58			; 0000003aH
  0001b	b8 cc cc cc cc	 mov	 eax, -858993460		; ccccccccH
  00020	f3 ab		 rep stosd
  00022	48 8b 8c 24 08
	01 00 00	 mov	 rcx, QWORD PTR [rsp+264]
  0002a	48 8d 0d 00 00
	00 00		 lea	 rcx, OFFSET FLAT:__21FC1C84_fstream
  00031	e8 00 00 00 00	 call	 __CheckForDebuggerJustMyCode

; 400  :         if (_Myfile) {

  00036	48 8b 85 e0 00
	00 00		 mov	 rax, QWORD PTR this$[rbp]
  0003d	48 83 b8 80 00
	00 00 00	 cmp	 QWORD PTR [rax+128], 0
  00045	74 14		 je	 SHORT $LN2@Unlock

; 401  :             _CSTD _unlock_file(_Myfile);

  00047	48 8b 85 e0 00
	00 00		 mov	 rax, QWORD PTR this$[rbp]
  0004e	48 8b 88 80 00
	00 00		 mov	 rcx, QWORD PTR [rax+128]
  00055	ff 15 00 00 00
	00		 call	 QWORD PTR __imp__unlock_file
$LN2@Unlock:

; 402  :         }
; 403  :     }

  0005b	48 8d a5 c8 00
	00 00		 lea	 rsp, QWORD PTR [rbp+200]
  00062	5f		 pop	 rdi
  00063	5d		 pop	 rbp
  00064	c3		 ret	 0
?_Unlock@?$basic_filebuf@DU?$char_traits@D@std@@@std@@UEAAXXZ ENDP ; std::basic_filebuf<char,std::char_traits<char> >::_Unlock
_TEXT	ENDS
; Function compile flags: /Odtp /RTCsu /ZI
; File C:\Program Files (x86)\Microsoft Visual Studio\2019\Enterprise\VC\Tools\MSVC\14.27.29110\include\fstream
;	COMDAT ?_Lock@?$basic_filebuf@DU?$char_traits@D@std@@@std@@UEAAXXZ
_TEXT	SEGMENT
this$ = 224
?_Lock@?$basic_filebuf@DU?$char_traits@D@std@@@std@@UEAAXXZ PROC ; std::basic_filebuf<char,std::char_traits<char> >::_Lock, COMDAT

; 393  :     virtual void __CLR_OR_THIS_CALL _Lock() override { // lock file instead of stream buffer

$LN4:
  00000	48 89 4c 24 08	 mov	 QWORD PTR [rsp+8], rcx
  00005	55		 push	 rbp
  00006	57		 push	 rdi
  00007	48 81 ec e8 00
	00 00		 sub	 rsp, 232		; 000000e8H
  0000e	48 8d 6c 24 20	 lea	 rbp, QWORD PTR [rsp+32]
  00013	48 8b fc	 mov	 rdi, rsp
  00016	b9 3a 00 00 00	 mov	 ecx, 58			; 0000003aH
  0001b	b8 cc cc cc cc	 mov	 eax, -858993460		; ccccccccH
  00020	f3 ab		 rep stosd
  00022	48 8b 8c 24 08
	01 00 00	 mov	 rcx, QWORD PTR [rsp+264]
  0002a	48 8d 0d 00 00
	00 00		 lea	 rcx, OFFSET FLAT:__21FC1C84_fstream
  00031	e8 00 00 00 00	 call	 __CheckForDebuggerJustMyCode

; 394  :         if (_Myfile) {

  00036	48 8b 85 e0 00
	00 00		 mov	 rax, QWORD PTR this$[rbp]
  0003d	48 83 b8 80 00
	00 00 00	 cmp	 QWORD PTR [rax+128], 0
  00045	74 14		 je	 SHORT $LN2@Lock

; 395  :             _CSTD _lock_file(_Myfile);

  00047	48 8b 85 e0 00
	00 00		 mov	 rax, QWORD PTR this$[rbp]
  0004e	48 8b 88 80 00
	00 00		 mov	 rcx, QWORD PTR [rax+128]
  00055	ff 15 00 00 00
	00		 call	 QWORD PTR __imp__lock_file
$LN2@Lock:

; 396  :         }
; 397  :     }

  0005b	48 8d a5 c8 00
	00 00		 lea	 rsp, QWORD PTR [rbp+200]
  00062	5f		 pop	 rdi
  00063	5d		 pop	 rbp
  00064	c3		 ret	 0
?_Lock@?$basic_filebuf@DU?$char_traits@D@std@@@std@@UEAAXXZ ENDP ; std::basic_filebuf<char,std::char_traits<char> >::_Lock
_TEXT	ENDS
; Function compile flags: /Odtp /RTCsu /ZI
; File C:\Program Files (x86)\Microsoft Visual Studio\2019\Enterprise\VC\Tools\MSVC\14.27.29110\include\fstream
;	COMDAT ?close@?$basic_filebuf@DU?$char_traits@D@std@@@std@@QEAAPEAV12@XZ
_TEXT	SEGMENT
_Ans$ = 8
this$ = 256
?close@?$basic_filebuf@DU?$char_traits@D@std@@@std@@QEAAPEAV12@XZ PROC ; std::basic_filebuf<char,std::char_traits<char> >::close, COMDAT

; 374  :     basic_filebuf* close() {

$LN7:
  00000	48 89 4c 24 08	 mov	 QWORD PTR [rsp+8], rcx
  00005	55		 push	 rbp
  00006	57		 push	 rdi
  00007	48 81 ec 08 01
	00 00		 sub	 rsp, 264		; 00000108H
  0000e	48 8d 6c 24 20	 lea	 rbp, QWORD PTR [rsp+32]
  00013	48 8b fc	 mov	 rdi, rsp
  00016	b9 42 00 00 00	 mov	 ecx, 66			; 00000042H
  0001b	b8 cc cc cc cc	 mov	 eax, -858993460		; ccccccccH
  00020	f3 ab		 rep stosd
  00022	48 8b 8c 24 28
	01 00 00	 mov	 rcx, QWORD PTR [rsp+296]
  0002a	48 8d 0d 00 00
	00 00		 lea	 rcx, OFFSET FLAT:__21FC1C84_fstream
  00031	e8 00 00 00 00	 call	 __CheckForDebuggerJustMyCode

; 375  :         basic_filebuf* _Ans;
; 376  :         if (_Myfile) { // put any homing sequence and close file

  00036	48 8b 85 00 01
	00 00		 mov	 rax, QWORD PTR this$[rbp]
  0003d	48 83 b8 80 00
	00 00 00	 cmp	 QWORD PTR [rax+128], 0
  00045	74 48		 je	 SHORT $LN2@close

; 377  :             _Ans = this;

  00047	48 8b 85 00 01
	00 00		 mov	 rax, QWORD PTR this$[rbp]
  0004e	48 89 45 08	 mov	 QWORD PTR _Ans$[rbp], rax

; 378  :             if (!_Endwrite()) {

  00052	48 8b 8d 00 01
	00 00		 mov	 rcx, QWORD PTR this$[rbp]
  00059	e8 00 00 00 00	 call	 ?_Endwrite@?$basic_filebuf@DU?$char_traits@D@std@@@std@@IEAA_NXZ ; std::basic_filebuf<char,std::char_traits<char> >::_Endwrite
  0005e	0f b6 c0	 movzx	 eax, al
  00061	85 c0		 test	 eax, eax
  00063	75 08		 jne	 SHORT $LN4@close

; 379  :                 _Ans = nullptr;

  00065	48 c7 45 08 00
	00 00 00	 mov	 QWORD PTR _Ans$[rbp], 0
$LN4@close:

; 380  :             }
; 381  : 
; 382  :             if (_CSTD fclose(_Myfile) != 0) {

  0006d	48 8b 85 00 01
	00 00		 mov	 rax, QWORD PTR this$[rbp]
  00074	48 8b 88 80 00
	00 00		 mov	 rcx, QWORD PTR [rax+128]
  0007b	ff 15 00 00 00
	00		 call	 QWORD PTR __imp_fclose
  00081	85 c0		 test	 eax, eax
  00083	74 08		 je	 SHORT $LN5@close

; 383  :                 _Ans = nullptr;

  00085	48 c7 45 08 00
	00 00 00	 mov	 QWORD PTR _Ans$[rbp], 0
$LN5@close:

; 384  :             }
; 385  :         } else {

  0008d	eb 08		 jmp	 SHORT $LN3@close
$LN2@close:

; 386  :             _Ans = nullptr;

  0008f	48 c7 45 08 00
	00 00 00	 mov	 QWORD PTR _Ans$[rbp], 0
$LN3@close:

; 387  :         }
; 388  : 
; 389  :         _Init(nullptr, _Closefl);

  00097	41 b8 02 00 00
	00		 mov	 r8d, 2
  0009d	33 d2		 xor	 edx, edx
  0009f	48 8b 8d 00 01
	00 00		 mov	 rcx, QWORD PTR this$[rbp]
  000a6	e8 00 00 00 00	 call	 ?_Init@?$basic_filebuf@DU?$char_traits@D@std@@@std@@IEAAXPEAU_iobuf@@W4_Initfl@12@@Z ; std::basic_filebuf<char,std::char_traits<char> >::_Init

; 390  :         return _Ans;

  000ab	48 8b 45 08	 mov	 rax, QWORD PTR _Ans$[rbp]

; 391  :     }

  000af	48 8d a5 e8 00
	00 00		 lea	 rsp, QWORD PTR [rbp+232]
  000b6	5f		 pop	 rdi
  000b7	5d		 pop	 rbp
  000b8	c3		 ret	 0
?close@?$basic_filebuf@DU?$char_traits@D@std@@@std@@QEAAPEAV12@XZ ENDP ; std::basic_filebuf<char,std::char_traits<char> >::close
_TEXT	ENDS
; Function compile flags: /Odtp /RTCsu /ZI
; File C:\Program Files (x86)\Microsoft Visual Studio\2019\Enterprise\VC\Tools\MSVC\14.27.29110\include\fstream
;	COMDAT ?open@?$basic_filebuf@DU?$char_traits@D@std@@@std@@QEAAPEAV12@PEB_WHH@Z
_TEXT	SEGMENT
_File$ = 8
$T1 = 232
tv90 = 264
tv89 = 272
this$ = 320
_Filename$ = 328
_Mode$ = 336
_Prot$ = 344
?open@?$basic_filebuf@DU?$char_traits@D@std@@@std@@QEAAPEAV12@PEB_WHH@Z PROC ; std::basic_filebuf<char,std::char_traits<char> >::open, COMDAT

; 302  :     basic_filebuf* open(const wchar_t* _Filename, ios_base::openmode _Mode, int _Prot = ios_base::_Default_open_prot) {

$LN6:
  00000	44 89 4c 24 20	 mov	 DWORD PTR [rsp+32], r9d
  00005	44 89 44 24 18	 mov	 DWORD PTR [rsp+24], r8d
  0000a	48 89 54 24 10	 mov	 QWORD PTR [rsp+16], rdx
  0000f	48 89 4c 24 08	 mov	 QWORD PTR [rsp+8], rcx
  00014	55		 push	 rbp
  00015	57		 push	 rdi
  00016	48 81 ec 48 01
	00 00		 sub	 rsp, 328		; 00000148H
  0001d	48 8d 6c 24 20	 lea	 rbp, QWORD PTR [rsp+32]
  00022	48 8b fc	 mov	 rdi, rsp
  00025	b9 52 00 00 00	 mov	 ecx, 82			; 00000052H
  0002a	b8 cc cc cc cc	 mov	 eax, -858993460		; ccccccccH
  0002f	f3 ab		 rep stosd
  00031	48 8b 8c 24 68
	01 00 00	 mov	 rcx, QWORD PTR [rsp+360]
  00039	48 8d 0d 00 00
	00 00		 lea	 rcx, OFFSET FLAT:__21FC1C84_fstream
  00040	e8 00 00 00 00	 call	 __CheckForDebuggerJustMyCode

; 303  :         // in standard as const std::filesystem::path::value_type *; _Prot is an extension
; 304  :         if (_Myfile) {

  00045	48 8b 85 40 01
	00 00		 mov	 rax, QWORD PTR this$[rbp]
  0004c	48 83 b8 80 00
	00 00 00	 cmp	 QWORD PTR [rax+128], 0
  00054	74 07		 je	 SHORT $LN2@open

; 305  :             return nullptr;

  00056	33 c0		 xor	 eax, eax
  00058	e9 96 00 00 00	 jmp	 $LN1@open
$LN2@open:

; 306  :         }
; 307  : 
; 308  :         const auto _File = _Fiopen(_Filename, _Mode, _Prot);

  0005d	44 8b 85 58 01
	00 00		 mov	 r8d, DWORD PTR _Prot$[rbp]
  00064	8b 95 50 01 00
	00		 mov	 edx, DWORD PTR _Mode$[rbp]
  0006a	48 8b 8d 48 01
	00 00		 mov	 rcx, QWORD PTR _Filename$[rbp]
  00071	e8 00 00 00 00	 call	 ?_Fiopen@std@@YAPEAU_iobuf@@PEB_WHH@Z ; std::_Fiopen
  00076	48 89 45 08	 mov	 QWORD PTR _File$[rbp], rax

; 309  :         if (!_File) {

  0007a	48 83 7d 08 00	 cmp	 QWORD PTR _File$[rbp], 0
  0007f	75 04		 jne	 SHORT $LN3@open

; 310  :             return nullptr; // open failed

  00081	33 c0		 xor	 eax, eax
  00083	eb 6e		 jmp	 SHORT $LN1@open
$LN3@open:

; 311  :         }
; 312  : 
; 313  :         _Init(_File, _Openfl);

  00085	41 b8 01 00 00
	00		 mov	 r8d, 1
  0008b	48 8b 55 08	 mov	 rdx, QWORD PTR _File$[rbp]
  0008f	48 8b 8d 40 01
	00 00		 mov	 rcx, QWORD PTR this$[rbp]
  00096	e8 00 00 00 00	 call	 ?_Init@?$basic_filebuf@DU?$char_traits@D@std@@@std@@IEAAXPEAU_iobuf@@W4_Initfl@12@@Z ; std::basic_filebuf<char,std::char_traits<char> >::_Init

; 314  :         _Initcvt(_STD use_facet<_Cvt>(_Mysb::getloc()));

  0009b	48 8d 95 e8 00
	00 00		 lea	 rdx, QWORD PTR $T1[rbp]
  000a2	48 8b 8d 40 01
	00 00		 mov	 rcx, QWORD PTR this$[rbp]
  000a9	ff 15 00 00 00
	00		 call	 QWORD PTR __imp_?getloc@?$basic_streambuf@DU?$char_traits@D@std@@@std@@QEBA?AVlocale@2@XZ
  000af	48 89 85 08 01
	00 00		 mov	 QWORD PTR tv90[rbp], rax
  000b6	48 8b 85 08 01
	00 00		 mov	 rax, QWORD PTR tv90[rbp]
  000bd	48 89 85 10 01
	00 00		 mov	 QWORD PTR tv89[rbp], rax
  000c4	48 8b 8d 10 01
	00 00		 mov	 rcx, QWORD PTR tv89[rbp]
  000cb	e8 00 00 00 00	 call	 ??$use_facet@V?$codecvt@DDU_Mbstatet@@@std@@@std@@YAAEBV?$codecvt@DDU_Mbstatet@@@0@AEBVlocale@0@@Z ; std::use_facet<std::codecvt<char,char,_Mbstatet> >
  000d0	48 8b d0	 mov	 rdx, rax
  000d3	48 8b 8d 40 01
	00 00		 mov	 rcx, QWORD PTR this$[rbp]
  000da	e8 00 00 00 00	 call	 ?_Initcvt@?$basic_filebuf@DU?$char_traits@D@std@@@std@@IEAAXAEBV?$codecvt@DDU_Mbstatet@@@2@@Z ; std::basic_filebuf<char,std::char_traits<char> >::_Initcvt
  000df	90		 npad	 1
  000e0	48 8d 8d e8 00
	00 00		 lea	 rcx, QWORD PTR $T1[rbp]
  000e7	e8 00 00 00 00	 call	 ??1locale@std@@QEAA@XZ	; std::locale::~locale

; 315  :         return this; // open succeeded

  000ec	48 8b 85 40 01
	00 00		 mov	 rax, QWORD PTR this$[rbp]
$LN1@open:

; 316  :     }

  000f3	48 8d a5 28 01
	00 00		 lea	 rsp, QWORD PTR [rbp+296]
  000fa	5f		 pop	 rdi
  000fb	5d		 pop	 rbp
  000fc	c3		 ret	 0
?open@?$basic_filebuf@DU?$char_traits@D@std@@@std@@QEAAPEAV12@PEB_WHH@Z ENDP ; std::basic_filebuf<char,std::char_traits<char> >::open
_TEXT	ENDS
;	COMDAT text$x
text$x	SEGMENT
_File$ = 8
$T1 = 232
tv90 = 264
tv89 = 272
this$ = 320
_Filename$ = 328
_Mode$ = 336
_Prot$ = 344
?dtor$0@?0??open@?$basic_filebuf@DU?$char_traits@D@std@@@std@@QEAAPEAV12@PEB_WHH@Z@4HA PROC ; `std::basic_filebuf<char,std::char_traits<char> >::open'::`1'::dtor$0
  00000	48 89 4c 24 08	 mov	 QWORD PTR [rsp+8], rcx
  00005	48 89 54 24 10	 mov	 QWORD PTR [rsp+16], rdx
  0000a	55		 push	 rbp
  0000b	57		 push	 rdi
  0000c	48 83 ec 28	 sub	 rsp, 40			; 00000028H
  00010	48 8d 6a 20	 lea	 rbp, QWORD PTR [rdx+32]
  00014	48 8d 8d e8 00
	00 00		 lea	 rcx, QWORD PTR $T1[rbp]
  0001b	e8 00 00 00 00	 call	 ??1locale@std@@QEAA@XZ	; std::locale::~locale
  00020	48 83 c4 28	 add	 rsp, 40			; 00000028H
  00024	5f		 pop	 rdi
  00025	5d		 pop	 rbp
  00026	c3		 ret	 0
?dtor$0@?0??open@?$basic_filebuf@DU?$char_traits@D@std@@@std@@QEAAPEAV12@PEB_WHH@Z@4HA ENDP ; `std::basic_filebuf<char,std::char_traits<char> >::open'::`1'::dtor$0
text$x	ENDS
; Function compile flags: /Odtp /RTCsu /ZI
;	COMDAT text$x
text$x	SEGMENT
_File$ = 8
$T1 = 232
tv90 = 264
tv89 = 272
this$ = 320
_Filename$ = 328
_Mode$ = 336
_Prot$ = 344
?dtor$0@?0??open@?$basic_filebuf@DU?$char_traits@D@std@@@std@@QEAAPEAV12@PEB_WHH@Z@4HA PROC ; `std::basic_filebuf<char,std::char_traits<char> >::open'::`1'::dtor$0
  00000	48 89 4c 24 08	 mov	 QWORD PTR [rsp+8], rcx
  00005	48 89 54 24 10	 mov	 QWORD PTR [rsp+16], rdx
  0000a	55		 push	 rbp
  0000b	57		 push	 rdi
  0000c	48 83 ec 28	 sub	 rsp, 40			; 00000028H
  00010	48 8d 6a 20	 lea	 rbp, QWORD PTR [rdx+32]
  00014	48 8d 8d e8 00
	00 00		 lea	 rcx, QWORD PTR $T1[rbp]
  0001b	e8 00 00 00 00	 call	 ??1locale@std@@QEAA@XZ	; std::locale::~locale
  00020	48 83 c4 28	 add	 rsp, 40			; 00000028H
  00024	5f		 pop	 rdi
  00025	5d		 pop	 rbp
  00026	c3		 ret	 0
?dtor$0@?0??open@?$basic_filebuf@DU?$char_traits@D@std@@@std@@QEAAPEAV12@PEB_WHH@Z@4HA ENDP ; `std::basic_filebuf<char,std::char_traits<char> >::open'::`1'::dtor$0
text$x	ENDS
; Function compile flags: /Odtp /RTCsu /ZI
; File C:\Program Files (x86)\Microsoft Visual Studio\2019\Enterprise\VC\Tools\MSVC\14.27.29110\include\fstream
;	COMDAT ??1?$basic_filebuf@DU?$char_traits@D@std@@@std@@UEAA@XZ
_TEXT	SEGMENT
this$ = 224
??1?$basic_filebuf@DU?$char_traits@D@std@@@std@@UEAA@XZ PROC ; std::basic_filebuf<char,std::char_traits<char> >::~basic_filebuf<char,std::char_traits<char> >, COMDAT

; 170  :     virtual __CLR_OR_THIS_CALL ~basic_filebuf() noexcept {

$LN5:
  00000	48 89 4c 24 08	 mov	 QWORD PTR [rsp+8], rcx
  00005	55		 push	 rbp
  00006	57		 push	 rdi
  00007	48 81 ec e8 00
	00 00		 sub	 rsp, 232		; 000000e8H
  0000e	48 8d 6c 24 20	 lea	 rbp, QWORD PTR [rsp+32]
  00013	48 8b fc	 mov	 rdi, rsp
  00016	b9 3a 00 00 00	 mov	 ecx, 58			; 0000003aH
  0001b	b8 cc cc cc cc	 mov	 eax, -858993460		; ccccccccH
  00020	f3 ab		 rep stosd
  00022	48 8b 8c 24 08
	01 00 00	 mov	 rcx, QWORD PTR [rsp+264]
  0002a	48 8d 0d 00 00
	00 00		 lea	 rcx, OFFSET FLAT:__21FC1C84_fstream
  00031	e8 00 00 00 00	 call	 __CheckForDebuggerJustMyCode
  00036	48 8b 85 e0 00
	00 00		 mov	 rax, QWORD PTR this$[rbp]
  0003d	48 8d 0d 00 00
	00 00		 lea	 rcx, OFFSET FLAT:??_7?$basic_filebuf@DU?$char_traits@D@std@@@std@@6B@
  00044	48 89 08	 mov	 QWORD PTR [rax], rcx

; 171  :         if (_Myfile) {

  00047	48 8b 85 e0 00
	00 00		 mov	 rax, QWORD PTR this$[rbp]
  0004e	48 83 b8 80 00
	00 00 00	 cmp	 QWORD PTR [rax+128], 0
  00056	74 0c		 je	 SHORT $LN2@basic_file

; 172  :             _Reset_back(); // revert from _Mychar buffer

  00058	48 8b 8d e0 00
	00 00		 mov	 rcx, QWORD PTR this$[rbp]
  0005f	e8 00 00 00 00	 call	 ?_Reset_back@?$basic_filebuf@DU?$char_traits@D@std@@@std@@AEAAXXZ ; std::basic_filebuf<char,std::char_traits<char> >::_Reset_back
$LN2@basic_file:

; 173  :         }
; 174  : 
; 175  :         if (_Closef) {

  00064	48 8b 85 e0 00
	00 00		 mov	 rax, QWORD PTR this$[rbp]
  0006b	0f b6 40 7c	 movzx	 eax, BYTE PTR [rax+124]
  0006f	85 c0		 test	 eax, eax
  00071	74 0c		 je	 SHORT $LN3@basic_file

; 176  :             close();

  00073	48 8b 8d e0 00
	00 00		 mov	 rcx, QWORD PTR this$[rbp]
  0007a	e8 00 00 00 00	 call	 ?close@?$basic_filebuf@DU?$char_traits@D@std@@@std@@QEAAPEAV12@XZ ; std::basic_filebuf<char,std::char_traits<char> >::close
$LN3@basic_file:

; 177  :         }
; 178  :     }

  0007f	48 8b 8d e0 00
	00 00		 mov	 rcx, QWORD PTR this$[rbp]
  00086	ff 15 00 00 00
	00		 call	 QWORD PTR __imp_??1?$basic_streambuf@DU?$char_traits@D@std@@@std@@UEAA@XZ
  0008c	90		 npad	 1
  0008d	48 8d a5 c8 00
	00 00		 lea	 rsp, QWORD PTR [rbp+200]
  00094	5f		 pop	 rdi
  00095	5d		 pop	 rbp
  00096	c3		 ret	 0
??1?$basic_filebuf@DU?$char_traits@D@std@@@std@@UEAA@XZ ENDP ; std::basic_filebuf<char,std::char_traits<char> >::~basic_filebuf<char,std::char_traits<char> >
_TEXT	ENDS
; Function compile flags: /Odtp /RTCsu /ZI
; File C:\Program Files (x86)\Microsoft Visual Studio\2019\Enterprise\VC\Tools\MSVC\14.27.29110\include\fstream
;	COMDAT ??0?$basic_filebuf@DU?$char_traits@D@std@@@std@@QEAA@XZ
_TEXT	SEGMENT
this$ = 224
??0?$basic_filebuf@DU?$char_traits@D@std@@@std@@QEAA@XZ PROC ; std::basic_filebuf<char,std::char_traits<char> >::basic_filebuf<char,std::char_traits<char> >, COMDAT

; 162  :     basic_filebuf() : _Mysb() {

$LN4:
  00000	48 89 4c 24 08	 mov	 QWORD PTR [rsp+8], rcx
  00005	55		 push	 rbp
  00006	57		 push	 rdi
  00007	48 81 ec e8 00
	00 00		 sub	 rsp, 232		; 000000e8H
  0000e	48 8d 6c 24 20	 lea	 rbp, QWORD PTR [rsp+32]
  00013	48 8b fc	 mov	 rdi, rsp
  00016	b9 3a 00 00 00	 mov	 ecx, 58			; 0000003aH
  0001b	b8 cc cc cc cc	 mov	 eax, -858993460		; ccccccccH
  00020	f3 ab		 rep stosd
  00022	48 8b 8c 24 08
	01 00 00	 mov	 rcx, QWORD PTR [rsp+264]
  0002a	48 8d 0d 00 00
	00 00		 lea	 rcx, OFFSET FLAT:__21FC1C84_fstream
  00031	e8 00 00 00 00	 call	 __CheckForDebuggerJustMyCode
  00036	48 8b 8d e0 00
	00 00		 mov	 rcx, QWORD PTR this$[rbp]
  0003d	ff 15 00 00 00
	00		 call	 QWORD PTR __imp_??0?$basic_streambuf@DU?$char_traits@D@std@@@std@@IEAA@XZ
  00043	90		 npad	 1
  00044	48 8b 85 e0 00
	00 00		 mov	 rax, QWORD PTR this$[rbp]
  0004b	48 8d 0d 00 00
	00 00		 lea	 rcx, OFFSET FLAT:??_7?$basic_filebuf@DU?$char_traits@D@std@@@std@@6B@
  00052	48 89 08	 mov	 QWORD PTR [rax], rcx

; 163  :         _Init(nullptr, _Newfl);

  00055	45 33 c0	 xor	 r8d, r8d
  00058	33 d2		 xor	 edx, edx
  0005a	48 8b 8d e0 00
	00 00		 mov	 rcx, QWORD PTR this$[rbp]
  00061	e8 00 00 00 00	 call	 ?_Init@?$basic_filebuf@DU?$char_traits@D@std@@@std@@IEAAXPEAU_iobuf@@W4_Initfl@12@@Z ; std::basic_filebuf<char,std::char_traits<char> >::_Init
  00066	90		 npad	 1

; 164  :     }

  00067	48 8b 85 e0 00
	00 00		 mov	 rax, QWORD PTR this$[rbp]
  0006e	48 8d a5 c8 00
	00 00		 lea	 rsp, QWORD PTR [rbp+200]
  00075	5f		 pop	 rdi
  00076	5d		 pop	 rbp
  00077	c3		 ret	 0
??0?$basic_filebuf@DU?$char_traits@D@std@@@std@@QEAA@XZ ENDP ; std::basic_filebuf<char,std::char_traits<char> >::basic_filebuf<char,std::char_traits<char> >
_TEXT	ENDS
;	COMDAT text$x
text$x	SEGMENT
this$ = 224
?dtor$0@?0???0?$basic_filebuf@DU?$char_traits@D@std@@@std@@QEAA@XZ@4HA PROC ; `std::basic_filebuf<char,std::char_traits<char> >::basic_filebuf<char,std::char_traits<char> >'::`1'::dtor$0
  00000	48 89 4c 24 08	 mov	 QWORD PTR [rsp+8], rcx
  00005	48 89 54 24 10	 mov	 QWORD PTR [rsp+16], rdx
  0000a	55		 push	 rbp
  0000b	57		 push	 rdi
  0000c	48 83 ec 28	 sub	 rsp, 40			; 00000028H
  00010	48 8d 6a 20	 lea	 rbp, QWORD PTR [rdx+32]
  00014	48 8b 8d e0 00
	00 00		 mov	 rcx, QWORD PTR this$[rbp]
  0001b	ff 15 00 00 00
	00		 call	 QWORD PTR __imp_??1?$basic_streambuf@DU?$char_traits@D@std@@@std@@UEAA@XZ
  00021	48 83 c4 28	 add	 rsp, 40			; 00000028H
  00025	5f		 pop	 rdi
  00026	5d		 pop	 rbp
  00027	c3		 ret	 0
?dtor$0@?0???0?$basic_filebuf@DU?$char_traits@D@std@@@std@@QEAA@XZ@4HA ENDP ; `std::basic_filebuf<char,std::char_traits<char> >::basic_filebuf<char,std::char_traits<char> >'::`1'::dtor$0
text$x	ENDS
; Function compile flags: /Odtp /RTCsu /ZI
;	COMDAT text$x
text$x	SEGMENT
this$ = 224
?dtor$0@?0???0?$basic_filebuf@DU?$char_traits@D@std@@@std@@QEAA@XZ@4HA PROC ; `std::basic_filebuf<char,std::char_traits<char> >::basic_filebuf<char,std::char_traits<char> >'::`1'::dtor$0
  00000	48 89 4c 24 08	 mov	 QWORD PTR [rsp+8], rcx
  00005	48 89 54 24 10	 mov	 QWORD PTR [rsp+16], rdx
  0000a	55		 push	 rbp
  0000b	57		 push	 rdi
  0000c	48 83 ec 28	 sub	 rsp, 40			; 00000028H
  00010	48 8d 6a 20	 lea	 rbp, QWORD PTR [rdx+32]
  00014	48 8b 8d e0 00
	00 00		 mov	 rcx, QWORD PTR this$[rbp]
  0001b	ff 15 00 00 00
	00		 call	 QWORD PTR __imp_??1?$basic_streambuf@DU?$char_traits@D@std@@@std@@UEAA@XZ
  00021	48 83 c4 28	 add	 rsp, 40			; 00000028H
  00025	5f		 pop	 rdi
  00026	5d		 pop	 rbp
  00027	c3		 ret	 0
?dtor$0@?0???0?$basic_filebuf@DU?$char_traits@D@std@@@std@@QEAA@XZ@4HA ENDP ; `std::basic_filebuf<char,std::char_traits<char> >::basic_filebuf<char,std::char_traits<char> >'::`1'::dtor$0
text$x	ENDS
; Function compile flags: /Odtp /RTCsu /ZI
; File C:\Program Files (x86)\Microsoft Visual Studio\2019\Enterprise\VC\Tools\MSVC\14.27.29110\include\fstream
;	COMDAT ?close@?$basic_fstream@DU?$char_traits@D@std@@@std@@QEAAXXZ
_TEXT	SEGMENT
this$ = 224
?close@?$basic_fstream@DU?$char_traits@D@std@@@std@@QEAAXXZ PROC ; std::basic_fstream<char,std::char_traits<char> >::close, COMDAT

; 1368 :     void close() {

$LN4:
  00000	48 89 4c 24 08	 mov	 QWORD PTR [rsp+8], rcx
  00005	55		 push	 rbp
  00006	57		 push	 rdi
  00007	48 81 ec e8 00
	00 00		 sub	 rsp, 232		; 000000e8H
  0000e	48 8d 6c 24 20	 lea	 rbp, QWORD PTR [rsp+32]
  00013	48 8b fc	 mov	 rdi, rsp
  00016	b9 3a 00 00 00	 mov	 ecx, 58			; 0000003aH
  0001b	b8 cc cc cc cc	 mov	 eax, -858993460		; ccccccccH
  00020	f3 ab		 rep stosd
  00022	48 8b 8c 24 08
	01 00 00	 mov	 rcx, QWORD PTR [rsp+264]
  0002a	48 8d 0d 00 00
	00 00		 lea	 rcx, OFFSET FLAT:__21FC1C84_fstream
  00031	e8 00 00 00 00	 call	 __CheckForDebuggerJustMyCode

; 1369 :         if (!_Filebuffer.close()) {

  00036	48 8b 85 e0 00
	00 00		 mov	 rax, QWORD PTR this$[rbp]
  0003d	48 83 c0 18	 add	 rax, 24
  00041	48 8b c8	 mov	 rcx, rax
  00044	e8 00 00 00 00	 call	 ?close@?$basic_filebuf@DU?$char_traits@D@std@@@std@@QEAAPEAV12@XZ ; std::basic_filebuf<char,std::char_traits<char> >::close
  00049	48 85 c0	 test	 rax, rax
  0004c	75 2c		 jne	 SHORT $LN2@close

; 1370 :             _Myios::setstate(ios_base::failbit);

  0004e	48 8b 85 e0 00
	00 00		 mov	 rax, QWORD PTR this$[rbp]
  00055	48 8b 00	 mov	 rax, QWORD PTR [rax]
  00058	48 63 40 04	 movsxd	 rax, DWORD PTR [rax+4]
  0005c	48 8b 8d e0 00
	00 00		 mov	 rcx, QWORD PTR this$[rbp]
  00063	48 03 c8	 add	 rcx, rax
  00066	48 8b c1	 mov	 rax, rcx
  00069	45 33 c0	 xor	 r8d, r8d
  0006c	ba 02 00 00 00	 mov	 edx, 2
  00071	48 8b c8	 mov	 rcx, rax
  00074	ff 15 00 00 00
	00		 call	 QWORD PTR __imp_?setstate@?$basic_ios@DU?$char_traits@D@std@@@std@@QEAAXH_N@Z
$LN2@close:

; 1371 :         }
; 1372 :     }

  0007a	48 8d a5 c8 00
	00 00		 lea	 rsp, QWORD PTR [rbp+200]
  00081	5f		 pop	 rdi
  00082	5d		 pop	 rbp
  00083	c3		 ret	 0
?close@?$basic_fstream@DU?$char_traits@D@std@@@std@@QEAAXXZ ENDP ; std::basic_fstream<char,std::char_traits<char> >::close
_TEXT	ENDS
; Function compile flags: /Odtp /RTCsu /ZI
; File C:\Program Files (x86)\Microsoft Visual Studio\2019\Enterprise\VC\Tools\MSVC\14.27.29110\include\fstream
;	COMDAT ??1?$basic_fstream@DU?$char_traits@D@std@@@std@@UEAA@XZ
_TEXT	SEGMENT
this$ = 224
??1?$basic_fstream@DU?$char_traits@D@std@@@std@@UEAA@XZ PROC ; std::basic_fstream<char,std::char_traits<char> >::~basic_fstream<char,std::char_traits<char> >, COMDAT

; 1336 :     virtual __CLR_OR_THIS_CALL ~basic_fstream() noexcept {}

$LN3:
  00000	48 89 4c 24 08	 mov	 QWORD PTR [rsp+8], rcx
  00005	55		 push	 rbp
  00006	57		 push	 rdi
  00007	48 81 ec e8 00
	00 00		 sub	 rsp, 232		; 000000e8H
  0000e	48 8d 6c 24 20	 lea	 rbp, QWORD PTR [rsp+32]
  00013	48 8b fc	 mov	 rdi, rsp
  00016	b9 3a 00 00 00	 mov	 ecx, 58			; 0000003aH
  0001b	b8 cc cc cc cc	 mov	 eax, -858993460		; ccccccccH
  00020	f3 ab		 rep stosd
  00022	48 8b 8c 24 08
	01 00 00	 mov	 rcx, QWORD PTR [rsp+264]
  0002a	48 8d 0d 00 00
	00 00		 lea	 rcx, OFFSET FLAT:__21FC1C84_fstream
  00031	e8 00 00 00 00	 call	 __CheckForDebuggerJustMyCode
  00036	48 8b 85 e0 00
	00 00		 mov	 rax, QWORD PTR this$[rbp]
  0003d	48 8b 80 48 ff
	ff ff		 mov	 rax, QWORD PTR [rax-184]
  00044	48 63 40 04	 movsxd	 rax, DWORD PTR [rax+4]
  00048	48 8b 8d e0 00
	00 00		 mov	 rcx, QWORD PTR this$[rbp]
  0004f	48 8d 15 00 00
	00 00		 lea	 rdx, OFFSET FLAT:??_7?$basic_fstream@DU?$char_traits@D@std@@@std@@6B@
  00056	48 89 94 01 48
	ff ff ff	 mov	 QWORD PTR [rcx+rax-184], rdx
  0005e	48 8b 85 e0 00
	00 00		 mov	 rax, QWORD PTR this$[rbp]
  00065	48 8b 80 48 ff
	ff ff		 mov	 rax, QWORD PTR [rax-184]
  0006c	48 63 40 04	 movsxd	 rax, DWORD PTR [rax+4]
  00070	48 2d b8 00 00
	00		 sub	 rax, 184		; 000000b8H
  00076	48 8b 8d e0 00
	00 00		 mov	 rcx, QWORD PTR this$[rbp]
  0007d	48 8b 89 48 ff
	ff ff		 mov	 rcx, QWORD PTR [rcx-184]
  00084	48 63 49 04	 movsxd	 rcx, DWORD PTR [rcx+4]
  00088	48 8b 95 e0 00
	00 00		 mov	 rdx, QWORD PTR this$[rbp]
  0008f	89 84 0a 44 ff
	ff ff		 mov	 DWORD PTR [rdx+rcx-188], eax
  00096	48 8b 85 e0 00
	00 00		 mov	 rax, QWORD PTR this$[rbp]
  0009d	48 2d a0 00 00
	00		 sub	 rax, 160		; 000000a0H
  000a3	48 8b c8	 mov	 rcx, rax
  000a6	e8 00 00 00 00	 call	 ??1?$basic_filebuf@DU?$char_traits@D@std@@@std@@UEAA@XZ ; std::basic_filebuf<char,std::char_traits<char> >::~basic_filebuf<char,std::char_traits<char> >
  000ab	48 8b 85 e0 00
	00 00		 mov	 rax, QWORD PTR this$[rbp]
  000b2	48 2d 98 00 00
	00		 sub	 rax, 152		; 00000098H
  000b8	48 8b c8	 mov	 rcx, rax
  000bb	ff 15 00 00 00
	00		 call	 QWORD PTR __imp_??1?$basic_iostream@DU?$char_traits@D@std@@@std@@UEAA@XZ
  000c1	90		 npad	 1
  000c2	48 8d a5 c8 00
	00 00		 lea	 rsp, QWORD PTR [rbp+200]
  000c9	5f		 pop	 rdi
  000ca	5d		 pop	 rbp
  000cb	c3		 ret	 0
??1?$basic_fstream@DU?$char_traits@D@std@@@std@@UEAA@XZ ENDP ; std::basic_fstream<char,std::char_traits<char> >::~basic_fstream<char,std::char_traits<char> >
_TEXT	ENDS
; Function compile flags: /Odtp /RTCsu /ZI
; File C:\Program Files (x86)\Microsoft Visual Studio\2019\Enterprise\VC\Tools\MSVC\14.27.29110\include\fstream
;	COMDAT ??0?$basic_fstream@DU?$char_traits@D@std@@@std@@QEAA@PEB_WHH@Z
_TEXT	SEGMENT
$T1 = 196
this$ = 256
_Filename$ = 264
_Mode$ = 272
_Prot$ = 280
$initVBases$ = 288
??0?$basic_fstream@DU?$char_traits@D@std@@@std@@QEAA@PEB_WHH@Z PROC ; std::basic_fstream<char,std::char_traits<char> >::basic_fstream<char,std::char_traits<char> >, COMDAT

; 1210 :     explicit basic_fstream(const wchar_t* _Filename, ios_base::openmode _Mode = ios_base::in | ios_base::out,

$LN9:
  00000	44 89 4c 24 20	 mov	 DWORD PTR [rsp+32], r9d
  00005	44 89 44 24 18	 mov	 DWORD PTR [rsp+24], r8d
  0000a	48 89 54 24 10	 mov	 QWORD PTR [rsp+16], rdx
  0000f	48 89 4c 24 08	 mov	 QWORD PTR [rsp+8], rcx
  00014	55		 push	 rbp
  00015	57		 push	 rdi
  00016	48 81 ec 08 01
	00 00		 sub	 rsp, 264		; 00000108H
  0001d	48 8d 6c 24 20	 lea	 rbp, QWORD PTR [rsp+32]
  00022	48 8b fc	 mov	 rdi, rsp
  00025	b9 42 00 00 00	 mov	 ecx, 66			; 00000042H
  0002a	b8 cc cc cc cc	 mov	 eax, -858993460		; ccccccccH
  0002f	f3 ab		 rep stosd
  00031	48 8b 8c 24 28
	01 00 00	 mov	 rcx, QWORD PTR [rsp+296]
  00039	c7 85 c4 00 00
	00 00 00 00 00	 mov	 DWORD PTR $T1[rbp], 0
  00043	48 8d 0d 00 00
	00 00		 lea	 rcx, OFFSET FLAT:__21FC1C84_fstream
  0004a	e8 00 00 00 00	 call	 __CheckForDebuggerJustMyCode

; 1211 :         int _Prot = ios_base::_Default_open_prot)
; 1212 :         : _Mybase(_STD addressof(_Filebuffer)) {

  0004f	83 bd 20 01 00
	00 00		 cmp	 DWORD PTR $initVBases$[rbp], 0
  00056	74 49		 je	 SHORT $LN2@basic_fstr
  00058	48 8b 85 00 01
	00 00		 mov	 rax, QWORD PTR this$[rbp]
  0005f	48 8d 0d 00 00
	00 00		 lea	 rcx, OFFSET FLAT:??_8?$basic_fstream@DU?$char_traits@D@std@@@std@@7B?$basic_istream@DU?$char_traits@D@std@@@1@@
  00066	48 89 08	 mov	 QWORD PTR [rax], rcx
  00069	48 8b 85 00 01
	00 00		 mov	 rax, QWORD PTR this$[rbp]
  00070	48 8d 0d 00 00
	00 00		 lea	 rcx, OFFSET FLAT:??_8?$basic_fstream@DU?$char_traits@D@std@@@std@@7B?$basic_ostream@DU?$char_traits@D@std@@@1@@
  00077	48 89 48 10	 mov	 QWORD PTR [rax+16], rcx
  0007b	48 8b 85 00 01
	00 00		 mov	 rax, QWORD PTR this$[rbp]
  00082	48 05 b8 00 00
	00		 add	 rax, 184		; 000000b8H
  00088	48 8b c8	 mov	 rcx, rax
  0008b	ff 15 00 00 00
	00		 call	 QWORD PTR __imp_??0?$basic_ios@DU?$char_traits@D@std@@@std@@IEAA@XZ
  00091	90		 npad	 1
  00092	8b 85 c4 00 00
	00		 mov	 eax, DWORD PTR $T1[rbp]
  00098	83 c8 01	 or	 eax, 1
  0009b	89 85 c4 00 00
	00		 mov	 DWORD PTR $T1[rbp], eax
$LN2@basic_fstr:
  000a1	48 8b 85 00 01
	00 00		 mov	 rax, QWORD PTR this$[rbp]
  000a8	48 83 c0 18	 add	 rax, 24
  000ac	48 8b c8	 mov	 rcx, rax
  000af	e8 00 00 00 00	 call	 ??$addressof@V?$basic_filebuf@DU?$char_traits@D@std@@@std@@@std@@YAPEAV?$basic_filebuf@DU?$char_traits@D@std@@@0@AEAV10@@Z ; std::addressof<std::basic_filebuf<char,std::char_traits<char> > >
  000b4	45 33 c0	 xor	 r8d, r8d
  000b7	48 8b d0	 mov	 rdx, rax
  000ba	48 8b 8d 00 01
	00 00		 mov	 rcx, QWORD PTR this$[rbp]
  000c1	ff 15 00 00 00
	00		 call	 QWORD PTR __imp_??0?$basic_iostream@DU?$char_traits@D@std@@@std@@QEAA@PEAV?$basic_streambuf@DU?$char_traits@D@std@@@1@@Z
  000c7	90		 npad	 1
  000c8	48 8b 85 00 01
	00 00		 mov	 rax, QWORD PTR this$[rbp]
  000cf	48 8b 00	 mov	 rax, QWORD PTR [rax]
  000d2	48 63 40 04	 movsxd	 rax, DWORD PTR [rax+4]
  000d6	48 8b 8d 00 01
	00 00		 mov	 rcx, QWORD PTR this$[rbp]
  000dd	48 8d 15 00 00
	00 00		 lea	 rdx, OFFSET FLAT:??_7?$basic_fstream@DU?$char_traits@D@std@@@std@@6B@
  000e4	48 89 14 01	 mov	 QWORD PTR [rcx+rax], rdx
  000e8	48 8b 85 00 01
	00 00		 mov	 rax, QWORD PTR this$[rbp]
  000ef	48 8b 00	 mov	 rax, QWORD PTR [rax]
  000f2	48 63 40 04	 movsxd	 rax, DWORD PTR [rax+4]
  000f6	48 2d b8 00 00
	00		 sub	 rax, 184		; 000000b8H
  000fc	48 8b 8d 00 01
	00 00		 mov	 rcx, QWORD PTR this$[rbp]
  00103	48 8b 09	 mov	 rcx, QWORD PTR [rcx]
  00106	48 63 49 04	 movsxd	 rcx, DWORD PTR [rcx+4]
  0010a	48 8b 95 00 01
	00 00		 mov	 rdx, QWORD PTR this$[rbp]
  00111	89 44 0a fc	 mov	 DWORD PTR [rdx+rcx-4], eax
  00115	48 8b 85 00 01
	00 00		 mov	 rax, QWORD PTR this$[rbp]
  0011c	48 83 c0 18	 add	 rax, 24
  00120	48 8b c8	 mov	 rcx, rax
  00123	e8 00 00 00 00	 call	 ??0?$basic_filebuf@DU?$char_traits@D@std@@@std@@QEAA@XZ ; std::basic_filebuf<char,std::char_traits<char> >::basic_filebuf<char,std::char_traits<char> >
  00128	90		 npad	 1

; 1213 :         // in standard as const std::filesystem::path::value_type *; _Prot is an extension
; 1214 :         if (!_Filebuffer.open(_Filename, _Mode, _Prot)) {

  00129	48 8b 85 00 01
	00 00		 mov	 rax, QWORD PTR this$[rbp]
  00130	48 83 c0 18	 add	 rax, 24
  00134	44 8b 8d 18 01
	00 00		 mov	 r9d, DWORD PTR _Prot$[rbp]
  0013b	44 8b 85 10 01
	00 00		 mov	 r8d, DWORD PTR _Mode$[rbp]
  00142	48 8b 95 08 01
	00 00		 mov	 rdx, QWORD PTR _Filename$[rbp]
  00149	48 8b c8	 mov	 rcx, rax
  0014c	e8 00 00 00 00	 call	 ?open@?$basic_filebuf@DU?$char_traits@D@std@@@std@@QEAAPEAV12@PEB_WHH@Z ; std::basic_filebuf<char,std::char_traits<char> >::open
  00151	48 85 c0	 test	 rax, rax
  00154	75 2d		 jne	 SHORT $LN3@basic_fstr

; 1215 :             _Myios::setstate(ios_base::failbit);

  00156	48 8b 85 00 01
	00 00		 mov	 rax, QWORD PTR this$[rbp]
  0015d	48 8b 00	 mov	 rax, QWORD PTR [rax]
  00160	48 63 40 04	 movsxd	 rax, DWORD PTR [rax+4]
  00164	48 8b 8d 00 01
	00 00		 mov	 rcx, QWORD PTR this$[rbp]
  0016b	48 03 c8	 add	 rcx, rax
  0016e	48 8b c1	 mov	 rax, rcx
  00171	45 33 c0	 xor	 r8d, r8d
  00174	ba 02 00 00 00	 mov	 edx, 2
  00179	48 8b c8	 mov	 rcx, rax
  0017c	ff 15 00 00 00
	00		 call	 QWORD PTR __imp_?setstate@?$basic_ios@DU?$char_traits@D@std@@@std@@QEAAXH_N@Z
  00182	90		 npad	 1
$LN3@basic_fstr:

; 1216 :         }
; 1217 :     }

  00183	48 8b 85 00 01
	00 00		 mov	 rax, QWORD PTR this$[rbp]
  0018a	48 8d a5 e8 00
	00 00		 lea	 rsp, QWORD PTR [rbp+232]
  00191	5f		 pop	 rdi
  00192	5d		 pop	 rbp
  00193	c3		 ret	 0
??0?$basic_fstream@DU?$char_traits@D@std@@@std@@QEAA@PEB_WHH@Z ENDP ; std::basic_fstream<char,std::char_traits<char> >::basic_fstream<char,std::char_traits<char> >
_TEXT	ENDS
;	COMDAT text$x
text$x	SEGMENT
$T1 = 196
this$ = 256
_Filename$ = 264
_Mode$ = 272
_Prot$ = 280
$initVBases$ = 288
?dtor$0@?0???0?$basic_fstream@DU?$char_traits@D@std@@@std@@QEAA@PEB_WHH@Z@4HA PROC ; `std::basic_fstream<char,std::char_traits<char> >::basic_fstream<char,std::char_traits<char> >'::`1'::dtor$0
  00000	48 89 4c 24 08	 mov	 QWORD PTR [rsp+8], rcx
  00005	48 89 54 24 10	 mov	 QWORD PTR [rsp+16], rdx
  0000a	55		 push	 rbp
  0000b	57		 push	 rdi
  0000c	48 83 ec 28	 sub	 rsp, 40			; 00000028H
  00010	48 8d 6a 20	 lea	 rbp, QWORD PTR [rdx+32]
  00014	8b 85 c4 00 00
	00		 mov	 eax, DWORD PTR $T1[rbp]
  0001a	83 e0 01	 and	 eax, 1
  0001d	85 c0		 test	 eax, eax
  0001f	74 1b		 je	 SHORT $LN6@dtor$0
  00021	83 a5 c4 00 00
	00 fe		 and	 DWORD PTR $T1[rbp], -2
  00028	48 8b 8d 00 01
	00 00		 mov	 rcx, QWORD PTR this$[rbp]
  0002f	48 81 c1 b8 00
	00 00		 add	 rcx, 184		; 000000b8H
  00036	ff 15 00 00 00
	00		 call	 QWORD PTR __imp_??1?$basic_ios@DU?$char_traits@D@std@@@std@@UEAA@XZ
$LN6@dtor$0:
  0003c	48 83 c4 28	 add	 rsp, 40			; 00000028H
  00040	5f		 pop	 rdi
  00041	5d		 pop	 rbp
  00042	c3		 ret	 0
?dtor$0@?0???0?$basic_fstream@DU?$char_traits@D@std@@@std@@QEAA@PEB_WHH@Z@4HA ENDP ; `std::basic_fstream<char,std::char_traits<char> >::basic_fstream<char,std::char_traits<char> >'::`1'::dtor$0
text$x	ENDS
;	COMDAT text$x
text$x	SEGMENT
$T1 = 196
this$ = 256
_Filename$ = 264
_Mode$ = 272
_Prot$ = 280
$initVBases$ = 288
?dtor$1@?0???0?$basic_fstream@DU?$char_traits@D@std@@@std@@QEAA@PEB_WHH@Z@4HA PROC ; `std::basic_fstream<char,std::char_traits<char> >::basic_fstream<char,std::char_traits<char> >'::`1'::dtor$1
  00000	48 89 4c 24 08	 mov	 QWORD PTR [rsp+8], rcx
  00005	48 89 54 24 10	 mov	 QWORD PTR [rsp+16], rdx
  0000a	55		 push	 rbp
  0000b	57		 push	 rdi
  0000c	48 83 ec 28	 sub	 rsp, 40			; 00000028H
  00010	48 8d 6a 20	 lea	 rbp, QWORD PTR [rdx+32]
  00014	48 8b 8d 00 01
	00 00		 mov	 rcx, QWORD PTR this$[rbp]
  0001b	48 83 c1 20	 add	 rcx, 32			; 00000020H
  0001f	ff 15 00 00 00
	00		 call	 QWORD PTR __imp_??1?$basic_iostream@DU?$char_traits@D@std@@@std@@UEAA@XZ
  00025	48 83 c4 28	 add	 rsp, 40			; 00000028H
  00029	5f		 pop	 rdi
  0002a	5d		 pop	 rbp
  0002b	c3		 ret	 0
?dtor$1@?0???0?$basic_fstream@DU?$char_traits@D@std@@@std@@QEAA@PEB_WHH@Z@4HA ENDP ; `std::basic_fstream<char,std::char_traits<char> >::basic_fstream<char,std::char_traits<char> >'::`1'::dtor$1
text$x	ENDS
;	COMDAT text$x
text$x	SEGMENT
$T1 = 196
this$ = 256
_Filename$ = 264
_Mode$ = 272
_Prot$ = 280
$initVBases$ = 288
?dtor$2@?0???0?$basic_fstream@DU?$char_traits@D@std@@@std@@QEAA@PEB_WHH@Z@4HA PROC ; `std::basic_fstream<char,std::char_traits<char> >::basic_fstream<char,std::char_traits<char> >'::`1'::dtor$2
  00000	48 89 4c 24 08	 mov	 QWORD PTR [rsp+8], rcx
  00005	48 89 54 24 10	 mov	 QWORD PTR [rsp+16], rdx
  0000a	55		 push	 rbp
  0000b	57		 push	 rdi
  0000c	48 83 ec 28	 sub	 rsp, 40			; 00000028H
  00010	48 8d 6a 20	 lea	 rbp, QWORD PTR [rdx+32]
  00014	48 8b 8d 00 01
	00 00		 mov	 rcx, QWORD PTR this$[rbp]
  0001b	48 83 c1 18	 add	 rcx, 24
  0001f	e8 00 00 00 00	 call	 ??1?$basic_filebuf@DU?$char_traits@D@std@@@std@@UEAA@XZ ; std::basic_filebuf<char,std::char_traits<char> >::~basic_filebuf<char,std::char_traits<char> >
  00024	48 83 c4 28	 add	 rsp, 40			; 00000028H
  00028	5f		 pop	 rdi
  00029	5d		 pop	 rbp
  0002a	c3		 ret	 0
?dtor$2@?0???0?$basic_fstream@DU?$char_traits@D@std@@@std@@QEAA@PEB_WHH@Z@4HA ENDP ; `std::basic_fstream<char,std::char_traits<char> >::basic_fstream<char,std::char_traits<char> >'::`1'::dtor$2
text$x	ENDS
; Function compile flags: /Odtp /RTCsu /ZI
;	COMDAT text$x
text$x	SEGMENT
$T1 = 196
this$ = 256
_Filename$ = 264
_Mode$ = 272
_Prot$ = 280
$initVBases$ = 288
?dtor$0@?0???0?$basic_fstream@DU?$char_traits@D@std@@@std@@QEAA@PEB_WHH@Z@4HA PROC ; `std::basic_fstream<char,std::char_traits<char> >::basic_fstream<char,std::char_traits<char> >'::`1'::dtor$0
  00000	48 89 4c 24 08	 mov	 QWORD PTR [rsp+8], rcx
  00005	48 89 54 24 10	 mov	 QWORD PTR [rsp+16], rdx
  0000a	55		 push	 rbp
  0000b	57		 push	 rdi
  0000c	48 83 ec 28	 sub	 rsp, 40			; 00000028H
  00010	48 8d 6a 20	 lea	 rbp, QWORD PTR [rdx+32]
  00014	8b 85 c4 00 00
	00		 mov	 eax, DWORD PTR $T1[rbp]
  0001a	83 e0 01	 and	 eax, 1
  0001d	85 c0		 test	 eax, eax
  0001f	74 1b		 je	 SHORT $LN6@dtor$0
  00021	83 a5 c4 00 00
	00 fe		 and	 DWORD PTR $T1[rbp], -2
  00028	48 8b 8d 00 01
	00 00		 mov	 rcx, QWORD PTR this$[rbp]
  0002f	48 81 c1 b8 00
	00 00		 add	 rcx, 184		; 000000b8H
  00036	ff 15 00 00 00
	00		 call	 QWORD PTR __imp_??1?$basic_ios@DU?$char_traits@D@std@@@std@@UEAA@XZ
$LN6@dtor$0:
  0003c	48 83 c4 28	 add	 rsp, 40			; 00000028H
  00040	5f		 pop	 rdi
  00041	5d		 pop	 rbp
  00042	c3		 ret	 0
?dtor$0@?0???0?$basic_fstream@DU?$char_traits@D@std@@@std@@QEAA@PEB_WHH@Z@4HA ENDP ; `std::basic_fstream<char,std::char_traits<char> >::basic_fstream<char,std::char_traits<char> >'::`1'::dtor$0
text$x	ENDS
; Function compile flags: /Odtp /RTCsu /ZI
;	COMDAT text$x
text$x	SEGMENT
$T1 = 196
this$ = 256
_Filename$ = 264
_Mode$ = 272
_Prot$ = 280
$initVBases$ = 288
?dtor$1@?0???0?$basic_fstream@DU?$char_traits@D@std@@@std@@QEAA@PEB_WHH@Z@4HA PROC ; `std::basic_fstream<char,std::char_traits<char> >::basic_fstream<char,std::char_traits<char> >'::`1'::dtor$1
  00000	48 89 4c 24 08	 mov	 QWORD PTR [rsp+8], rcx
  00005	48 89 54 24 10	 mov	 QWORD PTR [rsp+16], rdx
  0000a	55		 push	 rbp
  0000b	57		 push	 rdi
  0000c	48 83 ec 28	 sub	 rsp, 40			; 00000028H
  00010	48 8d 6a 20	 lea	 rbp, QWORD PTR [rdx+32]
  00014	48 8b 8d 00 01
	00 00		 mov	 rcx, QWORD PTR this$[rbp]
  0001b	48 83 c1 20	 add	 rcx, 32			; 00000020H
  0001f	ff 15 00 00 00
	00		 call	 QWORD PTR __imp_??1?$basic_iostream@DU?$char_traits@D@std@@@std@@UEAA@XZ
  00025	48 83 c4 28	 add	 rsp, 40			; 00000028H
  00029	5f		 pop	 rdi
  0002a	5d		 pop	 rbp
  0002b	c3		 ret	 0
?dtor$1@?0???0?$basic_fstream@DU?$char_traits@D@std@@@std@@QEAA@PEB_WHH@Z@4HA ENDP ; `std::basic_fstream<char,std::char_traits<char> >::basic_fstream<char,std::char_traits<char> >'::`1'::dtor$1
text$x	ENDS
; Function compile flags: /Odtp /RTCsu /ZI
;	COMDAT text$x
text$x	SEGMENT
$T1 = 196
this$ = 256
_Filename$ = 264
_Mode$ = 272
_Prot$ = 280
$initVBases$ = 288
?dtor$2@?0???0?$basic_fstream@DU?$char_traits@D@std@@@std@@QEAA@PEB_WHH@Z@4HA PROC ; `std::basic_fstream<char,std::char_traits<char> >::basic_fstream<char,std::char_traits<char> >'::`1'::dtor$2
  00000	48 89 4c 24 08	 mov	 QWORD PTR [rsp+8], rcx
  00005	48 89 54 24 10	 mov	 QWORD PTR [rsp+16], rdx
  0000a	55		 push	 rbp
  0000b	57		 push	 rdi
  0000c	48 83 ec 28	 sub	 rsp, 40			; 00000028H
  00010	48 8d 6a 20	 lea	 rbp, QWORD PTR [rdx+32]
  00014	48 8b 8d 00 01
	00 00		 mov	 rcx, QWORD PTR this$[rbp]
  0001b	48 83 c1 18	 add	 rcx, 24
  0001f	e8 00 00 00 00	 call	 ??1?$basic_filebuf@DU?$char_traits@D@std@@@std@@UEAA@XZ ; std::basic_filebuf<char,std::char_traits<char> >::~basic_filebuf<char,std::char_traits<char> >
  00024	48 83 c4 28	 add	 rsp, 40			; 00000028H
  00028	5f		 pop	 rdi
  00029	5d		 pop	 rbp
  0002a	c3		 ret	 0
?dtor$2@?0???0?$basic_fstream@DU?$char_traits@D@std@@@std@@QEAA@PEB_WHH@Z@4HA ENDP ; `std::basic_fstream<char,std::char_traits<char> >::basic_fstream<char,std::char_traits<char> >'::`1'::dtor$2
text$x	ENDS
; Function compile flags: /Odtp /RTCsu /ZI
; File C:\Users\Skvortsoff\OneDrive\\GitHub\course_LP\course_LP\In.cpp
;	COMDAT ?getin@In@@YA?AUIN@1@QEA_W@Z
_TEXT	SEGMENT
positionArr$ = 4
literal$ = 36
allowSpaces$ = 68
specialSymbols$ = 100
positionErr$ = 132
fin$ = 176
in$ = 496
comment$ = 1060
symbol$5 = 1092
$T6 = 2672
$T7 = 2912
$T8 = 3144
$T9 = 3384
$T10 = 3424
$T11 = 3664
$T12 = 3896
$T13 = 4144
$T14 = 4384
$T15 = 4616
$T16 = 4864
$T17 = 5104
$T18 = 5336
$T19 = 5584
$T20 = 5824
$T21 = 6056
$T22 = 6304
$T23 = 6544
$T24 = 6776
$T25 = 7024
tv178 = 7572
__$ArrayPad$ = 7576
$T26 = 7616
nameFile$ = 7624
?getin@In@@YA?AUIN@1@QEA_W@Z PROC			; In::getin, COMDAT

; 7    : 	{

$LN59:
  00000	48 89 54 24 10	 mov	 QWORD PTR [rsp+16], rdx
  00005	48 89 4c 24 08	 mov	 QWORD PTR [rsp+8], rcx
  0000a	55		 push	 rbp
  0000b	56		 push	 rsi
  0000c	57		 push	 rdi
  0000d	b8 d0 1d 00 00	 mov	 eax, 7632		; 00001dd0H
  00012	e8 00 00 00 00	 call	 __chkstk
  00017	48 2b e0	 sub	 rsp, rax
  0001a	48 8d 6c 24 30	 lea	 rbp, QWORD PTR [rsp+48]
  0001f	48 8b fc	 mov	 rdi, rsp
  00022	b9 74 07 00 00	 mov	 ecx, 1908		; 00000774H
  00027	b8 cc cc cc cc	 mov	 eax, -858993460		; ccccccccH
  0002c	f3 ab		 rep stosd
  0002e	48 8b 8c 24 f8
	1d 00 00	 mov	 rcx, QWORD PTR [rsp+7672]
  00036	48 8b 05 00 00
	00 00		 mov	 rax, QWORD PTR __security_cookie
  0003d	48 33 c5	 xor	 rax, rbp
  00040	48 89 85 98 1d
	00 00		 mov	 QWORD PTR __$ArrayPad$[rbp], rax
  00047	48 8d 0d 00 00
	00 00		 lea	 rcx, OFFSET FLAT:__C7E585C7_In@cpp
  0004e	e8 00 00 00 00	 call	 __CheckForDebuggerJustMyCode

; 8    : 		int positionArr = 0;

  00053	c7 45 04 00 00
	00 00		 mov	 DWORD PTR positionArr$[rbp], 0

; 9    : 		bool literal = false;

  0005a	c6 45 24 00	 mov	 BYTE PTR literal$[rbp], 0

; 10   : 		bool allowSpaces = false;

  0005e	c6 45 44 00	 mov	 BYTE PTR allowSpaces$[rbp], 0

; 11   : 		bool specialSymbols = true;

  00062	c6 45 64 01	 mov	 BYTE PTR specialSymbols$[rbp], 1

; 12   : 		unsigned short positionErr = 1;

  00066	b8 01 00 00 00	 mov	 eax, 1
  0006b	66 89 85 84 00
	00 00		 mov	 WORD PTR positionErr$[rbp], ax

; 13   : 
; 14   : 		std::fstream fin(nameFile, std::ios_base::in);

  00072	ba 18 01 00 00	 mov	 edx, 280		; 00000118H
  00077	48 8d 8d b0 00
	00 00		 lea	 rcx, QWORD PTR fin$[rbp]
  0007e	e8 00 00 00 00	 call	 ?__autoclassinit2@?$basic_fstream@DU?$char_traits@D@std@@@std@@QEAAX_K@Z
  00083	c7 44 24 20 01
	00 00 00	 mov	 DWORD PTR [rsp+32], 1
  0008b	41 b9 40 00 00
	00		 mov	 r9d, 64			; 00000040H
  00091	41 b8 01 00 00
	00		 mov	 r8d, 1
  00097	48 8b 95 c8 1d
	00 00		 mov	 rdx, QWORD PTR nameFile$[rbp]
  0009e	48 8d 8d b0 00
	00 00		 lea	 rcx, QWORD PTR fin$[rbp]
  000a5	e8 00 00 00 00	 call	 ??0?$basic_fstream@DU?$char_traits@D@std@@@std@@QEAA@PEB_WHH@Z ; std::basic_fstream<char,std::char_traits<char> >::basic_fstream<char,std::char_traits<char> >
  000aa	90		 npad	 1

; 15   : 
; 16   : 		if (fin.fail())

  000ab	48 8b 85 b0 00
	00 00		 mov	 rax, QWORD PTR fin$[rbp]
  000b2	48 63 40 04	 movsxd	 rax, DWORD PTR [rax+4]
  000b6	48 8d 84 05 b0
	00 00 00	 lea	 rax, QWORD PTR fin$[rbp+rax]
  000be	48 8b c8	 mov	 rcx, rax
  000c1	ff 15 00 00 00
	00		 call	 QWORD PTR __imp_?fail@ios_base@std@@QEBA_NXZ
  000c7	0f b6 c0	 movzx	 eax, al
  000ca	85 c0		 test	 eax, eax
  000cc	74 53		 je	 SHORT $LN7@getin

; 17   : 			throw ERROR_THROW(110)

  000ce	ba 6e 00 00 00	 mov	 edx, 110		; 0000006eH
  000d3	48 8d 8d 48 0c
	00 00		 lea	 rcx, QWORD PTR $T8[rbp]
  000da	e8 00 00 00 00	 call	 ?geterror@Error@@YA?AUERROR@1@H@Z ; Error::geterror
  000df	48 8d 8d 60 0b
	00 00		 lea	 rcx, QWORD PTR $T7[rbp]
  000e6	48 8b f9	 mov	 rdi, rcx
  000e9	48 8b f0	 mov	 rsi, rax
  000ec	b9 d0 00 00 00	 mov	 ecx, 208		; 000000d0H
  000f1	f3 a4		 rep movsb
  000f3	48 8d 85 70 0a
	00 00		 lea	 rax, QWORD PTR $T6[rbp]
  000fa	48 8d 8d 60 0b
	00 00		 lea	 rcx, QWORD PTR $T7[rbp]
  00101	48 8b f8	 mov	 rdi, rax
  00104	48 8b f1	 mov	 rsi, rcx
  00107	b9 d0 00 00 00	 mov	 ecx, 208		; 000000d0H
  0010c	f3 a4		 rep movsb
  0010e	48 8d 15 00 00
	00 00		 lea	 rdx, OFFSET FLAT:_TI1?AUERROR@Error@@
  00115	48 8d 8d 70 0a
	00 00		 lea	 rcx, QWORD PTR $T6[rbp]
  0011c	e8 00 00 00 00	 call	 _CxxThrowException
$LN7@getin:

; 18   : 
; 19   : 		IN in;

  00121	48 8d 8d f0 01
	00 00		 lea	 rcx, QWORD PTR in$[rbp]
  00128	e8 00 00 00 00	 call	 ??0IN@In@@QEAA@XZ

; 20   : 		bool comment = false;

  0012d	c6 85 24 04 00
	00 00		 mov	 BYTE PTR comment$[rbp], 0

; 21   : 		in.text = new unsigned char[IN_MAX_LEN_TEXT];

  00134	b9 00 00 10 00	 mov	 ecx, 1048576		; 00100000H
  00139	e8 00 00 00 00	 call	 ??_U@YAPEAX_K@Z		; operator new[]
  0013e	48 89 85 38 0d
	00 00		 mov	 QWORD PTR $T9[rbp], rax
  00145	48 8b 85 38 0d
	00 00		 mov	 rax, QWORD PTR $T9[rbp]
  0014c	48 89 85 00 02
	00 00		 mov	 QWORD PTR in$[rbp+16], rax

; 22   : 
; 23   : 		if (!in.text)

  00153	48 83 bd 00 02
	00 00 00	 cmp	 QWORD PTR in$[rbp+16], 0
  0015b	75 53		 jne	 SHORT $LN8@getin

; 24   : 			throw ERROR_THROW(1);

  0015d	ba 01 00 00 00	 mov	 edx, 1
  00162	48 8d 8d 38 0f
	00 00		 lea	 rcx, QWORD PTR $T12[rbp]
  00169	e8 00 00 00 00	 call	 ?geterror@Error@@YA?AUERROR@1@H@Z ; Error::geterror
  0016e	48 8d 8d 50 0e
	00 00		 lea	 rcx, QWORD PTR $T11[rbp]
  00175	48 8b f9	 mov	 rdi, rcx
  00178	48 8b f0	 mov	 rsi, rax
  0017b	b9 d0 00 00 00	 mov	 ecx, 208		; 000000d0H
  00180	f3 a4		 rep movsb
  00182	48 8d 85 60 0d
	00 00		 lea	 rax, QWORD PTR $T10[rbp]
  00189	48 8d 8d 50 0e
	00 00		 lea	 rcx, QWORD PTR $T11[rbp]
  00190	48 8b f8	 mov	 rdi, rax
  00193	48 8b f1	 mov	 rsi, rcx
  00196	b9 d0 00 00 00	 mov	 ecx, 208		; 000000d0H
  0019b	f3 a4		 rep movsb
  0019d	48 8d 15 00 00
	00 00		 lea	 rdx, OFFSET FLAT:_TI1?AUERROR@Error@@
  001a4	48 8d 8d 60 0d
	00 00		 lea	 rcx, QWORD PTR $T10[rbp]
  001ab	e8 00 00 00 00	 call	 _CxxThrowException
$LN8@getin:

; 25   : 
; 26   : 		for (unsigned char symbol; symbol = fin.get(); positionErr++)

  001b0	eb 11		 jmp	 SHORT $LN4@getin
$LN2@getin:
  001b2	0f b7 85 84 00
	00 00		 movzx	 eax, WORD PTR positionErr$[rbp]
  001b9	66 ff c0	 inc	 ax
  001bc	66 89 85 84 00
	00 00		 mov	 WORD PTR positionErr$[rbp], ax
$LN4@getin:
  001c3	48 8d 8d b0 00
	00 00		 lea	 rcx, QWORD PTR fin$[rbp]
  001ca	ff 15 00 00 00
	00		 call	 QWORD PTR __imp_?get@?$basic_istream@DU?$char_traits@D@std@@@std@@QEAAHXZ
  001d0	88 85 44 04 00
	00		 mov	 BYTE PTR symbol$5[rbp], al
  001d6	0f b6 85 44 04
	00 00		 movzx	 eax, BYTE PTR symbol$5[rbp]
  001dd	85 c0		 test	 eax, eax
  001df	0f 84 98 03 00
	00		 je	 $LN3@getin

; 27   : 		{
; 28   : 			if (fin.eof())

  001e5	48 8b 85 b0 00
	00 00		 mov	 rax, QWORD PTR fin$[rbp]
  001ec	48 63 40 04	 movsxd	 rax, DWORD PTR [rax+4]
  001f0	48 8d 84 05 b0
	00 00 00	 lea	 rax, QWORD PTR fin$[rbp+rax]
  001f8	48 8b c8	 mov	 rcx, rax
  001fb	ff 15 00 00 00
	00		 call	 QWORD PTR __imp_?eof@ios_base@std@@QEBA_NXZ
  00201	0f b6 c0	 movzx	 eax, al
  00204	85 c0		 test	 eax, eax
  00206	74 05		 je	 SHORT $LN9@getin

; 29   : 				break;

  00208	e9 70 03 00 00	 jmp	 $LN3@getin
$LN9@getin:

; 30   : 
; 31   : 			if (symbol == ENDL)

  0020d	0f b6 85 44 04
	00 00		 movzx	 eax, BYTE PTR symbol$5[rbp]
  00214	83 f8 0a	 cmp	 eax, 10
  00217	75 2d		 jne	 SHORT $LN10@getin

; 32   : 			{
; 33   : 				in.lines++;

  00219	8b 85 f4 01 00
	00		 mov	 eax, DWORD PTR in$[rbp+4]
  0021f	ff c0		 inc	 eax
  00221	89 85 f4 01 00
	00		 mov	 DWORD PTR in$[rbp+4], eax

; 34   : 				in.text[positionArr] = ENDL;

  00227	48 63 45 04	 movsxd	 rax, DWORD PTR positionArr$[rbp]
  0022b	48 8b 8d 00 02
	00 00		 mov	 rcx, QWORD PTR in$[rbp+16]
  00232	c6 04 01 0a	 mov	 BYTE PTR [rcx+rax], 10

; 35   : 				positionErr = 0;

  00236	33 c0		 xor	 eax, eax
  00238	66 89 85 84 00
	00 00		 mov	 WORD PTR positionErr$[rbp], ax

; 36   : 				comment = false;

  0023f	c6 85 24 04 00
	00 00		 mov	 BYTE PTR comment$[rbp], 0
$LN10@getin:

; 37   : 			}
; 38   : 			if (comment)

  00246	0f b6 85 24 04
	00 00		 movzx	 eax, BYTE PTR comment$[rbp]
  0024d	85 c0		 test	 eax, eax
  0024f	74 21		 je	 SHORT $LN11@getin

; 39   : 			{
; 40   : 				in.ignor++;

  00251	8b 85 f8 01 00
	00		 mov	 eax, DWORD PTR in$[rbp+8]
  00257	ff c0		 inc	 eax
  00259	89 85 f8 01 00
	00		 mov	 DWORD PTR in$[rbp+8], eax

; 41   : 				in.size++;

  0025f	8b 85 f0 01 00
	00		 mov	 eax, DWORD PTR in$[rbp]
  00265	ff c0		 inc	 eax
  00267	89 85 f0 01 00
	00		 mov	 DWORD PTR in$[rbp], eax

; 42   : 				continue;

  0026d	e9 40 ff ff ff	 jmp	 $LN2@getin
$LN11@getin:

; 43   : 			}
; 44   : 
; 45   : 			if (symbol == ';')

  00272	0f b6 85 44 04
	00 00		 movzx	 eax, BYTE PTR symbol$5[rbp]
  00279	83 f8 3b	 cmp	 eax, 59			; 0000003bH
  0027c	75 07		 jne	 SHORT $LN12@getin

; 46   : 				comment = true;

  0027e	c6 85 24 04 00
	00 01		 mov	 BYTE PTR comment$[rbp], 1
$LN12@getin:

; 47   : 
; 48   : 			switch (in.code[symbol])

  00285	0f b6 85 44 04
	00 00		 movzx	 eax, BYTE PTR symbol$5[rbp]
  0028c	0f bf 84 45 08
	02 00 00	 movsx	 eax, WORD PTR in$[rbp+rax*2+24]
  00294	89 85 94 1d 00
	00		 mov	 DWORD PTR tv178[rbp], eax
  0029a	83 bd 94 1d 00
	00 05		 cmp	 DWORD PTR tv178[rbp], 5
  002a1	0f 87 38 02 00
	00		 ja	 $LN29@getin
  002a7	48 63 85 94 1d
	00 00		 movsxd	 rax, DWORD PTR tv178[rbp]
  002ae	48 8d 0d 00 00
	00 00		 lea	 rcx, OFFSET FLAT:__ImageBase
  002b5	8b 84 81 00 00
	00 00		 mov	 eax, DWORD PTR $LN57@getin[rcx+rax*4]
  002bc	48 03 c1	 add	 rax, rcx
  002bf	ff e0		 jmp	 rax
$LN13@getin:

; 49   : 			{
; 50   : 				case IN::F:
; 51   : 				{
; 52   : 					throw ERROR_THROW_IN(111, in.lines, positionErr);

  002c1	0f b7 85 84 00
	00 00		 movzx	 eax, WORD PTR positionErr$[rbp]
  002c8	44 8b c8	 mov	 r9d, eax
  002cb	44 8b 85 f4 01
	00 00		 mov	 r8d, DWORD PTR in$[rbp+4]
  002d2	ba 6f 00 00 00	 mov	 edx, 111		; 0000006fH
  002d7	48 8d 8d 08 12
	00 00		 lea	 rcx, QWORD PTR $T15[rbp]
  002de	e8 00 00 00 00	 call	 ?geterrorin@Error@@YA?AUERROR@1@HHH@Z ; Error::geterrorin
  002e3	48 8d 8d 20 11
	00 00		 lea	 rcx, QWORD PTR $T14[rbp]
  002ea	48 8b f9	 mov	 rdi, rcx
  002ed	48 8b f0	 mov	 rsi, rax
  002f0	b9 d0 00 00 00	 mov	 ecx, 208		; 000000d0H
  002f5	f3 a4		 rep movsb
  002f7	48 8d 85 30 10
	00 00		 lea	 rax, QWORD PTR $T13[rbp]
  002fe	48 8d 8d 20 11
	00 00		 lea	 rcx, QWORD PTR $T14[rbp]
  00305	48 8b f8	 mov	 rdi, rax
  00308	48 8b f1	 mov	 rsi, rcx
  0030b	b9 d0 00 00 00	 mov	 ecx, 208		; 000000d0H
  00310	f3 a4		 rep movsb
  00312	48 8d 15 00 00
	00 00		 lea	 rdx, OFFSET FLAT:_TI1?AUERROR@Error@@
  00319	48 8d 8d 30 10
	00 00		 lea	 rcx, QWORD PTR $T13[rbp]
  00320	e8 00 00 00 00	 call	 _CxxThrowException
$LN14@getin:

; 53   : 				}
; 54   : 				case IN::I:
; 55   : 				{
; 56   : 					in.ignor++;

  00325	8b 85 f8 01 00
	00		 mov	 eax, DWORD PTR in$[rbp+8]
  0032b	ff c0		 inc	 eax
  0032d	89 85 f8 01 00
	00		 mov	 DWORD PTR in$[rbp+8], eax

; 57   : 					in.size++;

  00333	8b 85 f0 01 00
	00		 mov	 eax, DWORD PTR in$[rbp]
  00339	ff c0		 inc	 eax
  0033b	89 85 f0 01 00
	00		 mov	 DWORD PTR in$[rbp], eax

; 58   : 					break;

  00341	e9 32 02 00 00	 jmp	 $LN5@getin
$LN15@getin:

; 59   : 				}
; 60   : 				case IN::T:
; 61   : 				{
; 62   : 					if (symbol == LITERAL) {								//

  00346	0f b6 85 44 04
	00 00		 movzx	 eax, BYTE PTR symbol$5[rbp]
  0034d	83 f8 27	 cmp	 eax, 39			; 00000027H
  00350	75 18		 jne	 SHORT $LN16@getin

; 63   : 						if (literal) literal = false;

  00352	0f b6 45 24	 movzx	 eax, BYTE PTR literal$[rbp]
  00356	85 c0		 test	 eax, eax
  00358	74 06		 je	 SHORT $LN18@getin
  0035a	c6 45 24 00	 mov	 BYTE PTR literal$[rbp], 0
  0035e	eb 04		 jmp	 SHORT $LN19@getin
$LN18@getin:

; 64   : 						else literal = true;								//

  00360	c6 45 24 01	 mov	 BYTE PTR literal$[rbp], 1
$LN19@getin:

; 65   : 						allowSpaces = false;

  00364	c6 45 44 00	 mov	 BYTE PTR allowSpaces$[rbp], 0

; 66   : 					}

  00368	eb 27		 jmp	 SHORT $LN17@getin
$LN16@getin:

; 67   : 					else if (allowSpaces && !literal)						//

  0036a	0f b6 45 44	 movzx	 eax, BYTE PTR allowSpaces$[rbp]
  0036e	85 c0		 test	 eax, eax
  00370	74 1f		 je	 SHORT $LN17@getin
  00372	0f b6 45 24	 movzx	 eax, BYTE PTR literal$[rbp]
  00376	85 c0		 test	 eax, eax
  00378	75 17		 jne	 SHORT $LN17@getin

; 68   : 						in.text[positionArr++] = SPACE;						//

  0037a	48 63 45 04	 movsxd	 rax, DWORD PTR positionArr$[rbp]
  0037e	48 8b 8d 00 02
	00 00		 mov	 rcx, QWORD PTR in$[rbp+16]
  00385	c6 04 01 20	 mov	 BYTE PTR [rcx+rax], 32	; 00000020H
  00389	8b 45 04	 mov	 eax, DWORD PTR positionArr$[rbp]
  0038c	ff c0		 inc	 eax
  0038e	89 45 04	 mov	 DWORD PTR positionArr$[rbp], eax
$LN17@getin:

; 69   : 
; 70   : 					in.text[positionArr++] = symbol;

  00391	48 63 45 04	 movsxd	 rax, DWORD PTR positionArr$[rbp]
  00395	48 8b 8d 00 02
	00 00		 mov	 rcx, QWORD PTR in$[rbp+16]
  0039c	0f b6 95 44 04
	00 00		 movzx	 edx, BYTE PTR symbol$5[rbp]
  003a3	88 14 01	 mov	 BYTE PTR [rcx+rax], dl
  003a6	8b 45 04	 mov	 eax, DWORD PTR positionArr$[rbp]
  003a9	ff c0		 inc	 eax
  003ab	89 45 04	 mov	 DWORD PTR positionArr$[rbp], eax

; 71   : 					in.size++;

  003ae	8b 85 f0 01 00
	00		 mov	 eax, DWORD PTR in$[rbp]
  003b4	ff c0		 inc	 eax
  003b6	89 85 f0 01 00
	00		 mov	 DWORD PTR in$[rbp], eax

; 72   : 
; 73   : 					allowSpaces = false;

  003bc	c6 45 44 00	 mov	 BYTE PTR allowSpaces$[rbp], 0

; 74   : 					specialSymbols = false;

  003c0	c6 45 64 00	 mov	 BYTE PTR specialSymbols$[rbp], 0

; 75   : 					break;

  003c4	e9 af 01 00 00	 jmp	 $LN5@getin
$LN21@getin:

; 76   : 				}
; 77   : 				case IN::E:
; 78   : 				{
; 79   : 					in.text[positionArr++] = symbol;						//

  003c9	48 63 45 04	 movsxd	 rax, DWORD PTR positionArr$[rbp]
  003cd	48 8b 8d 00 02
	00 00		 mov	 rcx, QWORD PTR in$[rbp+16]
  003d4	0f b6 95 44 04
	00 00		 movzx	 edx, BYTE PTR symbol$5[rbp]
  003db	88 14 01	 mov	 BYTE PTR [rcx+rax], dl
  003de	8b 45 04	 mov	 eax, DWORD PTR positionArr$[rbp]
  003e1	ff c0		 inc	 eax
  003e3	89 45 04	 mov	 DWORD PTR positionArr$[rbp], eax

; 80   : 					specialSymbols = true;									//

  003e6	c6 45 64 01	 mov	 BYTE PTR specialSymbols$[rbp], 1

; 81   : 					allowSpaces = false;									//

  003ea	c6 45 44 00	 mov	 BYTE PTR allowSpaces$[rbp], 0

; 82   : 					break;

  003ee	e9 85 01 00 00	 jmp	 $LN5@getin
$LN22@getin:

; 83   : 				}
; 84   : 				case IN::S:
; 85   : 				{
; 86   : 
; 87   : 					if (!allowSpaces && !specialSymbols)					//

  003f3	0f b6 45 44	 movzx	 eax, BYTE PTR allowSpaces$[rbp]
  003f7	85 c0		 test	 eax, eax
  003f9	75 0e		 jne	 SHORT $LN23@getin
  003fb	0f b6 45 64	 movzx	 eax, BYTE PTR specialSymbols$[rbp]
  003ff	85 c0		 test	 eax, eax
  00401	75 06		 jne	 SHORT $LN23@getin

; 88   : 						allowSpaces = true;									//

  00403	c6 45 44 01	 mov	 BYTE PTR allowSpaces$[rbp], 1
  00407	eb 0e		 jmp	 SHORT $LN24@getin
$LN23@getin:

; 89   : 					else													//
; 90   : 						in.ignor++;											//

  00409	8b 85 f8 01 00
	00		 mov	 eax, DWORD PTR in$[rbp+8]
  0040f	ff c0		 inc	 eax
  00411	89 85 f8 01 00
	00		 mov	 DWORD PTR in$[rbp+8], eax
$LN24@getin:

; 91   : 
; 92   : 					if (literal)											//

  00417	0f b6 45 24	 movzx	 eax, BYTE PTR literal$[rbp]
  0041b	85 c0		 test	 eax, eax
  0041d	74 1d		 je	 SHORT $LN25@getin

; 93   : 						in.text[positionArr++] = symbol;					//

  0041f	48 63 45 04	 movsxd	 rax, DWORD PTR positionArr$[rbp]
  00423	48 8b 8d 00 02
	00 00		 mov	 rcx, QWORD PTR in$[rbp+16]
  0042a	0f b6 95 44 04
	00 00		 movzx	 edx, BYTE PTR symbol$5[rbp]
  00431	88 14 01	 mov	 BYTE PTR [rcx+rax], dl
  00434	8b 45 04	 mov	 eax, DWORD PTR positionArr$[rbp]
  00437	ff c0		 inc	 eax
  00439	89 45 04	 mov	 DWORD PTR positionArr$[rbp], eax
$LN25@getin:

; 94   : 
; 95   : 					in.size++;

  0043c	8b 85 f0 01 00
	00		 mov	 eax, DWORD PTR in$[rbp]
  00442	ff c0		 inc	 eax
  00444	89 85 f0 01 00
	00		 mov	 DWORD PTR in$[rbp], eax

; 96   : 					break;

  0044a	e9 29 01 00 00	 jmp	 $LN5@getin
$LN26@getin:

; 97   : 				}
; 98   : 				case IN::L:
; 99   : 				{
; 100  : 					if (literal)											//

  0044f	0f b6 45 24	 movzx	 eax, BYTE PTR literal$[rbp]
  00453	85 c0		 test	 eax, eax
  00455	74 1f		 je	 SHORT $LN27@getin

; 101  : 						in.text[positionArr++] = symbol;					//

  00457	48 63 45 04	 movsxd	 rax, DWORD PTR positionArr$[rbp]
  0045b	48 8b 8d 00 02
	00 00		 mov	 rcx, QWORD PTR in$[rbp+16]
  00462	0f b6 95 44 04
	00 00		 movzx	 edx, BYTE PTR symbol$5[rbp]
  00469	88 14 01	 mov	 BYTE PTR [rcx+rax], dl
  0046c	8b 45 04	 mov	 eax, DWORD PTR positionArr$[rbp]
  0046f	ff c0		 inc	 eax
  00471	89 45 04	 mov	 DWORD PTR positionArr$[rbp], eax
  00474	eb 64		 jmp	 SHORT $LN28@getin
$LN27@getin:

; 102  : 					else													//
; 103  : 						throw ERROR_THROW_IN(111, in.lines, positionErr);	//

  00476	0f b7 85 84 00
	00 00		 movzx	 eax, WORD PTR positionErr$[rbp]
  0047d	44 8b c8	 mov	 r9d, eax
  00480	44 8b 85 f4 01
	00 00		 mov	 r8d, DWORD PTR in$[rbp+4]
  00487	ba 6f 00 00 00	 mov	 edx, 111		; 0000006fH
  0048c	48 8d 8d d8 14
	00 00		 lea	 rcx, QWORD PTR $T18[rbp]
  00493	e8 00 00 00 00	 call	 ?geterrorin@Error@@YA?AUERROR@1@HHH@Z ; Error::geterrorin
  00498	48 8d 8d f0 13
	00 00		 lea	 rcx, QWORD PTR $T17[rbp]
  0049f	48 8b f9	 mov	 rdi, rcx
  004a2	48 8b f0	 mov	 rsi, rax
  004a5	b9 d0 00 00 00	 mov	 ecx, 208		; 000000d0H
  004aa	f3 a4		 rep movsb
  004ac	48 8d 85 00 13
	00 00		 lea	 rax, QWORD PTR $T16[rbp]
  004b3	48 8d 8d f0 13
	00 00		 lea	 rcx, QWORD PTR $T17[rbp]
  004ba	48 8b f8	 mov	 rdi, rax
  004bd	48 8b f1	 mov	 rsi, rcx
  004c0	b9 d0 00 00 00	 mov	 ecx, 208		; 000000d0H
  004c5	f3 a4		 rep movsb
  004c7	48 8d 15 00 00
	00 00		 lea	 rdx, OFFSET FLAT:_TI1?AUERROR@Error@@
  004ce	48 8d 8d 00 13
	00 00		 lea	 rcx, QWORD PTR $T16[rbp]
  004d5	e8 00 00 00 00	 call	 _CxxThrowException
$LN28@getin:

; 104  : 					break;

  004da	e9 99 00 00 00	 jmp	 $LN5@getin
$LN29@getin:

; 105  : 				}
; 106  : 				default:
; 107  : 				{
; 108  : 					if (literal)											//

  004df	0f b6 45 24	 movzx	 eax, BYTE PTR literal$[rbp]
  004e3	85 c0		 test	 eax, eax
  004e5	74 64		 je	 SHORT $LN30@getin

; 109  : 						throw ERROR_THROW_IN(114, in.lines, positionErr);	//

  004e7	0f b7 85 84 00
	00 00		 movzx	 eax, WORD PTR positionErr$[rbp]
  004ee	44 8b c8	 mov	 r9d, eax
  004f1	44 8b 85 f4 01
	00 00		 mov	 r8d, DWORD PTR in$[rbp+4]
  004f8	ba 72 00 00 00	 mov	 edx, 114		; 00000072H
  004fd	48 8d 8d a8 17
	00 00		 lea	 rcx, QWORD PTR $T21[rbp]
  00504	e8 00 00 00 00	 call	 ?geterrorin@Error@@YA?AUERROR@1@HHH@Z ; Error::geterrorin
  00509	48 8d 8d c0 16
	00 00		 lea	 rcx, QWORD PTR $T20[rbp]
  00510	48 8b f9	 mov	 rdi, rcx
  00513	48 8b f0	 mov	 rsi, rax
  00516	b9 d0 00 00 00	 mov	 ecx, 208		; 000000d0H
  0051b	f3 a4		 rep movsb
  0051d	48 8d 85 d0 15
	00 00		 lea	 rax, QWORD PTR $T19[rbp]
  00524	48 8d 8d c0 16
	00 00		 lea	 rcx, QWORD PTR $T20[rbp]
  0052b	48 8b f8	 mov	 rdi, rax
  0052e	48 8b f1	 mov	 rsi, rcx
  00531	b9 d0 00 00 00	 mov	 ecx, 208		; 000000d0H
  00536	f3 a4		 rep movsb
  00538	48 8d 15 00 00
	00 00		 lea	 rdx, OFFSET FLAT:_TI1?AUERROR@Error@@
  0053f	48 8d 8d d0 15
	00 00		 lea	 rcx, QWORD PTR $T19[rbp]
  00546	e8 00 00 00 00	 call	 _CxxThrowException
$LN30@getin:

; 110  : 						//if(unsigned char(in.code[symbol] - 1 ) != '|')
; 111  : 						in.text[positionArr++] = unsigned char(in.code[symbol]);

  0054b	0f b6 85 44 04
	00 00		 movzx	 eax, BYTE PTR symbol$5[rbp]
  00552	48 63 4d 04	 movsxd	 rcx, DWORD PTR positionArr$[rbp]
  00556	48 8b 95 00 02
	00 00		 mov	 rdx, QWORD PTR in$[rbp+16]
  0055d	0f b6 84 45 08
	02 00 00	 movzx	 eax, BYTE PTR in$[rbp+rax*2+24]
  00565	88 04 0a	 mov	 BYTE PTR [rdx+rcx], al
  00568	8b 45 04	 mov	 eax, DWORD PTR positionArr$[rbp]
  0056b	ff c0		 inc	 eax
  0056d	89 45 04	 mov	 DWORD PTR positionArr$[rbp], eax

; 112  : 					allowSpaces = false;									//

  00570	c6 45 44 00	 mov	 BYTE PTR allowSpaces$[rbp], 0

; 113  : 					specialSymbols = true;									//

  00574	c6 45 64 01	 mov	 BYTE PTR specialSymbols$[rbp], 1
$LN5@getin:

; 114  : 					break;
; 115  : 				}
; 116  : 			}
; 117  : 
; 118  : 
; 119  : 		}

  00578	e9 35 fc ff ff	 jmp	 $LN2@getin
$LN3@getin:

; 120  : 		in.text[positionArr++] = LEX_RIGHTBRACE;

  0057d	48 63 45 04	 movsxd	 rax, DWORD PTR positionArr$[rbp]
  00581	48 8b 8d 00 02
	00 00		 mov	 rcx, QWORD PTR in$[rbp+16]
  00588	c6 04 01 7d	 mov	 BYTE PTR [rcx+rax], 125	; 0000007dH
  0058c	8b 45 04	 mov	 eax, DWORD PTR positionArr$[rbp]
  0058f	ff c0		 inc	 eax
  00591	89 45 04	 mov	 DWORD PTR positionArr$[rbp], eax

; 121  : 		if (literal)														//

  00594	0f b6 45 24	 movzx	 eax, BYTE PTR literal$[rbp]
  00598	85 c0		 test	 eax, eax
  0059a	74 64		 je	 SHORT $LN31@getin

; 122  : 			throw ERROR_THROW_IN(114, in.lines, positionErr);				//

  0059c	0f b7 85 84 00
	00 00		 movzx	 eax, WORD PTR positionErr$[rbp]
  005a3	44 8b c8	 mov	 r9d, eax
  005a6	44 8b 85 f4 01
	00 00		 mov	 r8d, DWORD PTR in$[rbp+4]
  005ad	ba 72 00 00 00	 mov	 edx, 114		; 00000072H
  005b2	48 8d 8d 78 1a
	00 00		 lea	 rcx, QWORD PTR $T24[rbp]
  005b9	e8 00 00 00 00	 call	 ?geterrorin@Error@@YA?AUERROR@1@HHH@Z ; Error::geterrorin
  005be	48 8d 8d 90 19
	00 00		 lea	 rcx, QWORD PTR $T23[rbp]
  005c5	48 8b f9	 mov	 rdi, rcx
  005c8	48 8b f0	 mov	 rsi, rax
  005cb	b9 d0 00 00 00	 mov	 ecx, 208		; 000000d0H
  005d0	f3 a4		 rep movsb
  005d2	48 8d 85 a0 18
	00 00		 lea	 rax, QWORD PTR $T22[rbp]
  005d9	48 8d 8d 90 19
	00 00		 lea	 rcx, QWORD PTR $T23[rbp]
  005e0	48 8b f8	 mov	 rdi, rax
  005e3	48 8b f1	 mov	 rsi, rcx
  005e6	b9 d0 00 00 00	 mov	 ecx, 208		; 000000d0H
  005eb	f3 a4		 rep movsb
  005ed	48 8d 15 00 00
	00 00		 lea	 rdx, OFFSET FLAT:_TI1?AUERROR@Error@@
  005f4	48 8d 8d a0 18
	00 00		 lea	 rcx, QWORD PTR $T22[rbp]
  005fb	e8 00 00 00 00	 call	 _CxxThrowException
$LN31@getin:

; 123  : 		in.text[positionArr] = STR_ENDL;

  00600	48 63 45 04	 movsxd	 rax, DWORD PTR positionArr$[rbp]
  00604	48 8b 8d 00 02
	00 00		 mov	 rcx, QWORD PTR in$[rbp+16]
  0060b	c6 04 01 00	 mov	 BYTE PTR [rcx+rax], 0

; 124  : 
; 125  : 		fin.close();

  0060f	48 8d 8d b0 00
	00 00		 lea	 rcx, QWORD PTR fin$[rbp]
  00616	e8 00 00 00 00	 call	 ?close@?$basic_fstream@DU?$char_traits@D@std@@@std@@QEAAXXZ ; std::basic_fstream<char,std::char_traits<char> >::close

; 126  : 		return in;

  0061b	48 8d 85 70 1b
	00 00		 lea	 rax, QWORD PTR $T25[rbp]
  00622	48 8d 8d f0 01
	00 00		 lea	 rcx, QWORD PTR in$[rbp]
  00629	48 8b f8	 mov	 rdi, rax
  0062c	48 8b f1	 mov	 rsi, rcx
  0062f	b9 18 02 00 00	 mov	 ecx, 536		; 00000218H
  00634	f3 a4		 rep movsb
  00636	48 8d 8d b0 00
	00 00		 lea	 rcx, QWORD PTR fin$[rbp]
  0063d	e8 00 00 00 00	 call	 ??_D?$basic_fstream@DU?$char_traits@D@std@@@std@@QEAAXXZ
  00642	48 8d 85 70 1b
	00 00		 lea	 rax, QWORD PTR $T25[rbp]
  00649	48 8b bd c0 1d
	00 00		 mov	 rdi, QWORD PTR $T26[rbp]
  00650	48 8b f0	 mov	 rsi, rax
  00653	b9 18 02 00 00	 mov	 ecx, 536		; 00000218H
  00658	f3 a4		 rep movsb
  0065a	48 8b 85 c0 1d
	00 00		 mov	 rax, QWORD PTR $T26[rbp]

; 127  : 	}

  00661	48 8b f8	 mov	 rdi, rax
  00664	48 8d 4d d0	 lea	 rcx, QWORD PTR [rbp-48]
  00668	48 8d 15 00 00
	00 00		 lea	 rdx, OFFSET FLAT:?getin@In@@YA?AUIN@1@QEA_W@Z$rtcFrameData
  0066f	e8 00 00 00 00	 call	 _RTC_CheckStackVars
  00674	48 8b c7	 mov	 rax, rdi
  00677	48 8b 8d 98 1d
	00 00		 mov	 rcx, QWORD PTR __$ArrayPad$[rbp]
  0067e	48 33 cd	 xor	 rcx, rbp
  00681	e8 00 00 00 00	 call	 __security_check_cookie
  00686	48 8d a5 a0 1d
	00 00		 lea	 rsp, QWORD PTR [rbp+7584]
  0068d	5f		 pop	 rdi
  0068e	5e		 pop	 rsi
  0068f	5d		 pop	 rbp
  00690	c3		 ret	 0
$LN58@getin:
  00691	0f 1f 00	 npad	 3
$LN57@getin:
  00694	00 00 00 00	 DD	 $LN13@getin
  00698	00 00 00 00	 DD	 $LN15@getin
  0069c	00 00 00 00	 DD	 $LN14@getin
  006a0	00 00 00 00	 DD	 $LN21@getin
  006a4	00 00 00 00	 DD	 $LN22@getin
  006a8	00 00 00 00	 DD	 $LN26@getin
?getin@In@@YA?AUIN@1@QEA_W@Z ENDP			; In::getin
_TEXT	ENDS
;	COMDAT text$x
text$x	SEGMENT
positionArr$ = 4
literal$ = 36
allowSpaces$ = 68
specialSymbols$ = 100
positionErr$ = 132
fin$ = 176
in$ = 496
comment$ = 1060
symbol$5 = 1092
$T6 = 2672
$T7 = 2912
$T8 = 3144
$T9 = 3384
$T10 = 3424
$T11 = 3664
$T12 = 3896
$T13 = 4144
$T14 = 4384
$T15 = 4616
$T16 = 4864
$T17 = 5104
$T18 = 5336
$T19 = 5584
$T20 = 5824
$T21 = 6056
$T22 = 6304
$T23 = 6544
$T24 = 6776
$T25 = 7024
tv178 = 7572
__$ArrayPad$ = 7576
$T26 = 7616
nameFile$ = 7624
?dtor$0@?0??getin@In@@YA?AUIN@1@QEA_W@Z@4HA PROC	; `In::getin'::`1'::dtor$0
  00000	48 89 4c 24 08	 mov	 QWORD PTR [rsp+8], rcx
  00005	48 89 54 24 10	 mov	 QWORD PTR [rsp+16], rdx
  0000a	55		 push	 rbp
  0000b	57		 push	 rdi
  0000c	48 83 ec 28	 sub	 rsp, 40			; 00000028H
  00010	48 8d 6a 30	 lea	 rbp, QWORD PTR [rdx+48]
  00014	48 8d 8d b0 00
	00 00		 lea	 rcx, QWORD PTR fin$[rbp]
  0001b	e8 00 00 00 00	 call	 ??_D?$basic_fstream@DU?$char_traits@D@std@@@std@@QEAAXXZ
  00020	48 83 c4 28	 add	 rsp, 40			; 00000028H
  00024	5f		 pop	 rdi
  00025	5d		 pop	 rbp
  00026	c3		 ret	 0
?dtor$0@?0??getin@In@@YA?AUIN@1@QEA_W@Z@4HA ENDP	; `In::getin'::`1'::dtor$0
text$x	ENDS
; Function compile flags: /Odtp /RTCsu /ZI
;	COMDAT text$x
text$x	SEGMENT
positionArr$ = 4
literal$ = 36
allowSpaces$ = 68
specialSymbols$ = 100
positionErr$ = 132
fin$ = 176
in$ = 496
comment$ = 1060
symbol$5 = 1092
$T6 = 2672
$T7 = 2912
$T8 = 3144
$T9 = 3384
$T10 = 3424
$T11 = 3664
$T12 = 3896
$T13 = 4144
$T14 = 4384
$T15 = 4616
$T16 = 4864
$T17 = 5104
$T18 = 5336
$T19 = 5584
$T20 = 5824
$T21 = 6056
$T22 = 6304
$T23 = 6544
$T24 = 6776
$T25 = 7024
tv178 = 7572
__$ArrayPad$ = 7576
$T26 = 7616
nameFile$ = 7624
?dtor$0@?0??getin@In@@YA?AUIN@1@QEA_W@Z@4HA PROC	; `In::getin'::`1'::dtor$0
  00000	48 89 4c 24 08	 mov	 QWORD PTR [rsp+8], rcx
  00005	48 89 54 24 10	 mov	 QWORD PTR [rsp+16], rdx
  0000a	55		 push	 rbp
  0000b	57		 push	 rdi
  0000c	48 83 ec 28	 sub	 rsp, 40			; 00000028H
  00010	48 8d 6a 30	 lea	 rbp, QWORD PTR [rdx+48]
  00014	48 8d 8d b0 00
	00 00		 lea	 rcx, QWORD PTR fin$[rbp]
  0001b	e8 00 00 00 00	 call	 ??_D?$basic_fstream@DU?$char_traits@D@std@@@std@@QEAAXXZ
  00020	48 83 c4 28	 add	 rsp, 40			; 00000028H
  00024	5f		 pop	 rdi
  00025	5d		 pop	 rbp
  00026	c3		 ret	 0
?dtor$0@?0??getin@In@@YA?AUIN@1@QEA_W@Z@4HA ENDP	; `In::getin'::`1'::dtor$0
text$x	ENDS
; Function compile flags: /Odtp /RTCsu /ZI
;	COMDAT ??0IN@In@@QEAA@XZ
_TEXT	SEGMENT
this$ = 224
??0IN@In@@QEAA@XZ PROC					; In::IN::IN, COMDAT
$LN4:
  00000	48 89 4c 24 08	 mov	 QWORD PTR [rsp+8], rcx
  00005	55		 push	 rbp
  00006	57		 push	 rdi
  00007	48 81 ec c8 00
	00 00		 sub	 rsp, 200		; 000000c8H
  0000e	48 8b ec	 mov	 rbp, rsp
  00011	48 8b fc	 mov	 rdi, rsp
  00014	b9 32 00 00 00	 mov	 ecx, 50			; 00000032H
  00019	b8 cc cc cc cc	 mov	 eax, -858993460		; ccccccccH
  0001e	f3 ab		 rep stosd
  00020	48 8b 8c 24 e8
	00 00 00	 mov	 rcx, QWORD PTR [rsp+232]
  00028	48 8b 85 e0 00
	00 00		 mov	 rax, QWORD PTR this$[rbp]
  0002f	c7 00 00 00 00
	00		 mov	 DWORD PTR [rax], 0
  00035	48 8b 85 e0 00
	00 00		 mov	 rax, QWORD PTR this$[rbp]
  0003c	c7 40 04 00 00
	00 00		 mov	 DWORD PTR [rax+4], 0
  00043	48 8b 85 e0 00
	00 00		 mov	 rax, QWORD PTR this$[rbp]
  0004a	c7 40 08 00 00
	00 00		 mov	 DWORD PTR [rax+8], 0
  00051	48 8b 85 e0 00
	00 00		 mov	 rax, QWORD PTR this$[rbp]
  00058	48 c7 40 10 00
	00 00 00	 mov	 QWORD PTR [rax+16], 0
  00060	33 c0		 xor	 eax, eax
  00062	48 8b 8d e0 00
	00 00		 mov	 rcx, QWORD PTR this$[rbp]
  00069	66 89 41 18	 mov	 WORD PTR [rcx+24], ax
  0006d	33 c0		 xor	 eax, eax
  0006f	48 8b 8d e0 00
	00 00		 mov	 rcx, QWORD PTR this$[rbp]
  00076	66 89 41 1a	 mov	 WORD PTR [rcx+26], ax
  0007a	33 c0		 xor	 eax, eax
  0007c	48 8b 8d e0 00
	00 00		 mov	 rcx, QWORD PTR this$[rbp]
  00083	66 89 41 1c	 mov	 WORD PTR [rcx+28], ax
  00087	33 c0		 xor	 eax, eax
  00089	48 8b 8d e0 00
	00 00		 mov	 rcx, QWORD PTR this$[rbp]
  00090	66 89 41 1e	 mov	 WORD PTR [rcx+30], ax
  00094	33 c0		 xor	 eax, eax
  00096	48 8b 8d e0 00
	00 00		 mov	 rcx, QWORD PTR this$[rbp]
  0009d	66 89 41 20	 mov	 WORD PTR [rcx+32], ax
  000a1	33 c0		 xor	 eax, eax
  000a3	48 8b 8d e0 00
	00 00		 mov	 rcx, QWORD PTR this$[rbp]
  000aa	66 89 41 22	 mov	 WORD PTR [rcx+34], ax
  000ae	33 c0		 xor	 eax, eax
  000b0	48 8b 8d e0 00
	00 00		 mov	 rcx, QWORD PTR this$[rbp]
  000b7	66 89 41 24	 mov	 WORD PTR [rcx+36], ax
  000bb	33 c0		 xor	 eax, eax
  000bd	48 8b 8d e0 00
	00 00		 mov	 rcx, QWORD PTR this$[rbp]
  000c4	66 89 41 26	 mov	 WORD PTR [rcx+38], ax
  000c8	33 c0		 xor	 eax, eax
  000ca	48 8b 8d e0 00
	00 00		 mov	 rcx, QWORD PTR this$[rbp]
  000d1	66 89 41 28	 mov	 WORD PTR [rcx+40], ax
  000d5	b8 04 00 00 00	 mov	 eax, 4
  000da	48 8b 8d e0 00
	00 00		 mov	 rcx, QWORD PTR this$[rbp]
  000e1	66 89 41 2a	 mov	 WORD PTR [rcx+42], ax
  000e5	b8 7c 00 00 00	 mov	 eax, 124		; 0000007cH
  000ea	48 8b 8d e0 00
	00 00		 mov	 rcx, QWORD PTR this$[rbp]
  000f1	66 89 41 2c	 mov	 WORD PTR [rcx+44], ax
  000f5	33 c0		 xor	 eax, eax
  000f7	48 8b 8d e0 00
	00 00		 mov	 rcx, QWORD PTR this$[rbp]
  000fe	66 89 41 2e	 mov	 WORD PTR [rcx+46], ax
  00102	33 c0		 xor	 eax, eax
  00104	48 8b 8d e0 00
	00 00		 mov	 rcx, QWORD PTR this$[rbp]
  0010b	66 89 41 30	 mov	 WORD PTR [rcx+48], ax
  0010f	b8 01 00 00 00	 mov	 eax, 1
  00114	48 8b 8d e0 00
	00 00		 mov	 rcx, QWORD PTR this$[rbp]
  0011b	66 89 41 32	 mov	 WORD PTR [rcx+50], ax
  0011f	33 c0		 xor	 eax, eax
  00121	48 8b 8d e0 00
	00 00		 mov	 rcx, QWORD PTR this$[rbp]
  00128	66 89 41 34	 mov	 WORD PTR [rcx+52], ax
  0012c	33 c0		 xor	 eax, eax
  0012e	48 8b 8d e0 00
	00 00		 mov	 rcx, QWORD PTR this$[rbp]
  00135	66 89 41 36	 mov	 WORD PTR [rcx+54], ax
  00139	33 c0		 xor	 eax, eax
  0013b	48 8b 8d e0 00
	00 00		 mov	 rcx, QWORD PTR this$[rbp]
  00142	66 89 41 38	 mov	 WORD PTR [rcx+56], ax
  00146	33 c0		 xor	 eax, eax
  00148	48 8b 8d e0 00
	00 00		 mov	 rcx, QWORD PTR this$[rbp]
  0014f	66 89 41 3a	 mov	 WORD PTR [rcx+58], ax
  00153	33 c0		 xor	 eax, eax
  00155	48 8b 8d e0 00
	00 00		 mov	 rcx, QWORD PTR this$[rbp]
  0015c	66 89 41 3c	 mov	 WORD PTR [rcx+60], ax
  00160	33 c0		 xor	 eax, eax
  00162	48 8b 8d e0 00
	00 00		 mov	 rcx, QWORD PTR this$[rbp]
  00169	66 89 41 3e	 mov	 WORD PTR [rcx+62], ax
  0016d	33 c0		 xor	 eax, eax
  0016f	48 8b 8d e0 00
	00 00		 mov	 rcx, QWORD PTR this$[rbp]
  00176	66 89 41 40	 mov	 WORD PTR [rcx+64], ax
  0017a	33 c0		 xor	 eax, eax
  0017c	48 8b 8d e0 00
	00 00		 mov	 rcx, QWORD PTR this$[rbp]
  00183	66 89 41 42	 mov	 WORD PTR [rcx+66], ax
  00187	33 c0		 xor	 eax, eax
  00189	48 8b 8d e0 00
	00 00		 mov	 rcx, QWORD PTR this$[rbp]
  00190	66 89 41 44	 mov	 WORD PTR [rcx+68], ax
  00194	33 c0		 xor	 eax, eax
  00196	48 8b 8d e0 00
	00 00		 mov	 rcx, QWORD PTR this$[rbp]
  0019d	66 89 41 46	 mov	 WORD PTR [rcx+70], ax
  001a1	33 c0		 xor	 eax, eax
  001a3	48 8b 8d e0 00
	00 00		 mov	 rcx, QWORD PTR this$[rbp]
  001aa	66 89 41 48	 mov	 WORD PTR [rcx+72], ax
  001ae	33 c0		 xor	 eax, eax
  001b0	48 8b 8d e0 00
	00 00		 mov	 rcx, QWORD PTR this$[rbp]
  001b7	66 89 41 4a	 mov	 WORD PTR [rcx+74], ax
  001bb	33 c0		 xor	 eax, eax
  001bd	48 8b 8d e0 00
	00 00		 mov	 rcx, QWORD PTR this$[rbp]
  001c4	66 89 41 4c	 mov	 WORD PTR [rcx+76], ax
  001c8	33 c0		 xor	 eax, eax
  001ca	48 8b 8d e0 00
	00 00		 mov	 rcx, QWORD PTR this$[rbp]
  001d1	66 89 41 4e	 mov	 WORD PTR [rcx+78], ax
  001d5	33 c0		 xor	 eax, eax
  001d7	48 8b 8d e0 00
	00 00		 mov	 rcx, QWORD PTR this$[rbp]
  001de	66 89 41 50	 mov	 WORD PTR [rcx+80], ax
  001e2	33 c0		 xor	 eax, eax
  001e4	48 8b 8d e0 00
	00 00		 mov	 rcx, QWORD PTR this$[rbp]
  001eb	66 89 41 52	 mov	 WORD PTR [rcx+82], ax
  001ef	33 c0		 xor	 eax, eax
  001f1	48 8b 8d e0 00
	00 00		 mov	 rcx, QWORD PTR this$[rbp]
  001f8	66 89 41 54	 mov	 WORD PTR [rcx+84], ax
  001fc	33 c0		 xor	 eax, eax
  001fe	48 8b 8d e0 00
	00 00		 mov	 rcx, QWORD PTR this$[rbp]
  00205	66 89 41 56	 mov	 WORD PTR [rcx+86], ax
  00209	b8 04 00 00 00	 mov	 eax, 4
  0020e	48 8b 8d e0 00
	00 00		 mov	 rcx, QWORD PTR this$[rbp]
  00215	66 89 41 58	 mov	 WORD PTR [rcx+88], ax
  00219	b8 01 00 00 00	 mov	 eax, 1
  0021e	48 8b 8d e0 00
	00 00		 mov	 rcx, QWORD PTR this$[rbp]
  00225	66 89 41 5a	 mov	 WORD PTR [rcx+90], ax
  00229	b8 01 00 00 00	 mov	 eax, 1
  0022e	48 8b 8d e0 00
	00 00		 mov	 rcx, QWORD PTR this$[rbp]
  00235	66 89 41 5c	 mov	 WORD PTR [rcx+92], ax
  00239	b8 05 00 00 00	 mov	 eax, 5
  0023e	48 8b 8d e0 00
	00 00		 mov	 rcx, QWORD PTR this$[rbp]
  00245	66 89 41 5e	 mov	 WORD PTR [rcx+94], ax
  00249	b8 01 00 00 00	 mov	 eax, 1
  0024e	48 8b 8d e0 00
	00 00		 mov	 rcx, QWORD PTR this$[rbp]
  00255	66 89 41 60	 mov	 WORD PTR [rcx+96], ax
  00259	b8 05 00 00 00	 mov	 eax, 5
  0025e	48 8b 8d e0 00
	00 00		 mov	 rcx, QWORD PTR this$[rbp]
  00265	66 89 41 62	 mov	 WORD PTR [rcx+98], ax
  00269	b8 05 00 00 00	 mov	 eax, 5
  0026e	48 8b 8d e0 00
	00 00		 mov	 rcx, QWORD PTR this$[rbp]
  00275	66 89 41 64	 mov	 WORD PTR [rcx+100], ax
  00279	b8 01 00 00 00	 mov	 eax, 1
  0027e	48 8b 8d e0 00
	00 00		 mov	 rcx, QWORD PTR this$[rbp]
  00285	66 89 41 66	 mov	 WORD PTR [rcx+102], ax
  00289	b8 03 00 00 00	 mov	 eax, 3
  0028e	48 8b 8d e0 00
	00 00		 mov	 rcx, QWORD PTR this$[rbp]
  00295	66 89 41 68	 mov	 WORD PTR [rcx+104], ax
  00299	b8 03 00 00 00	 mov	 eax, 3
  0029e	48 8b 8d e0 00
	00 00		 mov	 rcx, QWORD PTR this$[rbp]
  002a5	66 89 41 6a	 mov	 WORD PTR [rcx+106], ax
  002a9	b8 03 00 00 00	 mov	 eax, 3
  002ae	48 8b 8d e0 00
	00 00		 mov	 rcx, QWORD PTR this$[rbp]
  002b5	66 89 41 6c	 mov	 WORD PTR [rcx+108], ax
  002b9	b8 03 00 00 00	 mov	 eax, 3
  002be	48 8b 8d e0 00
	00 00		 mov	 rcx, QWORD PTR this$[rbp]
  002c5	66 89 41 6e	 mov	 WORD PTR [rcx+110], ax
  002c9	b8 03 00 00 00	 mov	 eax, 3
  002ce	48 8b 8d e0 00
	00 00		 mov	 rcx, QWORD PTR this$[rbp]
  002d5	66 89 41 70	 mov	 WORD PTR [rcx+112], ax
  002d9	b8 03 00 00 00	 mov	 eax, 3
  002de	48 8b 8d e0 00
	00 00		 mov	 rcx, QWORD PTR this$[rbp]
  002e5	66 89 41 72	 mov	 WORD PTR [rcx+114], ax
  002e9	b8 01 00 00 00	 mov	 eax, 1
  002ee	48 8b 8d e0 00
	00 00		 mov	 rcx, QWORD PTR this$[rbp]
  002f5	66 89 41 74	 mov	 WORD PTR [rcx+116], ax
  002f9	b8 01 00 00 00	 mov	 eax, 1
  002fe	48 8b 8d e0 00
	00 00		 mov	 rcx, QWORD PTR this$[rbp]
  00305	66 89 41 76	 mov	 WORD PTR [rcx+118], ax
  00309	b8 01 00 00 00	 mov	 eax, 1
  0030e	48 8b 8d e0 00
	00 00		 mov	 rcx, QWORD PTR this$[rbp]
  00315	66 89 41 78	 mov	 WORD PTR [rcx+120], ax
  00319	b8 01 00 00 00	 mov	 eax, 1
  0031e	48 8b 8d e0 00
	00 00		 mov	 rcx, QWORD PTR this$[rbp]
  00325	66 89 41 7a	 mov	 WORD PTR [rcx+122], ax
  00329	b8 01 00 00 00	 mov	 eax, 1
  0032e	48 8b 8d e0 00
	00 00		 mov	 rcx, QWORD PTR this$[rbp]
  00335	66 89 41 7c	 mov	 WORD PTR [rcx+124], ax
  00339	b8 01 00 00 00	 mov	 eax, 1
  0033e	48 8b 8d e0 00
	00 00		 mov	 rcx, QWORD PTR this$[rbp]
  00345	66 89 41 7e	 mov	 WORD PTR [rcx+126], ax
  00349	b8 01 00 00 00	 mov	 eax, 1
  0034e	48 8b 8d e0 00
	00 00		 mov	 rcx, QWORD PTR this$[rbp]
  00355	66 89 81 80 00
	00 00		 mov	 WORD PTR [rcx+128], ax
  0035c	b8 01 00 00 00	 mov	 eax, 1
  00361	48 8b 8d e0 00
	00 00		 mov	 rcx, QWORD PTR this$[rbp]
  00368	66 89 81 82 00
	00 00		 mov	 WORD PTR [rcx+130], ax
  0036f	b8 01 00 00 00	 mov	 eax, 1
  00374	48 8b 8d e0 00
	00 00		 mov	 rcx, QWORD PTR this$[rbp]
  0037b	66 89 81 84 00
	00 00		 mov	 WORD PTR [rcx+132], ax
  00382	b8 01 00 00 00	 mov	 eax, 1
  00387	48 8b 8d e0 00
	00 00		 mov	 rcx, QWORD PTR this$[rbp]
  0038e	66 89 81 86 00
	00 00		 mov	 WORD PTR [rcx+134], ax
  00395	b8 01 00 00 00	 mov	 eax, 1
  0039a	48 8b 8d e0 00
	00 00		 mov	 rcx, QWORD PTR this$[rbp]
  003a1	66 89 81 88 00
	00 00		 mov	 WORD PTR [rcx+136], ax
  003a8	b8 01 00 00 00	 mov	 eax, 1
  003ad	48 8b 8d e0 00
	00 00		 mov	 rcx, QWORD PTR this$[rbp]
  003b4	66 89 81 8a 00
	00 00		 mov	 WORD PTR [rcx+138], ax
  003bb	b8 05 00 00 00	 mov	 eax, 5
  003c0	48 8b 8d e0 00
	00 00		 mov	 rcx, QWORD PTR this$[rbp]
  003c7	66 89 81 8c 00
	00 00		 mov	 WORD PTR [rcx+140], ax
  003ce	b8 03 00 00 00	 mov	 eax, 3
  003d3	48 8b 8d e0 00
	00 00		 mov	 rcx, QWORD PTR this$[rbp]
  003da	66 89 81 8e 00
	00 00		 mov	 WORD PTR [rcx+142], ax
  003e1	b8 01 00 00 00	 mov	 eax, 1
  003e6	48 8b 8d e0 00
	00 00		 mov	 rcx, QWORD PTR this$[rbp]
  003ed	66 89 81 90 00
	00 00		 mov	 WORD PTR [rcx+144], ax
  003f4	b8 03 00 00 00	 mov	 eax, 3
  003f9	48 8b 8d e0 00
	00 00		 mov	 rcx, QWORD PTR this$[rbp]
  00400	66 89 81 92 00
	00 00		 mov	 WORD PTR [rcx+146], ax
  00407	b8 01 00 00 00	 mov	 eax, 1
  0040c	48 8b 8d e0 00
	00 00		 mov	 rcx, QWORD PTR this$[rbp]
  00413	66 89 81 94 00
	00 00		 mov	 WORD PTR [rcx+148], ax
  0041a	b8 05 00 00 00	 mov	 eax, 5
  0041f	48 8b 8d e0 00
	00 00		 mov	 rcx, QWORD PTR this$[rbp]
  00426	66 89 81 96 00
	00 00		 mov	 WORD PTR [rcx+150], ax
  0042d	b8 05 00 00 00	 mov	 eax, 5
  00432	48 8b 8d e0 00
	00 00		 mov	 rcx, QWORD PTR this$[rbp]
  00439	66 89 81 98 00
	00 00		 mov	 WORD PTR [rcx+152], ax
  00440	b8 01 00 00 00	 mov	 eax, 1
  00445	48 8b 8d e0 00
	00 00		 mov	 rcx, QWORD PTR this$[rbp]
  0044c	66 89 81 9a 00
	00 00		 mov	 WORD PTR [rcx+154], ax
  00453	b8 01 00 00 00	 mov	 eax, 1
  00458	48 8b 8d e0 00
	00 00		 mov	 rcx, QWORD PTR this$[rbp]
  0045f	66 89 81 9c 00
	00 00		 mov	 WORD PTR [rcx+156], ax
  00466	b8 01 00 00 00	 mov	 eax, 1
  0046b	48 8b 8d e0 00
	00 00		 mov	 rcx, QWORD PTR this$[rbp]
  00472	66 89 81 9e 00
	00 00		 mov	 WORD PTR [rcx+158], ax
  00479	b8 01 00 00 00	 mov	 eax, 1
  0047e	48 8b 8d e0 00
	00 00		 mov	 rcx, QWORD PTR this$[rbp]
  00485	66 89 81 a0 00
	00 00		 mov	 WORD PTR [rcx+160], ax
  0048c	b8 01 00 00 00	 mov	 eax, 1
  00491	48 8b 8d e0 00
	00 00		 mov	 rcx, QWORD PTR this$[rbp]
  00498	66 89 81 a2 00
	00 00		 mov	 WORD PTR [rcx+162], ax
  0049f	b8 01 00 00 00	 mov	 eax, 1
  004a4	48 8b 8d e0 00
	00 00		 mov	 rcx, QWORD PTR this$[rbp]
  004ab	66 89 81 a4 00
	00 00		 mov	 WORD PTR [rcx+164], ax
  004b2	b8 01 00 00 00	 mov	 eax, 1
  004b7	48 8b 8d e0 00
	00 00		 mov	 rcx, QWORD PTR this$[rbp]
  004be	66 89 81 a6 00
	00 00		 mov	 WORD PTR [rcx+166], ax
  004c5	b8 01 00 00 00	 mov	 eax, 1
  004ca	48 8b 8d e0 00
	00 00		 mov	 rcx, QWORD PTR this$[rbp]
  004d1	66 89 81 a8 00
	00 00		 mov	 WORD PTR [rcx+168], ax
  004d8	b8 01 00 00 00	 mov	 eax, 1
  004dd	48 8b 8d e0 00
	00 00		 mov	 rcx, QWORD PTR this$[rbp]
  004e4	66 89 81 aa 00
	00 00		 mov	 WORD PTR [rcx+170], ax
  004eb	b8 01 00 00 00	 mov	 eax, 1
  004f0	48 8b 8d e0 00
	00 00		 mov	 rcx, QWORD PTR this$[rbp]
  004f7	66 89 81 ac 00
	00 00		 mov	 WORD PTR [rcx+172], ax
  004fe	b8 01 00 00 00	 mov	 eax, 1
  00503	48 8b 8d e0 00
	00 00		 mov	 rcx, QWORD PTR this$[rbp]
  0050a	66 89 81 ae 00
	00 00		 mov	 WORD PTR [rcx+174], ax
  00511	b8 01 00 00 00	 mov	 eax, 1
  00516	48 8b 8d e0 00
	00 00		 mov	 rcx, QWORD PTR this$[rbp]
  0051d	66 89 81 b0 00
	00 00		 mov	 WORD PTR [rcx+176], ax
  00524	b8 01 00 00 00	 mov	 eax, 1
  00529	48 8b 8d e0 00
	00 00		 mov	 rcx, QWORD PTR this$[rbp]
  00530	66 89 81 b2 00
	00 00		 mov	 WORD PTR [rcx+178], ax
  00537	b8 01 00 00 00	 mov	 eax, 1
  0053c	48 8b 8d e0 00
	00 00		 mov	 rcx, QWORD PTR this$[rbp]
  00543	66 89 81 b4 00
	00 00		 mov	 WORD PTR [rcx+180], ax
  0054a	b8 01 00 00 00	 mov	 eax, 1
  0054f	48 8b 8d e0 00
	00 00		 mov	 rcx, QWORD PTR this$[rbp]
  00556	66 89 81 b6 00
	00 00		 mov	 WORD PTR [rcx+182], ax
  0055d	b8 01 00 00 00	 mov	 eax, 1
  00562	48 8b 8d e0 00
	00 00		 mov	 rcx, QWORD PTR this$[rbp]
  00569	66 89 81 b8 00
	00 00		 mov	 WORD PTR [rcx+184], ax
  00570	b8 01 00 00 00	 mov	 eax, 1
  00575	48 8b 8d e0 00
	00 00		 mov	 rcx, QWORD PTR this$[rbp]
  0057c	66 89 81 ba 00
	00 00		 mov	 WORD PTR [rcx+186], ax
  00583	b8 01 00 00 00	 mov	 eax, 1
  00588	48 8b 8d e0 00
	00 00		 mov	 rcx, QWORD PTR this$[rbp]
  0058f	66 89 81 bc 00
	00 00		 mov	 WORD PTR [rcx+188], ax
  00596	b8 01 00 00 00	 mov	 eax, 1
  0059b	48 8b 8d e0 00
	00 00		 mov	 rcx, QWORD PTR this$[rbp]
  005a2	66 89 81 be 00
	00 00		 mov	 WORD PTR [rcx+190], ax
  005a9	b8 01 00 00 00	 mov	 eax, 1
  005ae	48 8b 8d e0 00
	00 00		 mov	 rcx, QWORD PTR this$[rbp]
  005b5	66 89 81 c0 00
	00 00		 mov	 WORD PTR [rcx+192], ax
  005bc	b8 01 00 00 00	 mov	 eax, 1
  005c1	48 8b 8d e0 00
	00 00		 mov	 rcx, QWORD PTR this$[rbp]
  005c8	66 89 81 c2 00
	00 00		 mov	 WORD PTR [rcx+194], ax
  005cf	b8 01 00 00 00	 mov	 eax, 1
  005d4	48 8b 8d e0 00
	00 00		 mov	 rcx, QWORD PTR this$[rbp]
  005db	66 89 81 c4 00
	00 00		 mov	 WORD PTR [rcx+196], ax
  005e2	b8 01 00 00 00	 mov	 eax, 1
  005e7	48 8b 8d e0 00
	00 00		 mov	 rcx, QWORD PTR this$[rbp]
  005ee	66 89 81 c6 00
	00 00		 mov	 WORD PTR [rcx+198], ax
  005f5	b8 01 00 00 00	 mov	 eax, 1
  005fa	48 8b 8d e0 00
	00 00		 mov	 rcx, QWORD PTR this$[rbp]
  00601	66 89 81 c8 00
	00 00		 mov	 WORD PTR [rcx+200], ax
  00608	b8 01 00 00 00	 mov	 eax, 1
  0060d	48 8b 8d e0 00
	00 00		 mov	 rcx, QWORD PTR this$[rbp]
  00614	66 89 81 ca 00
	00 00		 mov	 WORD PTR [rcx+202], ax
  0061b	b8 01 00 00 00	 mov	 eax, 1
  00620	48 8b 8d e0 00
	00 00		 mov	 rcx, QWORD PTR this$[rbp]
  00627	66 89 81 cc 00
	00 00		 mov	 WORD PTR [rcx+204], ax
  0062e	b8 01 00 00 00	 mov	 eax, 1
  00633	48 8b 8d e0 00
	00 00		 mov	 rcx, QWORD PTR this$[rbp]
  0063a	66 89 81 ce 00
	00 00		 mov	 WORD PTR [rcx+206], ax
  00641	b8 05 00 00 00	 mov	 eax, 5
  00646	48 8b 8d e0 00
	00 00		 mov	 rcx, QWORD PTR this$[rbp]
  0064d	66 89 81 d0 00
	00 00		 mov	 WORD PTR [rcx+208], ax
  00654	b8 01 00 00 00	 mov	 eax, 1
  00659	48 8b 8d e0 00
	00 00		 mov	 rcx, QWORD PTR this$[rbp]
  00660	66 89 81 d2 00
	00 00		 mov	 WORD PTR [rcx+210], ax
  00667	b8 01 00 00 00	 mov	 eax, 1
  0066c	48 8b 8d e0 00
	00 00		 mov	 rcx, QWORD PTR this$[rbp]
  00673	66 89 81 d4 00
	00 00		 mov	 WORD PTR [rcx+212], ax
  0067a	b8 01 00 00 00	 mov	 eax, 1
  0067f	48 8b 8d e0 00
	00 00		 mov	 rcx, QWORD PTR this$[rbp]
  00686	66 89 81 d6 00
	00 00		 mov	 WORD PTR [rcx+214], ax
  0068d	b8 05 00 00 00	 mov	 eax, 5
  00692	48 8b 8d e0 00
	00 00		 mov	 rcx, QWORD PTR this$[rbp]
  00699	66 89 81 d8 00
	00 00		 mov	 WORD PTR [rcx+216], ax
  006a0	b8 01 00 00 00	 mov	 eax, 1
  006a5	48 8b 8d e0 00
	00 00		 mov	 rcx, QWORD PTR this$[rbp]
  006ac	66 89 81 da 00
	00 00		 mov	 WORD PTR [rcx+218], ax
  006b3	b8 01 00 00 00	 mov	 eax, 1
  006b8	48 8b 8d e0 00
	00 00		 mov	 rcx, QWORD PTR this$[rbp]
  006bf	66 89 81 dc 00
	00 00		 mov	 WORD PTR [rcx+220], ax
  006c6	b8 01 00 00 00	 mov	 eax, 1
  006cb	48 8b 8d e0 00
	00 00		 mov	 rcx, QWORD PTR this$[rbp]
  006d2	66 89 81 de 00
	00 00		 mov	 WORD PTR [rcx+222], ax
  006d9	b8 01 00 00 00	 mov	 eax, 1
  006de	48 8b 8d e0 00
	00 00		 mov	 rcx, QWORD PTR this$[rbp]
  006e5	66 89 81 e0 00
	00 00		 mov	 WORD PTR [rcx+224], ax
  006ec	b8 01 00 00 00	 mov	 eax, 1
  006f1	48 8b 8d e0 00
	00 00		 mov	 rcx, QWORD PTR this$[rbp]
  006f8	66 89 81 e2 00
	00 00		 mov	 WORD PTR [rcx+226], ax
  006ff	b8 01 00 00 00	 mov	 eax, 1
  00704	48 8b 8d e0 00
	00 00		 mov	 rcx, QWORD PTR this$[rbp]
  0070b	66 89 81 e4 00
	00 00		 mov	 WORD PTR [rcx+228], ax
  00712	b8 01 00 00 00	 mov	 eax, 1
  00717	48 8b 8d e0 00
	00 00		 mov	 rcx, QWORD PTR this$[rbp]
  0071e	66 89 81 e6 00
	00 00		 mov	 WORD PTR [rcx+230], ax
  00725	b8 01 00 00 00	 mov	 eax, 1
  0072a	48 8b 8d e0 00
	00 00		 mov	 rcx, QWORD PTR this$[rbp]
  00731	66 89 81 e8 00
	00 00		 mov	 WORD PTR [rcx+232], ax
  00738	b8 01 00 00 00	 mov	 eax, 1
  0073d	48 8b 8d e0 00
	00 00		 mov	 rcx, QWORD PTR this$[rbp]
  00744	66 89 81 ea 00
	00 00		 mov	 WORD PTR [rcx+234], ax
  0074b	b8 01 00 00 00	 mov	 eax, 1
  00750	48 8b 8d e0 00
	00 00		 mov	 rcx, QWORD PTR this$[rbp]
  00757	66 89 81 ec 00
	00 00		 mov	 WORD PTR [rcx+236], ax
  0075e	b8 01 00 00 00	 mov	 eax, 1
  00763	48 8b 8d e0 00
	00 00		 mov	 rcx, QWORD PTR this$[rbp]
  0076a	66 89 81 ee 00
	00 00		 mov	 WORD PTR [rcx+238], ax
  00771	b8 01 00 00 00	 mov	 eax, 1
  00776	48 8b 8d e0 00
	00 00		 mov	 rcx, QWORD PTR this$[rbp]
  0077d	66 89 81 f0 00
	00 00		 mov	 WORD PTR [rcx+240], ax
  00784	b8 01 00 00 00	 mov	 eax, 1
  00789	48 8b 8d e0 00
	00 00		 mov	 rcx, QWORD PTR this$[rbp]
  00790	66 89 81 f2 00
	00 00		 mov	 WORD PTR [rcx+242], ax
  00797	b8 01 00 00 00	 mov	 eax, 1
  0079c	48 8b 8d e0 00
	00 00		 mov	 rcx, QWORD PTR this$[rbp]
  007a3	66 89 81 f4 00
	00 00		 mov	 WORD PTR [rcx+244], ax
  007aa	b8 01 00 00 00	 mov	 eax, 1
  007af	48 8b 8d e0 00
	00 00		 mov	 rcx, QWORD PTR this$[rbp]
  007b6	66 89 81 f6 00
	00 00		 mov	 WORD PTR [rcx+246], ax
  007bd	b8 01 00 00 00	 mov	 eax, 1
  007c2	48 8b 8d e0 00
	00 00		 mov	 rcx, QWORD PTR this$[rbp]
  007c9	66 89 81 f8 00
	00 00		 mov	 WORD PTR [rcx+248], ax
  007d0	b8 01 00 00 00	 mov	 eax, 1
  007d5	48 8b 8d e0 00
	00 00		 mov	 rcx, QWORD PTR this$[rbp]
  007dc	66 89 81 fa 00
	00 00		 mov	 WORD PTR [rcx+250], ax
  007e3	b8 01 00 00 00	 mov	 eax, 1
  007e8	48 8b 8d e0 00
	00 00		 mov	 rcx, QWORD PTR this$[rbp]
  007ef	66 89 81 fc 00
	00 00		 mov	 WORD PTR [rcx+252], ax
  007f6	b8 01 00 00 00	 mov	 eax, 1
  007fb	48 8b 8d e0 00
	00 00		 mov	 rcx, QWORD PTR this$[rbp]
  00802	66 89 81 fe 00
	00 00		 mov	 WORD PTR [rcx+254], ax
  00809	b8 01 00 00 00	 mov	 eax, 1
  0080e	48 8b 8d e0 00
	00 00		 mov	 rcx, QWORD PTR this$[rbp]
  00815	66 89 81 00 01
	00 00		 mov	 WORD PTR [rcx+256], ax
  0081c	b8 01 00 00 00	 mov	 eax, 1
  00821	48 8b 8d e0 00
	00 00		 mov	 rcx, QWORD PTR this$[rbp]
  00828	66 89 81 02 01
	00 00		 mov	 WORD PTR [rcx+258], ax
  0082f	b8 01 00 00 00	 mov	 eax, 1
  00834	48 8b 8d e0 00
	00 00		 mov	 rcx, QWORD PTR this$[rbp]
  0083b	66 89 81 04 01
	00 00		 mov	 WORD PTR [rcx+260], ax
  00842	b8 01 00 00 00	 mov	 eax, 1
  00847	48 8b 8d e0 00
	00 00		 mov	 rcx, QWORD PTR this$[rbp]
  0084e	66 89 81 06 01
	00 00		 mov	 WORD PTR [rcx+262], ax
  00855	b8 01 00 00 00	 mov	 eax, 1
  0085a	48 8b 8d e0 00
	00 00		 mov	 rcx, QWORD PTR this$[rbp]
  00861	66 89 81 08 01
	00 00		 mov	 WORD PTR [rcx+264], ax
  00868	b8 01 00 00 00	 mov	 eax, 1
  0086d	48 8b 8d e0 00
	00 00		 mov	 rcx, QWORD PTR this$[rbp]
  00874	66 89 81 0a 01
	00 00		 mov	 WORD PTR [rcx+266], ax
  0087b	b8 01 00 00 00	 mov	 eax, 1
  00880	48 8b 8d e0 00
	00 00		 mov	 rcx, QWORD PTR this$[rbp]
  00887	66 89 81 0c 01
	00 00		 mov	 WORD PTR [rcx+268], ax
  0088e	b8 03 00 00 00	 mov	 eax, 3
  00893	48 8b 8d e0 00
	00 00		 mov	 rcx, QWORD PTR this$[rbp]
  0089a	66 89 81 0e 01
	00 00		 mov	 WORD PTR [rcx+270], ax
  008a1	b8 01 00 00 00	 mov	 eax, 1
  008a6	48 8b 8d e0 00
	00 00		 mov	 rcx, QWORD PTR this$[rbp]
  008ad	66 89 81 10 01
	00 00		 mov	 WORD PTR [rcx+272], ax
  008b4	b8 03 00 00 00	 mov	 eax, 3
  008b9	48 8b 8d e0 00
	00 00		 mov	 rcx, QWORD PTR this$[rbp]
  008c0	66 89 81 12 01
	00 00		 mov	 WORD PTR [rcx+274], ax
  008c7	b8 01 00 00 00	 mov	 eax, 1
  008cc	48 8b 8d e0 00
	00 00		 mov	 rcx, QWORD PTR this$[rbp]
  008d3	66 89 81 14 01
	00 00		 mov	 WORD PTR [rcx+276], ax
  008da	33 c0		 xor	 eax, eax
  008dc	48 8b 8d e0 00
	00 00		 mov	 rcx, QWORD PTR this$[rbp]
  008e3	66 89 81 16 01
	00 00		 mov	 WORD PTR [rcx+278], ax
  008ea	33 c0		 xor	 eax, eax
  008ec	48 8b 8d e0 00
	00 00		 mov	 rcx, QWORD PTR this$[rbp]
  008f3	66 89 81 18 01
	00 00		 mov	 WORD PTR [rcx+280], ax
  008fa	33 c0		 xor	 eax, eax
  008fc	48 8b 8d e0 00
	00 00		 mov	 rcx, QWORD PTR this$[rbp]
  00903	66 89 81 1a 01
	00 00		 mov	 WORD PTR [rcx+282], ax
  0090a	33 c0		 xor	 eax, eax
  0090c	48 8b 8d e0 00
	00 00		 mov	 rcx, QWORD PTR this$[rbp]
  00913	66 89 81 1c 01
	00 00		 mov	 WORD PTR [rcx+284], ax
  0091a	33 c0		 xor	 eax, eax
  0091c	48 8b 8d e0 00
	00 00		 mov	 rcx, QWORD PTR this$[rbp]
  00923	66 89 81 1e 01
	00 00		 mov	 WORD PTR [rcx+286], ax
  0092a	33 c0		 xor	 eax, eax
  0092c	48 8b 8d e0 00
	00 00		 mov	 rcx, QWORD PTR this$[rbp]
  00933	66 89 81 20 01
	00 00		 mov	 WORD PTR [rcx+288], ax
  0093a	33 c0		 xor	 eax, eax
  0093c	48 8b 8d e0 00
	00 00		 mov	 rcx, QWORD PTR this$[rbp]
  00943	66 89 81 22 01
	00 00		 mov	 WORD PTR [rcx+290], ax
  0094a	33 c0		 xor	 eax, eax
  0094c	48 8b 8d e0 00
	00 00		 mov	 rcx, QWORD PTR this$[rbp]
  00953	66 89 81 24 01
	00 00		 mov	 WORD PTR [rcx+292], ax
  0095a	33 c0		 xor	 eax, eax
  0095c	48 8b 8d e0 00
	00 00		 mov	 rcx, QWORD PTR this$[rbp]
  00963	66 89 81 26 01
	00 00		 mov	 WORD PTR [rcx+294], ax
  0096a	33 c0		 xor	 eax, eax
  0096c	48 8b 8d e0 00
	00 00		 mov	 rcx, QWORD PTR this$[rbp]
  00973	66 89 81 28 01
	00 00		 mov	 WORD PTR [rcx+296], ax
  0097a	33 c0		 xor	 eax, eax
  0097c	48 8b 8d e0 00
	00 00		 mov	 rcx, QWORD PTR this$[rbp]
  00983	66 89 81 2a 01
	00 00		 mov	 WORD PTR [rcx+298], ax
  0098a	33 c0		 xor	 eax, eax
  0098c	48 8b 8d e0 00
	00 00		 mov	 rcx, QWORD PTR this$[rbp]
  00993	66 89 81 2c 01
	00 00		 mov	 WORD PTR [rcx+300], ax
  0099a	33 c0		 xor	 eax, eax
  0099c	48 8b 8d e0 00
	00 00		 mov	 rcx, QWORD PTR this$[rbp]
  009a3	66 89 81 2e 01
	00 00		 mov	 WORD PTR [rcx+302], ax
  009aa	33 c0		 xor	 eax, eax
  009ac	48 8b 8d e0 00
	00 00		 mov	 rcx, QWORD PTR this$[rbp]
  009b3	66 89 81 30 01
	00 00		 mov	 WORD PTR [rcx+304], ax
  009ba	33 c0		 xor	 eax, eax
  009bc	48 8b 8d e0 00
	00 00		 mov	 rcx, QWORD PTR this$[rbp]
  009c3	66 89 81 32 01
	00 00		 mov	 WORD PTR [rcx+306], ax
  009ca	33 c0		 xor	 eax, eax
  009cc	48 8b 8d e0 00
	00 00		 mov	 rcx, QWORD PTR this$[rbp]
  009d3	66 89 81 34 01
	00 00		 mov	 WORD PTR [rcx+308], ax
  009da	33 c0		 xor	 eax, eax
  009dc	48 8b 8d e0 00
	00 00		 mov	 rcx, QWORD PTR this$[rbp]
  009e3	66 89 81 36 01
	00 00		 mov	 WORD PTR [rcx+310], ax
  009ea	33 c0		 xor	 eax, eax
  009ec	48 8b 8d e0 00
	00 00		 mov	 rcx, QWORD PTR this$[rbp]
  009f3	66 89 81 38 01
	00 00		 mov	 WORD PTR [rcx+312], ax
  009fa	33 c0		 xor	 eax, eax
  009fc	48 8b 8d e0 00
	00 00		 mov	 rcx, QWORD PTR this$[rbp]
  00a03	66 89 81 3a 01
	00 00		 mov	 WORD PTR [rcx+314], ax
  00a0a	33 c0		 xor	 eax, eax
  00a0c	48 8b 8d e0 00
	00 00		 mov	 rcx, QWORD PTR this$[rbp]
  00a13	66 89 81 3c 01
	00 00		 mov	 WORD PTR [rcx+316], ax
  00a1a	33 c0		 xor	 eax, eax
  00a1c	48 8b 8d e0 00
	00 00		 mov	 rcx, QWORD PTR this$[rbp]
  00a23	66 89 81 3e 01
	00 00		 mov	 WORD PTR [rcx+318], ax
  00a2a	33 c0		 xor	 eax, eax
  00a2c	48 8b 8d e0 00
	00 00		 mov	 rcx, QWORD PTR this$[rbp]
  00a33	66 89 81 40 01
	00 00		 mov	 WORD PTR [rcx+320], ax
  00a3a	33 c0		 xor	 eax, eax
  00a3c	48 8b 8d e0 00
	00 00		 mov	 rcx, QWORD PTR this$[rbp]
  00a43	66 89 81 42 01
	00 00		 mov	 WORD PTR [rcx+322], ax
  00a4a	33 c0		 xor	 eax, eax
  00a4c	48 8b 8d e0 00
	00 00		 mov	 rcx, QWORD PTR this$[rbp]
  00a53	66 89 81 44 01
	00 00		 mov	 WORD PTR [rcx+324], ax
  00a5a	33 c0		 xor	 eax, eax
  00a5c	48 8b 8d e0 00
	00 00		 mov	 rcx, QWORD PTR this$[rbp]
  00a63	66 89 81 46 01
	00 00		 mov	 WORD PTR [rcx+326], ax
  00a6a	33 c0		 xor	 eax, eax
  00a6c	48 8b 8d e0 00
	00 00		 mov	 rcx, QWORD PTR this$[rbp]
  00a73	66 89 81 48 01
	00 00		 mov	 WORD PTR [rcx+328], ax
  00a7a	33 c0		 xor	 eax, eax
  00a7c	48 8b 8d e0 00
	00 00		 mov	 rcx, QWORD PTR this$[rbp]
  00a83	66 89 81 4a 01
	00 00		 mov	 WORD PTR [rcx+330], ax
  00a8a	33 c0		 xor	 eax, eax
  00a8c	48 8b 8d e0 00
	00 00		 mov	 rcx, QWORD PTR this$[rbp]
  00a93	66 89 81 4c 01
	00 00		 mov	 WORD PTR [rcx+332], ax
  00a9a	33 c0		 xor	 eax, eax
  00a9c	48 8b 8d e0 00
	00 00		 mov	 rcx, QWORD PTR this$[rbp]
  00aa3	66 89 81 4e 01
	00 00		 mov	 WORD PTR [rcx+334], ax
  00aaa	33 c0		 xor	 eax, eax
  00aac	48 8b 8d e0 00
	00 00		 mov	 rcx, QWORD PTR this$[rbp]
  00ab3	66 89 81 50 01
	00 00		 mov	 WORD PTR [rcx+336], ax
  00aba	33 c0		 xor	 eax, eax
  00abc	48 8b 8d e0 00
	00 00		 mov	 rcx, QWORD PTR this$[rbp]
  00ac3	66 89 81 52 01
	00 00		 mov	 WORD PTR [rcx+338], ax
  00aca	33 c0		 xor	 eax, eax
  00acc	48 8b 8d e0 00
	00 00		 mov	 rcx, QWORD PTR this$[rbp]
  00ad3	66 89 81 54 01
	00 00		 mov	 WORD PTR [rcx+340], ax
  00ada	33 c0		 xor	 eax, eax
  00adc	48 8b 8d e0 00
	00 00		 mov	 rcx, QWORD PTR this$[rbp]
  00ae3	66 89 81 56 01
	00 00		 mov	 WORD PTR [rcx+342], ax
  00aea	33 c0		 xor	 eax, eax
  00aec	48 8b 8d e0 00
	00 00		 mov	 rcx, QWORD PTR this$[rbp]
  00af3	66 89 81 58 01
	00 00		 mov	 WORD PTR [rcx+344], ax
  00afa	33 c0		 xor	 eax, eax
  00afc	48 8b 8d e0 00
	00 00		 mov	 rcx, QWORD PTR this$[rbp]
  00b03	66 89 81 5a 01
	00 00		 mov	 WORD PTR [rcx+346], ax
  00b0a	33 c0		 xor	 eax, eax
  00b0c	48 8b 8d e0 00
	00 00		 mov	 rcx, QWORD PTR this$[rbp]
  00b13	66 89 81 5c 01
	00 00		 mov	 WORD PTR [rcx+348], ax
  00b1a	33 c0		 xor	 eax, eax
  00b1c	48 8b 8d e0 00
	00 00		 mov	 rcx, QWORD PTR this$[rbp]
  00b23	66 89 81 5e 01
	00 00		 mov	 WORD PTR [rcx+350], ax
  00b2a	33 c0		 xor	 eax, eax
  00b2c	48 8b 8d e0 00
	00 00		 mov	 rcx, QWORD PTR this$[rbp]
  00b33	66 89 81 60 01
	00 00		 mov	 WORD PTR [rcx+352], ax
  00b3a	33 c0		 xor	 eax, eax
  00b3c	48 8b 8d e0 00
	00 00		 mov	 rcx, QWORD PTR this$[rbp]
  00b43	66 89 81 62 01
	00 00		 mov	 WORD PTR [rcx+354], ax
  00b4a	33 c0		 xor	 eax, eax
  00b4c	48 8b 8d e0 00
	00 00		 mov	 rcx, QWORD PTR this$[rbp]
  00b53	66 89 81 64 01
	00 00		 mov	 WORD PTR [rcx+356], ax
  00b5a	33 c0		 xor	 eax, eax
  00b5c	48 8b 8d e0 00
	00 00		 mov	 rcx, QWORD PTR this$[rbp]
  00b63	66 89 81 66 01
	00 00		 mov	 WORD PTR [rcx+358], ax
  00b6a	b8 05 00 00 00	 mov	 eax, 5
  00b6f	48 8b 8d e0 00
	00 00		 mov	 rcx, QWORD PTR this$[rbp]
  00b76	66 89 81 68 01
	00 00		 mov	 WORD PTR [rcx+360], ax
  00b7d	b8 05 00 00 00	 mov	 eax, 5
  00b82	48 8b 8d e0 00
	00 00		 mov	 rcx, QWORD PTR this$[rbp]
  00b89	66 89 81 6a 01
	00 00		 mov	 WORD PTR [rcx+362], ax
  00b90	33 c0		 xor	 eax, eax
  00b92	48 8b 8d e0 00
	00 00		 mov	 rcx, QWORD PTR this$[rbp]
  00b99	66 89 81 6c 01
	00 00		 mov	 WORD PTR [rcx+364], ax
  00ba0	33 c0		 xor	 eax, eax
  00ba2	48 8b 8d e0 00
	00 00		 mov	 rcx, QWORD PTR this$[rbp]
  00ba9	66 89 81 6e 01
	00 00		 mov	 WORD PTR [rcx+366], ax
  00bb0	33 c0		 xor	 eax, eax
  00bb2	48 8b 8d e0 00
	00 00		 mov	 rcx, QWORD PTR this$[rbp]
  00bb9	66 89 81 70 01
	00 00		 mov	 WORD PTR [rcx+368], ax
  00bc0	33 c0		 xor	 eax, eax
  00bc2	48 8b 8d e0 00
	00 00		 mov	 rcx, QWORD PTR this$[rbp]
  00bc9	66 89 81 72 01
	00 00		 mov	 WORD PTR [rcx+370], ax
  00bd0	33 c0		 xor	 eax, eax
  00bd2	48 8b 8d e0 00
	00 00		 mov	 rcx, QWORD PTR this$[rbp]
  00bd9	66 89 81 74 01
	00 00		 mov	 WORD PTR [rcx+372], ax
  00be0	33 c0		 xor	 eax, eax
  00be2	48 8b 8d e0 00
	00 00		 mov	 rcx, QWORD PTR this$[rbp]
  00be9	66 89 81 76 01
	00 00		 mov	 WORD PTR [rcx+374], ax
  00bf0	33 c0		 xor	 eax, eax
  00bf2	48 8b 8d e0 00
	00 00		 mov	 rcx, QWORD PTR this$[rbp]
  00bf9	66 89 81 78 01
	00 00		 mov	 WORD PTR [rcx+376], ax
  00c00	33 c0		 xor	 eax, eax
  00c02	48 8b 8d e0 00
	00 00		 mov	 rcx, QWORD PTR this$[rbp]
  00c09	66 89 81 7a 01
	00 00		 mov	 WORD PTR [rcx+378], ax
  00c10	33 c0		 xor	 eax, eax
  00c12	48 8b 8d e0 00
	00 00		 mov	 rcx, QWORD PTR this$[rbp]
  00c19	66 89 81 7c 01
	00 00		 mov	 WORD PTR [rcx+380], ax
  00c20	33 c0		 xor	 eax, eax
  00c22	48 8b 8d e0 00
	00 00		 mov	 rcx, QWORD PTR this$[rbp]
  00c29	66 89 81 7e 01
	00 00		 mov	 WORD PTR [rcx+382], ax
  00c30	33 c0		 xor	 eax, eax
  00c32	48 8b 8d e0 00
	00 00		 mov	 rcx, QWORD PTR this$[rbp]
  00c39	66 89 81 80 01
	00 00		 mov	 WORD PTR [rcx+384], ax
  00c40	33 c0		 xor	 eax, eax
  00c42	48 8b 8d e0 00
	00 00		 mov	 rcx, QWORD PTR this$[rbp]
  00c49	66 89 81 82 01
	00 00		 mov	 WORD PTR [rcx+386], ax
  00c50	33 c0		 xor	 eax, eax
  00c52	48 8b 8d e0 00
	00 00		 mov	 rcx, QWORD PTR this$[rbp]
  00c59	66 89 81 84 01
	00 00		 mov	 WORD PTR [rcx+388], ax
  00c60	33 c0		 xor	 eax, eax
  00c62	48 8b 8d e0 00
	00 00		 mov	 rcx, QWORD PTR this$[rbp]
  00c69	66 89 81 86 01
	00 00		 mov	 WORD PTR [rcx+390], ax
  00c70	33 c0		 xor	 eax, eax
  00c72	48 8b 8d e0 00
	00 00		 mov	 rcx, QWORD PTR this$[rbp]
  00c79	66 89 81 88 01
	00 00		 mov	 WORD PTR [rcx+392], ax
  00c80	b8 05 00 00 00	 mov	 eax, 5
  00c85	48 8b 8d e0 00
	00 00		 mov	 rcx, QWORD PTR this$[rbp]
  00c8c	66 89 81 8a 01
	00 00		 mov	 WORD PTR [rcx+394], ax
  00c93	33 c0		 xor	 eax, eax
  00c95	48 8b 8d e0 00
	00 00		 mov	 rcx, QWORD PTR this$[rbp]
  00c9c	66 89 81 8c 01
	00 00		 mov	 WORD PTR [rcx+396], ax
  00ca3	33 c0		 xor	 eax, eax
  00ca5	48 8b 8d e0 00
	00 00		 mov	 rcx, QWORD PTR this$[rbp]
  00cac	66 89 81 8e 01
	00 00		 mov	 WORD PTR [rcx+398], ax
  00cb3	33 c0		 xor	 eax, eax
  00cb5	48 8b 8d e0 00
	00 00		 mov	 rcx, QWORD PTR this$[rbp]
  00cbc	66 89 81 90 01
	00 00		 mov	 WORD PTR [rcx+400], ax
  00cc3	33 c0		 xor	 eax, eax
  00cc5	48 8b 8d e0 00
	00 00		 mov	 rcx, QWORD PTR this$[rbp]
  00ccc	66 89 81 92 01
	00 00		 mov	 WORD PTR [rcx+402], ax
  00cd3	33 c0		 xor	 eax, eax
  00cd5	48 8b 8d e0 00
	00 00		 mov	 rcx, QWORD PTR this$[rbp]
  00cdc	66 89 81 94 01
	00 00		 mov	 WORD PTR [rcx+404], ax
  00ce3	33 c0		 xor	 eax, eax
  00ce5	48 8b 8d e0 00
	00 00		 mov	 rcx, QWORD PTR this$[rbp]
  00cec	66 89 81 96 01
	00 00		 mov	 WORD PTR [rcx+406], ax
  00cf3	b8 05 00 00 00	 mov	 eax, 5
  00cf8	48 8b 8d e0 00
	00 00		 mov	 rcx, QWORD PTR this$[rbp]
  00cff	66 89 81 98 01
	00 00		 mov	 WORD PTR [rcx+408], ax
  00d06	b8 05 00 00 00	 mov	 eax, 5
  00d0b	48 8b 8d e0 00
	00 00		 mov	 rcx, QWORD PTR this$[rbp]
  00d12	66 89 81 9a 01
	00 00		 mov	 WORD PTR [rcx+410], ax
  00d19	b8 05 00 00 00	 mov	 eax, 5
  00d1e	48 8b 8d e0 00
	00 00		 mov	 rcx, QWORD PTR this$[rbp]
  00d25	66 89 81 9c 01
	00 00		 mov	 WORD PTR [rcx+412], ax
  00d2c	b8 05 00 00 00	 mov	 eax, 5
  00d31	48 8b 8d e0 00
	00 00		 mov	 rcx, QWORD PTR this$[rbp]
  00d38	66 89 81 9e 01
	00 00		 mov	 WORD PTR [rcx+414], ax
  00d3f	b8 05 00 00 00	 mov	 eax, 5
  00d44	48 8b 8d e0 00
	00 00		 mov	 rcx, QWORD PTR this$[rbp]
  00d4b	66 89 81 a0 01
	00 00		 mov	 WORD PTR [rcx+416], ax
  00d52	b8 05 00 00 00	 mov	 eax, 5
  00d57	48 8b 8d e0 00
	00 00		 mov	 rcx, QWORD PTR this$[rbp]
  00d5e	66 89 81 a2 01
	00 00		 mov	 WORD PTR [rcx+418], ax
  00d65	b8 05 00 00 00	 mov	 eax, 5
  00d6a	48 8b 8d e0 00
	00 00		 mov	 rcx, QWORD PTR this$[rbp]
  00d71	66 89 81 a4 01
	00 00		 mov	 WORD PTR [rcx+420], ax
  00d78	b8 05 00 00 00	 mov	 eax, 5
  00d7d	48 8b 8d e0 00
	00 00		 mov	 rcx, QWORD PTR this$[rbp]
  00d84	66 89 81 a6 01
	00 00		 mov	 WORD PTR [rcx+422], ax
  00d8b	b8 05 00 00 00	 mov	 eax, 5
  00d90	48 8b 8d e0 00
	00 00		 mov	 rcx, QWORD PTR this$[rbp]
  00d97	66 89 81 a8 01
	00 00		 mov	 WORD PTR [rcx+424], ax
  00d9e	b8 05 00 00 00	 mov	 eax, 5
  00da3	48 8b 8d e0 00
	00 00		 mov	 rcx, QWORD PTR this$[rbp]
  00daa	66 89 81 aa 01
	00 00		 mov	 WORD PTR [rcx+426], ax
  00db1	b8 05 00 00 00	 mov	 eax, 5
  00db6	48 8b 8d e0 00
	00 00		 mov	 rcx, QWORD PTR this$[rbp]
  00dbd	66 89 81 ac 01
	00 00		 mov	 WORD PTR [rcx+428], ax
  00dc4	b8 05 00 00 00	 mov	 eax, 5
  00dc9	48 8b 8d e0 00
	00 00		 mov	 rcx, QWORD PTR this$[rbp]
  00dd0	66 89 81 ae 01
	00 00		 mov	 WORD PTR [rcx+430], ax
  00dd7	b8 05 00 00 00	 mov	 eax, 5
  00ddc	48 8b 8d e0 00
	00 00		 mov	 rcx, QWORD PTR this$[rbp]
  00de3	66 89 81 b0 01
	00 00		 mov	 WORD PTR [rcx+432], ax
  00dea	b8 05 00 00 00	 mov	 eax, 5
  00def	48 8b 8d e0 00
	00 00		 mov	 rcx, QWORD PTR this$[rbp]
  00df6	66 89 81 b2 01
	00 00		 mov	 WORD PTR [rcx+434], ax
  00dfd	b8 05 00 00 00	 mov	 eax, 5
  00e02	48 8b 8d e0 00
	00 00		 mov	 rcx, QWORD PTR this$[rbp]
  00e09	66 89 81 b4 01
	00 00		 mov	 WORD PTR [rcx+436], ax
  00e10	b8 05 00 00 00	 mov	 eax, 5
  00e15	48 8b 8d e0 00
	00 00		 mov	 rcx, QWORD PTR this$[rbp]
  00e1c	66 89 81 b6 01
	00 00		 mov	 WORD PTR [rcx+438], ax
  00e23	b8 05 00 00 00	 mov	 eax, 5
  00e28	48 8b 8d e0 00
	00 00		 mov	 rcx, QWORD PTR this$[rbp]
  00e2f	66 89 81 b8 01
	00 00		 mov	 WORD PTR [rcx+440], ax
  00e36	b8 05 00 00 00	 mov	 eax, 5
  00e3b	48 8b 8d e0 00
	00 00		 mov	 rcx, QWORD PTR this$[rbp]
  00e42	66 89 81 ba 01
	00 00		 mov	 WORD PTR [rcx+442], ax
  00e49	b8 05 00 00 00	 mov	 eax, 5
  00e4e	48 8b 8d e0 00
	00 00		 mov	 rcx, QWORD PTR this$[rbp]
  00e55	66 89 81 bc 01
	00 00		 mov	 WORD PTR [rcx+444], ax
  00e5c	b8 05 00 00 00	 mov	 eax, 5
  00e61	48 8b 8d e0 00
	00 00		 mov	 rcx, QWORD PTR this$[rbp]
  00e68	66 89 81 be 01
	00 00		 mov	 WORD PTR [rcx+446], ax
  00e6f	b8 05 00 00 00	 mov	 eax, 5
  00e74	48 8b 8d e0 00
	00 00		 mov	 rcx, QWORD PTR this$[rbp]
  00e7b	66 89 81 c0 01
	00 00		 mov	 WORD PTR [rcx+448], ax
  00e82	b8 05 00 00 00	 mov	 eax, 5
  00e87	48 8b 8d e0 00
	00 00		 mov	 rcx, QWORD PTR this$[rbp]
  00e8e	66 89 81 c2 01
	00 00		 mov	 WORD PTR [rcx+450], ax
  00e95	b8 05 00 00 00	 mov	 eax, 5
  00e9a	48 8b 8d e0 00
	00 00		 mov	 rcx, QWORD PTR this$[rbp]
  00ea1	66 89 81 c4 01
	00 00		 mov	 WORD PTR [rcx+452], ax
  00ea8	b8 05 00 00 00	 mov	 eax, 5
  00ead	48 8b 8d e0 00
	00 00		 mov	 rcx, QWORD PTR this$[rbp]
  00eb4	66 89 81 c6 01
	00 00		 mov	 WORD PTR [rcx+454], ax
  00ebb	b8 05 00 00 00	 mov	 eax, 5
  00ec0	48 8b 8d e0 00
	00 00		 mov	 rcx, QWORD PTR this$[rbp]
  00ec7	66 89 81 c8 01
	00 00		 mov	 WORD PTR [rcx+456], ax
  00ece	b8 05 00 00 00	 mov	 eax, 5
  00ed3	48 8b 8d e0 00
	00 00		 mov	 rcx, QWORD PTR this$[rbp]
  00eda	66 89 81 ca 01
	00 00		 mov	 WORD PTR [rcx+458], ax
  00ee1	b8 05 00 00 00	 mov	 eax, 5
  00ee6	48 8b 8d e0 00
	00 00		 mov	 rcx, QWORD PTR this$[rbp]
  00eed	66 89 81 cc 01
	00 00		 mov	 WORD PTR [rcx+460], ax
  00ef4	b8 05 00 00 00	 mov	 eax, 5
  00ef9	48 8b 8d e0 00
	00 00		 mov	 rcx, QWORD PTR this$[rbp]
  00f00	66 89 81 ce 01
	00 00		 mov	 WORD PTR [rcx+462], ax
  00f07	b8 05 00 00 00	 mov	 eax, 5
  00f0c	48 8b 8d e0 00
	00 00		 mov	 rcx, QWORD PTR this$[rbp]
  00f13	66 89 81 d0 01
	00 00		 mov	 WORD PTR [rcx+464], ax
  00f1a	b8 05 00 00 00	 mov	 eax, 5
  00f1f	48 8b 8d e0 00
	00 00		 mov	 rcx, QWORD PTR this$[rbp]
  00f26	66 89 81 d2 01
	00 00		 mov	 WORD PTR [rcx+466], ax
  00f2d	b8 05 00 00 00	 mov	 eax, 5
  00f32	48 8b 8d e0 00
	00 00		 mov	 rcx, QWORD PTR this$[rbp]
  00f39	66 89 81 d4 01
	00 00		 mov	 WORD PTR [rcx+468], ax
  00f40	b8 05 00 00 00	 mov	 eax, 5
  00f45	48 8b 8d e0 00
	00 00		 mov	 rcx, QWORD PTR this$[rbp]
  00f4c	66 89 81 d6 01
	00 00		 mov	 WORD PTR [rcx+470], ax
  00f53	b8 05 00 00 00	 mov	 eax, 5
  00f58	48 8b 8d e0 00
	00 00		 mov	 rcx, QWORD PTR this$[rbp]
  00f5f	66 89 81 d8 01
	00 00		 mov	 WORD PTR [rcx+472], ax
  00f66	b8 05 00 00 00	 mov	 eax, 5
  00f6b	48 8b 8d e0 00
	00 00		 mov	 rcx, QWORD PTR this$[rbp]
  00f72	66 89 81 da 01
	00 00		 mov	 WORD PTR [rcx+474], ax
  00f79	b8 05 00 00 00	 mov	 eax, 5
  00f7e	48 8b 8d e0 00
	00 00		 mov	 rcx, QWORD PTR this$[rbp]
  00f85	66 89 81 dc 01
	00 00		 mov	 WORD PTR [rcx+476], ax
  00f8c	b8 05 00 00 00	 mov	 eax, 5
  00f91	48 8b 8d e0 00
	00 00		 mov	 rcx, QWORD PTR this$[rbp]
  00f98	66 89 81 de 01
	00 00		 mov	 WORD PTR [rcx+478], ax
  00f9f	b8 05 00 00 00	 mov	 eax, 5
  00fa4	48 8b 8d e0 00
	00 00		 mov	 rcx, QWORD PTR this$[rbp]
  00fab	66 89 81 e0 01
	00 00		 mov	 WORD PTR [rcx+480], ax
  00fb2	b8 05 00 00 00	 mov	 eax, 5
  00fb7	48 8b 8d e0 00
	00 00		 mov	 rcx, QWORD PTR this$[rbp]
  00fbe	66 89 81 e2 01
	00 00		 mov	 WORD PTR [rcx+482], ax
  00fc5	b8 05 00 00 00	 mov	 eax, 5
  00fca	48 8b 8d e0 00
	00 00		 mov	 rcx, QWORD PTR this$[rbp]
  00fd1	66 89 81 e4 01
	00 00		 mov	 WORD PTR [rcx+484], ax
  00fd8	b8 05 00 00 00	 mov	 eax, 5
  00fdd	48 8b 8d e0 00
	00 00		 mov	 rcx, QWORD PTR this$[rbp]
  00fe4	66 89 81 e6 01
	00 00		 mov	 WORD PTR [rcx+486], ax
  00feb	b8 05 00 00 00	 mov	 eax, 5
  00ff0	48 8b 8d e0 00
	00 00		 mov	 rcx, QWORD PTR this$[rbp]
  00ff7	66 89 81 e8 01
	00 00		 mov	 WORD PTR [rcx+488], ax
  00ffe	b8 05 00 00 00	 mov	 eax, 5
  01003	48 8b 8d e0 00
	00 00		 mov	 rcx, QWORD PTR this$[rbp]
  0100a	66 89 81 ea 01
	00 00		 mov	 WORD PTR [rcx+490], ax
  01011	b8 05 00 00 00	 mov	 eax, 5
  01016	48 8b 8d e0 00
	00 00		 mov	 rcx, QWORD PTR this$[rbp]
  0101d	66 89 81 ec 01
	00 00		 mov	 WORD PTR [rcx+492], ax
  01024	b8 05 00 00 00	 mov	 eax, 5
  01029	48 8b 8d e0 00
	00 00		 mov	 rcx, QWORD PTR this$[rbp]
  01030	66 89 81 ee 01
	00 00		 mov	 WORD PTR [rcx+494], ax
  01037	b8 05 00 00 00	 mov	 eax, 5
  0103c	48 8b 8d e0 00
	00 00		 mov	 rcx, QWORD PTR this$[rbp]
  01043	66 89 81 f0 01
	00 00		 mov	 WORD PTR [rcx+496], ax
  0104a	b8 05 00 00 00	 mov	 eax, 5
  0104f	48 8b 8d e0 00
	00 00		 mov	 rcx, QWORD PTR this$[rbp]
  01056	66 89 81 f2 01
	00 00		 mov	 WORD PTR [rcx+498], ax
  0105d	b8 05 00 00 00	 mov	 eax, 5
  01062	48 8b 8d e0 00
	00 00		 mov	 rcx, QWORD PTR this$[rbp]
  01069	66 89 81 f4 01
	00 00		 mov	 WORD PTR [rcx+500], ax
  01070	b8 05 00 00 00	 mov	 eax, 5
  01075	48 8b 8d e0 00
	00 00		 mov	 rcx, QWORD PTR this$[rbp]
  0107c	66 89 81 f6 01
	00 00		 mov	 WORD PTR [rcx+502], ax
  01083	b8 05 00 00 00	 mov	 eax, 5
  01088	48 8b 8d e0 00
	00 00		 mov	 rcx, QWORD PTR this$[rbp]
  0108f	66 89 81 f8 01
	00 00		 mov	 WORD PTR [rcx+504], ax
  01096	b8 05 00 00 00	 mov	 eax, 5
  0109b	48 8b 8d e0 00
	00 00		 mov	 rcx, QWORD PTR this$[rbp]
  010a2	66 89 81 fa 01
	00 00		 mov	 WORD PTR [rcx+506], ax
  010a9	b8 05 00 00 00	 mov	 eax, 5
  010ae	48 8b 8d e0 00
	00 00		 mov	 rcx, QWORD PTR this$[rbp]
  010b5	66 89 81 fc 01
	00 00		 mov	 WORD PTR [rcx+508], ax
  010bc	b8 05 00 00 00	 mov	 eax, 5
  010c1	48 8b 8d e0 00
	00 00		 mov	 rcx, QWORD PTR this$[rbp]
  010c8	66 89 81 fe 01
	00 00		 mov	 WORD PTR [rcx+510], ax
  010cf	b8 05 00 00 00	 mov	 eax, 5
  010d4	48 8b 8d e0 00
	00 00		 mov	 rcx, QWORD PTR this$[rbp]
  010db	66 89 81 00 02
	00 00		 mov	 WORD PTR [rcx+512], ax
  010e2	b8 05 00 00 00	 mov	 eax, 5
  010e7	48 8b 8d e0 00
	00 00		 mov	 rcx, QWORD PTR this$[rbp]
  010ee	66 89 81 02 02
	00 00		 mov	 WORD PTR [rcx+514], ax
  010f5	b8 05 00 00 00	 mov	 eax, 5
  010fa	48 8b 8d e0 00
	00 00		 mov	 rcx, QWORD PTR this$[rbp]
  01101	66 89 81 04 02
	00 00		 mov	 WORD PTR [rcx+516], ax
  01108	b8 05 00 00 00	 mov	 eax, 5
  0110d	48 8b 8d e0 00
	00 00		 mov	 rcx, QWORD PTR this$[rbp]
  01114	66 89 81 06 02
	00 00		 mov	 WORD PTR [rcx+518], ax
  0111b	b8 05 00 00 00	 mov	 eax, 5
  01120	48 8b 8d e0 00
	00 00		 mov	 rcx, QWORD PTR this$[rbp]
  01127	66 89 81 08 02
	00 00		 mov	 WORD PTR [rcx+520], ax
  0112e	b8 05 00 00 00	 mov	 eax, 5
  01133	48 8b 8d e0 00
	00 00		 mov	 rcx, QWORD PTR this$[rbp]
  0113a	66 89 81 0a 02
	00 00		 mov	 WORD PTR [rcx+522], ax
  01141	b8 05 00 00 00	 mov	 eax, 5
  01146	48 8b 8d e0 00
	00 00		 mov	 rcx, QWORD PTR this$[rbp]
  0114d	66 89 81 0c 02
	00 00		 mov	 WORD PTR [rcx+524], ax
  01154	b8 05 00 00 00	 mov	 eax, 5
  01159	48 8b 8d e0 00
	00 00		 mov	 rcx, QWORD PTR this$[rbp]
  01160	66 89 81 0e 02
	00 00		 mov	 WORD PTR [rcx+526], ax
  01167	b8 05 00 00 00	 mov	 eax, 5
  0116c	48 8b 8d e0 00
	00 00		 mov	 rcx, QWORD PTR this$[rbp]
  01173	66 89 81 10 02
	00 00		 mov	 WORD PTR [rcx+528], ax
  0117a	b8 05 00 00 00	 mov	 eax, 5
  0117f	48 8b 8d e0 00
	00 00		 mov	 rcx, QWORD PTR this$[rbp]
  01186	66 89 81 12 02
	00 00		 mov	 WORD PTR [rcx+530], ax
  0118d	b8 05 00 00 00	 mov	 eax, 5
  01192	48 8b 8d e0 00
	00 00		 mov	 rcx, QWORD PTR this$[rbp]
  01199	66 89 81 14 02
	00 00		 mov	 WORD PTR [rcx+532], ax
  011a0	b8 05 00 00 00	 mov	 eax, 5
  011a5	48 8b 8d e0 00
	00 00		 mov	 rcx, QWORD PTR this$[rbp]
  011ac	66 89 81 16 02
	00 00		 mov	 WORD PTR [rcx+534], ax
  011b3	48 8b 85 e0 00
	00 00		 mov	 rax, QWORD PTR this$[rbp]
  011ba	48 8d a5 c8 00
	00 00		 lea	 rsp, QWORD PTR [rbp+200]
  011c1	5f		 pop	 rdi
  011c2	5d		 pop	 rbp
  011c3	c3		 ret	 0
??0IN@In@@QEAA@XZ ENDP					; In::IN::IN
_TEXT	ENDS
; Function compile flags: /Odtp /RTCsu /ZI
; File C:\Program Files (x86)\Microsoft Visual Studio\2019\Enterprise\VC\Tools\MSVC\14.27.29110\include\fstream
;	COMDAT ??$_Ungetc@D@std@@YA_NAEBDPEAU_iobuf@@@Z
_TEXT	SEGMENT
tv69 = 192
_Byte$ = 240
_File$ = 248
??$_Ungetc@D@std@@YA_NAEBDPEAU_iobuf@@@Z PROC		; std::_Ungetc<char>, COMDAT

; 129  : inline bool _Ungetc(const char& _Byte, FILE* _File) { // put back a char element to a C stream

$LN5:
  00000	48 89 54 24 10	 mov	 QWORD PTR [rsp+16], rdx
  00005	48 89 4c 24 08	 mov	 QWORD PTR [rsp+8], rcx
  0000a	55		 push	 rbp
  0000b	57		 push	 rdi
  0000c	48 81 ec f8 00
	00 00		 sub	 rsp, 248		; 000000f8H
  00013	48 8d 6c 24 20	 lea	 rbp, QWORD PTR [rsp+32]
  00018	48 8b fc	 mov	 rdi, rsp
  0001b	b9 3e 00 00 00	 mov	 ecx, 62			; 0000003eH
  00020	b8 cc cc cc cc	 mov	 eax, -858993460		; ccccccccH
  00025	f3 ab		 rep stosd
  00027	48 8b 8c 24 18
	01 00 00	 mov	 rcx, QWORD PTR [rsp+280]
  0002f	48 8d 0d 00 00
	00 00		 lea	 rcx, OFFSET FLAT:__21FC1C84_fstream
  00036	e8 00 00 00 00	 call	 __CheckForDebuggerJustMyCode

; 130  :     return _CSTD ungetc(static_cast<unsigned char>(_Byte), _File) != EOF;

  0003b	48 8b 85 f0 00
	00 00		 mov	 rax, QWORD PTR _Byte$[rbp]
  00042	0f b6 00	 movzx	 eax, BYTE PTR [rax]
  00045	48 8b 95 f8 00
	00 00		 mov	 rdx, QWORD PTR _File$[rbp]
  0004c	8b c8		 mov	 ecx, eax
  0004e	ff 15 00 00 00
	00		 call	 QWORD PTR __imp_ungetc
  00054	83 f8 ff	 cmp	 eax, -1
  00057	74 0c		 je	 SHORT $LN3@Ungetc
  00059	c7 85 c0 00 00
	00 01 00 00 00	 mov	 DWORD PTR tv69[rbp], 1
  00063	eb 0a		 jmp	 SHORT $LN4@Ungetc
$LN3@Ungetc:
  00065	c7 85 c0 00 00
	00 00 00 00 00	 mov	 DWORD PTR tv69[rbp], 0
$LN4@Ungetc:
  0006f	0f b6 85 c0 00
	00 00		 movzx	 eax, BYTE PTR tv69[rbp]

; 131  : }

  00076	48 8d a5 d8 00
	00 00		 lea	 rsp, QWORD PTR [rbp+216]
  0007d	5f		 pop	 rdi
  0007e	5d		 pop	 rbp
  0007f	c3		 ret	 0
??$_Ungetc@D@std@@YA_NAEBDPEAU_iobuf@@@Z ENDP		; std::_Ungetc<char>
_TEXT	ENDS
; Function compile flags: /Odtp /RTCsu /ZI
; File C:\Program Files (x86)\Microsoft Visual Studio\2019\Enterprise\VC\Tools\MSVC\14.27.29110\include\fstream
;	COMDAT ??$_Fputc@D@std@@YA_NDPEAU_iobuf@@@Z
_TEXT	SEGMENT
tv69 = 192
_Byte$ = 240
_File$ = 248
??$_Fputc@D@std@@YA_NDPEAU_iobuf@@@Z PROC		; std::_Fputc<char>, COMDAT

; 106  : inline bool _Fputc(char _Byte, FILE* _File) { // put a char element to a C stream

$LN5:
  00000	48 89 54 24 10	 mov	 QWORD PTR [rsp+16], rdx
  00005	88 4c 24 08	 mov	 BYTE PTR [rsp+8], cl
  00009	55		 push	 rbp
  0000a	57		 push	 rdi
  0000b	48 81 ec f8 00
	00 00		 sub	 rsp, 248		; 000000f8H
  00012	48 8d 6c 24 20	 lea	 rbp, QWORD PTR [rsp+32]
  00017	48 8b fc	 mov	 rdi, rsp
  0001a	b9 3e 00 00 00	 mov	 ecx, 62			; 0000003eH
  0001f	b8 cc cc cc cc	 mov	 eax, -858993460		; ccccccccH
  00024	f3 ab		 rep stosd
  00026	0f b6 8c 24 18
	01 00 00	 movzx	 ecx, BYTE PTR [rsp+280]
  0002e	48 8d 0d 00 00
	00 00		 lea	 rcx, OFFSET FLAT:__21FC1C84_fstream
  00035	e8 00 00 00 00	 call	 __CheckForDebuggerJustMyCode

; 107  :     return _CSTD fputc(_Byte, _File) != EOF;

  0003a	0f be 85 f0 00
	00 00		 movsx	 eax, BYTE PTR _Byte$[rbp]
  00041	48 8b 95 f8 00
	00 00		 mov	 rdx, QWORD PTR _File$[rbp]
  00048	8b c8		 mov	 ecx, eax
  0004a	ff 15 00 00 00
	00		 call	 QWORD PTR __imp_fputc
  00050	83 f8 ff	 cmp	 eax, -1
  00053	74 0c		 je	 SHORT $LN3@Fputc
  00055	c7 85 c0 00 00
	00 01 00 00 00	 mov	 DWORD PTR tv69[rbp], 1
  0005f	eb 0a		 jmp	 SHORT $LN4@Fputc
$LN3@Fputc:
  00061	c7 85 c0 00 00
	00 00 00 00 00	 mov	 DWORD PTR tv69[rbp], 0
$LN4@Fputc:
  0006b	0f b6 85 c0 00
	00 00		 movzx	 eax, BYTE PTR tv69[rbp]

; 108  : }

  00072	48 8d a5 d8 00
	00 00		 lea	 rsp, QWORD PTR [rbp+216]
  00079	5f		 pop	 rdi
  0007a	5d		 pop	 rbp
  0007b	c3		 ret	 0
??$_Fputc@D@std@@YA_NDPEAU_iobuf@@@Z ENDP		; std::_Fputc<char>
_TEXT	ENDS
; Function compile flags: /Odtp /RTCsu /ZI
; File C:\Program Files (x86)\Microsoft Visual Studio\2019\Enterprise\VC\Tools\MSVC\14.27.29110\include\fstream
;	COMDAT ??$_Fgetc@D@std@@YA_NAEADPEAU_iobuf@@@Z
_TEXT	SEGMENT
_Meta$ = 4
_Byte$ = 256
_File$ = 264
??$_Fgetc@D@std@@YA_NAEADPEAU_iobuf@@@Z PROC		; std::_Fgetc<char>, COMDAT

; 65   : inline bool _Fgetc(char& _Byte, FILE* _File) { // get a char element from a C stream

$LN5:
  00000	48 89 54 24 10	 mov	 QWORD PTR [rsp+16], rdx
  00005	48 89 4c 24 08	 mov	 QWORD PTR [rsp+8], rcx
  0000a	55		 push	 rbp
  0000b	57		 push	 rdi
  0000c	48 81 ec 08 01
	00 00		 sub	 rsp, 264		; 00000108H
  00013	48 8d 6c 24 20	 lea	 rbp, QWORD PTR [rsp+32]
  00018	48 8b fc	 mov	 rdi, rsp
  0001b	b9 42 00 00 00	 mov	 ecx, 66			; 00000042H
  00020	b8 cc cc cc cc	 mov	 eax, -858993460		; ccccccccH
  00025	f3 ab		 rep stosd
  00027	48 8b 8c 24 28
	01 00 00	 mov	 rcx, QWORD PTR [rsp+296]
  0002f	48 8d 0d 00 00
	00 00		 lea	 rcx, OFFSET FLAT:__21FC1C84_fstream
  00036	e8 00 00 00 00	 call	 __CheckForDebuggerJustMyCode

; 66   :     int _Meta;
; 67   :     if ((_Meta = _CSTD fgetc(_File)) == EOF) {

  0003b	48 8b 8d 08 01
	00 00		 mov	 rcx, QWORD PTR _File$[rbp]
  00042	ff 15 00 00 00
	00		 call	 QWORD PTR __imp_fgetc
  00048	89 45 04	 mov	 DWORD PTR _Meta$[rbp], eax
  0004b	83 7d 04 ff	 cmp	 DWORD PTR _Meta$[rbp], -1
  0004f	75 06		 jne	 SHORT $LN2@Fgetc

; 68   :         return false;

  00051	32 c0		 xor	 al, al
  00053	eb 11		 jmp	 SHORT $LN1@Fgetc

; 69   :     } else { // got one, convert to char

  00055	eb 0f		 jmp	 SHORT $LN3@Fgetc
$LN2@Fgetc:

; 70   :         _Byte = static_cast<char>(_Meta);

  00057	48 8b 85 00 01
	00 00		 mov	 rax, QWORD PTR _Byte$[rbp]
  0005e	0f b6 4d 04	 movzx	 ecx, BYTE PTR _Meta$[rbp]
  00062	88 08		 mov	 BYTE PTR [rax], cl

; 71   :         return true;

  00064	b0 01		 mov	 al, 1
$LN3@Fgetc:
$LN1@Fgetc:

; 72   :     }
; 73   : }

  00066	48 8d a5 e8 00
	00 00		 lea	 rsp, QWORD PTR [rbp+232]
  0006d	5f		 pop	 rdi
  0006e	5d		 pop	 rbp
  0006f	c3		 ret	 0
??$_Fgetc@D@std@@YA_NAEADPEAU_iobuf@@@Z ENDP		; std::_Fgetc<char>
_TEXT	ENDS
; Function compile flags: /Odtp /RTCsu /ZI
; File C:\Program Files (x86)\Microsoft Visual Studio\2019\Enterprise\VC\Tools\MSVC\14.27.29110\include\xloctime
;	COMDAT ??$_Getvals@_W@?$time_get@_WV?$istreambuf_iterator@_WU?$char_traits@_W@std@@@std@@@std@@IEAAX_WAEBV_Locinfo@1@@Z
_TEXT	SEGMENT
$T1 = 200
tv93 = 264
tv85 = 264
this$ = 304
__formal$ = 312
_Lobj$ = 320
??$_Getvals@_W@?$time_get@_WV?$istreambuf_iterator@_WU?$char_traits@_W@std@@@std@@@std@@IEAAX_WAEBV_Locinfo@1@@Z PROC ; std::time_get<wchar_t,std::istreambuf_iterator<wchar_t,std::char_traits<wchar_t> > >::_Getvals<wchar_t>, COMDAT

; 176  :     void __CLR_OR_THIS_CALL _Getvals(_Elem2, const _Locinfo& _Lobj) { // get values

$LN5:
  00000	4c 89 44 24 18	 mov	 QWORD PTR [rsp+24], r8
  00005	66 89 54 24 10	 mov	 WORD PTR [rsp+16], dx
  0000a	48 89 4c 24 08	 mov	 QWORD PTR [rsp+8], rcx
  0000f	55		 push	 rbp
  00010	56		 push	 rsi
  00011	57		 push	 rdi
  00012	48 81 ec 30 01
	00 00		 sub	 rsp, 304		; 00000130H
  00019	48 8d 6c 24 20	 lea	 rbp, QWORD PTR [rsp+32]
  0001e	48 8b fc	 mov	 rdi, rsp
  00021	b9 4c 00 00 00	 mov	 ecx, 76			; 0000004cH
  00026	b8 cc cc cc cc	 mov	 eax, -858993460		; ccccccccH
  0002b	f3 ab		 rep stosd
  0002d	48 8b 8c 24 58
	01 00 00	 mov	 rcx, QWORD PTR [rsp+344]
  00035	48 8d 0d 00 00
	00 00		 lea	 rcx, OFFSET FLAT:__FDACCCE4_xloctime
  0003c	e8 00 00 00 00	 call	 __CheckForDebuggerJustMyCode

; 177  :         _Cvt = _Lobj._Getcvt();

  00041	48 8d 95 c8 00
	00 00		 lea	 rdx, QWORD PTR $T1[rbp]
  00048	48 8b 8d 40 01
	00 00		 mov	 rcx, QWORD PTR _Lobj$[rbp]
  0004f	ff 15 00 00 00
	00		 call	 QWORD PTR __imp_?_Getcvt@_Locinfo@std@@QEBA?AU_Cvtvec@@XZ
  00055	48 8b 8d 30 01
	00 00		 mov	 rcx, QWORD PTR this$[rbp]
  0005c	48 8d 79 2c	 lea	 rdi, QWORD PTR [rcx+44]
  00060	48 8b f0	 mov	 rsi, rax
  00063	b9 2c 00 00 00	 mov	 ecx, 44			; 0000002cH
  00068	f3 a4		 rep movsb

; 178  : 
; 179  :         if (is_same_v<_Elem2, wchar_t>) {

  0006a	33 c0		 xor	 eax, eax
  0006c	83 f8 01	 cmp	 eax, 1
  0006f	74 5c		 je	 SHORT $LN2@Getvals

; 180  :             _Days = reinterpret_cast<const _Elem*>(_Maklocwcs(reinterpret_cast<const wchar_t*>(_Lobj._W_Getdays())));

  00071	48 8b 8d 40 01
	00 00		 mov	 rcx, QWORD PTR _Lobj$[rbp]
  00078	ff 15 00 00 00
	00		 call	 QWORD PTR __imp_?_W_Getdays@_Locinfo@std@@QEBAPEBGXZ
  0007e	48 8b c8	 mov	 rcx, rax
  00081	e8 00 00 00 00	 call	 ?_Maklocwcs@std@@YAPEA_WPEB_W@Z ; std::_Maklocwcs
  00086	48 8b 8d 30 01
	00 00		 mov	 rcx, QWORD PTR this$[rbp]
  0008d	48 89 41 10	 mov	 QWORD PTR [rcx+16], rax

; 181  :             _Months =

  00091	48 8b 8d 40 01
	00 00		 mov	 rcx, QWORD PTR _Lobj$[rbp]
  00098	ff 15 00 00 00
	00		 call	 QWORD PTR __imp_?_W_Getmonths@_Locinfo@std@@QEBAPEBGXZ
  0009e	48 8b c8	 mov	 rcx, rax
  000a1	e8 00 00 00 00	 call	 ?_Maklocwcs@std@@YAPEA_WPEB_W@Z ; std::_Maklocwcs
  000a6	48 8b 8d 30 01
	00 00		 mov	 rcx, QWORD PTR this$[rbp]
  000ad	48 89 41 18	 mov	 QWORD PTR [rcx+24], rax

; 182  :                 reinterpret_cast<const _Elem*>(_Maklocwcs(reinterpret_cast<const wchar_t*>(_Lobj._W_Getmonths())));
; 183  :             _Ampm = reinterpret_cast<const _Elem*>(_Maklocwcs(L":AM:am:PM:pm"));

  000b1	48 8d 0d 00 00
	00 00		 lea	 rcx, OFFSET FLAT:??_C@_1BK@MHIKGOKE@?$AA?3?$AAA?$AAM?$AA?3?$AAa?$AAm?$AA?3?$AAP?$AAM?$AA?3?$AAp?$AAm@
  000b8	e8 00 00 00 00	 call	 ?_Maklocwcs@std@@YAPEA_WPEB_W@Z ; std::_Maklocwcs
  000bd	48 8b 8d 30 01
	00 00		 mov	 rcx, QWORD PTR this$[rbp]
  000c4	48 89 41 20	 mov	 QWORD PTR [rcx+32], rax

; 184  :         } else {

  000c8	e9 a3 00 00 00	 jmp	 $LN3@Getvals
$LN2@Getvals:

; 185  :             _Days   = _Maklocstr(_Lobj._Getdays(), static_cast<_Elem*>(nullptr), _Cvt);

  000cd	48 8b 85 30 01
	00 00		 mov	 rax, QWORD PTR this$[rbp]
  000d4	48 83 c0 2c	 add	 rax, 44			; 0000002cH
  000d8	48 89 85 08 01
	00 00		 mov	 QWORD PTR tv85[rbp], rax
  000df	48 8b 8d 40 01
	00 00		 mov	 rcx, QWORD PTR _Lobj$[rbp]
  000e6	ff 15 00 00 00
	00		 call	 QWORD PTR __imp_?_Getdays@_Locinfo@std@@QEBAPEBDXZ
  000ec	48 8b 8d 08 01
	00 00		 mov	 rcx, QWORD PTR tv85[rbp]
  000f3	4c 8b c1	 mov	 r8, rcx
  000f6	33 d2		 xor	 edx, edx
  000f8	48 8b c8	 mov	 rcx, rax
  000fb	e8 00 00 00 00	 call	 ??$_Maklocstr@_W@std@@YAPEA_WPEBDPEA_WAEBU_Cvtvec@@@Z ; std::_Maklocstr<wchar_t>
  00100	48 8b 8d 30 01
	00 00		 mov	 rcx, QWORD PTR this$[rbp]
  00107	48 89 41 10	 mov	 QWORD PTR [rcx+16], rax

; 186  :             _Months = _Maklocstr(_Lobj._Getmonths(), static_cast<_Elem*>(nullptr), _Cvt);

  0010b	48 8b 85 30 01
	00 00		 mov	 rax, QWORD PTR this$[rbp]
  00112	48 83 c0 2c	 add	 rax, 44			; 0000002cH
  00116	48 89 85 08 01
	00 00		 mov	 QWORD PTR tv93[rbp], rax
  0011d	48 8b 8d 40 01
	00 00		 mov	 rcx, QWORD PTR _Lobj$[rbp]
  00124	ff 15 00 00 00
	00		 call	 QWORD PTR __imp_?_Getmonths@_Locinfo@std@@QEBAPEBDXZ
  0012a	48 8b 8d 08 01
	00 00		 mov	 rcx, QWORD PTR tv93[rbp]
  00131	4c 8b c1	 mov	 r8, rcx
  00134	33 d2		 xor	 edx, edx
  00136	48 8b c8	 mov	 rcx, rax
  00139	e8 00 00 00 00	 call	 ??$_Maklocstr@_W@std@@YAPEA_WPEBDPEA_WAEBU_Cvtvec@@@Z ; std::_Maklocstr<wchar_t>
  0013e	48 8b 8d 30 01
	00 00		 mov	 rcx, QWORD PTR this$[rbp]
  00145	48 89 41 18	 mov	 QWORD PTR [rcx+24], rax

; 187  :             _Ampm   = _Maklocstr(":AM:am:PM:pm", static_cast<_Elem*>(nullptr), _Cvt);

  00149	48 8b 85 30 01
	00 00		 mov	 rax, QWORD PTR this$[rbp]
  00150	48 83 c0 2c	 add	 rax, 44			; 0000002cH
  00154	4c 8b c0	 mov	 r8, rax
  00157	33 d2		 xor	 edx, edx
  00159	48 8d 0d 00 00
	00 00		 lea	 rcx, OFFSET FLAT:??_C@_0N@LPFKKEBD@?3AM?3am?3PM?3pm@
  00160	e8 00 00 00 00	 call	 ??$_Maklocstr@_W@std@@YAPEA_WPEBDPEA_WAEBU_Cvtvec@@@Z ; std::_Maklocstr<wchar_t>
  00165	48 8b 8d 30 01
	00 00		 mov	 rcx, QWORD PTR this$[rbp]
  0016c	48 89 41 20	 mov	 QWORD PTR [rcx+32], rax
$LN3@Getvals:

; 188  :         }
; 189  :     }

  00170	48 8d a5 10 01
	00 00		 lea	 rsp, QWORD PTR [rbp+272]
  00177	5f		 pop	 rdi
  00178	5e		 pop	 rsi
  00179	5d		 pop	 rbp
  0017a	c3		 ret	 0
??$_Getvals@_W@?$time_get@_WV?$istreambuf_iterator@_WU?$char_traits@_W@std@@@std@@@std@@IEAAX_WAEBV_Locinfo@1@@Z ENDP ; std::time_get<wchar_t,std::istreambuf_iterator<wchar_t,std::char_traits<wchar_t> > >::_Getvals<wchar_t>
_TEXT	ENDS
; Function compile flags: /Odtp /RTCsu /ZI
; File C:\Program Files (x86)\Microsoft Visual Studio\2019\Enterprise\VC\Tools\MSVC\14.27.29110\include\xloctime
;	COMDAT ??$_Getvals@_W@?$time_get@DV?$istreambuf_iterator@DU?$char_traits@D@std@@@std@@@std@@IEAAX_WAEBV_Locinfo@1@@Z
_TEXT	SEGMENT
$T1 = 200
tv93 = 264
tv85 = 264
this$ = 304
__formal$ = 312
_Lobj$ = 320
??$_Getvals@_W@?$time_get@DV?$istreambuf_iterator@DU?$char_traits@D@std@@@std@@@std@@IEAAX_WAEBV_Locinfo@1@@Z PROC ; std::time_get<char,std::istreambuf_iterator<char,std::char_traits<char> > >::_Getvals<wchar_t>, COMDAT

; 176  :     void __CLR_OR_THIS_CALL _Getvals(_Elem2, const _Locinfo& _Lobj) { // get values

$LN5:
  00000	4c 89 44 24 18	 mov	 QWORD PTR [rsp+24], r8
  00005	66 89 54 24 10	 mov	 WORD PTR [rsp+16], dx
  0000a	48 89 4c 24 08	 mov	 QWORD PTR [rsp+8], rcx
  0000f	55		 push	 rbp
  00010	56		 push	 rsi
  00011	57		 push	 rdi
  00012	48 81 ec 30 01
	00 00		 sub	 rsp, 304		; 00000130H
  00019	48 8d 6c 24 20	 lea	 rbp, QWORD PTR [rsp+32]
  0001e	48 8b fc	 mov	 rdi, rsp
  00021	b9 4c 00 00 00	 mov	 ecx, 76			; 0000004cH
  00026	b8 cc cc cc cc	 mov	 eax, -858993460		; ccccccccH
  0002b	f3 ab		 rep stosd
  0002d	48 8b 8c 24 58
	01 00 00	 mov	 rcx, QWORD PTR [rsp+344]
  00035	48 8d 0d 00 00
	00 00		 lea	 rcx, OFFSET FLAT:__FDACCCE4_xloctime
  0003c	e8 00 00 00 00	 call	 __CheckForDebuggerJustMyCode

; 177  :         _Cvt = _Lobj._Getcvt();

  00041	48 8d 95 c8 00
	00 00		 lea	 rdx, QWORD PTR $T1[rbp]
  00048	48 8b 8d 40 01
	00 00		 mov	 rcx, QWORD PTR _Lobj$[rbp]
  0004f	ff 15 00 00 00
	00		 call	 QWORD PTR __imp_?_Getcvt@_Locinfo@std@@QEBA?AU_Cvtvec@@XZ
  00055	48 8b 8d 30 01
	00 00		 mov	 rcx, QWORD PTR this$[rbp]
  0005c	48 8d 79 2c	 lea	 rdi, QWORD PTR [rcx+44]
  00060	48 8b f0	 mov	 rsi, rax
  00063	b9 2c 00 00 00	 mov	 ecx, 44			; 0000002cH
  00068	f3 a4		 rep movsb

; 178  : 
; 179  :         if (is_same_v<_Elem2, wchar_t>) {

  0006a	33 c0		 xor	 eax, eax
  0006c	83 f8 01	 cmp	 eax, 1
  0006f	74 5c		 je	 SHORT $LN2@Getvals

; 180  :             _Days = reinterpret_cast<const _Elem*>(_Maklocwcs(reinterpret_cast<const wchar_t*>(_Lobj._W_Getdays())));

  00071	48 8b 8d 40 01
	00 00		 mov	 rcx, QWORD PTR _Lobj$[rbp]
  00078	ff 15 00 00 00
	00		 call	 QWORD PTR __imp_?_W_Getdays@_Locinfo@std@@QEBAPEBGXZ
  0007e	48 8b c8	 mov	 rcx, rax
  00081	e8 00 00 00 00	 call	 ?_Maklocwcs@std@@YAPEA_WPEB_W@Z ; std::_Maklocwcs
  00086	48 8b 8d 30 01
	00 00		 mov	 rcx, QWORD PTR this$[rbp]
  0008d	48 89 41 10	 mov	 QWORD PTR [rcx+16], rax

; 181  :             _Months =

  00091	48 8b 8d 40 01
	00 00		 mov	 rcx, QWORD PTR _Lobj$[rbp]
  00098	ff 15 00 00 00
	00		 call	 QWORD PTR __imp_?_W_Getmonths@_Locinfo@std@@QEBAPEBGXZ
  0009e	48 8b c8	 mov	 rcx, rax
  000a1	e8 00 00 00 00	 call	 ?_Maklocwcs@std@@YAPEA_WPEB_W@Z ; std::_Maklocwcs
  000a6	48 8b 8d 30 01
	00 00		 mov	 rcx, QWORD PTR this$[rbp]
  000ad	48 89 41 18	 mov	 QWORD PTR [rcx+24], rax

; 182  :                 reinterpret_cast<const _Elem*>(_Maklocwcs(reinterpret_cast<const wchar_t*>(_Lobj._W_Getmonths())));
; 183  :             _Ampm = reinterpret_cast<const _Elem*>(_Maklocwcs(L":AM:am:PM:pm"));

  000b1	48 8d 0d 00 00
	00 00		 lea	 rcx, OFFSET FLAT:??_C@_1BK@MHIKGOKE@?$AA?3?$AAA?$AAM?$AA?3?$AAa?$AAm?$AA?3?$AAP?$AAM?$AA?3?$AAp?$AAm@
  000b8	e8 00 00 00 00	 call	 ?_Maklocwcs@std@@YAPEA_WPEB_W@Z ; std::_Maklocwcs
  000bd	48 8b 8d 30 01
	00 00		 mov	 rcx, QWORD PTR this$[rbp]
  000c4	48 89 41 20	 mov	 QWORD PTR [rcx+32], rax

; 184  :         } else {

  000c8	e9 a3 00 00 00	 jmp	 $LN3@Getvals
$LN2@Getvals:

; 185  :             _Days   = _Maklocstr(_Lobj._Getdays(), static_cast<_Elem*>(nullptr), _Cvt);

  000cd	48 8b 85 30 01
	00 00		 mov	 rax, QWORD PTR this$[rbp]
  000d4	48 83 c0 2c	 add	 rax, 44			; 0000002cH
  000d8	48 89 85 08 01
	00 00		 mov	 QWORD PTR tv85[rbp], rax
  000df	48 8b 8d 40 01
	00 00		 mov	 rcx, QWORD PTR _Lobj$[rbp]
  000e6	ff 15 00 00 00
	00		 call	 QWORD PTR __imp_?_Getdays@_Locinfo@std@@QEBAPEBDXZ
  000ec	48 8b 8d 08 01
	00 00		 mov	 rcx, QWORD PTR tv85[rbp]
  000f3	4c 8b c1	 mov	 r8, rcx
  000f6	33 d2		 xor	 edx, edx
  000f8	48 8b c8	 mov	 rcx, rax
  000fb	e8 00 00 00 00	 call	 ??$_Maklocstr@D@std@@YAPEADPEBDPEADAEBU_Cvtvec@@@Z ; std::_Maklocstr<char>
  00100	48 8b 8d 30 01
	00 00		 mov	 rcx, QWORD PTR this$[rbp]
  00107	48 89 41 10	 mov	 QWORD PTR [rcx+16], rax

; 186  :             _Months = _Maklocstr(_Lobj._Getmonths(), static_cast<_Elem*>(nullptr), _Cvt);

  0010b	48 8b 85 30 01
	00 00		 mov	 rax, QWORD PTR this$[rbp]
  00112	48 83 c0 2c	 add	 rax, 44			; 0000002cH
  00116	48 89 85 08 01
	00 00		 mov	 QWORD PTR tv93[rbp], rax
  0011d	48 8b 8d 40 01
	00 00		 mov	 rcx, QWORD PTR _Lobj$[rbp]
  00124	ff 15 00 00 00
	00		 call	 QWORD PTR __imp_?_Getmonths@_Locinfo@std@@QEBAPEBDXZ
  0012a	48 8b 8d 08 01
	00 00		 mov	 rcx, QWORD PTR tv93[rbp]
  00131	4c 8b c1	 mov	 r8, rcx
  00134	33 d2		 xor	 edx, edx
  00136	48 8b c8	 mov	 rcx, rax
  00139	e8 00 00 00 00	 call	 ??$_Maklocstr@D@std@@YAPEADPEBDPEADAEBU_Cvtvec@@@Z ; std::_Maklocstr<char>
  0013e	48 8b 8d 30 01
	00 00		 mov	 rcx, QWORD PTR this$[rbp]
  00145	48 89 41 18	 mov	 QWORD PTR [rcx+24], rax

; 187  :             _Ampm   = _Maklocstr(":AM:am:PM:pm", static_cast<_Elem*>(nullptr), _Cvt);

  00149	48 8b 85 30 01
	00 00		 mov	 rax, QWORD PTR this$[rbp]
  00150	48 83 c0 2c	 add	 rax, 44			; 0000002cH
  00154	4c 8b c0	 mov	 r8, rax
  00157	33 d2		 xor	 edx, edx
  00159	48 8d 0d 00 00
	00 00		 lea	 rcx, OFFSET FLAT:??_C@_0N@LPFKKEBD@?3AM?3am?3PM?3pm@
  00160	e8 00 00 00 00	 call	 ??$_Maklocstr@D@std@@YAPEADPEBDPEADAEBU_Cvtvec@@@Z ; std::_Maklocstr<char>
  00165	48 8b 8d 30 01
	00 00		 mov	 rcx, QWORD PTR this$[rbp]
  0016c	48 89 41 20	 mov	 QWORD PTR [rcx+32], rax
$LN3@Getvals:

; 188  :         }
; 189  :     }

  00170	48 8d a5 10 01
	00 00		 lea	 rsp, QWORD PTR [rbp+272]
  00177	5f		 pop	 rdi
  00178	5e		 pop	 rsi
  00179	5d		 pop	 rbp
  0017a	c3		 ret	 0
??$_Getvals@_W@?$time_get@DV?$istreambuf_iterator@DU?$char_traits@D@std@@@std@@@std@@IEAAX_WAEBV_Locinfo@1@@Z ENDP ; std::time_get<char,std::istreambuf_iterator<char,std::char_traits<char> > >::_Getvals<wchar_t>
_TEXT	ENDS
; Function compile flags: /Odtp /RTCsu /ZI
; File C:\Program Files (x86)\Microsoft Visual Studio\2019\Enterprise\VC\Tools\MSVC\14.27.29110\include\xlocale
;	COMDAT ??$_Maklocstr@D@std@@YAPEADPEBDPEADAEBU_Cvtvec@@@Z
_TEXT	SEGMENT
_Count$ = 8
_Ptrdest$ = 40
_Ptrnext$1 = 72
_Ptr$ = 320
__formal$ = 328
__formal$ = 336
??$_Maklocstr@D@std@@YAPEADPEBDPEADAEBU_Cvtvec@@@Z PROC	; std::_Maklocstr<char>, COMDAT

; 563  : _Elem* __CRTDECL _Maklocstr(const char* _Ptr, _Elem*, const _Locinfo::_Cvtvec&) {

$LN7:
  00000	4c 89 44 24 18	 mov	 QWORD PTR [rsp+24], r8
  00005	48 89 54 24 10	 mov	 QWORD PTR [rsp+16], rdx
  0000a	48 89 4c 24 08	 mov	 QWORD PTR [rsp+8], rcx
  0000f	55		 push	 rbp
  00010	57		 push	 rdi
  00011	48 81 ec 58 01
	00 00		 sub	 rsp, 344		; 00000158H
  00018	48 8d 6c 24 30	 lea	 rbp, QWORD PTR [rsp+48]
  0001d	48 8b fc	 mov	 rdi, rsp
  00020	b9 56 00 00 00	 mov	 ecx, 86			; 00000056H
  00025	b8 cc cc cc cc	 mov	 eax, -858993460		; ccccccccH
  0002a	f3 ab		 rep stosd
  0002c	48 8b 8c 24 78
	01 00 00	 mov	 rcx, QWORD PTR [rsp+376]
  00034	48 8d 0d 00 00
	00 00		 lea	 rcx, OFFSET FLAT:__A7748393_xlocale
  0003b	e8 00 00 00 00	 call	 __CheckForDebuggerJustMyCode

; 564  :     // convert C string to _Elem sequence using _Cvtvec
; 565  :     size_t _Count = _CSTD strlen(_Ptr) + 1;

  00040	48 8b 8d 40 01
	00 00		 mov	 rcx, QWORD PTR _Ptr$[rbp]
  00047	e8 00 00 00 00	 call	 strlen
  0004c	48 ff c0	 inc	 rax
  0004f	48 89 45 08	 mov	 QWORD PTR _Count$[rbp], rax

; 566  : 
; 567  :     _Elem* _Ptrdest = static_cast<_Elem*>(_calloc_dbg(_Count, sizeof(_Elem), _CRT_BLOCK, __FILE__, __LINE__));

  00053	c7 44 24 20 37
	02 00 00	 mov	 DWORD PTR [rsp+32], 567	; 00000237H
  0005b	4c 8d 0d 00 00
	00 00		 lea	 r9, OFFSET FLAT:??_C@_0GJ@OPFKIEFE@C?3?2Program?5Files?5?$CIx86?$CJ?2Microsof@
  00062	41 b8 02 00 00
	00		 mov	 r8d, 2
  00068	ba 01 00 00 00	 mov	 edx, 1
  0006d	48 8b 4d 08	 mov	 rcx, QWORD PTR _Count$[rbp]
  00071	ff 15 00 00 00
	00		 call	 QWORD PTR __imp__calloc_dbg
  00077	48 89 45 28	 mov	 QWORD PTR _Ptrdest$[rbp], rax

; 568  : 
; 569  :     if (!_Ptrdest) {

  0007b	48 83 7d 28 00	 cmp	 QWORD PTR _Ptrdest$[rbp], 0
  00080	75 05		 jne	 SHORT $LN5@Maklocstr

; 570  :         _Xbad_alloc();

  00082	e8 00 00 00 00	 call	 ?_Xbad_alloc@std@@YAXXZ	; std::_Xbad_alloc
$LN5@Maklocstr:

; 571  :     }
; 572  : 
; 573  :     for (_Elem* _Ptrnext = _Ptrdest; 0 < _Count; --_Count, ++_Ptrnext, ++_Ptr) {

  00087	48 8b 45 28	 mov	 rax, QWORD PTR _Ptrdest$[rbp]
  0008b	48 89 45 48	 mov	 QWORD PTR _Ptrnext$1[rbp], rax
  0008f	eb 27		 jmp	 SHORT $LN4@Maklocstr
$LN2@Maklocstr:
  00091	48 8b 45 08	 mov	 rax, QWORD PTR _Count$[rbp]
  00095	48 ff c8	 dec	 rax
  00098	48 89 45 08	 mov	 QWORD PTR _Count$[rbp], rax
  0009c	48 8b 45 48	 mov	 rax, QWORD PTR _Ptrnext$1[rbp]
  000a0	48 ff c0	 inc	 rax
  000a3	48 89 45 48	 mov	 QWORD PTR _Ptrnext$1[rbp], rax
  000a7	48 8b 85 40 01
	00 00		 mov	 rax, QWORD PTR _Ptr$[rbp]
  000ae	48 ff c0	 inc	 rax
  000b1	48 89 85 40 01
	00 00		 mov	 QWORD PTR _Ptr$[rbp], rax
$LN4@Maklocstr:
  000b8	48 83 7d 08 00	 cmp	 QWORD PTR _Count$[rbp], 0
  000bd	76 12		 jbe	 SHORT $LN3@Maklocstr

; 574  :         *_Ptrnext = static_cast<_Elem>(static_cast<unsigned char>(*_Ptr));

  000bf	48 8b 45 48	 mov	 rax, QWORD PTR _Ptrnext$1[rbp]
  000c3	48 8b 8d 40 01
	00 00		 mov	 rcx, QWORD PTR _Ptr$[rbp]
  000ca	0f b6 09	 movzx	 ecx, BYTE PTR [rcx]
  000cd	88 08		 mov	 BYTE PTR [rax], cl

; 575  :     }

  000cf	eb c0		 jmp	 SHORT $LN2@Maklocstr
$LN3@Maklocstr:

; 576  : 
; 577  :     return _Ptrdest;

  000d1	48 8b 45 28	 mov	 rax, QWORD PTR _Ptrdest$[rbp]
$LN6@Maklocstr:

; 578  : }

  000d5	48 8d a5 28 01
	00 00		 lea	 rsp, QWORD PTR [rbp+296]
  000dc	5f		 pop	 rdi
  000dd	5d		 pop	 rbp
  000de	c3		 ret	 0
??$_Maklocstr@D@std@@YAPEADPEBDPEADAEBU_Cvtvec@@@Z ENDP	; std::_Maklocstr<char>
_TEXT	ENDS
; Function compile flags: /Odtp /RTCsu /ZI
; File C:\Program Files (x86)\Microsoft Visual Studio\2019\Enterprise\VC\Tools\MSVC\14.27.29110\include\xlocnum
;	COMDAT ?_Maklocwcs@std@@YAPEA_WPEB_W@Z
_TEXT	SEGMENT
_Count$ = 8
_Ptrdest$ = 40
_Ptr$ = 288
?_Maklocwcs@std@@YAPEA_WPEB_W@Z PROC			; std::_Maklocwcs, COMDAT

; 90   : inline wchar_t* _Maklocwcs(const wchar_t* _Ptr) { // copy NTWCS to allocated storage

$LN4:
  00000	48 89 4c 24 08	 mov	 QWORD PTR [rsp+8], rcx
  00005	55		 push	 rbp
  00006	57		 push	 rdi
  00007	48 81 ec 38 01
	00 00		 sub	 rsp, 312		; 00000138H
  0000e	48 8d 6c 24 30	 lea	 rbp, QWORD PTR [rsp+48]
  00013	48 8b fc	 mov	 rdi, rsp
  00016	b9 4e 00 00 00	 mov	 ecx, 78			; 0000004eH
  0001b	b8 cc cc cc cc	 mov	 eax, -858993460		; ccccccccH
  00020	f3 ab		 rep stosd
  00022	48 8b 8c 24 58
	01 00 00	 mov	 rcx, QWORD PTR [rsp+344]
  0002a	48 8d 0d 00 00
	00 00		 lea	 rcx, OFFSET FLAT:__39F3E584_xlocnum
  00031	e8 00 00 00 00	 call	 __CheckForDebuggerJustMyCode

; 91   :     const size_t _Count = _CSTD wcslen(_Ptr) + 1;

  00036	48 8b 8d 20 01
	00 00		 mov	 rcx, QWORD PTR _Ptr$[rbp]
  0003d	ff 15 00 00 00
	00		 call	 QWORD PTR __imp_wcslen
  00043	48 ff c0	 inc	 rax
  00046	48 89 45 08	 mov	 QWORD PTR _Count$[rbp], rax

; 92   : 
; 93   :     wchar_t* _Ptrdest = static_cast<wchar_t*>(_calloc_dbg(_Count, sizeof(wchar_t), _CRT_BLOCK, __FILE__, __LINE__));

  0004a	8b 05 00 00 00
	00		 mov	 eax, DWORD PTR ?__LINE__Var@?0??_Maklocwcs@std@@YAPEA_WPEB_W@Z@4JA
  00050	83 c0 03	 add	 eax, 3
  00053	89 44 24 20	 mov	 DWORD PTR [rsp+32], eax
  00057	4c 8d 0d 00 00
	00 00		 lea	 r9, OFFSET FLAT:??_C@_0GJ@GMBHIGPF@C?3?2Program?5Files?5?$CIx86?$CJ?2Microsof@
  0005e	41 b8 02 00 00
	00		 mov	 r8d, 2
  00064	ba 02 00 00 00	 mov	 edx, 2
  00069	48 8b 4d 08	 mov	 rcx, QWORD PTR _Count$[rbp]
  0006d	ff 15 00 00 00
	00		 call	 QWORD PTR __imp__calloc_dbg
  00073	48 89 45 28	 mov	 QWORD PTR _Ptrdest$[rbp], rax

; 94   : 
; 95   :     if (!_Ptrdest) {

  00077	48 83 7d 28 00	 cmp	 QWORD PTR _Ptrdest$[rbp], 0
  0007c	75 05		 jne	 SHORT $LN2@Maklocwcs

; 96   :         _Xbad_alloc();

  0007e	e8 00 00 00 00	 call	 ?_Xbad_alloc@std@@YAXXZ	; std::_Xbad_alloc
$LN2@Maklocwcs:

; 97   :     }
; 98   : 
; 99   :     _CSTD wmemcpy(_Ptrdest, _Ptr, _Count);

  00083	4c 8b 45 08	 mov	 r8, QWORD PTR _Count$[rbp]
  00087	48 8b 95 20 01
	00 00		 mov	 rdx, QWORD PTR _Ptr$[rbp]
  0008e	48 8b 4d 28	 mov	 rcx, QWORD PTR _Ptrdest$[rbp]
  00092	e8 00 00 00 00	 call	 wmemcpy

; 100  :     return _Ptrdest;

  00097	48 8b 45 28	 mov	 rax, QWORD PTR _Ptrdest$[rbp]
$LN3@Maklocwcs:

; 101  : }

  0009b	48 8d a5 08 01
	00 00		 lea	 rsp, QWORD PTR [rbp+264]
  000a2	5f		 pop	 rdi
  000a3	5d		 pop	 rbp
  000a4	c3		 ret	 0
?_Maklocwcs@std@@YAPEA_WPEB_W@Z ENDP			; std::_Maklocwcs
_TEXT	ENDS
; Function compile flags: /Odtp /RTCsu /ZI
; File C:\Program Files (x86)\Microsoft Visual Studio\2019\Enterprise\VC\Tools\MSVC\14.27.29110\include\iosfwd
;	COMDAT ??B?$fpos@U_Mbstatet@@@std@@QEBA_JXZ
_TEXT	SEGMENT
this$ = 224
??B?$fpos@U_Mbstatet@@@std@@QEBA_JXZ PROC		; std::fpos<_Mbstatet>::operator __int64, COMDAT

; 67   :     operator streamoff() const {

$LN3:
  00000	48 89 4c 24 08	 mov	 QWORD PTR [rsp+8], rcx
  00005	55		 push	 rbp
  00006	57		 push	 rdi
  00007	48 81 ec e8 00
	00 00		 sub	 rsp, 232		; 000000e8H
  0000e	48 8d 6c 24 20	 lea	 rbp, QWORD PTR [rsp+32]
  00013	48 8b fc	 mov	 rdi, rsp
  00016	b9 3a 00 00 00	 mov	 ecx, 58			; 0000003aH
  0001b	b8 cc cc cc cc	 mov	 eax, -858993460		; ccccccccH
  00020	f3 ab		 rep stosd
  00022	48 8b 8c 24 08
	01 00 00	 mov	 rcx, QWORD PTR [rsp+264]
  0002a	48 8d 0d 00 00
	00 00		 lea	 rcx, OFFSET FLAT:__92C84E46_iosfwd
  00031	e8 00 00 00 00	 call	 __CheckForDebuggerJustMyCode

; 68   :         // TRANSITION, ABI: We currently always set _Fpos to 0 but older .objs containing old
; 69   :         // basic_filebuf would set _Fpos.
; 70   :         return _Myoff + _Fpos;

  00036	48 8b 85 e0 00
	00 00		 mov	 rax, QWORD PTR this$[rbp]
  0003d	48 8b 00	 mov	 rax, QWORD PTR [rax]
  00040	48 8b 8d e0 00
	00 00		 mov	 rcx, QWORD PTR this$[rbp]
  00047	48 03 41 08	 add	 rax, QWORD PTR [rcx+8]

; 71   :     }

  0004b	48 8d a5 c8 00
	00 00		 lea	 rsp, QWORD PTR [rbp+200]
  00052	5f		 pop	 rdi
  00053	5d		 pop	 rbp
  00054	c3		 ret	 0
??B?$fpos@U_Mbstatet@@@std@@QEBA_JXZ ENDP		; std::fpos<_Mbstatet>::operator __int64
_TEXT	ENDS
; Function compile flags: /Odtp /RTCsu /ZI
; File C:\Program Files (x86)\Microsoft Visual Studio\2019\Enterprise\VC\Tools\MSVC\14.27.29110\include\iosfwd
;	COMDAT ?state@?$fpos@U_Mbstatet@@@std@@QEBA?AU_Mbstatet@@XZ
_TEXT	SEGMENT
this$ = 224
__$ReturnUdt$ = 232
?state@?$fpos@U_Mbstatet@@@std@@QEBA?AU_Mbstatet@@XZ PROC ; std::fpos<_Mbstatet>::state, COMDAT

; 59   :     _NODISCARD _Statetype state() const {

$LN3:
  00000	48 89 54 24 10	 mov	 QWORD PTR [rsp+16], rdx
  00005	48 89 4c 24 08	 mov	 QWORD PTR [rsp+8], rcx
  0000a	55		 push	 rbp
  0000b	57		 push	 rdi
  0000c	48 81 ec e8 00
	00 00		 sub	 rsp, 232		; 000000e8H
  00013	48 8d 6c 24 20	 lea	 rbp, QWORD PTR [rsp+32]
  00018	48 8b fc	 mov	 rdi, rsp
  0001b	b9 3a 00 00 00	 mov	 ecx, 58			; 0000003aH
  00020	b8 cc cc cc cc	 mov	 eax, -858993460		; ccccccccH
  00025	f3 ab		 rep stosd
  00027	48 8b 8c 24 08
	01 00 00	 mov	 rcx, QWORD PTR [rsp+264]
  0002f	48 8d 0d 00 00
	00 00		 lea	 rcx, OFFSET FLAT:__92C84E46_iosfwd
  00036	e8 00 00 00 00	 call	 __CheckForDebuggerJustMyCode

; 60   :         return _Mystate;

  0003b	48 8b 85 e0 00
	00 00		 mov	 rax, QWORD PTR this$[rbp]
  00042	48 8b 40 10	 mov	 rax, QWORD PTR [rax+16]
  00046	48 8b 8d e8 00
	00 00		 mov	 rcx, QWORD PTR __$ReturnUdt$[rbp]
  0004d	48 89 01	 mov	 QWORD PTR [rcx], rax
  00050	48 8b 85 e8 00
	00 00		 mov	 rax, QWORD PTR __$ReturnUdt$[rbp]

; 61   :     }

  00057	48 8d a5 c8 00
	00 00		 lea	 rsp, QWORD PTR [rbp+200]
  0005e	5f		 pop	 rdi
  0005f	5d		 pop	 rbp
  00060	c3		 ret	 0
?state@?$fpos@U_Mbstatet@@@std@@QEBA?AU_Mbstatet@@XZ ENDP ; std::fpos<_Mbstatet>::state
_TEXT	ENDS
; Function compile flags: /Odtp /RTCsu /ZI
; File C:\Program Files (x86)\Microsoft Visual Studio\2019\Enterprise\VC\Tools\MSVC\14.27.29110\include\iosfwd
;	COMDAT ??0?$fpos@U_Mbstatet@@@std@@QEAA@U_Mbstatet@@_J@Z
_TEXT	SEGMENT
this$ = 224
_State$ = 232
_Fileposition$ = 240
??0?$fpos@U_Mbstatet@@@std@@QEAA@U_Mbstatet@@_J@Z PROC	; std::fpos<_Mbstatet>::fpos<_Mbstatet>, COMDAT

; 57   :     fpos(_Statetype _State, fpos_t _Fileposition) : _Myoff(_Fileposition), _Fpos(0), _Mystate(_State) {}

$LN3:
  00000	4c 89 44 24 18	 mov	 QWORD PTR [rsp+24], r8
  00005	48 89 54 24 10	 mov	 QWORD PTR [rsp+16], rdx
  0000a	48 89 4c 24 08	 mov	 QWORD PTR [rsp+8], rcx
  0000f	55		 push	 rbp
  00010	57		 push	 rdi
  00011	48 81 ec e8 00
	00 00		 sub	 rsp, 232		; 000000e8H
  00018	48 8d 6c 24 20	 lea	 rbp, QWORD PTR [rsp+32]
  0001d	48 8b fc	 mov	 rdi, rsp
  00020	b9 3a 00 00 00	 mov	 ecx, 58			; 0000003aH
  00025	b8 cc cc cc cc	 mov	 eax, -858993460		; ccccccccH
  0002a	f3 ab		 rep stosd
  0002c	48 8b 8c 24 08
	01 00 00	 mov	 rcx, QWORD PTR [rsp+264]
  00034	48 8d 0d 00 00
	00 00		 lea	 rcx, OFFSET FLAT:__92C84E46_iosfwd
  0003b	e8 00 00 00 00	 call	 __CheckForDebuggerJustMyCode
  00040	48 8b 85 e0 00
	00 00		 mov	 rax, QWORD PTR this$[rbp]
  00047	48 8b 8d f0 00
	00 00		 mov	 rcx, QWORD PTR _Fileposition$[rbp]
  0004e	48 89 08	 mov	 QWORD PTR [rax], rcx
  00051	48 8b 85 e0 00
	00 00		 mov	 rax, QWORD PTR this$[rbp]
  00058	48 c7 40 08 00
	00 00 00	 mov	 QWORD PTR [rax+8], 0
  00060	48 8b 85 e0 00
	00 00		 mov	 rax, QWORD PTR this$[rbp]
  00067	48 8b 8d e8 00
	00 00		 mov	 rcx, QWORD PTR _State$[rbp]
  0006e	48 89 48 10	 mov	 QWORD PTR [rax+16], rcx
  00072	48 8b 85 e0 00
	00 00		 mov	 rax, QWORD PTR this$[rbp]
  00079	48 8d a5 c8 00
	00 00		 lea	 rsp, QWORD PTR [rbp+200]
  00080	5f		 pop	 rdi
  00081	5d		 pop	 rbp
  00082	c3		 ret	 0
??0?$fpos@U_Mbstatet@@@std@@QEAA@U_Mbstatet@@_J@Z ENDP	; std::fpos<_Mbstatet>::fpos<_Mbstatet>
_TEXT	ENDS
; Function compile flags: /Odtp /RTCsu /ZI
; File C:\Program Files (x86)\Microsoft Visual Studio\2019\Enterprise\VC\Tools\MSVC\14.27.29110\include\iosfwd
;	COMDAT ??0?$fpos@U_Mbstatet@@@std@@QEAA@_J@Z
_TEXT	SEGMENT
this$ = 224
_Off$ = 232
??0?$fpos@U_Mbstatet@@@std@@QEAA@_J@Z PROC		; std::fpos<_Mbstatet>::fpos<_Mbstatet>, COMDAT

; 55   :     /* implicit */ fpos(streamoff _Off = 0) : _Myoff(_Off), _Fpos(0), _Mystate() {}

$LN3:
  00000	48 89 54 24 10	 mov	 QWORD PTR [rsp+16], rdx
  00005	48 89 4c 24 08	 mov	 QWORD PTR [rsp+8], rcx
  0000a	55		 push	 rbp
  0000b	57		 push	 rdi
  0000c	48 81 ec e8 00
	00 00		 sub	 rsp, 232		; 000000e8H
  00013	48 8d 6c 24 20	 lea	 rbp, QWORD PTR [rsp+32]
  00018	48 8b fc	 mov	 rdi, rsp
  0001b	b9 3a 00 00 00	 mov	 ecx, 58			; 0000003aH
  00020	b8 cc cc cc cc	 mov	 eax, -858993460		; ccccccccH
  00025	f3 ab		 rep stosd
  00027	48 8b 8c 24 08
	01 00 00	 mov	 rcx, QWORD PTR [rsp+264]
  0002f	48 8d 0d 00 00
	00 00		 lea	 rcx, OFFSET FLAT:__92C84E46_iosfwd
  00036	e8 00 00 00 00	 call	 __CheckForDebuggerJustMyCode
  0003b	48 8b 85 e0 00
	00 00		 mov	 rax, QWORD PTR this$[rbp]
  00042	48 8b 8d e8 00
	00 00		 mov	 rcx, QWORD PTR _Off$[rbp]
  00049	48 89 08	 mov	 QWORD PTR [rax], rcx
  0004c	48 8b 85 e0 00
	00 00		 mov	 rax, QWORD PTR this$[rbp]
  00053	48 c7 40 08 00
	00 00 00	 mov	 QWORD PTR [rax+8], 0
  0005b	48 8b 85 e0 00
	00 00		 mov	 rax, QWORD PTR this$[rbp]
  00062	48 83 c0 10	 add	 rax, 16
  00066	48 8b f8	 mov	 rdi, rax
  00069	33 c0		 xor	 eax, eax
  0006b	b9 08 00 00 00	 mov	 ecx, 8
  00070	f3 aa		 rep stosb
  00072	48 8b 85 e0 00
	00 00		 mov	 rax, QWORD PTR this$[rbp]
  00079	48 8d a5 c8 00
	00 00		 lea	 rsp, QWORD PTR [rbp+200]
  00080	5f		 pop	 rdi
  00081	5d		 pop	 rbp
  00082	c3		 ret	 0
??0?$fpos@U_Mbstatet@@@std@@QEAA@_J@Z ENDP		; std::fpos<_Mbstatet>::fpos<_Mbstatet>
_TEXT	ENDS
; Function compile flags: /Odtp /RTCsu /ZI
; File C:\Program Files (x86)\Microsoft Visual Studio\2019\Enterprise\VC\Tools\MSVC\14.27.29110\include\xlocale
;	COMDAT ??$_Maklocstr@_W@std@@YAPEA_WPEBDPEA_WAEBU_Cvtvec@@@Z
_TEXT	SEGMENT
_Count$ = 8
_Count1$ = 40
_Wchars$ = 72
_Ptr1$ = 104
_Bytes$ = 132
_Wc$ = 164
_Mbst1$ = 200
_Ptrdest$ = 232
_Ptrnext$ = 264
_Mbst2$ = 296
__$ArrayPad$ = 504
_Ptr$ = 544
__formal$ = 552
_Cvt$ = 560
??$_Maklocstr@_W@std@@YAPEA_WPEBDPEA_WAEBU_Cvtvec@@@Z PROC ; std::_Maklocstr<wchar_t>, COMDAT

; 581  : inline wchar_t* __CRTDECL _Maklocstr(const char* _Ptr, wchar_t*, const _Locinfo::_Cvtvec& _Cvt) {

$LN12:
  00000	4c 89 44 24 18	 mov	 QWORD PTR [rsp+24], r8
  00005	48 89 54 24 10	 mov	 QWORD PTR [rsp+16], rdx
  0000a	48 89 4c 24 08	 mov	 QWORD PTR [rsp+8], rcx
  0000f	55		 push	 rbp
  00010	57		 push	 rdi
  00011	48 81 ec 38 02
	00 00		 sub	 rsp, 568		; 00000238H
  00018	48 8d 6c 24 30	 lea	 rbp, QWORD PTR [rsp+48]
  0001d	48 8b fc	 mov	 rdi, rsp
  00020	b9 8e 00 00 00	 mov	 ecx, 142		; 0000008eH
  00025	b8 cc cc cc cc	 mov	 eax, -858993460		; ccccccccH
  0002a	f3 ab		 rep stosd
  0002c	48 8b 8c 24 58
	02 00 00	 mov	 rcx, QWORD PTR [rsp+600]
  00034	48 8b 05 00 00
	00 00		 mov	 rax, QWORD PTR __security_cookie
  0003b	48 33 c5	 xor	 rax, rbp
  0003e	48 89 85 f8 01
	00 00		 mov	 QWORD PTR __$ArrayPad$[rbp], rax
  00045	48 8d 0d 00 00
	00 00		 lea	 rcx, OFFSET FLAT:__A7748393_xlocale
  0004c	e8 00 00 00 00	 call	 __CheckForDebuggerJustMyCode

; 582  :     // convert C string to wchar_t sequence using _Cvtvec
; 583  :     size_t _Count;
; 584  :     size_t _Count1;
; 585  :     size_t _Wchars;
; 586  :     const char* _Ptr1;
; 587  :     int _Bytes;
; 588  :     wchar_t _Wc;
; 589  :     mbstate_t _Mbst1 = {};

  00051	48 8d 85 c8 00
	00 00		 lea	 rax, QWORD PTR _Mbst1$[rbp]
  00058	48 8b f8	 mov	 rdi, rax
  0005b	33 c0		 xor	 eax, eax
  0005d	b9 08 00 00 00	 mov	 ecx, 8
  00062	f3 aa		 rep stosb

; 590  : 
; 591  :     _Count1 = _CSTD strlen(_Ptr) + 1;

  00064	48 8b 8d 20 02
	00 00		 mov	 rcx, QWORD PTR _Ptr$[rbp]
  0006b	e8 00 00 00 00	 call	 strlen
  00070	48 ff c0	 inc	 rax
  00073	48 89 45 28	 mov	 QWORD PTR _Count1$[rbp], rax

; 592  :     for (_Count = _Count1, _Wchars = 0, _Ptr1 = _Ptr; 0 < _Count; _Count -= _Bytes, _Ptr1 += _Bytes, ++_Wchars) {

  00077	48 8b 45 28	 mov	 rax, QWORD PTR _Count1$[rbp]
  0007b	48 89 45 08	 mov	 QWORD PTR _Count$[rbp], rax
  0007f	48 c7 45 48 00
	00 00 00	 mov	 QWORD PTR _Wchars$[rbp], 0
  00087	48 8b 85 20 02
	00 00		 mov	 rax, QWORD PTR _Ptr$[rbp]
  0008e	48 89 45 68	 mov	 QWORD PTR _Ptr1$[rbp], rax
  00092	eb 35		 jmp	 SHORT $LN4@Maklocstr
$LN2@Maklocstr:
  00094	48 63 85 84 00
	00 00		 movsxd	 rax, DWORD PTR _Bytes$[rbp]
  0009b	48 8b 4d 08	 mov	 rcx, QWORD PTR _Count$[rbp]
  0009f	48 2b c8	 sub	 rcx, rax
  000a2	48 8b c1	 mov	 rax, rcx
  000a5	48 89 45 08	 mov	 QWORD PTR _Count$[rbp], rax
  000a9	48 63 85 84 00
	00 00		 movsxd	 rax, DWORD PTR _Bytes$[rbp]
  000b0	48 8b 4d 68	 mov	 rcx, QWORD PTR _Ptr1$[rbp]
  000b4	48 03 c8	 add	 rcx, rax
  000b7	48 8b c1	 mov	 rax, rcx
  000ba	48 89 45 68	 mov	 QWORD PTR _Ptr1$[rbp], rax
  000be	48 8b 45 48	 mov	 rax, QWORD PTR _Wchars$[rbp]
  000c2	48 ff c0	 inc	 rax
  000c5	48 89 45 48	 mov	 QWORD PTR _Wchars$[rbp], rax
$LN4@Maklocstr:
  000c9	48 83 7d 08 00	 cmp	 QWORD PTR _Count$[rbp], 0
  000ce	76 3a		 jbe	 SHORT $LN3@Maklocstr

; 593  :         if ((_Bytes = _Mbrtowc(&_Wc, _Ptr1, _Count, &_Mbst1, &_Cvt)) <= 0) {

  000d0	48 8b 85 30 02
	00 00		 mov	 rax, QWORD PTR _Cvt$[rbp]
  000d7	48 89 44 24 20	 mov	 QWORD PTR [rsp+32], rax
  000dc	4c 8d 8d c8 00
	00 00		 lea	 r9, QWORD PTR _Mbst1$[rbp]
  000e3	4c 8b 45 08	 mov	 r8, QWORD PTR _Count$[rbp]
  000e7	48 8b 55 68	 mov	 rdx, QWORD PTR _Ptr1$[rbp]
  000eb	48 8d 8d a4 00
	00 00		 lea	 rcx, QWORD PTR _Wc$[rbp]
  000f2	e8 00 00 00 00	 call	 _Mbrtowc
  000f7	89 85 84 00 00
	00		 mov	 DWORD PTR _Bytes$[rbp], eax
  000fd	83 bd 84 00 00
	00 00		 cmp	 DWORD PTR _Bytes$[rbp], 0
  00104	7f 02		 jg	 SHORT $LN8@Maklocstr

; 594  :             break;

  00106	eb 02		 jmp	 SHORT $LN3@Maklocstr
$LN8@Maklocstr:

; 595  :         }
; 596  :     }

  00108	eb 8a		 jmp	 SHORT $LN2@Maklocstr
$LN3@Maklocstr:

; 597  : 
; 598  :     ++_Wchars; // count terminating nul

  0010a	48 8b 45 48	 mov	 rax, QWORD PTR _Wchars$[rbp]
  0010e	48 ff c0	 inc	 rax
  00111	48 89 45 48	 mov	 QWORD PTR _Wchars$[rbp], rax

; 599  : 
; 600  :     wchar_t* _Ptrdest = static_cast<wchar_t*>(_calloc_dbg(_Wchars, sizeof(wchar_t), _CRT_BLOCK, __FILE__, __LINE__));

  00115	c7 44 24 20 58
	02 00 00	 mov	 DWORD PTR [rsp+32], 600	; 00000258H
  0011d	4c 8d 0d 00 00
	00 00		 lea	 r9, OFFSET FLAT:??_C@_0GJ@OPFKIEFE@C?3?2Program?5Files?5?$CIx86?$CJ?2Microsof@
  00124	41 b8 02 00 00
	00		 mov	 r8d, 2
  0012a	ba 02 00 00 00	 mov	 edx, 2
  0012f	48 8b 4d 48	 mov	 rcx, QWORD PTR _Wchars$[rbp]
  00133	ff 15 00 00 00
	00		 call	 QWORD PTR __imp__calloc_dbg
  00139	48 89 85 e8 00
	00 00		 mov	 QWORD PTR _Ptrdest$[rbp], rax

; 601  : 
; 602  :     if (!_Ptrdest) {

  00140	48 83 bd e8 00
	00 00 00	 cmp	 QWORD PTR _Ptrdest$[rbp], 0
  00148	75 05		 jne	 SHORT $LN9@Maklocstr

; 603  :         _Xbad_alloc();

  0014a	e8 00 00 00 00	 call	 ?_Xbad_alloc@std@@YAXXZ	; std::_Xbad_alloc
$LN9@Maklocstr:

; 604  :     }
; 605  : 
; 606  :     wchar_t* _Ptrnext = _Ptrdest;

  0014f	48 8b 85 e8 00
	00 00		 mov	 rax, QWORD PTR _Ptrdest$[rbp]
  00156	48 89 85 08 01
	00 00		 mov	 QWORD PTR _Ptrnext$[rbp], rax

; 607  :     mbstate_t _Mbst2  = {};

  0015d	48 8d 85 28 01
	00 00		 lea	 rax, QWORD PTR _Mbst2$[rbp]
  00164	48 8b f8	 mov	 rdi, rax
  00167	33 c0		 xor	 eax, eax
  00169	b9 08 00 00 00	 mov	 ecx, 8
  0016e	f3 aa		 rep stosb

; 608  : 
; 609  :     for (; 0 < _Wchars; _Count -= _Bytes, _Ptr += _Bytes, --_Wchars, ++_Ptrnext) {

  00170	eb 4d		 jmp	 SHORT $LN7@Maklocstr
$LN5@Maklocstr:
  00172	48 63 85 84 00
	00 00		 movsxd	 rax, DWORD PTR _Bytes$[rbp]
  00179	48 8b 4d 08	 mov	 rcx, QWORD PTR _Count$[rbp]
  0017d	48 2b c8	 sub	 rcx, rax
  00180	48 8b c1	 mov	 rax, rcx
  00183	48 89 45 08	 mov	 QWORD PTR _Count$[rbp], rax
  00187	48 63 85 84 00
	00 00		 movsxd	 rax, DWORD PTR _Bytes$[rbp]
  0018e	48 8b 8d 20 02
	00 00		 mov	 rcx, QWORD PTR _Ptr$[rbp]
  00195	48 03 c8	 add	 rcx, rax
  00198	48 8b c1	 mov	 rax, rcx
  0019b	48 89 85 20 02
	00 00		 mov	 QWORD PTR _Ptr$[rbp], rax
  001a2	48 8b 45 48	 mov	 rax, QWORD PTR _Wchars$[rbp]
  001a6	48 ff c8	 dec	 rax
  001a9	48 89 45 48	 mov	 QWORD PTR _Wchars$[rbp], rax
  001ad	48 8b 85 08 01
	00 00		 mov	 rax, QWORD PTR _Ptrnext$[rbp]
  001b4	48 83 c0 02	 add	 rax, 2
  001b8	48 89 85 08 01
	00 00		 mov	 QWORD PTR _Ptrnext$[rbp], rax
$LN7@Maklocstr:
  001bf	48 83 7d 48 00	 cmp	 QWORD PTR _Wchars$[rbp], 0
  001c4	76 40		 jbe	 SHORT $LN6@Maklocstr

; 610  :         if ((_Bytes = _Mbrtowc(_Ptrnext, _Ptr, _Count1, &_Mbst2, &_Cvt)) <= 0) {

  001c6	48 8b 85 30 02
	00 00		 mov	 rax, QWORD PTR _Cvt$[rbp]
  001cd	48 89 44 24 20	 mov	 QWORD PTR [rsp+32], rax
  001d2	4c 8d 8d 28 01
	00 00		 lea	 r9, QWORD PTR _Mbst2$[rbp]
  001d9	4c 8b 45 28	 mov	 r8, QWORD PTR _Count1$[rbp]
  001dd	48 8b 95 20 02
	00 00		 mov	 rdx, QWORD PTR _Ptr$[rbp]
  001e4	48 8b 8d 08 01
	00 00		 mov	 rcx, QWORD PTR _Ptrnext$[rbp]
  001eb	e8 00 00 00 00	 call	 _Mbrtowc
  001f0	89 85 84 00 00
	00		 mov	 DWORD PTR _Bytes$[rbp], eax
  001f6	83 bd 84 00 00
	00 00		 cmp	 DWORD PTR _Bytes$[rbp], 0
  001fd	7f 02		 jg	 SHORT $LN10@Maklocstr

; 611  :             break;

  001ff	eb 05		 jmp	 SHORT $LN6@Maklocstr
$LN10@Maklocstr:

; 612  :         }
; 613  :     }

  00201	e9 6c ff ff ff	 jmp	 $LN5@Maklocstr
$LN6@Maklocstr:

; 614  : 
; 615  :     *_Ptrnext = L'\0';

  00206	33 c0		 xor	 eax, eax
  00208	48 8b 8d 08 01
	00 00		 mov	 rcx, QWORD PTR _Ptrnext$[rbp]
  0020f	66 89 01	 mov	 WORD PTR [rcx], ax

; 616  : 
; 617  :     return _Ptrdest;

  00212	48 8b 85 e8 00
	00 00		 mov	 rax, QWORD PTR _Ptrdest$[rbp]
$LN11@Maklocstr:

; 618  : }

  00219	48 8b f8	 mov	 rdi, rax
  0021c	48 8d 4d d0	 lea	 rcx, QWORD PTR [rbp-48]
  00220	48 8d 15 00 00
	00 00		 lea	 rdx, OFFSET FLAT:??$_Maklocstr@_W@std@@YAPEA_WPEBDPEA_WAEBU_Cvtvec@@@Z$rtcFrameData
  00227	e8 00 00 00 00	 call	 _RTC_CheckStackVars
  0022c	48 8b c7	 mov	 rax, rdi
  0022f	48 8b 8d f8 01
	00 00		 mov	 rcx, QWORD PTR __$ArrayPad$[rbp]
  00236	48 33 cd	 xor	 rcx, rbp
  00239	e8 00 00 00 00	 call	 __security_check_cookie
  0023e	48 8d a5 08 02
	00 00		 lea	 rsp, QWORD PTR [rbp+520]
  00245	5f		 pop	 rdi
  00246	5d		 pop	 rbp
  00247	c3		 ret	 0
??$_Maklocstr@_W@std@@YAPEA_WPEBDPEA_WAEBU_Cvtvec@@@Z ENDP ; std::_Maklocstr<wchar_t>
_TEXT	ENDS
; Function compile flags: /Odtp /RTCsu /ZI
; File C:\Program Files (x86)\Microsoft Visual Studio\2019\Enterprise\VC\Tools\MSVC\14.27.29110\include\xlocale
;	COMDAT ?_Getfacet@locale@std@@QEBAPEBVfacet@12@_K@Z
_TEXT	SEGMENT
_Facptr$ = 8
_Ptr0$ = 40
tv71 = 248
this$ = 288
_Id$ = 296
?_Getfacet@locale@std@@QEBAPEBVfacet@12@_K@Z PROC	; std::locale::_Getfacet, COMDAT

; 373  :     const facet* _Getfacet(size_t _Id) const { // look up a facet in locale object

$LN8:
  00000	48 89 54 24 10	 mov	 QWORD PTR [rsp+16], rdx
  00005	48 89 4c 24 08	 mov	 QWORD PTR [rsp+8], rcx
  0000a	55		 push	 rbp
  0000b	57		 push	 rdi
  0000c	48 81 ec 28 01
	00 00		 sub	 rsp, 296		; 00000128H
  00013	48 8d 6c 24 20	 lea	 rbp, QWORD PTR [rsp+32]
  00018	48 8b fc	 mov	 rdi, rsp
  0001b	b9 4a 00 00 00	 mov	 ecx, 74			; 0000004aH
  00020	b8 cc cc cc cc	 mov	 eax, -858993460		; ccccccccH
  00025	f3 ab		 rep stosd
  00027	48 8b 8c 24 48
	01 00 00	 mov	 rcx, QWORD PTR [rsp+328]
  0002f	48 8d 0d 00 00
	00 00		 lea	 rcx, OFFSET FLAT:__A7748393_xlocale
  00036	e8 00 00 00 00	 call	 __CheckForDebuggerJustMyCode

; 374  :         const facet* _Facptr = _Id < _Ptr->_Facetcount ? _Ptr->_Facetvec[_Id] : nullptr; // null if id off end

  0003b	48 8b 85 20 01
	00 00		 mov	 rax, QWORD PTR this$[rbp]
  00042	48 8b 40 08	 mov	 rax, QWORD PTR [rax+8]
  00046	48 8b 40 18	 mov	 rax, QWORD PTR [rax+24]
  0004a	48 39 85 28 01
	00 00		 cmp	 QWORD PTR _Id$[rbp], rax
  00051	73 23		 jae	 SHORT $LN6@Getfacet
  00053	48 8b 85 20 01
	00 00		 mov	 rax, QWORD PTR this$[rbp]
  0005a	48 8b 40 08	 mov	 rax, QWORD PTR [rax+8]
  0005e	48 8b 40 10	 mov	 rax, QWORD PTR [rax+16]
  00062	48 8b 8d 28 01
	00 00		 mov	 rcx, QWORD PTR _Id$[rbp]
  00069	48 8b 04 c8	 mov	 rax, QWORD PTR [rax+rcx*8]
  0006d	48 89 85 f8 00
	00 00		 mov	 QWORD PTR tv71[rbp], rax
  00074	eb 0b		 jmp	 SHORT $LN7@Getfacet
$LN6@Getfacet:
  00076	48 c7 85 f8 00
	00 00 00 00 00
	00		 mov	 QWORD PTR tv71[rbp], 0
$LN7@Getfacet:
  00081	48 8b 85 f8 00
	00 00		 mov	 rax, QWORD PTR tv71[rbp]
  00088	48 89 45 08	 mov	 QWORD PTR _Facptr$[rbp], rax

; 375  :         if (_Facptr || !_Ptr->_Xparent) {

  0008c	48 83 7d 08 00	 cmp	 QWORD PTR _Facptr$[rbp], 0
  00091	75 13		 jne	 SHORT $LN3@Getfacet
  00093	48 8b 85 20 01
	00 00		 mov	 rax, QWORD PTR this$[rbp]
  0009a	48 8b 40 08	 mov	 rax, QWORD PTR [rax+8]
  0009e	0f b6 40 24	 movzx	 eax, BYTE PTR [rax+36]
  000a2	85 c0		 test	 eax, eax
  000a4	75 06		 jne	 SHORT $LN2@Getfacet
$LN3@Getfacet:

; 376  :             return _Facptr; // found facet or not transparent

  000a6	48 8b 45 08	 mov	 rax, QWORD PTR _Facptr$[rbp]
  000aa	eb 31		 jmp	 SHORT $LN1@Getfacet
$LN2@Getfacet:

; 377  :         }
; 378  : 
; 379  :         // look in current locale
; 380  :         locale::_Locimp* _Ptr0 = _Getgloballocale();

  000ac	e8 00 00 00 00	 call	 ?_Getgloballocale@locale@std@@CAPEAV_Locimp@12@XZ ; std::locale::_Getgloballocale
  000b1	48 89 45 28	 mov	 QWORD PTR _Ptr0$[rbp], rax

; 381  :         if (_Id < _Ptr0->_Facetcount) {

  000b5	48 8b 45 28	 mov	 rax, QWORD PTR _Ptr0$[rbp]
  000b9	48 8b 40 18	 mov	 rax, QWORD PTR [rax+24]
  000bd	48 39 85 28 01
	00 00		 cmp	 QWORD PTR _Id$[rbp], rax
  000c4	73 15		 jae	 SHORT $LN4@Getfacet

; 382  :             return _Ptr0->_Facetvec[_Id]; // get from current locale

  000c6	48 8b 45 28	 mov	 rax, QWORD PTR _Ptr0$[rbp]
  000ca	48 8b 40 10	 mov	 rax, QWORD PTR [rax+16]
  000ce	48 8b 8d 28 01
	00 00		 mov	 rcx, QWORD PTR _Id$[rbp]
  000d5	48 8b 04 c8	 mov	 rax, QWORD PTR [rax+rcx*8]
  000d9	eb 02		 jmp	 SHORT $LN1@Getfacet
$LN4@Getfacet:

; 383  :         }
; 384  : 
; 385  :         return nullptr; // no entry in current locale

  000db	33 c0		 xor	 eax, eax
$LN1@Getfacet:

; 386  :     }

  000dd	48 8d a5 08 01
	00 00		 lea	 rsp, QWORD PTR [rbp+264]
  000e4	5f		 pop	 rdi
  000e5	5d		 pop	 rbp
  000e6	c3		 ret	 0
?_Getfacet@locale@std@@QEBAPEBVfacet@12@_K@Z ENDP	; std::locale::_Getfacet
_TEXT	ENDS
; Function compile flags: /Odtp /RTCsu /ZI
; File C:\Program Files (x86)\Microsoft Visual Studio\2019\Enterprise\VC\Tools\MSVC\14.27.29110\include\xlocale
;	COMDAT ??1locale@std@@QEAA@XZ
_TEXT	SEGMENT
$T1 = 200
tv84 = 216
this$ = 256
??1locale@std@@QEAA@XZ PROC				; std::locale::~locale, COMDAT

; 350  :     ~locale() noexcept {

$LN6:
  00000	48 89 4c 24 08	 mov	 QWORD PTR [rsp+8], rcx
  00005	55		 push	 rbp
  00006	57		 push	 rdi
  00007	48 81 ec 08 01
	00 00		 sub	 rsp, 264		; 00000108H
  0000e	48 8d 6c 24 20	 lea	 rbp, QWORD PTR [rsp+32]
  00013	48 8b fc	 mov	 rdi, rsp
  00016	b9 42 00 00 00	 mov	 ecx, 66			; 00000042H
  0001b	b8 cc cc cc cc	 mov	 eax, -858993460		; ccccccccH
  00020	f3 ab		 rep stosd
  00022	48 8b 8c 24 28
	01 00 00	 mov	 rcx, QWORD PTR [rsp+296]
  0002a	48 8d 0d 00 00
	00 00		 lea	 rcx, OFFSET FLAT:__A7748393_xlocale
  00031	e8 00 00 00 00	 call	 __CheckForDebuggerJustMyCode

; 351  :         if (_Ptr) {

  00036	48 8b 85 00 01
	00 00		 mov	 rax, QWORD PTR this$[rbp]
  0003d	48 83 78 08 00	 cmp	 QWORD PTR [rax+8], 0
  00042	74 59		 je	 SHORT $LN2@locale

; 352  :             delete _Ptr->_Decref();

  00044	48 8b 85 00 01
	00 00		 mov	 rax, QWORD PTR this$[rbp]
  0004b	48 8b 40 08	 mov	 rax, QWORD PTR [rax+8]
  0004f	48 8b 8d 00 01
	00 00		 mov	 rcx, QWORD PTR this$[rbp]
  00056	48 8b 49 08	 mov	 rcx, QWORD PTR [rcx+8]
  0005a	48 8b 00	 mov	 rax, QWORD PTR [rax]
  0005d	ff 50 10	 call	 QWORD PTR [rax+16]
  00060	48 89 85 c8 00
	00 00		 mov	 QWORD PTR $T1[rbp], rax
  00067	48 83 bd c8 00
	00 00 00	 cmp	 QWORD PTR $T1[rbp], 0
  0006f	74 21		 je	 SHORT $LN4@locale
  00071	48 8b 85 c8 00
	00 00		 mov	 rax, QWORD PTR $T1[rbp]
  00078	48 8b 00	 mov	 rax, QWORD PTR [rax]
  0007b	ba 01 00 00 00	 mov	 edx, 1
  00080	48 8b 8d c8 00
	00 00		 mov	 rcx, QWORD PTR $T1[rbp]
  00087	ff 10		 call	 QWORD PTR [rax]
  00089	48 89 85 d8 00
	00 00		 mov	 QWORD PTR tv84[rbp], rax
  00090	eb 0b		 jmp	 SHORT $LN2@locale
$LN4@locale:
  00092	48 c7 85 d8 00
	00 00 00 00 00
	00		 mov	 QWORD PTR tv84[rbp], 0
$LN2@locale:

; 353  :         }
; 354  :     }

  0009d	48 8d a5 e8 00
	00 00		 lea	 rsp, QWORD PTR [rbp+232]
  000a4	5f		 pop	 rdi
  000a5	5d		 pop	 rbp
  000a6	c3		 ret	 0
??1locale@std@@QEAA@XZ ENDP				; std::locale::~locale
_TEXT	ENDS
; Function compile flags: /Odtp /RTCsu /ZI
; File C:\Program Files (x86)\Microsoft Visual Studio\2019\Enterprise\VC\Tools\MSVC\14.27.29110\include\typeinfo
;	COMDAT ?_Throw_bad_cast@std@@YAXXZ
_TEXT	SEGMENT
$T1 = 200
?_Throw_bad_cast@std@@YAXXZ PROC			; std::_Throw_bad_cast, COMDAT

; 64   : [[noreturn]] inline void _Throw_bad_cast() {

$LN3:
  00000	40 55		 push	 rbp
  00002	57		 push	 rdi
  00003	48 81 ec 18 01
	00 00		 sub	 rsp, 280		; 00000118H
  0000a	48 8d 6c 24 20	 lea	 rbp, QWORD PTR [rsp+32]
  0000f	48 8b fc	 mov	 rdi, rsp
  00012	b9 46 00 00 00	 mov	 ecx, 70			; 00000046H
  00017	b8 cc cc cc cc	 mov	 eax, -858993460		; ccccccccH
  0001c	f3 ab		 rep stosd
  0001e	48 8d 0d 00 00
	00 00		 lea	 rcx, OFFSET FLAT:__4638863E_typeinfo
  00025	e8 00 00 00 00	 call	 __CheckForDebuggerJustMyCode

; 65   :     _THROW(bad_cast{});

  0002a	48 8d 8d c8 00
	00 00		 lea	 rcx, QWORD PTR $T1[rbp]
  00031	e8 00 00 00 00	 call	 ??0bad_cast@std@@QEAA@XZ ; std::bad_cast::bad_cast
  00036	48 8d 15 00 00
	00 00		 lea	 rdx, OFFSET FLAT:_TI2?AVbad_cast@std@@
  0003d	48 8d 8d c8 00
	00 00		 lea	 rcx, QWORD PTR $T1[rbp]
  00044	e8 00 00 00 00	 call	 _CxxThrowException
$LN2@Throw_bad_:

; 66   : }

  00049	48 8d a5 f8 00
	00 00		 lea	 rsp, QWORD PTR [rbp+248]
  00050	5f		 pop	 rdi
  00051	5d		 pop	 rbp
  00052	c3		 ret	 0
?_Throw_bad_cast@std@@YAXXZ ENDP			; std::_Throw_bad_cast
_TEXT	ENDS
; Function compile flags: /Odtp /RTCsu /ZI
;	COMDAT ??_Gbad_cast@std@@UEAAPEAXI@Z
_TEXT	SEGMENT
this$ = 224
__flags$ = 232
??_Gbad_cast@std@@UEAAPEAXI@Z PROC			; std::bad_cast::`scalar deleting destructor', COMDAT
$LN4:
  00000	89 54 24 10	 mov	 DWORD PTR [rsp+16], edx
  00004	48 89 4c 24 08	 mov	 QWORD PTR [rsp+8], rcx
  00009	55		 push	 rbp
  0000a	57		 push	 rdi
  0000b	48 81 ec e8 00
	00 00		 sub	 rsp, 232		; 000000e8H
  00012	48 8d 6c 24 20	 lea	 rbp, QWORD PTR [rsp+32]
  00017	48 8b fc	 mov	 rdi, rsp
  0001a	b9 3a 00 00 00	 mov	 ecx, 58			; 0000003aH
  0001f	b8 cc cc cc cc	 mov	 eax, -858993460		; ccccccccH
  00024	f3 ab		 rep stosd
  00026	48 8b 8c 24 08
	01 00 00	 mov	 rcx, QWORD PTR [rsp+264]
  0002e	48 8b 8d e0 00
	00 00		 mov	 rcx, QWORD PTR this$[rbp]
  00035	e8 00 00 00 00	 call	 ??1bad_cast@std@@UEAA@XZ
  0003a	8b 85 e8 00 00
	00		 mov	 eax, DWORD PTR __flags$[rbp]
  00040	83 e0 01	 and	 eax, 1
  00043	85 c0		 test	 eax, eax
  00045	74 11		 je	 SHORT $LN2@scalar
  00047	ba 18 00 00 00	 mov	 edx, 24
  0004c	48 8b 8d e0 00
	00 00		 mov	 rcx, QWORD PTR this$[rbp]
  00053	e8 00 00 00 00	 call	 ??3@YAXPEAX_K@Z		; operator delete
$LN2@scalar:
  00058	48 8b 85 e0 00
	00 00		 mov	 rax, QWORD PTR this$[rbp]
  0005f	48 8d a5 c8 00
	00 00		 lea	 rsp, QWORD PTR [rbp+200]
  00066	5f		 pop	 rdi
  00067	5d		 pop	 rbp
  00068	c3		 ret	 0
??_Gbad_cast@std@@UEAAPEAXI@Z ENDP			; std::bad_cast::`scalar deleting destructor'
_TEXT	ENDS
; Function compile flags: /Odtp /RTCsu /ZI
;	COMDAT ??0bad_cast@std@@QEAA@AEBV01@@Z
_TEXT	SEGMENT
this$ = 224
__that$ = 232
??0bad_cast@std@@QEAA@AEBV01@@Z PROC			; std::bad_cast::bad_cast, COMDAT
$LN3:
  00000	48 89 54 24 10	 mov	 QWORD PTR [rsp+16], rdx
  00005	48 89 4c 24 08	 mov	 QWORD PTR [rsp+8], rcx
  0000a	55		 push	 rbp
  0000b	57		 push	 rdi
  0000c	48 81 ec e8 00
	00 00		 sub	 rsp, 232		; 000000e8H
  00013	48 8d 6c 24 20	 lea	 rbp, QWORD PTR [rsp+32]
  00018	48 8b fc	 mov	 rdi, rsp
  0001b	b9 3a 00 00 00	 mov	 ecx, 58			; 0000003aH
  00020	b8 cc cc cc cc	 mov	 eax, -858993460		; ccccccccH
  00025	f3 ab		 rep stosd
  00027	48 8b 8c 24 08
	01 00 00	 mov	 rcx, QWORD PTR [rsp+264]
  0002f	48 8b 95 e8 00
	00 00		 mov	 rdx, QWORD PTR __that$[rbp]
  00036	48 8b 8d e0 00
	00 00		 mov	 rcx, QWORD PTR this$[rbp]
  0003d	e8 00 00 00 00	 call	 ??0exception@std@@QEAA@AEBV01@@Z ; std::exception::exception
  00042	48 8b 85 e0 00
	00 00		 mov	 rax, QWORD PTR this$[rbp]
  00049	48 8d 0d 00 00
	00 00		 lea	 rcx, OFFSET FLAT:??_7bad_cast@std@@6B@
  00050	48 89 08	 mov	 QWORD PTR [rax], rcx
  00053	48 8b 85 e0 00
	00 00		 mov	 rax, QWORD PTR this$[rbp]
  0005a	48 8d a5 c8 00
	00 00		 lea	 rsp, QWORD PTR [rbp+200]
  00061	5f		 pop	 rdi
  00062	5d		 pop	 rbp
  00063	c3		 ret	 0
??0bad_cast@std@@QEAA@AEBV01@@Z ENDP			; std::bad_cast::bad_cast
_TEXT	ENDS
; Function compile flags: /Odtp /RTCsu /ZI
;	COMDAT ??1bad_cast@std@@UEAA@XZ
_TEXT	SEGMENT
this$ = 224
??1bad_cast@std@@UEAA@XZ PROC				; std::bad_cast::~bad_cast, COMDAT
$LN3:
  00000	48 89 4c 24 08	 mov	 QWORD PTR [rsp+8], rcx
  00005	55		 push	 rbp
  00006	57		 push	 rdi
  00007	48 81 ec e8 00
	00 00		 sub	 rsp, 232		; 000000e8H
  0000e	48 8d 6c 24 20	 lea	 rbp, QWORD PTR [rsp+32]
  00013	48 8b fc	 mov	 rdi, rsp
  00016	b9 3a 00 00 00	 mov	 ecx, 58			; 0000003aH
  0001b	b8 cc cc cc cc	 mov	 eax, -858993460		; ccccccccH
  00020	f3 ab		 rep stosd
  00022	48 8b 8c 24 08
	01 00 00	 mov	 rcx, QWORD PTR [rsp+264]
  0002a	48 8b 8d e0 00
	00 00		 mov	 rcx, QWORD PTR this$[rbp]
  00031	e8 00 00 00 00	 call	 ??1exception@std@@UEAA@XZ ; std::exception::~exception
  00036	48 8d a5 c8 00
	00 00		 lea	 rsp, QWORD PTR [rbp+200]
  0003d	5f		 pop	 rdi
  0003e	5d		 pop	 rbp
  0003f	c3		 ret	 0
??1bad_cast@std@@UEAA@XZ ENDP				; std::bad_cast::~bad_cast
_TEXT	ENDS
; Function compile flags: /Odtp /RTCsu /ZI
; File C:\Program Files (x86)\Microsoft Visual Studio\2019\Enterprise\VC\Tools\MSVC\14.27.29110\include\vcruntime_typeinfo.h
;	COMDAT ??0bad_cast@std@@QEAA@XZ
_TEXT	SEGMENT
this$ = 224
??0bad_cast@std@@QEAA@XZ PROC				; std::bad_cast::bad_cast, COMDAT

; 135  :     {

$LN3:
  00000	48 89 4c 24 08	 mov	 QWORD PTR [rsp+8], rcx
  00005	55		 push	 rbp
  00006	57		 push	 rdi
  00007	48 81 ec e8 00
	00 00		 sub	 rsp, 232		; 000000e8H
  0000e	48 8d 6c 24 20	 lea	 rbp, QWORD PTR [rsp+32]
  00013	48 8b fc	 mov	 rdi, rsp
  00016	b9 3a 00 00 00	 mov	 ecx, 58			; 0000003aH
  0001b	b8 cc cc cc cc	 mov	 eax, -858993460		; ccccccccH
  00020	f3 ab		 rep stosd
  00022	48 8b 8c 24 08
	01 00 00	 mov	 rcx, QWORD PTR [rsp+264]
  0002a	48 8d 0d 00 00
	00 00		 lea	 rcx, OFFSET FLAT:__7B3ADE64_vcruntime_typeinfo@h
  00031	e8 00 00 00 00	 call	 __CheckForDebuggerJustMyCode

; 134  :         : exception("bad cast", 1)

  00036	41 b8 01 00 00
	00		 mov	 r8d, 1
  0003c	48 8d 15 00 00
	00 00		 lea	 rdx, OFFSET FLAT:??_C@_08EPJLHIJG@bad?5cast@
  00043	48 8b 8d e0 00
	00 00		 mov	 rcx, QWORD PTR this$[rbp]
  0004a	e8 00 00 00 00	 call	 ??0exception@std@@QEAA@QEBDH@Z ; std::exception::exception

; 135  :     {

  0004f	48 8b 85 e0 00
	00 00		 mov	 rax, QWORD PTR this$[rbp]
  00056	48 8d 0d 00 00
	00 00		 lea	 rcx, OFFSET FLAT:??_7bad_cast@std@@6B@
  0005d	48 89 08	 mov	 QWORD PTR [rax], rcx

; 136  :     }

  00060	48 8b 85 e0 00
	00 00		 mov	 rax, QWORD PTR this$[rbp]
  00067	48 8d a5 c8 00
	00 00		 lea	 rsp, QWORD PTR [rbp+200]
  0006e	5f		 pop	 rdi
  0006f	5d		 pop	 rbp
  00070	c3		 ret	 0
??0bad_cast@std@@QEAA@XZ ENDP				; std::bad_cast::bad_cast
_TEXT	ENDS
; Function compile flags: /Odtp /RTCsu /ZI
;	COMDAT ??1?$_Compressed_pair@V?$allocator@D@std@@V?$_String_val@U?$_Simple_types@D@std@@@2@$00@std@@QEAA@XZ
_TEXT	SEGMENT
this$ = 224
??1?$_Compressed_pair@V?$allocator@D@std@@V?$_String_val@U?$_Simple_types@D@std@@@2@$00@std@@QEAA@XZ PROC ; std::_Compressed_pair<std::allocator<char>,std::_String_val<std::_Simple_types<char> >,1>::~_Compressed_pair<std::allocator<char>,std::_String_val<std::_Simple_types<char> >,1>, COMDAT
$LN3:
  00000	48 89 4c 24 08	 mov	 QWORD PTR [rsp+8], rcx
  00005	55		 push	 rbp
  00006	57		 push	 rdi
  00007	48 81 ec e8 00
	00 00		 sub	 rsp, 232		; 000000e8H
  0000e	48 8d 6c 24 20	 lea	 rbp, QWORD PTR [rsp+32]
  00013	48 8b fc	 mov	 rdi, rsp
  00016	b9 3a 00 00 00	 mov	 ecx, 58			; 0000003aH
  0001b	b8 cc cc cc cc	 mov	 eax, -858993460		; ccccccccH
  00020	f3 ab		 rep stosd
  00022	48 8b 8c 24 08
	01 00 00	 mov	 rcx, QWORD PTR [rsp+264]
  0002a	48 8b 85 e0 00
	00 00		 mov	 rax, QWORD PTR this$[rbp]
  00031	48 8b c8	 mov	 rcx, rax
  00034	e8 00 00 00 00	 call	 ??1?$_String_val@U?$_Simple_types@D@std@@@std@@QEAA@XZ
  00039	48 8d a5 c8 00
	00 00		 lea	 rsp, QWORD PTR [rbp+200]
  00040	5f		 pop	 rdi
  00041	5d		 pop	 rbp
  00042	c3		 ret	 0
??1?$_Compressed_pair@V?$allocator@D@std@@V?$_String_val@U?$_Simple_types@D@std@@@2@$00@std@@QEAA@XZ ENDP ; std::_Compressed_pair<std::allocator<char>,std::_String_val<std::_Simple_types<char> >,1>::~_Compressed_pair<std::allocator<char>,std::_String_val<std::_Simple_types<char> >,1>
_TEXT	ENDS
; Function compile flags: /Odtp /RTCsu /ZI
; File C:\Program Files (x86)\Microsoft Visual Studio\2019\Enterprise\VC\Tools\MSVC\14.27.29110\include\xmemory
;	COMDAT ?_Get_first@?$_Compressed_pair@V?$allocator@D@std@@V?$_String_val@U?$_Simple_types@D@std@@@2@$00@std@@QEBAAEBV?$allocator@D@2@XZ
_TEXT	SEGMENT
this$ = 224
?_Get_first@?$_Compressed_pair@V?$allocator@D@std@@V?$_String_val@U?$_Simple_types@D@std@@@2@$00@std@@QEBAAEBV?$allocator@D@2@XZ PROC ; std::_Compressed_pair<std::allocator<char>,std::_String_val<std::_Simple_types<char> >,1>::_Get_first, COMDAT

; 1347 :     constexpr const _Ty1& _Get_first() const noexcept {

$LN3:
  00000	48 89 4c 24 08	 mov	 QWORD PTR [rsp+8], rcx
  00005	55		 push	 rbp
  00006	57		 push	 rdi
  00007	48 81 ec e8 00
	00 00		 sub	 rsp, 232		; 000000e8H
  0000e	48 8d 6c 24 20	 lea	 rbp, QWORD PTR [rsp+32]
  00013	48 8b fc	 mov	 rdi, rsp
  00016	b9 3a 00 00 00	 mov	 ecx, 58			; 0000003aH
  0001b	b8 cc cc cc cc	 mov	 eax, -858993460		; ccccccccH
  00020	f3 ab		 rep stosd
  00022	48 8b 8c 24 08
	01 00 00	 mov	 rcx, QWORD PTR [rsp+264]
  0002a	48 8d 0d 00 00
	00 00		 lea	 rcx, OFFSET FLAT:__0C99713E_xmemory
  00031	e8 00 00 00 00	 call	 __CheckForDebuggerJustMyCode

; 1348 :         return *this;

  00036	48 8b 85 e0 00
	00 00		 mov	 rax, QWORD PTR this$[rbp]

; 1349 :     }

  0003d	48 8d a5 c8 00
	00 00		 lea	 rsp, QWORD PTR [rbp+200]
  00044	5f		 pop	 rdi
  00045	5d		 pop	 rbp
  00046	c3		 ret	 0
?_Get_first@?$_Compressed_pair@V?$allocator@D@std@@V?$_String_val@U?$_Simple_types@D@std@@@2@$00@std@@QEBAAEBV?$allocator@D@2@XZ ENDP ; std::_Compressed_pair<std::allocator<char>,std::_String_val<std::_Simple_types<char> >,1>::_Get_first
_TEXT	ENDS
; Function compile flags: /Odtp /RTCsu /ZI
; File C:\Program Files (x86)\Microsoft Visual Studio\2019\Enterprise\VC\Tools\MSVC\14.27.29110\include\xmemory
;	COMDAT ?_Get_first@?$_Compressed_pair@V?$allocator@D@std@@V?$_String_val@U?$_Simple_types@D@std@@@2@$00@std@@QEAAAEAV?$allocator@D@2@XZ
_TEXT	SEGMENT
this$ = 224
?_Get_first@?$_Compressed_pair@V?$allocator@D@std@@V?$_String_val@U?$_Simple_types@D@std@@@2@$00@std@@QEAAAEAV?$allocator@D@2@XZ PROC ; std::_Compressed_pair<std::allocator<char>,std::_String_val<std::_Simple_types<char> >,1>::_Get_first, COMDAT

; 1343 :     constexpr _Ty1& _Get_first() noexcept {

$LN3:
  00000	48 89 4c 24 08	 mov	 QWORD PTR [rsp+8], rcx
  00005	55		 push	 rbp
  00006	57		 push	 rdi
  00007	48 81 ec e8 00
	00 00		 sub	 rsp, 232		; 000000e8H
  0000e	48 8d 6c 24 20	 lea	 rbp, QWORD PTR [rsp+32]
  00013	48 8b fc	 mov	 rdi, rsp
  00016	b9 3a 00 00 00	 mov	 ecx, 58			; 0000003aH
  0001b	b8 cc cc cc cc	 mov	 eax, -858993460		; ccccccccH
  00020	f3 ab		 rep stosd
  00022	48 8b 8c 24 08
	01 00 00	 mov	 rcx, QWORD PTR [rsp+264]
  0002a	48 8d 0d 00 00
	00 00		 lea	 rcx, OFFSET FLAT:__0C99713E_xmemory
  00031	e8 00 00 00 00	 call	 __CheckForDebuggerJustMyCode

; 1344 :         return *this;

  00036	48 8b 85 e0 00
	00 00		 mov	 rax, QWORD PTR this$[rbp]

; 1345 :     }

  0003d	48 8d a5 c8 00
	00 00		 lea	 rsp, QWORD PTR [rbp+200]
  00044	5f		 pop	 rdi
  00045	5d		 pop	 rbp
  00046	c3		 ret	 0
?_Get_first@?$_Compressed_pair@V?$allocator@D@std@@V?$_String_val@U?$_Simple_types@D@std@@@2@$00@std@@QEAAAEAV?$allocator@D@2@XZ ENDP ; std::_Compressed_pair<std::allocator<char>,std::_String_val<std::_Simple_types<char> >,1>::_Get_first
_TEXT	ENDS
; Function compile flags: /Odtp /RTCsu /ZI
; File C:\Program Files (x86)\Microsoft Visual Studio\2019\Enterprise\VC\Tools\MSVC\14.27.29110\include\xstring
;	COMDAT ?_Getal@?$basic_string@DU?$char_traits@D@std@@V?$allocator@D@2@@std@@AEBAAEBV?$allocator@D@2@XZ
_TEXT	SEGMENT
this$ = 224
?_Getal@?$basic_string@DU?$char_traits@D@std@@V?$allocator@D@2@@std@@AEBAAEBV?$allocator@D@2@XZ PROC ; std::basic_string<char,std::char_traits<char>,std::allocator<char> >::_Getal, COMDAT

; 4328 :     const _Alty& _Getal() const noexcept {

$LN3:
  00000	48 89 4c 24 08	 mov	 QWORD PTR [rsp+8], rcx
  00005	55		 push	 rbp
  00006	57		 push	 rdi
  00007	48 81 ec e8 00
	00 00		 sub	 rsp, 232		; 000000e8H
  0000e	48 8d 6c 24 20	 lea	 rbp, QWORD PTR [rsp+32]
  00013	48 8b fc	 mov	 rdi, rsp
  00016	b9 3a 00 00 00	 mov	 ecx, 58			; 0000003aH
  0001b	b8 cc cc cc cc	 mov	 eax, -858993460		; ccccccccH
  00020	f3 ab		 rep stosd
  00022	48 8b 8c 24 08
	01 00 00	 mov	 rcx, QWORD PTR [rsp+264]
  0002a	48 8d 0d 00 00
	00 00		 lea	 rcx, OFFSET FLAT:__784AF7A2_xstring
  00031	e8 00 00 00 00	 call	 __CheckForDebuggerJustMyCode

; 4329 :         return _Mypair._Get_first();

  00036	48 8b 85 e0 00
	00 00		 mov	 rax, QWORD PTR this$[rbp]
  0003d	48 8b c8	 mov	 rcx, rax
  00040	e8 00 00 00 00	 call	 ?_Get_first@?$_Compressed_pair@V?$allocator@D@std@@V?$_String_val@U?$_Simple_types@D@std@@@2@$00@std@@QEBAAEBV?$allocator@D@2@XZ ; std::_Compressed_pair<std::allocator<char>,std::_String_val<std::_Simple_types<char> >,1>::_Get_first
  00045	90		 npad	 1

; 4330 :     }

  00046	48 8d a5 c8 00
	00 00		 lea	 rsp, QWORD PTR [rbp+200]
  0004d	5f		 pop	 rdi
  0004e	5d		 pop	 rbp
  0004f	c3		 ret	 0
?_Getal@?$basic_string@DU?$char_traits@D@std@@V?$allocator@D@2@@std@@AEBAAEBV?$allocator@D@2@XZ ENDP ; std::basic_string<char,std::char_traits<char>,std::allocator<char> >::_Getal
_TEXT	ENDS
; Function compile flags: /Odtp /RTCsu /ZI
; File C:\Program Files (x86)\Microsoft Visual Studio\2019\Enterprise\VC\Tools\MSVC\14.27.29110\include\xstring
;	COMDAT ?_Getal@?$basic_string@DU?$char_traits@D@std@@V?$allocator@D@2@@std@@AEAAAEAV?$allocator@D@2@XZ
_TEXT	SEGMENT
this$ = 224
?_Getal@?$basic_string@DU?$char_traits@D@std@@V?$allocator@D@2@@std@@AEAAAEAV?$allocator@D@2@XZ PROC ; std::basic_string<char,std::char_traits<char>,std::allocator<char> >::_Getal, COMDAT

; 4324 :     _Alty& _Getal() noexcept {

$LN3:
  00000	48 89 4c 24 08	 mov	 QWORD PTR [rsp+8], rcx
  00005	55		 push	 rbp
  00006	57		 push	 rdi
  00007	48 81 ec e8 00
	00 00		 sub	 rsp, 232		; 000000e8H
  0000e	48 8d 6c 24 20	 lea	 rbp, QWORD PTR [rsp+32]
  00013	48 8b fc	 mov	 rdi, rsp
  00016	b9 3a 00 00 00	 mov	 ecx, 58			; 0000003aH
  0001b	b8 cc cc cc cc	 mov	 eax, -858993460		; ccccccccH
  00020	f3 ab		 rep stosd
  00022	48 8b 8c 24 08
	01 00 00	 mov	 rcx, QWORD PTR [rsp+264]
  0002a	48 8d 0d 00 00
	00 00		 lea	 rcx, OFFSET FLAT:__784AF7A2_xstring
  00031	e8 00 00 00 00	 call	 __CheckForDebuggerJustMyCode

; 4325 :         return _Mypair._Get_first();

  00036	48 8b 85 e0 00
	00 00		 mov	 rax, QWORD PTR this$[rbp]
  0003d	48 8b c8	 mov	 rcx, rax
  00040	e8 00 00 00 00	 call	 ?_Get_first@?$_Compressed_pair@V?$allocator@D@std@@V?$_String_val@U?$_Simple_types@D@std@@@2@$00@std@@QEAAAEAV?$allocator@D@2@XZ ; std::_Compressed_pair<std::allocator<char>,std::_String_val<std::_Simple_types<char> >,1>::_Get_first
  00045	90		 npad	 1

; 4326 :     }

  00046	48 8d a5 c8 00
	00 00		 lea	 rsp, QWORD PTR [rbp+200]
  0004d	5f		 pop	 rdi
  0004e	5d		 pop	 rbp
  0004f	c3		 ret	 0
?_Getal@?$basic_string@DU?$char_traits@D@std@@V?$allocator@D@2@@std@@AEAAAEAV?$allocator@D@2@XZ ENDP ; std::basic_string<char,std::char_traits<char>,std::allocator<char> >::_Getal
_TEXT	ENDS
; Function compile flags: /Odtp /RTCsu /ZI
; File C:\Program Files (x86)\Microsoft Visual Studio\2019\Enterprise\VC\Tools\MSVC\14.27.29110\include\xstring
;	COMDAT ?_Tidy_deallocate@?$basic_string@DU?$char_traits@D@std@@V?$allocator@D@2@@std@@AEAAXXZ
_TEXT	SEGMENT
_Ptr$1 = 8
_Al$2 = 40
$T3 = 260
this$ = 320
?_Tidy_deallocate@?$basic_string@DU?$char_traits@D@std@@V?$allocator@D@2@@std@@AEAAXXZ PROC ; std::basic_string<char,std::char_traits<char>,std::allocator<char> >::_Tidy_deallocate, COMDAT

; 4299 :     void _Tidy_deallocate() noexcept { // initialize buffer, deallocating any storage

$LN4:
  00000	48 89 4c 24 08	 mov	 QWORD PTR [rsp+8], rcx
  00005	55		 push	 rbp
  00006	57		 push	 rdi
  00007	48 81 ec 48 01
	00 00		 sub	 rsp, 328		; 00000148H
  0000e	48 8d 6c 24 20	 lea	 rbp, QWORD PTR [rsp+32]
  00013	48 8b fc	 mov	 rdi, rsp
  00016	b9 52 00 00 00	 mov	 ecx, 82			; 00000052H
  0001b	b8 cc cc cc cc	 mov	 eax, -858993460		; ccccccccH
  00020	f3 ab		 rep stosd
  00022	48 8b 8c 24 68
	01 00 00	 mov	 rcx, QWORD PTR [rsp+360]
  0002a	48 8d 0d 00 00
	00 00		 lea	 rcx, OFFSET FLAT:__784AF7A2_xstring
  00031	e8 00 00 00 00	 call	 __CheckForDebuggerJustMyCode

; 4300 :         _Mypair._Myval2._Orphan_all();

  00036	48 8b 85 40 01
	00 00		 mov	 rax, QWORD PTR this$[rbp]
  0003d	48 8b c8	 mov	 rcx, rax
  00040	e8 00 00 00 00	 call	 ?_Orphan_all@_Container_base12@std@@QEAAXXZ ; std::_Container_base12::_Orphan_all

; 4301 :         if (_Mypair._Myval2._Large_string_engaged()) {

  00045	48 8b 85 40 01
	00 00		 mov	 rax, QWORD PTR this$[rbp]
  0004c	48 8b c8	 mov	 rcx, rax
  0004f	e8 00 00 00 00	 call	 ?_Large_string_engaged@?$_String_val@U?$_Simple_types@D@std@@@std@@QEBA_NXZ ; std::_String_val<std::_Simple_types<char> >::_Large_string_engaged
  00054	0f b6 c0	 movzx	 eax, al
  00057	85 c0		 test	 eax, eax
  00059	74 50		 je	 SHORT $LN2@Tidy_deall

; 4302 :             const pointer _Ptr = _Mypair._Myval2._Bx._Ptr;

  0005b	48 8b 85 40 01
	00 00		 mov	 rax, QWORD PTR this$[rbp]
  00062	48 8b 40 08	 mov	 rax, QWORD PTR [rax+8]
  00066	48 89 45 08	 mov	 QWORD PTR _Ptr$1[rbp], rax

; 4303 :             auto& _Al          = _Getal();

  0006a	48 8b 8d 40 01
	00 00		 mov	 rcx, QWORD PTR this$[rbp]
  00071	e8 00 00 00 00	 call	 ?_Getal@?$basic_string@DU?$char_traits@D@std@@V?$allocator@D@2@@std@@AEAAAEAV?$allocator@D@2@XZ ; std::basic_string<char,std::char_traits<char>,std::allocator<char> >::_Getal
  00076	48 89 45 28	 mov	 QWORD PTR _Al$2[rbp], rax

; 4304 :             _Destroy_in_place(_Mypair._Myval2._Bx._Ptr);

  0007a	48 8b 85 40 01
	00 00		 mov	 rax, QWORD PTR this$[rbp]
  00081	48 83 c0 08	 add	 rax, 8
  00085	48 8b c8	 mov	 rcx, rax
  00088	e8 00 00 00 00	 call	 ??$_Destroy_in_place@PEAD@std@@YAXAEAPEAD@Z ; std::_Destroy_in_place<char *>

; 4305 :             _Al.deallocate(_Ptr, _Mypair._Myval2._Myres + 1);

  0008d	48 8b 85 40 01
	00 00		 mov	 rax, QWORD PTR this$[rbp]
  00094	48 8b 40 20	 mov	 rax, QWORD PTR [rax+32]
  00098	48 ff c0	 inc	 rax
  0009b	4c 8b c0	 mov	 r8, rax
  0009e	48 8b 55 08	 mov	 rdx, QWORD PTR _Ptr$1[rbp]
  000a2	48 8b 4d 28	 mov	 rcx, QWORD PTR _Al$2[rbp]
  000a6	e8 00 00 00 00	 call	 ?deallocate@?$allocator@D@std@@QEAAXQEAD_K@Z ; std::allocator<char>::deallocate
$LN2@Tidy_deall:

; 4306 :         }
; 4307 : 
; 4308 :         _Mypair._Myval2._Mysize = 0;

  000ab	48 8b 85 40 01
	00 00		 mov	 rax, QWORD PTR this$[rbp]
  000b2	48 c7 40 18 00
	00 00 00	 mov	 QWORD PTR [rax+24], 0

; 4309 :         _Mypair._Myval2._Myres  = _BUF_SIZE - 1;

  000ba	48 8b 85 40 01
	00 00		 mov	 rax, QWORD PTR this$[rbp]
  000c1	48 c7 40 20 0f
	00 00 00	 mov	 QWORD PTR [rax+32], 15

; 4310 :         // the _Traits::assign is last so the codegen doesn't think the char write can alias this
; 4311 :         _Traits::assign(_Mypair._Myval2._Bx._Buf[0], _Elem());

  000c9	c6 85 04 01 00
	00 00		 mov	 BYTE PTR $T3[rbp], 0
  000d0	b8 01 00 00 00	 mov	 eax, 1
  000d5	48 6b c0 00	 imul	 rax, rax, 0
  000d9	48 8b 8d 40 01
	00 00		 mov	 rcx, QWORD PTR this$[rbp]
  000e0	48 8d 44 01 08	 lea	 rax, QWORD PTR [rcx+rax+8]
  000e5	48 8d 95 04 01
	00 00		 lea	 rdx, QWORD PTR $T3[rbp]
  000ec	48 8b c8	 mov	 rcx, rax
  000ef	e8 00 00 00 00	 call	 ?assign@?$_Narrow_char_traits@DH@std@@SAXAEADAEBD@Z ; std::_Narrow_char_traits<char,int>::assign
  000f4	90		 npad	 1

; 4312 :     }

  000f5	48 8d a5 28 01
	00 00		 lea	 rsp, QWORD PTR [rbp+296]
  000fc	5f		 pop	 rdi
  000fd	5d		 pop	 rbp
  000fe	c3		 ret	 0
?_Tidy_deallocate@?$basic_string@DU?$char_traits@D@std@@V?$allocator@D@2@@std@@AEAAXXZ ENDP ; std::basic_string<char,std::char_traits<char>,std::allocator<char> >::_Tidy_deallocate
_TEXT	ENDS
; Function compile flags: /Odtp /RTCsu /ZI
; File C:\Program Files (x86)\Microsoft Visual Studio\2019\Enterprise\VC\Tools\MSVC\14.27.29110\include\xstring
;	COMDAT ?_Tidy_init@?$basic_string@DU?$char_traits@D@std@@V?$allocator@D@2@@std@@AEAAXXZ
_TEXT	SEGMENT
$T1 = 196
this$ = 256
?_Tidy_init@?$basic_string@DU?$char_traits@D@std@@V?$allocator@D@2@@std@@AEAAXXZ PROC ; std::basic_string<char,std::char_traits<char>,std::allocator<char> >::_Tidy_init, COMDAT

; 4292 :     void _Tidy_init() noexcept { // initialize basic_string data members

$LN3:
  00000	48 89 4c 24 08	 mov	 QWORD PTR [rsp+8], rcx
  00005	55		 push	 rbp
  00006	57		 push	 rdi
  00007	48 81 ec 08 01
	00 00		 sub	 rsp, 264		; 00000108H
  0000e	48 8d 6c 24 20	 lea	 rbp, QWORD PTR [rsp+32]
  00013	48 8b fc	 mov	 rdi, rsp
  00016	b9 42 00 00 00	 mov	 ecx, 66			; 00000042H
  0001b	b8 cc cc cc cc	 mov	 eax, -858993460		; ccccccccH
  00020	f3 ab		 rep stosd
  00022	48 8b 8c 24 28
	01 00 00	 mov	 rcx, QWORD PTR [rsp+296]
  0002a	48 8d 0d 00 00
	00 00		 lea	 rcx, OFFSET FLAT:__784AF7A2_xstring
  00031	e8 00 00 00 00	 call	 __CheckForDebuggerJustMyCode

; 4293 :         _Mypair._Myval2._Mysize = 0;

  00036	48 8b 85 00 01
	00 00		 mov	 rax, QWORD PTR this$[rbp]
  0003d	48 c7 40 18 00
	00 00 00	 mov	 QWORD PTR [rax+24], 0

; 4294 :         _Mypair._Myval2._Myres  = _BUF_SIZE - 1;

  00045	48 8b 85 00 01
	00 00		 mov	 rax, QWORD PTR this$[rbp]
  0004c	48 c7 40 20 0f
	00 00 00	 mov	 QWORD PTR [rax+32], 15

; 4295 :         // the _Traits::assign is last so the codegen doesn't think the char write can alias this
; 4296 :         _Traits::assign(_Mypair._Myval2._Bx._Buf[0], _Elem());

  00054	c6 85 c4 00 00
	00 00		 mov	 BYTE PTR $T1[rbp], 0
  0005b	b8 01 00 00 00	 mov	 eax, 1
  00060	48 6b c0 00	 imul	 rax, rax, 0
  00064	48 8b 8d 00 01
	00 00		 mov	 rcx, QWORD PTR this$[rbp]
  0006b	48 8d 44 01 08	 lea	 rax, QWORD PTR [rcx+rax+8]
  00070	48 8d 95 c4 00
	00 00		 lea	 rdx, QWORD PTR $T1[rbp]
  00077	48 8b c8	 mov	 rcx, rax
  0007a	e8 00 00 00 00	 call	 ?assign@?$_Narrow_char_traits@DH@std@@SAXAEADAEBD@Z ; std::_Narrow_char_traits<char,int>::assign
  0007f	90		 npad	 1

; 4297 :     }

  00080	48 8d a5 e8 00
	00 00		 lea	 rsp, QWORD PTR [rbp+232]
  00087	5f		 pop	 rdi
  00088	5d		 pop	 rbp
  00089	c3		 ret	 0
?_Tidy_init@?$basic_string@DU?$char_traits@D@std@@V?$allocator@D@2@@std@@AEAAXXZ ENDP ; std::basic_string<char,std::char_traits<char>,std::allocator<char> >::_Tidy_init
_TEXT	ENDS
; Function compile flags: /Odtp /RTCsu /ZI
; File C:\Program Files (x86)\Microsoft Visual Studio\2019\Enterprise\VC\Tools\MSVC\14.27.29110\include\xstring
;	COMDAT ?_Calculate_growth@?$basic_string@DU?$char_traits@D@std@@V?$allocator@D@2@@std@@AEBA_K_K@Z
_TEXT	SEGMENT
this$ = 224
_Requested$ = 232
?_Calculate_growth@?$basic_string@DU?$char_traits@D@std@@V?$allocator@D@2@@std@@AEBA_K_K@Z PROC ; std::basic_string<char,std::char_traits<char>,std::allocator<char> >::_Calculate_growth, COMDAT

; 4213 :     _NODISCARD size_type _Calculate_growth(const size_type _Requested) const noexcept {

$LN3:
  00000	48 89 54 24 10	 mov	 QWORD PTR [rsp+16], rdx
  00005	48 89 4c 24 08	 mov	 QWORD PTR [rsp+8], rcx
  0000a	55		 push	 rbp
  0000b	57		 push	 rdi
  0000c	48 81 ec e8 00
	00 00		 sub	 rsp, 232		; 000000e8H
  00013	48 8d 6c 24 20	 lea	 rbp, QWORD PTR [rsp+32]
  00018	48 8b fc	 mov	 rdi, rsp
  0001b	b9 3a 00 00 00	 mov	 ecx, 58			; 0000003aH
  00020	b8 cc cc cc cc	 mov	 eax, -858993460		; ccccccccH
  00025	f3 ab		 rep stosd
  00027	48 8b 8c 24 08
	01 00 00	 mov	 rcx, QWORD PTR [rsp+264]
  0002f	48 8d 0d 00 00
	00 00		 lea	 rcx, OFFSET FLAT:__784AF7A2_xstring
  00036	e8 00 00 00 00	 call	 __CheckForDebuggerJustMyCode

; 4214 :         return _Calculate_growth(_Requested, _Mypair._Myval2._Myres, max_size());

  0003b	48 8b 8d e0 00
	00 00		 mov	 rcx, QWORD PTR this$[rbp]
  00042	e8 00 00 00 00	 call	 ?max_size@?$basic_string@DU?$char_traits@D@std@@V?$allocator@D@2@@std@@QEBA_KXZ ; std::basic_string<char,std::char_traits<char>,std::allocator<char> >::max_size
  00047	4c 8b c0	 mov	 r8, rax
  0004a	48 8b 85 e0 00
	00 00		 mov	 rax, QWORD PTR this$[rbp]
  00051	48 8b 50 20	 mov	 rdx, QWORD PTR [rax+32]
  00055	48 8b 8d e8 00
	00 00		 mov	 rcx, QWORD PTR _Requested$[rbp]
  0005c	e8 00 00 00 00	 call	 ?_Calculate_growth@?$basic_string@DU?$char_traits@D@std@@V?$allocator@D@2@@std@@CA_K_K00@Z ; std::basic_string<char,std::char_traits<char>,std::allocator<char> >::_Calculate_growth
  00061	90		 npad	 1

; 4215 :     }

  00062	48 8d a5 c8 00
	00 00		 lea	 rsp, QWORD PTR [rbp+200]
  00069	5f		 pop	 rdi
  0006a	5d		 pop	 rbp
  0006b	c3		 ret	 0
?_Calculate_growth@?$basic_string@DU?$char_traits@D@std@@V?$allocator@D@2@@std@@AEBA_K_K@Z ENDP ; std::basic_string<char,std::char_traits<char>,std::allocator<char> >::_Calculate_growth
_TEXT	ENDS
; Function compile flags: /Odtp /RTCsu /ZI
; File C:\Program Files (x86)\Microsoft Visual Studio\2019\Enterprise\VC\Tools\MSVC\14.27.29110\include\xstring
;	COMDAT ?_Calculate_growth@?$basic_string@DU?$char_traits@D@std@@V?$allocator@D@2@@std@@CA_K_K00@Z
_TEXT	SEGMENT
_Masked$ = 8
$T4 = 232
__$ArrayPad$ = 248
_Requested$ = 288
_Old$ = 296
_Max$ = 304
?_Calculate_growth@?$basic_string@DU?$char_traits@D@std@@V?$allocator@D@2@@std@@CA_K_K00@Z PROC ; std::basic_string<char,std::char_traits<char>,std::allocator<char> >::_Calculate_growth, COMDAT

; 4200 :         const size_type _Requested, const size_type _Old, const size_type _Max) noexcept {

$LN5:
  00000	4c 89 44 24 18	 mov	 QWORD PTR [rsp+24], r8
  00005	48 89 54 24 10	 mov	 QWORD PTR [rsp+16], rdx
  0000a	48 89 4c 24 08	 mov	 QWORD PTR [rsp+8], rcx
  0000f	55		 push	 rbp
  00010	57		 push	 rdi
  00011	48 81 ec 28 01
	00 00		 sub	 rsp, 296		; 00000128H
  00018	48 8d 6c 24 20	 lea	 rbp, QWORD PTR [rsp+32]
  0001d	48 8b fc	 mov	 rdi, rsp
  00020	b9 4a 00 00 00	 mov	 ecx, 74			; 0000004aH
  00025	b8 cc cc cc cc	 mov	 eax, -858993460		; ccccccccH
  0002a	f3 ab		 rep stosd
  0002c	48 8b 8c 24 48
	01 00 00	 mov	 rcx, QWORD PTR [rsp+328]
  00034	48 8b 05 00 00
	00 00		 mov	 rax, QWORD PTR __security_cookie
  0003b	48 33 c5	 xor	 rax, rbp
  0003e	48 89 85 f8 00
	00 00		 mov	 QWORD PTR __$ArrayPad$[rbp], rax
  00045	48 8d 0d 00 00
	00 00		 lea	 rcx, OFFSET FLAT:__784AF7A2_xstring
  0004c	e8 00 00 00 00	 call	 __CheckForDebuggerJustMyCode

; 4201 :         const size_type _Masked = _Requested | _ALLOC_MASK;

  00051	48 8b 85 20 01
	00 00		 mov	 rax, QWORD PTR _Requested$[rbp]
  00058	48 83 c8 0f	 or	 rax, 15
  0005c	48 89 45 08	 mov	 QWORD PTR _Masked$[rbp], rax

; 4202 :         if (_Masked > _Max) { // the mask overflows, settle for max_size()

  00060	48 8b 85 30 01
	00 00		 mov	 rax, QWORD PTR _Max$[rbp]
  00067	48 39 45 08	 cmp	 QWORD PTR _Masked$[rbp], rax
  0006b	76 09		 jbe	 SHORT $LN2@Calculate_

; 4203 :             return _Max;

  0006d	48 8b 85 30 01
	00 00		 mov	 rax, QWORD PTR _Max$[rbp]
  00074	eb 68		 jmp	 SHORT $LN1@Calculate_
$LN2@Calculate_:

; 4204 :         }
; 4205 : 
; 4206 :         if (_Old > _Max - _Old / 2) { // similarly, geometric overflows

  00076	33 d2		 xor	 edx, edx
  00078	48 8b 85 28 01
	00 00		 mov	 rax, QWORD PTR _Old$[rbp]
  0007f	b9 02 00 00 00	 mov	 ecx, 2
  00084	48 f7 f1	 div	 rcx
  00087	48 8b 8d 30 01
	00 00		 mov	 rcx, QWORD PTR _Max$[rbp]
  0008e	48 2b c8	 sub	 rcx, rax
  00091	48 8b c1	 mov	 rax, rcx
  00094	48 39 85 28 01
	00 00		 cmp	 QWORD PTR _Old$[rbp], rax
  0009b	76 09		 jbe	 SHORT $LN3@Calculate_

; 4207 :             return _Max;

  0009d	48 8b 85 30 01
	00 00		 mov	 rax, QWORD PTR _Max$[rbp]
  000a4	eb 38		 jmp	 SHORT $LN1@Calculate_
$LN3@Calculate_:

; 4208 :         }
; 4209 : 
; 4210 :         return (_STD max)(_Masked, _Old + _Old / 2);

  000a6	33 d2		 xor	 edx, edx
  000a8	48 8b 85 28 01
	00 00		 mov	 rax, QWORD PTR _Old$[rbp]
  000af	b9 02 00 00 00	 mov	 ecx, 2
  000b4	48 f7 f1	 div	 rcx
  000b7	48 8b 8d 28 01
	00 00		 mov	 rcx, QWORD PTR _Old$[rbp]
  000be	48 03 c8	 add	 rcx, rax
  000c1	48 8b c1	 mov	 rax, rcx
  000c4	48 89 85 e8 00
	00 00		 mov	 QWORD PTR $T4[rbp], rax
  000cb	48 8d 95 e8 00
	00 00		 lea	 rdx, QWORD PTR $T4[rbp]
  000d2	48 8d 4d 08	 lea	 rcx, QWORD PTR _Masked$[rbp]
  000d6	e8 00 00 00 00	 call	 ??$max@_K@std@@YAAEB_KAEB_K0@Z ; std::max<unsigned __int64>
  000db	48 8b 00	 mov	 rax, QWORD PTR [rax]
$LN1@Calculate_:

; 4211 :     }

  000de	48 8b f8	 mov	 rdi, rax
  000e1	48 8d 4d e0	 lea	 rcx, QWORD PTR [rbp-32]
  000e5	48 8d 15 00 00
	00 00		 lea	 rdx, OFFSET FLAT:?_Calculate_growth@?$basic_string@DU?$char_traits@D@std@@V?$allocator@D@2@@std@@CA_K_K00@Z$rtcFrameData
  000ec	e8 00 00 00 00	 call	 _RTC_CheckStackVars
  000f1	48 8b c7	 mov	 rax, rdi
  000f4	48 8b 8d f8 00
	00 00		 mov	 rcx, QWORD PTR __$ArrayPad$[rbp]
  000fb	48 33 cd	 xor	 rcx, rbp
  000fe	e8 00 00 00 00	 call	 __security_check_cookie
  00103	48 8d a5 08 01
	00 00		 lea	 rsp, QWORD PTR [rbp+264]
  0010a	5f		 pop	 rdi
  0010b	5d		 pop	 rbp
  0010c	c3		 ret	 0
?_Calculate_growth@?$basic_string@DU?$char_traits@D@std@@V?$allocator@D@2@@std@@CA_K_K00@Z ENDP ; std::basic_string<char,std::char_traits<char>,std::allocator<char> >::_Calculate_growth
_TEXT	ENDS
; Function compile flags: /Odtp /RTCsu /ZI
; File C:\Program Files (x86)\Microsoft Visual Studio\2019\Enterprise\VC\Tools\MSVC\14.27.29110\include\xstring
;	COMDAT ?max_size@?$basic_string@DU?$char_traits@D@std@@V?$allocator@D@2@@std@@QEBA_KXZ
_TEXT	SEGMENT
_Alloc_max$ = 8
_Storage_max$ = 40
$T4 = 264
$T5 = 296
$T6 = 328
__$ArrayPad$ = 344
this$ = 384
?max_size@?$basic_string@DU?$char_traits@D@std@@V?$allocator@D@2@@std@@QEBA_KXZ PROC ; std::basic_string<char,std::char_traits<char>,std::allocator<char> >::max_size, COMDAT

; 3689 :     _NODISCARD size_type max_size() const noexcept {

$LN3:
  00000	48 89 4c 24 08	 mov	 QWORD PTR [rsp+8], rcx
  00005	55		 push	 rbp
  00006	57		 push	 rdi
  00007	48 81 ec 88 01
	00 00		 sub	 rsp, 392		; 00000188H
  0000e	48 8d 6c 24 20	 lea	 rbp, QWORD PTR [rsp+32]
  00013	48 8b fc	 mov	 rdi, rsp
  00016	b9 62 00 00 00	 mov	 ecx, 98			; 00000062H
  0001b	b8 cc cc cc cc	 mov	 eax, -858993460		; ccccccccH
  00020	f3 ab		 rep stosd
  00022	48 8b 8c 24 a8
	01 00 00	 mov	 rcx, QWORD PTR [rsp+424]
  0002a	48 8b 05 00 00
	00 00		 mov	 rax, QWORD PTR __security_cookie
  00031	48 33 c5	 xor	 rax, rbp
  00034	48 89 85 58 01
	00 00		 mov	 QWORD PTR __$ArrayPad$[rbp], rax
  0003b	48 8d 0d 00 00
	00 00		 lea	 rcx, OFFSET FLAT:__784AF7A2_xstring
  00042	e8 00 00 00 00	 call	 __CheckForDebuggerJustMyCode

; 3690 :         const size_type _Alloc_max   = _Alty_traits::max_size(_Getal());

  00047	48 8b 8d 80 01
	00 00		 mov	 rcx, QWORD PTR this$[rbp]
  0004e	e8 00 00 00 00	 call	 ?_Getal@?$basic_string@DU?$char_traits@D@std@@V?$allocator@D@2@@std@@AEBAAEBV?$allocator@D@2@XZ ; std::basic_string<char,std::char_traits<char>,std::allocator<char> >::_Getal
  00053	48 8b c8	 mov	 rcx, rax
  00056	e8 00 00 00 00	 call	 ?max_size@?$_Default_allocator_traits@V?$allocator@D@std@@@std@@SA_KAEBV?$allocator@D@2@@Z ; std::_Default_allocator_traits<std::allocator<char> >::max_size
  0005b	48 89 45 08	 mov	 QWORD PTR _Alloc_max$[rbp], rax

; 3691 :         const size_type _Storage_max = // can always store small string

  0005f	48 c7 85 08 01
	00 00 10 00 00
	00		 mov	 QWORD PTR $T4[rbp], 16
  0006a	48 8d 95 08 01
	00 00		 lea	 rdx, QWORD PTR $T4[rbp]
  00071	48 8d 4d 08	 lea	 rcx, QWORD PTR _Alloc_max$[rbp]
  00075	e8 00 00 00 00	 call	 ??$max@_K@std@@YAAEB_KAEB_K0@Z ; std::max<unsigned __int64>
  0007a	48 8b 00	 mov	 rax, QWORD PTR [rax]
  0007d	48 89 45 28	 mov	 QWORD PTR _Storage_max$[rbp], rax

; 3692 :             (_STD max)(_Alloc_max, static_cast<size_type>(_BUF_SIZE));
; 3693 :         return (_STD min)(static_cast<size_type>((numeric_limits<difference_type>::max)()),

  00081	48 8b 45 28	 mov	 rax, QWORD PTR _Storage_max$[rbp]
  00085	48 ff c8	 dec	 rax
  00088	48 89 85 28 01
	00 00		 mov	 QWORD PTR $T5[rbp], rax
  0008f	e8 00 00 00 00	 call	 ?max@?$numeric_limits@_J@std@@SA_JXZ ; std::numeric_limits<__int64>::max
  00094	48 89 85 48 01
	00 00		 mov	 QWORD PTR $T6[rbp], rax
  0009b	48 8d 95 28 01
	00 00		 lea	 rdx, QWORD PTR $T5[rbp]
  000a2	48 8d 8d 48 01
	00 00		 lea	 rcx, QWORD PTR $T6[rbp]
  000a9	e8 00 00 00 00	 call	 ??$min@_K@std@@YAAEB_KAEB_K0@Z ; std::min<unsigned __int64>
  000ae	48 8b 00	 mov	 rax, QWORD PTR [rax]

; 3694 :             _Storage_max - 1 // -1 is for null terminator and/or npos
; 3695 :         );
; 3696 :     }

  000b1	48 8b f8	 mov	 rdi, rax
  000b4	48 8d 4d e0	 lea	 rcx, QWORD PTR [rbp-32]
  000b8	48 8d 15 00 00
	00 00		 lea	 rdx, OFFSET FLAT:?max_size@?$basic_string@DU?$char_traits@D@std@@V?$allocator@D@2@@std@@QEBA_KXZ$rtcFrameData
  000bf	e8 00 00 00 00	 call	 _RTC_CheckStackVars
  000c4	48 8b c7	 mov	 rax, rdi
  000c7	48 8b 8d 58 01
	00 00		 mov	 rcx, QWORD PTR __$ArrayPad$[rbp]
  000ce	48 33 cd	 xor	 rcx, rbp
  000d1	e8 00 00 00 00	 call	 __security_check_cookie
  000d6	48 8d a5 68 01
	00 00		 lea	 rsp, QWORD PTR [rbp+360]
  000dd	5f		 pop	 rdi
  000de	5d		 pop	 rbp
  000df	c3		 ret	 0
?max_size@?$basic_string@DU?$char_traits@D@std@@V?$allocator@D@2@@std@@QEBA_KXZ ENDP ; std::basic_string<char,std::char_traits<char>,std::allocator<char> >::max_size
_TEXT	ENDS
; Function compile flags: /Odtp /RTCsu /ZI
; File C:\Program Files (x86)\Microsoft Visual Studio\2019\Enterprise\VC\Tools\MSVC\14.27.29110\include\xstring
;	COMDAT ?size@?$basic_string@DU?$char_traits@D@std@@V?$allocator@D@2@@std@@QEBA_KXZ
_TEXT	SEGMENT
this$ = 224
?size@?$basic_string@DU?$char_traits@D@std@@V?$allocator@D@2@@std@@QEBA_KXZ PROC ; std::basic_string<char,std::char_traits<char>,std::allocator<char> >::size, COMDAT

; 3685 :     _NODISCARD size_type size() const noexcept {

$LN3:
  00000	48 89 4c 24 08	 mov	 QWORD PTR [rsp+8], rcx
  00005	55		 push	 rbp
  00006	57		 push	 rdi
  00007	48 81 ec e8 00
	00 00		 sub	 rsp, 232		; 000000e8H
  0000e	48 8d 6c 24 20	 lea	 rbp, QWORD PTR [rsp+32]
  00013	48 8b fc	 mov	 rdi, rsp
  00016	b9 3a 00 00 00	 mov	 ecx, 58			; 0000003aH
  0001b	b8 cc cc cc cc	 mov	 eax, -858993460		; ccccccccH
  00020	f3 ab		 rep stosd
  00022	48 8b 8c 24 08
	01 00 00	 mov	 rcx, QWORD PTR [rsp+264]
  0002a	48 8d 0d 00 00
	00 00		 lea	 rcx, OFFSET FLAT:__784AF7A2_xstring
  00031	e8 00 00 00 00	 call	 __CheckForDebuggerJustMyCode

; 3686 :         return _Mypair._Myval2._Mysize;

  00036	48 8b 85 e0 00
	00 00		 mov	 rax, QWORD PTR this$[rbp]
  0003d	48 8b 40 18	 mov	 rax, QWORD PTR [rax+24]

; 3687 :     }

  00041	48 8d a5 c8 00
	00 00		 lea	 rsp, QWORD PTR [rbp+200]
  00048	5f		 pop	 rdi
  00049	5d		 pop	 rbp
  0004a	c3		 ret	 0
?size@?$basic_string@DU?$char_traits@D@std@@V?$allocator@D@2@@std@@QEBA_KXZ ENDP ; std::basic_string<char,std::char_traits<char>,std::allocator<char> >::size
_TEXT	ENDS
; Function compile flags: /Odtp /RTCsu /ZI
; File C:\Program Files (x86)\Microsoft Visual Studio\2019\Enterprise\VC\Tools\MSVC\14.27.29110\include\xstring
;	COMDAT ?data@?$basic_string@DU?$char_traits@D@std@@V?$allocator@D@2@@std@@QEBAPEBDXZ
_TEXT	SEGMENT
this$ = 224
?data@?$basic_string@DU?$char_traits@D@std@@V?$allocator@D@2@@std@@QEBAPEBDXZ PROC ; std::basic_string<char,std::char_traits<char>,std::allocator<char> >::data, COMDAT

; 3671 :     _NODISCARD _Ret_z_ const _Elem* data() const noexcept {

$LN3:
  00000	48 89 4c 24 08	 mov	 QWORD PTR [rsp+8], rcx
  00005	55		 push	 rbp
  00006	57		 push	 rdi
  00007	48 81 ec e8 00
	00 00		 sub	 rsp, 232		; 000000e8H
  0000e	48 8d 6c 24 20	 lea	 rbp, QWORD PTR [rsp+32]
  00013	48 8b fc	 mov	 rdi, rsp
  00016	b9 3a 00 00 00	 mov	 ecx, 58			; 0000003aH
  0001b	b8 cc cc cc cc	 mov	 eax, -858993460		; ccccccccH
  00020	f3 ab		 rep stosd
  00022	48 8b 8c 24 08
	01 00 00	 mov	 rcx, QWORD PTR [rsp+264]
  0002a	48 8d 0d 00 00
	00 00		 lea	 rcx, OFFSET FLAT:__784AF7A2_xstring
  00031	e8 00 00 00 00	 call	 __CheckForDebuggerJustMyCode

; 3672 :         return _Mypair._Myval2._Myptr();

  00036	48 8b 85 e0 00
	00 00		 mov	 rax, QWORD PTR this$[rbp]
  0003d	48 8b c8	 mov	 rcx, rax
  00040	e8 00 00 00 00	 call	 ?_Myptr@?$_String_val@U?$_Simple_types@D@std@@@std@@QEBAPEBDXZ ; std::_String_val<std::_Simple_types<char> >::_Myptr
  00045	90		 npad	 1

; 3673 :     }

  00046	48 8d a5 c8 00
	00 00		 lea	 rsp, QWORD PTR [rbp+200]
  0004d	5f		 pop	 rdi
  0004e	5d		 pop	 rbp
  0004f	c3		 ret	 0
?data@?$basic_string@DU?$char_traits@D@std@@V?$allocator@D@2@@std@@QEBAPEBDXZ ENDP ; std::basic_string<char,std::char_traits<char>,std::allocator<char> >::data
_TEXT	ENDS
; Function compile flags: /Odtp /RTCsu /ZI
; File C:\Program Files (x86)\Microsoft Visual Studio\2019\Enterprise\VC\Tools\MSVC\14.27.29110\include\xstring
;	COMDAT ?front@?$basic_string@DU?$char_traits@D@std@@V?$allocator@D@2@@std@@QEAAAEADXZ
_TEXT	SEGMENT
this$ = 224
?front@?$basic_string@DU?$char_traits@D@std@@V?$allocator@D@2@@std@@QEAAAEADXZ PROC ; std::basic_string<char,std::char_traits<char>,std::allocator<char> >::front, COMDAT

; 3635 :     _NODISCARD reference front() noexcept /* strengthened */ {

$LN12:
  00000	48 89 4c 24 08	 mov	 QWORD PTR [rsp+8], rcx
  00005	55		 push	 rbp
  00006	57		 push	 rdi
  00007	48 81 ec f8 00
	00 00		 sub	 rsp, 248		; 000000f8H
  0000e	48 8d 6c 24 30	 lea	 rbp, QWORD PTR [rsp+48]
  00013	48 8b fc	 mov	 rdi, rsp
  00016	b9 3e 00 00 00	 mov	 ecx, 62			; 0000003eH
  0001b	b8 cc cc cc cc	 mov	 eax, -858993460		; ccccccccH
  00020	f3 ab		 rep stosd
  00022	48 8b 8c 24 18
	01 00 00	 mov	 rcx, QWORD PTR [rsp+280]
  0002a	48 8d 0d 00 00
	00 00		 lea	 rcx, OFFSET FLAT:__784AF7A2_xstring
  00031	e8 00 00 00 00	 call	 __CheckForDebuggerJustMyCode
$LN4@front:

; 3636 : #if _CONTAINER_DEBUG_LEVEL > 0
; 3637 :         _STL_VERIFY(_Mypair._Myval2._Mysize != 0, "front() called on empty string");

  00036	48 8b 85 e0 00
	00 00		 mov	 rax, QWORD PTR this$[rbp]
  0003d	48 83 78 18 00	 cmp	 QWORD PTR [rax+24], 0
  00042	74 02		 je	 SHORT $LN7@front
  00044	eb 6b		 jmp	 SHORT $LN9@front
$LN7@front:
  00046	48 8d 05 00 00
	00 00		 lea	 rax, OFFSET FLAT:??_C@_0BP@PFIPNLNI@front?$CI?$CJ?5called?5on?5empty?5string@
  0004d	48 89 44 24 28	 mov	 QWORD PTR [rsp+40], rax
  00052	48 8d 05 00 00
	00 00		 lea	 rax, OFFSET FLAT:??_C@_02DKCKIIND@?$CFs@
  00059	48 89 44 24 20	 mov	 QWORD PTR [rsp+32], rax
  0005e	45 33 c9	 xor	 r9d, r9d
  00061	41 b8 35 0e 00
	00		 mov	 r8d, 3637		; 00000e35H
  00067	48 8d 15 00 00
	00 00		 lea	 rdx, OFFSET FLAT:??_C@_0GJ@LOFLLKBK@C?3?2Program?5Files?5?$CIx86?$CJ?2Microsof@
  0006e	b9 02 00 00 00	 mov	 ecx, 2
  00073	ff 15 00 00 00
	00		 call	 QWORD PTR __imp__CrtDbgReport
  00079	83 f8 01	 cmp	 eax, 1
  0007c	75 03		 jne	 SHORT $LN11@front
  0007e	cc		 int	 3
  0007f	33 c0		 xor	 eax, eax
$LN11@front:
  00081	48 c7 44 24 20
	00 00 00 00	 mov	 QWORD PTR [rsp+32], 0
  0008a	41 b9 35 0e 00
	00		 mov	 r9d, 3637		; 00000e35H
  00090	4c 8d 05 00 00
	00 00		 lea	 r8, OFFSET FLAT:??_C@_1NC@FPODOMOF@?$AAC?$AA?3?$AA?2?$AAP?$AAr?$AAo?$AAg?$AAr?$AAa?$AAm?$AA?5?$AAF?$AAi?$AAl?$AAe@
  00097	48 8d 15 00 00
	00 00		 lea	 rdx, OFFSET FLAT:??_C@_1LC@BJDDPGPA@?$AAs?$AAt?$AAd?$AA?3?$AA?3?$AAb?$AAa?$AAs?$AAi?$AAc?$AA_?$AAs?$AAt?$AAr?$AAi@
  0009e	48 8d 0d 00 00
	00 00		 lea	 rcx, OFFSET FLAT:??_C@_1EC@DINNLDHA@?$AA?$CC?$AAf?$AAr?$AAo?$AAn?$AAt?$AA?$CI?$AA?$CJ?$AA?5?$AAc?$AAa?$AAl?$AAl?$AAe?$AAd@
  000a5	ff 15 00 00 00
	00		 call	 QWORD PTR __imp__invalid_parameter
  000ab	33 c0		 xor	 eax, eax
  000ad	85 c0		 test	 eax, eax
  000af	75 95		 jne	 SHORT $LN7@front
$LN9@front:
  000b1	33 c0		 xor	 eax, eax
  000b3	85 c0		 test	 eax, eax
  000b5	0f 85 7b ff ff
	ff		 jne	 $LN4@front

; 3638 : #endif // _CONTAINER_DEBUG_LEVEL > 0
; 3639 : 
; 3640 :         return _Mypair._Myval2._Myptr()[0];

  000bb	48 8b 85 e0 00
	00 00		 mov	 rax, QWORD PTR this$[rbp]
  000c2	48 8b c8	 mov	 rcx, rax
  000c5	e8 00 00 00 00	 call	 ?_Myptr@?$_String_val@U?$_Simple_types@D@std@@@std@@QEAAPEADXZ ; std::_String_val<std::_Simple_types<char> >::_Myptr
  000ca	b9 01 00 00 00	 mov	 ecx, 1
  000cf	48 6b c9 00	 imul	 rcx, rcx, 0
  000d3	48 03 c1	 add	 rax, rcx

; 3641 :     }

  000d6	48 8d a5 c8 00
	00 00		 lea	 rsp, QWORD PTR [rbp+200]
  000dd	5f		 pop	 rdi
  000de	5d		 pop	 rbp
  000df	c3		 ret	 0
?front@?$basic_string@DU?$char_traits@D@std@@V?$allocator@D@2@@std@@QEAAAEADXZ ENDP ; std::basic_string<char,std::char_traits<char>,std::allocator<char> >::front
_TEXT	ENDS
; Function compile flags: /Odtp /RTCsu /ZI
; File C:\Program Files (x86)\Microsoft Visual Studio\2019\Enterprise\VC\Tools\MSVC\14.27.29110\include\xstring
;	COMDAT ?push_back@?$basic_string@DU?$char_traits@D@std@@V?$allocator@D@2@@std@@QEAAXD@Z
_TEXT	SEGMENT
_Old_size$ = 8
_Ptr$1 = 40
$T2 = 260
$T3 = 292
this$ = 352
_Ch$ = 360
?push_back@?$basic_string@DU?$char_traits@D@std@@V?$allocator@D@2@@std@@QEAAXD@Z PROC ; std::basic_string<char,std::char_traits<char>,std::allocator<char> >::push_back, COMDAT

; 3607 :     void push_back(const _Elem _Ch) { // insert element at end

$LN4:
  00000	88 54 24 10	 mov	 BYTE PTR [rsp+16], dl
  00004	48 89 4c 24 08	 mov	 QWORD PTR [rsp+8], rcx
  00009	55		 push	 rbp
  0000a	57		 push	 rdi
  0000b	48 81 ec 68 01
	00 00		 sub	 rsp, 360		; 00000168H
  00012	48 8d 6c 24 20	 lea	 rbp, QWORD PTR [rsp+32]
  00017	48 8b fc	 mov	 rdi, rsp
  0001a	b9 5a 00 00 00	 mov	 ecx, 90			; 0000005aH
  0001f	b8 cc cc cc cc	 mov	 eax, -858993460		; ccccccccH
  00024	f3 ab		 rep stosd
  00026	48 8b 8c 24 88
	01 00 00	 mov	 rcx, QWORD PTR [rsp+392]
  0002e	48 8d 0d 00 00
	00 00		 lea	 rcx, OFFSET FLAT:__784AF7A2_xstring
  00035	e8 00 00 00 00	 call	 __CheckForDebuggerJustMyCode

; 3608 :         const size_type _Old_size = _Mypair._Myval2._Mysize;

  0003a	48 8b 85 60 01
	00 00		 mov	 rax, QWORD PTR this$[rbp]
  00041	48 8b 40 18	 mov	 rax, QWORD PTR [rax+24]
  00045	48 89 45 08	 mov	 QWORD PTR _Old_size$[rbp], rax

; 3609 :         if (_Old_size < _Mypair._Myval2._Myres) {

  00049	48 8b 85 60 01
	00 00		 mov	 rax, QWORD PTR this$[rbp]
  00050	48 8b 40 20	 mov	 rax, QWORD PTR [rax+32]
  00054	48 39 45 08	 cmp	 QWORD PTR _Old_size$[rbp], rax
  00058	73 67		 jae	 SHORT $LN2@push_back

; 3610 :             _Mypair._Myval2._Mysize = _Old_size + 1;

  0005a	48 8b 45 08	 mov	 rax, QWORD PTR _Old_size$[rbp]
  0005e	48 ff c0	 inc	 rax
  00061	48 8b 8d 60 01
	00 00		 mov	 rcx, QWORD PTR this$[rbp]
  00068	48 89 41 18	 mov	 QWORD PTR [rcx+24], rax

; 3611 :             _Elem* const _Ptr       = _Mypair._Myval2._Myptr();

  0006c	48 8b 85 60 01
	00 00		 mov	 rax, QWORD PTR this$[rbp]
  00073	48 8b c8	 mov	 rcx, rax
  00076	e8 00 00 00 00	 call	 ?_Myptr@?$_String_val@U?$_Simple_types@D@std@@@std@@QEAAPEADXZ ; std::_String_val<std::_Simple_types<char> >::_Myptr
  0007b	48 89 45 28	 mov	 QWORD PTR _Ptr$1[rbp], rax

; 3612 :             _Traits::assign(_Ptr[_Old_size], _Ch);

  0007f	48 8b 45 08	 mov	 rax, QWORD PTR _Old_size$[rbp]
  00083	48 8b 4d 28	 mov	 rcx, QWORD PTR _Ptr$1[rbp]
  00087	48 03 c8	 add	 rcx, rax
  0008a	48 8b c1	 mov	 rax, rcx
  0008d	48 8d 95 68 01
	00 00		 lea	 rdx, QWORD PTR _Ch$[rbp]
  00094	48 8b c8	 mov	 rcx, rax
  00097	e8 00 00 00 00	 call	 ?assign@?$_Narrow_char_traits@DH@std@@SAXAEADAEBD@Z ; std::_Narrow_char_traits<char,int>::assign

; 3613 :             _Traits::assign(_Ptr[_Old_size + 1], _Elem());

  0009c	c6 85 04 01 00
	00 00		 mov	 BYTE PTR $T2[rbp], 0
  000a3	48 8b 45 28	 mov	 rax, QWORD PTR _Ptr$1[rbp]
  000a7	48 8b 4d 08	 mov	 rcx, QWORD PTR _Old_size$[rbp]
  000ab	48 8d 44 08 01	 lea	 rax, QWORD PTR [rax+rcx+1]
  000b0	48 8d 95 04 01
	00 00		 lea	 rdx, QWORD PTR $T2[rbp]
  000b7	48 8b c8	 mov	 rcx, rax
  000ba	e8 00 00 00 00	 call	 ?assign@?$_Narrow_char_traits@DH@std@@SAXAEADAEBD@Z ; std::_Narrow_char_traits<char,int>::assign

; 3614 :             return;

  000bf	eb 34		 jmp	 SHORT $LN1@push_back
$LN2@push_back:

; 3615 :         }
; 3616 : 
; 3617 :         _Reallocate_grow_by(

  000c1	48 8d 85 24 01
	00 00		 lea	 rax, QWORD PTR $T3[rbp]
  000c8	48 8b f8	 mov	 rdi, rax
  000cb	33 c0		 xor	 eax, eax
  000cd	b9 01 00 00 00	 mov	 ecx, 1
  000d2	f3 aa		 rep stosb
  000d4	44 0f b6 8d 68
	01 00 00	 movzx	 r9d, BYTE PTR _Ch$[rbp]
  000dc	44 0f b6 85 24
	01 00 00	 movzx	 r8d, BYTE PTR $T3[rbp]
  000e4	ba 01 00 00 00	 mov	 edx, 1
  000e9	48 8b 8d 60 01
	00 00		 mov	 rcx, QWORD PTR this$[rbp]
  000f0	e8 00 00 00 00	 call	 ??$_Reallocate_grow_by@V<lambda_319d5e083f45f90dcdce5dce53cbb275>@@D@?$basic_string@DU?$char_traits@D@std@@V?$allocator@D@2@@std@@AEAAAEAV01@_KV<lambda_319d5e083f45f90dcdce5dce53cbb275>@@D@Z ; std::basic_string<char,std::char_traits<char>,std::allocator<char> >::_Reallocate_grow_by<<lambda_319d5e083f45f90dcdce5dce53cbb275>,char>
$LN1@push_back:

; 3618 :             1,
; 3619 :             [](_Elem* const _New_ptr, const _Elem* const _Old_ptr, const size_type _Old_size, const _Elem _Ch) {
; 3620 :                 _Traits::copy(_New_ptr, _Old_ptr, _Old_size);
; 3621 :                 _Traits::assign(_New_ptr[_Old_size], _Ch);
; 3622 :                 _Traits::assign(_New_ptr[_Old_size + 1], _Elem());
; 3623 :             },
; 3624 :             _Ch);
; 3625 :     }

  000f5	48 8d a5 48 01
	00 00		 lea	 rsp, QWORD PTR [rbp+328]
  000fc	5f		 pop	 rdi
  000fd	5d		 pop	 rbp
  000fe	c3		 ret	 0
?push_back@?$basic_string@DU?$char_traits@D@std@@V?$allocator@D@2@@std@@QEAAXD@Z ENDP ; std::basic_string<char,std::char_traits<char>,std::allocator<char> >::push_back
_TEXT	ENDS
; Function compile flags: /Odtp /RTCsu /ZI
; File C:\Program Files (x86)\Microsoft Visual Studio\2019\Enterprise\VC\Tools\MSVC\14.27.29110\include\xstring
;	COMDAT ?erase@?$basic_string@DU?$char_traits@D@std@@V?$allocator@D@2@@std@@QEAAAEAV12@_K_K@Z
_TEXT	SEGMENT
_Old_size$ = 8
_My_ptr$ = 40
_Erase_at$ = 72
_New_size$ = 104
this$ = 352
_Off$ = 360
_Count$ = 368
?erase@?$basic_string@DU?$char_traits@D@std@@V?$allocator@D@2@@std@@QEAAAEAV12@_K_K@Z PROC ; std::basic_string<char,std::char_traits<char>,std::allocator<char> >::erase, COMDAT

; 3215 :     basic_string& erase(const size_type _Off, size_type _Count) { // erase elements [_Off, _Off + _Count)

$LN3:
  00000	4c 89 44 24 18	 mov	 QWORD PTR [rsp+24], r8
  00005	48 89 54 24 10	 mov	 QWORD PTR [rsp+16], rdx
  0000a	48 89 4c 24 08	 mov	 QWORD PTR [rsp+8], rcx
  0000f	55		 push	 rbp
  00010	57		 push	 rdi
  00011	48 81 ec 68 01
	00 00		 sub	 rsp, 360		; 00000168H
  00018	48 8d 6c 24 20	 lea	 rbp, QWORD PTR [rsp+32]
  0001d	48 8b fc	 mov	 rdi, rsp
  00020	b9 5a 00 00 00	 mov	 ecx, 90			; 0000005aH
  00025	b8 cc cc cc cc	 mov	 eax, -858993460		; ccccccccH
  0002a	f3 ab		 rep stosd
  0002c	48 8b 8c 24 88
	01 00 00	 mov	 rcx, QWORD PTR [rsp+392]
  00034	48 8d 0d 00 00
	00 00		 lea	 rcx, OFFSET FLAT:__784AF7A2_xstring
  0003b	e8 00 00 00 00	 call	 __CheckForDebuggerJustMyCode

; 3216 :         _Mypair._Myval2._Check_offset(_Off);

  00040	48 8b 85 60 01
	00 00		 mov	 rax, QWORD PTR this$[rbp]
  00047	48 8b 95 68 01
	00 00		 mov	 rdx, QWORD PTR _Off$[rbp]
  0004e	48 8b c8	 mov	 rcx, rax
  00051	e8 00 00 00 00	 call	 ?_Check_offset@?$_String_val@U?$_Simple_types@D@std@@@std@@QEBAX_K@Z ; std::_String_val<std::_Simple_types<char> >::_Check_offset

; 3217 :         _Count                    = _Mypair._Myval2._Clamp_suffix_size(_Off, _Count);

  00056	48 8b 85 60 01
	00 00		 mov	 rax, QWORD PTR this$[rbp]
  0005d	4c 8b 85 70 01
	00 00		 mov	 r8, QWORD PTR _Count$[rbp]
  00064	48 8b 95 68 01
	00 00		 mov	 rdx, QWORD PTR _Off$[rbp]
  0006b	48 8b c8	 mov	 rcx, rax
  0006e	e8 00 00 00 00	 call	 ?_Clamp_suffix_size@?$_String_val@U?$_Simple_types@D@std@@@std@@QEBA_K_K0@Z ; std::_String_val<std::_Simple_types<char> >::_Clamp_suffix_size
  00073	48 89 85 70 01
	00 00		 mov	 QWORD PTR _Count$[rbp], rax

; 3218 :         const size_type _Old_size = _Mypair._Myval2._Mysize;

  0007a	48 8b 85 60 01
	00 00		 mov	 rax, QWORD PTR this$[rbp]
  00081	48 8b 40 18	 mov	 rax, QWORD PTR [rax+24]
  00085	48 89 45 08	 mov	 QWORD PTR _Old_size$[rbp], rax

; 3219 :         _Elem* const _My_ptr      = _Mypair._Myval2._Myptr();

  00089	48 8b 85 60 01
	00 00		 mov	 rax, QWORD PTR this$[rbp]
  00090	48 8b c8	 mov	 rcx, rax
  00093	e8 00 00 00 00	 call	 ?_Myptr@?$_String_val@U?$_Simple_types@D@std@@@std@@QEAAPEADXZ ; std::_String_val<std::_Simple_types<char> >::_Myptr
  00098	48 89 45 28	 mov	 QWORD PTR _My_ptr$[rbp], rax

; 3220 :         _Elem* const _Erase_at    = _My_ptr + _Off;

  0009c	48 8b 85 68 01
	00 00		 mov	 rax, QWORD PTR _Off$[rbp]
  000a3	48 8b 4d 28	 mov	 rcx, QWORD PTR _My_ptr$[rbp]
  000a7	48 03 c8	 add	 rcx, rax
  000aa	48 8b c1	 mov	 rax, rcx
  000ad	48 89 45 48	 mov	 QWORD PTR _Erase_at$[rbp], rax

; 3221 :         const size_type _New_size = _Old_size - _Count;

  000b1	48 8b 85 70 01
	00 00		 mov	 rax, QWORD PTR _Count$[rbp]
  000b8	48 8b 4d 08	 mov	 rcx, QWORD PTR _Old_size$[rbp]
  000bc	48 2b c8	 sub	 rcx, rax
  000bf	48 8b c1	 mov	 rax, rcx
  000c2	48 89 45 68	 mov	 QWORD PTR _New_size$[rbp], rax

; 3222 :         _Mypair._Myval2._Mysize   = _New_size;

  000c6	48 8b 85 60 01
	00 00		 mov	 rax, QWORD PTR this$[rbp]
  000cd	48 8b 4d 68	 mov	 rcx, QWORD PTR _New_size$[rbp]
  000d1	48 89 48 18	 mov	 QWORD PTR [rax+24], rcx

; 3223 :         _Traits::move(_Erase_at, _Erase_at + _Count, _New_size - _Off + 1); // move suffix + null up

  000d5	48 8b 85 68 01
	00 00		 mov	 rax, QWORD PTR _Off$[rbp]
  000dc	48 8b 4d 68	 mov	 rcx, QWORD PTR _New_size$[rbp]
  000e0	48 2b c8	 sub	 rcx, rax
  000e3	48 8b c1	 mov	 rax, rcx
  000e6	48 ff c0	 inc	 rax
  000e9	48 8b 8d 70 01
	00 00		 mov	 rcx, QWORD PTR _Count$[rbp]
  000f0	48 8b 55 48	 mov	 rdx, QWORD PTR _Erase_at$[rbp]
  000f4	48 03 d1	 add	 rdx, rcx
  000f7	48 8b ca	 mov	 rcx, rdx
  000fa	4c 8b c0	 mov	 r8, rax
  000fd	48 8b d1	 mov	 rdx, rcx
  00100	48 8b 4d 48	 mov	 rcx, QWORD PTR _Erase_at$[rbp]
  00104	e8 00 00 00 00	 call	 ?move@?$_Narrow_char_traits@DH@std@@SAPEADQEADQEBD_K@Z ; std::_Narrow_char_traits<char,int>::move

; 3224 :         return *this;

  00109	48 8b 85 60 01
	00 00		 mov	 rax, QWORD PTR this$[rbp]

; 3225 :     }

  00110	48 8d a5 48 01
	00 00		 lea	 rsp, QWORD PTR [rbp+328]
  00117	5f		 pop	 rdi
  00118	5d		 pop	 rbp
  00119	c3		 ret	 0
?erase@?$basic_string@DU?$char_traits@D@std@@V?$allocator@D@2@@std@@QEAAAEAV12@_K_K@Z ENDP ; std::basic_string<char,std::char_traits<char>,std::allocator<char> >::erase
_TEXT	ENDS
; Function compile flags: /Odtp /RTCsu /ZI
; File C:\Program Files (x86)\Microsoft Visual Studio\2019\Enterprise\VC\Tools\MSVC\14.27.29110\include\xstring
;	COMDAT ??1?$basic_string@DU?$char_traits@D@std@@V?$allocator@D@2@@std@@QEAA@XZ
_TEXT	SEGMENT
_Alproxy$ = 8
$S8$ = 36
_To_delete$ = 72
__$ArrayPad$ = 280
this$ = 320
??1?$basic_string@DU?$char_traits@D@std@@V?$allocator@D@2@@std@@QEAA@XZ PROC ; std::basic_string<char,std::char_traits<char>,std::allocator<char> >::~basic_string<char,std::char_traits<char>,std::allocator<char> >, COMDAT

; 2722 :     ~basic_string() noexcept {

$LN3:
  00000	48 89 4c 24 08	 mov	 QWORD PTR [rsp+8], rcx
  00005	55		 push	 rbp
  00006	57		 push	 rdi
  00007	48 81 ec 48 01
	00 00		 sub	 rsp, 328		; 00000148H
  0000e	48 8d 6c 24 20	 lea	 rbp, QWORD PTR [rsp+32]
  00013	48 8b fc	 mov	 rdi, rsp
  00016	b9 52 00 00 00	 mov	 ecx, 82			; 00000052H
  0001b	b8 cc cc cc cc	 mov	 eax, -858993460		; ccccccccH
  00020	f3 ab		 rep stosd
  00022	48 8b 8c 24 68
	01 00 00	 mov	 rcx, QWORD PTR [rsp+360]
  0002a	48 8b 05 00 00
	00 00		 mov	 rax, QWORD PTR __security_cookie
  00031	48 33 c5	 xor	 rax, rbp
  00034	48 89 85 18 01
	00 00		 mov	 QWORD PTR __$ArrayPad$[rbp], rax
  0003b	48 8d 0d 00 00
	00 00		 lea	 rcx, OFFSET FLAT:__784AF7A2_xstring
  00042	e8 00 00 00 00	 call	 __CheckForDebuggerJustMyCode

; 2723 :         _Tidy_deallocate();

  00047	48 8b 8d 40 01
	00 00		 mov	 rcx, QWORD PTR this$[rbp]
  0004e	e8 00 00 00 00	 call	 ?_Tidy_deallocate@?$basic_string@DU?$char_traits@D@std@@V?$allocator@D@2@@std@@AEAAXXZ ; std::basic_string<char,std::char_traits<char>,std::allocator<char> >::_Tidy_deallocate

; 2724 : #if _ITERATOR_DEBUG_LEVEL != 0
; 2725 :         auto&& _Alproxy          = _GET_PROXY_ALLOCATOR(_Alty, _Getal());

  00053	48 8b 8d 40 01
	00 00		 mov	 rcx, QWORD PTR this$[rbp]
  0005a	e8 00 00 00 00	 call	 ?_Getal@?$basic_string@DU?$char_traits@D@std@@V?$allocator@D@2@@std@@AEAAAEAV?$allocator@D@2@XZ ; std::basic_string<char,std::char_traits<char>,std::allocator<char> >::_Getal
  0005f	48 8b d0	 mov	 rdx, rax
  00062	48 8d 4d 24	 lea	 rcx, QWORD PTR $S8$[rbp]
  00066	e8 00 00 00 00	 call	 ??$?0D@?$allocator@U_Container_proxy@std@@@std@@QEAA@AEBV?$allocator@D@1@@Z ; std::allocator<std::_Container_proxy>::allocator<std::_Container_proxy><char>
  0006b	48 8d 45 24	 lea	 rax, QWORD PTR $S8$[rbp]
  0006f	48 89 45 08	 mov	 QWORD PTR _Alproxy$[rbp], rax

; 2726 :         const auto _To_delete    = _Mypair._Myval2._Myproxy;

  00073	48 8b 85 40 01
	00 00		 mov	 rax, QWORD PTR this$[rbp]
  0007a	48 8b 00	 mov	 rax, QWORD PTR [rax]
  0007d	48 89 45 48	 mov	 QWORD PTR _To_delete$[rbp], rax

; 2727 :         _Mypair._Myval2._Myproxy = nullptr;

  00081	48 8b 85 40 01
	00 00		 mov	 rax, QWORD PTR this$[rbp]
  00088	48 c7 00 00 00
	00 00		 mov	 QWORD PTR [rax], 0

; 2728 :         _Delete_plain_internal(_Alproxy, _To_delete);

  0008f	48 8b 55 48	 mov	 rdx, QWORD PTR _To_delete$[rbp]
  00093	48 8b 4d 08	 mov	 rcx, QWORD PTR _Alproxy$[rbp]
  00097	e8 00 00 00 00	 call	 ??$_Delete_plain_internal@V?$allocator@U_Container_proxy@std@@@std@@@std@@YAXAEAV?$allocator@U_Container_proxy@std@@@0@QEAU_Container_proxy@0@@Z ; std::_Delete_plain_internal<std::allocator<std::_Container_proxy> >

; 2729 : #endif // _ITERATOR_DEBUG_LEVEL != 0
; 2730 :     }

  0009c	48 8b 85 40 01
	00 00		 mov	 rax, QWORD PTR this$[rbp]
  000a3	48 8b c8	 mov	 rcx, rax
  000a6	e8 00 00 00 00	 call	 ??1?$_Compressed_pair@V?$allocator@D@std@@V?$_String_val@U?$_Simple_types@D@std@@@2@$00@std@@QEAA@XZ
  000ab	48 8d 4d e0	 lea	 rcx, QWORD PTR [rbp-32]
  000af	48 8d 15 00 00
	00 00		 lea	 rdx, OFFSET FLAT:??1?$basic_string@DU?$char_traits@D@std@@V?$allocator@D@2@@std@@QEAA@XZ$rtcFrameData
  000b6	e8 00 00 00 00	 call	 _RTC_CheckStackVars
  000bb	90		 npad	 1
  000bc	48 8b 8d 18 01
	00 00		 mov	 rcx, QWORD PTR __$ArrayPad$[rbp]
  000c3	48 33 cd	 xor	 rcx, rbp
  000c6	e8 00 00 00 00	 call	 __security_check_cookie
  000cb	48 8d a5 28 01
	00 00		 lea	 rsp, QWORD PTR [rbp+296]
  000d2	5f		 pop	 rdi
  000d3	5d		 pop	 rbp
  000d4	c3		 ret	 0
??1?$basic_string@DU?$char_traits@D@std@@V?$allocator@D@2@@std@@QEAA@XZ ENDP ; std::basic_string<char,std::char_traits<char>,std::allocator<char> >::~basic_string<char,std::char_traits<char>,std::allocator<char> >
_TEXT	ENDS
; Function compile flags: /Odtp /RTCsu /ZI
; File C:\Program Files (x86)\Microsoft Visual Studio\2019\Enterprise\VC\Tools\MSVC\14.27.29110\include\xstring
;	COMDAT ??0?$basic_string@DU?$char_traits@D@std@@V?$allocator@D@2@@std@@QEAA@XZ
_TEXT	SEGMENT
$T1 = 196
$T2 = 228
this$ = 288
??0?$basic_string@DU?$char_traits@D@std@@V?$allocator@D@2@@std@@QEAA@XZ PROC ; std::basic_string<char,std::char_traits<char>,std::allocator<char> >::basic_string<char,std::char_traits<char>,std::allocator<char> >, COMDAT

; 2287 :     basic_string() noexcept(is_nothrow_default_constructible_v<_Alty>) : _Mypair(_Zero_then_variadic_args_t{}) {

$LN3:
  00000	48 89 4c 24 08	 mov	 QWORD PTR [rsp+8], rcx
  00005	55		 push	 rbp
  00006	57		 push	 rdi
  00007	48 81 ec 28 01
	00 00		 sub	 rsp, 296		; 00000128H
  0000e	48 8d 6c 24 20	 lea	 rbp, QWORD PTR [rsp+32]
  00013	48 8b fc	 mov	 rdi, rsp
  00016	b9 4a 00 00 00	 mov	 ecx, 74			; 0000004aH
  0001b	b8 cc cc cc cc	 mov	 eax, -858993460		; ccccccccH
  00020	f3 ab		 rep stosd
  00022	48 8b 8c 24 48
	01 00 00	 mov	 rcx, QWORD PTR [rsp+328]
  0002a	48 8d 0d 00 00
	00 00		 lea	 rcx, OFFSET FLAT:__784AF7A2_xstring
  00031	e8 00 00 00 00	 call	 __CheckForDebuggerJustMyCode
  00036	48 8b 85 20 01
	00 00		 mov	 rax, QWORD PTR this$[rbp]
  0003d	0f b6 95 c4 00
	00 00		 movzx	 edx, BYTE PTR $T1[rbp]
  00044	48 8b c8	 mov	 rcx, rax
  00047	e8 00 00 00 00	 call	 ??$?0$$V@?$_Compressed_pair@V?$allocator@D@std@@V?$_String_val@U?$_Simple_types@D@std@@@2@$00@std@@QEAA@U_Zero_then_variadic_args_t@1@@Z ; std::_Compressed_pair<std::allocator<char>,std::_String_val<std::_Simple_types<char> >,1>::_Compressed_pair<std::allocator<char>,std::_String_val<std::_Simple_types<char> >,1><>

; 2288 :         _Mypair._Myval2._Alloc_proxy(_GET_PROXY_ALLOCATOR(_Alty, _Getal()));

  0004c	48 8b 8d 20 01
	00 00		 mov	 rcx, QWORD PTR this$[rbp]
  00053	e8 00 00 00 00	 call	 ?_Getal@?$basic_string@DU?$char_traits@D@std@@V?$allocator@D@2@@std@@AEAAAEAV?$allocator@D@2@XZ ; std::basic_string<char,std::char_traits<char>,std::allocator<char> >::_Getal
  00058	48 8b d0	 mov	 rdx, rax
  0005b	48 8d 8d e4 00
	00 00		 lea	 rcx, QWORD PTR $T2[rbp]
  00062	e8 00 00 00 00	 call	 ??$?0D@?$allocator@U_Container_proxy@std@@@std@@QEAA@AEBV?$allocator@D@1@@Z ; std::allocator<std::_Container_proxy>::allocator<std::_Container_proxy><char>
  00067	48 8b 8d 20 01
	00 00		 mov	 rcx, QWORD PTR this$[rbp]
  0006e	48 8b d0	 mov	 rdx, rax
  00071	e8 00 00 00 00	 call	 ??$_Alloc_proxy@V?$allocator@U_Container_proxy@std@@@std@@@_Container_base12@std@@QEAAX$$QEAV?$allocator@U_Container_proxy@std@@@1@@Z ; std::_Container_base12::_Alloc_proxy<std::allocator<std::_Container_proxy> >

; 2289 :         _Tidy_init();

  00076	48 8b 8d 20 01
	00 00		 mov	 rcx, QWORD PTR this$[rbp]
  0007d	e8 00 00 00 00	 call	 ?_Tidy_init@?$basic_string@DU?$char_traits@D@std@@V?$allocator@D@2@@std@@AEAAXXZ ; std::basic_string<char,std::char_traits<char>,std::allocator<char> >::_Tidy_init

; 2290 :     }

  00082	48 8b 85 20 01
	00 00		 mov	 rax, QWORD PTR this$[rbp]
  00089	48 8d a5 08 01
	00 00		 lea	 rsp, QWORD PTR [rbp+264]
  00090	5f		 pop	 rdi
  00091	5d		 pop	 rbp
  00092	c3		 ret	 0
??0?$basic_string@DU?$char_traits@D@std@@V?$allocator@D@2@@std@@QEAA@XZ ENDP ; std::basic_string<char,std::char_traits<char>,std::allocator<char> >::basic_string<char,std::char_traits<char>,std::allocator<char> >
_TEXT	ENDS
; Function compile flags: /Odtp /RTCsu /ZI
;	COMDAT ??1?$_String_val@U?$_Simple_types@D@std@@@std@@QEAA@XZ
_TEXT	SEGMENT
this$ = 224
??1?$_String_val@U?$_Simple_types@D@std@@@std@@QEAA@XZ PROC ; std::_String_val<std::_Simple_types<char> >::~_String_val<std::_Simple_types<char> >, COMDAT
$LN3:
  00000	48 89 4c 24 08	 mov	 QWORD PTR [rsp+8], rcx
  00005	55		 push	 rbp
  00006	57		 push	 rdi
  00007	48 81 ec e8 00
	00 00		 sub	 rsp, 232		; 000000e8H
  0000e	48 8d 6c 24 20	 lea	 rbp, QWORD PTR [rsp+32]
  00013	48 8b fc	 mov	 rdi, rsp
  00016	b9 3a 00 00 00	 mov	 ecx, 58			; 0000003aH
  0001b	b8 cc cc cc cc	 mov	 eax, -858993460		; ccccccccH
  00020	f3 ab		 rep stosd
  00022	48 8b 8c 24 08
	01 00 00	 mov	 rcx, QWORD PTR [rsp+264]
  0002a	48 8b 85 e0 00
	00 00		 mov	 rax, QWORD PTR this$[rbp]
  00031	48 83 c0 08	 add	 rax, 8
  00035	48 8b c8	 mov	 rcx, rax
  00038	e8 00 00 00 00	 call	 ??1_Bxty@?$_String_val@U?$_Simple_types@D@std@@@std@@QEAA@XZ ; std::_String_val<std::_Simple_types<char> >::_Bxty::~_Bxty
  0003d	48 8d a5 c8 00
	00 00		 lea	 rsp, QWORD PTR [rbp+200]
  00044	5f		 pop	 rdi
  00045	5d		 pop	 rbp
  00046	c3		 ret	 0
??1?$_String_val@U?$_Simple_types@D@std@@@std@@QEAA@XZ ENDP ; std::_String_val<std::_Simple_types<char> >::~_String_val<std::_Simple_types<char> >
_TEXT	ENDS
; Function compile flags: /Odtp /RTCsu /ZI
; File C:\Program Files (x86)\Microsoft Visual Studio\2019\Enterprise\VC\Tools\MSVC\14.27.29110\include\xstring
;	COMDAT ??1_Bxty@?$_String_val@U?$_Simple_types@D@std@@@std@@QEAA@XZ
_TEXT	SEGMENT
this$ = 224
??1_Bxty@?$_String_val@U?$_Simple_types@D@std@@@std@@QEAA@XZ PROC ; std::_String_val<std::_Simple_types<char> >::_Bxty::~_Bxty, COMDAT

; 2180 :         ~_Bxty() noexcept {} // user-provided, for fancy pointers

$LN3:
  00000	48 89 4c 24 08	 mov	 QWORD PTR [rsp+8], rcx
  00005	55		 push	 rbp
  00006	57		 push	 rdi
  00007	48 81 ec e8 00
	00 00		 sub	 rsp, 232		; 000000e8H
  0000e	48 8d 6c 24 20	 lea	 rbp, QWORD PTR [rsp+32]
  00013	48 8b fc	 mov	 rdi, rsp
  00016	b9 3a 00 00 00	 mov	 ecx, 58			; 0000003aH
  0001b	b8 cc cc cc cc	 mov	 eax, -858993460		; ccccccccH
  00020	f3 ab		 rep stosd
  00022	48 8b 8c 24 08
	01 00 00	 mov	 rcx, QWORD PTR [rsp+264]
  0002a	48 8d 0d 00 00
	00 00		 lea	 rcx, OFFSET FLAT:__784AF7A2_xstring
  00031	e8 00 00 00 00	 call	 __CheckForDebuggerJustMyCode
  00036	90		 npad	 1
  00037	48 8d a5 c8 00
	00 00		 lea	 rsp, QWORD PTR [rbp+200]
  0003e	5f		 pop	 rdi
  0003f	5d		 pop	 rbp
  00040	c3		 ret	 0
??1_Bxty@?$_String_val@U?$_Simple_types@D@std@@@std@@QEAA@XZ ENDP ; std::_String_val<std::_Simple_types<char> >::_Bxty::~_Bxty
_TEXT	ENDS
; Function compile flags: /Odtp /RTCsu /ZI
; File C:\Program Files (x86)\Microsoft Visual Studio\2019\Enterprise\VC\Tools\MSVC\14.27.29110\include\xstring
;	COMDAT ??0_Bxty@?$_String_val@U?$_Simple_types@D@std@@@std@@QEAA@XZ
_TEXT	SEGMENT
this$ = 224
??0_Bxty@?$_String_val@U?$_Simple_types@D@std@@@std@@QEAA@XZ PROC ; std::_String_val<std::_Simple_types<char> >::_Bxty::_Bxty, COMDAT

; 2178 :         _Bxty() {} // user-provided, for fancy pointers

$LN3:
  00000	48 89 4c 24 08	 mov	 QWORD PTR [rsp+8], rcx
  00005	55		 push	 rbp
  00006	57		 push	 rdi
  00007	48 81 ec e8 00
	00 00		 sub	 rsp, 232		; 000000e8H
  0000e	48 8d 6c 24 20	 lea	 rbp, QWORD PTR [rsp+32]
  00013	48 8b fc	 mov	 rdi, rsp
  00016	b9 3a 00 00 00	 mov	 ecx, 58			; 0000003aH
  0001b	b8 cc cc cc cc	 mov	 eax, -858993460		; ccccccccH
  00020	f3 ab		 rep stosd
  00022	48 8b 8c 24 08
	01 00 00	 mov	 rcx, QWORD PTR [rsp+264]
  0002a	48 8d 0d 00 00
	00 00		 lea	 rcx, OFFSET FLAT:__784AF7A2_xstring
  00031	e8 00 00 00 00	 call	 __CheckForDebuggerJustMyCode
  00036	48 8b 85 e0 00
	00 00		 mov	 rax, QWORD PTR this$[rbp]
  0003d	48 8d a5 c8 00
	00 00		 lea	 rsp, QWORD PTR [rbp+200]
  00044	5f		 pop	 rdi
  00045	5d		 pop	 rbp
  00046	c3		 ret	 0
??0_Bxty@?$_String_val@U?$_Simple_types@D@std@@@std@@QEAA@XZ ENDP ; std::_String_val<std::_Simple_types<char> >::_Bxty::_Bxty
_TEXT	ENDS
; Function compile flags: /Odtp /RTCsu /ZI
; File C:\Program Files (x86)\Microsoft Visual Studio\2019\Enterprise\VC\Tools\MSVC\14.27.29110\include\xstring
;	COMDAT ?_Clamp_suffix_size@?$_String_val@U?$_Simple_types@D@std@@@std@@QEBA_K_K0@Z
_TEXT	SEGMENT
$T1 = 200
this$ = 256
_Off$ = 264
_Size$ = 272
?_Clamp_suffix_size@?$_String_val@U?$_Simple_types@D@std@@@std@@QEBA_K_K0@Z PROC ; std::_String_val<std::_Simple_types<char> >::_Clamp_suffix_size, COMDAT

; 2172 :     size_type _Clamp_suffix_size(const size_type _Off, const size_type _Size) const noexcept {

$LN3:
  00000	4c 89 44 24 18	 mov	 QWORD PTR [rsp+24], r8
  00005	48 89 54 24 10	 mov	 QWORD PTR [rsp+16], rdx
  0000a	48 89 4c 24 08	 mov	 QWORD PTR [rsp+8], rcx
  0000f	55		 push	 rbp
  00010	57		 push	 rdi
  00011	48 81 ec 08 01
	00 00		 sub	 rsp, 264		; 00000108H
  00018	48 8d 6c 24 20	 lea	 rbp, QWORD PTR [rsp+32]
  0001d	48 8b fc	 mov	 rdi, rsp
  00020	b9 42 00 00 00	 mov	 ecx, 66			; 00000042H
  00025	b8 cc cc cc cc	 mov	 eax, -858993460		; ccccccccH
  0002a	f3 ab		 rep stosd
  0002c	48 8b 8c 24 28
	01 00 00	 mov	 rcx, QWORD PTR [rsp+296]
  00034	48 8d 0d 00 00
	00 00		 lea	 rcx, OFFSET FLAT:__784AF7A2_xstring
  0003b	e8 00 00 00 00	 call	 __CheckForDebuggerJustMyCode

; 2173 :         // trims _Size to the longest it can be assuming a string at/after _Off
; 2174 :         return (_STD min)(_Size, _Mysize - _Off);

  00040	48 8b 85 00 01
	00 00		 mov	 rax, QWORD PTR this$[rbp]
  00047	48 8b 8d 08 01
	00 00		 mov	 rcx, QWORD PTR _Off$[rbp]
  0004e	48 8b 40 18	 mov	 rax, QWORD PTR [rax+24]
  00052	48 2b c1	 sub	 rax, rcx
  00055	48 89 85 c8 00
	00 00		 mov	 QWORD PTR $T1[rbp], rax
  0005c	48 8d 95 c8 00
	00 00		 lea	 rdx, QWORD PTR $T1[rbp]
  00063	48 8d 8d 10 01
	00 00		 lea	 rcx, QWORD PTR _Size$[rbp]
  0006a	e8 00 00 00 00	 call	 ??$min@_K@std@@YAAEB_KAEB_K0@Z ; std::min<unsigned __int64>
  0006f	48 8b 00	 mov	 rax, QWORD PTR [rax]

; 2175 :     }

  00072	48 8d a5 e8 00
	00 00		 lea	 rsp, QWORD PTR [rbp+232]
  00079	5f		 pop	 rdi
  0007a	5d		 pop	 rbp
  0007b	c3		 ret	 0
?_Clamp_suffix_size@?$_String_val@U?$_Simple_types@D@std@@@std@@QEBA_K_K0@Z ENDP ; std::_String_val<std::_Simple_types<char> >::_Clamp_suffix_size
_TEXT	ENDS
; Function compile flags: /Odtp /RTCsu /ZI
; File C:\Program Files (x86)\Microsoft Visual Studio\2019\Enterprise\VC\Tools\MSVC\14.27.29110\include\xstring
;	COMDAT ?_Xran@?$_String_val@U?$_Simple_types@D@std@@@std@@SAXXZ
_TEXT	SEGMENT
?_Xran@?$_String_val@U?$_Simple_types@D@std@@@std@@SAXXZ PROC ; std::_String_val<std::_Simple_types<char> >::_Xran, COMDAT

; 2168 :     [[noreturn]] static void _Xran() {

$LN3:
  00000	40 55		 push	 rbp
  00002	57		 push	 rdi
  00003	48 81 ec e8 00
	00 00		 sub	 rsp, 232		; 000000e8H
  0000a	48 8d 6c 24 20	 lea	 rbp, QWORD PTR [rsp+32]
  0000f	48 8b fc	 mov	 rdi, rsp
  00012	b9 3a 00 00 00	 mov	 ecx, 58			; 0000003aH
  00017	b8 cc cc cc cc	 mov	 eax, -858993460		; ccccccccH
  0001c	f3 ab		 rep stosd
  0001e	48 8d 0d 00 00
	00 00		 lea	 rcx, OFFSET FLAT:__784AF7A2_xstring
  00025	e8 00 00 00 00	 call	 __CheckForDebuggerJustMyCode

; 2169 :         _Xout_of_range("invalid string position");

  0002a	48 8d 0d 00 00
	00 00		 lea	 rcx, OFFSET FLAT:??_C@_0BI@CFPLBAOH@invalid?5string?5position@
  00031	e8 00 00 00 00	 call	 ?_Xout_of_range@std@@YAXPEBD@Z ; std::_Xout_of_range
$LN2@Xran:

; 2170 :     }

  00036	48 8d a5 c8 00
	00 00		 lea	 rsp, QWORD PTR [rbp+200]
  0003d	5f		 pop	 rdi
  0003e	5d		 pop	 rbp
  0003f	c3		 ret	 0
?_Xran@?$_String_val@U?$_Simple_types@D@std@@@std@@SAXXZ ENDP ; std::_String_val<std::_Simple_types<char> >::_Xran
_TEXT	ENDS
; Function compile flags: /Odtp /RTCsu /ZI
; File C:\Program Files (x86)\Microsoft Visual Studio\2019\Enterprise\VC\Tools\MSVC\14.27.29110\include\xstring
;	COMDAT ?_Check_offset@?$_String_val@U?$_Simple_types@D@std@@@std@@QEBAX_K@Z
_TEXT	SEGMENT
this$ = 224
_Off$ = 232
?_Check_offset@?$_String_val@U?$_Simple_types@D@std@@@std@@QEBAX_K@Z PROC ; std::_String_val<std::_Simple_types<char> >::_Check_offset, COMDAT

; 2156 :     void _Check_offset(const size_type _Off) const { // checks whether _Off is in the bounds of [0, size()]

$LN4:
  00000	48 89 54 24 10	 mov	 QWORD PTR [rsp+16], rdx
  00005	48 89 4c 24 08	 mov	 QWORD PTR [rsp+8], rcx
  0000a	55		 push	 rbp
  0000b	57		 push	 rdi
  0000c	48 81 ec e8 00
	00 00		 sub	 rsp, 232		; 000000e8H
  00013	48 8d 6c 24 20	 lea	 rbp, QWORD PTR [rsp+32]
  00018	48 8b fc	 mov	 rdi, rsp
  0001b	b9 3a 00 00 00	 mov	 ecx, 58			; 0000003aH
  00020	b8 cc cc cc cc	 mov	 eax, -858993460		; ccccccccH
  00025	f3 ab		 rep stosd
  00027	48 8b 8c 24 08
	01 00 00	 mov	 rcx, QWORD PTR [rsp+264]
  0002f	48 8d 0d 00 00
	00 00		 lea	 rcx, OFFSET FLAT:__784AF7A2_xstring
  00036	e8 00 00 00 00	 call	 __CheckForDebuggerJustMyCode

; 2157 :         if (_Mysize < _Off) {

  0003b	48 8b 85 e0 00
	00 00		 mov	 rax, QWORD PTR this$[rbp]
  00042	48 8b 8d e8 00
	00 00		 mov	 rcx, QWORD PTR _Off$[rbp]
  00049	48 39 48 18	 cmp	 QWORD PTR [rax+24], rcx
  0004d	73 05		 jae	 SHORT $LN2@Check_offs

; 2158 :             _Xran();

  0004f	e8 00 00 00 00	 call	 ?_Xran@?$_String_val@U?$_Simple_types@D@std@@@std@@SAXXZ ; std::_String_val<std::_Simple_types<char> >::_Xran
$LN2@Check_offs:
$LN3@Check_offs:

; 2159 :         }
; 2160 :     }

  00054	48 8d a5 c8 00
	00 00		 lea	 rsp, QWORD PTR [rbp+200]
  0005b	5f		 pop	 rdi
  0005c	5d		 pop	 rbp
  0005d	c3		 ret	 0
?_Check_offset@?$_String_val@U?$_Simple_types@D@std@@@std@@QEBAX_K@Z ENDP ; std::_String_val<std::_Simple_types<char> >::_Check_offset
_TEXT	ENDS
; Function compile flags: /Odtp /RTCsu /ZI
; File C:\Program Files (x86)\Microsoft Visual Studio\2019\Enterprise\VC\Tools\MSVC\14.27.29110\include\xstring
;	COMDAT ?_Large_string_engaged@?$_String_val@U?$_Simple_types@D@std@@@std@@QEBA_NXZ
_TEXT	SEGMENT
tv66 = 192
this$ = 240
?_Large_string_engaged@?$_String_val@U?$_Simple_types@D@std@@@std@@QEBA_NXZ PROC ; std::_String_val<std::_Simple_types<char> >::_Large_string_engaged, COMDAT

; 2152 :     bool _Large_string_engaged() const noexcept {

$LN5:
  00000	48 89 4c 24 08	 mov	 QWORD PTR [rsp+8], rcx
  00005	55		 push	 rbp
  00006	57		 push	 rdi
  00007	48 81 ec f8 00
	00 00		 sub	 rsp, 248		; 000000f8H
  0000e	48 8d 6c 24 20	 lea	 rbp, QWORD PTR [rsp+32]
  00013	48 8b fc	 mov	 rdi, rsp
  00016	b9 3e 00 00 00	 mov	 ecx, 62			; 0000003eH
  0001b	b8 cc cc cc cc	 mov	 eax, -858993460		; ccccccccH
  00020	f3 ab		 rep stosd
  00022	48 8b 8c 24 18
	01 00 00	 mov	 rcx, QWORD PTR [rsp+280]
  0002a	48 8d 0d 00 00
	00 00		 lea	 rcx, OFFSET FLAT:__784AF7A2_xstring
  00031	e8 00 00 00 00	 call	 __CheckForDebuggerJustMyCode

; 2153 :         return _BUF_SIZE <= _Myres;

  00036	48 8b 85 f0 00
	00 00		 mov	 rax, QWORD PTR this$[rbp]
  0003d	48 83 78 20 10	 cmp	 QWORD PTR [rax+32], 16
  00042	72 0c		 jb	 SHORT $LN3@Large_stri
  00044	c7 85 c0 00 00
	00 01 00 00 00	 mov	 DWORD PTR tv66[rbp], 1
  0004e	eb 0a		 jmp	 SHORT $LN4@Large_stri
$LN3@Large_stri:
  00050	c7 85 c0 00 00
	00 00 00 00 00	 mov	 DWORD PTR tv66[rbp], 0
$LN4@Large_stri:
  0005a	0f b6 85 c0 00
	00 00		 movzx	 eax, BYTE PTR tv66[rbp]

; 2154 :     }

  00061	48 8d a5 d8 00
	00 00		 lea	 rsp, QWORD PTR [rbp+216]
  00068	5f		 pop	 rdi
  00069	5d		 pop	 rbp
  0006a	c3		 ret	 0
?_Large_string_engaged@?$_String_val@U?$_Simple_types@D@std@@@std@@QEBA_NXZ ENDP ; std::_String_val<std::_Simple_types<char> >::_Large_string_engaged
_TEXT	ENDS
; Function compile flags: /Odtp /RTCsu /ZI
; File C:\Program Files (x86)\Microsoft Visual Studio\2019\Enterprise\VC\Tools\MSVC\14.27.29110\include\xstring
;	COMDAT ?_Myptr@?$_String_val@U?$_Simple_types@D@std@@@std@@QEBAPEBDXZ
_TEXT	SEGMENT
_Result$ = 8
this$ = 256
?_Myptr@?$_String_val@U?$_Simple_types@D@std@@@std@@QEBAPEBDXZ PROC ; std::_String_val<std::_Simple_types<char> >::_Myptr, COMDAT

; 2143 :     const value_type* _Myptr() const noexcept {

$LN4:
  00000	48 89 4c 24 08	 mov	 QWORD PTR [rsp+8], rcx
  00005	55		 push	 rbp
  00006	57		 push	 rdi
  00007	48 81 ec 08 01
	00 00		 sub	 rsp, 264		; 00000108H
  0000e	48 8d 6c 24 20	 lea	 rbp, QWORD PTR [rsp+32]
  00013	48 8b fc	 mov	 rdi, rsp
  00016	b9 42 00 00 00	 mov	 ecx, 66			; 00000042H
  0001b	b8 cc cc cc cc	 mov	 eax, -858993460		; ccccccccH
  00020	f3 ab		 rep stosd
  00022	48 8b 8c 24 28
	01 00 00	 mov	 rcx, QWORD PTR [rsp+296]
  0002a	48 8d 0d 00 00
	00 00		 lea	 rcx, OFFSET FLAT:__784AF7A2_xstring
  00031	e8 00 00 00 00	 call	 __CheckForDebuggerJustMyCode

; 2144 :         const value_type* _Result = _Bx._Buf;

  00036	48 8b 85 00 01
	00 00		 mov	 rax, QWORD PTR this$[rbp]
  0003d	48 83 c0 08	 add	 rax, 8
  00041	48 89 45 08	 mov	 QWORD PTR _Result$[rbp], rax

; 2145 :         if (_Large_string_engaged()) {

  00045	48 8b 8d 00 01
	00 00		 mov	 rcx, QWORD PTR this$[rbp]
  0004c	e8 00 00 00 00	 call	 ?_Large_string_engaged@?$_String_val@U?$_Simple_types@D@std@@@std@@QEBA_NXZ ; std::_String_val<std::_Simple_types<char> >::_Large_string_engaged
  00051	0f b6 c0	 movzx	 eax, al
  00054	85 c0		 test	 eax, eax
  00056	74 14		 je	 SHORT $LN2@Myptr

; 2146 :             _Result = _Unfancy(_Bx._Ptr);

  00058	48 8b 85 00 01
	00 00		 mov	 rax, QWORD PTR this$[rbp]
  0005f	48 8b 48 08	 mov	 rcx, QWORD PTR [rax+8]
  00063	e8 00 00 00 00	 call	 ??$_Unfancy@D@std@@YAPEADPEAD@Z ; std::_Unfancy<char>
  00068	48 89 45 08	 mov	 QWORD PTR _Result$[rbp], rax
$LN2@Myptr:

; 2147 :         }
; 2148 : 
; 2149 :         return _Result;

  0006c	48 8b 45 08	 mov	 rax, QWORD PTR _Result$[rbp]

; 2150 :     }

  00070	48 8d a5 e8 00
	00 00		 lea	 rsp, QWORD PTR [rbp+232]
  00077	5f		 pop	 rdi
  00078	5d		 pop	 rbp
  00079	c3		 ret	 0
?_Myptr@?$_String_val@U?$_Simple_types@D@std@@@std@@QEBAPEBDXZ ENDP ; std::_String_val<std::_Simple_types<char> >::_Myptr
_TEXT	ENDS
; Function compile flags: /Odtp /RTCsu /ZI
; File C:\Program Files (x86)\Microsoft Visual Studio\2019\Enterprise\VC\Tools\MSVC\14.27.29110\include\xstring
;	COMDAT ?_Myptr@?$_String_val@U?$_Simple_types@D@std@@@std@@QEAAPEADXZ
_TEXT	SEGMENT
_Result$ = 8
this$ = 256
?_Myptr@?$_String_val@U?$_Simple_types@D@std@@@std@@QEAAPEADXZ PROC ; std::_String_val<std::_Simple_types<char> >::_Myptr, COMDAT

; 2134 :     value_type* _Myptr() noexcept {

$LN4:
  00000	48 89 4c 24 08	 mov	 QWORD PTR [rsp+8], rcx
  00005	55		 push	 rbp
  00006	57		 push	 rdi
  00007	48 81 ec 08 01
	00 00		 sub	 rsp, 264		; 00000108H
  0000e	48 8d 6c 24 20	 lea	 rbp, QWORD PTR [rsp+32]
  00013	48 8b fc	 mov	 rdi, rsp
  00016	b9 42 00 00 00	 mov	 ecx, 66			; 00000042H
  0001b	b8 cc cc cc cc	 mov	 eax, -858993460		; ccccccccH
  00020	f3 ab		 rep stosd
  00022	48 8b 8c 24 28
	01 00 00	 mov	 rcx, QWORD PTR [rsp+296]
  0002a	48 8d 0d 00 00
	00 00		 lea	 rcx, OFFSET FLAT:__784AF7A2_xstring
  00031	e8 00 00 00 00	 call	 __CheckForDebuggerJustMyCode

; 2135 :         value_type* _Result = _Bx._Buf;

  00036	48 8b 85 00 01
	00 00		 mov	 rax, QWORD PTR this$[rbp]
  0003d	48 83 c0 08	 add	 rax, 8
  00041	48 89 45 08	 mov	 QWORD PTR _Result$[rbp], rax

; 2136 :         if (_Large_string_engaged()) {

  00045	48 8b 8d 00 01
	00 00		 mov	 rcx, QWORD PTR this$[rbp]
  0004c	e8 00 00 00 00	 call	 ?_Large_string_engaged@?$_String_val@U?$_Simple_types@D@std@@@std@@QEBA_NXZ ; std::_String_val<std::_Simple_types<char> >::_Large_string_engaged
  00051	0f b6 c0	 movzx	 eax, al
  00054	85 c0		 test	 eax, eax
  00056	74 14		 je	 SHORT $LN2@Myptr

; 2137 :             _Result = _Unfancy(_Bx._Ptr);

  00058	48 8b 85 00 01
	00 00		 mov	 rax, QWORD PTR this$[rbp]
  0005f	48 8b 48 08	 mov	 rcx, QWORD PTR [rax+8]
  00063	e8 00 00 00 00	 call	 ??$_Unfancy@D@std@@YAPEADPEAD@Z ; std::_Unfancy<char>
  00068	48 89 45 08	 mov	 QWORD PTR _Result$[rbp], rax
$LN2@Myptr:

; 2138 :         }
; 2139 : 
; 2140 :         return _Result;

  0006c	48 8b 45 08	 mov	 rax, QWORD PTR _Result$[rbp]

; 2141 :     }

  00070	48 8d a5 e8 00
	00 00		 lea	 rsp, QWORD PTR [rbp+232]
  00077	5f		 pop	 rdi
  00078	5d		 pop	 rbp
  00079	c3		 ret	 0
?_Myptr@?$_String_val@U?$_Simple_types@D@std@@@std@@QEAAPEADXZ ENDP ; std::_String_val<std::_Simple_types<char> >::_Myptr
_TEXT	ENDS
; Function compile flags: /Odtp /RTCsu /ZI
; File C:\Program Files (x86)\Microsoft Visual Studio\2019\Enterprise\VC\Tools\MSVC\14.27.29110\include\xstring
;	COMDAT ??0?$_String_val@U?$_Simple_types@D@std@@@std@@QEAA@XZ
_TEXT	SEGMENT
this$ = 224
??0?$_String_val@U?$_Simple_types@D@std@@@std@@QEAA@XZ PROC ; std::_String_val<std::_Simple_types<char> >::_String_val<std::_Simple_types<char> >, COMDAT

; 2124 :     _String_val() : _Bx(), _Mysize(0), _Myres(0) {}

$LN4:
  00000	48 89 4c 24 08	 mov	 QWORD PTR [rsp+8], rcx
  00005	55		 push	 rbp
  00006	57		 push	 rdi
  00007	48 81 ec e8 00
	00 00		 sub	 rsp, 232		; 000000e8H
  0000e	48 8d 6c 24 20	 lea	 rbp, QWORD PTR [rsp+32]
  00013	48 8b fc	 mov	 rdi, rsp
  00016	b9 3a 00 00 00	 mov	 ecx, 58			; 0000003aH
  0001b	b8 cc cc cc cc	 mov	 eax, -858993460		; ccccccccH
  00020	f3 ab		 rep stosd
  00022	48 8b 8c 24 08
	01 00 00	 mov	 rcx, QWORD PTR [rsp+264]
  0002a	48 8d 0d 00 00
	00 00		 lea	 rcx, OFFSET FLAT:__784AF7A2_xstring
  00031	e8 00 00 00 00	 call	 __CheckForDebuggerJustMyCode
  00036	48 8b 8d e0 00
	00 00		 mov	 rcx, QWORD PTR this$[rbp]
  0003d	e8 00 00 00 00	 call	 ??0_Container_base12@std@@QEAA@XZ ; std::_Container_base12::_Container_base12
  00042	48 8b 85 e0 00
	00 00		 mov	 rax, QWORD PTR this$[rbp]
  00049	48 83 c0 08	 add	 rax, 8
  0004d	48 8b c8	 mov	 rcx, rax
  00050	e8 00 00 00 00	 call	 ??0_Bxty@?$_String_val@U?$_Simple_types@D@std@@@std@@QEAA@XZ ; std::_String_val<std::_Simple_types<char> >::_Bxty::_Bxty
  00055	48 8b 85 e0 00
	00 00		 mov	 rax, QWORD PTR this$[rbp]
  0005c	48 c7 40 18 00
	00 00 00	 mov	 QWORD PTR [rax+24], 0
  00064	48 8b 85 e0 00
	00 00		 mov	 rax, QWORD PTR this$[rbp]
  0006b	48 c7 40 20 00
	00 00 00	 mov	 QWORD PTR [rax+32], 0
  00073	48 8b 85 e0 00
	00 00		 mov	 rax, QWORD PTR this$[rbp]
  0007a	48 8d a5 c8 00
	00 00		 lea	 rsp, QWORD PTR [rbp+200]
  00081	5f		 pop	 rdi
  00082	5d		 pop	 rbp
  00083	c3		 ret	 0
??0?$_String_val@U?$_Simple_types@D@std@@@std@@QEAA@XZ ENDP ; std::_String_val<std::_Simple_types<char> >::_String_val<std::_Simple_types<char> >
_TEXT	ENDS
; Function compile flags: /Odtp /RTCsu /ZI
; File C:\Program Files (x86)\Microsoft Visual Studio\2019\Enterprise\VC\Tools\MSVC\14.27.29110\include\xmemory
;	COMDAT ?max_size@?$_Default_allocator_traits@V?$allocator@D@std@@@std@@SA_KAEBV?$allocator@D@2@@Z
_TEXT	SEGMENT
__formal$ = 224
?max_size@?$_Default_allocator_traits@V?$allocator@D@std@@@std@@SA_KAEBV?$allocator@D@2@@Z PROC ; std::_Default_allocator_traits<std::allocator<char> >::max_size, COMDAT

; 702  :     _NODISCARD static size_type max_size(const _Alloc&) noexcept {

$LN3:
  00000	48 89 4c 24 08	 mov	 QWORD PTR [rsp+8], rcx
  00005	55		 push	 rbp
  00006	57		 push	 rdi
  00007	48 81 ec e8 00
	00 00		 sub	 rsp, 232		; 000000e8H
  0000e	48 8d 6c 24 20	 lea	 rbp, QWORD PTR [rsp+32]
  00013	48 8b fc	 mov	 rdi, rsp
  00016	b9 3a 00 00 00	 mov	 ecx, 58			; 0000003aH
  0001b	b8 cc cc cc cc	 mov	 eax, -858993460		; ccccccccH
  00020	f3 ab		 rep stosd
  00022	48 8b 8c 24 08
	01 00 00	 mov	 rcx, QWORD PTR [rsp+264]
  0002a	48 8d 0d 00 00
	00 00		 lea	 rcx, OFFSET FLAT:__0C99713E_xmemory
  00031	e8 00 00 00 00	 call	 __CheckForDebuggerJustMyCode

; 703  :         return static_cast<size_t>(-1) / sizeof(value_type);

  00036	48 c7 c0 ff ff
	ff ff		 mov	 rax, -1

; 704  :     }

  0003d	48 8d a5 c8 00
	00 00		 lea	 rsp, QWORD PTR [rbp+200]
  00044	5f		 pop	 rdi
  00045	5d		 pop	 rbp
  00046	c3		 ret	 0
?max_size@?$_Default_allocator_traits@V?$allocator@D@std@@@std@@SA_KAEBV?$allocator@D@2@@Z ENDP ; std::_Default_allocator_traits<std::allocator<char> >::max_size
_TEXT	ENDS
; Function compile flags: /Odtp /RTCsu /ZI
; File C:\Program Files (x86)\Microsoft Visual Studio\2019\Enterprise\VC\Tools\MSVC\14.27.29110\include\xmemory
;	COMDAT ?allocate@?$allocator@D@std@@QEAAPEAD_K@Z
_TEXT	SEGMENT
this$ = 224
_Count$ = 232
?allocate@?$allocator@D@std@@QEAAPEAD_K@Z PROC		; std::allocator<char>::allocate, COMDAT

; 806  :     _NODISCARD __declspec(allocator) _Ty* allocate(_CRT_GUARDOVERFLOW const size_t _Count) {

$LN3:
  00000	48 89 54 24 10	 mov	 QWORD PTR [rsp+16], rdx
  00005	48 89 4c 24 08	 mov	 QWORD PTR [rsp+8], rcx
  0000a	55		 push	 rbp
  0000b	57		 push	 rdi
  0000c	48 81 ec e8 00
	00 00		 sub	 rsp, 232		; 000000e8H
  00013	48 8d 6c 24 20	 lea	 rbp, QWORD PTR [rsp+32]
  00018	48 8b fc	 mov	 rdi, rsp
  0001b	b9 3a 00 00 00	 mov	 ecx, 58			; 0000003aH
  00020	b8 cc cc cc cc	 mov	 eax, -858993460		; ccccccccH
  00025	f3 ab		 rep stosd
  00027	48 8b 8c 24 08
	01 00 00	 mov	 rcx, QWORD PTR [rsp+264]
  0002f	48 8d 0d 00 00
	00 00		 lea	 rcx, OFFSET FLAT:__0C99713E_xmemory
  00036	e8 00 00 00 00	 call	 __CheckForDebuggerJustMyCode

; 807  :         return static_cast<_Ty*>(_Allocate<_New_alignof<_Ty>>(_Get_size_of_n<sizeof(_Ty)>(_Count)));

  0003b	48 8b 8d e8 00
	00 00		 mov	 rcx, QWORD PTR _Count$[rbp]
  00042	e8 00 00 00 00	 call	 ??$_Get_size_of_n@$00@std@@YA_K_K@Z ; std::_Get_size_of_n<1>
  00047	48 8b c8	 mov	 rcx, rax
  0004a	e8 00 00 00 00	 call	 ??$_Allocate@$0BA@U_Default_allocate_traits@std@@$0A@@std@@YAPEAX_K@Z ; std::_Allocate<16,std::_Default_allocate_traits,0>

; 808  :     }

  0004f	48 8d a5 c8 00
	00 00		 lea	 rsp, QWORD PTR [rbp+200]
  00056	5f		 pop	 rdi
  00057	5d		 pop	 rbp
  00058	c3		 ret	 0
?allocate@?$allocator@D@std@@QEAAPEAD_K@Z ENDP		; std::allocator<char>::allocate
_TEXT	ENDS
; Function compile flags: /Odtp /RTCsu /ZI
; File C:\Program Files (x86)\Microsoft Visual Studio\2019\Enterprise\VC\Tools\MSVC\14.27.29110\include\xmemory
;	COMDAT ?deallocate@?$allocator@D@std@@QEAAXQEAD_K@Z
_TEXT	SEGMENT
this$ = 224
_Ptr$ = 232
_Count$ = 240
?deallocate@?$allocator@D@std@@QEAAXQEAD_K@Z PROC	; std::allocator<char>::deallocate, COMDAT

; 801  :     void deallocate(_Ty* const _Ptr, const size_t _Count) {

$LN3:
  00000	4c 89 44 24 18	 mov	 QWORD PTR [rsp+24], r8
  00005	48 89 54 24 10	 mov	 QWORD PTR [rsp+16], rdx
  0000a	48 89 4c 24 08	 mov	 QWORD PTR [rsp+8], rcx
  0000f	55		 push	 rbp
  00010	57		 push	 rdi
  00011	48 81 ec e8 00
	00 00		 sub	 rsp, 232		; 000000e8H
  00018	48 8d 6c 24 20	 lea	 rbp, QWORD PTR [rsp+32]
  0001d	48 8b fc	 mov	 rdi, rsp
  00020	b9 3a 00 00 00	 mov	 ecx, 58			; 0000003aH
  00025	b8 cc cc cc cc	 mov	 eax, -858993460		; ccccccccH
  0002a	f3 ab		 rep stosd
  0002c	48 8b 8c 24 08
	01 00 00	 mov	 rcx, QWORD PTR [rsp+264]
  00034	48 8d 0d 00 00
	00 00		 lea	 rcx, OFFSET FLAT:__0C99713E_xmemory
  0003b	e8 00 00 00 00	 call	 __CheckForDebuggerJustMyCode

; 802  :         // no overflow check on the following multiply; we assume _Allocate did that check
; 803  :         _Deallocate<_New_alignof<_Ty>>(_Ptr, sizeof(_Ty) * _Count);

  00040	48 8b 95 f0 00
	00 00		 mov	 rdx, QWORD PTR _Count$[rbp]
  00047	48 8b 8d e8 00
	00 00		 mov	 rcx, QWORD PTR _Ptr$[rbp]
  0004e	e8 00 00 00 00	 call	 ??$_Deallocate@$0BA@$0A@@std@@YAXPEAX_K@Z ; std::_Deallocate<16,0>

; 804  :     }

  00053	48 8d a5 c8 00
	00 00		 lea	 rsp, QWORD PTR [rbp+200]
  0005a	5f		 pop	 rdi
  0005b	5d		 pop	 rbp
  0005c	c3		 ret	 0
?deallocate@?$allocator@D@std@@QEAAXQEAD_K@Z ENDP	; std::allocator<char>::deallocate
_TEXT	ENDS
; Function compile flags: /Odtp /RTCsu /ZI
; File C:\Program Files (x86)\Microsoft Visual Studio\2019\Enterprise\VC\Tools\MSVC\14.27.29110\include\xmemory
;	COMDAT ??0?$allocator@D@std@@QEAA@XZ
_TEXT	SEGMENT
this$ = 224
??0?$allocator@D@std@@QEAA@XZ PROC			; std::allocator<char>::allocator<char>, COMDAT

; 795  :     constexpr allocator() noexcept {}

$LN3:
  00000	48 89 4c 24 08	 mov	 QWORD PTR [rsp+8], rcx
  00005	55		 push	 rbp
  00006	57		 push	 rdi
  00007	48 81 ec e8 00
	00 00		 sub	 rsp, 232		; 000000e8H
  0000e	48 8d 6c 24 20	 lea	 rbp, QWORD PTR [rsp+32]
  00013	48 8b fc	 mov	 rdi, rsp
  00016	b9 3a 00 00 00	 mov	 ecx, 58			; 0000003aH
  0001b	b8 cc cc cc cc	 mov	 eax, -858993460		; ccccccccH
  00020	f3 ab		 rep stosd
  00022	48 8b 8c 24 08
	01 00 00	 mov	 rcx, QWORD PTR [rsp+264]
  0002a	48 8d 0d 00 00
	00 00		 lea	 rcx, OFFSET FLAT:__0C99713E_xmemory
  00031	e8 00 00 00 00	 call	 __CheckForDebuggerJustMyCode
  00036	48 8b 85 e0 00
	00 00		 mov	 rax, QWORD PTR this$[rbp]
  0003d	48 8d a5 c8 00
	00 00		 lea	 rsp, QWORD PTR [rbp+200]
  00044	5f		 pop	 rdi
  00045	5d		 pop	 rbp
  00046	c3		 ret	 0
??0?$allocator@D@std@@QEAA@XZ ENDP			; std::allocator<char>::allocator<char>
_TEXT	ENDS
; Function compile flags: /Odtp /RTCsu /ZI
; File C:\Program Files (x86)\Microsoft Visual Studio\2019\Enterprise\VC\Tools\MSVC\14.27.29110\include\xstring
;	COMDAT ?_Xlen_string@std@@YAXXZ
_TEXT	SEGMENT
?_Xlen_string@std@@YAXXZ PROC				; std::_Xlen_string, COMDAT

; 2200 : [[noreturn]] inline void _Xlen_string() {

$LN3:
  00000	40 55		 push	 rbp
  00002	57		 push	 rdi
  00003	48 81 ec e8 00
	00 00		 sub	 rsp, 232		; 000000e8H
  0000a	48 8d 6c 24 20	 lea	 rbp, QWORD PTR [rsp+32]
  0000f	48 8b fc	 mov	 rdi, rsp
  00012	b9 3a 00 00 00	 mov	 ecx, 58			; 0000003aH
  00017	b8 cc cc cc cc	 mov	 eax, -858993460		; ccccccccH
  0001c	f3 ab		 rep stosd
  0001e	48 8d 0d 00 00
	00 00		 lea	 rcx, OFFSET FLAT:__784AF7A2_xstring
  00025	e8 00 00 00 00	 call	 __CheckForDebuggerJustMyCode

; 2201 :     _Xlength_error("string too long");

  0002a	48 8d 0d 00 00
	00 00		 lea	 rcx, OFFSET FLAT:??_C@_0BA@JFNIOLAK@string?5too?5long@
  00031	e8 00 00 00 00	 call	 ?_Xlength_error@std@@YAXPEBD@Z ; std::_Xlength_error
$LN2@Xlen_strin:

; 2202 : }

  00036	48 8d a5 c8 00
	00 00		 lea	 rsp, QWORD PTR [rbp+200]
  0003d	5f		 pop	 rdi
  0003e	5d		 pop	 rbp
  0003f	c3		 ret	 0
?_Xlen_string@std@@YAXXZ ENDP				; std::_Xlen_string
_TEXT	ENDS
; Function compile flags: /Odtp /RTCsu /ZI
; File C:\Program Files (x86)\Microsoft Visual Studio\2019\Enterprise\VC\Tools\MSVC\14.27.29110\include\xstring
;	COMDAT ?eof@?$_Narrow_char_traits@DH@std@@SAHXZ
_TEXT	SEGMENT
?eof@?$_Narrow_char_traits@DH@std@@SAHXZ PROC		; std::_Narrow_char_traits<char,int>::eof, COMDAT

; 400  :     _NODISCARD static constexpr int_type eof() noexcept {

$LN3:
  00000	40 55		 push	 rbp
  00002	57		 push	 rdi
  00003	48 81 ec e8 00
	00 00		 sub	 rsp, 232		; 000000e8H
  0000a	48 8d 6c 24 20	 lea	 rbp, QWORD PTR [rsp+32]
  0000f	48 8b fc	 mov	 rdi, rsp
  00012	b9 3a 00 00 00	 mov	 ecx, 58			; 0000003aH
  00017	b8 cc cc cc cc	 mov	 eax, -858993460		; ccccccccH
  0001c	f3 ab		 rep stosd
  0001e	48 8d 0d 00 00
	00 00		 lea	 rcx, OFFSET FLAT:__784AF7A2_xstring
  00025	e8 00 00 00 00	 call	 __CheckForDebuggerJustMyCode

; 401  :         return static_cast<int_type>(EOF);

  0002a	b8 ff ff ff ff	 mov	 eax, -1

; 402  :     }

  0002f	48 8d a5 c8 00
	00 00		 lea	 rsp, QWORD PTR [rbp+200]
  00036	5f		 pop	 rdi
  00037	5d		 pop	 rbp
  00038	c3		 ret	 0
?eof@?$_Narrow_char_traits@DH@std@@SAHXZ ENDP		; std::_Narrow_char_traits<char,int>::eof
_TEXT	ENDS
; Function compile flags: /Odtp /RTCsu /ZI
; File C:\Program Files (x86)\Microsoft Visual Studio\2019\Enterprise\VC\Tools\MSVC\14.27.29110\include\xstring
;	COMDAT ?not_eof@?$_Narrow_char_traits@DH@std@@SAHAEBH@Z
_TEXT	SEGMENT
tv69 = 192
tv68 = 196
_Meta$ = 240
?not_eof@?$_Narrow_char_traits@DH@std@@SAHAEBH@Z PROC	; std::_Narrow_char_traits<char,int>::not_eof, COMDAT

; 396  :     _NODISCARD static constexpr int_type not_eof(const int_type& _Meta) noexcept {

$LN7:
  00000	48 89 4c 24 08	 mov	 QWORD PTR [rsp+8], rcx
  00005	55		 push	 rbp
  00006	57		 push	 rdi
  00007	48 81 ec f8 00
	00 00		 sub	 rsp, 248		; 000000f8H
  0000e	48 8d 6c 24 20	 lea	 rbp, QWORD PTR [rsp+32]
  00013	48 8b fc	 mov	 rdi, rsp
  00016	b9 3e 00 00 00	 mov	 ecx, 62			; 0000003eH
  0001b	b8 cc cc cc cc	 mov	 eax, -858993460		; ccccccccH
  00020	f3 ab		 rep stosd
  00022	48 8b 8c 24 18
	01 00 00	 mov	 rcx, QWORD PTR [rsp+280]
  0002a	48 8d 0d 00 00
	00 00		 lea	 rcx, OFFSET FLAT:__784AF7A2_xstring
  00031	e8 00 00 00 00	 call	 __CheckForDebuggerJustMyCode

; 397  :         return _Meta != eof() ? _Meta : !eof();

  00036	e8 00 00 00 00	 call	 ?eof@?$_Narrow_char_traits@DH@std@@SAHXZ ; std::_Narrow_char_traits<char,int>::eof
  0003b	48 8b 8d f0 00
	00 00		 mov	 rcx, QWORD PTR _Meta$[rbp]
  00042	39 01		 cmp	 DWORD PTR [rcx], eax
  00044	74 11		 je	 SHORT $LN5@not_eof
  00046	48 8b 85 f0 00
	00 00		 mov	 rax, QWORD PTR _Meta$[rbp]
  0004d	8b 00		 mov	 eax, DWORD PTR [rax]
  0004f	89 85 c0 00 00
	00		 mov	 DWORD PTR tv69[rbp], eax
  00055	eb 2b		 jmp	 SHORT $LN6@not_eof
$LN5@not_eof:
  00057	e8 00 00 00 00	 call	 ?eof@?$_Narrow_char_traits@DH@std@@SAHXZ ; std::_Narrow_char_traits<char,int>::eof
  0005c	85 c0		 test	 eax, eax
  0005e	75 0c		 jne	 SHORT $LN3@not_eof
  00060	c7 85 c4 00 00
	00 01 00 00 00	 mov	 DWORD PTR tv68[rbp], 1
  0006a	eb 0a		 jmp	 SHORT $LN4@not_eof
$LN3@not_eof:
  0006c	c7 85 c4 00 00
	00 00 00 00 00	 mov	 DWORD PTR tv68[rbp], 0
$LN4@not_eof:
  00076	8b 85 c4 00 00
	00		 mov	 eax, DWORD PTR tv68[rbp]
  0007c	89 85 c0 00 00
	00		 mov	 DWORD PTR tv69[rbp], eax
$LN6@not_eof:
  00082	8b 85 c0 00 00
	00		 mov	 eax, DWORD PTR tv69[rbp]

; 398  :     }

  00088	48 8d a5 d8 00
	00 00		 lea	 rsp, QWORD PTR [rbp+216]
  0008f	5f		 pop	 rdi
  00090	5d		 pop	 rbp
  00091	c3		 ret	 0
?not_eof@?$_Narrow_char_traits@DH@std@@SAHAEBH@Z ENDP	; std::_Narrow_char_traits<char,int>::not_eof
_TEXT	ENDS
; Function compile flags: /Odtp /RTCsu /ZI
; File C:\Program Files (x86)\Microsoft Visual Studio\2019\Enterprise\VC\Tools\MSVC\14.27.29110\include\xstring
;	COMDAT ?eq_int_type@?$_Narrow_char_traits@DH@std@@SA_NAEBH0@Z
_TEXT	SEGMENT
tv65 = 192
_Left$ = 240
_Right$ = 248
?eq_int_type@?$_Narrow_char_traits@DH@std@@SA_NAEBH0@Z PROC ; std::_Narrow_char_traits<char,int>::eq_int_type, COMDAT

; 392  :     _NODISCARD static constexpr bool eq_int_type(const int_type& _Left, const int_type& _Right) noexcept {

$LN5:
  00000	48 89 54 24 10	 mov	 QWORD PTR [rsp+16], rdx
  00005	48 89 4c 24 08	 mov	 QWORD PTR [rsp+8], rcx
  0000a	55		 push	 rbp
  0000b	57		 push	 rdi
  0000c	48 81 ec f8 00
	00 00		 sub	 rsp, 248		; 000000f8H
  00013	48 8d 6c 24 20	 lea	 rbp, QWORD PTR [rsp+32]
  00018	48 8b fc	 mov	 rdi, rsp
  0001b	b9 3e 00 00 00	 mov	 ecx, 62			; 0000003eH
  00020	b8 cc cc cc cc	 mov	 eax, -858993460		; ccccccccH
  00025	f3 ab		 rep stosd
  00027	48 8b 8c 24 18
	01 00 00	 mov	 rcx, QWORD PTR [rsp+280]
  0002f	48 8d 0d 00 00
	00 00		 lea	 rcx, OFFSET FLAT:__784AF7A2_xstring
  00036	e8 00 00 00 00	 call	 __CheckForDebuggerJustMyCode

; 393  :         return _Left == _Right;

  0003b	48 8b 85 f0 00
	00 00		 mov	 rax, QWORD PTR _Left$[rbp]
  00042	48 8b 8d f8 00
	00 00		 mov	 rcx, QWORD PTR _Right$[rbp]
  00049	8b 09		 mov	 ecx, DWORD PTR [rcx]
  0004b	39 08		 cmp	 DWORD PTR [rax], ecx
  0004d	75 0c		 jne	 SHORT $LN3@eq_int_typ
  0004f	c7 85 c0 00 00
	00 01 00 00 00	 mov	 DWORD PTR tv65[rbp], 1
  00059	eb 0a		 jmp	 SHORT $LN4@eq_int_typ
$LN3@eq_int_typ:
  0005b	c7 85 c0 00 00
	00 00 00 00 00	 mov	 DWORD PTR tv65[rbp], 0
$LN4@eq_int_typ:
  00065	0f b6 85 c0 00
	00 00		 movzx	 eax, BYTE PTR tv65[rbp]

; 394  :     }

  0006c	48 8d a5 d8 00
	00 00		 lea	 rsp, QWORD PTR [rbp+216]
  00073	5f		 pop	 rdi
  00074	5d		 pop	 rbp
  00075	c3		 ret	 0
?eq_int_type@?$_Narrow_char_traits@DH@std@@SA_NAEBH0@Z ENDP ; std::_Narrow_char_traits<char,int>::eq_int_type
_TEXT	ENDS
; Function compile flags: /Odtp /RTCsu /ZI
; File C:\Program Files (x86)\Microsoft Visual Studio\2019\Enterprise\VC\Tools\MSVC\14.27.29110\include\xstring
;	COMDAT ?to_int_type@?$_Narrow_char_traits@DH@std@@SAHAEBD@Z
_TEXT	SEGMENT
_Ch$ = 224
?to_int_type@?$_Narrow_char_traits@DH@std@@SAHAEBD@Z PROC ; std::_Narrow_char_traits<char,int>::to_int_type, COMDAT

; 388  :     _NODISCARD static constexpr int_type to_int_type(const _Elem& _Ch) noexcept {

$LN3:
  00000	48 89 4c 24 08	 mov	 QWORD PTR [rsp+8], rcx
  00005	55		 push	 rbp
  00006	57		 push	 rdi
  00007	48 81 ec e8 00
	00 00		 sub	 rsp, 232		; 000000e8H
  0000e	48 8d 6c 24 20	 lea	 rbp, QWORD PTR [rsp+32]
  00013	48 8b fc	 mov	 rdi, rsp
  00016	b9 3a 00 00 00	 mov	 ecx, 58			; 0000003aH
  0001b	b8 cc cc cc cc	 mov	 eax, -858993460		; ccccccccH
  00020	f3 ab		 rep stosd
  00022	48 8b 8c 24 08
	01 00 00	 mov	 rcx, QWORD PTR [rsp+264]
  0002a	48 8d 0d 00 00
	00 00		 lea	 rcx, OFFSET FLAT:__784AF7A2_xstring
  00031	e8 00 00 00 00	 call	 __CheckForDebuggerJustMyCode

; 389  :         return static_cast<unsigned char>(_Ch);

  00036	48 8b 85 e0 00
	00 00		 mov	 rax, QWORD PTR _Ch$[rbp]
  0003d	0f b6 00	 movzx	 eax, BYTE PTR [rax]

; 390  :     }

  00040	48 8d a5 c8 00
	00 00		 lea	 rsp, QWORD PTR [rbp+200]
  00047	5f		 pop	 rdi
  00048	5d		 pop	 rbp
  00049	c3		 ret	 0
?to_int_type@?$_Narrow_char_traits@DH@std@@SAHAEBD@Z ENDP ; std::_Narrow_char_traits<char,int>::to_int_type
_TEXT	ENDS
; Function compile flags: /Odtp /RTCsu /ZI
; File C:\Program Files (x86)\Microsoft Visual Studio\2019\Enterprise\VC\Tools\MSVC\14.27.29110\include\xstring
;	COMDAT ?to_char_type@?$_Narrow_char_traits@DH@std@@SADAEBH@Z
_TEXT	SEGMENT
_Meta$ = 224
?to_char_type@?$_Narrow_char_traits@DH@std@@SADAEBH@Z PROC ; std::_Narrow_char_traits<char,int>::to_char_type, COMDAT

; 384  :     _NODISCARD static constexpr _Elem to_char_type(const int_type& _Meta) noexcept {

$LN3:
  00000	48 89 4c 24 08	 mov	 QWORD PTR [rsp+8], rcx
  00005	55		 push	 rbp
  00006	57		 push	 rdi
  00007	48 81 ec e8 00
	00 00		 sub	 rsp, 232		; 000000e8H
  0000e	48 8d 6c 24 20	 lea	 rbp, QWORD PTR [rsp+32]
  00013	48 8b fc	 mov	 rdi, rsp
  00016	b9 3a 00 00 00	 mov	 ecx, 58			; 0000003aH
  0001b	b8 cc cc cc cc	 mov	 eax, -858993460		; ccccccccH
  00020	f3 ab		 rep stosd
  00022	48 8b 8c 24 08
	01 00 00	 mov	 rcx, QWORD PTR [rsp+264]
  0002a	48 8d 0d 00 00
	00 00		 lea	 rcx, OFFSET FLAT:__784AF7A2_xstring
  00031	e8 00 00 00 00	 call	 __CheckForDebuggerJustMyCode

; 385  :         return static_cast<_Elem>(_Meta);

  00036	48 8b 85 e0 00
	00 00		 mov	 rax, QWORD PTR _Meta$[rbp]
  0003d	0f b6 00	 movzx	 eax, BYTE PTR [rax]

; 386  :     }

  00040	48 8d a5 c8 00
	00 00		 lea	 rsp, QWORD PTR [rbp+200]
  00047	5f		 pop	 rdi
  00048	5d		 pop	 rbp
  00049	c3		 ret	 0
?to_char_type@?$_Narrow_char_traits@DH@std@@SADAEBH@Z ENDP ; std::_Narrow_char_traits<char,int>::to_char_type
_TEXT	ENDS
; Function compile flags: /Odtp /RTCsu /ZI
; File C:\Program Files (x86)\Microsoft Visual Studio\2019\Enterprise\VC\Tools\MSVC\14.27.29110\include\xstring
;	COMDAT ?assign@?$_Narrow_char_traits@DH@std@@SAXAEADAEBD@Z
_TEXT	SEGMENT
_Left$ = 224
_Right$ = 232
?assign@?$_Narrow_char_traits@DH@std@@SAXAEADAEBD@Z PROC ; std::_Narrow_char_traits<char,int>::assign, COMDAT

; 372  :     static _CONSTEXPR17 void assign(_Elem& _Left, const _Elem& _Right) noexcept {

$LN3:
  00000	48 89 54 24 10	 mov	 QWORD PTR [rsp+16], rdx
  00005	48 89 4c 24 08	 mov	 QWORD PTR [rsp+8], rcx
  0000a	55		 push	 rbp
  0000b	57		 push	 rdi
  0000c	48 81 ec e8 00
	00 00		 sub	 rsp, 232		; 000000e8H
  00013	48 8d 6c 24 20	 lea	 rbp, QWORD PTR [rsp+32]
  00018	48 8b fc	 mov	 rdi, rsp
  0001b	b9 3a 00 00 00	 mov	 ecx, 58			; 0000003aH
  00020	b8 cc cc cc cc	 mov	 eax, -858993460		; ccccccccH
  00025	f3 ab		 rep stosd
  00027	48 8b 8c 24 08
	01 00 00	 mov	 rcx, QWORD PTR [rsp+264]
  0002f	48 8d 0d 00 00
	00 00		 lea	 rcx, OFFSET FLAT:__784AF7A2_xstring
  00036	e8 00 00 00 00	 call	 __CheckForDebuggerJustMyCode

; 373  :         _Left = _Right;

  0003b	48 8b 85 e0 00
	00 00		 mov	 rax, QWORD PTR _Left$[rbp]
  00042	48 8b 8d e8 00
	00 00		 mov	 rcx, QWORD PTR _Right$[rbp]
  00049	0f b6 09	 movzx	 ecx, BYTE PTR [rcx]
  0004c	88 08		 mov	 BYTE PTR [rax], cl

; 374  :     }

  0004e	48 8d a5 c8 00
	00 00		 lea	 rsp, QWORD PTR [rbp+200]
  00055	5f		 pop	 rdi
  00056	5d		 pop	 rbp
  00057	c3		 ret	 0
?assign@?$_Narrow_char_traits@DH@std@@SAXAEADAEBD@Z ENDP ; std::_Narrow_char_traits<char,int>::assign
_TEXT	ENDS
; Function compile flags: /Odtp /RTCsu /ZI
; File C:\Program Files (x86)\Microsoft Visual Studio\2019\Enterprise\VC\Tools\MSVC\14.27.29110\include\xstring
;	COMDAT ?move@?$_Narrow_char_traits@DH@std@@SAPEADQEADQEBD_K@Z
_TEXT	SEGMENT
_First1$ = 224
_First2$ = 232
_Count$ = 240
?move@?$_Narrow_char_traits@DH@std@@SAPEADQEADQEBD_K@Z PROC ; std::_Narrow_char_traits<char,int>::move, COMDAT

; 361  :         const size_t _Count) noexcept /* strengthened */ {

$LN3:
  00000	4c 89 44 24 18	 mov	 QWORD PTR [rsp+24], r8
  00005	48 89 54 24 10	 mov	 QWORD PTR [rsp+16], rdx
  0000a	48 89 4c 24 08	 mov	 QWORD PTR [rsp+8], rcx
  0000f	55		 push	 rbp
  00010	57		 push	 rdi
  00011	48 81 ec e8 00
	00 00		 sub	 rsp, 232		; 000000e8H
  00018	48 8d 6c 24 20	 lea	 rbp, QWORD PTR [rsp+32]
  0001d	48 8b fc	 mov	 rdi, rsp
  00020	b9 3a 00 00 00	 mov	 ecx, 58			; 0000003aH
  00025	b8 cc cc cc cc	 mov	 eax, -858993460		; ccccccccH
  0002a	f3 ab		 rep stosd
  0002c	48 8b 8c 24 08
	01 00 00	 mov	 rcx, QWORD PTR [rsp+264]
  00034	48 8d 0d 00 00
	00 00		 lea	 rcx, OFFSET FLAT:__784AF7A2_xstring
  0003b	e8 00 00 00 00	 call	 __CheckForDebuggerJustMyCode

; 362  :         // copy [_First2, _First2 + _Count) to [_First1, ...)
; 363  :         return static_cast<_Elem*>(_CSTD memmove(_First1, _First2, _Count));

  00040	4c 8b 85 f0 00
	00 00		 mov	 r8, QWORD PTR _Count$[rbp]
  00047	48 8b 95 e8 00
	00 00		 mov	 rdx, QWORD PTR _First2$[rbp]
  0004e	48 8b 8d e0 00
	00 00		 mov	 rcx, QWORD PTR _First1$[rbp]
  00055	e8 00 00 00 00	 call	 memmove
  0005a	90		 npad	 1

; 364  :     }

  0005b	48 8d a5 c8 00
	00 00		 lea	 rsp, QWORD PTR [rbp+200]
  00062	5f		 pop	 rdi
  00063	5d		 pop	 rbp
  00064	c3		 ret	 0
?move@?$_Narrow_char_traits@DH@std@@SAPEADQEADQEBD_K@Z ENDP ; std::_Narrow_char_traits<char,int>::move
_TEXT	ENDS
; Function compile flags: /Odtp /RTCsu /ZI
; File C:\Program Files (x86)\Microsoft Visual Studio\2019\Enterprise\VC\Tools\MSVC\14.27.29110\include\xstring
;	COMDAT ?copy@?$_Narrow_char_traits@DH@std@@SAPEADQEADQEBD_K@Z
_TEXT	SEGMENT
_First1$ = 224
_First2$ = 232
_Count$ = 240
?copy@?$_Narrow_char_traits@DH@std@@SAPEADQEADQEBD_K@Z PROC ; std::_Narrow_char_traits<char,int>::copy, COMDAT

; 326  :         const size_t _Count) noexcept /* strengthened */ {

$LN3:
  00000	4c 89 44 24 18	 mov	 QWORD PTR [rsp+24], r8
  00005	48 89 54 24 10	 mov	 QWORD PTR [rsp+16], rdx
  0000a	48 89 4c 24 08	 mov	 QWORD PTR [rsp+8], rcx
  0000f	55		 push	 rbp
  00010	57		 push	 rdi
  00011	48 81 ec e8 00
	00 00		 sub	 rsp, 232		; 000000e8H
  00018	48 8d 6c 24 20	 lea	 rbp, QWORD PTR [rsp+32]
  0001d	48 8b fc	 mov	 rdi, rsp
  00020	b9 3a 00 00 00	 mov	 ecx, 58			; 0000003aH
  00025	b8 cc cc cc cc	 mov	 eax, -858993460		; ccccccccH
  0002a	f3 ab		 rep stosd
  0002c	48 8b 8c 24 08
	01 00 00	 mov	 rcx, QWORD PTR [rsp+264]
  00034	48 8d 0d 00 00
	00 00		 lea	 rcx, OFFSET FLAT:__784AF7A2_xstring
  0003b	e8 00 00 00 00	 call	 __CheckForDebuggerJustMyCode

; 327  :         // copy [_First2, _First2 + _Count) to [_First1, ...)
; 328  :         return static_cast<_Elem*>(_CSTD memcpy(_First1, _First2, _Count));

  00040	4c 8b 85 f0 00
	00 00		 mov	 r8, QWORD PTR _Count$[rbp]
  00047	48 8b 95 e8 00
	00 00		 mov	 rdx, QWORD PTR _First2$[rbp]
  0004e	48 8b 8d e0 00
	00 00		 mov	 rcx, QWORD PTR _First1$[rbp]
  00055	e8 00 00 00 00	 call	 memcpy
  0005a	90		 npad	 1

; 329  :     }

  0005b	48 8d a5 c8 00
	00 00		 lea	 rsp, QWORD PTR [rbp+200]
  00062	5f		 pop	 rdi
  00063	5d		 pop	 rbp
  00064	c3		 ret	 0
?copy@?$_Narrow_char_traits@DH@std@@SAPEADQEADQEBD_K@Z ENDP ; std::_Narrow_char_traits<char,int>::copy
_TEXT	ENDS
; Function compile flags: /Odtp /RTCsu /ZI
; File C:\Program Files (x86)\Microsoft Visual Studio\2019\Enterprise\VC\Tools\MSVC\14.27.29110\include\xmemory
;	COMDAT ??$_Construct_in_place@U_Container_proxy@std@@PEAU_Container_base12@2@@std@@YAXAEAU_Container_proxy@0@$$QEAPEAU_Container_base12@0@@Z
_TEXT	SEGMENT
$T1 = 200
_Obj$ = 256
<_Args_0>$ = 264
??$_Construct_in_place@U_Container_proxy@std@@PEAU_Container_base12@2@@std@@YAXAEAU_Container_proxy@0@$$QEAPEAU_Container_base12@0@@Z PROC ; std::_Construct_in_place<std::_Container_proxy,std::_Container_base12 *>, COMDAT

; 228  : void _Construct_in_place(_Ty& _Obj, _Types&&... _Args) noexcept(is_nothrow_constructible_v<_Ty, _Types...>) {

$LN3:
  00000	48 89 54 24 10	 mov	 QWORD PTR [rsp+16], rdx
  00005	48 89 4c 24 08	 mov	 QWORD PTR [rsp+8], rcx
  0000a	55		 push	 rbp
  0000b	57		 push	 rdi
  0000c	48 81 ec 08 01
	00 00		 sub	 rsp, 264		; 00000108H
  00013	48 8d 6c 24 20	 lea	 rbp, QWORD PTR [rsp+32]
  00018	48 8b fc	 mov	 rdi, rsp
  0001b	b9 42 00 00 00	 mov	 ecx, 66			; 00000042H
  00020	b8 cc cc cc cc	 mov	 eax, -858993460		; ccccccccH
  00025	f3 ab		 rep stosd
  00027	48 8b 8c 24 28
	01 00 00	 mov	 rcx, QWORD PTR [rsp+296]
  0002f	48 8d 0d 00 00
	00 00		 lea	 rcx, OFFSET FLAT:__0C99713E_xmemory
  00036	e8 00 00 00 00	 call	 __CheckForDebuggerJustMyCode
  0003b	48 8b 8d 00 01
	00 00		 mov	 rcx, QWORD PTR _Obj$[rbp]
  00042	e8 00 00 00 00	 call	 ??$addressof@U_Container_proxy@std@@@std@@YAPEAU_Container_proxy@0@AEAU10@@Z ; std::addressof<std::_Container_proxy>
  00047	48 8b d0	 mov	 rdx, rax
  0004a	b9 10 00 00 00	 mov	 ecx, 16
  0004f	e8 00 00 00 00	 call	 ??2@YAPEAX_KPEAX@Z	; operator new
  00054	48 89 85 c8 00
	00 00		 mov	 QWORD PTR $T1[rbp], rax
  0005b	48 8b 8d 08 01
	00 00		 mov	 rcx, QWORD PTR <_Args_0>$[rbp]
  00062	e8 00 00 00 00	 call	 ??$forward@PEAU_Container_base12@std@@@std@@YA$$QEAPEAU_Container_base12@0@AEAPEAU10@@Z ; std::forward<std::_Container_base12 *>
  00067	48 8b 10	 mov	 rdx, QWORD PTR [rax]
  0006a	48 8b 8d c8 00
	00 00		 mov	 rcx, QWORD PTR $T1[rbp]
  00071	e8 00 00 00 00	 call	 ??0_Container_proxy@std@@QEAA@PEAU_Container_base12@1@@Z ; std::_Container_proxy::_Container_proxy
  00076	90		 npad	 1

; 229  :     ::new (const_cast<void*>(static_cast<const volatile void*>(_STD addressof(_Obj))))
; 230  :         _Ty(_STD forward<_Types>(_Args)...);
; 231  : }

  00077	48 8d a5 e8 00
	00 00		 lea	 rsp, QWORD PTR [rbp+232]
  0007e	5f		 pop	 rdi
  0007f	5d		 pop	 rbp
  00080	c3		 ret	 0
??$_Construct_in_place@U_Container_proxy@std@@PEAU_Container_base12@2@@std@@YAXAEAU_Container_proxy@0@$$QEAPEAU_Container_base12@0@@Z ENDP ; std::_Construct_in_place<std::_Container_proxy,std::_Container_base12 *>
_TEXT	ENDS
; Function compile flags: /Odtp /RTCsu /ZI
; File C:\Program Files (x86)\Microsoft Visual Studio\2019\Enterprise\VC\Tools\MSVC\14.27.29110\include\xmemory
;	COMDAT ?_Orphan_all@_Container_base12@std@@QEAAXXZ
_TEXT	SEGMENT
_Lock$4 = 4
_Pnext$5 = 40
__$ArrayPad$ = 248
this$ = 288
?_Orphan_all@_Container_base12@std@@QEAAXXZ PROC	; std::_Container_base12::_Orphan_all, COMDAT

; 1205 : inline void _Container_base12::_Orphan_all() noexcept {

$LN7:
  00000	48 89 4c 24 08	 mov	 QWORD PTR [rsp+8], rcx
  00005	55		 push	 rbp
  00006	57		 push	 rdi
  00007	48 81 ec 28 01
	00 00		 sub	 rsp, 296		; 00000128H
  0000e	48 8d 6c 24 20	 lea	 rbp, QWORD PTR [rsp+32]
  00013	48 8b fc	 mov	 rdi, rsp
  00016	b9 4a 00 00 00	 mov	 ecx, 74			; 0000004aH
  0001b	b8 cc cc cc cc	 mov	 eax, -858993460		; ccccccccH
  00020	f3 ab		 rep stosd
  00022	48 8b 8c 24 48
	01 00 00	 mov	 rcx, QWORD PTR [rsp+328]
  0002a	48 8b 05 00 00
	00 00		 mov	 rax, QWORD PTR __security_cookie
  00031	48 33 c5	 xor	 rax, rbp
  00034	48 89 85 f8 00
	00 00		 mov	 QWORD PTR __$ArrayPad$[rbp], rax
  0003b	48 8d 0d 00 00
	00 00		 lea	 rcx, OFFSET FLAT:__0C99713E_xmemory
  00042	e8 00 00 00 00	 call	 __CheckForDebuggerJustMyCode

; 1206 : #if _ITERATOR_DEBUG_LEVEL == 2
; 1207 :     if (_Myproxy) { // proxy allocated, drain it

  00047	48 8b 85 20 01
	00 00		 mov	 rax, QWORD PTR this$[rbp]
  0004e	48 83 38 00	 cmp	 QWORD PTR [rax], 0
  00052	74 6b		 je	 SHORT $LN5@Orphan_all

; 1208 :         _Lockit _Lock(_LOCK_DEBUG);

  00054	ba 03 00 00 00	 mov	 edx, 3
  00059	48 8d 4d 04	 lea	 rcx, QWORD PTR _Lock$4[rbp]
  0005d	ff 15 00 00 00
	00		 call	 QWORD PTR __imp_??0_Lockit@std@@QEAA@H@Z

; 1209 : 
; 1210 :         for (auto _Pnext = &_Myproxy->_Myfirstiter; *_Pnext; *_Pnext = (*_Pnext)->_Mynextiter) {

  00063	48 8b 85 20 01
	00 00		 mov	 rax, QWORD PTR this$[rbp]
  0006a	48 8b 00	 mov	 rax, QWORD PTR [rax]
  0006d	48 83 c0 08	 add	 rax, 8
  00071	48 89 45 28	 mov	 QWORD PTR _Pnext$5[rbp], rax
  00075	eb 12		 jmp	 SHORT $LN4@Orphan_all
$LN2@Orphan_all:
  00077	48 8b 45 28	 mov	 rax, QWORD PTR _Pnext$5[rbp]
  0007b	48 8b 00	 mov	 rax, QWORD PTR [rax]
  0007e	48 8b 4d 28	 mov	 rcx, QWORD PTR _Pnext$5[rbp]
  00082	48 8b 40 08	 mov	 rax, QWORD PTR [rax+8]
  00086	48 89 01	 mov	 QWORD PTR [rcx], rax
$LN4@Orphan_all:
  00089	48 8b 45 28	 mov	 rax, QWORD PTR _Pnext$5[rbp]
  0008d	48 83 38 00	 cmp	 QWORD PTR [rax], 0
  00091	74 10		 je	 SHORT $LN3@Orphan_all

; 1211 :             (*_Pnext)->_Myproxy = nullptr;

  00093	48 8b 45 28	 mov	 rax, QWORD PTR _Pnext$5[rbp]
  00097	48 8b 00	 mov	 rax, QWORD PTR [rax]
  0009a	48 c7 00 00 00
	00 00		 mov	 QWORD PTR [rax], 0

; 1212 :         }

  000a1	eb d4		 jmp	 SHORT $LN2@Orphan_all
$LN3@Orphan_all:

; 1213 : 
; 1214 :         _Myproxy->_Myfirstiter = nullptr;

  000a3	48 8b 85 20 01
	00 00		 mov	 rax, QWORD PTR this$[rbp]
  000aa	48 8b 00	 mov	 rax, QWORD PTR [rax]
  000ad	48 c7 40 08 00
	00 00 00	 mov	 QWORD PTR [rax+8], 0

; 1215 :     }

  000b5	48 8d 4d 04	 lea	 rcx, QWORD PTR _Lock$4[rbp]
  000b9	ff 15 00 00 00
	00		 call	 QWORD PTR __imp_??1_Lockit@std@@QEAA@XZ
$LN5@Orphan_all:

; 1216 : #endif // _ITERATOR_DEBUG_LEVEL == 2
; 1217 : }

  000bf	48 8d 4d e0	 lea	 rcx, QWORD PTR [rbp-32]
  000c3	48 8d 15 00 00
	00 00		 lea	 rdx, OFFSET FLAT:?_Orphan_all@_Container_base12@std@@QEAAXXZ$rtcFrameData
  000ca	e8 00 00 00 00	 call	 _RTC_CheckStackVars
  000cf	90		 npad	 1
  000d0	48 8b 8d f8 00
	00 00		 mov	 rcx, QWORD PTR __$ArrayPad$[rbp]
  000d7	48 33 cd	 xor	 rcx, rbp
  000da	e8 00 00 00 00	 call	 __security_check_cookie
  000df	48 8d a5 08 01
	00 00		 lea	 rsp, QWORD PTR [rbp+264]
  000e6	5f		 pop	 rdi
  000e7	5d		 pop	 rbp
  000e8	c3		 ret	 0
?_Orphan_all@_Container_base12@std@@QEAAXXZ ENDP	; std::_Container_base12::_Orphan_all
_TEXT	ENDS
; Function compile flags: /Odtp /RTCsu /ZI
; File C:\Program Files (x86)\Microsoft Visual Studio\2019\Enterprise\VC\Tools\MSVC\14.27.29110\include\xmemory
;	COMDAT ??0_Container_base12@std@@QEAA@XZ
_TEXT	SEGMENT
this$ = 224
??0_Container_base12@std@@QEAA@XZ PROC			; std::_Container_base12::_Container_base12, COMDAT

; 1092 :     _Container_base12() noexcept : _Myproxy(nullptr) {}

$LN3:
  00000	48 89 4c 24 08	 mov	 QWORD PTR [rsp+8], rcx
  00005	55		 push	 rbp
  00006	57		 push	 rdi
  00007	48 81 ec e8 00
	00 00		 sub	 rsp, 232		; 000000e8H
  0000e	48 8d 6c 24 20	 lea	 rbp, QWORD PTR [rsp+32]
  00013	48 8b fc	 mov	 rdi, rsp
  00016	b9 3a 00 00 00	 mov	 ecx, 58			; 0000003aH
  0001b	b8 cc cc cc cc	 mov	 eax, -858993460		; ccccccccH
  00020	f3 ab		 rep stosd
  00022	48 8b 8c 24 08
	01 00 00	 mov	 rcx, QWORD PTR [rsp+264]
  0002a	48 8d 0d 00 00
	00 00		 lea	 rcx, OFFSET FLAT:__0C99713E_xmemory
  00031	e8 00 00 00 00	 call	 __CheckForDebuggerJustMyCode
  00036	48 8b 85 e0 00
	00 00		 mov	 rax, QWORD PTR this$[rbp]
  0003d	48 c7 00 00 00
	00 00		 mov	 QWORD PTR [rax], 0
  00044	48 8b 85 e0 00
	00 00		 mov	 rax, QWORD PTR this$[rbp]
  0004b	48 8d a5 c8 00
	00 00		 lea	 rsp, QWORD PTR [rbp+200]
  00052	5f		 pop	 rdi
  00053	5d		 pop	 rbp
  00054	c3		 ret	 0
??0_Container_base12@std@@QEAA@XZ ENDP			; std::_Container_base12::_Container_base12
_TEXT	ENDS
; Function compile flags: /Odtp /RTCsu /ZI
; File C:\Program Files (x86)\Microsoft Visual Studio\2019\Enterprise\VC\Tools\MSVC\14.27.29110\include\xmemory
;	COMDAT ??0_Container_proxy@std@@QEAA@PEAU_Container_base12@1@@Z
_TEXT	SEGMENT
this$ = 224
_Mycont_$ = 232
??0_Container_proxy@std@@QEAA@PEAU_Container_base12@1@@Z PROC ; std::_Container_proxy::_Container_proxy, COMDAT

; 1084 :     _Container_proxy(_Container_base12* _Mycont_) noexcept : _Mycont(_Mycont_), _Myfirstiter(nullptr) {}

$LN3:
  00000	48 89 54 24 10	 mov	 QWORD PTR [rsp+16], rdx
  00005	48 89 4c 24 08	 mov	 QWORD PTR [rsp+8], rcx
  0000a	55		 push	 rbp
  0000b	57		 push	 rdi
  0000c	48 81 ec e8 00
	00 00		 sub	 rsp, 232		; 000000e8H
  00013	48 8d 6c 24 20	 lea	 rbp, QWORD PTR [rsp+32]
  00018	48 8b fc	 mov	 rdi, rsp
  0001b	b9 3a 00 00 00	 mov	 ecx, 58			; 0000003aH
  00020	b8 cc cc cc cc	 mov	 eax, -858993460		; ccccccccH
  00025	f3 ab		 rep stosd
  00027	48 8b 8c 24 08
	01 00 00	 mov	 rcx, QWORD PTR [rsp+264]
  0002f	48 8d 0d 00 00
	00 00		 lea	 rcx, OFFSET FLAT:__0C99713E_xmemory
  00036	e8 00 00 00 00	 call	 __CheckForDebuggerJustMyCode
  0003b	48 8b 85 e0 00
	00 00		 mov	 rax, QWORD PTR this$[rbp]
  00042	48 8b 8d e8 00
	00 00		 mov	 rcx, QWORD PTR _Mycont_$[rbp]
  00049	48 89 08	 mov	 QWORD PTR [rax], rcx
  0004c	48 8b 85 e0 00
	00 00		 mov	 rax, QWORD PTR this$[rbp]
  00053	48 c7 40 08 00
	00 00 00	 mov	 QWORD PTR [rax+8], 0
  0005b	48 8b 85 e0 00
	00 00		 mov	 rax, QWORD PTR this$[rbp]
  00062	48 8d a5 c8 00
	00 00		 lea	 rsp, QWORD PTR [rbp+200]
  00069	5f		 pop	 rdi
  0006a	5d		 pop	 rbp
  0006b	c3		 ret	 0
??0_Container_proxy@std@@QEAA@PEAU_Container_base12@1@@Z ENDP ; std::_Container_proxy::_Container_proxy
_TEXT	ENDS
; Function compile flags: /Odtp /RTCsu /ZI
; File C:\Program Files (x86)\Microsoft Visual Studio\2019\Enterprise\VC\Tools\MSVC\14.27.29110\include\xmemory
;	COMDAT ?_Adjust_manually_vector_aligned@std@@YAXAEAPEAXAEA_K@Z
_TEXT	SEGMENT
_Ptr_user$ = 8
_Ptr_container$ = 40
_Min_back_shift$ = 72
_Back_shift$ = 104
_Ptr$ = 352
_Bytes$ = 360
?_Adjust_manually_vector_aligned@std@@YAXAEAPEAXAEA_K@Z PROC ; std::_Adjust_manually_vector_aligned, COMDAT

; 132  : inline void _Adjust_manually_vector_aligned(void*& _Ptr, size_t& _Bytes) {

$LN21:
  00000	48 89 54 24 10	 mov	 QWORD PTR [rsp+16], rdx
  00005	48 89 4c 24 08	 mov	 QWORD PTR [rsp+8], rcx
  0000a	55		 push	 rbp
  0000b	57		 push	 rdi
  0000c	48 81 ec 78 01
	00 00		 sub	 rsp, 376		; 00000178H
  00013	48 8d 6c 24 30	 lea	 rbp, QWORD PTR [rsp+48]
  00018	48 8b fc	 mov	 rdi, rsp
  0001b	b9 5e 00 00 00	 mov	 ecx, 94			; 0000005eH
  00020	b8 cc cc cc cc	 mov	 eax, -858993460		; ccccccccH
  00025	f3 ab		 rep stosd
  00027	48 8b 8c 24 98
	01 00 00	 mov	 rcx, QWORD PTR [rsp+408]
  0002f	48 8d 0d 00 00
	00 00		 lea	 rcx, OFFSET FLAT:__0C99713E_xmemory
  00036	e8 00 00 00 00	 call	 __CheckForDebuggerJustMyCode

; 133  :     // adjust parameters from _Allocate_manually_vector_aligned to pass to operator delete
; 134  :     _Bytes += _Non_user_size;

  0003b	48 8b 85 68 01
	00 00		 mov	 rax, QWORD PTR _Bytes$[rbp]
  00042	48 8b 00	 mov	 rax, QWORD PTR [rax]
  00045	48 83 c0 2f	 add	 rax, 47			; 0000002fH
  00049	48 8b 8d 68 01
	00 00		 mov	 rcx, QWORD PTR _Bytes$[rbp]
  00050	48 89 01	 mov	 QWORD PTR [rcx], rax

; 135  : 
; 136  :     const uintptr_t* const _Ptr_user = reinterpret_cast<uintptr_t*>(_Ptr);

  00053	48 8b 85 60 01
	00 00		 mov	 rax, QWORD PTR _Ptr$[rbp]
  0005a	48 8b 00	 mov	 rax, QWORD PTR [rax]
  0005d	48 89 45 08	 mov	 QWORD PTR _Ptr_user$[rbp], rax

; 137  :     const uintptr_t _Ptr_container   = _Ptr_user[-1];

  00061	b8 08 00 00 00	 mov	 eax, 8
  00066	48 6b c0 ff	 imul	 rax, rax, -1
  0006a	48 8b 4d 08	 mov	 rcx, QWORD PTR _Ptr_user$[rbp]
  0006e	48 8b 04 01	 mov	 rax, QWORD PTR [rcx+rax]
  00072	48 89 45 28	 mov	 QWORD PTR _Ptr_container$[rbp], rax
$LN4@Adjust_man:

; 138  : 
; 139  :     // If the following asserts, it likely means that we are performing
; 140  :     // an aligned delete on memory coming from an unaligned allocation.
; 141  :     _STL_ASSERT(_Ptr_user[-2] == _Big_allocation_sentinel, "invalid argument");

  00076	b8 08 00 00 00	 mov	 eax, 8
  0007b	48 6b c0 fe	 imul	 rax, rax, -2
  0007f	48 8b 4d 08	 mov	 rcx, QWORD PTR _Ptr_user$[rbp]
  00083	48 ba fa fa fa
	fa fa fa fa fa	 mov	 rdx, -361700864190383366 ; fafafafafafafafaH
  0008d	48 39 14 01	 cmp	 QWORD PTR [rcx+rax], rdx
  00091	75 02		 jne	 SHORT $LN14@Adjust_man
  00093	eb 77		 jmp	 SHORT $LN15@Adjust_man
$LN14@Adjust_man:
$LN7@Adjust_man:
  00095	8b 05 00 00 00
	00		 mov	 eax, DWORD PTR ?__LINE__Var@?0??_Adjust_manually_vector_aligned@std@@YAXAEAPEAXAEA_K@Z@4JA
  0009b	83 c0 09	 add	 eax, 9
  0009e	48 8d 0d 00 00
	00 00		 lea	 rcx, OFFSET FLAT:??_C@_0BB@FCMFBGOM@invalid?5argument@
  000a5	48 89 4c 24 28	 mov	 QWORD PTR [rsp+40], rcx
  000aa	48 8d 0d 00 00
	00 00		 lea	 rcx, OFFSET FLAT:??_C@_02DKCKIIND@?$CFs@
  000b1	48 89 4c 24 20	 mov	 QWORD PTR [rsp+32], rcx
  000b6	45 33 c9	 xor	 r9d, r9d
  000b9	44 8b c0	 mov	 r8d, eax
  000bc	48 8d 15 00 00
	00 00		 lea	 rdx, OFFSET FLAT:??_C@_0GJ@EHJGLGPD@C?3?2Program?5Files?5?$CIx86?$CJ?2Microsof@
  000c3	b9 02 00 00 00	 mov	 ecx, 2
  000c8	ff 15 00 00 00
	00		 call	 QWORD PTR __imp__CrtDbgReport
  000ce	83 f8 01	 cmp	 eax, 1
  000d1	75 03		 jne	 SHORT $LN19@Adjust_man
  000d3	cc		 int	 3
  000d4	33 c0		 xor	 eax, eax
$LN19@Adjust_man:
  000d6	8b 05 00 00 00
	00		 mov	 eax, DWORD PTR ?__LINE__Var@?0??_Adjust_manually_vector_aligned@std@@YAXAEAPEAXAEA_K@Z@4JA
  000dc	83 c0 09	 add	 eax, 9
  000df	48 c7 44 24 20
	00 00 00 00	 mov	 QWORD PTR [rsp+32], 0
  000e8	44 8b c8	 mov	 r9d, eax
  000eb	4c 8d 05 00 00
	00 00		 lea	 r8, OFFSET FLAT:??_C@_1NC@LBGPBFDE@?$AAC?$AA?3?$AA?2?$AAP?$AAr?$AAo?$AAg?$AAr?$AAa?$AAm?$AA?5?$AAF?$AAi?$AAl?$AAe@
  000f2	48 8d 15 00 00
	00 00		 lea	 rdx, OFFSET FLAT:??_C@_1EK@NIFDJFDG@?$AAs?$AAt?$AAd?$AA?3?$AA?3?$AA_?$AAA?$AAd?$AAj?$AAu?$AAs?$AAt?$AA_?$AAm?$AAa@
  000f9	48 8d 0d 00 00
	00 00		 lea	 rcx, OFFSET FLAT:??_C@_1CG@JNLFBNGN@?$AA?$CC?$AAi?$AAn?$AAv?$AAa?$AAl?$AAi?$AAd?$AA?5?$AAa?$AAr?$AAg?$AAu?$AAm?$AAe@
  00100	ff 15 00 00 00
	00		 call	 QWORD PTR __imp__invalid_parameter
  00106	33 c0		 xor	 eax, eax
  00108	85 c0		 test	 eax, eax
  0010a	75 89		 jne	 SHORT $LN7@Adjust_man
$LN15@Adjust_man:
  0010c	33 c0		 xor	 eax, eax
  0010e	85 c0		 test	 eax, eax
  00110	0f 85 60 ff ff
	ff		 jne	 $LN4@Adjust_man

; 142  : 
; 143  :     // Extra paranoia on aligned allocation/deallocation; ensure _Ptr_container is
; 144  :     // in range [_Min_back_shift, _Non_user_size]
; 145  : #ifdef _DEBUG
; 146  :     constexpr uintptr_t _Min_back_shift = 2 * sizeof(void*);

  00116	48 c7 45 48 10
	00 00 00	 mov	 QWORD PTR _Min_back_shift$[rbp], 16

; 147  : #else // ^^^ _DEBUG ^^^ // vvv !_DEBUG vvv
; 148  :     constexpr uintptr_t _Min_back_shift = sizeof(void*);
; 149  : #endif // _DEBUG
; 150  :     const uintptr_t _Back_shift = reinterpret_cast<uintptr_t>(_Ptr) - _Ptr_container;

  0011e	48 8b 85 60 01
	00 00		 mov	 rax, QWORD PTR _Ptr$[rbp]
  00125	48 8b 4d 28	 mov	 rcx, QWORD PTR _Ptr_container$[rbp]
  00129	48 8b 00	 mov	 rax, QWORD PTR [rax]
  0012c	48 2b c1	 sub	 rax, rcx
  0012f	48 89 45 68	 mov	 QWORD PTR _Back_shift$[rbp], rax
$LN10@Adjust_man:

; 151  :     _STL_VERIFY(_Back_shift >= _Min_back_shift && _Back_shift <= _Non_user_size, "invalid argument");

  00133	48 83 7d 68 10	 cmp	 QWORD PTR _Back_shift$[rbp], 16
  00138	72 09		 jb	 SHORT $LN16@Adjust_man
  0013a	48 83 7d 68 2f	 cmp	 QWORD PTR _Back_shift$[rbp], 47 ; 0000002fH
  0013f	77 02		 ja	 SHORT $LN16@Adjust_man
  00141	eb 77		 jmp	 SHORT $LN17@Adjust_man
$LN16@Adjust_man:
$LN13@Adjust_man:
  00143	8b 05 00 00 00
	00		 mov	 eax, DWORD PTR ?__LINE__Var@?0??_Adjust_manually_vector_aligned@std@@YAXAEAPEAXAEA_K@Z@4JA
  00149	83 c0 13	 add	 eax, 19
  0014c	48 8d 0d 00 00
	00 00		 lea	 rcx, OFFSET FLAT:??_C@_0BB@FCMFBGOM@invalid?5argument@
  00153	48 89 4c 24 28	 mov	 QWORD PTR [rsp+40], rcx
  00158	48 8d 0d 00 00
	00 00		 lea	 rcx, OFFSET FLAT:??_C@_02DKCKIIND@?$CFs@
  0015f	48 89 4c 24 20	 mov	 QWORD PTR [rsp+32], rcx
  00164	45 33 c9	 xor	 r9d, r9d
  00167	44 8b c0	 mov	 r8d, eax
  0016a	48 8d 15 00 00
	00 00		 lea	 rdx, OFFSET FLAT:??_C@_0GJ@EHJGLGPD@C?3?2Program?5Files?5?$CIx86?$CJ?2Microsof@
  00171	b9 02 00 00 00	 mov	 ecx, 2
  00176	ff 15 00 00 00
	00		 call	 QWORD PTR __imp__CrtDbgReport
  0017c	83 f8 01	 cmp	 eax, 1
  0017f	75 03		 jne	 SHORT $LN20@Adjust_man
  00181	cc		 int	 3
  00182	33 c0		 xor	 eax, eax
$LN20@Adjust_man:
  00184	8b 05 00 00 00
	00		 mov	 eax, DWORD PTR ?__LINE__Var@?0??_Adjust_manually_vector_aligned@std@@YAXAEAPEAXAEA_K@Z@4JA
  0018a	83 c0 13	 add	 eax, 19
  0018d	48 c7 44 24 20
	00 00 00 00	 mov	 QWORD PTR [rsp+32], 0
  00196	44 8b c8	 mov	 r9d, eax
  00199	4c 8d 05 00 00
	00 00		 lea	 r8, OFFSET FLAT:??_C@_1NC@LBGPBFDE@?$AAC?$AA?3?$AA?2?$AAP?$AAr?$AAo?$AAg?$AAr?$AAa?$AAm?$AA?5?$AAF?$AAi?$AAl?$AAe@
  001a0	48 8d 15 00 00
	00 00		 lea	 rdx, OFFSET FLAT:??_C@_1EK@NIFDJFDG@?$AAs?$AAt?$AAd?$AA?3?$AA?3?$AA_?$AAA?$AAd?$AAj?$AAu?$AAs?$AAt?$AA_?$AAm?$AAa@
  001a7	48 8d 0d 00 00
	00 00		 lea	 rcx, OFFSET FLAT:??_C@_1CG@JNLFBNGN@?$AA?$CC?$AAi?$AAn?$AAv?$AAa?$AAl?$AAi?$AAd?$AA?5?$AAa?$AAr?$AAg?$AAu?$AAm?$AAe@
  001ae	ff 15 00 00 00
	00		 call	 QWORD PTR __imp__invalid_parameter
  001b4	33 c0		 xor	 eax, eax
  001b6	85 c0		 test	 eax, eax
  001b8	75 89		 jne	 SHORT $LN13@Adjust_man
$LN17@Adjust_man:
  001ba	33 c0		 xor	 eax, eax
  001bc	85 c0		 test	 eax, eax
  001be	0f 85 6f ff ff
	ff		 jne	 $LN10@Adjust_man

; 152  :     _Ptr = reinterpret_cast<void*>(_Ptr_container);

  001c4	48 8b 85 60 01
	00 00		 mov	 rax, QWORD PTR _Ptr$[rbp]
  001cb	48 8b 4d 28	 mov	 rcx, QWORD PTR _Ptr_container$[rbp]
  001cf	48 89 08	 mov	 QWORD PTR [rax], rcx

; 153  : }

  001d2	48 8d a5 48 01
	00 00		 lea	 rsp, QWORD PTR [rbp+328]
  001d9	5f		 pop	 rdi
  001da	5d		 pop	 rbp
  001db	c3		 ret	 0
?_Adjust_manually_vector_aligned@std@@YAXAEAPEAXAEA_K@Z ENDP ; std::_Adjust_manually_vector_aligned
_TEXT	ENDS
; Function compile flags: /Odtp /RTCsu /ZI
; File C:\Program Files (x86)\Microsoft Visual Studio\2019\Enterprise\VC\Tools\MSVC\14.27.29110\include\xmemory
;	COMDAT ?_Allocate@_Default_allocate_traits@std@@SAPEAX_K@Z
_TEXT	SEGMENT
_Bytes$ = 224
?_Allocate@_Default_allocate_traits@std@@SAPEAX_K@Z PROC ; std::_Default_allocate_traits::_Allocate, COMDAT

; 76   :     __declspec(allocator) static void* _Allocate(const size_t _Bytes) {

$LN3:
  00000	48 89 4c 24 08	 mov	 QWORD PTR [rsp+8], rcx
  00005	55		 push	 rbp
  00006	57		 push	 rdi
  00007	48 81 ec e8 00
	00 00		 sub	 rsp, 232		; 000000e8H
  0000e	48 8d 6c 24 20	 lea	 rbp, QWORD PTR [rsp+32]
  00013	48 8b fc	 mov	 rdi, rsp
  00016	b9 3a 00 00 00	 mov	 ecx, 58			; 0000003aH
  0001b	b8 cc cc cc cc	 mov	 eax, -858993460		; ccccccccH
  00020	f3 ab		 rep stosd
  00022	48 8b 8c 24 08
	01 00 00	 mov	 rcx, QWORD PTR [rsp+264]
  0002a	48 8d 0d 00 00
	00 00		 lea	 rcx, OFFSET FLAT:__0C99713E_xmemory
  00031	e8 00 00 00 00	 call	 __CheckForDebuggerJustMyCode

; 77   :         return ::operator new(_Bytes);

  00036	48 8b 8d e0 00
	00 00		 mov	 rcx, QWORD PTR _Bytes$[rbp]
  0003d	e8 00 00 00 00	 call	 ??2@YAPEAX_K@Z		; operator new

; 78   :     }

  00042	48 8d a5 c8 00
	00 00		 lea	 rsp, QWORD PTR [rbp+200]
  00049	5f		 pop	 rdi
  0004a	5d		 pop	 rbp
  0004b	c3		 ret	 0
?_Allocate@_Default_allocate_traits@std@@SAPEAX_K@Z ENDP ; std::_Default_allocate_traits::_Allocate
_TEXT	ENDS
; Function compile flags: /Odtp /RTCsu /ZI
; File C:\Program Files (x86)\Microsoft Visual Studio\2019\Enterprise\VC\Tools\MSVC\14.27.29110\include\exception
;	COMDAT ?_Throw_bad_array_new_length@std@@YAXXZ
_TEXT	SEGMENT
$T1 = 200
?_Throw_bad_array_new_length@std@@YAXXZ PROC		; std::_Throw_bad_array_new_length, COMDAT

; 320  : [[noreturn]] inline void _Throw_bad_array_new_length() {

$LN3:
  00000	40 55		 push	 rbp
  00002	57		 push	 rdi
  00003	48 81 ec 18 01
	00 00		 sub	 rsp, 280		; 00000118H
  0000a	48 8d 6c 24 20	 lea	 rbp, QWORD PTR [rsp+32]
  0000f	48 8b fc	 mov	 rdi, rsp
  00012	b9 46 00 00 00	 mov	 ecx, 70			; 00000046H
  00017	b8 cc cc cc cc	 mov	 eax, -858993460		; ccccccccH
  0001c	f3 ab		 rep stosd
  0001e	48 8d 0d 00 00
	00 00		 lea	 rcx, OFFSET FLAT:__1302BCB8_exception
  00025	e8 00 00 00 00	 call	 __CheckForDebuggerJustMyCode

; 321  :     _THROW(bad_array_new_length{});

  0002a	48 8d 8d c8 00
	00 00		 lea	 rcx, QWORD PTR $T1[rbp]
  00031	e8 00 00 00 00	 call	 ??0bad_array_new_length@std@@QEAA@XZ ; std::bad_array_new_length::bad_array_new_length
  00036	48 8d 15 00 00
	00 00		 lea	 rdx, OFFSET FLAT:_TI3?AVbad_array_new_length@std@@
  0003d	48 8d 8d c8 00
	00 00		 lea	 rcx, QWORD PTR $T1[rbp]
  00044	e8 00 00 00 00	 call	 _CxxThrowException
$LN2@Throw_bad_:

; 322  : }

  00049	48 8d a5 f8 00
	00 00		 lea	 rsp, QWORD PTR [rbp+248]
  00050	5f		 pop	 rdi
  00051	5d		 pop	 rbp
  00052	c3		 ret	 0
?_Throw_bad_array_new_length@std@@YAXXZ ENDP		; std::_Throw_bad_array_new_length
_TEXT	ENDS
; Function compile flags: /Odtp /RTCsu /ZI
;	COMDAT ??_Gbad_array_new_length@std@@UEAAPEAXI@Z
_TEXT	SEGMENT
this$ = 224
__flags$ = 232
??_Gbad_array_new_length@std@@UEAAPEAXI@Z PROC		; std::bad_array_new_length::`scalar deleting destructor', COMDAT
$LN4:
  00000	89 54 24 10	 mov	 DWORD PTR [rsp+16], edx
  00004	48 89 4c 24 08	 mov	 QWORD PTR [rsp+8], rcx
  00009	55		 push	 rbp
  0000a	57		 push	 rdi
  0000b	48 81 ec e8 00
	00 00		 sub	 rsp, 232		; 000000e8H
  00012	48 8d 6c 24 20	 lea	 rbp, QWORD PTR [rsp+32]
  00017	48 8b fc	 mov	 rdi, rsp
  0001a	b9 3a 00 00 00	 mov	 ecx, 58			; 0000003aH
  0001f	b8 cc cc cc cc	 mov	 eax, -858993460		; ccccccccH
  00024	f3 ab		 rep stosd
  00026	48 8b 8c 24 08
	01 00 00	 mov	 rcx, QWORD PTR [rsp+264]
  0002e	48 8b 8d e0 00
	00 00		 mov	 rcx, QWORD PTR this$[rbp]
  00035	e8 00 00 00 00	 call	 ??1bad_array_new_length@std@@UEAA@XZ
  0003a	8b 85 e8 00 00
	00		 mov	 eax, DWORD PTR __flags$[rbp]
  00040	83 e0 01	 and	 eax, 1
  00043	85 c0		 test	 eax, eax
  00045	74 11		 je	 SHORT $LN2@scalar
  00047	ba 18 00 00 00	 mov	 edx, 24
  0004c	48 8b 8d e0 00
	00 00		 mov	 rcx, QWORD PTR this$[rbp]
  00053	e8 00 00 00 00	 call	 ??3@YAXPEAX_K@Z		; operator delete
$LN2@scalar:
  00058	48 8b 85 e0 00
	00 00		 mov	 rax, QWORD PTR this$[rbp]
  0005f	48 8d a5 c8 00
	00 00		 lea	 rsp, QWORD PTR [rbp+200]
  00066	5f		 pop	 rdi
  00067	5d		 pop	 rbp
  00068	c3		 ret	 0
??_Gbad_array_new_length@std@@UEAAPEAXI@Z ENDP		; std::bad_array_new_length::`scalar deleting destructor'
_TEXT	ENDS
; Function compile flags: /Odtp /RTCsu /ZI
;	COMDAT ??0bad_array_new_length@std@@QEAA@AEBV01@@Z
_TEXT	SEGMENT
this$ = 224
__that$ = 232
??0bad_array_new_length@std@@QEAA@AEBV01@@Z PROC	; std::bad_array_new_length::bad_array_new_length, COMDAT
$LN3:
  00000	48 89 54 24 10	 mov	 QWORD PTR [rsp+16], rdx
  00005	48 89 4c 24 08	 mov	 QWORD PTR [rsp+8], rcx
  0000a	55		 push	 rbp
  0000b	57		 push	 rdi
  0000c	48 81 ec e8 00
	00 00		 sub	 rsp, 232		; 000000e8H
  00013	48 8d 6c 24 20	 lea	 rbp, QWORD PTR [rsp+32]
  00018	48 8b fc	 mov	 rdi, rsp
  0001b	b9 3a 00 00 00	 mov	 ecx, 58			; 0000003aH
  00020	b8 cc cc cc cc	 mov	 eax, -858993460		; ccccccccH
  00025	f3 ab		 rep stosd
  00027	48 8b 8c 24 08
	01 00 00	 mov	 rcx, QWORD PTR [rsp+264]
  0002f	48 8b 95 e8 00
	00 00		 mov	 rdx, QWORD PTR __that$[rbp]
  00036	48 8b 8d e0 00
	00 00		 mov	 rcx, QWORD PTR this$[rbp]
  0003d	e8 00 00 00 00	 call	 ??0bad_alloc@std@@QEAA@AEBV01@@Z
  00042	48 8b 85 e0 00
	00 00		 mov	 rax, QWORD PTR this$[rbp]
  00049	48 8d 0d 00 00
	00 00		 lea	 rcx, OFFSET FLAT:??_7bad_array_new_length@std@@6B@
  00050	48 89 08	 mov	 QWORD PTR [rax], rcx
  00053	48 8b 85 e0 00
	00 00		 mov	 rax, QWORD PTR this$[rbp]
  0005a	48 8d a5 c8 00
	00 00		 lea	 rsp, QWORD PTR [rbp+200]
  00061	5f		 pop	 rdi
  00062	5d		 pop	 rbp
  00063	c3		 ret	 0
??0bad_array_new_length@std@@QEAA@AEBV01@@Z ENDP	; std::bad_array_new_length::bad_array_new_length
_TEXT	ENDS
; Function compile flags: /Odtp /RTCsu /ZI
;	COMDAT ??1bad_array_new_length@std@@UEAA@XZ
_TEXT	SEGMENT
this$ = 224
??1bad_array_new_length@std@@UEAA@XZ PROC		; std::bad_array_new_length::~bad_array_new_length, COMDAT
$LN3:
  00000	48 89 4c 24 08	 mov	 QWORD PTR [rsp+8], rcx
  00005	55		 push	 rbp
  00006	57		 push	 rdi
  00007	48 81 ec e8 00
	00 00		 sub	 rsp, 232		; 000000e8H
  0000e	48 8d 6c 24 20	 lea	 rbp, QWORD PTR [rsp+32]
  00013	48 8b fc	 mov	 rdi, rsp
  00016	b9 3a 00 00 00	 mov	 ecx, 58			; 0000003aH
  0001b	b8 cc cc cc cc	 mov	 eax, -858993460		; ccccccccH
  00020	f3 ab		 rep stosd
  00022	48 8b 8c 24 08
	01 00 00	 mov	 rcx, QWORD PTR [rsp+264]
  0002a	48 8b 8d e0 00
	00 00		 mov	 rcx, QWORD PTR this$[rbp]
  00031	e8 00 00 00 00	 call	 ??1bad_alloc@std@@UEAA@XZ
  00036	48 8d a5 c8 00
	00 00		 lea	 rsp, QWORD PTR [rbp+200]
  0003d	5f		 pop	 rdi
  0003e	5d		 pop	 rbp
  0003f	c3		 ret	 0
??1bad_array_new_length@std@@UEAA@XZ ENDP		; std::bad_array_new_length::~bad_array_new_length
_TEXT	ENDS
; Function compile flags: /Odtp /RTCsu /ZI
; File C:\Program Files (x86)\Microsoft Visual Studio\2019\Enterprise\VC\Tools\MSVC\14.27.29110\include\vcruntime_exception.h
;	COMDAT ??0bad_array_new_length@std@@QEAA@XZ
_TEXT	SEGMENT
this$ = 224
??0bad_array_new_length@std@@QEAA@XZ PROC		; std::bad_array_new_length::bad_array_new_length, COMDAT

; 141  :     {

$LN3:
  00000	48 89 4c 24 08	 mov	 QWORD PTR [rsp+8], rcx
  00005	55		 push	 rbp
  00006	57		 push	 rdi
  00007	48 81 ec e8 00
	00 00		 sub	 rsp, 232		; 000000e8H
  0000e	48 8d 6c 24 20	 lea	 rbp, QWORD PTR [rsp+32]
  00013	48 8b fc	 mov	 rdi, rsp
  00016	b9 3a 00 00 00	 mov	 ecx, 58			; 0000003aH
  0001b	b8 cc cc cc cc	 mov	 eax, -858993460		; ccccccccH
  00020	f3 ab		 rep stosd
  00022	48 8b 8c 24 08
	01 00 00	 mov	 rcx, QWORD PTR [rsp+264]
  0002a	48 8d 0d 00 00
	00 00		 lea	 rcx, OFFSET FLAT:__18D87206_vcruntime_exception@h
  00031	e8 00 00 00 00	 call	 __CheckForDebuggerJustMyCode

; 140  :         : bad_alloc("bad array new length")

  00036	48 8d 15 00 00
	00 00		 lea	 rdx, OFFSET FLAT:??_C@_0BF@KINCDENJ@bad?5array?5new?5length@
  0003d	48 8b 8d e0 00
	00 00		 mov	 rcx, QWORD PTR this$[rbp]
  00044	e8 00 00 00 00	 call	 ??0bad_alloc@std@@AEAA@QEBD@Z ; std::bad_alloc::bad_alloc

; 141  :     {

  00049	48 8b 85 e0 00
	00 00		 mov	 rax, QWORD PTR this$[rbp]
  00050	48 8d 0d 00 00
	00 00		 lea	 rcx, OFFSET FLAT:??_7bad_array_new_length@std@@6B@
  00057	48 89 08	 mov	 QWORD PTR [rax], rcx

; 142  :     }

  0005a	48 8b 85 e0 00
	00 00		 mov	 rax, QWORD PTR this$[rbp]
  00061	48 8d a5 c8 00
	00 00		 lea	 rsp, QWORD PTR [rbp+200]
  00068	5f		 pop	 rdi
  00069	5d		 pop	 rbp
  0006a	c3		 ret	 0
??0bad_array_new_length@std@@QEAA@XZ ENDP		; std::bad_array_new_length::bad_array_new_length
_TEXT	ENDS
; Function compile flags: /Odtp /RTCsu /ZI
;	COMDAT ??_Gbad_alloc@std@@UEAAPEAXI@Z
_TEXT	SEGMENT
this$ = 224
__flags$ = 232
??_Gbad_alloc@std@@UEAAPEAXI@Z PROC			; std::bad_alloc::`scalar deleting destructor', COMDAT
$LN4:
  00000	89 54 24 10	 mov	 DWORD PTR [rsp+16], edx
  00004	48 89 4c 24 08	 mov	 QWORD PTR [rsp+8], rcx
  00009	55		 push	 rbp
  0000a	57		 push	 rdi
  0000b	48 81 ec e8 00
	00 00		 sub	 rsp, 232		; 000000e8H
  00012	48 8d 6c 24 20	 lea	 rbp, QWORD PTR [rsp+32]
  00017	48 8b fc	 mov	 rdi, rsp
  0001a	b9 3a 00 00 00	 mov	 ecx, 58			; 0000003aH
  0001f	b8 cc cc cc cc	 mov	 eax, -858993460		; ccccccccH
  00024	f3 ab		 rep stosd
  00026	48 8b 8c 24 08
	01 00 00	 mov	 rcx, QWORD PTR [rsp+264]
  0002e	48 8b 8d e0 00
	00 00		 mov	 rcx, QWORD PTR this$[rbp]
  00035	e8 00 00 00 00	 call	 ??1bad_alloc@std@@UEAA@XZ
  0003a	8b 85 e8 00 00
	00		 mov	 eax, DWORD PTR __flags$[rbp]
  00040	83 e0 01	 and	 eax, 1
  00043	85 c0		 test	 eax, eax
  00045	74 11		 je	 SHORT $LN2@scalar
  00047	ba 18 00 00 00	 mov	 edx, 24
  0004c	48 8b 8d e0 00
	00 00		 mov	 rcx, QWORD PTR this$[rbp]
  00053	e8 00 00 00 00	 call	 ??3@YAXPEAX_K@Z		; operator delete
$LN2@scalar:
  00058	48 8b 85 e0 00
	00 00		 mov	 rax, QWORD PTR this$[rbp]
  0005f	48 8d a5 c8 00
	00 00		 lea	 rsp, QWORD PTR [rbp+200]
  00066	5f		 pop	 rdi
  00067	5d		 pop	 rbp
  00068	c3		 ret	 0
??_Gbad_alloc@std@@UEAAPEAXI@Z ENDP			; std::bad_alloc::`scalar deleting destructor'
_TEXT	ENDS
; Function compile flags: /Odtp /RTCsu /ZI
;	COMDAT ??0bad_alloc@std@@QEAA@AEBV01@@Z
_TEXT	SEGMENT
this$ = 224
__that$ = 232
??0bad_alloc@std@@QEAA@AEBV01@@Z PROC			; std::bad_alloc::bad_alloc, COMDAT
$LN3:
  00000	48 89 54 24 10	 mov	 QWORD PTR [rsp+16], rdx
  00005	48 89 4c 24 08	 mov	 QWORD PTR [rsp+8], rcx
  0000a	55		 push	 rbp
  0000b	57		 push	 rdi
  0000c	48 81 ec e8 00
	00 00		 sub	 rsp, 232		; 000000e8H
  00013	48 8d 6c 24 20	 lea	 rbp, QWORD PTR [rsp+32]
  00018	48 8b fc	 mov	 rdi, rsp
  0001b	b9 3a 00 00 00	 mov	 ecx, 58			; 0000003aH
  00020	b8 cc cc cc cc	 mov	 eax, -858993460		; ccccccccH
  00025	f3 ab		 rep stosd
  00027	48 8b 8c 24 08
	01 00 00	 mov	 rcx, QWORD PTR [rsp+264]
  0002f	48 8b 95 e8 00
	00 00		 mov	 rdx, QWORD PTR __that$[rbp]
  00036	48 8b 8d e0 00
	00 00		 mov	 rcx, QWORD PTR this$[rbp]
  0003d	e8 00 00 00 00	 call	 ??0exception@std@@QEAA@AEBV01@@Z ; std::exception::exception
  00042	48 8b 85 e0 00
	00 00		 mov	 rax, QWORD PTR this$[rbp]
  00049	48 8d 0d 00 00
	00 00		 lea	 rcx, OFFSET FLAT:??_7bad_alloc@std@@6B@
  00050	48 89 08	 mov	 QWORD PTR [rax], rcx
  00053	48 8b 85 e0 00
	00 00		 mov	 rax, QWORD PTR this$[rbp]
  0005a	48 8d a5 c8 00
	00 00		 lea	 rsp, QWORD PTR [rbp+200]
  00061	5f		 pop	 rdi
  00062	5d		 pop	 rbp
  00063	c3		 ret	 0
??0bad_alloc@std@@QEAA@AEBV01@@Z ENDP			; std::bad_alloc::bad_alloc
_TEXT	ENDS
; Function compile flags: /Odtp /RTCsu /ZI
;	COMDAT ??1bad_alloc@std@@UEAA@XZ
_TEXT	SEGMENT
this$ = 224
??1bad_alloc@std@@UEAA@XZ PROC				; std::bad_alloc::~bad_alloc, COMDAT
$LN3:
  00000	48 89 4c 24 08	 mov	 QWORD PTR [rsp+8], rcx
  00005	55		 push	 rbp
  00006	57		 push	 rdi
  00007	48 81 ec e8 00
	00 00		 sub	 rsp, 232		; 000000e8H
  0000e	48 8d 6c 24 20	 lea	 rbp, QWORD PTR [rsp+32]
  00013	48 8b fc	 mov	 rdi, rsp
  00016	b9 3a 00 00 00	 mov	 ecx, 58			; 0000003aH
  0001b	b8 cc cc cc cc	 mov	 eax, -858993460		; ccccccccH
  00020	f3 ab		 rep stosd
  00022	48 8b 8c 24 08
	01 00 00	 mov	 rcx, QWORD PTR [rsp+264]
  0002a	48 8b 8d e0 00
	00 00		 mov	 rcx, QWORD PTR this$[rbp]
  00031	e8 00 00 00 00	 call	 ??1exception@std@@UEAA@XZ ; std::exception::~exception
  00036	48 8d a5 c8 00
	00 00		 lea	 rsp, QWORD PTR [rbp+200]
  0003d	5f		 pop	 rdi
  0003e	5d		 pop	 rbp
  0003f	c3		 ret	 0
??1bad_alloc@std@@UEAA@XZ ENDP				; std::bad_alloc::~bad_alloc
_TEXT	ENDS
; Function compile flags: /Odtp /RTCsu /ZI
; File C:\Program Files (x86)\Microsoft Visual Studio\2019\Enterprise\VC\Tools\MSVC\14.27.29110\include\vcruntime_exception.h
;	COMDAT ??0bad_alloc@std@@AEAA@QEBD@Z
_TEXT	SEGMENT
this$ = 224
_Message$ = 232
??0bad_alloc@std@@AEAA@QEBD@Z PROC			; std::bad_alloc::bad_alloc, COMDAT

; 130  :     {

$LN3:
  00000	48 89 54 24 10	 mov	 QWORD PTR [rsp+16], rdx
  00005	48 89 4c 24 08	 mov	 QWORD PTR [rsp+8], rcx
  0000a	55		 push	 rbp
  0000b	57		 push	 rdi
  0000c	48 81 ec e8 00
	00 00		 sub	 rsp, 232		; 000000e8H
  00013	48 8d 6c 24 20	 lea	 rbp, QWORD PTR [rsp+32]
  00018	48 8b fc	 mov	 rdi, rsp
  0001b	b9 3a 00 00 00	 mov	 ecx, 58			; 0000003aH
  00020	b8 cc cc cc cc	 mov	 eax, -858993460		; ccccccccH
  00025	f3 ab		 rep stosd
  00027	48 8b 8c 24 08
	01 00 00	 mov	 rcx, QWORD PTR [rsp+264]
  0002f	48 8d 0d 00 00
	00 00		 lea	 rcx, OFFSET FLAT:__18D87206_vcruntime_exception@h
  00036	e8 00 00 00 00	 call	 __CheckForDebuggerJustMyCode

; 129  :         : exception(_Message, 1)

  0003b	41 b8 01 00 00
	00		 mov	 r8d, 1
  00041	48 8b 95 e8 00
	00 00		 mov	 rdx, QWORD PTR _Message$[rbp]
  00048	48 8b 8d e0 00
	00 00		 mov	 rcx, QWORD PTR this$[rbp]
  0004f	e8 00 00 00 00	 call	 ??0exception@std@@QEAA@QEBDH@Z ; std::exception::exception

; 130  :     {

  00054	48 8b 85 e0 00
	00 00		 mov	 rax, QWORD PTR this$[rbp]
  0005b	48 8d 0d 00 00
	00 00		 lea	 rcx, OFFSET FLAT:??_7bad_alloc@std@@6B@
  00062	48 89 08	 mov	 QWORD PTR [rax], rcx

; 131  :     }

  00065	48 8b 85 e0 00
	00 00		 mov	 rax, QWORD PTR this$[rbp]
  0006c	48 8d a5 c8 00
	00 00		 lea	 rsp, QWORD PTR [rbp+200]
  00073	5f		 pop	 rdi
  00074	5d		 pop	 rbp
  00075	c3		 ret	 0
??0bad_alloc@std@@AEAA@QEBD@Z ENDP			; std::bad_alloc::bad_alloc
_TEXT	ENDS
; Function compile flags: /Odtp /RTCsu /ZI
;	COMDAT ??_Gexception@std@@UEAAPEAXI@Z
_TEXT	SEGMENT
this$ = 224
__flags$ = 232
??_Gexception@std@@UEAAPEAXI@Z PROC			; std::exception::`scalar deleting destructor', COMDAT
$LN4:
  00000	89 54 24 10	 mov	 DWORD PTR [rsp+16], edx
  00004	48 89 4c 24 08	 mov	 QWORD PTR [rsp+8], rcx
  00009	55		 push	 rbp
  0000a	57		 push	 rdi
  0000b	48 81 ec e8 00
	00 00		 sub	 rsp, 232		; 000000e8H
  00012	48 8d 6c 24 20	 lea	 rbp, QWORD PTR [rsp+32]
  00017	48 8b fc	 mov	 rdi, rsp
  0001a	b9 3a 00 00 00	 mov	 ecx, 58			; 0000003aH
  0001f	b8 cc cc cc cc	 mov	 eax, -858993460		; ccccccccH
  00024	f3 ab		 rep stosd
  00026	48 8b 8c 24 08
	01 00 00	 mov	 rcx, QWORD PTR [rsp+264]
  0002e	48 8b 8d e0 00
	00 00		 mov	 rcx, QWORD PTR this$[rbp]
  00035	e8 00 00 00 00	 call	 ??1exception@std@@UEAA@XZ ; std::exception::~exception
  0003a	8b 85 e8 00 00
	00		 mov	 eax, DWORD PTR __flags$[rbp]
  00040	83 e0 01	 and	 eax, 1
  00043	85 c0		 test	 eax, eax
  00045	74 11		 je	 SHORT $LN2@scalar
  00047	ba 18 00 00 00	 mov	 edx, 24
  0004c	48 8b 8d e0 00
	00 00		 mov	 rcx, QWORD PTR this$[rbp]
  00053	e8 00 00 00 00	 call	 ??3@YAXPEAX_K@Z		; operator delete
$LN2@scalar:
  00058	48 8b 85 e0 00
	00 00		 mov	 rax, QWORD PTR this$[rbp]
  0005f	48 8d a5 c8 00
	00 00		 lea	 rsp, QWORD PTR [rbp+200]
  00066	5f		 pop	 rdi
  00067	5d		 pop	 rbp
  00068	c3		 ret	 0
??_Gexception@std@@UEAAPEAXI@Z ENDP			; std::exception::`scalar deleting destructor'
_TEXT	ENDS
; Function compile flags: /Odtp /RTCsu /ZI
; File C:\Program Files (x86)\Microsoft Visual Studio\2019\Enterprise\VC\Tools\MSVC\14.27.29110\include\vcruntime_exception.h
;	COMDAT ?what@exception@std@@UEBAPEBDXZ
_TEXT	SEGMENT
tv69 = 192
this$ = 240
?what@exception@std@@UEBAPEBDXZ PROC			; std::exception::what, COMDAT

; 94   :     {

$LN5:
  00000	48 89 4c 24 08	 mov	 QWORD PTR [rsp+8], rcx
  00005	55		 push	 rbp
  00006	57		 push	 rdi
  00007	48 81 ec f8 00
	00 00		 sub	 rsp, 248		; 000000f8H
  0000e	48 8d 6c 24 20	 lea	 rbp, QWORD PTR [rsp+32]
  00013	48 8b fc	 mov	 rdi, rsp
  00016	b9 3e 00 00 00	 mov	 ecx, 62			; 0000003eH
  0001b	b8 cc cc cc cc	 mov	 eax, -858993460		; ccccccccH
  00020	f3 ab		 rep stosd
  00022	48 8b 8c 24 18
	01 00 00	 mov	 rcx, QWORD PTR [rsp+280]
  0002a	48 8d 0d 00 00
	00 00		 lea	 rcx, OFFSET FLAT:__18D87206_vcruntime_exception@h
  00031	e8 00 00 00 00	 call	 __CheckForDebuggerJustMyCode

; 95   :         return _Data._What ? _Data._What : "Unknown exception";

  00036	48 8b 85 f0 00
	00 00		 mov	 rax, QWORD PTR this$[rbp]
  0003d	48 83 78 08 00	 cmp	 QWORD PTR [rax+8], 0
  00042	74 14		 je	 SHORT $LN3@what
  00044	48 8b 85 f0 00
	00 00		 mov	 rax, QWORD PTR this$[rbp]
  0004b	48 8b 40 08	 mov	 rax, QWORD PTR [rax+8]
  0004f	48 89 85 c0 00
	00 00		 mov	 QWORD PTR tv69[rbp], rax
  00056	eb 0e		 jmp	 SHORT $LN4@what
$LN3@what:
  00058	48 8d 05 00 00
	00 00		 lea	 rax, OFFSET FLAT:??_C@_0BC@EOODALEL@Unknown?5exception@
  0005f	48 89 85 c0 00
	00 00		 mov	 QWORD PTR tv69[rbp], rax
$LN4@what:
  00066	48 8b 85 c0 00
	00 00		 mov	 rax, QWORD PTR tv69[rbp]

; 96   :     }

  0006d	48 8d a5 d8 00
	00 00		 lea	 rsp, QWORD PTR [rbp+216]
  00074	5f		 pop	 rdi
  00075	5d		 pop	 rbp
  00076	c3		 ret	 0
?what@exception@std@@UEBAPEBDXZ ENDP			; std::exception::what
_TEXT	ENDS
; Function compile flags: /Odtp /RTCsu /ZI
; File C:\Program Files (x86)\Microsoft Visual Studio\2019\Enterprise\VC\Tools\MSVC\14.27.29110\include\vcruntime_exception.h
;	COMDAT ??1exception@std@@UEAA@XZ
_TEXT	SEGMENT
this$ = 224
??1exception@std@@UEAA@XZ PROC				; std::exception::~exception, COMDAT

; 89   :     {

$LN3:
  00000	48 89 4c 24 08	 mov	 QWORD PTR [rsp+8], rcx
  00005	55		 push	 rbp
  00006	57		 push	 rdi
  00007	48 81 ec e8 00
	00 00		 sub	 rsp, 232		; 000000e8H
  0000e	48 8d 6c 24 20	 lea	 rbp, QWORD PTR [rsp+32]
  00013	48 8b fc	 mov	 rdi, rsp
  00016	b9 3a 00 00 00	 mov	 ecx, 58			; 0000003aH
  0001b	b8 cc cc cc cc	 mov	 eax, -858993460		; ccccccccH
  00020	f3 ab		 rep stosd
  00022	48 8b 8c 24 08
	01 00 00	 mov	 rcx, QWORD PTR [rsp+264]
  0002a	48 8d 0d 00 00
	00 00		 lea	 rcx, OFFSET FLAT:__18D87206_vcruntime_exception@h
  00031	e8 00 00 00 00	 call	 __CheckForDebuggerJustMyCode
  00036	48 8b 85 e0 00
	00 00		 mov	 rax, QWORD PTR this$[rbp]
  0003d	48 8d 0d 00 00
	00 00		 lea	 rcx, OFFSET FLAT:??_7exception@std@@6B@
  00044	48 89 08	 mov	 QWORD PTR [rax], rcx

; 90   :         __std_exception_destroy(&_Data);

  00047	48 8b 85 e0 00
	00 00		 mov	 rax, QWORD PTR this$[rbp]
  0004e	48 83 c0 08	 add	 rax, 8
  00052	48 8b c8	 mov	 rcx, rax
  00055	e8 00 00 00 00	 call	 __std_exception_destroy
  0005a	90		 npad	 1

; 91   :     }

  0005b	48 8d a5 c8 00
	00 00		 lea	 rsp, QWORD PTR [rbp+200]
  00062	5f		 pop	 rdi
  00063	5d		 pop	 rbp
  00064	c3		 ret	 0
??1exception@std@@UEAA@XZ ENDP				; std::exception::~exception
_TEXT	ENDS
; Function compile flags: /Odtp /RTCsu /ZI
; File C:\Program Files (x86)\Microsoft Visual Studio\2019\Enterprise\VC\Tools\MSVC\14.27.29110\include\vcruntime_exception.h
;	COMDAT ??0exception@std@@QEAA@AEBV01@@Z
_TEXT	SEGMENT
this$ = 224
_Other$ = 232
??0exception@std@@QEAA@AEBV01@@Z PROC			; std::exception::exception, COMDAT

; 72   :     {

$LN3:
  00000	48 89 54 24 10	 mov	 QWORD PTR [rsp+16], rdx
  00005	48 89 4c 24 08	 mov	 QWORD PTR [rsp+8], rcx
  0000a	55		 push	 rbp
  0000b	57		 push	 rdi
  0000c	48 81 ec e8 00
	00 00		 sub	 rsp, 232		; 000000e8H
  00013	48 8d 6c 24 20	 lea	 rbp, QWORD PTR [rsp+32]
  00018	48 8b fc	 mov	 rdi, rsp
  0001b	b9 3a 00 00 00	 mov	 ecx, 58			; 0000003aH
  00020	b8 cc cc cc cc	 mov	 eax, -858993460		; ccccccccH
  00025	f3 ab		 rep stosd
  00027	48 8b 8c 24 08
	01 00 00	 mov	 rcx, QWORD PTR [rsp+264]
  0002f	48 8d 0d 00 00
	00 00		 lea	 rcx, OFFSET FLAT:__18D87206_vcruntime_exception@h
  00036	e8 00 00 00 00	 call	 __CheckForDebuggerJustMyCode
  0003b	48 8b 85 e0 00
	00 00		 mov	 rax, QWORD PTR this$[rbp]
  00042	48 8d 0d 00 00
	00 00		 lea	 rcx, OFFSET FLAT:??_7exception@std@@6B@
  00049	48 89 08	 mov	 QWORD PTR [rax], rcx

; 71   :         : _Data()

  0004c	48 8b 85 e0 00
	00 00		 mov	 rax, QWORD PTR this$[rbp]
  00053	48 83 c0 08	 add	 rax, 8
  00057	48 8b f8	 mov	 rdi, rax
  0005a	33 c0		 xor	 eax, eax
  0005c	b9 10 00 00 00	 mov	 ecx, 16
  00061	f3 aa		 rep stosb

; 73   :         __std_exception_copy(&_Other._Data, &_Data);

  00063	48 8b 85 e0 00
	00 00		 mov	 rax, QWORD PTR this$[rbp]
  0006a	48 83 c0 08	 add	 rax, 8
  0006e	48 8b 8d e8 00
	00 00		 mov	 rcx, QWORD PTR _Other$[rbp]
  00075	48 83 c1 08	 add	 rcx, 8
  00079	48 8b d0	 mov	 rdx, rax
  0007c	e8 00 00 00 00	 call	 __std_exception_copy

; 74   :     }

  00081	48 8b 85 e0 00
	00 00		 mov	 rax, QWORD PTR this$[rbp]
  00088	48 8d a5 c8 00
	00 00		 lea	 rsp, QWORD PTR [rbp+200]
  0008f	5f		 pop	 rdi
  00090	5d		 pop	 rbp
  00091	c3		 ret	 0
??0exception@std@@QEAA@AEBV01@@Z ENDP			; std::exception::exception
_TEXT	ENDS
; Function compile flags: /Odtp /RTCsu /ZI
; File C:\Program Files (x86)\Microsoft Visual Studio\2019\Enterprise\VC\Tools\MSVC\14.27.29110\include\vcruntime_exception.h
;	COMDAT ??0exception@std@@QEAA@QEBDH@Z
_TEXT	SEGMENT
this$ = 224
_Message$ = 232
__formal$ = 240
??0exception@std@@QEAA@QEBDH@Z PROC			; std::exception::exception, COMDAT

; 66   :     {

$LN3:
  00000	44 89 44 24 18	 mov	 DWORD PTR [rsp+24], r8d
  00005	48 89 54 24 10	 mov	 QWORD PTR [rsp+16], rdx
  0000a	48 89 4c 24 08	 mov	 QWORD PTR [rsp+8], rcx
  0000f	55		 push	 rbp
  00010	57		 push	 rdi
  00011	48 81 ec e8 00
	00 00		 sub	 rsp, 232		; 000000e8H
  00018	48 8d 6c 24 20	 lea	 rbp, QWORD PTR [rsp+32]
  0001d	48 8b fc	 mov	 rdi, rsp
  00020	b9 3a 00 00 00	 mov	 ecx, 58			; 0000003aH
  00025	b8 cc cc cc cc	 mov	 eax, -858993460		; ccccccccH
  0002a	f3 ab		 rep stosd
  0002c	48 8b 8c 24 08
	01 00 00	 mov	 rcx, QWORD PTR [rsp+264]
  00034	48 8d 0d 00 00
	00 00		 lea	 rcx, OFFSET FLAT:__18D87206_vcruntime_exception@h
  0003b	e8 00 00 00 00	 call	 __CheckForDebuggerJustMyCode
  00040	48 8b 85 e0 00
	00 00		 mov	 rax, QWORD PTR this$[rbp]
  00047	48 8d 0d 00 00
	00 00		 lea	 rcx, OFFSET FLAT:??_7exception@std@@6B@
  0004e	48 89 08	 mov	 QWORD PTR [rax], rcx

; 65   :         : _Data()

  00051	48 8b 85 e0 00
	00 00		 mov	 rax, QWORD PTR this$[rbp]
  00058	48 83 c0 08	 add	 rax, 8
  0005c	48 8b f8	 mov	 rdi, rax
  0005f	33 c0		 xor	 eax, eax
  00061	b9 10 00 00 00	 mov	 ecx, 16
  00066	f3 aa		 rep stosb

; 67   :         _Data._What = _Message;

  00068	48 8b 85 e0 00
	00 00		 mov	 rax, QWORD PTR this$[rbp]
  0006f	48 8b 8d e8 00
	00 00		 mov	 rcx, QWORD PTR _Message$[rbp]
  00076	48 89 48 08	 mov	 QWORD PTR [rax+8], rcx

; 68   :     }

  0007a	48 8b 85 e0 00
	00 00		 mov	 rax, QWORD PTR this$[rbp]
  00081	48 8d a5 c8 00
	00 00		 lea	 rsp, QWORD PTR [rbp+200]
  00088	5f		 pop	 rdi
  00089	5d		 pop	 rbp
  0008a	c3		 ret	 0
??0exception@std@@QEAA@QEBDH@Z ENDP			; std::exception::exception
_TEXT	ENDS
; Function compile flags: /Odtp /RTCsu /ZI
; File C:\Program Files (x86)\Microsoft Visual Studio\2019\Enterprise\VC\Tools\MSVC\14.27.29110\include\limits
;	COMDAT ?max@?$numeric_limits@_J@std@@SA_JXZ
_TEXT	SEGMENT
?max@?$numeric_limits@_J@std@@SA_JXZ PROC		; std::numeric_limits<__int64>::max, COMDAT

; 645  :     _NODISCARD static constexpr long long(max)() noexcept {

$LN3:
  00000	40 55		 push	 rbp
  00002	57		 push	 rdi
  00003	48 81 ec e8 00
	00 00		 sub	 rsp, 232		; 000000e8H
  0000a	48 8d 6c 24 20	 lea	 rbp, QWORD PTR [rsp+32]
  0000f	48 8b fc	 mov	 rdi, rsp
  00012	b9 3a 00 00 00	 mov	 ecx, 58			; 0000003aH
  00017	b8 cc cc cc cc	 mov	 eax, -858993460		; ccccccccH
  0001c	f3 ab		 rep stosd
  0001e	48 8d 0d 00 00
	00 00		 lea	 rcx, OFFSET FLAT:__5E219BC0_limits
  00025	e8 00 00 00 00	 call	 __CheckForDebuggerJustMyCode

; 646  :         return LLONG_MAX;

  0002a	48 b8 ff ff ff
	ff ff ff ff 7f	 mov	 rax, 9223372036854775807 ; 7fffffffffffffffH

; 647  :     }

  00034	48 8d a5 c8 00
	00 00		 lea	 rsp, QWORD PTR [rbp+200]
  0003b	5f		 pop	 rdi
  0003c	5d		 pop	 rbp
  0003d	c3		 ret	 0
?max@?$numeric_limits@_J@std@@SA_JXZ ENDP		; std::numeric_limits<__int64>::max
_TEXT	ENDS
; Function compile flags: /Odtp /RTCsu /ZI
; File C:\Program Files (x86)\Microsoft Visual Studio\2019\Enterprise\VC\Tools\MSVC\14.27.29110\include\vcruntime_new.h
;	COMDAT ??2@YAPEAX_KPEAX@Z
_TEXT	SEGMENT
_Size$ = 224
_Where$ = 232
??2@YAPEAX_KPEAX@Z PROC					; operator new, COMDAT

; 167  :     {

$LN4:
  00000	48 89 54 24 10	 mov	 QWORD PTR [rsp+16], rdx
  00005	48 89 4c 24 08	 mov	 QWORD PTR [rsp+8], rcx
  0000a	55		 push	 rbp
  0000b	57		 push	 rdi
  0000c	48 81 ec e8 00
	00 00		 sub	 rsp, 232		; 000000e8H
  00013	48 8d 6c 24 20	 lea	 rbp, QWORD PTR [rsp+32]
  00018	48 8b fc	 mov	 rdi, rsp
  0001b	b9 3a 00 00 00	 mov	 ecx, 58			; 0000003aH
  00020	b8 cc cc cc cc	 mov	 eax, -858993460		; ccccccccH
  00025	f3 ab		 rep stosd
  00027	48 8b 8c 24 08
	01 00 00	 mov	 rcx, QWORD PTR [rsp+264]
  0002f	48 8d 0d 00 00
	00 00		 lea	 rcx, OFFSET FLAT:__FC8B975D_vcruntime_new@h
  00036	e8 00 00 00 00	 call	 __CheckForDebuggerJustMyCode

; 168  :         (void)_Size;
; 169  :         return _Where;

  0003b	48 8b 85 e8 00
	00 00		 mov	 rax, QWORD PTR _Where$[rbp]

; 170  :     }

  00042	48 8d a5 c8 00
	00 00		 lea	 rsp, QWORD PTR [rbp+200]
  00049	5f		 pop	 rdi
  0004a	5d		 pop	 rbp
  0004b	c3		 ret	 0
??2@YAPEAX_KPEAX@Z ENDP					; operator new
_TEXT	ENDS
; Function compile flags: /Odtp /RTCsu /ZI
; File C:\Program Files (x86)\Windows Kits\10\Include\10.0.18362.0\ucrt\wchar.h
;	COMDAT wmemcpy
_TEXT	SEGMENT
_S1$ = 224
_S2$ = 232
_N$ = 240
wmemcpy	PROC						; COMDAT

; 230  :     {

$LN4:
  00000	4c 89 44 24 18	 mov	 QWORD PTR [rsp+24], r8
  00005	48 89 54 24 10	 mov	 QWORD PTR [rsp+16], rdx
  0000a	48 89 4c 24 08	 mov	 QWORD PTR [rsp+8], rcx
  0000f	55		 push	 rbp
  00010	57		 push	 rdi
  00011	48 81 ec e8 00
	00 00		 sub	 rsp, 232		; 000000e8H
  00018	48 8d 6c 24 20	 lea	 rbp, QWORD PTR [rsp+32]
  0001d	48 8b fc	 mov	 rdi, rsp
  00020	b9 3a 00 00 00	 mov	 ecx, 58			; 0000003aH
  00025	b8 cc cc cc cc	 mov	 eax, -858993460		; ccccccccH
  0002a	f3 ab		 rep stosd
  0002c	48 8b 8c 24 08
	01 00 00	 mov	 rcx, QWORD PTR [rsp+264]
  00034	48 8d 0d 00 00
	00 00		 lea	 rcx, OFFSET FLAT:__534C724A_wchar@h
  0003b	e8 00 00 00 00	 call	 __CheckForDebuggerJustMyCode

; 231  :         #pragma warning(push)
; 232  :         #pragma warning(disable : 4995 4996 6386)
; 233  :         return (wchar_t*)memcpy(_S1, _S2, _N*sizeof(wchar_t));

  00040	48 8b 85 f0 00
	00 00		 mov	 rax, QWORD PTR _N$[rbp]
  00047	48 d1 e0	 shl	 rax, 1
  0004a	4c 8b c0	 mov	 r8, rax
  0004d	48 8b 95 e8 00
	00 00		 mov	 rdx, QWORD PTR _S2$[rbp]
  00054	48 8b 8d e0 00
	00 00		 mov	 rcx, QWORD PTR _S1$[rbp]
  0005b	e8 00 00 00 00	 call	 memcpy

; 234  :         #pragma warning(pop)
; 235  :     }

  00060	48 8d a5 c8 00
	00 00		 lea	 rsp, QWORD PTR [rbp+200]
  00067	5f		 pop	 rdi
  00068	5d		 pop	 rbp
  00069	c3		 ret	 0
wmemcpy	ENDP
_TEXT	ENDS
; Function compile flags: /Odtp /RTCsu /ZI
; File C:\Users\Skvortsoff\OneDrive\\GitHub\course_LP\course_LP\In.cpp
;	COMDAT ?__empty_global_delete@@YAXPEAX_K@Z
_TEXT	SEGMENT
__formal$ = 224
__formal$ = 232
?__empty_global_delete@@YAXPEAX_K@Z PROC		; __empty_global_delete, COMDAT

$LN4:
  00000	48 89 54 24 10	 mov	 QWORD PTR [rsp+16], rdx
  00005	48 89 4c 24 08	 mov	 QWORD PTR [rsp+8], rcx
  0000a	55		 push	 rbp
  0000b	57		 push	 rdi
  0000c	48 81 ec e8 00
	00 00		 sub	 rsp, 232		; 000000e8H
  00013	48 8d 6c 24 20	 lea	 rbp, QWORD PTR [rsp+32]
  00018	48 8b fc	 mov	 rdi, rsp
  0001b	b9 3a 00 00 00	 mov	 ecx, 58			; 0000003aH
  00020	b8 cc cc cc cc	 mov	 eax, -858993460		; ccccccccH
  00025	f3 ab		 rep stosd
  00027	48 8b 8c 24 08
	01 00 00	 mov	 rcx, QWORD PTR [rsp+264]
  0002f	48 8d 0d 00 00
	00 00		 lea	 rcx, OFFSET FLAT:__C7E585C7_In@cpp
  00036	e8 00 00 00 00	 call	 __CheckForDebuggerJustMyCode
  0003b	48 8d a5 c8 00
	00 00		 lea	 rsp, QWORD PTR [rbp+200]
  00042	5f		 pop	 rdi
  00043	5d		 pop	 rbp
  00044	c3		 ret	 0
?__empty_global_delete@@YAXPEAX_K@Z ENDP		; __empty_global_delete
_TEXT	ENDS
; Function compile flags: /Odtp /RTCsu /ZI
; File C:\Users\Skvortsoff\OneDrive\\GitHub\course_LP\course_LP\In.cpp
;	COMDAT ?__empty_global_delete@@YAXPEAX@Z
_TEXT	SEGMENT
__formal$ = 224
?__empty_global_delete@@YAXPEAX@Z PROC			; __empty_global_delete, COMDAT

$LN4:
  00000	48 89 4c 24 08	 mov	 QWORD PTR [rsp+8], rcx
  00005	55		 push	 rbp
  00006	57		 push	 rdi
  00007	48 81 ec e8 00
	00 00		 sub	 rsp, 232		; 000000e8H
  0000e	48 8d 6c 24 20	 lea	 rbp, QWORD PTR [rsp+32]
  00013	48 8b fc	 mov	 rdi, rsp
  00016	b9 3a 00 00 00	 mov	 ecx, 58			; 0000003aH
  0001b	b8 cc cc cc cc	 mov	 eax, -858993460		; ccccccccH
  00020	f3 ab		 rep stosd
  00022	48 8b 8c 24 08
	01 00 00	 mov	 rcx, QWORD PTR [rsp+264]
  0002a	48 8d 0d 00 00
	00 00		 lea	 rcx, OFFSET FLAT:__C7E585C7_In@cpp
  00031	e8 00 00 00 00	 call	 __CheckForDebuggerJustMyCode
  00036	48 8d a5 c8 00
	00 00		 lea	 rsp, QWORD PTR [rbp+200]
  0003d	5f		 pop	 rdi
  0003e	5d		 pop	 rbp
  0003f	c3		 ret	 0
?__empty_global_delete@@YAXPEAX@Z ENDP			; __empty_global_delete
_TEXT	ENDS
END
