; Listing generated by Microsoft (R) Optimizing Compiler Version 19.27.29112.0 

include listing.inc

INCLUDELIB MSVCRTD
INCLUDELIB OLDNAMES

msvcjmc	SEGMENT
__20961129_GRB@h DB 01H
__FC8B975D_vcruntime_new@h DB 01H
__367CC694_corecrt_memcpy_s@h DB 01H
__35D7DDB3_corecrt_memory@h DB 01H
__DC9673E3_corecrt_wstring@h DB 01H
__A29A7DFB_string@h DB 01H
__7CEFA1A0_LT@h DB 01H
__09340588_corecrt_math@h DB 01H
__24E9E95F_stdlib@h DB 01H
__51019776_cstdlib DB 01H
__F66CEB67_corecrt_stdio_config@h DB 01H
__101834BA_corecrt_wstdio@h DB 01H
__AD6A91B7_stdio@h DB 01H
__5467428D_corecrt_wconio@h DB 01H
__4442441F_corecrt_wio@h DB 01H
__45F4AF76_corecrt_wtime@h DB 01H
__186FF47F_stat@h DB 01H
__534C724A_wchar@h DB 01H
__5E219BC0_limits DB 01H
__B236D4B0_type_traits DB 01H
__B0C4CEA9_malloc@h DB 01H
__18D87206_vcruntime_exception@h DB 01H
__1302BCB8_exception DB 01H
__36E77527_xutility DB 01H
__0C99713E_xmemory DB 01H
__22E0C0CC_MFST@h DB 01H
__102707BA_cmath DB 01H
__784AF7A2_xstring DB 01H
__9A4C86E5_stdexcept DB 01H
__238A5427_xcall_once@h DB 01H
__3514C702_atomic DB 01H
__9CD74607_system_error DB 01H
__7B3ADE64_vcruntime_typeinfo@h DB 01H
__4638863E_typeinfo DB 01H
__E28F974E_memory DB 01H
__CECAC041_xfacet DB 01H
__7242C389_ctype@h DB 01H
__59B165F6_xlocinfo DB 01H
__A7748393_xlocale DB 01H
__605412E5_xiosbase DB 01H
__39F3E584_xlocnum DB 01H
__D3011E72_ios DB 01H
__1291F0BC_xlocmon DB 01H
__8AA3BE86_time@h DB 01H
__FDACCCE4_xloctime DB 01H
__C15C5D01_stack DB 01H
__8F449F39_MFST@cpp DB 01H
__D7B46C6D_istream DB 01H
__B4645957_ostream DB 01H
__98EC3E59_streambuf DB 01H
__1C3F1DC9_deque DB 01H
__274BC267_iterator DB 01H
__92C84E46_iosfwd DB 01H
__660C12FD_utility DB 01H
__911385EF_xstddef DB 01H
__190E306E_xatomic@h DB 01H
msvcjmc	ENDS
PUBLIC	??_H@YAXPEAX_K1P6APEAX0@Z@Z			; `vector constructor iterator'
PUBLIC	?__empty_global_delete@@YAXPEAX@Z		; __empty_global_delete
PUBLIC	?__empty_global_delete@@YAXPEAX_K@Z		; __empty_global_delete
PUBLIC	??0Chain@Rule@GRB@@QEAA@XZ			; GRB::Rule::Chain::Chain
PUBLIC	?T@Chain@Rule@GRB@@SAFD@Z			; GRB::Rule::Chain::T
PUBLIC	?isT@Chain@Rule@GRB@@SA_NF@Z			; GRB::Rule::Chain::isT
PUBLIC	?isN@Chain@Rule@GRB@@SA_NF@Z			; GRB::Rule::Chain::isN
PUBLIC	?alphabet_to_char@Chain@Rule@GRB@@SADF@Z	; GRB::Rule::Chain::alphabet_to_char
PUBLIC	??0Rule@GRB@@QEAA@XZ				; GRB::Rule::Rule
PUBLIC	??0Greibach@GRB@@QEAA@XZ			; GRB::Greibach::Greibach
PUBLIC	??2@YAPEAX_KPEAX@Z				; operator new
PUBLIC	??0LexTable@LT@@QEAA@XZ				; LT::LexTable::LexTable
PUBLIC	__local_stdio_printf_options
PUBLIC	_vsprintf_s_l
PUBLIC	sprintf_s
PUBLIC	wmemcpy
PUBLIC	?max@?$numeric_limits@_J@std@@SA_JXZ		; std::numeric_limits<__int64>::max
PUBLIC	??0exception@std@@QEAA@QEBDH@Z			; std::exception::exception
PUBLIC	??0exception@std@@QEAA@AEBV01@@Z		; std::exception::exception
PUBLIC	??1exception@std@@UEAA@XZ			; std::exception::~exception
PUBLIC	?what@exception@std@@UEBAPEBDXZ			; std::exception::what
PUBLIC	??_Gexception@std@@UEAAPEAXI@Z			; std::exception::`scalar deleting destructor'
PUBLIC	??0bad_alloc@std@@AEAA@QEBD@Z			; std::bad_alloc::bad_alloc
PUBLIC	??1bad_alloc@std@@UEAA@XZ			; std::bad_alloc::~bad_alloc
PUBLIC	??0bad_alloc@std@@QEAA@AEBV01@@Z		; std::bad_alloc::bad_alloc
PUBLIC	??_Gbad_alloc@std@@UEAAPEAXI@Z			; std::bad_alloc::`scalar deleting destructor'
PUBLIC	??0bad_array_new_length@std@@QEAA@XZ		; std::bad_array_new_length::bad_array_new_length
PUBLIC	??1bad_array_new_length@std@@UEAA@XZ		; std::bad_array_new_length::~bad_array_new_length
PUBLIC	??0bad_array_new_length@std@@QEAA@AEBV01@@Z	; std::bad_array_new_length::bad_array_new_length
PUBLIC	??_Gbad_array_new_length@std@@UEAAPEAXI@Z	; std::bad_array_new_length::`scalar deleting destructor'
PUBLIC	?_Throw_bad_array_new_length@std@@YAXXZ		; std::_Throw_bad_array_new_length
PUBLIC	?_Allocate@_Default_allocate_traits@std@@SAPEAX_K@Z ; std::_Default_allocate_traits::_Allocate
PUBLIC	?_Adjust_manually_vector_aligned@std@@YAXAEAPEAXAEA_K@Z ; std::_Adjust_manually_vector_aligned
PUBLIC	??0_Container_proxy@std@@QEAA@PEAU_Container_base12@1@@Z ; std::_Container_proxy::_Container_proxy
PUBLIC	??0_Container_base12@std@@QEAA@XZ		; std::_Container_base12::_Container_base12
PUBLIC	?_Orphan_all@_Container_base12@std@@QEAAXXZ	; std::_Container_base12::_Orphan_all
PUBLIC	?_Swap_proxy_and_iterators@_Container_base12@std@@QEAAXAEAU12@@Z ; std::_Container_base12::_Swap_proxy_and_iterators
PUBLIC	?_Release@_Basic_container_proxy_ptr12@std@@QEAAXXZ ; std::_Basic_container_proxy_ptr12::_Release
PUBLIC	??$addressof@U_Container_base12@std@@@std@@YAPEAU_Container_base12@0@AEAU10@@Z ; std::addressof<std::_Container_base12>
PUBLIC	??$_Construct_in_place@U_Container_proxy@std@@PEAU_Container_base12@2@@std@@YAXAEAU_Container_proxy@0@$$QEAPEAU_Container_base12@0@@Z ; std::_Construct_in_place<std::_Container_proxy,std::_Container_base12 *>
PUBLIC	??0?$allocator@F@std@@QEAA@XZ			; std::allocator<short>::allocator<short>
PUBLIC	?deallocate@?$allocator@F@std@@QEAAXQEAF_K@Z	; std::allocator<short>::deallocate
PUBLIC	?allocate@?$allocator@F@std@@QEAAPEAF_K@Z	; std::allocator<short>::allocate
PUBLIC	?max_size@?$_Default_allocator_traits@V?$allocator@F@std@@@std@@SA_KAEBV?$allocator@F@2@@Z ; std::_Default_allocator_traits<std::allocator<short> >::max_size
PUBLIC	?select_on_container_copy_construction@?$_Default_allocator_traits@V?$allocator@F@std@@@std@@SA?AV?$allocator@F@2@AEBV32@@Z ; std::_Default_allocator_traits<std::allocator<short> >::select_on_container_copy_construction
PUBLIC	?deallocate@?$allocator@PEAF@std@@QEAAXQEAPEAF_K@Z ; std::allocator<short *>::deallocate
PUBLIC	?allocate@?$allocator@PEAF@std@@QEAAPEAPEAF_K@Z	; std::allocator<short *>::allocate
PUBLIC	??0?$deque@FV?$allocator@F@std@@@std@@QEAA@XZ	; std::deque<short,std::allocator<short> >::deque<short,std::allocator<short> >
PUBLIC	??0?$deque@FV?$allocator@F@std@@@std@@QEAA@AEBV01@@Z ; std::deque<short,std::allocator<short> >::deque<short,std::allocator<short> >
PUBLIC	?_Move_assign@?$deque@FV?$allocator@F@std@@@std@@AEAAXAEAV12@U_Equal_allocators@2@@Z ; std::deque<short,std::allocator<short> >::_Move_assign
PUBLIC	??4?$deque@FV?$allocator@F@std@@@std@@QEAAAEAV01@$$QEAV01@@Z ; std::deque<short,std::allocator<short> >::operator=
PUBLIC	?_Take_contents@?$deque@FV?$allocator@F@std@@@std@@AEAAXAEAV12@@Z ; std::deque<short,std::allocator<short> >::_Take_contents
PUBLIC	??1?$deque@FV?$allocator@F@std@@@std@@QEAA@XZ	; std::deque<short,std::allocator<short> >::~deque<short,std::allocator<short> >
PUBLIC	?_Copy_assign@?$deque@FV?$allocator@F@std@@@std@@QEAAXAEBV12@U?$integral_constant@_N$0A@@2@@Z ; std::deque<short,std::allocator<short> >::_Copy_assign
PUBLIC	??4?$deque@FV?$allocator@F@std@@@std@@QEAAAEAV01@AEBV01@@Z ; std::deque<short,std::allocator<short> >::operator=
PUBLIC	?_Unchecked_begin@?$deque@FV?$allocator@F@std@@@std@@QEAA?AV?$_Deque_unchecked_iterator@V?$_Deque_val@U?$_Deque_simple_types@F@std@@@std@@@2@XZ ; std::deque<short,std::allocator<short> >::_Unchecked_begin
PUBLIC	?_Unchecked_begin@?$deque@FV?$allocator@F@std@@@std@@QEBA?AV?$_Deque_unchecked_const_iterator@V?$_Deque_val@U?$_Deque_simple_types@F@std@@@std@@@2@XZ ; std::deque<short,std::allocator<short> >::_Unchecked_begin
PUBLIC	?_Unchecked_end@?$deque@FV?$allocator@F@std@@@std@@QEAA?AV?$_Deque_unchecked_iterator@V?$_Deque_val@U?$_Deque_simple_types@F@std@@@std@@@2@XZ ; std::deque<short,std::allocator<short> >::_Unchecked_end
PUBLIC	?_Unchecked_end@?$deque@FV?$allocator@F@std@@@std@@QEBA?AV?$_Deque_unchecked_const_iterator@V?$_Deque_val@U?$_Deque_simple_types@F@std@@@std@@@2@XZ ; std::deque<short,std::allocator<short> >::_Unchecked_end
PUBLIC	?size@?$deque@FV?$allocator@F@std@@@std@@QEBA_KXZ ; std::deque<short,std::allocator<short> >::size
PUBLIC	?max_size@?$deque@FV?$allocator@F@std@@@std@@QEBA_KXZ ; std::deque<short,std::allocator<short> >::max_size
PUBLIC	?empty@?$deque@FV?$allocator@F@std@@@std@@QEBA_NXZ ; std::deque<short,std::allocator<short> >::empty
PUBLIC	?back@?$deque@FV?$allocator@F@std@@@std@@QEAAAEAFXZ ; std::deque<short,std::allocator<short> >::back
PUBLIC	?push_back@?$deque@FV?$allocator@F@std@@@std@@QEAAXAEBF@Z ; std::deque<short,std::allocator<short> >::push_back
PUBLIC	?pop_back@?$deque@FV?$allocator@F@std@@@std@@QEAAXXZ ; std::deque<short,std::allocator<short> >::pop_back
PUBLIC	?_Erase_last_n@?$deque@FV?$allocator@F@std@@@std@@AEAAX_K@Z ; std::deque<short,std::allocator<short> >::_Erase_last_n
PUBLIC	?_Xlen@?$deque@FV?$allocator@F@std@@@std@@AEBAXXZ ; std::deque<short,std::allocator<short> >::_Xlen
PUBLIC	?_Growmap@?$deque@FV?$allocator@F@std@@@std@@AEAAX_K@Z ; std::deque<short,std::allocator<short> >::_Growmap
PUBLIC	?_Tidy@?$deque@FV?$allocator@F@std@@@std@@AEAAXXZ ; std::deque<short,std::allocator<short> >::_Tidy
PUBLIC	?_Orphan_off@?$deque@FV?$allocator@F@std@@@std@@AEBAX_K@Z ; std::deque<short,std::allocator<short> >::_Orphan_off
PUBLIC	?_Getblock@?$deque@FV?$allocator@F@std@@@std@@AEBA_K_K@Z ; std::deque<short,std::allocator<short> >::_Getblock
PUBLIC	?_Orphan_all@?$deque@FV?$allocator@F@std@@@std@@AEAAXXZ ; std::deque<short,std::allocator<short> >::_Orphan_all
PUBLIC	?_Getal@?$deque@FV?$allocator@F@std@@@std@@AEAAAEAV?$allocator@F@2@XZ ; std::deque<short,std::allocator<short> >::_Getal
PUBLIC	?_Getal@?$deque@FV?$allocator@F@std@@@std@@AEBAAEBV?$allocator@F@2@XZ ; std::deque<short,std::allocator<short> >::_Getal
PUBLIC	?_Get_data@?$deque@FV?$allocator@F@std@@@std@@AEAAAEAV?$_Deque_val@U?$_Deque_simple_types@F@std@@@2@XZ ; std::deque<short,std::allocator<short> >::_Get_data
PUBLIC	?_Get_data@?$deque@FV?$allocator@F@std@@@std@@AEBAAEBV?$_Deque_val@U?$_Deque_simple_types@F@std@@@2@XZ ; std::deque<short,std::allocator<short> >::_Get_data
PUBLIC	?_Map@?$deque@FV?$allocator@F@std@@@std@@AEAAAEAPEAPEAFXZ ; std::deque<short,std::allocator<short> >::_Map
PUBLIC	?_Mapsize@?$deque@FV?$allocator@F@std@@@std@@AEAAAEA_KXZ ; std::deque<short,std::allocator<short> >::_Mapsize
PUBLIC	?_Myoff@?$deque@FV?$allocator@F@std@@@std@@AEAAAEA_KXZ ; std::deque<short,std::allocator<short> >::_Myoff
PUBLIC	?_Myoff@?$deque@FV?$allocator@F@std@@@std@@AEBAAEB_KXZ ; std::deque<short,std::allocator<short> >::_Myoff
PUBLIC	?_Mysize@?$deque@FV?$allocator@F@std@@@std@@AEAAAEA_KXZ ; std::deque<short,std::allocator<short> >::_Mysize
PUBLIC	?_Mysize@?$deque@FV?$allocator@F@std@@@std@@AEBAAEB_KXZ ; std::deque<short,std::allocator<short> >::_Mysize
PUBLIC	??0?$_Deque_val@U?$_Deque_simple_types@F@std@@@std@@QEAA@XZ ; std::_Deque_val<std::_Deque_simple_types<short> >::_Deque_val<std::_Deque_simple_types<short> >
PUBLIC	?_Getblock@?$_Deque_val@U?$_Deque_simple_types@F@std@@@std@@QEBA_K_K@Z ; std::_Deque_val<std::_Deque_simple_types<short> >::_Getblock
PUBLIC	?_Get_first@?$_Compressed_pair@V?$allocator@F@std@@V?$_Deque_val@U?$_Deque_simple_types@F@std@@@2@$00@std@@QEAAAEAV?$allocator@F@2@XZ ; std::_Compressed_pair<std::allocator<short>,std::_Deque_val<std::_Deque_simple_types<short> >,1>::_Get_first
PUBLIC	?_Get_first@?$_Compressed_pair@V?$allocator@F@std@@V?$_Deque_val@U?$_Deque_simple_types@F@std@@@2@$00@std@@QEBAAEBV?$allocator@F@2@XZ ; std::_Compressed_pair<std::allocator<short>,std::_Deque_val<std::_Deque_simple_types<short> >,1>::_Get_first
PUBLIC	??0?$stack@FV?$deque@FV?$allocator@F@std@@@std@@@std@@QEAA@XZ ; std::stack<short,std::deque<short,std::allocator<short> > >::stack<short,std::deque<short,std::allocator<short> > >
PUBLIC	?size@?$stack@FV?$deque@FV?$allocator@F@std@@@std@@@std@@QEBA_KXZ ; std::stack<short,std::deque<short,std::allocator<short> > >::size
PUBLIC	?top@?$stack@FV?$deque@FV?$allocator@F@std@@@std@@@std@@QEAAAEAFXZ ; std::stack<short,std::deque<short,std::allocator<short> > >::top
PUBLIC	?push@?$stack@FV?$deque@FV?$allocator@F@std@@@std@@@std@@QEAAXAEBF@Z ; std::stack<short,std::deque<short,std::allocator<short> > >::push
PUBLIC	?pop@?$stack@FV?$deque@FV?$allocator@F@std@@@std@@@std@@QEAAXXZ ; std::stack<short,std::deque<short,std::allocator<short> > >::pop
PUBLIC	??1?$stack@FV?$deque@FV?$allocator@F@std@@@std@@@std@@QEAA@XZ ; std::stack<short,std::deque<short,std::allocator<short> > >::~stack<short,std::deque<short,std::allocator<short> > >
PUBLIC	??0?$stack@FV?$deque@FV?$allocator@F@std@@@std@@@std@@QEAA@AEBV01@@Z ; std::stack<short,std::deque<short,std::allocator<short> > >::stack<short,std::deque<short,std::allocator<short> > >
PUBLIC	??4?$stack@FV?$deque@FV?$allocator@F@std@@@std@@@std@@QEAAAEAV01@AEBV01@@Z ; std::stack<short,std::deque<short,std::allocator<short> > >::operator=
PUBLIC	??4?$stack@FV?$deque@FV?$allocator@F@std@@@std@@@std@@QEAAAEAV01@$$QEAV01@@Z ; std::stack<short,std::deque<short,std::allocator<short> > >::operator=
PUBLIC	?__autoclassinit2@?$stack@FV?$deque@FV?$allocator@F@std@@@std@@@std@@QEAAX_K@Z ; std::stack<short,std::deque<short,std::allocator<short> > >::__autoclassinit2
PUBLIC	?push@?$Stack@F@@QEAAXF@Z			; Stack<short>::push
PUBLIC	?pop@?$Stack@F@@QEAAXXZ				; Stack<short>::pop
PUBLIC	?top@?$Stack@F@@QEAAFXZ				; Stack<short>::top
PUBLIC	?size@?$Stack@F@@QEAAHXZ			; Stack<short>::size
PUBLIC	??A?$Stack@F@@QEAAFH@Z				; Stack<short>::operator[]
PUBLIC	??0?$Stack@F@@QEAA@XZ				; Stack<short>::Stack<short>
PUBLIC	??1?$Stack@F@@QEAA@XZ				; Stack<short>::~Stack<short>
PUBLIC	??0?$Stack@F@@QEAA@AEBV0@@Z			; Stack<short>::Stack<short>
PUBLIC	??4?$Stack@F@@QEAAAEAV0@AEBV0@@Z		; Stack<short>::operator=
PUBLIC	??4?$Stack@F@@QEAAAEAV0@$$QEAV0@@Z		; Stack<short>::operator=
PUBLIC	??0MFSTState@MFST@@QEAA@XZ			; MFST::MFSTState::MFSTState
PUBLIC	??0MFSTState@MFST@@QEAA@FV?$Stack@F@@F@Z	; MFST::MFSTState::MFSTState
PUBLIC	??0MFSTState@MFST@@QEAA@FV?$Stack@F@@FF@Z	; MFST::MFSTState::MFSTState
PUBLIC	??1MFSTState@MFST@@QEAA@XZ			; MFST::MFSTState::~MFSTState
PUBLIC	??0MFSTState@MFST@@QEAA@AEBU01@@Z		; MFST::MFSTState::MFSTState
PUBLIC	??4MFSTState@MFST@@QEAAAEAU01@AEBU01@@Z		; MFST::MFSTState::operator=
PUBLIC	??4MFSTState@MFST@@QEAAAEAU01@$$QEAU01@@Z	; MFST::MFSTState::operator=
PUBLIC	??_GMFSTState@MFST@@QEAAPEAXI@Z			; MFST::MFSTState::`scalar deleting destructor'
PUBLIC	??0MFST_Diagnosis@MFST@1@QEAA@XZ		; MFST::MFST::MFST_Diagnosis::MFST_Diagnosis
PUBLIC	??0MFST_Diagnosis@MFST@1@QEAA@FW4RC_STEP@11@FF@Z ; MFST::MFST::MFST_Diagnosis::MFST_Diagnosis
PUBLIC	??0?$allocator@UMFSTState@MFST@@@std@@QEAA@XZ	; std::allocator<MFST::MFSTState>::allocator<MFST::MFSTState>
PUBLIC	?deallocate@?$allocator@UMFSTState@MFST@@@std@@QEAAXQEAUMFSTState@MFST@@_K@Z ; std::allocator<MFST::MFSTState>::deallocate
PUBLIC	?allocate@?$allocator@UMFSTState@MFST@@@std@@QEAAPEAUMFSTState@MFST@@_K@Z ; std::allocator<MFST::MFSTState>::allocate
PUBLIC	?max_size@?$_Default_allocator_traits@V?$allocator@UMFSTState@MFST@@@std@@@std@@SA_KAEBV?$allocator@UMFSTState@MFST@@@2@@Z ; std::_Default_allocator_traits<std::allocator<MFST::MFSTState> >::max_size
PUBLIC	?deallocate@?$allocator@PEAUMFSTState@MFST@@@std@@QEAAXQEAPEAUMFSTState@MFST@@_K@Z ; std::allocator<MFST::MFSTState *>::deallocate
PUBLIC	?allocate@?$allocator@PEAUMFSTState@MFST@@@std@@QEAAPEAPEAUMFSTState@MFST@@_K@Z ; std::allocator<MFST::MFSTState *>::allocate
PUBLIC	??0?$deque@UMFSTState@MFST@@V?$allocator@UMFSTState@MFST@@@std@@@std@@QEAA@XZ ; std::deque<MFST::MFSTState,std::allocator<MFST::MFSTState> >::deque<MFST::MFSTState,std::allocator<MFST::MFSTState> >
PUBLIC	??1?$deque@UMFSTState@MFST@@V?$allocator@UMFSTState@MFST@@@std@@@std@@QEAA@XZ ; std::deque<MFST::MFSTState,std::allocator<MFST::MFSTState> >::~deque<MFST::MFSTState,std::allocator<MFST::MFSTState> >
PUBLIC	?_Copy_assign@?$deque@UMFSTState@MFST@@V?$allocator@UMFSTState@MFST@@@std@@@std@@QEAAXAEBV12@U?$integral_constant@_N$0A@@2@@Z ; std::deque<MFST::MFSTState,std::allocator<MFST::MFSTState> >::_Copy_assign
PUBLIC	??4?$deque@UMFSTState@MFST@@V?$allocator@UMFSTState@MFST@@@std@@@std@@QEAAAEAV01@AEBV01@@Z ; std::deque<MFST::MFSTState,std::allocator<MFST::MFSTState> >::operator=
PUBLIC	?_Unchecked_begin@?$deque@UMFSTState@MFST@@V?$allocator@UMFSTState@MFST@@@std@@@std@@QEAA?AV?$_Deque_unchecked_iterator@V?$_Deque_val@U?$_Deque_simple_types@UMFSTState@MFST@@@std@@@std@@@2@XZ ; std::deque<MFST::MFSTState,std::allocator<MFST::MFSTState> >::_Unchecked_begin
PUBLIC	?_Unchecked_begin@?$deque@UMFSTState@MFST@@V?$allocator@UMFSTState@MFST@@@std@@@std@@QEBA?AV?$_Deque_unchecked_const_iterator@V?$_Deque_val@U?$_Deque_simple_types@UMFSTState@MFST@@@std@@@std@@@2@XZ ; std::deque<MFST::MFSTState,std::allocator<MFST::MFSTState> >::_Unchecked_begin
PUBLIC	?_Unchecked_end@?$deque@UMFSTState@MFST@@V?$allocator@UMFSTState@MFST@@@std@@@std@@QEAA?AV?$_Deque_unchecked_iterator@V?$_Deque_val@U?$_Deque_simple_types@UMFSTState@MFST@@@std@@@std@@@2@XZ ; std::deque<MFST::MFSTState,std::allocator<MFST::MFSTState> >::_Unchecked_end
PUBLIC	?_Unchecked_end@?$deque@UMFSTState@MFST@@V?$allocator@UMFSTState@MFST@@@std@@@std@@QEBA?AV?$_Deque_unchecked_const_iterator@V?$_Deque_val@U?$_Deque_simple_types@UMFSTState@MFST@@@std@@@std@@@2@XZ ; std::deque<MFST::MFSTState,std::allocator<MFST::MFSTState> >::_Unchecked_end
PUBLIC	?size@?$deque@UMFSTState@MFST@@V?$allocator@UMFSTState@MFST@@@std@@@std@@QEBA_KXZ ; std::deque<MFST::MFSTState,std::allocator<MFST::MFSTState> >::size
PUBLIC	?max_size@?$deque@UMFSTState@MFST@@V?$allocator@UMFSTState@MFST@@@std@@@std@@QEBA_KXZ ; std::deque<MFST::MFSTState,std::allocator<MFST::MFSTState> >::max_size
PUBLIC	?empty@?$deque@UMFSTState@MFST@@V?$allocator@UMFSTState@MFST@@@std@@@std@@QEBA_NXZ ; std::deque<MFST::MFSTState,std::allocator<MFST::MFSTState> >::empty
PUBLIC	?back@?$deque@UMFSTState@MFST@@V?$allocator@UMFSTState@MFST@@@std@@@std@@QEAAAEAUMFSTState@MFST@@XZ ; std::deque<MFST::MFSTState,std::allocator<MFST::MFSTState> >::back
PUBLIC	?push_back@?$deque@UMFSTState@MFST@@V?$allocator@UMFSTState@MFST@@@std@@@std@@QEAAXAEBUMFSTState@MFST@@@Z ; std::deque<MFST::MFSTState,std::allocator<MFST::MFSTState> >::push_back
PUBLIC	?pop_back@?$deque@UMFSTState@MFST@@V?$allocator@UMFSTState@MFST@@@std@@@std@@QEAAXXZ ; std::deque<MFST::MFSTState,std::allocator<MFST::MFSTState> >::pop_back
PUBLIC	?_Erase_last_n@?$deque@UMFSTState@MFST@@V?$allocator@UMFSTState@MFST@@@std@@@std@@AEAAX_K@Z ; std::deque<MFST::MFSTState,std::allocator<MFST::MFSTState> >::_Erase_last_n
PUBLIC	?_Xlen@?$deque@UMFSTState@MFST@@V?$allocator@UMFSTState@MFST@@@std@@@std@@AEBAXXZ ; std::deque<MFST::MFSTState,std::allocator<MFST::MFSTState> >::_Xlen
PUBLIC	?_Growmap@?$deque@UMFSTState@MFST@@V?$allocator@UMFSTState@MFST@@@std@@@std@@AEAAX_K@Z ; std::deque<MFST::MFSTState,std::allocator<MFST::MFSTState> >::_Growmap
PUBLIC	?_Tidy@?$deque@UMFSTState@MFST@@V?$allocator@UMFSTState@MFST@@@std@@@std@@AEAAXXZ ; std::deque<MFST::MFSTState,std::allocator<MFST::MFSTState> >::_Tidy
PUBLIC	?_Orphan_off@?$deque@UMFSTState@MFST@@V?$allocator@UMFSTState@MFST@@@std@@@std@@AEBAX_K@Z ; std::deque<MFST::MFSTState,std::allocator<MFST::MFSTState> >::_Orphan_off
PUBLIC	?_Getblock@?$deque@UMFSTState@MFST@@V?$allocator@UMFSTState@MFST@@@std@@@std@@AEBA_K_K@Z ; std::deque<MFST::MFSTState,std::allocator<MFST::MFSTState> >::_Getblock
PUBLIC	?_Orphan_all@?$deque@UMFSTState@MFST@@V?$allocator@UMFSTState@MFST@@@std@@@std@@AEAAXXZ ; std::deque<MFST::MFSTState,std::allocator<MFST::MFSTState> >::_Orphan_all
PUBLIC	?_Getal@?$deque@UMFSTState@MFST@@V?$allocator@UMFSTState@MFST@@@std@@@std@@AEAAAEAV?$allocator@UMFSTState@MFST@@@2@XZ ; std::deque<MFST::MFSTState,std::allocator<MFST::MFSTState> >::_Getal
PUBLIC	?_Getal@?$deque@UMFSTState@MFST@@V?$allocator@UMFSTState@MFST@@@std@@@std@@AEBAAEBV?$allocator@UMFSTState@MFST@@@2@XZ ; std::deque<MFST::MFSTState,std::allocator<MFST::MFSTState> >::_Getal
PUBLIC	?_Get_data@?$deque@UMFSTState@MFST@@V?$allocator@UMFSTState@MFST@@@std@@@std@@AEAAAEAV?$_Deque_val@U?$_Deque_simple_types@UMFSTState@MFST@@@std@@@2@XZ ; std::deque<MFST::MFSTState,std::allocator<MFST::MFSTState> >::_Get_data
PUBLIC	?_Get_data@?$deque@UMFSTState@MFST@@V?$allocator@UMFSTState@MFST@@@std@@@std@@AEBAAEBV?$_Deque_val@U?$_Deque_simple_types@UMFSTState@MFST@@@std@@@2@XZ ; std::deque<MFST::MFSTState,std::allocator<MFST::MFSTState> >::_Get_data
PUBLIC	?_Map@?$deque@UMFSTState@MFST@@V?$allocator@UMFSTState@MFST@@@std@@@std@@AEAAAEAPEAPEAUMFSTState@MFST@@XZ ; std::deque<MFST::MFSTState,std::allocator<MFST::MFSTState> >::_Map
PUBLIC	?_Mapsize@?$deque@UMFSTState@MFST@@V?$allocator@UMFSTState@MFST@@@std@@@std@@AEAAAEA_KXZ ; std::deque<MFST::MFSTState,std::allocator<MFST::MFSTState> >::_Mapsize
PUBLIC	?_Myoff@?$deque@UMFSTState@MFST@@V?$allocator@UMFSTState@MFST@@@std@@@std@@AEAAAEA_KXZ ; std::deque<MFST::MFSTState,std::allocator<MFST::MFSTState> >::_Myoff
PUBLIC	?_Myoff@?$deque@UMFSTState@MFST@@V?$allocator@UMFSTState@MFST@@@std@@@std@@AEBAAEB_KXZ ; std::deque<MFST::MFSTState,std::allocator<MFST::MFSTState> >::_Myoff
PUBLIC	?_Mysize@?$deque@UMFSTState@MFST@@V?$allocator@UMFSTState@MFST@@@std@@@std@@AEAAAEA_KXZ ; std::deque<MFST::MFSTState,std::allocator<MFST::MFSTState> >::_Mysize
PUBLIC	?_Mysize@?$deque@UMFSTState@MFST@@V?$allocator@UMFSTState@MFST@@@std@@@std@@AEBAAEB_KXZ ; std::deque<MFST::MFSTState,std::allocator<MFST::MFSTState> >::_Mysize
PUBLIC	??0?$_Deque_val@U?$_Deque_simple_types@UMFSTState@MFST@@@std@@@std@@QEAA@XZ ; std::_Deque_val<std::_Deque_simple_types<MFST::MFSTState> >::_Deque_val<std::_Deque_simple_types<MFST::MFSTState> >
PUBLIC	?_Getblock@?$_Deque_val@U?$_Deque_simple_types@UMFSTState@MFST@@@std@@@std@@QEBA_K_K@Z ; std::_Deque_val<std::_Deque_simple_types<MFST::MFSTState> >::_Getblock
PUBLIC	?_Get_first@?$_Compressed_pair@V?$allocator@UMFSTState@MFST@@@std@@V?$_Deque_val@U?$_Deque_simple_types@UMFSTState@MFST@@@std@@@2@$00@std@@QEAAAEAV?$allocator@UMFSTState@MFST@@@2@XZ ; std::_Compressed_pair<std::allocator<MFST::MFSTState>,std::_Deque_val<std::_Deque_simple_types<MFST::MFSTState> >,1>::_Get_first
PUBLIC	?_Get_first@?$_Compressed_pair@V?$allocator@UMFSTState@MFST@@@std@@V?$_Deque_val@U?$_Deque_simple_types@UMFSTState@MFST@@@std@@@2@$00@std@@QEBAAEBV?$allocator@UMFSTState@MFST@@@2@XZ ; std::_Compressed_pair<std::allocator<MFST::MFSTState>,std::_Deque_val<std::_Deque_simple_types<MFST::MFSTState> >,1>::_Get_first
PUBLIC	??0?$stack@UMFSTState@MFST@@V?$deque@UMFSTState@MFST@@V?$allocator@UMFSTState@MFST@@@std@@@std@@@std@@QEAA@XZ ; std::stack<MFST::MFSTState,std::deque<MFST::MFSTState,std::allocator<MFST::MFSTState> > >::stack<MFST::MFSTState,std::deque<MFST::MFSTState,std::allocator<MFST::MFSTState> > >
PUBLIC	?size@?$stack@UMFSTState@MFST@@V?$deque@UMFSTState@MFST@@V?$allocator@UMFSTState@MFST@@@std@@@std@@@std@@QEBA_KXZ ; std::stack<MFST::MFSTState,std::deque<MFST::MFSTState,std::allocator<MFST::MFSTState> > >::size
PUBLIC	?top@?$stack@UMFSTState@MFST@@V?$deque@UMFSTState@MFST@@V?$allocator@UMFSTState@MFST@@@std@@@std@@@std@@QEAAAEAUMFSTState@MFST@@XZ ; std::stack<MFST::MFSTState,std::deque<MFST::MFSTState,std::allocator<MFST::MFSTState> > >::top
PUBLIC	?push@?$stack@UMFSTState@MFST@@V?$deque@UMFSTState@MFST@@V?$allocator@UMFSTState@MFST@@@std@@@std@@@std@@QEAAXAEBUMFSTState@MFST@@@Z ; std::stack<MFST::MFSTState,std::deque<MFST::MFSTState,std::allocator<MFST::MFSTState> > >::push
PUBLIC	?pop@?$stack@UMFSTState@MFST@@V?$deque@UMFSTState@MFST@@V?$allocator@UMFSTState@MFST@@@std@@@std@@@std@@QEAAXXZ ; std::stack<MFST::MFSTState,std::deque<MFST::MFSTState,std::allocator<MFST::MFSTState> > >::pop
PUBLIC	??1?$stack@UMFSTState@MFST@@V?$deque@UMFSTState@MFST@@V?$allocator@UMFSTState@MFST@@@std@@@std@@@std@@QEAA@XZ ; std::stack<MFST::MFSTState,std::deque<MFST::MFSTState,std::allocator<MFST::MFSTState> > >::~stack<MFST::MFSTState,std::deque<MFST::MFSTState,std::allocator<MFST::MFSTState> > >
PUBLIC	??4?$stack@UMFSTState@MFST@@V?$deque@UMFSTState@MFST@@V?$allocator@UMFSTState@MFST@@@std@@@std@@@std@@QEAAAEAV01@AEBV01@@Z ; std::stack<MFST::MFSTState,std::deque<MFST::MFSTState,std::allocator<MFST::MFSTState> > >::operator=
PUBLIC	?__autoclassinit2@?$stack@UMFSTState@MFST@@V?$deque@UMFSTState@MFST@@V?$allocator@UMFSTState@MFST@@@std@@@std@@@std@@QEAAX_K@Z ; std::stack<MFST::MFSTState,std::deque<MFST::MFSTState,std::allocator<MFST::MFSTState> > >::__autoclassinit2
PUBLIC	?push@?$Stack@UMFSTState@MFST@@@@QEAAXUMFSTState@MFST@@@Z ; Stack<MFST::MFSTState>::push
PUBLIC	?pop@?$Stack@UMFSTState@MFST@@@@QEAAXXZ		; Stack<MFST::MFSTState>::pop
PUBLIC	?top@?$Stack@UMFSTState@MFST@@@@QEAA?AUMFSTState@MFST@@XZ ; Stack<MFST::MFSTState>::top
PUBLIC	?size@?$Stack@UMFSTState@MFST@@@@QEAAHXZ	; Stack<MFST::MFSTState>::size
PUBLIC	??A?$Stack@UMFSTState@MFST@@@@QEAA?AUMFSTState@MFST@@H@Z ; Stack<MFST::MFSTState>::operator[]
PUBLIC	??0?$Stack@UMFSTState@MFST@@@@QEAA@XZ		; Stack<MFST::MFSTState>::Stack<MFST::MFSTState>
PUBLIC	??1?$Stack@UMFSTState@MFST@@@@QEAA@XZ		; Stack<MFST::MFSTState>::~Stack<MFST::MFSTState>
PUBLIC	??0MFST@0@QEAA@XZ				; MFST::MFST::MFST
PUBLIC	??0MFST@0@QEAA@ULexTable@LT@@UGreibach@GRB@@@Z	; MFST::MFST::MFST
PUBLIC	?getCSt@MFST@1@QEAAPEADPEAD@Z			; MFST::MFST::getCSt
PUBLIC	?getCLenta@MFST@1@QEAAPEADPEADFF@Z		; MFST::MFST::getCLenta
PUBLIC	?getDiagnosis@MFST@1@QEAAPEADFPEAD@Z		; MFST::MFST::getDiagnosis
PUBLIC	?savestate@MFST@1@QEAA_NXZ			; MFST::MFST::savestate
PUBLIC	?resetstate@MFST@1@QEAA_NXZ			; MFST::MFST::resetstate
PUBLIC	?push_chain@MFST@1@QEAA_NUChain@Rule@GRB@@@Z	; MFST::MFST::push_chain
PUBLIC	?step@MFST@1@QEAA?AW4RC_STEP@11@XZ		; MFST::MFST::step
PUBLIC	?start@MFST@1@QEAA_NXZ				; MFST::MFST::start
PUBLIC	?savediagnosis@MFST@1@QEAA_NW4RC_STEP@11@@Z	; MFST::MFST::savediagnosis
PUBLIC	?printRules@MFST@1@QEAAXXZ			; MFST::MFST::printRules
PUBLIC	??0Deducation@MFST@1@QEAA@XZ			; MFST::MFST::Deducation::Deducation
PUBLIC	?savededucation@MFST@1@QEAA_NXZ			; MFST::MFST::savededucation
PUBLIC	?length@?$_Narrow_char_traits@DH@std@@SA_KQEBD@Z ; std::_Narrow_char_traits<char,int>::length
PUBLIC	?eq_int_type@?$_Narrow_char_traits@DH@std@@SA_NAEBH0@Z ; std::_Narrow_char_traits<char,int>::eq_int_type
PUBLIC	?eof@?$_Narrow_char_traits@DH@std@@SAHXZ	; std::_Narrow_char_traits<char,int>::eof
PUBLIC	??$_Maklocstr@_W@std@@YAPEA_WPEBDPEA_WAEBU_Cvtvec@@@Z ; std::_Maklocstr<wchar_t>
PUBLIC	?_Maklocwcs@std@@YAPEA_WPEB_W@Z			; std::_Maklocwcs
PUBLIC	??$_Maklocstr@D@std@@YAPEADPEBDPEADAEBU_Cvtvec@@@Z ; std::_Maklocstr<char>
PUBLIC	??$_Getvals@_W@?$time_get@DV?$istreambuf_iterator@DU?$char_traits@D@std@@@std@@@std@@IEAAX_WAEBV_Locinfo@1@@Z ; std::time_get<char,std::istreambuf_iterator<char,std::char_traits<char> > >::_Getvals<wchar_t>
PUBLIC	??$_Getvals@_W@?$time_get@_WV?$istreambuf_iterator@_WU?$char_traits@_W@std@@@std@@@std@@IEAAX_WAEBV_Locinfo@1@@Z ; std::time_get<wchar_t,std::istreambuf_iterator<wchar_t,std::char_traits<wchar_t> > >::_Getvals<wchar_t>
PUBLIC	??$?6U?$char_traits@D@std@@@std@@YAAEAV?$basic_ostream@DU?$char_traits@D@std@@@0@AEAV10@PEBD@Z ; std::operator<<<std::char_traits<char> >
PUBLIC	??$endl@DU?$char_traits@D@std@@@std@@YAAEAV?$basic_ostream@DU?$char_traits@D@std@@@0@AEAV10@@Z ; std::endl<char,std::char_traits<char> >
PUBLIC	??0_Sentry_base@?$basic_ostream@DU?$char_traits@D@std@@@std@@QEAA@AEAV12@@Z ; std::basic_ostream<char,std::char_traits<char> >::_Sentry_base::_Sentry_base
PUBLIC	??1_Sentry_base@?$basic_ostream@DU?$char_traits@D@std@@@std@@QEAA@XZ ; std::basic_ostream<char,std::char_traits<char> >::_Sentry_base::~_Sentry_base
PUBLIC	??0sentry@?$basic_ostream@DU?$char_traits@D@std@@@std@@QEAA@AEAV12@@Z ; std::basic_ostream<char,std::char_traits<char> >::sentry::sentry
PUBLIC	??1sentry@?$basic_ostream@DU?$char_traits@D@std@@@std@@QEAA@XZ ; std::basic_ostream<char,std::char_traits<char> >::sentry::~sentry
PUBLIC	??Bsentry@?$basic_ostream@DU?$char_traits@D@std@@@std@@QEBA_NXZ ; std::basic_ostream<char,std::char_traits<char> >::sentry::operator bool
PUBLIC	??$min@_K@std@@YAAEB_KAEB_K0@Z			; std::min<unsigned __int64>
PUBLIC	?allocate@?$allocator@U_Container_proxy@std@@@std@@QEAAPEAU_Container_proxy@2@_K@Z ; std::allocator<std::_Container_proxy>::allocate
PUBLIC	??$_Delete_plain_internal@V?$allocator@U_Container_proxy@std@@@std@@@std@@YAXAEAV?$allocator@U_Container_proxy@std@@@0@QEAU_Container_proxy@0@@Z ; std::_Delete_plain_internal<std::allocator<std::_Container_proxy> >
PUBLIC	??0?$_Container_proxy_ptr12@V?$allocator@U_Container_proxy@std@@@std@@@std@@QEAA@AEAV?$allocator@U_Container_proxy@std@@@1@AEAU_Container_base12@1@@Z ; std::_Container_proxy_ptr12<std::allocator<std::_Container_proxy> >::_Container_proxy_ptr12<std::allocator<std::_Container_proxy> >
PUBLIC	??1?$_Container_proxy_ptr12@V?$allocator@U_Container_proxy@std@@@std@@@std@@QEAA@XZ ; std::_Container_proxy_ptr12<std::allocator<std::_Container_proxy> >::~_Container_proxy_ptr12<std::allocator<std::_Container_proxy> >
PUBLIC	??$_Alloc_proxy@V?$allocator@U_Container_proxy@std@@@std@@@_Container_base12@std@@QEAAX$$QEAV?$allocator@U_Container_proxy@std@@@1@@Z ; std::_Container_base12::_Alloc_proxy<std::allocator<std::_Container_proxy> >
PUBLIC	??$?0UMFSTState@MFST@@@?$allocator@U_Container_proxy@std@@@std@@QEAA@AEBV?$allocator@UMFSTState@MFST@@@1@@Z ; std::allocator<std::_Container_proxy>::allocator<std::_Container_proxy><MFST::MFSTState>
PUBLIC	??$exchange@PEAU_Container_proxy@std@@$$T@std@@YAPEAU_Container_proxy@0@AEAPEAU10@$$QEA$$T@Z ; std::exchange<std::_Container_proxy *,std::nullptr_t>
PUBLIC	??$?0$$V@?$_Compressed_pair@V?$allocator@UMFSTState@MFST@@@std@@V?$_Deque_val@U?$_Deque_simple_types@UMFSTState@MFST@@@std@@@2@$00@std@@QEAA@U_Zero_then_variadic_args_t@1@@Z ; std::_Compressed_pair<std::allocator<MFST::MFSTState>,std::_Deque_val<std::_Deque_simple_types<MFST::MFSTState> >,1>::_Compressed_pair<std::allocator<MFST::MFSTState>,std::_Deque_val<std::_Deque_simple_types<MFST::MFSTState> >,1><>
PUBLIC	??$addressof@$$CBV?$deque@FV?$allocator@F@std@@@std@@@std@@YAPEBV?$deque@FV?$allocator@F@std@@@0@AEBV10@@Z ; std::addressof<std::deque<short,std::allocator<short> > const >
PUBLIC	??$?0F@?$allocator@U_Container_proxy@std@@@std@@QEAA@AEBV?$allocator@F@1@@Z ; std::allocator<std::_Container_proxy>::allocator<std::_Container_proxy><short>
PUBLIC	??$addressof@V?$deque@FV?$allocator@F@std@@@std@@@std@@YAPEAV?$deque@FV?$allocator@F@std@@@0@AEAV10@@Z ; std::addressof<std::deque<short,std::allocator<short> > >
PUBLIC	??$?0V?$allocator@F@std@@$$V@?$_Compressed_pair@V?$allocator@F@std@@V?$_Deque_val@U?$_Deque_simple_types@F@std@@@2@$00@std@@QEAA@U_One_then_variadic_args_t@1@$$QEAV?$allocator@F@1@@Z ; std::_Compressed_pair<std::allocator<short>,std::_Deque_val<std::_Deque_simple_types<short> >,1>::_Compressed_pair<std::allocator<short>,std::_Deque_val<std::_Deque_simple_types<short> >,1><std::allocator<short> >
PUBLIC	??0?$_Deque_unchecked_const_iterator@V?$_Deque_val@U?$_Deque_simple_types@F@std@@@std@@@std@@QEAA@_KPEBU_Container_base12@1@@Z ; std::_Deque_unchecked_const_iterator<std::_Deque_val<std::_Deque_simple_types<short> > >::_Deque_unchecked_const_iterator<std::_Deque_val<std::_Deque_simple_types<short> > >
PUBLIC	??D?$_Deque_unchecked_const_iterator@V?$_Deque_val@U?$_Deque_simple_types@F@std@@@std@@@std@@QEBAAEBFXZ ; std::_Deque_unchecked_const_iterator<std::_Deque_val<std::_Deque_simple_types<short> > >::operator*
PUBLIC	??E?$_Deque_unchecked_const_iterator@V?$_Deque_val@U?$_Deque_simple_types@F@std@@@std@@@std@@QEAAAEAV01@XZ ; std::_Deque_unchecked_const_iterator<std::_Deque_val<std::_Deque_simple_types<short> > >::operator++
PUBLIC	??Z?$_Deque_unchecked_const_iterator@V?$_Deque_val@U?$_Deque_simple_types@F@std@@@std@@@std@@QEAAAEAV01@_J@Z ; std::_Deque_unchecked_const_iterator<std::_Deque_val<std::_Deque_simple_types<short> > >::operator-=
PUBLIC	??G?$_Deque_unchecked_const_iterator@V?$_Deque_val@U?$_Deque_simple_types@F@std@@@std@@@std@@QEBA_JAEBV01@@Z ; std::_Deque_unchecked_const_iterator<std::_Deque_val<std::_Deque_simple_types<short> > >::operator-
PUBLIC	??8?$_Deque_unchecked_const_iterator@V?$_Deque_val@U?$_Deque_simple_types@F@std@@@std@@@std@@QEBA_NAEBV01@@Z ; std::_Deque_unchecked_const_iterator<std::_Deque_val<std::_Deque_simple_types<short> > >::operator==
PUBLIC	??9?$_Deque_unchecked_const_iterator@V?$_Deque_val@U?$_Deque_simple_types@F@std@@@std@@@std@@QEBA_NAEBV01@@Z ; std::_Deque_unchecked_const_iterator<std::_Deque_val<std::_Deque_simple_types<short> > >::operator!=
PUBLIC	?__autoclassinit2@?$_Deque_unchecked_const_iterator@V?$_Deque_val@U?$_Deque_simple_types@F@std@@@std@@@std@@QEAAX_K@Z ; std::_Deque_unchecked_const_iterator<std::_Deque_val<std::_Deque_simple_types<short> > >::__autoclassinit2
PUBLIC	??$_Construct@V?$_Deque_unchecked_const_iterator@V?$_Deque_val@U?$_Deque_simple_types@F@std@@@std@@@std@@@?$deque@FV?$allocator@F@std@@@std@@AEAAXV?$_Deque_unchecked_const_iterator@V?$_Deque_val@U?$_Deque_simple_types@F@std@@@std@@@1@0@Z ; std::deque<short,std::allocator<short> >::_Construct<std::_Deque_unchecked_const_iterator<std::_Deque_val<std::_Deque_simple_types<short> > > >
PUBLIC	??$?0$$V@?$_Compressed_pair@V?$allocator@F@std@@V?$_Deque_val@U?$_Deque_simple_types@F@std@@@2@$00@std@@QEAA@U_Zero_then_variadic_args_t@1@@Z ; std::_Compressed_pair<std::allocator<short>,std::_Deque_val<std::_Deque_simple_types<short> >,1>::_Compressed_pair<std::allocator<short>,std::_Deque_val<std::_Deque_simple_types<short> >,1><>
PUBLIC	??$_Unfancy@U_Container_proxy@std@@@std@@YAPEAU_Container_proxy@0@PEAU10@@Z ; std::_Unfancy<std::_Container_proxy>
PUBLIC	??$?0UMFSTState@MFST@@@?$allocator@PEAUMFSTState@MFST@@@std@@QEAA@AEBV?$allocator@UMFSTState@MFST@@@1@@Z ; std::allocator<MFST::MFSTState *>::allocator<MFST::MFSTState *><MFST::MFSTState>
PUBLIC	??$_Destroy_in_place@PEAUMFSTState@MFST@@@std@@YAXAEAPEAUMFSTState@MFST@@@Z ; std::_Destroy_in_place<MFST::MFSTState *>
PUBLIC	??$addressof@$$CBV?$deque@UMFSTState@MFST@@V?$allocator@UMFSTState@MFST@@@std@@@std@@@std@@YAPEBV?$deque@UMFSTState@MFST@@V?$allocator@UMFSTState@MFST@@@std@@@0@AEBV10@@Z ; std::addressof<std::deque<MFST::MFSTState,std::allocator<MFST::MFSTState> > const >
PUBLIC	??$?0F@?$allocator@PEAF@std@@QEAA@AEBV?$allocator@F@1@@Z ; std::allocator<short *>::allocator<short *><short>
PUBLIC	??$_Destroy_in_place@PEAF@std@@YAXAEAPEAF@Z	; std::_Destroy_in_place<short *>
PUBLIC	??$addressof@$$CBV?$_Deque_val@U?$_Deque_simple_types@F@std@@@std@@@std@@YAPEBV?$_Deque_val@U?$_Deque_simple_types@F@std@@@0@AEBV10@@Z ; std::addressof<std::_Deque_val<std::_Deque_simple_types<short> > const >
PUBLIC	??$_Pocca@V?$allocator@F@std@@@std@@YAXAEAV?$allocator@F@0@AEBV10@@Z ; std::_Pocca<std::allocator<short> >
PUBLIC	??$assign@V?$_Deque_unchecked_const_iterator@V?$_Deque_val@U?$_Deque_simple_types@F@std@@@std@@@std@@$0A@@?$deque@FV?$allocator@F@std@@@std@@QEAAXV?$_Deque_unchecked_const_iterator@V?$_Deque_val@U?$_Deque_simple_types@F@std@@@std@@@1@0@Z ; std::deque<short,std::allocator<short> >::assign<std::_Deque_unchecked_const_iterator<std::_Deque_val<std::_Deque_simple_types<short> > >,0>
PUBLIC	??$_Pocma@V?$allocator@F@std@@@std@@YAXAEAV?$allocator@F@0@0@Z ; std::_Pocma<std::allocator<short> >
PUBLIC	??$_Get_size_of_n@$0BA@@std@@YA_K_K@Z		; std::_Get_size_of_n<16>
PUBLIC	??$_Allocate@$0BA@U_Default_allocate_traits@std@@$0A@@std@@YAPEAX_K@Z ; std::_Allocate<16,std::_Default_allocate_traits,0>
PUBLIC	??$_Deallocate@$0BA@$0A@@std@@YAXPEAX_K@Z	; std::_Deallocate<16,0>
PUBLIC	??$_Unfancy@UMFSTState@MFST@@@std@@YAPEAUMFSTState@MFST@@PEAU12@@Z ; std::_Unfancy<MFST::MFSTState>
PUBLIC	??$destroy@UMFSTState@MFST@@@?$_Default_allocator_traits@V?$allocator@UMFSTState@MFST@@@std@@@std@@SAXAEAV?$allocator@UMFSTState@MFST@@@1@QEAUMFSTState@MFST@@@Z ; std::_Default_allocator_traits<std::allocator<MFST::MFSTState> >::destroy<MFST::MFSTState>
PUBLIC	??$_Emplace_back_internal@AEBUMFSTState@MFST@@@?$deque@UMFSTState@MFST@@V?$allocator@UMFSTState@MFST@@@std@@@std@@AEAAXAEBUMFSTState@MFST@@@Z ; std::deque<MFST::MFSTState,std::allocator<MFST::MFSTState> >::_Emplace_back_internal<MFST::MFSTState const &>
PUBLIC	??0?$_Deque_unchecked_const_iterator@V?$_Deque_val@U?$_Deque_simple_types@UMFSTState@MFST@@@std@@@std@@@std@@QEAA@_KPEBU_Container_base12@1@@Z ; std::_Deque_unchecked_const_iterator<std::_Deque_val<std::_Deque_simple_types<MFST::MFSTState> > >::_Deque_unchecked_const_iterator<std::_Deque_val<std::_Deque_simple_types<MFST::MFSTState> > >
PUBLIC	??D?$_Deque_unchecked_const_iterator@V?$_Deque_val@U?$_Deque_simple_types@UMFSTState@MFST@@@std@@@std@@@std@@QEBAAEBUMFSTState@MFST@@XZ ; std::_Deque_unchecked_const_iterator<std::_Deque_val<std::_Deque_simple_types<MFST::MFSTState> > >::operator*
PUBLIC	??E?$_Deque_unchecked_const_iterator@V?$_Deque_val@U?$_Deque_simple_types@UMFSTState@MFST@@@std@@@std@@@std@@QEAAAEAV01@XZ ; std::_Deque_unchecked_const_iterator<std::_Deque_val<std::_Deque_simple_types<MFST::MFSTState> > >::operator++
PUBLIC	??Z?$_Deque_unchecked_const_iterator@V?$_Deque_val@U?$_Deque_simple_types@UMFSTState@MFST@@@std@@@std@@@std@@QEAAAEAV01@_J@Z ; std::_Deque_unchecked_const_iterator<std::_Deque_val<std::_Deque_simple_types<MFST::MFSTState> > >::operator-=
PUBLIC	??G?$_Deque_unchecked_const_iterator@V?$_Deque_val@U?$_Deque_simple_types@UMFSTState@MFST@@@std@@@std@@@std@@QEBA_JAEBV01@@Z ; std::_Deque_unchecked_const_iterator<std::_Deque_val<std::_Deque_simple_types<MFST::MFSTState> > >::operator-
PUBLIC	??8?$_Deque_unchecked_const_iterator@V?$_Deque_val@U?$_Deque_simple_types@UMFSTState@MFST@@@std@@@std@@@std@@QEBA_NAEBV01@@Z ; std::_Deque_unchecked_const_iterator<std::_Deque_val<std::_Deque_simple_types<MFST::MFSTState> > >::operator==
PUBLIC	??9?$_Deque_unchecked_const_iterator@V?$_Deque_val@U?$_Deque_simple_types@UMFSTState@MFST@@@std@@@std@@@std@@QEBA_NAEBV01@@Z ; std::_Deque_unchecked_const_iterator<std::_Deque_val<std::_Deque_simple_types<MFST::MFSTState> > >::operator!=
PUBLIC	?__autoclassinit2@?$_Deque_unchecked_const_iterator@V?$_Deque_val@U?$_Deque_simple_types@UMFSTState@MFST@@@std@@@std@@@std@@QEAAX_K@Z ; std::_Deque_unchecked_const_iterator<std::_Deque_val<std::_Deque_simple_types<MFST::MFSTState> > >::__autoclassinit2
PUBLIC	??D?$_Deque_unchecked_iterator@V?$_Deque_val@U?$_Deque_simple_types@UMFSTState@MFST@@@std@@@std@@@std@@QEBAAEAUMFSTState@MFST@@XZ ; std::_Deque_unchecked_iterator<std::_Deque_val<std::_Deque_simple_types<MFST::MFSTState> > >::operator*
PUBLIC	??E?$_Deque_unchecked_iterator@V?$_Deque_val@U?$_Deque_simple_types@UMFSTState@MFST@@@std@@@std@@@std@@QEAAAEAV01@XZ ; std::_Deque_unchecked_iterator<std::_Deque_val<std::_Deque_simple_types<MFST::MFSTState> > >::operator++
PUBLIC	??Z?$_Deque_unchecked_iterator@V?$_Deque_val@U?$_Deque_simple_types@UMFSTState@MFST@@@std@@@std@@@std@@QEAAAEAV01@_J@Z ; std::_Deque_unchecked_iterator<std::_Deque_val<std::_Deque_simple_types<MFST::MFSTState> > >::operator-=
PUBLIC	??G?$_Deque_unchecked_iterator@V?$_Deque_val@U?$_Deque_simple_types@UMFSTState@MFST@@@std@@@std@@@std@@QEBA?AV01@_J@Z ; std::_Deque_unchecked_iterator<std::_Deque_val<std::_Deque_simple_types<MFST::MFSTState> > >::operator-
PUBLIC	??G?$_Deque_unchecked_iterator@V?$_Deque_val@U?$_Deque_simple_types@UMFSTState@MFST@@@std@@@std@@@std@@QEBA_JAEBV?$_Deque_unchecked_const_iterator@V?$_Deque_val@U?$_Deque_simple_types@UMFSTState@MFST@@@std@@@std@@@1@@Z ; std::_Deque_unchecked_iterator<std::_Deque_val<std::_Deque_simple_types<MFST::MFSTState> > >::operator-
PUBLIC	?__autoclassinit2@?$_Deque_unchecked_iterator@V?$_Deque_val@U?$_Deque_simple_types@UMFSTState@MFST@@@std@@@std@@@std@@QEAAX_K@Z ; std::_Deque_unchecked_iterator<std::_Deque_val<std::_Deque_simple_types<MFST::MFSTState> > >::__autoclassinit2
PUBLIC	??0?$_Deque_unchecked_iterator@V?$_Deque_val@U?$_Deque_simple_types@UMFSTState@MFST@@@std@@@std@@@std@@QEAA@_KPEBU_Container_base12@1@@Z ; std::_Deque_unchecked_iterator<std::_Deque_val<std::_Deque_simple_types<MFST::MFSTState> > >::_Deque_unchecked_iterator<std::_Deque_val<std::_Deque_simple_types<MFST::MFSTState> > >
PUBLIC	??$_Pocca@V?$allocator@UMFSTState@MFST@@@std@@@std@@YAXAEAV?$allocator@UMFSTState@MFST@@@0@AEBV10@@Z ; std::_Pocca<std::allocator<MFST::MFSTState> >
PUBLIC	??$assign@V?$_Deque_unchecked_const_iterator@V?$_Deque_val@U?$_Deque_simple_types@UMFSTState@MFST@@@std@@@std@@@std@@$0A@@?$deque@UMFSTState@MFST@@V?$allocator@UMFSTState@MFST@@@std@@@std@@QEAAXV?$_Deque_unchecked_const_iterator@V?$_Deque_val@U?$_Deque_simple_types@UMFSTState@MFST@@@std@@@std@@@1@0@Z ; std::deque<MFST::MFSTState,std::allocator<MFST::MFSTState> >::assign<std::_Deque_unchecked_const_iterator<std::_Deque_val<std::_Deque_simple_types<MFST::MFSTState> > >,0>
PUBLIC	??$_Unfancy@F@std@@YAPEAFPEAF@Z			; std::_Unfancy<short>
PUBLIC	??$destroy@F@?$_Default_allocator_traits@V?$allocator@F@std@@@std@@SAXAEAV?$allocator@F@1@QEAF@Z ; std::_Default_allocator_traits<std::allocator<short> >::destroy<short>
PUBLIC	??$_Emplace_back_internal@AEBF@?$deque@FV?$allocator@F@std@@@std@@AEAAXAEBF@Z ; std::deque<short,std::allocator<short> >::_Emplace_back_internal<short const &>
PUBLIC	??D?$_Deque_unchecked_iterator@V?$_Deque_val@U?$_Deque_simple_types@F@std@@@std@@@std@@QEBAAEAFXZ ; std::_Deque_unchecked_iterator<std::_Deque_val<std::_Deque_simple_types<short> > >::operator*
PUBLIC	??E?$_Deque_unchecked_iterator@V?$_Deque_val@U?$_Deque_simple_types@F@std@@@std@@@std@@QEAAAEAV01@XZ ; std::_Deque_unchecked_iterator<std::_Deque_val<std::_Deque_simple_types<short> > >::operator++
PUBLIC	??Z?$_Deque_unchecked_iterator@V?$_Deque_val@U?$_Deque_simple_types@F@std@@@std@@@std@@QEAAAEAV01@_J@Z ; std::_Deque_unchecked_iterator<std::_Deque_val<std::_Deque_simple_types<short> > >::operator-=
PUBLIC	??G?$_Deque_unchecked_iterator@V?$_Deque_val@U?$_Deque_simple_types@F@std@@@std@@@std@@QEBA?AV01@_J@Z ; std::_Deque_unchecked_iterator<std::_Deque_val<std::_Deque_simple_types<short> > >::operator-
PUBLIC	??G?$_Deque_unchecked_iterator@V?$_Deque_val@U?$_Deque_simple_types@F@std@@@std@@@std@@QEBA_JAEBV?$_Deque_unchecked_const_iterator@V?$_Deque_val@U?$_Deque_simple_types@F@std@@@std@@@1@@Z ; std::_Deque_unchecked_iterator<std::_Deque_val<std::_Deque_simple_types<short> > >::operator-
PUBLIC	?__autoclassinit2@?$_Deque_unchecked_iterator@V?$_Deque_val@U?$_Deque_simple_types@F@std@@@std@@@std@@QEAAX_K@Z ; std::_Deque_unchecked_iterator<std::_Deque_val<std::_Deque_simple_types<short> > >::__autoclassinit2
PUBLIC	??0?$_Deque_unchecked_iterator@V?$_Deque_val@U?$_Deque_simple_types@F@std@@@std@@@std@@QEAA@_KPEBU_Container_base12@1@@Z ; std::_Deque_unchecked_iterator<std::_Deque_val<std::_Deque_simple_types<short> > >::_Deque_unchecked_iterator<std::_Deque_val<std::_Deque_simple_types<short> > >
PUBLIC	??$_Get_size_of_n@$01@std@@YA_K_K@Z		; std::_Get_size_of_n<2>
PUBLIC	??$addressof@$$CBV?$_Deque_val@U?$_Deque_simple_types@UMFSTState@MFST@@@std@@@std@@@std@@YAPEBV?$_Deque_val@U?$_Deque_simple_types@UMFSTState@MFST@@@std@@@0@AEBV10@@Z ; std::addressof<std::_Deque_val<std::_Deque_simple_types<MFST::MFSTState> > const >
PUBLIC	??$addressof@V?$_Deque_val@U?$_Deque_simple_types@UMFSTState@MFST@@@std@@@std@@@std@@YAPEAV?$_Deque_val@U?$_Deque_simple_types@UMFSTState@MFST@@@std@@@0@AEAV10@@Z ; std::addressof<std::_Deque_val<std::_Deque_simple_types<MFST::MFSTState> > >
PUBLIC	??$addressof@V?$_Deque_val@U?$_Deque_simple_types@F@std@@@std@@@std@@YAPEAV?$_Deque_val@U?$_Deque_simple_types@F@std@@@0@AEAV10@@Z ; std::addressof<std::_Deque_val<std::_Deque_simple_types<short> > >
PUBLIC	??$addressof@U_Container_proxy@std@@@std@@YAPEAU_Container_proxy@0@AEAU10@@Z ; std::addressof<std::_Container_proxy>
PUBLIC	??$forward@PEAU_Container_base12@std@@@std@@YA$$QEAPEAU_Container_base12@0@AEAPEAU10@@Z ; std::forward<std::_Container_base12 *>
PUBLIC	??$_Deallocate_plain@V?$allocator@U_Container_proxy@std@@@std@@@std@@YAXAEAV?$allocator@U_Container_proxy@std@@@0@QEAU_Container_proxy@0@@Z ; std::_Deallocate_plain<std::allocator<std::_Container_proxy> >
PUBLIC	??$forward@V?$allocator@F@std@@@std@@YA$$QEAV?$allocator@F@0@AEAV10@@Z ; std::forward<std::allocator<short> >
PUBLIC	??1?$_Tidy_guard@V?$deque@FV?$allocator@F@std@@@std@@@std@@QEAA@XZ ; std::_Tidy_guard<std::deque<short,std::allocator<short> > >::~_Tidy_guard<std::deque<short,std::allocator<short> > >
PUBLIC	??$emplace_back@AEBF@?$deque@FV?$allocator@F@std@@@std@@QEAA@AEBF@Z ; std::deque<short,std::allocator<short> >::emplace_back<short const &>
PUBLIC	??$forward@AEBF@std@@YAAEBFAEBF@Z		; std::forward<short const &>
PUBLIC	??$construct@FAEBF@?$_Default_allocator_traits@V?$allocator@F@std@@@std@@SAXAEAV?$allocator@F@1@QEAFAEBF@Z ; std::_Default_allocator_traits<std::allocator<short> >::construct<short,short const &>
PUBLIC	??$_Adl_verify_range@V?$_Deque_unchecked_const_iterator@V?$_Deque_val@U?$_Deque_simple_types@F@std@@@std@@@std@@V12@@std@@YAXAEBV?$_Deque_unchecked_const_iterator@V?$_Deque_val@U?$_Deque_simple_types@F@std@@@std@@@0@0@Z ; std::_Adl_verify_range<std::_Deque_unchecked_const_iterator<std::_Deque_val<std::_Deque_simple_types<short> > >,std::_Deque_unchecked_const_iterator<std::_Deque_val<std::_Deque_simple_types<short> > > >
PUBLIC	??$_Get_unwrapped@AEAV?$_Deque_unchecked_const_iterator@V?$_Deque_val@U?$_Deque_simple_types@F@std@@@std@@@std@@@std@@YA@AEAV?$_Deque_unchecked_const_iterator@V?$_Deque_val@U?$_Deque_simple_types@F@std@@@std@@@0@@Z ; std::_Get_unwrapped<std::_Deque_unchecked_const_iterator<std::_Deque_val<std::_Deque_simple_types<short> > > &>
PUBLIC	??$move@AEAV?$allocator@F@std@@@std@@YA$$QEAV?$allocator@F@0@AEAV10@@Z ; std::move<std::allocator<short> &>
PUBLIC	??$_Allocate_manually_vector_aligned@U_Default_allocate_traits@std@@@std@@YAPEAX_K@Z ; std::_Allocate_manually_vector_aligned<std::_Default_allocate_traits>
PUBLIC	??$forward@AEBUMFSTState@MFST@@@std@@YAAEBUMFSTState@MFST@@AEBU12@@Z ; std::forward<MFST::MFSTState const &>
PUBLIC	??$construct@UMFSTState@MFST@@AEBU12@@?$_Default_allocator_traits@V?$allocator@UMFSTState@MFST@@@std@@@std@@SAXAEAV?$allocator@UMFSTState@MFST@@@1@QEAUMFSTState@MFST@@AEBU34@@Z ; std::_Default_allocator_traits<std::allocator<MFST::MFSTState> >::construct<MFST::MFSTState,MFST::MFSTState const &>
PUBLIC	??$_Adl_verify_range@V?$_Deque_unchecked_const_iterator@V?$_Deque_val@U?$_Deque_simple_types@UMFSTState@MFST@@@std@@@std@@@std@@V12@@std@@YAXAEBV?$_Deque_unchecked_const_iterator@V?$_Deque_val@U?$_Deque_simple_types@UMFSTState@MFST@@@std@@@std@@@0@0@Z ; std::_Adl_verify_range<std::_Deque_unchecked_const_iterator<std::_Deque_val<std::_Deque_simple_types<MFST::MFSTState> > >,std::_Deque_unchecked_const_iterator<std::_Deque_val<std::_Deque_simple_types<MFST::MFSTState> > > >
PUBLIC	??$_Get_unwrapped@AEAV?$_Deque_unchecked_const_iterator@V?$_Deque_val@U?$_Deque_simple_types@UMFSTState@MFST@@@std@@@std@@@std@@@std@@YA@AEAV?$_Deque_unchecked_const_iterator@V?$_Deque_val@U?$_Deque_simple_types@UMFSTState@MFST@@@std@@@std@@@0@@Z ; std::_Get_unwrapped<std::_Deque_unchecked_const_iterator<std::_Deque_val<std::_Deque_simple_types<MFST::MFSTState> > > &>
PUBLIC	??$emplace_back@AEBUMFSTState@MFST@@@?$deque@UMFSTState@MFST@@V?$allocator@UMFSTState@MFST@@@std@@@std@@QEAA@AEBUMFSTState@MFST@@@Z ; std::deque<MFST::MFSTState,std::allocator<MFST::MFSTState> >::emplace_back<MFST::MFSTState const &>
PUBLIC	??$uninitialized_copy@PEAPEAUMFSTState@MFST@@PEAPEAU12@@std@@YAPEAPEAUMFSTState@MFST@@QEAPEAU12@0PEAPEAU12@@Z ; std::uninitialized_copy<MFST::MFSTState * *,MFST::MFSTState * *>
PUBLIC	??$_Uninitialized_value_construct_n_unchecked1@PEAPEAUMFSTState@MFST@@_K@std@@YAPEAPEAUMFSTState@MFST@@PEAPEAU12@_K@Z ; std::_Uninitialized_value_construct_n_unchecked1<MFST::MFSTState * *,unsigned __int64>
PUBLIC	??$_Destroy_range@PEAPEAUMFSTState@MFST@@@std@@YAXPEAPEAUMFSTState@MFST@@QEAPEAU12@@Z ; std::_Destroy_range<MFST::MFSTState * *>
PUBLIC	??$_Get_size_of_n@$0DA@@std@@YA_K_K@Z		; std::_Get_size_of_n<48>
PUBLIC	??$uninitialized_copy@PEAPEAFPEAPEAF@std@@YAPEAPEAFQEAPEAF0PEAPEAF@Z ; std::uninitialized_copy<short * *,short * *>
PUBLIC	??$_Uninitialized_value_construct_n_unchecked1@PEAPEAF_K@std@@YAPEAPEAFPEAPEAF_K@Z ; std::_Uninitialized_value_construct_n_unchecked1<short * *,unsigned __int64>
PUBLIC	??$_Destroy_range@PEAPEAF@std@@YAXPEAPEAFQEAPEAF@Z ; std::_Destroy_range<short * *>
PUBLIC	??$_Get_size_of_n@$07@std@@YA_K_K@Z		; std::_Get_size_of_n<8>
PUBLIC	?deallocate@?$_Default_allocator_traits@V?$allocator@U_Container_proxy@std@@@std@@@std@@SAXAEAV?$allocator@U_Container_proxy@std@@@2@QEAU_Container_proxy@2@_K@Z ; std::_Default_allocator_traits<std::allocator<std::_Container_proxy> >::deallocate
PUBLIC	??$_Adl_verify_range@PEAPEAUMFSTState@MFST@@PEAPEAU12@@std@@YAXAEBQEAPEAUMFSTState@MFST@@0@Z ; std::_Adl_verify_range<MFST::MFSTState * *,MFST::MFSTState * *>
PUBLIC	??$_Get_unwrapped@AEBQEAPEAUMFSTState@MFST@@@std@@YA@AEBQEAPEAUMFSTState@MFST@@@Z ; std::_Get_unwrapped<MFST::MFSTState * * const &>
PUBLIC	??$_Idl_distance@PEAPEAUMFSTState@MFST@@PEAPEAU12@@std@@YA@AEBQEAPEAUMFSTState@MFST@@0@Z ; std::_Idl_distance<MFST::MFSTState * *,MFST::MFSTState * *>
PUBLIC	??$_Get_unwrapped_n@AEAPEAPEAUMFSTState@MFST@@_J@std@@YA@AEAPEAPEAUMFSTState@MFST@@_J@Z ; std::_Get_unwrapped_n<MFST::MFSTState * * &,__int64>
PUBLIC	??$_Copy_memmove@PEAPEAUMFSTState@MFST@@PEAPEAU12@@std@@YAPEAPEAUMFSTState@MFST@@PEAPEAU12@00@Z ; std::_Copy_memmove<MFST::MFSTState * *,MFST::MFSTState * *>
PUBLIC	??$_Seek_wrapped@PEAPEAUMFSTState@MFST@@AEAPEAPEAU12@@std@@YAXAEAPEAPEAUMFSTState@MFST@@0@Z ; std::_Seek_wrapped<MFST::MFSTState * *,MFST::MFSTState * * &>
PUBLIC	??$_Zero_range@PEAPEAUMFSTState@MFST@@@std@@YAPEAPEAUMFSTState@MFST@@QEAPEAU12@0@Z ; std::_Zero_range<MFST::MFSTState * *>
PUBLIC	??$_Adl_verify_range@PEAPEAFPEAPEAF@std@@YAXAEBQEAPEAF0@Z ; std::_Adl_verify_range<short * *,short * *>
PUBLIC	??$_Get_unwrapped@AEBQEAPEAF@std@@YA@AEBQEAPEAF@Z ; std::_Get_unwrapped<short * * const &>
PUBLIC	??$_Idl_distance@PEAPEAFPEAPEAF@std@@YA@AEBQEAPEAF0@Z ; std::_Idl_distance<short * *,short * *>
PUBLIC	??$_Get_unwrapped_n@AEAPEAPEAF_J@std@@YA@AEAPEAPEAF_J@Z ; std::_Get_unwrapped_n<short * * &,__int64>
PUBLIC	??$_Copy_memmove@PEAPEAFPEAPEAF@std@@YAPEAPEAFPEAPEAF00@Z ; std::_Copy_memmove<short * *,short * *>
PUBLIC	??$_Seek_wrapped@PEAPEAFAEAPEAPEAF@std@@YAXAEAPEAPEAF0@Z ; std::_Seek_wrapped<short * *,short * * &>
PUBLIC	??$_Zero_range@PEAPEAF@std@@YAPEAPEAFQEAPEAF0@Z	; std::_Zero_range<short * *>
PUBLIC	??$_Verify_range@PEAUMFSTState@MFST@@@std@@YAXQEBQEAUMFSTState@MFST@@0@Z ; std::_Verify_range<MFST::MFSTState *>
PUBLIC	??$_Verify_range@PEAF@std@@YAXQEBQEAF0@Z	; std::_Verify_range<short *>
PUBLIC	__JustMyCode_Default
PUBLIC	?_OptionsStorage@?1??__local_stdio_printf_options@@9@4_KA ; `__local_stdio_printf_options'::`2'::_OptionsStorage
PUBLIC	??_7exception@std@@6B@				; std::exception::`vftable'
PUBLIC	??_C@_0BC@EOODALEL@Unknown?5exception@		; `string'
PUBLIC	??_7bad_alloc@std@@6B@				; std::bad_alloc::`vftable'
PUBLIC	??_7bad_array_new_length@std@@6B@		; std::bad_array_new_length::`vftable'
PUBLIC	??_C@_0BF@KINCDENJ@bad?5array?5new?5length@	; `string'
PUBLIC	_TI3?AVbad_array_new_length@std@@
PUBLIC	_CTA3?AVbad_array_new_length@std@@
PUBLIC	??_R0?AVbad_array_new_length@std@@@8		; std::bad_array_new_length `RTTI Type Descriptor'
PUBLIC	_CT??_R0?AVbad_array_new_length@std@@@8??0bad_array_new_length@std@@QEAA@AEBV01@@Z24
PUBLIC	??_R0?AVbad_alloc@std@@@8			; std::bad_alloc `RTTI Type Descriptor'
PUBLIC	_CT??_R0?AVbad_alloc@std@@@8??0bad_alloc@std@@QEAA@AEBV01@@Z24
PUBLIC	??_R0?AVexception@std@@@8			; std::exception `RTTI Type Descriptor'
PUBLIC	_CT??_R0?AVexception@std@@@8??0exception@std@@QEAA@AEBV01@@Z24
PUBLIC	?__LINE__Var@?0??_Adjust_manually_vector_aligned@std@@YAXAEAPEAXAEA_K@Z@4JA ; `std::_Adjust_manually_vector_aligned'::`1'::__LINE__Var
PUBLIC	??_C@_0BB@FCMFBGOM@invalid?5argument@		; `string'
PUBLIC	??_C@_02DKCKIIND@?$CFs@				; `string'
PUBLIC	??_C@_0GJ@EHJGLGPD@C?3?2Program?5Files?5?$CIx86?$CJ?2Microsof@ ; `string'
PUBLIC	??_C@_1NC@LBGPBFDE@?$AAC?$AA?3?$AA?2?$AAP?$AAr?$AAo?$AAg?$AAr?$AAa?$AAm?$AA?5?$AAF?$AAi?$AAl?$AAe@ ; `string'
PUBLIC	??_C@_1EK@NIFDJFDG@?$AAs?$AAt?$AAd?$AA?3?$AA?3?$AA_?$AAA?$AAd?$AAj?$AAu?$AAs?$AAt?$AA_?$AAm?$AAa@ ; `string'
PUBLIC	??_C@_1CG@JNLFBNGN@?$AA?$CC?$AAi?$AAn?$AAv?$AAa?$AAl?$AAi?$AAd?$AA?5?$AAa?$AAr?$AAg?$AAu?$AAm?$AAe@ ; `string'
PUBLIC	??_C@_02LMMGGCAJ@?3?5@				; `string'
PUBLIC	??_C@_0GJ@OPFKIEFE@C?3?2Program?5Files?5?$CIx86?$CJ?2Microsof@ ; `string'
PUBLIC	?__LINE__Var@?0??_Maklocwcs@std@@YAPEA_WPEB_W@Z@4JA ; `std::_Maklocwcs'::`1'::__LINE__Var
PUBLIC	??_C@_0GJ@GMBHIGPF@C?3?2Program?5Files?5?$CIx86?$CJ?2Microsof@ ; `string'
PUBLIC	??_C@_0BB@PFODMCJA@?9?9?9?9?9?9?$DONS_NORULE@	; `string'
PUBLIC	??_C@_0GE@LLHMEFDF@?9?9?9?9?9?9?9?9?9?9?9?9?9?9?9?9?9?9?9?9?9?9?9?9?9?9?9?9?9?9?9@ ; `string'
PUBLIC	??_C@_0BG@BMHLPKEK@?9?9?9?9?9?9?$DONS_NORULECHAIN@ ; `string'
PUBLIC	??_C@_0BA@NNPHMIMB@?9?9?9?9?9?9?$DONS_ERROR@	; `string'
PUBLIC	??_C@_0BD@JCOAHIOB@?9?9?9?9?9?9?$DONS_SURPRISE@	; `string'
PUBLIC	??_C@_0BC@LNAJGJIK@?$CFd?3?5?q?r?p?n?j?$OA?5?$CFd?0?7?$CFs@ ; `string'
PUBLIC	??_C@_0N@LPFKKEBD@?3AM?3am?3PM?3pm@		; `string'
PUBLIC	??_C@_0BH@EDKEEENI@deque?5empty?5before?5pop@	; `string'
PUBLIC	??_C@_0GH@OBALDB@C?3?2Program?5Files?5?$CIx86?$CJ?2Microsof@ ; `string'
PUBLIC	??_C@_1MO@ONLEFNNG@?$AAC?$AA?3?$AA?2?$AAP?$AAr?$AAo?$AAg?$AAr?$AAa?$AAm?$AA?5?$AAF?$AAi?$AAl?$AAe@ ; `string'
PUBLIC	??_C@_1LG@NKGJEFF@?$AAs?$AAt?$AAd?$AA?3?$AA?3?$AAd?$AAe?$AAq?$AAu?$AAe?$AA?$DM?$AAs?$AAt?$AAr?$AAu@ ; `string'
PUBLIC	??_C@_1DC@NJAACHCD@?$AA?$CC?$AAd?$AAe?$AAq?$AAu?$AAe?$AA?5?$AAe?$AAm?$AAp?$AAt?$AAy?$AA?5?$AAb?$AAe@ ; `string'
PUBLIC	??_C@_0BN@OLMACEKN@back?$CI?$CJ?5called?5on?5empty?5deque@ ; `string'
PUBLIC	??_C@_1KO@OPLLPFIJ@?$AAs?$AAt?$AAd?$AA?3?$AA?3?$AAd?$AAe?$AAq?$AAu?$AAe?$AA?$DM?$AAs?$AAt?$AAr?$AAu@ ; `string'
PUBLIC	??_C@_1DO@OOAHKDGC@?$AA?$CC?$AAb?$AAa?$AAc?$AAk?$AA?$CI?$AA?$CJ?$AA?5?$AAc?$AAa?$AAl?$AAl?$AAe?$AAd?$AA?5@ ; `string'
PUBLIC	??_C@_1HC@BNLMFKHI@?$AAs?$AAt?$AAd?$AA?3?$AA?3?$AAd?$AAe?$AAq?$AAu?$AAe?$AA?$DM?$AAs?$AAh?$AAo?$AAr@ ; `string'
PUBLIC	??_C@_1GK@PHBEBIFI@?$AAs?$AAt?$AAd?$AA?3?$AA?3?$AAd?$AAe?$AAq?$AAu?$AAe?$AA?$DM?$AAs?$AAh?$AAo?$AAr@ ; `string'
PUBLIC	??_C@_1BK@MHIKGOKE@?$AA?3?$AAA?$AAM?$AA?3?$AAa?$AAm?$AA?3?$AAP?$AAM?$AA?3?$AAp?$AAm@ ; `string'
PUBLIC	??_C@_0BC@KBDMBKEH@deque?$DMT?$DO?5too?5long@	; `string'
PUBLIC	??_C@_0BJ@HAJGEHKO@transposed?5pointer?5range@	; `string'
PUBLIC	??_C@_0GK@OHAIDBEA@C?3?2Program?5Files?5?$CIx86?$CJ?2Microsof@ ; `string'
PUBLIC	??_C@_1NE@NLDHILHB@?$AAC?$AA?3?$AA?2?$AAP?$AAr?$AAo?$AAg?$AAr?$AAa?$AAm?$AA?5?$AAF?$AAi?$AAl?$AAe@ ; `string'
PUBLIC	??_C@_1CG@LJCPDKEJ@?$AAs?$AAt?$AAd?$AA?3?$AA?3?$AA_?$AAV?$AAe?$AAr?$AAi?$AAf?$AAy?$AA_?$AAr?$AAa@ ; `string'
PUBLIC	??_C@_1DG@FJIKMGFD@?$AA?$CC?$AAt?$AAr?$AAa?$AAn?$AAs?$AAp?$AAo?$AAs?$AAe?$AAd?$AA?5?$AAp?$AAo?$AAi@ ; `string'
PUBLIC	??_C@_1EO@GFNCMDLA@?$AAs?$AAt?$AAd?$AA?3?$AA?3?$AA_?$AAA?$AAl?$AAl?$AAo?$AAc?$AAa?$AAt?$AAe?$AA_@ ; `string'
PUBLIC	??_R4exception@std@@6B@				; std::exception::`RTTI Complete Object Locator'
PUBLIC	??_R3exception@std@@8				; std::exception::`RTTI Class Hierarchy Descriptor'
PUBLIC	??_R2exception@std@@8				; std::exception::`RTTI Base Class Array'
PUBLIC	??_R1A@?0A@EA@exception@std@@8			; std::exception::`RTTI Base Class Descriptor at (0,-1,0,64)'
PUBLIC	??_R4bad_alloc@std@@6B@				; std::bad_alloc::`RTTI Complete Object Locator'
PUBLIC	??_R3bad_alloc@std@@8				; std::bad_alloc::`RTTI Class Hierarchy Descriptor'
PUBLIC	??_R2bad_alloc@std@@8				; std::bad_alloc::`RTTI Base Class Array'
PUBLIC	??_R1A@?0A@EA@bad_alloc@std@@8			; std::bad_alloc::`RTTI Base Class Descriptor at (0,-1,0,64)'
PUBLIC	??_R4bad_array_new_length@std@@6B@		; std::bad_array_new_length::`RTTI Complete Object Locator'
PUBLIC	??_R3bad_array_new_length@std@@8		; std::bad_array_new_length::`RTTI Class Hierarchy Descriptor'
PUBLIC	??_R2bad_array_new_length@std@@8		; std::bad_array_new_length::`RTTI Base Class Array'
PUBLIC	??_R1A@?0A@EA@bad_array_new_length@std@@8	; std::bad_array_new_length::`RTTI Base Class Descriptor at (0,-1,0,64)'
EXTRN	??2@YAPEAX_K@Z:PROC				; operator new
EXTRN	??3@YAXPEAX_K@Z:PROC				; operator delete
EXTRN	??_U@YAPEAX_K@Z:PROC				; operator new[]
EXTRN	?geterror@Error@@YA?AUERROR@1@H@Z:PROC		; Error::geterror
EXTRN	?getCRule@Rule@GRB@@QEAAPEADPEADF@Z:PROC	; GRB::Rule::getCRule
EXTRN	?getNextChain@Rule@GRB@@QEAAFFAEAUChain@12@G@Z:PROC ; GRB::Rule::getNextChain
EXTRN	?getRule@Greibach@GRB@@QEAAFFAEAURule@2@@Z:PROC	; GRB::Greibach::getRule
EXTRN	?getRule@Greibach@GRB@@QEAA?AURule@2@F@Z:PROC	; GRB::Greibach::getRule
EXTRN	__imp__invalid_parameter:PROC
EXTRN	__imp__calloc_dbg:PROC
EXTRN	__imp__CrtDbgReport:PROC
EXTRN	__imp_??0_Lockit@std@@QEAA@H@Z:PROC
EXTRN	__imp_??1_Lockit@std@@QEAA@XZ:PROC
EXTRN	memcpy:PROC
EXTRN	memmove:PROC
EXTRN	memset:PROC
EXTRN	__imp_wcslen:PROC
EXTRN	strlen:PROC
EXTRN	__imp___stdio_common_vsprintf_s:PROC
EXTRN	?uncaught_exception@std@@YA_NXZ:PROC		; std::uncaught_exception
EXTRN	__std_exception_copy:PROC
EXTRN	__std_exception_destroy:PROC
EXTRN	??_Eexception@std@@UEAAPEAXI@Z:PROC		; std::exception::`vector deleting destructor'
EXTRN	??_Ebad_alloc@std@@UEAAPEAXI@Z:PROC		; std::bad_alloc::`vector deleting destructor'
EXTRN	??_Ebad_array_new_length@std@@UEAAPEAXI@Z:PROC	; std::bad_array_new_length::`vector deleting destructor'
EXTRN	?_Xbad_alloc@std@@YAXXZ:PROC			; std::_Xbad_alloc
EXTRN	?_Xlength_error@std@@YAXPEBD@Z:PROC		; std::_Xlength_error
EXTRN	_Mbrtowc:PROC
EXTRN	__imp_?_Getcvt@_Locinfo@std@@QEBA?AU_Cvtvec@@XZ:PROC
EXTRN	__imp_?_Getdays@_Locinfo@std@@QEBAPEBDXZ:PROC
EXTRN	__imp_?_Getmonths@_Locinfo@std@@QEBAPEBDXZ:PROC
EXTRN	__imp_?_W_Getdays@_Locinfo@std@@QEBAPEBGXZ:PROC
EXTRN	__imp_?_W_Getmonths@_Locinfo@std@@QEBAPEBGXZ:PROC
EXTRN	__imp_?good@ios_base@std@@QEBA_NXZ:PROC
EXTRN	__imp_?flags@ios_base@std@@QEBAHXZ:PROC
EXTRN	__imp_?width@ios_base@std@@QEBA_JXZ:PROC
EXTRN	__imp_?width@ios_base@std@@QEAA_J_J@Z:PROC
EXTRN	__imp_?sputc@?$basic_streambuf@DU?$char_traits@D@std@@@std@@QEAAHD@Z:PROC
EXTRN	__imp_?sputn@?$basic_streambuf@DU?$char_traits@D@std@@@std@@QEAA_JPEBD_J@Z:PROC
EXTRN	__imp_?setstate@?$basic_ios@DU?$char_traits@D@std@@@std@@QEAAXH_N@Z:PROC
EXTRN	__imp_?tie@?$basic_ios@DU?$char_traits@D@std@@@std@@QEBAPEAV?$basic_ostream@DU?$char_traits@D@std@@@2@XZ:PROC
EXTRN	__imp_?rdbuf@?$basic_ios@DU?$char_traits@D@std@@@std@@QEBAPEAV?$basic_streambuf@DU?$char_traits@D@std@@@2@XZ:PROC
EXTRN	__imp_?fill@?$basic_ios@DU?$char_traits@D@std@@@std@@QEBADXZ:PROC
EXTRN	__imp_?widen@?$basic_ios@DU?$char_traits@D@std@@@std@@QEBADD@Z:PROC
EXTRN	__imp_?_Osfx@?$basic_ostream@DU?$char_traits@D@std@@@std@@QEAAXXZ:PROC
EXTRN	__imp_??6?$basic_ostream@DU?$char_traits@D@std@@@std@@QEAAAEAV01@P6AAEAV01@AEAV01@@Z@Z:PROC
EXTRN	__imp_??6?$basic_ostream@DU?$char_traits@D@std@@@std@@QEAAAEAV01@F@Z:PROC
EXTRN	__imp_??6?$basic_ostream@DU?$char_traits@D@std@@@std@@QEAAAEAV01@H@Z:PROC
EXTRN	__imp_?put@?$basic_ostream@DU?$char_traits@D@std@@@std@@QEAAAEAV12@D@Z:PROC
EXTRN	__imp_?flush@?$basic_ostream@DU?$char_traits@D@std@@@std@@QEAAAEAV12@XZ:PROC
EXTRN	_CxxThrowException:PROC
EXTRN	_RTC_CheckStackVars:PROC
EXTRN	_RTC_InitBase:PROC
EXTRN	_RTC_Shutdown:PROC
EXTRN	__CheckForDebuggerJustMyCode:PROC
EXTRN	__CxxFrameHandler4:PROC
EXTRN	__GSHandlerCheck:PROC
EXTRN	__GSHandlerCheck_EH4:PROC
EXTRN	__security_check_cookie:PROC
EXTRN	??_7type_info@@6B@:BYTE				; type_info::`vftable'
EXTRN	__imp_?cout@std@@3V?$basic_ostream@DU?$char_traits@D@std@@@1@A:BYTE
EXTRN	__security_cookie:QWORD
;	COMDAT ?_OptionsStorage@?1??__local_stdio_printf_options@@9@4_KA
_BSS	SEGMENT
?_OptionsStorage@?1??__local_stdio_printf_options@@9@4_KA DQ 01H DUP (?) ; `__local_stdio_printf_options'::`2'::_OptionsStorage
_BSS	ENDS
_BSS	SEGMENT
?rbuf@@3PADA DB	0cdH DUP (?)				; rbuf
_BSS	ENDS
;	COMDAT pdata
pdata	SEGMENT
$pdata$??_H@YAXPEAX_K1P6APEAX0@Z@Z DD imagerel $LN9
	DD	imagerel $LN9+181
	DD	imagerel $unwind$??_H@YAXPEAX_K1P6APEAX0@Z@Z
pdata	ENDS
;	COMDAT pdata
pdata	SEGMENT
$pdata$?__empty_global_delete@@YAXPEAX@Z DD imagerel $LN4
	DD	imagerel $LN4+64
	DD	imagerel $unwind$?__empty_global_delete@@YAXPEAX@Z
pdata	ENDS
;	COMDAT pdata
pdata	SEGMENT
$pdata$?__empty_global_delete@@YAXPEAX_K@Z DD imagerel $LN4
	DD	imagerel $LN4+69
	DD	imagerel $unwind$?__empty_global_delete@@YAXPEAX_K@Z
pdata	ENDS
;	COMDAT pdata
pdata	SEGMENT
$pdata$??0Chain@Rule@GRB@@QEAA@XZ DD imagerel $LN4
	DD	imagerel $LN4+98
	DD	imagerel $unwind$??0Chain@Rule@GRB@@QEAA@XZ
pdata	ENDS
;	COMDAT pdata
pdata	SEGMENT
$pdata$?T@Chain@Rule@GRB@@SAFD@Z DD imagerel $LN4
	DD	imagerel $LN4+71
	DD	imagerel $unwind$?T@Chain@Rule@GRB@@SAFD@Z
pdata	ENDS
;	COMDAT pdata
pdata	SEGMENT
$pdata$?isT@Chain@Rule@GRB@@SA_NF@Z DD imagerel $LN6
	DD	imagerel $LN6+104
	DD	imagerel $unwind$?isT@Chain@Rule@GRB@@SA_NF@Z
pdata	ENDS
;	COMDAT pdata
pdata	SEGMENT
$pdata$?isN@Chain@Rule@GRB@@SA_NF@Z DD imagerel $LN6
	DD	imagerel $LN6+104
	DD	imagerel $unwind$?isN@Chain@Rule@GRB@@SA_NF@Z
pdata	ENDS
;	COMDAT pdata
pdata	SEGMENT
$pdata$?alphabet_to_char@Chain@Rule@GRB@@SADF@Z DD imagerel $LN6
	DD	imagerel $LN6+120
	DD	imagerel $unwind$?alphabet_to_char@Chain@Rule@GRB@@SADF@Z
pdata	ENDS
;	COMDAT pdata
pdata	SEGMENT
$pdata$??0Rule@GRB@@QEAA@XZ DD imagerel $LN4
	DD	imagerel $LN4+96
	DD	imagerel $unwind$??0Rule@GRB@@QEAA@XZ
pdata	ENDS
;	COMDAT pdata
pdata	SEGMENT
$pdata$??0Greibach@GRB@@QEAA@XZ DD imagerel $LN4
	DD	imagerel $LN4+124
	DD	imagerel $unwind$??0Greibach@GRB@@QEAA@XZ
pdata	ENDS
;	COMDAT pdata
pdata	SEGMENT
$pdata$??2@YAPEAX_KPEAX@Z DD imagerel $LN4
	DD	imagerel $LN4+76
	DD	imagerel $unwind$??2@YAPEAX_KPEAX@Z
pdata	ENDS
;	COMDAT pdata
pdata	SEGMENT
$pdata$??0LexTable@LT@@QEAA@XZ DD imagerel $LN4
	DD	imagerel $LN4+71
	DD	imagerel $unwind$??0LexTable@LT@@QEAA@XZ
pdata	ENDS
;	COMDAT pdata
pdata	SEGMENT
$pdata$__local_stdio_printf_options DD imagerel $LN4
	DD	imagerel $LN4+59
	DD	imagerel $unwind$__local_stdio_printf_options
pdata	ENDS
;	COMDAT pdata
pdata	SEGMENT
$pdata$_vsprintf_s_l DD imagerel $LN6
	DD	imagerel $LN6+174
	DD	imagerel $unwind$_vsprintf_s_l
pdata	ENDS
;	COMDAT pdata
pdata	SEGMENT
$pdata$sprintf_s DD imagerel $LN4
	DD	imagerel $LN4+194
	DD	imagerel $unwind$sprintf_s
pdata	ENDS
;	COMDAT pdata
pdata	SEGMENT
$pdata$wmemcpy DD imagerel $LN4
	DD	imagerel $LN4+106
	DD	imagerel $unwind$wmemcpy
pdata	ENDS
;	COMDAT pdata
pdata	SEGMENT
$pdata$?max@?$numeric_limits@_J@std@@SA_JXZ DD imagerel $LN3
	DD	imagerel $LN3+62
	DD	imagerel $unwind$?max@?$numeric_limits@_J@std@@SA_JXZ
pdata	ENDS
;	COMDAT pdata
pdata	SEGMENT
$pdata$??0exception@std@@QEAA@QEBDH@Z DD imagerel $LN3
	DD	imagerel $LN3+139
	DD	imagerel $unwind$??0exception@std@@QEAA@QEBDH@Z
pdata	ENDS
;	COMDAT pdata
pdata	SEGMENT
$pdata$??0exception@std@@QEAA@AEBV01@@Z DD imagerel $LN3
	DD	imagerel $LN3+146
	DD	imagerel $unwind$??0exception@std@@QEAA@AEBV01@@Z
pdata	ENDS
;	COMDAT pdata
pdata	SEGMENT
$pdata$??1exception@std@@UEAA@XZ DD imagerel $LN3
	DD	imagerel $LN3+101
	DD	imagerel $unwind$??1exception@std@@UEAA@XZ
pdata	ENDS
;	COMDAT pdata
pdata	SEGMENT
$pdata$?what@exception@std@@UEBAPEBDXZ DD imagerel $LN5
	DD	imagerel $LN5+119
	DD	imagerel $unwind$?what@exception@std@@UEBAPEBDXZ
pdata	ENDS
;	COMDAT pdata
pdata	SEGMENT
$pdata$??_Gexception@std@@UEAAPEAXI@Z DD imagerel $LN4
	DD	imagerel $LN4+105
	DD	imagerel $unwind$??_Gexception@std@@UEAAPEAXI@Z
pdata	ENDS
;	COMDAT pdata
pdata	SEGMENT
$pdata$??0bad_alloc@std@@AEAA@QEBD@Z DD imagerel $LN3
	DD	imagerel $LN3+118
	DD	imagerel $unwind$??0bad_alloc@std@@AEAA@QEBD@Z
pdata	ENDS
;	COMDAT pdata
pdata	SEGMENT
$pdata$??1bad_alloc@std@@UEAA@XZ DD imagerel $LN3
	DD	imagerel $LN3+64
	DD	imagerel $unwind$??1bad_alloc@std@@UEAA@XZ
pdata	ENDS
;	COMDAT pdata
pdata	SEGMENT
$pdata$??0bad_alloc@std@@QEAA@AEBV01@@Z DD imagerel $LN3
	DD	imagerel $LN3+100
	DD	imagerel $unwind$??0bad_alloc@std@@QEAA@AEBV01@@Z
pdata	ENDS
;	COMDAT pdata
pdata	SEGMENT
$pdata$??_Gbad_alloc@std@@UEAAPEAXI@Z DD imagerel $LN4
	DD	imagerel $LN4+105
	DD	imagerel $unwind$??_Gbad_alloc@std@@UEAAPEAXI@Z
pdata	ENDS
;	COMDAT pdata
pdata	SEGMENT
$pdata$??0bad_array_new_length@std@@QEAA@XZ DD imagerel $LN3
	DD	imagerel $LN3+107
	DD	imagerel $unwind$??0bad_array_new_length@std@@QEAA@XZ
pdata	ENDS
;	COMDAT pdata
pdata	SEGMENT
$pdata$??1bad_array_new_length@std@@UEAA@XZ DD imagerel $LN3
	DD	imagerel $LN3+64
	DD	imagerel $unwind$??1bad_array_new_length@std@@UEAA@XZ
pdata	ENDS
;	COMDAT pdata
pdata	SEGMENT
$pdata$??0bad_array_new_length@std@@QEAA@AEBV01@@Z DD imagerel $LN3
	DD	imagerel $LN3+100
	DD	imagerel $unwind$??0bad_array_new_length@std@@QEAA@AEBV01@@Z
pdata	ENDS
;	COMDAT pdata
pdata	SEGMENT
$pdata$??_Gbad_array_new_length@std@@UEAAPEAXI@Z DD imagerel $LN4
	DD	imagerel $LN4+105
	DD	imagerel $unwind$??_Gbad_array_new_length@std@@UEAAPEAXI@Z
pdata	ENDS
;	COMDAT pdata
pdata	SEGMENT
$pdata$?_Throw_bad_array_new_length@std@@YAXXZ DD imagerel $LN3
	DD	imagerel $LN3+83
	DD	imagerel $unwind$?_Throw_bad_array_new_length@std@@YAXXZ
pdata	ENDS
;	COMDAT pdata
pdata	SEGMENT
$pdata$?_Allocate@_Default_allocate_traits@std@@SAPEAX_K@Z DD imagerel $LN3
	DD	imagerel $LN3+76
	DD	imagerel $unwind$?_Allocate@_Default_allocate_traits@std@@SAPEAX_K@Z
pdata	ENDS
;	COMDAT pdata
pdata	SEGMENT
$pdata$?_Adjust_manually_vector_aligned@std@@YAXAEAPEAXAEA_K@Z DD imagerel $LN21
	DD	imagerel $LN21+476
	DD	imagerel $unwind$?_Adjust_manually_vector_aligned@std@@YAXAEAPEAXAEA_K@Z
pdata	ENDS
;	COMDAT pdata
pdata	SEGMENT
$pdata$??0_Container_proxy@std@@QEAA@PEAU_Container_base12@1@@Z DD imagerel $LN3
	DD	imagerel $LN3+108
	DD	imagerel $unwind$??0_Container_proxy@std@@QEAA@PEAU_Container_base12@1@@Z
pdata	ENDS
;	COMDAT pdata
pdata	SEGMENT
$pdata$??0_Container_base12@std@@QEAA@XZ DD imagerel $LN3
	DD	imagerel $LN3+85
	DD	imagerel $unwind$??0_Container_base12@std@@QEAA@XZ
pdata	ENDS
;	COMDAT pdata
pdata	SEGMENT
$pdata$?_Orphan_all@_Container_base12@std@@QEAAXXZ DD imagerel $LN7
	DD	imagerel $LN7+233
	DD	imagerel $unwind$?_Orphan_all@_Container_base12@std@@QEAAXXZ
pdata	ENDS
;	COMDAT pdata
pdata	SEGMENT
$pdata$?_Swap_proxy_and_iterators@_Container_base12@std@@QEAAXAEAU12@@Z DD imagerel $LN5
	DD	imagerel $LN5+257
	DD	imagerel $unwind$?_Swap_proxy_and_iterators@_Container_base12@std@@QEAAXAEAU12@@Z
pdata	ENDS
;	COMDAT pdata
pdata	SEGMENT
$pdata$?_Release@_Basic_container_proxy_ptr12@std@@QEAAXXZ DD imagerel $LN3
	DD	imagerel $LN3+78
	DD	imagerel $unwind$?_Release@_Basic_container_proxy_ptr12@std@@QEAAXXZ
pdata	ENDS
;	COMDAT pdata
pdata	SEGMENT
$pdata$??$addressof@U_Container_base12@std@@@std@@YAPEAU_Container_base12@0@AEAU10@@Z DD imagerel $LN3
	DD	imagerel $LN3+71
	DD	imagerel $unwind$??$addressof@U_Container_base12@std@@@std@@YAPEAU_Container_base12@0@AEAU10@@Z
pdata	ENDS
;	COMDAT pdata
pdata	SEGMENT
$pdata$??$_Construct_in_place@U_Container_proxy@std@@PEAU_Container_base12@2@@std@@YAXAEAU_Container_proxy@0@$$QEAPEAU_Container_base12@0@@Z DD imagerel $LN3
	DD	imagerel $LN3+129
	DD	imagerel $unwind$??$_Construct_in_place@U_Container_proxy@std@@PEAU_Container_base12@2@@std@@YAXAEAU_Container_proxy@0@$$QEAPEAU_Container_base12@0@@Z
pdata	ENDS
;	COMDAT pdata
pdata	SEGMENT
$pdata$??0?$allocator@F@std@@QEAA@XZ DD imagerel $LN3
	DD	imagerel $LN3+71
	DD	imagerel $unwind$??0?$allocator@F@std@@QEAA@XZ
pdata	ENDS
;	COMDAT pdata
pdata	SEGMENT
$pdata$?deallocate@?$allocator@F@std@@QEAAXQEAF_K@Z DD imagerel $LN3
	DD	imagerel $LN3+99
	DD	imagerel $unwind$?deallocate@?$allocator@F@std@@QEAAXQEAF_K@Z
pdata	ENDS
;	COMDAT pdata
pdata	SEGMENT
$pdata$?allocate@?$allocator@F@std@@QEAAPEAF_K@Z DD imagerel $LN3
	DD	imagerel $LN3+89
	DD	imagerel $unwind$?allocate@?$allocator@F@std@@QEAAPEAF_K@Z
pdata	ENDS
;	COMDAT pdata
pdata	SEGMENT
$pdata$?max_size@?$_Default_allocator_traits@V?$allocator@F@std@@@std@@SA_KAEBV?$allocator@F@2@@Z DD imagerel $LN3
	DD	imagerel $LN3+74
	DD	imagerel $unwind$?max_size@?$_Default_allocator_traits@V?$allocator@F@std@@@std@@SA_KAEBV?$allocator@F@2@@Z
pdata	ENDS
;	COMDAT pdata
pdata	SEGMENT
$pdata$?select_on_container_copy_construction@?$_Default_allocator_traits@V?$allocator@F@std@@@std@@SA?AV?$allocator@F@2@AEBV32@@Z DD imagerel $LN3
	DD	imagerel $LN3+76
	DD	imagerel $unwind$?select_on_container_copy_construction@?$_Default_allocator_traits@V?$allocator@F@std@@@std@@SA?AV?$allocator@F@2@AEBV32@@Z
pdata	ENDS
;	COMDAT pdata
pdata	SEGMENT
$pdata$?deallocate@?$allocator@PEAF@std@@QEAAXQEAPEAF_K@Z DD imagerel $LN3
	DD	imagerel $LN3+100
	DD	imagerel $unwind$?deallocate@?$allocator@PEAF@std@@QEAAXQEAPEAF_K@Z
pdata	ENDS
;	COMDAT pdata
pdata	SEGMENT
$pdata$?allocate@?$allocator@PEAF@std@@QEAAPEAPEAF_K@Z DD imagerel $LN3
	DD	imagerel $LN3+89
	DD	imagerel $unwind$?allocate@?$allocator@PEAF@std@@QEAAPEAPEAF_K@Z
pdata	ENDS
;	COMDAT pdata
pdata	SEGMENT
$pdata$??0?$deque@FV?$allocator@F@std@@@std@@QEAA@XZ DD imagerel $LN3
	DD	imagerel $LN3+157
	DD	imagerel $unwind$??0?$deque@FV?$allocator@F@std@@@std@@QEAA@XZ
pdata	ENDS
;	COMDAT pdata
pdata	SEGMENT
$pdata$??0?$deque@FV?$allocator@F@std@@@std@@QEAA@AEBV01@@Z DD imagerel $LN4
	DD	imagerel $LN4+357
	DD	imagerel $unwind$??0?$deque@FV?$allocator@F@std@@@std@@QEAA@AEBV01@@Z
pdata	ENDS
;	COMDAT pdata
pdata	SEGMENT
$pdata$?dtor$0@?0???0?$deque@FV?$allocator@F@std@@@std@@QEAA@AEBV01@@Z@4HA DD imagerel ?dtor$0@?0???0?$deque@FV?$allocator@F@std@@@std@@QEAA@AEBV01@@Z@4HA
	DD	imagerel ?dtor$0@?0???0?$deque@FV?$allocator@F@std@@@std@@QEAA@AEBV01@@Z@4HA+36
	DD	imagerel $unwind$?dtor$0@?0???0?$deque@FV?$allocator@F@std@@@std@@QEAA@AEBV01@@Z@4HA
pdata	ENDS
;	COMDAT pdata
pdata	SEGMENT
$pdata$?_Move_assign@?$deque@FV?$allocator@F@std@@@std@@AEAAXAEAV12@U_Equal_allocators@2@@Z DD imagerel $LN3
	DD	imagerel $LN3+155
	DD	imagerel $unwind$?_Move_assign@?$deque@FV?$allocator@F@std@@@std@@AEAAXAEAV12@U_Equal_allocators@2@@Z
pdata	ENDS
;	COMDAT pdata
pdata	SEGMENT
$pdata$??4?$deque@FV?$allocator@F@std@@@std@@QEAAAEAV01@$$QEAV01@@Z DD imagerel $LN4
	DD	imagerel $LN4+143
	DD	imagerel $unwind$??4?$deque@FV?$allocator@F@std@@@std@@QEAAAEAV01@$$QEAV01@@Z
pdata	ENDS
;	COMDAT pdata
pdata	SEGMENT
$pdata$?_Take_contents@?$deque@FV?$allocator@F@std@@@std@@AEAAXAEAV12@@Z DD imagerel $LN3
	DD	imagerel $LN3+226
	DD	imagerel $unwind$?_Take_contents@?$deque@FV?$allocator@F@std@@@std@@AEAAXAEAV12@@Z
pdata	ENDS
;	COMDAT pdata
pdata	SEGMENT
$pdata$??1?$deque@FV?$allocator@F@std@@@std@@QEAA@XZ DD imagerel $LN3
	DD	imagerel $LN3+199
	DD	imagerel $unwind$??1?$deque@FV?$allocator@F@std@@@std@@QEAA@XZ
pdata	ENDS
;	COMDAT pdata
pdata	SEGMENT
$pdata$?_Copy_assign@?$deque@FV?$allocator@F@std@@@std@@QEAAXAEBV12@U?$integral_constant@_N$0A@@2@@Z DD imagerel $LN3
	DD	imagerel $LN3+229
	DD	imagerel $unwind$?_Copy_assign@?$deque@FV?$allocator@F@std@@@std@@QEAAXAEBV12@U?$integral_constant@_N$0A@@2@@Z
pdata	ENDS
;	COMDAT pdata
pdata	SEGMENT
$pdata$??4?$deque@FV?$allocator@F@std@@@std@@QEAAAEAV01@AEBV01@@Z DD imagerel $LN4
	DD	imagerel $LN4+143
	DD	imagerel $unwind$??4?$deque@FV?$allocator@F@std@@@std@@QEAAAEAV01@AEBV01@@Z
pdata	ENDS
;	COMDAT pdata
pdata	SEGMENT
$pdata$?_Unchecked_begin@?$deque@FV?$allocator@F@std@@@std@@QEAA?AV?$_Deque_unchecked_iterator@V?$_Deque_val@U?$_Deque_simple_types@F@std@@@std@@@2@XZ DD imagerel $LN3
	DD	imagerel $LN3+140
	DD	imagerel $unwind$?_Unchecked_begin@?$deque@FV?$allocator@F@std@@@std@@QEAA?AV?$_Deque_unchecked_iterator@V?$_Deque_val@U?$_Deque_simple_types@F@std@@@std@@@2@XZ
pdata	ENDS
;	COMDAT pdata
pdata	SEGMENT
$pdata$?_Unchecked_begin@?$deque@FV?$allocator@F@std@@@std@@QEBA?AV?$_Deque_unchecked_const_iterator@V?$_Deque_val@U?$_Deque_simple_types@F@std@@@std@@@2@XZ DD imagerel $LN3
	DD	imagerel $LN3+140
	DD	imagerel $unwind$?_Unchecked_begin@?$deque@FV?$allocator@F@std@@@std@@QEBA?AV?$_Deque_unchecked_const_iterator@V?$_Deque_val@U?$_Deque_simple_types@F@std@@@std@@@2@XZ
pdata	ENDS
;	COMDAT pdata
pdata	SEGMENT
$pdata$?_Unchecked_end@?$deque@FV?$allocator@F@std@@@std@@QEAA?AV?$_Deque_unchecked_iterator@V?$_Deque_val@U?$_Deque_simple_types@F@std@@@std@@@2@XZ DD imagerel $LN3
	DD	imagerel $LN3+175
	DD	imagerel $unwind$?_Unchecked_end@?$deque@FV?$allocator@F@std@@@std@@QEAA?AV?$_Deque_unchecked_iterator@V?$_Deque_val@U?$_Deque_simple_types@F@std@@@std@@@2@XZ
pdata	ENDS
;	COMDAT pdata
pdata	SEGMENT
$pdata$?_Unchecked_end@?$deque@FV?$allocator@F@std@@@std@@QEBA?AV?$_Deque_unchecked_const_iterator@V?$_Deque_val@U?$_Deque_simple_types@F@std@@@std@@@2@XZ DD imagerel $LN3
	DD	imagerel $LN3+175
	DD	imagerel $unwind$?_Unchecked_end@?$deque@FV?$allocator@F@std@@@std@@QEBA?AV?$_Deque_unchecked_const_iterator@V?$_Deque_val@U?$_Deque_simple_types@F@std@@@std@@@2@XZ
pdata	ENDS
;	COMDAT pdata
pdata	SEGMENT
$pdata$?size@?$deque@FV?$allocator@F@std@@@std@@QEBA_KXZ DD imagerel $LN3
	DD	imagerel $LN3+79
	DD	imagerel $unwind$?size@?$deque@FV?$allocator@F@std@@@std@@QEBA_KXZ
pdata	ENDS
;	COMDAT pdata
pdata	SEGMENT
$pdata$?max_size@?$deque@FV?$allocator@F@std@@@std@@QEBA_KXZ DD imagerel $LN3
	DD	imagerel $LN3+125
	DD	imagerel $unwind$?max_size@?$deque@FV?$allocator@F@std@@@std@@QEBA_KXZ
pdata	ENDS
;	COMDAT pdata
pdata	SEGMENT
$pdata$?empty@?$deque@FV?$allocator@F@std@@@std@@QEBA_NXZ DD imagerel $LN5
	DD	imagerel $LN5+111
	DD	imagerel $unwind$?empty@?$deque@FV?$allocator@F@std@@@std@@QEBA_NXZ
pdata	ENDS
;	COMDAT pdata
pdata	SEGMENT
$pdata$?back@?$deque@FV?$allocator@F@std@@@std@@QEAAAEAFXZ DD imagerel $LN12
	DD	imagerel $LN12+251
	DD	imagerel $unwind$?back@?$deque@FV?$allocator@F@std@@@std@@QEAAAEAFXZ
pdata	ENDS
;	COMDAT pdata
pdata	SEGMENT
$pdata$?push_back@?$deque@FV?$allocator@F@std@@@std@@QEAAXAEBF@Z DD imagerel $LN3
	DD	imagerel $LN3+100
	DD	imagerel $unwind$?push_back@?$deque@FV?$allocator@F@std@@@std@@QEAAXAEBF@Z
pdata	ENDS
;	COMDAT pdata
pdata	SEGMENT
$pdata$?pop_back@?$deque@FV?$allocator@F@std@@@std@@QEAAXXZ DD imagerel $LN10
	DD	imagerel $LN10+461
	DD	imagerel $unwind$?pop_back@?$deque@FV?$allocator@F@std@@@std@@QEAAXXZ
pdata	ENDS
;	COMDAT pdata
pdata	SEGMENT
$pdata$?_Erase_last_n@?$deque@FV?$allocator@F@std@@@std@@AEAAX_K@Z DD imagerel $LN6
	DD	imagerel $LN6+112
	DD	imagerel $unwind$?_Erase_last_n@?$deque@FV?$allocator@F@std@@@std@@AEAAX_K@Z
pdata	ENDS
;	COMDAT pdata
pdata	SEGMENT
$pdata$?_Xlen@?$deque@FV?$allocator@F@std@@@std@@AEBAXXZ DD imagerel $LN3
	DD	imagerel $LN3+76
	DD	imagerel $unwind$?_Xlen@?$deque@FV?$allocator@F@std@@@std@@AEBAXXZ
pdata	ENDS
;	COMDAT pdata
pdata	SEGMENT
$pdata$?_Growmap@?$deque@FV?$allocator@F@std@@@std@@AEAAX_K@Z DD imagerel $LN12
	DD	imagerel $LN12+1074
	DD	imagerel $unwind$?_Growmap@?$deque@FV?$allocator@F@std@@@std@@AEAAX_K@Z
pdata	ENDS
;	COMDAT pdata
pdata	SEGMENT
$pdata$?_Tidy@?$deque@FV?$allocator@F@std@@@std@@AEAAXXZ DD imagerel $LN10
	DD	imagerel $LN10+457
	DD	imagerel $unwind$?_Tidy@?$deque@FV?$allocator@F@std@@@std@@AEAAXXZ
pdata	ENDS
;	COMDAT pdata
pdata	SEGMENT
$pdata$?_Orphan_off@?$deque@FV?$allocator@F@std@@@std@@AEBAX_K@Z DD imagerel $LN11
	DD	imagerel $LN11+400
	DD	imagerel $unwind$?_Orphan_off@?$deque@FV?$allocator@F@std@@@std@@AEBAX_K@Z
pdata	ENDS
;	COMDAT pdata
pdata	SEGMENT
$pdata$?_Getblock@?$deque@FV?$allocator@F@std@@@std@@AEBA_K_K@Z DD imagerel $LN3
	DD	imagerel $LN3+97
	DD	imagerel $unwind$?_Getblock@?$deque@FV?$allocator@F@std@@@std@@AEBA_K_K@Z
pdata	ENDS
;	COMDAT pdata
pdata	SEGMENT
$pdata$?_Orphan_all@?$deque@FV?$allocator@F@std@@@std@@AEAAXXZ DD imagerel $LN3
	DD	imagerel $LN3+85
	DD	imagerel $unwind$?_Orphan_all@?$deque@FV?$allocator@F@std@@@std@@AEAAXXZ
pdata	ENDS
;	COMDAT pdata
pdata	SEGMENT
$pdata$?_Getal@?$deque@FV?$allocator@F@std@@@std@@AEAAAEAV?$allocator@F@2@XZ DD imagerel $LN3
	DD	imagerel $LN3+80
	DD	imagerel $unwind$?_Getal@?$deque@FV?$allocator@F@std@@@std@@AEAAAEAV?$allocator@F@2@XZ
pdata	ENDS
;	COMDAT pdata
pdata	SEGMENT
$pdata$?_Getal@?$deque@FV?$allocator@F@std@@@std@@AEBAAEBV?$allocator@F@2@XZ DD imagerel $LN3
	DD	imagerel $LN3+80
	DD	imagerel $unwind$?_Getal@?$deque@FV?$allocator@F@std@@@std@@AEBAAEBV?$allocator@F@2@XZ
pdata	ENDS
;	COMDAT pdata
pdata	SEGMENT
$pdata$?_Get_data@?$deque@FV?$allocator@F@std@@@std@@AEAAAEAV?$_Deque_val@U?$_Deque_simple_types@F@std@@@2@XZ DD imagerel $LN3
	DD	imagerel $LN3+71
	DD	imagerel $unwind$?_Get_data@?$deque@FV?$allocator@F@std@@@std@@AEAAAEAV?$_Deque_val@U?$_Deque_simple_types@F@std@@@2@XZ
pdata	ENDS
;	COMDAT pdata
pdata	SEGMENT
$pdata$?_Get_data@?$deque@FV?$allocator@F@std@@@std@@AEBAAEBV?$_Deque_val@U?$_Deque_simple_types@F@std@@@2@XZ DD imagerel $LN3
	DD	imagerel $LN3+71
	DD	imagerel $unwind$?_Get_data@?$deque@FV?$allocator@F@std@@@std@@AEBAAEBV?$_Deque_val@U?$_Deque_simple_types@F@std@@@2@XZ
pdata	ENDS
;	COMDAT pdata
pdata	SEGMENT
$pdata$?_Map@?$deque@FV?$allocator@F@std@@@std@@AEAAAEAPEAPEAFXZ DD imagerel $LN3
	DD	imagerel $LN3+80
	DD	imagerel $unwind$?_Map@?$deque@FV?$allocator@F@std@@@std@@AEAAAEAPEAPEAFXZ
pdata	ENDS
;	COMDAT pdata
pdata	SEGMENT
$pdata$?_Mapsize@?$deque@FV?$allocator@F@std@@@std@@AEAAAEA_KXZ DD imagerel $LN3
	DD	imagerel $LN3+80
	DD	imagerel $unwind$?_Mapsize@?$deque@FV?$allocator@F@std@@@std@@AEAAAEA_KXZ
pdata	ENDS
;	COMDAT pdata
pdata	SEGMENT
$pdata$?_Myoff@?$deque@FV?$allocator@F@std@@@std@@AEAAAEA_KXZ DD imagerel $LN3
	DD	imagerel $LN3+80
	DD	imagerel $unwind$?_Myoff@?$deque@FV?$allocator@F@std@@@std@@AEAAAEA_KXZ
pdata	ENDS
;	COMDAT pdata
pdata	SEGMENT
$pdata$?_Myoff@?$deque@FV?$allocator@F@std@@@std@@AEBAAEB_KXZ DD imagerel $LN3
	DD	imagerel $LN3+80
	DD	imagerel $unwind$?_Myoff@?$deque@FV?$allocator@F@std@@@std@@AEBAAEB_KXZ
pdata	ENDS
;	COMDAT pdata
pdata	SEGMENT
$pdata$?_Mysize@?$deque@FV?$allocator@F@std@@@std@@AEAAAEA_KXZ DD imagerel $LN3
	DD	imagerel $LN3+80
	DD	imagerel $unwind$?_Mysize@?$deque@FV?$allocator@F@std@@@std@@AEAAAEA_KXZ
pdata	ENDS
;	COMDAT pdata
pdata	SEGMENT
$pdata$?_Mysize@?$deque@FV?$allocator@F@std@@@std@@AEBAAEB_KXZ DD imagerel $LN3
	DD	imagerel $LN3+80
	DD	imagerel $unwind$?_Mysize@?$deque@FV?$allocator@F@std@@@std@@AEBAAEB_KXZ
pdata	ENDS
;	COMDAT pdata
pdata	SEGMENT
$pdata$??0?$_Deque_val@U?$_Deque_simple_types@F@std@@@std@@QEAA@XZ DD imagerel $LN3
	DD	imagerel $LN3+143
	DD	imagerel $unwind$??0?$_Deque_val@U?$_Deque_simple_types@F@std@@@std@@QEAA@XZ
pdata	ENDS
;	COMDAT pdata
pdata	SEGMENT
$pdata$?_Getblock@?$_Deque_val@U?$_Deque_simple_types@F@std@@@std@@QEBA_K_K@Z DD imagerel $LN3
	DD	imagerel $LN3+103
	DD	imagerel $unwind$?_Getblock@?$_Deque_val@U?$_Deque_simple_types@F@std@@@std@@QEBA_K_K@Z
pdata	ENDS
;	COMDAT pdata
pdata	SEGMENT
$pdata$?_Get_first@?$_Compressed_pair@V?$allocator@F@std@@V?$_Deque_val@U?$_Deque_simple_types@F@std@@@2@$00@std@@QEAAAEAV?$allocator@F@2@XZ DD imagerel $LN3
	DD	imagerel $LN3+71
	DD	imagerel $unwind$?_Get_first@?$_Compressed_pair@V?$allocator@F@std@@V?$_Deque_val@U?$_Deque_simple_types@F@std@@@2@$00@std@@QEAAAEAV?$allocator@F@2@XZ
pdata	ENDS
;	COMDAT pdata
pdata	SEGMENT
$pdata$?_Get_first@?$_Compressed_pair@V?$allocator@F@std@@V?$_Deque_val@U?$_Deque_simple_types@F@std@@@2@$00@std@@QEBAAEBV?$allocator@F@2@XZ DD imagerel $LN3
	DD	imagerel $LN3+71
	DD	imagerel $unwind$?_Get_first@?$_Compressed_pair@V?$allocator@F@std@@V?$_Deque_val@U?$_Deque_simple_types@F@std@@@2@$00@std@@QEBAAEBV?$allocator@F@2@XZ
pdata	ENDS
;	COMDAT pdata
pdata	SEGMENT
$pdata$??0?$stack@FV?$deque@FV?$allocator@F@std@@@std@@@std@@QEAA@XZ DD imagerel $LN3
	DD	imagerel $LN3+86
	DD	imagerel $unwind$??0?$stack@FV?$deque@FV?$allocator@F@std@@@std@@@std@@QEAA@XZ
pdata	ENDS
;	COMDAT pdata
pdata	SEGMENT
$pdata$?size@?$stack@FV?$deque@FV?$allocator@F@std@@@std@@@std@@QEBA_KXZ DD imagerel $LN3
	DD	imagerel $LN3+80
	DD	imagerel $unwind$?size@?$stack@FV?$deque@FV?$allocator@F@std@@@std@@@std@@QEBA_KXZ
pdata	ENDS
;	COMDAT pdata
pdata	SEGMENT
$pdata$?top@?$stack@FV?$deque@FV?$allocator@F@std@@@std@@@std@@QEAAAEAFXZ DD imagerel $LN3
	DD	imagerel $LN3+80
	DD	imagerel $unwind$?top@?$stack@FV?$deque@FV?$allocator@F@std@@@std@@@std@@QEAAAEAFXZ
pdata	ENDS
;	COMDAT pdata
pdata	SEGMENT
$pdata$?push@?$stack@FV?$deque@FV?$allocator@F@std@@@std@@@std@@QEAAXAEBF@Z DD imagerel $LN3
	DD	imagerel $LN3+91
	DD	imagerel $unwind$?push@?$stack@FV?$deque@FV?$allocator@F@std@@@std@@@std@@QEAAXAEBF@Z
pdata	ENDS
;	COMDAT pdata
pdata	SEGMENT
$pdata$?pop@?$stack@FV?$deque@FV?$allocator@F@std@@@std@@@std@@QEAAXXZ DD imagerel $LN3
	DD	imagerel $LN3+80
	DD	imagerel $unwind$?pop@?$stack@FV?$deque@FV?$allocator@F@std@@@std@@@std@@QEAAXXZ
pdata	ENDS
;	COMDAT pdata
pdata	SEGMENT
$pdata$??1?$stack@FV?$deque@FV?$allocator@F@std@@@std@@@std@@QEAA@XZ DD imagerel $LN3
	DD	imagerel $LN3+67
	DD	imagerel $unwind$??1?$stack@FV?$deque@FV?$allocator@F@std@@@std@@@std@@QEAA@XZ
pdata	ENDS
;	COMDAT pdata
pdata	SEGMENT
$pdata$??0?$stack@FV?$deque@FV?$allocator@F@std@@@std@@@std@@QEAA@AEBV01@@Z DD imagerel $LN4
	DD	imagerel $LN4+86
	DD	imagerel $unwind$??0?$stack@FV?$deque@FV?$allocator@F@std@@@std@@@std@@QEAA@AEBV01@@Z
pdata	ENDS
;	COMDAT pdata
pdata	SEGMENT
$pdata$??4?$stack@FV?$deque@FV?$allocator@F@std@@@std@@@std@@QEAAAEAV01@AEBV01@@Z DD imagerel $LN3
	DD	imagerel $LN3+86
	DD	imagerel $unwind$??4?$stack@FV?$deque@FV?$allocator@F@std@@@std@@@std@@QEAAAEAV01@AEBV01@@Z
pdata	ENDS
;	COMDAT pdata
pdata	SEGMENT
$pdata$??4?$stack@FV?$deque@FV?$allocator@F@std@@@std@@@std@@QEAAAEAV01@$$QEAV01@@Z DD imagerel $LN3
	DD	imagerel $LN3+86
	DD	imagerel $unwind$??4?$stack@FV?$deque@FV?$allocator@F@std@@@std@@@std@@QEAAAEAV01@$$QEAV01@@Z
pdata	ENDS
;	COMDAT pdata
pdata	SEGMENT
$pdata$?__autoclassinit2@?$stack@FV?$deque@FV?$allocator@F@std@@@std@@@std@@QEAAX_K@Z DD imagerel $LN3
	DD	imagerel $LN3+73
	DD	imagerel $unwind$?__autoclassinit2@?$stack@FV?$deque@FV?$allocator@F@std@@@std@@@std@@QEAAX_K@Z
pdata	ENDS
;	COMDAT pdata
pdata	SEGMENT
$pdata$?push@?$Stack@F@@QEAAXF@Z DD imagerel $LN4
	DD	imagerel $LN4+91
	DD	imagerel $unwind$?push@?$Stack@F@@QEAAXF@Z
pdata	ENDS
;	COMDAT pdata
pdata	SEGMENT
$pdata$?pop@?$Stack@F@@QEAAXXZ DD imagerel $LN4
	DD	imagerel $LN4+79
	DD	imagerel $unwind$?pop@?$Stack@F@@QEAAXXZ
pdata	ENDS
;	COMDAT pdata
pdata	SEGMENT
$pdata$?top@?$Stack@F@@QEAAFXZ DD imagerel $LN4
	DD	imagerel $LN4+82
	DD	imagerel $unwind$?top@?$Stack@F@@QEAAFXZ
pdata	ENDS
;	COMDAT pdata
pdata	SEGMENT
$pdata$?size@?$Stack@F@@QEAAHXZ DD imagerel $LN4
	DD	imagerel $LN4+79
	DD	imagerel $unwind$?size@?$Stack@F@@QEAAHXZ
pdata	ENDS
;	COMDAT pdata
pdata	SEGMENT
$pdata$??A?$Stack@F@@QEAAFH@Z DD imagerel $LN10
	DD	imagerel $LN10+265
	DD	imagerel $unwind$??A?$Stack@F@@QEAAFH@Z
pdata	ENDS
;	COMDAT pdata
pdata	SEGMENT
$pdata$?dtor$0@?0???A?$Stack@F@@QEAAFH@Z@4HA DD imagerel ?dtor$0@?0???A?$Stack@F@@QEAAFH@Z@4HA
	DD	imagerel ?dtor$0@?0???A?$Stack@F@@QEAAFH@Z@4HA+36
	DD	imagerel $unwind$?dtor$0@?0???A?$Stack@F@@QEAAFH@Z@4HA
pdata	ENDS
;	COMDAT pdata
pdata	SEGMENT
$pdata$??0?$Stack@F@@QEAA@XZ DD imagerel $LN4
	DD	imagerel $LN4+74
	DD	imagerel $unwind$??0?$Stack@F@@QEAA@XZ
pdata	ENDS
;	COMDAT pdata
pdata	SEGMENT
$pdata$??1?$Stack@F@@QEAA@XZ DD imagerel $LN4
	DD	imagerel $LN4+67
	DD	imagerel $unwind$??1?$Stack@F@@QEAA@XZ
pdata	ENDS
;	COMDAT pdata
pdata	SEGMENT
$pdata$??0?$Stack@F@@QEAA@AEBV0@@Z DD imagerel $LN5
	DD	imagerel $LN5+86
	DD	imagerel $unwind$??0?$Stack@F@@QEAA@AEBV0@@Z
pdata	ENDS
;	COMDAT pdata
pdata	SEGMENT
$pdata$??4?$Stack@F@@QEAAAEAV0@AEBV0@@Z DD imagerel $LN4
	DD	imagerel $LN4+86
	DD	imagerel $unwind$??4?$Stack@F@@QEAAAEAV0@AEBV0@@Z
pdata	ENDS
;	COMDAT pdata
pdata	SEGMENT
$pdata$??4?$Stack@F@@QEAAAEAV0@$$QEAV0@@Z DD imagerel $LN4
	DD	imagerel $LN4+86
	DD	imagerel $unwind$??4?$Stack@F@@QEAAAEAV0@$$QEAV0@@Z
pdata	ENDS
;	COMDAT pdata
pdata	SEGMENT
$pdata$??0MFSTState@MFST@@QEAA@XZ DD imagerel $LN5
	DD	imagerel $LN5+134
	DD	imagerel $unwind$??0MFSTState@MFST@@QEAA@XZ
pdata	ENDS
;	COMDAT pdata
pdata	SEGMENT
$pdata$??0MFSTState@MFST@@QEAA@FV?$Stack@F@@F@Z DD imagerel $LN6
	DD	imagerel $LN6+180
	DD	imagerel $unwind$??0MFSTState@MFST@@QEAA@FV?$Stack@F@@F@Z
pdata	ENDS
;	COMDAT pdata
pdata	SEGMENT
$pdata$?dtor$0@?0???0MFSTState@MFST@@QEAA@FV?$Stack@F@@F@Z@4HA DD imagerel ?dtor$0@?0???0MFSTState@MFST@@QEAA@FV?$Stack@F@@F@Z@4HA
	DD	imagerel ?dtor$0@?0???0MFSTState@MFST@@QEAA@FV?$Stack@F@@F@Z@4HA+39
	DD	imagerel $unwind$?dtor$0@?0???0MFSTState@MFST@@QEAA@FV?$Stack@F@@F@Z@4HA
pdata	ENDS
;	COMDAT pdata
pdata	SEGMENT
$pdata$?dtor$1@?0???0MFSTState@MFST@@QEAA@FV?$Stack@F@@F@Z@4HA DD imagerel ?dtor$1@?0???0MFSTState@MFST@@QEAA@FV?$Stack@F@@F@Z@4HA
	DD	imagerel ?dtor$1@?0???0MFSTState@MFST@@QEAA@FV?$Stack@F@@F@Z@4HA+43
	DD	imagerel $unwind$?dtor$1@?0???0MFSTState@MFST@@QEAA@FV?$Stack@F@@F@Z@4HA
pdata	ENDS
;	COMDAT pdata
pdata	SEGMENT
$pdata$??0MFSTState@MFST@@QEAA@FV?$Stack@F@@FF@Z DD imagerel $LN6
	DD	imagerel $LN6+198
	DD	imagerel $unwind$??0MFSTState@MFST@@QEAA@FV?$Stack@F@@FF@Z
pdata	ENDS
;	COMDAT pdata
pdata	SEGMENT
$pdata$?dtor$0@?0???0MFSTState@MFST@@QEAA@FV?$Stack@F@@FF@Z@4HA DD imagerel ?dtor$0@?0???0MFSTState@MFST@@QEAA@FV?$Stack@F@@FF@Z@4HA
	DD	imagerel ?dtor$0@?0???0MFSTState@MFST@@QEAA@FV?$Stack@F@@FF@Z@4HA+39
	DD	imagerel $unwind$?dtor$0@?0???0MFSTState@MFST@@QEAA@FV?$Stack@F@@FF@Z@4HA
pdata	ENDS
;	COMDAT pdata
pdata	SEGMENT
$pdata$?dtor$1@?0???0MFSTState@MFST@@QEAA@FV?$Stack@F@@FF@Z@4HA DD imagerel ?dtor$1@?0???0MFSTState@MFST@@QEAA@FV?$Stack@F@@FF@Z@4HA
	DD	imagerel ?dtor$1@?0???0MFSTState@MFST@@QEAA@FV?$Stack@F@@FF@Z@4HA+43
	DD	imagerel $unwind$?dtor$1@?0???0MFSTState@MFST@@QEAA@FV?$Stack@F@@FF@Z@4HA
pdata	ENDS
;	COMDAT pdata
pdata	SEGMENT
$pdata$??1MFSTState@MFST@@QEAA@XZ DD imagerel $LN4
	DD	imagerel $LN4+71
	DD	imagerel $unwind$??1MFSTState@MFST@@QEAA@XZ
pdata	ENDS
;	COMDAT pdata
pdata	SEGMENT
$pdata$??0MFSTState@MFST@@QEAA@AEBU01@@Z DD imagerel $LN5
	DD	imagerel $LN5+158
	DD	imagerel $unwind$??0MFSTState@MFST@@QEAA@AEBU01@@Z
pdata	ENDS
;	COMDAT pdata
pdata	SEGMENT
$pdata$??4MFSTState@MFST@@QEAAAEAU01@AEBU01@@Z DD imagerel $LN4
	DD	imagerel $LN4+158
	DD	imagerel $unwind$??4MFSTState@MFST@@QEAAAEAU01@AEBU01@@Z
pdata	ENDS
;	COMDAT pdata
pdata	SEGMENT
$pdata$??4MFSTState@MFST@@QEAAAEAU01@$$QEAU01@@Z DD imagerel $LN4
	DD	imagerel $LN4+158
	DD	imagerel $unwind$??4MFSTState@MFST@@QEAAAEAU01@$$QEAU01@@Z
pdata	ENDS
;	COMDAT pdata
pdata	SEGMENT
$pdata$??_GMFSTState@MFST@@QEAAPEAXI@Z DD imagerel $LN5
	DD	imagerel $LN5+105
	DD	imagerel $unwind$??_GMFSTState@MFST@@QEAAPEAXI@Z
pdata	ENDS
;	COMDAT pdata
pdata	SEGMENT
$pdata$??0MFST_Diagnosis@MFST@1@QEAA@XZ DD imagerel $LN4
	DD	imagerel $LN4+132
	DD	imagerel $unwind$??0MFST_Diagnosis@MFST@1@QEAA@XZ
pdata	ENDS
;	COMDAT pdata
pdata	SEGMENT
$pdata$??0MFST_Diagnosis@MFST@1@QEAA@FW4RC_STEP@11@FF@Z DD imagerel $LN4
	DD	imagerel $LN4+156
	DD	imagerel $unwind$??0MFST_Diagnosis@MFST@1@QEAA@FW4RC_STEP@11@FF@Z
pdata	ENDS
;	COMDAT pdata
pdata	SEGMENT
$pdata$??0?$allocator@UMFSTState@MFST@@@std@@QEAA@XZ DD imagerel $LN3
	DD	imagerel $LN3+71
	DD	imagerel $unwind$??0?$allocator@UMFSTState@MFST@@@std@@QEAA@XZ
pdata	ENDS
;	COMDAT pdata
pdata	SEGMENT
$pdata$?deallocate@?$allocator@UMFSTState@MFST@@@std@@QEAAXQEAUMFSTState@MFST@@_K@Z DD imagerel $LN3
	DD	imagerel $LN3+97
	DD	imagerel $unwind$?deallocate@?$allocator@UMFSTState@MFST@@@std@@QEAAXQEAUMFSTState@MFST@@_K@Z
pdata	ENDS
;	COMDAT pdata
pdata	SEGMENT
$pdata$?allocate@?$allocator@UMFSTState@MFST@@@std@@QEAAPEAUMFSTState@MFST@@_K@Z DD imagerel $LN3
	DD	imagerel $LN3+89
	DD	imagerel $unwind$?allocate@?$allocator@UMFSTState@MFST@@@std@@QEAAPEAUMFSTState@MFST@@_K@Z
pdata	ENDS
;	COMDAT pdata
pdata	SEGMENT
$pdata$?max_size@?$_Default_allocator_traits@V?$allocator@UMFSTState@MFST@@@std@@@std@@SA_KAEBV?$allocator@UMFSTState@MFST@@@2@@Z DD imagerel $LN3
	DD	imagerel $LN3+74
	DD	imagerel $unwind$?max_size@?$_Default_allocator_traits@V?$allocator@UMFSTState@MFST@@@std@@@std@@SA_KAEBV?$allocator@UMFSTState@MFST@@@2@@Z
pdata	ENDS
;	COMDAT pdata
pdata	SEGMENT
$pdata$?deallocate@?$allocator@PEAUMFSTState@MFST@@@std@@QEAAXQEAPEAUMFSTState@MFST@@_K@Z DD imagerel $LN3
	DD	imagerel $LN3+100
	DD	imagerel $unwind$?deallocate@?$allocator@PEAUMFSTState@MFST@@@std@@QEAAXQEAPEAUMFSTState@MFST@@_K@Z
pdata	ENDS
;	COMDAT pdata
pdata	SEGMENT
$pdata$?allocate@?$allocator@PEAUMFSTState@MFST@@@std@@QEAAPEAPEAUMFSTState@MFST@@_K@Z DD imagerel $LN3
	DD	imagerel $LN3+89
	DD	imagerel $unwind$?allocate@?$allocator@PEAUMFSTState@MFST@@@std@@QEAAPEAPEAUMFSTState@MFST@@_K@Z
pdata	ENDS
;	COMDAT pdata
pdata	SEGMENT
$pdata$??0?$deque@UMFSTState@MFST@@V?$allocator@UMFSTState@MFST@@@std@@@std@@QEAA@XZ DD imagerel $LN3
	DD	imagerel $LN3+157
	DD	imagerel $unwind$??0?$deque@UMFSTState@MFST@@V?$allocator@UMFSTState@MFST@@@std@@@std@@QEAA@XZ
pdata	ENDS
;	COMDAT pdata
pdata	SEGMENT
$pdata$??1?$deque@UMFSTState@MFST@@V?$allocator@UMFSTState@MFST@@@std@@@std@@QEAA@XZ DD imagerel $LN3
	DD	imagerel $LN3+199
	DD	imagerel $unwind$??1?$deque@UMFSTState@MFST@@V?$allocator@UMFSTState@MFST@@@std@@@std@@QEAA@XZ
pdata	ENDS
;	COMDAT pdata
pdata	SEGMENT
$pdata$?_Copy_assign@?$deque@UMFSTState@MFST@@V?$allocator@UMFSTState@MFST@@@std@@@std@@QEAAXAEBV12@U?$integral_constant@_N$0A@@2@@Z DD imagerel $LN3
	DD	imagerel $LN3+229
	DD	imagerel $unwind$?_Copy_assign@?$deque@UMFSTState@MFST@@V?$allocator@UMFSTState@MFST@@@std@@@std@@QEAAXAEBV12@U?$integral_constant@_N$0A@@2@@Z
pdata	ENDS
;	COMDAT pdata
pdata	SEGMENT
$pdata$??4?$deque@UMFSTState@MFST@@V?$allocator@UMFSTState@MFST@@@std@@@std@@QEAAAEAV01@AEBV01@@Z DD imagerel $LN4
	DD	imagerel $LN4+143
	DD	imagerel $unwind$??4?$deque@UMFSTState@MFST@@V?$allocator@UMFSTState@MFST@@@std@@@std@@QEAAAEAV01@AEBV01@@Z
pdata	ENDS
;	COMDAT pdata
pdata	SEGMENT
$pdata$?_Unchecked_begin@?$deque@UMFSTState@MFST@@V?$allocator@UMFSTState@MFST@@@std@@@std@@QEAA?AV?$_Deque_unchecked_iterator@V?$_Deque_val@U?$_Deque_simple_types@UMFSTState@MFST@@@std@@@std@@@2@XZ DD imagerel $LN3
	DD	imagerel $LN3+140
	DD	imagerel $unwind$?_Unchecked_begin@?$deque@UMFSTState@MFST@@V?$allocator@UMFSTState@MFST@@@std@@@std@@QEAA?AV?$_Deque_unchecked_iterator@V?$_Deque_val@U?$_Deque_simple_types@UMFSTState@MFST@@@std@@@std@@@2@XZ
pdata	ENDS
;	COMDAT pdata
pdata	SEGMENT
$pdata$?_Unchecked_begin@?$deque@UMFSTState@MFST@@V?$allocator@UMFSTState@MFST@@@std@@@std@@QEBA?AV?$_Deque_unchecked_const_iterator@V?$_Deque_val@U?$_Deque_simple_types@UMFSTState@MFST@@@std@@@std@@@2@XZ DD imagerel $LN3
	DD	imagerel $LN3+140
	DD	imagerel $unwind$?_Unchecked_begin@?$deque@UMFSTState@MFST@@V?$allocator@UMFSTState@MFST@@@std@@@std@@QEBA?AV?$_Deque_unchecked_const_iterator@V?$_Deque_val@U?$_Deque_simple_types@UMFSTState@MFST@@@std@@@std@@@2@XZ
pdata	ENDS
;	COMDAT pdata
pdata	SEGMENT
$pdata$?_Unchecked_end@?$deque@UMFSTState@MFST@@V?$allocator@UMFSTState@MFST@@@std@@@std@@QEAA?AV?$_Deque_unchecked_iterator@V?$_Deque_val@U?$_Deque_simple_types@UMFSTState@MFST@@@std@@@std@@@2@XZ DD imagerel $LN3
	DD	imagerel $LN3+175
	DD	imagerel $unwind$?_Unchecked_end@?$deque@UMFSTState@MFST@@V?$allocator@UMFSTState@MFST@@@std@@@std@@QEAA?AV?$_Deque_unchecked_iterator@V?$_Deque_val@U?$_Deque_simple_types@UMFSTState@MFST@@@std@@@std@@@2@XZ
pdata	ENDS
;	COMDAT pdata
pdata	SEGMENT
$pdata$?_Unchecked_end@?$deque@UMFSTState@MFST@@V?$allocator@UMFSTState@MFST@@@std@@@std@@QEBA?AV?$_Deque_unchecked_const_iterator@V?$_Deque_val@U?$_Deque_simple_types@UMFSTState@MFST@@@std@@@std@@@2@XZ DD imagerel $LN3
	DD	imagerel $LN3+175
	DD	imagerel $unwind$?_Unchecked_end@?$deque@UMFSTState@MFST@@V?$allocator@UMFSTState@MFST@@@std@@@std@@QEBA?AV?$_Deque_unchecked_const_iterator@V?$_Deque_val@U?$_Deque_simple_types@UMFSTState@MFST@@@std@@@std@@@2@XZ
pdata	ENDS
;	COMDAT pdata
pdata	SEGMENT
$pdata$?size@?$deque@UMFSTState@MFST@@V?$allocator@UMFSTState@MFST@@@std@@@std@@QEBA_KXZ DD imagerel $LN3
	DD	imagerel $LN3+79
	DD	imagerel $unwind$?size@?$deque@UMFSTState@MFST@@V?$allocator@UMFSTState@MFST@@@std@@@std@@QEBA_KXZ
pdata	ENDS
;	COMDAT pdata
pdata	SEGMENT
$pdata$?max_size@?$deque@UMFSTState@MFST@@V?$allocator@UMFSTState@MFST@@@std@@@std@@QEBA_KXZ DD imagerel $LN3
	DD	imagerel $LN3+125
	DD	imagerel $unwind$?max_size@?$deque@UMFSTState@MFST@@V?$allocator@UMFSTState@MFST@@@std@@@std@@QEBA_KXZ
pdata	ENDS
;	COMDAT pdata
pdata	SEGMENT
$pdata$?empty@?$deque@UMFSTState@MFST@@V?$allocator@UMFSTState@MFST@@@std@@@std@@QEBA_NXZ DD imagerel $LN5
	DD	imagerel $LN5+111
	DD	imagerel $unwind$?empty@?$deque@UMFSTState@MFST@@V?$allocator@UMFSTState@MFST@@@std@@@std@@QEBA_NXZ
pdata	ENDS
;	COMDAT pdata
pdata	SEGMENT
$pdata$?back@?$deque@UMFSTState@MFST@@V?$allocator@UMFSTState@MFST@@@std@@@std@@QEAAAEAUMFSTState@MFST@@XZ DD imagerel $LN12
	DD	imagerel $LN12+251
	DD	imagerel $unwind$?back@?$deque@UMFSTState@MFST@@V?$allocator@UMFSTState@MFST@@@std@@@std@@QEAAAEAUMFSTState@MFST@@XZ
pdata	ENDS
;	COMDAT pdata
pdata	SEGMENT
$pdata$?push_back@?$deque@UMFSTState@MFST@@V?$allocator@UMFSTState@MFST@@@std@@@std@@QEAAXAEBUMFSTState@MFST@@@Z DD imagerel $LN3
	DD	imagerel $LN3+100
	DD	imagerel $unwind$?push_back@?$deque@UMFSTState@MFST@@V?$allocator@UMFSTState@MFST@@@std@@@std@@QEAAXAEBUMFSTState@MFST@@@Z
pdata	ENDS
;	COMDAT pdata
pdata	SEGMENT
$pdata$?pop_back@?$deque@UMFSTState@MFST@@V?$allocator@UMFSTState@MFST@@@std@@@std@@QEAAXXZ DD imagerel $LN10
	DD	imagerel $LN10+435
	DD	imagerel $unwind$?pop_back@?$deque@UMFSTState@MFST@@V?$allocator@UMFSTState@MFST@@@std@@@std@@QEAAXXZ
pdata	ENDS
;	COMDAT pdata
pdata	SEGMENT
$pdata$?_Erase_last_n@?$deque@UMFSTState@MFST@@V?$allocator@UMFSTState@MFST@@@std@@@std@@AEAAX_K@Z DD imagerel $LN6
	DD	imagerel $LN6+112
	DD	imagerel $unwind$?_Erase_last_n@?$deque@UMFSTState@MFST@@V?$allocator@UMFSTState@MFST@@@std@@@std@@AEAAX_K@Z
pdata	ENDS
;	COMDAT pdata
pdata	SEGMENT
$pdata$?_Xlen@?$deque@UMFSTState@MFST@@V?$allocator@UMFSTState@MFST@@@std@@@std@@AEBAXXZ DD imagerel $LN3
	DD	imagerel $LN3+76
	DD	imagerel $unwind$?_Xlen@?$deque@UMFSTState@MFST@@V?$allocator@UMFSTState@MFST@@@std@@@std@@AEBAXXZ
pdata	ENDS
;	COMDAT pdata
pdata	SEGMENT
$pdata$?_Growmap@?$deque@UMFSTState@MFST@@V?$allocator@UMFSTState@MFST@@@std@@@std@@AEAAX_K@Z DD imagerel $LN12
	DD	imagerel $LN12+1054
	DD	imagerel $unwind$?_Growmap@?$deque@UMFSTState@MFST@@V?$allocator@UMFSTState@MFST@@@std@@@std@@AEAAX_K@Z
pdata	ENDS
;	COMDAT pdata
pdata	SEGMENT
$pdata$?_Tidy@?$deque@UMFSTState@MFST@@V?$allocator@UMFSTState@MFST@@@std@@@std@@AEAAXXZ DD imagerel $LN10
	DD	imagerel $LN10+457
	DD	imagerel $unwind$?_Tidy@?$deque@UMFSTState@MFST@@V?$allocator@UMFSTState@MFST@@@std@@@std@@AEAAXXZ
pdata	ENDS
;	COMDAT pdata
pdata	SEGMENT
$pdata$?_Orphan_off@?$deque@UMFSTState@MFST@@V?$allocator@UMFSTState@MFST@@@std@@@std@@AEBAX_K@Z DD imagerel $LN11
	DD	imagerel $LN11+400
	DD	imagerel $unwind$?_Orphan_off@?$deque@UMFSTState@MFST@@V?$allocator@UMFSTState@MFST@@@std@@@std@@AEBAX_K@Z
pdata	ENDS
;	COMDAT pdata
pdata	SEGMENT
$pdata$?_Getblock@?$deque@UMFSTState@MFST@@V?$allocator@UMFSTState@MFST@@@std@@@std@@AEBA_K_K@Z DD imagerel $LN3
	DD	imagerel $LN3+97
	DD	imagerel $unwind$?_Getblock@?$deque@UMFSTState@MFST@@V?$allocator@UMFSTState@MFST@@@std@@@std@@AEBA_K_K@Z
pdata	ENDS
;	COMDAT pdata
pdata	SEGMENT
$pdata$?_Orphan_all@?$deque@UMFSTState@MFST@@V?$allocator@UMFSTState@MFST@@@std@@@std@@AEAAXXZ DD imagerel $LN3
	DD	imagerel $LN3+85
	DD	imagerel $unwind$?_Orphan_all@?$deque@UMFSTState@MFST@@V?$allocator@UMFSTState@MFST@@@std@@@std@@AEAAXXZ
pdata	ENDS
;	COMDAT pdata
pdata	SEGMENT
$pdata$?_Getal@?$deque@UMFSTState@MFST@@V?$allocator@UMFSTState@MFST@@@std@@@std@@AEAAAEAV?$allocator@UMFSTState@MFST@@@2@XZ DD imagerel $LN3
	DD	imagerel $LN3+80
	DD	imagerel $unwind$?_Getal@?$deque@UMFSTState@MFST@@V?$allocator@UMFSTState@MFST@@@std@@@std@@AEAAAEAV?$allocator@UMFSTState@MFST@@@2@XZ
pdata	ENDS
;	COMDAT pdata
pdata	SEGMENT
$pdata$?_Getal@?$deque@UMFSTState@MFST@@V?$allocator@UMFSTState@MFST@@@std@@@std@@AEBAAEBV?$allocator@UMFSTState@MFST@@@2@XZ DD imagerel $LN3
	DD	imagerel $LN3+80
	DD	imagerel $unwind$?_Getal@?$deque@UMFSTState@MFST@@V?$allocator@UMFSTState@MFST@@@std@@@std@@AEBAAEBV?$allocator@UMFSTState@MFST@@@2@XZ
pdata	ENDS
;	COMDAT pdata
pdata	SEGMENT
$pdata$?_Get_data@?$deque@UMFSTState@MFST@@V?$allocator@UMFSTState@MFST@@@std@@@std@@AEAAAEAV?$_Deque_val@U?$_Deque_simple_types@UMFSTState@MFST@@@std@@@2@XZ DD imagerel $LN3
	DD	imagerel $LN3+71
	DD	imagerel $unwind$?_Get_data@?$deque@UMFSTState@MFST@@V?$allocator@UMFSTState@MFST@@@std@@@std@@AEAAAEAV?$_Deque_val@U?$_Deque_simple_types@UMFSTState@MFST@@@std@@@2@XZ
pdata	ENDS
;	COMDAT pdata
pdata	SEGMENT
$pdata$?_Get_data@?$deque@UMFSTState@MFST@@V?$allocator@UMFSTState@MFST@@@std@@@std@@AEBAAEBV?$_Deque_val@U?$_Deque_simple_types@UMFSTState@MFST@@@std@@@2@XZ DD imagerel $LN3
	DD	imagerel $LN3+71
	DD	imagerel $unwind$?_Get_data@?$deque@UMFSTState@MFST@@V?$allocator@UMFSTState@MFST@@@std@@@std@@AEBAAEBV?$_Deque_val@U?$_Deque_simple_types@UMFSTState@MFST@@@std@@@2@XZ
pdata	ENDS
;	COMDAT pdata
pdata	SEGMENT
$pdata$?_Map@?$deque@UMFSTState@MFST@@V?$allocator@UMFSTState@MFST@@@std@@@std@@AEAAAEAPEAPEAUMFSTState@MFST@@XZ DD imagerel $LN3
	DD	imagerel $LN3+80
	DD	imagerel $unwind$?_Map@?$deque@UMFSTState@MFST@@V?$allocator@UMFSTState@MFST@@@std@@@std@@AEAAAEAPEAPEAUMFSTState@MFST@@XZ
pdata	ENDS
;	COMDAT pdata
pdata	SEGMENT
$pdata$?_Mapsize@?$deque@UMFSTState@MFST@@V?$allocator@UMFSTState@MFST@@@std@@@std@@AEAAAEA_KXZ DD imagerel $LN3
	DD	imagerel $LN3+80
	DD	imagerel $unwind$?_Mapsize@?$deque@UMFSTState@MFST@@V?$allocator@UMFSTState@MFST@@@std@@@std@@AEAAAEA_KXZ
pdata	ENDS
;	COMDAT pdata
pdata	SEGMENT
$pdata$?_Myoff@?$deque@UMFSTState@MFST@@V?$allocator@UMFSTState@MFST@@@std@@@std@@AEAAAEA_KXZ DD imagerel $LN3
	DD	imagerel $LN3+80
	DD	imagerel $unwind$?_Myoff@?$deque@UMFSTState@MFST@@V?$allocator@UMFSTState@MFST@@@std@@@std@@AEAAAEA_KXZ
pdata	ENDS
;	COMDAT pdata
pdata	SEGMENT
$pdata$?_Myoff@?$deque@UMFSTState@MFST@@V?$allocator@UMFSTState@MFST@@@std@@@std@@AEBAAEB_KXZ DD imagerel $LN3
	DD	imagerel $LN3+80
	DD	imagerel $unwind$?_Myoff@?$deque@UMFSTState@MFST@@V?$allocator@UMFSTState@MFST@@@std@@@std@@AEBAAEB_KXZ
pdata	ENDS
;	COMDAT pdata
pdata	SEGMENT
$pdata$?_Mysize@?$deque@UMFSTState@MFST@@V?$allocator@UMFSTState@MFST@@@std@@@std@@AEAAAEA_KXZ DD imagerel $LN3
	DD	imagerel $LN3+80
	DD	imagerel $unwind$?_Mysize@?$deque@UMFSTState@MFST@@V?$allocator@UMFSTState@MFST@@@std@@@std@@AEAAAEA_KXZ
pdata	ENDS
;	COMDAT pdata
pdata	SEGMENT
$pdata$?_Mysize@?$deque@UMFSTState@MFST@@V?$allocator@UMFSTState@MFST@@@std@@@std@@AEBAAEB_KXZ DD imagerel $LN3
	DD	imagerel $LN3+80
	DD	imagerel $unwind$?_Mysize@?$deque@UMFSTState@MFST@@V?$allocator@UMFSTState@MFST@@@std@@@std@@AEBAAEB_KXZ
pdata	ENDS
;	COMDAT pdata
pdata	SEGMENT
$pdata$??0?$_Deque_val@U?$_Deque_simple_types@UMFSTState@MFST@@@std@@@std@@QEAA@XZ DD imagerel $LN3
	DD	imagerel $LN3+143
	DD	imagerel $unwind$??0?$_Deque_val@U?$_Deque_simple_types@UMFSTState@MFST@@@std@@@std@@QEAA@XZ
pdata	ENDS
;	COMDAT pdata
pdata	SEGMENT
$pdata$?_Getblock@?$_Deque_val@U?$_Deque_simple_types@UMFSTState@MFST@@@std@@@std@@QEBA_K_K@Z DD imagerel $LN3
	DD	imagerel $LN3+96
	DD	imagerel $unwind$?_Getblock@?$_Deque_val@U?$_Deque_simple_types@UMFSTState@MFST@@@std@@@std@@QEBA_K_K@Z
pdata	ENDS
;	COMDAT pdata
pdata	SEGMENT
$pdata$?_Get_first@?$_Compressed_pair@V?$allocator@UMFSTState@MFST@@@std@@V?$_Deque_val@U?$_Deque_simple_types@UMFSTState@MFST@@@std@@@2@$00@std@@QEAAAEAV?$allocator@UMFSTState@MFST@@@2@XZ DD imagerel $LN3
	DD	imagerel $LN3+71
	DD	imagerel $unwind$?_Get_first@?$_Compressed_pair@V?$allocator@UMFSTState@MFST@@@std@@V?$_Deque_val@U?$_Deque_simple_types@UMFSTState@MFST@@@std@@@2@$00@std@@QEAAAEAV?$allocator@UMFSTState@MFST@@@2@XZ
pdata	ENDS
;	COMDAT pdata
pdata	SEGMENT
$pdata$?_Get_first@?$_Compressed_pair@V?$allocator@UMFSTState@MFST@@@std@@V?$_Deque_val@U?$_Deque_simple_types@UMFSTState@MFST@@@std@@@2@$00@std@@QEBAAEBV?$allocator@UMFSTState@MFST@@@2@XZ DD imagerel $LN3
	DD	imagerel $LN3+71
	DD	imagerel $unwind$?_Get_first@?$_Compressed_pair@V?$allocator@UMFSTState@MFST@@@std@@V?$_Deque_val@U?$_Deque_simple_types@UMFSTState@MFST@@@std@@@2@$00@std@@QEBAAEBV?$allocator@UMFSTState@MFST@@@2@XZ
pdata	ENDS
;	COMDAT pdata
pdata	SEGMENT
$pdata$??0?$stack@UMFSTState@MFST@@V?$deque@UMFSTState@MFST@@V?$allocator@UMFSTState@MFST@@@std@@@std@@@std@@QEAA@XZ DD imagerel $LN3
	DD	imagerel $LN3+86
	DD	imagerel $unwind$??0?$stack@UMFSTState@MFST@@V?$deque@UMFSTState@MFST@@V?$allocator@UMFSTState@MFST@@@std@@@std@@@std@@QEAA@XZ
pdata	ENDS
;	COMDAT pdata
pdata	SEGMENT
$pdata$?size@?$stack@UMFSTState@MFST@@V?$deque@UMFSTState@MFST@@V?$allocator@UMFSTState@MFST@@@std@@@std@@@std@@QEBA_KXZ DD imagerel $LN3
	DD	imagerel $LN3+80
	DD	imagerel $unwind$?size@?$stack@UMFSTState@MFST@@V?$deque@UMFSTState@MFST@@V?$allocator@UMFSTState@MFST@@@std@@@std@@@std@@QEBA_KXZ
pdata	ENDS
;	COMDAT pdata
pdata	SEGMENT
$pdata$?top@?$stack@UMFSTState@MFST@@V?$deque@UMFSTState@MFST@@V?$allocator@UMFSTState@MFST@@@std@@@std@@@std@@QEAAAEAUMFSTState@MFST@@XZ DD imagerel $LN3
	DD	imagerel $LN3+80
	DD	imagerel $unwind$?top@?$stack@UMFSTState@MFST@@V?$deque@UMFSTState@MFST@@V?$allocator@UMFSTState@MFST@@@std@@@std@@@std@@QEAAAEAUMFSTState@MFST@@XZ
pdata	ENDS
;	COMDAT pdata
pdata	SEGMENT
$pdata$?push@?$stack@UMFSTState@MFST@@V?$deque@UMFSTState@MFST@@V?$allocator@UMFSTState@MFST@@@std@@@std@@@std@@QEAAXAEBUMFSTState@MFST@@@Z DD imagerel $LN3
	DD	imagerel $LN3+91
	DD	imagerel $unwind$?push@?$stack@UMFSTState@MFST@@V?$deque@UMFSTState@MFST@@V?$allocator@UMFSTState@MFST@@@std@@@std@@@std@@QEAAXAEBUMFSTState@MFST@@@Z
pdata	ENDS
;	COMDAT pdata
pdata	SEGMENT
$pdata$?pop@?$stack@UMFSTState@MFST@@V?$deque@UMFSTState@MFST@@V?$allocator@UMFSTState@MFST@@@std@@@std@@@std@@QEAAXXZ DD imagerel $LN3
	DD	imagerel $LN3+80
	DD	imagerel $unwind$?pop@?$stack@UMFSTState@MFST@@V?$deque@UMFSTState@MFST@@V?$allocator@UMFSTState@MFST@@@std@@@std@@@std@@QEAAXXZ
pdata	ENDS
;	COMDAT pdata
pdata	SEGMENT
$pdata$??1?$stack@UMFSTState@MFST@@V?$deque@UMFSTState@MFST@@V?$allocator@UMFSTState@MFST@@@std@@@std@@@std@@QEAA@XZ DD imagerel $LN3
	DD	imagerel $LN3+67
	DD	imagerel $unwind$??1?$stack@UMFSTState@MFST@@V?$deque@UMFSTState@MFST@@V?$allocator@UMFSTState@MFST@@@std@@@std@@@std@@QEAA@XZ
pdata	ENDS
;	COMDAT pdata
pdata	SEGMENT
$pdata$??4?$stack@UMFSTState@MFST@@V?$deque@UMFSTState@MFST@@V?$allocator@UMFSTState@MFST@@@std@@@std@@@std@@QEAAAEAV01@AEBV01@@Z DD imagerel $LN3
	DD	imagerel $LN3+86
	DD	imagerel $unwind$??4?$stack@UMFSTState@MFST@@V?$deque@UMFSTState@MFST@@V?$allocator@UMFSTState@MFST@@@std@@@std@@@std@@QEAAAEAV01@AEBV01@@Z
pdata	ENDS
;	COMDAT pdata
pdata	SEGMENT
$pdata$?__autoclassinit2@?$stack@UMFSTState@MFST@@V?$deque@UMFSTState@MFST@@V?$allocator@UMFSTState@MFST@@@std@@@std@@@std@@QEAAX_K@Z DD imagerel $LN3
	DD	imagerel $LN3+73
	DD	imagerel $unwind$?__autoclassinit2@?$stack@UMFSTState@MFST@@V?$deque@UMFSTState@MFST@@V?$allocator@UMFSTState@MFST@@@std@@@std@@@std@@QEAAX_K@Z
pdata	ENDS
;	COMDAT pdata
pdata	SEGMENT
$pdata$?push@?$Stack@UMFSTState@MFST@@@@QEAAXUMFSTState@MFST@@@Z DD imagerel $LN5
	DD	imagerel $LN5+104
	DD	imagerel $unwind$?push@?$Stack@UMFSTState@MFST@@@@QEAAXUMFSTState@MFST@@@Z
pdata	ENDS
;	COMDAT pdata
pdata	SEGMENT
$pdata$?dtor$0@?0??push@?$Stack@UMFSTState@MFST@@@@QEAAXUMFSTState@MFST@@@Z@4HA DD imagerel ?dtor$0@?0??push@?$Stack@UMFSTState@MFST@@@@QEAAXUMFSTState@MFST@@@Z@4HA
	DD	imagerel ?dtor$0@?0??push@?$Stack@UMFSTState@MFST@@@@QEAAXUMFSTState@MFST@@@Z@4HA+39
	DD	imagerel $unwind$?dtor$0@?0??push@?$Stack@UMFSTState@MFST@@@@QEAAXUMFSTState@MFST@@@Z@4HA
pdata	ENDS
;	COMDAT pdata
pdata	SEGMENT
$pdata$?pop@?$Stack@UMFSTState@MFST@@@@QEAAXXZ DD imagerel $LN4
	DD	imagerel $LN4+79
	DD	imagerel $unwind$?pop@?$Stack@UMFSTState@MFST@@@@QEAAXXZ
pdata	ENDS
;	COMDAT pdata
pdata	SEGMENT
$pdata$?top@?$Stack@UMFSTState@MFST@@@@QEAA?AUMFSTState@MFST@@XZ DD imagerel $LN6
	DD	imagerel $LN6+131
	DD	imagerel $unwind$?top@?$Stack@UMFSTState@MFST@@@@QEAA?AUMFSTState@MFST@@XZ
pdata	ENDS
;	COMDAT pdata
pdata	SEGMENT
$pdata$?size@?$Stack@UMFSTState@MFST@@@@QEAAHXZ DD imagerel $LN4
	DD	imagerel $LN4+79
	DD	imagerel $unwind$?size@?$Stack@UMFSTState@MFST@@@@QEAAHXZ
pdata	ENDS
;	COMDAT pdata
pdata	SEGMENT
$pdata$??A?$Stack@UMFSTState@MFST@@@@QEAA?AUMFSTState@MFST@@H@Z DD imagerel $LN12
	DD	imagerel $LN12+303
	DD	imagerel $unwind$??A?$Stack@UMFSTState@MFST@@@@QEAA?AUMFSTState@MFST@@H@Z
pdata	ENDS
;	COMDAT pdata
pdata	SEGMENT
$pdata$?dtor$0@?0???A?$Stack@UMFSTState@MFST@@@@QEAA?AUMFSTState@MFST@@H@Z@4HA DD imagerel ?dtor$0@?0???A?$Stack@UMFSTState@MFST@@@@QEAA?AUMFSTState@MFST@@H@Z@4HA
	DD	imagerel ?dtor$0@?0???A?$Stack@UMFSTState@MFST@@@@QEAA?AUMFSTState@MFST@@H@Z@4HA+36
	DD	imagerel $unwind$?dtor$0@?0???A?$Stack@UMFSTState@MFST@@@@QEAA?AUMFSTState@MFST@@H@Z@4HA
pdata	ENDS
;	COMDAT pdata
pdata	SEGMENT
$pdata$??0?$Stack@UMFSTState@MFST@@@@QEAA@XZ DD imagerel $LN4
	DD	imagerel $LN4+74
	DD	imagerel $unwind$??0?$Stack@UMFSTState@MFST@@@@QEAA@XZ
pdata	ENDS
;	COMDAT pdata
pdata	SEGMENT
$pdata$??1?$Stack@UMFSTState@MFST@@@@QEAA@XZ DD imagerel $LN4
	DD	imagerel $LN4+67
	DD	imagerel $unwind$??1?$Stack@UMFSTState@MFST@@@@QEAA@XZ
pdata	ENDS
;	COMDAT pdata
pdata	SEGMENT
$pdata$??0MFST@0@QEAA@XZ DD imagerel $LN6
	DD	imagerel $LN6+246
	DD	imagerel $unwind$??0MFST@0@QEAA@XZ
pdata	ENDS
;	COMDAT pdata
pdata	SEGMENT
$pdata$?dtor$0@?0???0MFST@0@QEAA@XZ@4HA DD imagerel ?dtor$0@?0???0MFST@0@QEAA@XZ@4HA
	DD	imagerel ?dtor$0@?0???0MFST@0@QEAA@XZ@4HA+43
	DD	imagerel $unwind$?dtor$0@?0???0MFST@0@QEAA@XZ@4HA
pdata	ENDS
;	COMDAT pdata
pdata	SEGMENT
$pdata$?dtor$1@?0???0MFST@0@QEAA@XZ@4HA DD imagerel ?dtor$1@?0???0MFST@0@QEAA@XZ@4HA
	DD	imagerel ?dtor$1@?0???0MFST@0@QEAA@XZ@4HA+46
	DD	imagerel $unwind$?dtor$1@?0???0MFST@0@QEAA@XZ@4HA
pdata	ENDS
;	COMDAT pdata
pdata	SEGMENT
$pdata$??0MFST@0@QEAA@ULexTable@LT@@UGreibach@GRB@@@Z DD imagerel $LN11
	DD	imagerel $LN11+553
	DD	imagerel $unwind$??0MFST@0@QEAA@ULexTable@LT@@UGreibach@GRB@@@Z
pdata	ENDS
;	COMDAT pdata
pdata	SEGMENT
$pdata$?dtor$0@?0???0MFST@0@QEAA@ULexTable@LT@@UGreibach@GRB@@@Z@4HA DD imagerel ?dtor$0@?0???0MFST@0@QEAA@ULexTable@LT@@UGreibach@GRB@@@Z@4HA
	DD	imagerel ?dtor$0@?0???0MFST@0@QEAA@ULexTable@LT@@UGreibach@GRB@@@Z@4HA+43
	DD	imagerel $unwind$?dtor$0@?0???0MFST@0@QEAA@ULexTable@LT@@UGreibach@GRB@@@Z@4HA
pdata	ENDS
;	COMDAT pdata
pdata	SEGMENT
$pdata$?dtor$1@?0???0MFST@0@QEAA@ULexTable@LT@@UGreibach@GRB@@@Z@4HA DD imagerel ?dtor$1@?0???0MFST@0@QEAA@ULexTable@LT@@UGreibach@GRB@@@Z@4HA
	DD	imagerel ?dtor$1@?0???0MFST@0@QEAA@ULexTable@LT@@UGreibach@GRB@@@Z@4HA+46
	DD	imagerel $unwind$?dtor$1@?0???0MFST@0@QEAA@ULexTable@LT@@UGreibach@GRB@@@Z@4HA
pdata	ENDS
;	COMDAT pdata
pdata	SEGMENT
$pdata$?getCSt@MFST@1@QEAAPEADPEAD@Z DD imagerel $LN9
	DD	imagerel $LN9+231
	DD	imagerel $unwind$?getCSt@MFST@1@QEAAPEADPEAD@Z
pdata	ENDS
;	COMDAT pdata
pdata	SEGMENT
$pdata$?getCLenta@MFST@1@QEAAPEADPEADFF@Z DD imagerel $LN11
	DD	imagerel $LN11+292
	DD	imagerel $unwind$?getCLenta@MFST@1@QEAAPEADPEADFF@Z
pdata	ENDS
;	COMDAT pdata
pdata	SEGMENT
$pdata$?getDiagnosis@MFST@1@QEAAPEADFPEAD@Z DD imagerel $LN5
	DD	imagerel $LN5+396
	DD	imagerel $unwind$?getDiagnosis@MFST@1@QEAAPEADFPEAD@Z
pdata	ENDS
;	COMDAT pdata
pdata	SEGMENT
$pdata$?savestate@MFST@1@QEAA_NXZ DD imagerel $LN6
	DD	imagerel $LN6+234
	DD	imagerel $unwind$?savestate@MFST@1@QEAA_NXZ
pdata	ENDS
;	COMDAT pdata
pdata	SEGMENT
$pdata$?resetstate@MFST@1@QEAA_NXZ DD imagerel $LN9
	DD	imagerel $LN9+377
	DD	imagerel $unwind$?resetstate@MFST@1@QEAA_NXZ
pdata	ENDS
;	COMDAT pdata
pdata	SEGMENT
$pdata$?dtor$0@?0??resetstate@MFST@1@QEAA_NXZ@4HA DD imagerel ?dtor$0@?0??resetstate@MFST@1@QEAA_NXZ@4HA
	DD	imagerel ?dtor$0@?0??resetstate@MFST@1@QEAA_NXZ@4HA+36
	DD	imagerel $unwind$?dtor$0@?0??resetstate@MFST@1@QEAA_NXZ@4HA
pdata	ENDS
;	COMDAT pdata
pdata	SEGMENT
$pdata$?push_chain@MFST@1@QEAA_NUChain@Rule@GRB@@@Z DD imagerel $LN9
	DD	imagerel $LN9+156
	DD	imagerel $unwind$?push_chain@MFST@1@QEAA_NUChain@Rule@GRB@@@Z
pdata	ENDS
;	COMDAT pdata
pdata	SEGMENT
$pdata$?step@MFST@1@QEAA?AW4RC_STEP@11@XZ DD imagerel $LN23
	DD	imagerel $LN23+732
	DD	imagerel $unwind$?step@MFST@1@QEAA?AW4RC_STEP@11@XZ
pdata	ENDS
;	COMDAT pdata
pdata	SEGMENT
$pdata$?start@MFST@1@QEAA_NXZ DD imagerel $LN22
	DD	imagerel $LN22+1128
	DD	imagerel $unwind$?start@MFST@1@QEAA_NXZ
pdata	ENDS
;	COMDAT pdata
pdata	SEGMENT
$pdata$?savediagnosis@MFST@1@QEAA_NW4RC_STEP@11@@Z DD imagerel $LN15
	DD	imagerel $LN15+333
	DD	imagerel $unwind$?savediagnosis@MFST@1@QEAA_NW4RC_STEP@11@@Z
pdata	ENDS
;	COMDAT pdata
pdata	SEGMENT
$pdata$?printRules@MFST@1@QEAAXXZ DD imagerel $LN11
	DD	imagerel $LN11+506
	DD	imagerel $unwind$?printRules@MFST@1@QEAAXXZ
pdata	ENDS
;	COMDAT pdata
pdata	SEGMENT
$pdata$?dtor$0@?0??printRules@MFST@1@QEAAXXZ@4HA DD imagerel ?dtor$0@?0??printRules@MFST@1@QEAAXXZ@4HA
	DD	imagerel ?dtor$0@?0??printRules@MFST@1@QEAAXXZ@4HA+36
	DD	imagerel $unwind$?dtor$0@?0??printRules@MFST@1@QEAAXXZ@4HA
pdata	ENDS
;	COMDAT pdata
pdata	SEGMENT
$pdata$??0Deducation@MFST@1@QEAA@XZ DD imagerel $LN4
	DD	imagerel $LN4+113
	DD	imagerel $unwind$??0Deducation@MFST@1@QEAA@XZ
pdata	ENDS
;	COMDAT pdata
pdata	SEGMENT
$pdata$?savededucation@MFST@1@QEAA_NXZ DD imagerel $LN11
	DD	imagerel $LN11+575
	DD	imagerel $unwind$?savededucation@MFST@1@QEAA_NXZ
pdata	ENDS
;	COMDAT pdata
pdata	SEGMENT
$pdata$?dtor$0@?0??savededucation@MFST@1@QEAA_NXZ@4HA DD imagerel ?dtor$0@?0??savededucation@MFST@1@QEAA_NXZ@4HA
	DD	imagerel ?dtor$0@?0??savededucation@MFST@1@QEAA_NXZ@4HA+36
	DD	imagerel $unwind$?dtor$0@?0??savededucation@MFST@1@QEAA_NXZ@4HA
pdata	ENDS
;	COMDAT pdata
pdata	SEGMENT
$pdata$?length@?$_Narrow_char_traits@DH@std@@SA_KQEBD@Z DD imagerel $LN3
	DD	imagerel $LN3+77
	DD	imagerel $unwind$?length@?$_Narrow_char_traits@DH@std@@SA_KQEBD@Z
pdata	ENDS
;	COMDAT pdata
pdata	SEGMENT
$pdata$?eq_int_type@?$_Narrow_char_traits@DH@std@@SA_NAEBH0@Z DD imagerel $LN5
	DD	imagerel $LN5+118
	DD	imagerel $unwind$?eq_int_type@?$_Narrow_char_traits@DH@std@@SA_NAEBH0@Z
pdata	ENDS
;	COMDAT pdata
pdata	SEGMENT
$pdata$?eof@?$_Narrow_char_traits@DH@std@@SAHXZ DD imagerel $LN3
	DD	imagerel $LN3+57
	DD	imagerel $unwind$?eof@?$_Narrow_char_traits@DH@std@@SAHXZ
pdata	ENDS
;	COMDAT pdata
pdata	SEGMENT
$pdata$??$_Maklocstr@_W@std@@YAPEA_WPEBDPEA_WAEBU_Cvtvec@@@Z DD imagerel $LN12
	DD	imagerel $LN12+584
	DD	imagerel $unwind$??$_Maklocstr@_W@std@@YAPEA_WPEBDPEA_WAEBU_Cvtvec@@@Z
pdata	ENDS
;	COMDAT pdata
pdata	SEGMENT
$pdata$?_Maklocwcs@std@@YAPEA_WPEB_W@Z DD imagerel $LN4
	DD	imagerel $LN4+165
	DD	imagerel $unwind$?_Maklocwcs@std@@YAPEA_WPEB_W@Z
pdata	ENDS
;	COMDAT pdata
pdata	SEGMENT
$pdata$??$_Maklocstr@D@std@@YAPEADPEBDPEADAEBU_Cvtvec@@@Z DD imagerel $LN7
	DD	imagerel $LN7+223
	DD	imagerel $unwind$??$_Maklocstr@D@std@@YAPEADPEBDPEADAEBU_Cvtvec@@@Z
pdata	ENDS
;	COMDAT pdata
pdata	SEGMENT
$pdata$??$_Getvals@_W@?$time_get@DV?$istreambuf_iterator@DU?$char_traits@D@std@@@std@@@std@@IEAAX_WAEBV_Locinfo@1@@Z DD imagerel $LN5
	DD	imagerel $LN5+379
	DD	imagerel $unwind$??$_Getvals@_W@?$time_get@DV?$istreambuf_iterator@DU?$char_traits@D@std@@@std@@@std@@IEAAX_WAEBV_Locinfo@1@@Z
pdata	ENDS
;	COMDAT pdata
pdata	SEGMENT
$pdata$??$_Getvals@_W@?$time_get@_WV?$istreambuf_iterator@_WU?$char_traits@_W@std@@@std@@@std@@IEAAX_WAEBV_Locinfo@1@@Z DD imagerel $LN5
	DD	imagerel $LN5+379
	DD	imagerel $unwind$??$_Getvals@_W@?$time_get@_WV?$istreambuf_iterator@_WU?$char_traits@_W@std@@@std@@@std@@IEAAX_WAEBV_Locinfo@1@@Z
pdata	ENDS
;	COMDAT pdata
pdata	SEGMENT
$pdata$??$?6U?$char_traits@D@std@@@std@@YAAEAV?$basic_ostream@DU?$char_traits@D@std@@@0@AEAV10@PEBD@Z DD imagerel $LN25
	DD	imagerel $LN25+1034
	DD	imagerel $unwind$??$?6U?$char_traits@D@std@@@std@@YAAEAV?$basic_ostream@DU?$char_traits@D@std@@@0@AEAV10@PEBD@Z
pdata	ENDS
;	COMDAT pdata
pdata	SEGMENT
$pdata$?dtor$0@?0???$?6U?$char_traits@D@std@@@std@@YAAEAV?$basic_ostream@DU?$char_traits@D@std@@@0@AEAV10@PEBD@Z@4HA DD imagerel ?dtor$0@?0???$?6U?$char_traits@D@std@@@std@@YAAEAV?$basic_ostream@DU?$char_traits@D@std@@@0@AEAV10@PEBD@Z@4HA
	DD	imagerel ?dtor$0@?0???$?6U?$char_traits@D@std@@@std@@YAAEAV?$basic_ostream@DU?$char_traits@D@std@@@0@AEAV10@PEBD@Z@4HA+36
	DD	imagerel $unwind$?dtor$0@?0???$?6U?$char_traits@D@std@@@std@@YAAEAV?$basic_ostream@DU?$char_traits@D@std@@@0@AEAV10@PEBD@Z@4HA
pdata	ENDS
;	COMDAT pdata
pdata	SEGMENT
$pdata$?catch$1@?0???$?6U?$char_traits@D@std@@@std@@YAAEAV?$basic_ostream@DU?$char_traits@D@std@@@0@AEAV10@PEBD@Z@4HA DD imagerel ?catch$1@?0???$?6U?$char_traits@D@std@@@std@@YAAEAV?$basic_ostream@DU?$char_traits@D@std@@@0@AEAV10@PEBD@Z@4HA
	DD	imagerel ?catch$1@?0???$?6U?$char_traits@D@std@@@std@@YAAEAV?$basic_ostream@DU?$char_traits@D@std@@@0@AEAV10@PEBD@Z@4HA+80
	DD	imagerel $unwind$?catch$1@?0???$?6U?$char_traits@D@std@@@std@@YAAEAV?$basic_ostream@DU?$char_traits@D@std@@@0@AEAV10@PEBD@Z@4HA
pdata	ENDS
;	COMDAT pdata
pdata	SEGMENT
$pdata$??$endl@DU?$char_traits@D@std@@@std@@YAAEAV?$basic_ostream@DU?$char_traits@D@std@@@0@AEAV10@@Z DD imagerel $LN3
	DD	imagerel $LN3+138
	DD	imagerel $unwind$??$endl@DU?$char_traits@D@std@@@std@@YAAEAV?$basic_ostream@DU?$char_traits@D@std@@@0@AEAV10@@Z
pdata	ENDS
;	COMDAT pdata
pdata	SEGMENT
$pdata$??0_Sentry_base@?$basic_ostream@DU?$char_traits@D@std@@@std@@QEAA@AEAV12@@Z DD imagerel $LN4
	DD	imagerel $LN4+171
	DD	imagerel $unwind$??0_Sentry_base@?$basic_ostream@DU?$char_traits@D@std@@@std@@QEAA@AEAV12@@Z
pdata	ENDS
;	COMDAT pdata
pdata	SEGMENT
$pdata$??1_Sentry_base@?$basic_ostream@DU?$char_traits@D@std@@@std@@QEAA@XZ DD imagerel $LN4
	DD	imagerel $LN4+143
	DD	imagerel $unwind$??1_Sentry_base@?$basic_ostream@DU?$char_traits@D@std@@@std@@QEAA@XZ
pdata	ENDS
;	COMDAT pdata
pdata	SEGMENT
$pdata$??0sentry@?$basic_ostream@DU?$char_traits@D@std@@@std@@QEAA@AEAV12@@Z DD imagerel $LN7
	DD	imagerel $LN7+284
	DD	imagerel $unwind$??0sentry@?$basic_ostream@DU?$char_traits@D@std@@@std@@QEAA@AEAV12@@Z
pdata	ENDS
;	COMDAT pdata
pdata	SEGMENT
$pdata$?dtor$0@?0???0sentry@?$basic_ostream@DU?$char_traits@D@std@@@std@@QEAA@AEAV12@@Z@4HA DD imagerel ?dtor$0@?0???0sentry@?$basic_ostream@DU?$char_traits@D@std@@@std@@QEAA@AEAV12@@Z@4HA
	DD	imagerel ?dtor$0@?0???0sentry@?$basic_ostream@DU?$char_traits@D@std@@@std@@QEAA@AEAV12@@Z@4HA+39
	DD	imagerel $unwind$?dtor$0@?0???0sentry@?$basic_ostream@DU?$char_traits@D@std@@@std@@QEAA@AEAV12@@Z@4HA
pdata	ENDS
;	COMDAT pdata
pdata	SEGMENT
$pdata$??1sentry@?$basic_ostream@DU?$char_traits@D@std@@@std@@QEAA@XZ DD imagerel $LN6
	DD	imagerel $LN6+139
	DD	imagerel $unwind$??1sentry@?$basic_ostream@DU?$char_traits@D@std@@@std@@QEAA@XZ
pdata	ENDS
;	COMDAT pdata
pdata	SEGMENT
$pdata$??Bsentry@?$basic_ostream@DU?$char_traits@D@std@@@std@@QEBA_NXZ DD imagerel $LN3
	DD	imagerel $LN3+75
	DD	imagerel $unwind$??Bsentry@?$basic_ostream@DU?$char_traits@D@std@@@std@@QEBA_NXZ
pdata	ENDS
;	COMDAT pdata
pdata	SEGMENT
$pdata$??$min@_K@std@@YAAEB_KAEB_K0@Z DD imagerel $LN5
	DD	imagerel $LN5+142
	DD	imagerel $unwind$??$min@_K@std@@YAAEB_KAEB_K0@Z
pdata	ENDS
;	COMDAT pdata
pdata	SEGMENT
$pdata$?allocate@?$allocator@U_Container_proxy@std@@@std@@QEAAPEAU_Container_proxy@2@_K@Z DD imagerel $LN3
	DD	imagerel $LN3+89
	DD	imagerel $unwind$?allocate@?$allocator@U_Container_proxy@std@@@std@@QEAAPEAU_Container_proxy@2@_K@Z
pdata	ENDS
;	COMDAT pdata
pdata	SEGMENT
$pdata$??$_Delete_plain_internal@V?$allocator@U_Container_proxy@std@@@std@@@std@@YAXAEAV?$allocator@U_Container_proxy@std@@@0@QEAU_Container_proxy@0@@Z DD imagerel $LN3
	DD	imagerel $LN3+89
	DD	imagerel $unwind$??$_Delete_plain_internal@V?$allocator@U_Container_proxy@std@@@std@@@std@@YAXAEAV?$allocator@U_Container_proxy@std@@@0@QEAU_Container_proxy@0@@Z
pdata	ENDS
;	COMDAT pdata
pdata	SEGMENT
$pdata$??0?$_Container_proxy_ptr12@V?$allocator@U_Container_proxy@std@@@std@@@std@@QEAA@AEAV?$allocator@U_Container_proxy@std@@@1@AEAU_Container_base12@1@@Z DD imagerel $LN3
	DD	imagerel $LN3+195
	DD	imagerel $unwind$??0?$_Container_proxy_ptr12@V?$allocator@U_Container_proxy@std@@@std@@@std@@QEAA@AEAV?$allocator@U_Container_proxy@std@@@1@AEAU_Container_base12@1@@Z
pdata	ENDS
;	COMDAT pdata
pdata	SEGMENT
$pdata$??1?$_Container_proxy_ptr12@V?$allocator@U_Container_proxy@std@@@std@@@std@@QEAA@XZ DD imagerel $LN4
	DD	imagerel $LN4+104
	DD	imagerel $unwind$??1?$_Container_proxy_ptr12@V?$allocator@U_Container_proxy@std@@@std@@@std@@QEAA@XZ
pdata	ENDS
;	COMDAT pdata
pdata	SEGMENT
$pdata$??$_Alloc_proxy@V?$allocator@U_Container_proxy@std@@@std@@@_Container_base12@std@@QEAAX$$QEAV?$allocator@U_Container_proxy@std@@@1@@Z DD imagerel $LN3
	DD	imagerel $LN3+156
	DD	imagerel $unwind$??$_Alloc_proxy@V?$allocator@U_Container_proxy@std@@@std@@@_Container_base12@std@@QEAAX$$QEAV?$allocator@U_Container_proxy@std@@@1@@Z
pdata	ENDS
;	COMDAT pdata
pdata	SEGMENT
$pdata$??$?0UMFSTState@MFST@@@?$allocator@U_Container_proxy@std@@@std@@QEAA@AEBV?$allocator@UMFSTState@MFST@@@1@@Z DD imagerel $LN3
	DD	imagerel $LN3+76
	DD	imagerel $unwind$??$?0UMFSTState@MFST@@@?$allocator@U_Container_proxy@std@@@std@@QEAA@AEBV?$allocator@UMFSTState@MFST@@@1@@Z
pdata	ENDS
;	COMDAT pdata
pdata	SEGMENT
$pdata$??$exchange@PEAU_Container_proxy@std@@$$T@std@@YAPEAU_Container_proxy@0@AEAPEAU10@$$QEA$$T@Z DD imagerel $LN3
	DD	imagerel $LN3+107
	DD	imagerel $unwind$??$exchange@PEAU_Container_proxy@std@@$$T@std@@YAPEAU_Container_proxy@0@AEAPEAU10@$$QEA$$T@Z
pdata	ENDS
;	COMDAT pdata
pdata	SEGMENT
$pdata$??$?0$$V@?$_Compressed_pair@V?$allocator@UMFSTState@MFST@@@std@@V?$_Deque_val@U?$_Deque_simple_types@UMFSTState@MFST@@@std@@@2@$00@std@@QEAA@U_Zero_then_variadic_args_t@1@@Z DD imagerel $LN3
	DD	imagerel $LN3+102
	DD	imagerel $unwind$??$?0$$V@?$_Compressed_pair@V?$allocator@UMFSTState@MFST@@@std@@V?$_Deque_val@U?$_Deque_simple_types@UMFSTState@MFST@@@std@@@2@$00@std@@QEAA@U_Zero_then_variadic_args_t@1@@Z
pdata	ENDS
;	COMDAT pdata
pdata	SEGMENT
$pdata$??$addressof@$$CBV?$deque@FV?$allocator@F@std@@@std@@@std@@YAPEBV?$deque@FV?$allocator@F@std@@@0@AEBV10@@Z DD imagerel $LN3
	DD	imagerel $LN3+71
	DD	imagerel $unwind$??$addressof@$$CBV?$deque@FV?$allocator@F@std@@@std@@@std@@YAPEBV?$deque@FV?$allocator@F@std@@@0@AEBV10@@Z
pdata	ENDS
;	COMDAT pdata
pdata	SEGMENT
$pdata$??$?0F@?$allocator@U_Container_proxy@std@@@std@@QEAA@AEBV?$allocator@F@1@@Z DD imagerel $LN3
	DD	imagerel $LN3+76
	DD	imagerel $unwind$??$?0F@?$allocator@U_Container_proxy@std@@@std@@QEAA@AEBV?$allocator@F@1@@Z
pdata	ENDS
;	COMDAT pdata
pdata	SEGMENT
$pdata$??$addressof@V?$deque@FV?$allocator@F@std@@@std@@@std@@YAPEAV?$deque@FV?$allocator@F@std@@@0@AEAV10@@Z DD imagerel $LN3
	DD	imagerel $LN3+71
	DD	imagerel $unwind$??$addressof@V?$deque@FV?$allocator@F@std@@@std@@@std@@YAPEAV?$deque@FV?$allocator@F@std@@@0@AEAV10@@Z
pdata	ENDS
;	COMDAT pdata
pdata	SEGMENT
$pdata$??$?0V?$allocator@F@std@@$$V@?$_Compressed_pair@V?$allocator@F@std@@V?$_Deque_val@U?$_Deque_simple_types@F@std@@@2@$00@std@@QEAA@U_One_then_variadic_args_t@1@$$QEAV?$allocator@F@1@@Z DD imagerel $LN3
	DD	imagerel $LN3+107
	DD	imagerel $unwind$??$?0V?$allocator@F@std@@$$V@?$_Compressed_pair@V?$allocator@F@std@@V?$_Deque_val@U?$_Deque_simple_types@F@std@@@2@$00@std@@QEAA@U_One_then_variadic_args_t@1@$$QEAV?$allocator@F@1@@Z
pdata	ENDS
;	COMDAT pdata
pdata	SEGMENT
$pdata$??0?$_Deque_unchecked_const_iterator@V?$_Deque_val@U?$_Deque_simple_types@F@std@@@std@@@std@@QEAA@_KPEBU_Container_base12@1@@Z DD imagerel $LN3
	DD	imagerel $LN3+116
	DD	imagerel $unwind$??0?$_Deque_unchecked_const_iterator@V?$_Deque_val@U?$_Deque_simple_types@F@std@@@std@@@std@@QEAA@_KPEBU_Container_base12@1@@Z
pdata	ENDS
;	COMDAT pdata
pdata	SEGMENT
$pdata$??D?$_Deque_unchecked_const_iterator@V?$_Deque_val@U?$_Deque_simple_types@F@std@@@std@@@std@@QEBAAEBFXZ DD imagerel $LN3
	DD	imagerel $LN3+152
	DD	imagerel $unwind$??D?$_Deque_unchecked_const_iterator@V?$_Deque_val@U?$_Deque_simple_types@F@std@@@std@@@std@@QEBAAEBFXZ
pdata	ENDS
;	COMDAT pdata
pdata	SEGMENT
$pdata$??E?$_Deque_unchecked_const_iterator@V?$_Deque_val@U?$_Deque_simple_types@F@std@@@std@@@std@@QEAAAEAV01@XZ DD imagerel $LN3
	DD	imagerel $LN3+96
	DD	imagerel $unwind$??E?$_Deque_unchecked_const_iterator@V?$_Deque_val@U?$_Deque_simple_types@F@std@@@std@@@std@@QEAAAEAV01@XZ
pdata	ENDS
;	COMDAT pdata
pdata	SEGMENT
$pdata$??Z?$_Deque_unchecked_const_iterator@V?$_Deque_val@U?$_Deque_simple_types@F@std@@@std@@@std@@QEAAAEAV01@_J@Z DD imagerel $LN3
	DD	imagerel $LN3+108
	DD	imagerel $unwind$??Z?$_Deque_unchecked_const_iterator@V?$_Deque_val@U?$_Deque_simple_types@F@std@@@std@@@std@@QEAAAEAV01@_J@Z
pdata	ENDS
;	COMDAT pdata
pdata	SEGMENT
$pdata$??G?$_Deque_unchecked_const_iterator@V?$_Deque_val@U?$_Deque_simple_types@F@std@@@std@@@std@@QEBA_JAEBV01@@Z DD imagerel $LN3
	DD	imagerel $LN3+94
	DD	imagerel $unwind$??G?$_Deque_unchecked_const_iterator@V?$_Deque_val@U?$_Deque_simple_types@F@std@@@std@@@std@@QEBA_JAEBV01@@Z
pdata	ENDS
;	COMDAT pdata
pdata	SEGMENT
$pdata$??8?$_Deque_unchecked_const_iterator@V?$_Deque_val@U?$_Deque_simple_types@F@std@@@std@@@std@@QEBA_NAEBV01@@Z DD imagerel $LN5
	DD	imagerel $LN5+122
	DD	imagerel $unwind$??8?$_Deque_unchecked_const_iterator@V?$_Deque_val@U?$_Deque_simple_types@F@std@@@std@@@std@@QEBA_NAEBV01@@Z
pdata	ENDS
;	COMDAT pdata
pdata	SEGMENT
$pdata$??9?$_Deque_unchecked_const_iterator@V?$_Deque_val@U?$_Deque_simple_types@F@std@@@std@@@std@@QEBA_NAEBV01@@Z DD imagerel $LN5
	DD	imagerel $LN5+124
	DD	imagerel $unwind$??9?$_Deque_unchecked_const_iterator@V?$_Deque_val@U?$_Deque_simple_types@F@std@@@std@@@std@@QEBA_NAEBV01@@Z
pdata	ENDS
;	COMDAT pdata
pdata	SEGMENT
$pdata$?__autoclassinit2@?$_Deque_unchecked_const_iterator@V?$_Deque_val@U?$_Deque_simple_types@F@std@@@std@@@std@@QEAAX_K@Z DD imagerel $LN3
	DD	imagerel $LN3+73
	DD	imagerel $unwind$?__autoclassinit2@?$_Deque_unchecked_const_iterator@V?$_Deque_val@U?$_Deque_simple_types@F@std@@@std@@@std@@QEAAX_K@Z
pdata	ENDS
;	COMDAT pdata
pdata	SEGMENT
$pdata$??$_Construct@V?$_Deque_unchecked_const_iterator@V?$_Deque_val@U?$_Deque_simple_types@F@std@@@std@@@std@@@?$deque@FV?$allocator@F@std@@@std@@AEAAXV?$_Deque_unchecked_const_iterator@V?$_Deque_val@U?$_Deque_simple_types@F@std@@@std@@@1@0@Z DD imagerel $LN7
	DD	imagerel $LN7+219
	DD	imagerel $unwind$??$_Construct@V?$_Deque_unchecked_const_iterator@V?$_Deque_val@U?$_Deque_simple_types@F@std@@@std@@@std@@@?$deque@FV?$allocator@F@std@@@std@@AEAAXV?$_Deque_unchecked_const_iterator@V?$_Deque_val@U?$_Deque_simple_types@F@std@@@std@@@1@0@Z
pdata	ENDS
;	COMDAT pdata
pdata	SEGMENT
$pdata$?dtor$0@?0???$_Construct@V?$_Deque_unchecked_const_iterator@V?$_Deque_val@U?$_Deque_simple_types@F@std@@@std@@@std@@@?$deque@FV?$allocator@F@std@@@std@@AEAAXV?$_Deque_unchecked_const_iterator@V?$_Deque_val@U?$_Deque_simple_types@F@std@@@std@@@1@0@Z@4HA DD imagerel ?dtor$0@?0???$_Construct@V?$_Deque_unchecked_const_iterator@V?$_Deque_val@U?$_Deque_simple_types@F@std@@@std@@@std@@@?$deque@FV?$allocator@F@std@@@std@@AEAAXV?$_Deque_unchecked_const_iterator@V?$_Deque_val@U?$_Deque_simple_types@F@std@@@std@@@1@0@Z@4HA
	DD	imagerel ?dtor$0@?0???$_Construct@V?$_Deque_unchecked_const_iterator@V?$_Deque_val@U?$_Deque_simple_types@F@std@@@std@@@std@@@?$deque@FV?$allocator@F@std@@@std@@AEAAXV?$_Deque_unchecked_const_iterator@V?$_Deque_val@U?$_Deque_simple_types@F@std@@@std@@@1@0@Z@4HA+36
	DD	imagerel $unwind$?dtor$0@?0???$_Construct@V?$_Deque_unchecked_const_iterator@V?$_Deque_val@U?$_Deque_simple_types@F@std@@@std@@@std@@@?$deque@FV?$allocator@F@std@@@std@@AEAAXV?$_Deque_unchecked_const_iterator@V?$_Deque_val@U?$_Deque_simple_types@F@std@@@std@@@1@0@Z@4HA
pdata	ENDS
;	COMDAT pdata
pdata	SEGMENT
$pdata$??$?0$$V@?$_Compressed_pair@V?$allocator@F@std@@V?$_Deque_val@U?$_Deque_simple_types@F@std@@@2@$00@std@@QEAA@U_Zero_then_variadic_args_t@1@@Z DD imagerel $LN3
	DD	imagerel $LN3+102
	DD	imagerel $unwind$??$?0$$V@?$_Compressed_pair@V?$allocator@F@std@@V?$_Deque_val@U?$_Deque_simple_types@F@std@@@2@$00@std@@QEAA@U_Zero_then_variadic_args_t@1@@Z
pdata	ENDS
;	COMDAT pdata
pdata	SEGMENT
$pdata$??$_Unfancy@U_Container_proxy@std@@@std@@YAPEAU_Container_proxy@0@PEAU10@@Z DD imagerel $LN3
	DD	imagerel $LN3+71
	DD	imagerel $unwind$??$_Unfancy@U_Container_proxy@std@@@std@@YAPEAU_Container_proxy@0@PEAU10@@Z
pdata	ENDS
;	COMDAT pdata
pdata	SEGMENT
$pdata$??$?0UMFSTState@MFST@@@?$allocator@PEAUMFSTState@MFST@@@std@@QEAA@AEBV?$allocator@UMFSTState@MFST@@@1@@Z DD imagerel $LN3
	DD	imagerel $LN3+76
	DD	imagerel $unwind$??$?0UMFSTState@MFST@@@?$allocator@PEAUMFSTState@MFST@@@std@@QEAA@AEBV?$allocator@UMFSTState@MFST@@@1@@Z
pdata	ENDS
;	COMDAT pdata
pdata	SEGMENT
$pdata$??$_Destroy_in_place@PEAUMFSTState@MFST@@@std@@YAXAEAPEAUMFSTState@MFST@@@Z DD imagerel $LN3
	DD	imagerel $LN3+65
	DD	imagerel $unwind$??$_Destroy_in_place@PEAUMFSTState@MFST@@@std@@YAXAEAPEAUMFSTState@MFST@@@Z
pdata	ENDS
;	COMDAT pdata
pdata	SEGMENT
$pdata$??$addressof@$$CBV?$deque@UMFSTState@MFST@@V?$allocator@UMFSTState@MFST@@@std@@@std@@@std@@YAPEBV?$deque@UMFSTState@MFST@@V?$allocator@UMFSTState@MFST@@@std@@@0@AEBV10@@Z DD imagerel $LN3
	DD	imagerel $LN3+71
	DD	imagerel $unwind$??$addressof@$$CBV?$deque@UMFSTState@MFST@@V?$allocator@UMFSTState@MFST@@@std@@@std@@@std@@YAPEBV?$deque@UMFSTState@MFST@@V?$allocator@UMFSTState@MFST@@@std@@@0@AEBV10@@Z
pdata	ENDS
;	COMDAT pdata
pdata	SEGMENT
$pdata$??$?0F@?$allocator@PEAF@std@@QEAA@AEBV?$allocator@F@1@@Z DD imagerel $LN3
	DD	imagerel $LN3+76
	DD	imagerel $unwind$??$?0F@?$allocator@PEAF@std@@QEAA@AEBV?$allocator@F@1@@Z
pdata	ENDS
;	COMDAT pdata
pdata	SEGMENT
$pdata$??$_Destroy_in_place@PEAF@std@@YAXAEAPEAF@Z DD imagerel $LN3
	DD	imagerel $LN3+65
	DD	imagerel $unwind$??$_Destroy_in_place@PEAF@std@@YAXAEAPEAF@Z
pdata	ENDS
;	COMDAT pdata
pdata	SEGMENT
$pdata$??$addressof@$$CBV?$_Deque_val@U?$_Deque_simple_types@F@std@@@std@@@std@@YAPEBV?$_Deque_val@U?$_Deque_simple_types@F@std@@@0@AEBV10@@Z DD imagerel $LN3
	DD	imagerel $LN3+71
	DD	imagerel $unwind$??$addressof@$$CBV?$_Deque_val@U?$_Deque_simple_types@F@std@@@std@@@std@@YAPEBV?$_Deque_val@U?$_Deque_simple_types@F@std@@@0@AEBV10@@Z
pdata	ENDS
;	COMDAT pdata
pdata	SEGMENT
$pdata$??$_Pocca@V?$allocator@F@std@@@std@@YAXAEAV?$allocator@F@0@AEBV10@@Z DD imagerel $LN3
	DD	imagerel $LN3+70
	DD	imagerel $unwind$??$_Pocca@V?$allocator@F@std@@@std@@YAXAEAV?$allocator@F@0@AEBV10@@Z
pdata	ENDS
;	COMDAT pdata
pdata	SEGMENT
$pdata$??$assign@V?$_Deque_unchecked_const_iterator@V?$_Deque_val@U?$_Deque_simple_types@F@std@@@std@@@std@@$0A@@?$deque@FV?$allocator@F@std@@@std@@QEAAXV?$_Deque_unchecked_const_iterator@V?$_Deque_val@U?$_Deque_simple_types@F@std@@@std@@@1@0@Z DD imagerel $LN10
	DD	imagerel $LN10+503
	DD	imagerel $unwind$??$assign@V?$_Deque_unchecked_const_iterator@V?$_Deque_val@U?$_Deque_simple_types@F@std@@@std@@@std@@$0A@@?$deque@FV?$allocator@F@std@@@std@@QEAAXV?$_Deque_unchecked_const_iterator@V?$_Deque_val@U?$_Deque_simple_types@F@std@@@std@@@1@0@Z
pdata	ENDS
;	COMDAT pdata
pdata	SEGMENT
$pdata$??$_Pocma@V?$allocator@F@std@@@std@@YAXAEAV?$allocator@F@0@0@Z DD imagerel $LN3
	DD	imagerel $LN3+82
	DD	imagerel $unwind$??$_Pocma@V?$allocator@F@std@@@std@@YAXAEAV?$allocator@F@0@0@Z
pdata	ENDS
;	COMDAT pdata
pdata	SEGMENT
$pdata$??$_Get_size_of_n@$0BA@@std@@YA_K_K@Z DD imagerel $LN4
	DD	imagerel $LN4+114
	DD	imagerel $unwind$??$_Get_size_of_n@$0BA@@std@@YA_K_K@Z
pdata	ENDS
;	COMDAT pdata
pdata	SEGMENT
$pdata$??$_Allocate@$0BA@U_Default_allocate_traits@std@@$0A@@std@@YAPEAX_K@Z DD imagerel $LN5
	DD	imagerel $LN5+117
	DD	imagerel $unwind$??$_Allocate@$0BA@U_Default_allocate_traits@std@@$0A@@std@@YAPEAX_K@Z
pdata	ENDS
;	COMDAT pdata
pdata	SEGMENT
$pdata$??$_Deallocate@$0BA@$0A@@std@@YAXPEAX_K@Z DD imagerel $LN4
	DD	imagerel $LN4+121
	DD	imagerel $unwind$??$_Deallocate@$0BA@$0A@@std@@YAXPEAX_K@Z
pdata	ENDS
;	COMDAT pdata
pdata	SEGMENT
$pdata$??$_Unfancy@UMFSTState@MFST@@@std@@YAPEAUMFSTState@MFST@@PEAU12@@Z DD imagerel $LN3
	DD	imagerel $LN3+71
	DD	imagerel $unwind$??$_Unfancy@UMFSTState@MFST@@@std@@YAPEAUMFSTState@MFST@@PEAU12@@Z
pdata	ENDS
;	COMDAT pdata
pdata	SEGMENT
$pdata$??$destroy@UMFSTState@MFST@@@?$_Default_allocator_traits@V?$allocator@UMFSTState@MFST@@@std@@@std@@SAXAEAV?$allocator@UMFSTState@MFST@@@1@QEAUMFSTState@MFST@@@Z DD imagerel $LN3
	DD	imagerel $LN3+83
	DD	imagerel $unwind$??$destroy@UMFSTState@MFST@@@?$_Default_allocator_traits@V?$allocator@UMFSTState@MFST@@@std@@@std@@SAXAEAV?$allocator@UMFSTState@MFST@@@1@QEAUMFSTState@MFST@@@Z
pdata	ENDS
;	COMDAT pdata
pdata	SEGMENT
$pdata$??$_Emplace_back_internal@AEBUMFSTState@MFST@@@?$deque@UMFSTState@MFST@@V?$allocator@UMFSTState@MFST@@@std@@@std@@AEAAXAEBUMFSTState@MFST@@@Z DD imagerel $LN5
	DD	imagerel $LN5+559
	DD	imagerel $unwind$??$_Emplace_back_internal@AEBUMFSTState@MFST@@@?$deque@UMFSTState@MFST@@V?$allocator@UMFSTState@MFST@@@std@@@std@@AEAAXAEBUMFSTState@MFST@@@Z
pdata	ENDS
;	COMDAT pdata
pdata	SEGMENT
$pdata$??0?$_Deque_unchecked_const_iterator@V?$_Deque_val@U?$_Deque_simple_types@UMFSTState@MFST@@@std@@@std@@@std@@QEAA@_KPEBU_Container_base12@1@@Z DD imagerel $LN3
	DD	imagerel $LN3+116
	DD	imagerel $unwind$??0?$_Deque_unchecked_const_iterator@V?$_Deque_val@U?$_Deque_simple_types@UMFSTState@MFST@@@std@@@std@@@std@@QEAA@_KPEBU_Container_base12@1@@Z
pdata	ENDS
;	COMDAT pdata
pdata	SEGMENT
$pdata$??D?$_Deque_unchecked_const_iterator@V?$_Deque_val@U?$_Deque_simple_types@UMFSTState@MFST@@@std@@@std@@@std@@QEBAAEBUMFSTState@MFST@@XZ DD imagerel $LN3
	DD	imagerel $LN3+130
	DD	imagerel $unwind$??D?$_Deque_unchecked_const_iterator@V?$_Deque_val@U?$_Deque_simple_types@UMFSTState@MFST@@@std@@@std@@@std@@QEBAAEBUMFSTState@MFST@@XZ
pdata	ENDS
;	COMDAT pdata
pdata	SEGMENT
$pdata$??E?$_Deque_unchecked_const_iterator@V?$_Deque_val@U?$_Deque_simple_types@UMFSTState@MFST@@@std@@@std@@@std@@QEAAAEAV01@XZ DD imagerel $LN3
	DD	imagerel $LN3+96
	DD	imagerel $unwind$??E?$_Deque_unchecked_const_iterator@V?$_Deque_val@U?$_Deque_simple_types@UMFSTState@MFST@@@std@@@std@@@std@@QEAAAEAV01@XZ
pdata	ENDS
;	COMDAT pdata
pdata	SEGMENT
$pdata$??Z?$_Deque_unchecked_const_iterator@V?$_Deque_val@U?$_Deque_simple_types@UMFSTState@MFST@@@std@@@std@@@std@@QEAAAEAV01@_J@Z DD imagerel $LN3
	DD	imagerel $LN3+108
	DD	imagerel $unwind$??Z?$_Deque_unchecked_const_iterator@V?$_Deque_val@U?$_Deque_simple_types@UMFSTState@MFST@@@std@@@std@@@std@@QEAAAEAV01@_J@Z
pdata	ENDS
;	COMDAT pdata
pdata	SEGMENT
$pdata$??G?$_Deque_unchecked_const_iterator@V?$_Deque_val@U?$_Deque_simple_types@UMFSTState@MFST@@@std@@@std@@@std@@QEBA_JAEBV01@@Z DD imagerel $LN3
	DD	imagerel $LN3+94
	DD	imagerel $unwind$??G?$_Deque_unchecked_const_iterator@V?$_Deque_val@U?$_Deque_simple_types@UMFSTState@MFST@@@std@@@std@@@std@@QEBA_JAEBV01@@Z
pdata	ENDS
;	COMDAT pdata
pdata	SEGMENT
$pdata$??8?$_Deque_unchecked_const_iterator@V?$_Deque_val@U?$_Deque_simple_types@UMFSTState@MFST@@@std@@@std@@@std@@QEBA_NAEBV01@@Z DD imagerel $LN5
	DD	imagerel $LN5+122
	DD	imagerel $unwind$??8?$_Deque_unchecked_const_iterator@V?$_Deque_val@U?$_Deque_simple_types@UMFSTState@MFST@@@std@@@std@@@std@@QEBA_NAEBV01@@Z
pdata	ENDS
;	COMDAT pdata
pdata	SEGMENT
$pdata$??9?$_Deque_unchecked_const_iterator@V?$_Deque_val@U?$_Deque_simple_types@UMFSTState@MFST@@@std@@@std@@@std@@QEBA_NAEBV01@@Z DD imagerel $LN5
	DD	imagerel $LN5+124
	DD	imagerel $unwind$??9?$_Deque_unchecked_const_iterator@V?$_Deque_val@U?$_Deque_simple_types@UMFSTState@MFST@@@std@@@std@@@std@@QEBA_NAEBV01@@Z
pdata	ENDS
;	COMDAT pdata
pdata	SEGMENT
$pdata$?__autoclassinit2@?$_Deque_unchecked_const_iterator@V?$_Deque_val@U?$_Deque_simple_types@UMFSTState@MFST@@@std@@@std@@@std@@QEAAX_K@Z DD imagerel $LN3
	DD	imagerel $LN3+73
	DD	imagerel $unwind$?__autoclassinit2@?$_Deque_unchecked_const_iterator@V?$_Deque_val@U?$_Deque_simple_types@UMFSTState@MFST@@@std@@@std@@@std@@QEAAX_K@Z
pdata	ENDS
;	COMDAT pdata
pdata	SEGMENT
$pdata$??D?$_Deque_unchecked_iterator@V?$_Deque_val@U?$_Deque_simple_types@UMFSTState@MFST@@@std@@@std@@@std@@QEBAAEAUMFSTState@MFST@@XZ DD imagerel $LN3
	DD	imagerel $LN3+76
	DD	imagerel $unwind$??D?$_Deque_unchecked_iterator@V?$_Deque_val@U?$_Deque_simple_types@UMFSTState@MFST@@@std@@@std@@@std@@QEBAAEAUMFSTState@MFST@@XZ
pdata	ENDS
;	COMDAT pdata
pdata	SEGMENT
$pdata$??E?$_Deque_unchecked_iterator@V?$_Deque_val@U?$_Deque_simple_types@UMFSTState@MFST@@@std@@@std@@@std@@QEAAAEAV01@XZ DD imagerel $LN3
	DD	imagerel $LN3+83
	DD	imagerel $unwind$??E?$_Deque_unchecked_iterator@V?$_Deque_val@U?$_Deque_simple_types@UMFSTState@MFST@@@std@@@std@@@std@@QEAAAEAV01@XZ
pdata	ENDS
;	COMDAT pdata
pdata	SEGMENT
$pdata$??Z?$_Deque_unchecked_iterator@V?$_Deque_val@U?$_Deque_simple_types@UMFSTState@MFST@@@std@@@std@@@std@@QEAAAEAV01@_J@Z DD imagerel $LN3
	DD	imagerel $LN3+95
	DD	imagerel $unwind$??Z?$_Deque_unchecked_iterator@V?$_Deque_val@U?$_Deque_simple_types@UMFSTState@MFST@@@std@@@std@@@std@@QEAAAEAV01@_J@Z
pdata	ENDS
;	COMDAT pdata
pdata	SEGMENT
$pdata$??G?$_Deque_unchecked_iterator@V?$_Deque_val@U?$_Deque_simple_types@UMFSTState@MFST@@@std@@@std@@@std@@QEBA?AV01@_J@Z DD imagerel $LN3
	DD	imagerel $LN3+205
	DD	imagerel $unwind$??G?$_Deque_unchecked_iterator@V?$_Deque_val@U?$_Deque_simple_types@UMFSTState@MFST@@@std@@@std@@@std@@QEBA?AV01@_J@Z
pdata	ENDS
;	COMDAT pdata
pdata	SEGMENT
$pdata$??G?$_Deque_unchecked_iterator@V?$_Deque_val@U?$_Deque_simple_types@UMFSTState@MFST@@@std@@@std@@@std@@QEBA_JAEBV?$_Deque_unchecked_const_iterator@V?$_Deque_val@U?$_Deque_simple_types@UMFSTState@MFST@@@std@@@std@@@1@@Z DD imagerel $LN3
	DD	imagerel $LN3+88
	DD	imagerel $unwind$??G?$_Deque_unchecked_iterator@V?$_Deque_val@U?$_Deque_simple_types@UMFSTState@MFST@@@std@@@std@@@std@@QEBA_JAEBV?$_Deque_unchecked_const_iterator@V?$_Deque_val@U?$_Deque_simple_types@UMFSTState@MFST@@@std@@@std@@@1@@Z
pdata	ENDS
;	COMDAT pdata
pdata	SEGMENT
$pdata$?__autoclassinit2@?$_Deque_unchecked_iterator@V?$_Deque_val@U?$_Deque_simple_types@UMFSTState@MFST@@@std@@@std@@@std@@QEAAX_K@Z DD imagerel $LN3
	DD	imagerel $LN3+73
	DD	imagerel $unwind$?__autoclassinit2@?$_Deque_unchecked_iterator@V?$_Deque_val@U?$_Deque_simple_types@UMFSTState@MFST@@@std@@@std@@@std@@QEAAX_K@Z
pdata	ENDS
;	COMDAT pdata
pdata	SEGMENT
$pdata$??0?$_Deque_unchecked_iterator@V?$_Deque_val@U?$_Deque_simple_types@UMFSTState@MFST@@@std@@@std@@@std@@QEAA@_KPEBU_Container_base12@1@@Z DD imagerel $LN3
	DD	imagerel $LN3+95
	DD	imagerel $unwind$??0?$_Deque_unchecked_iterator@V?$_Deque_val@U?$_Deque_simple_types@UMFSTState@MFST@@@std@@@std@@@std@@QEAA@_KPEBU_Container_base12@1@@Z
pdata	ENDS
;	COMDAT pdata
pdata	SEGMENT
$pdata$??$_Pocca@V?$allocator@UMFSTState@MFST@@@std@@@std@@YAXAEAV?$allocator@UMFSTState@MFST@@@0@AEBV10@@Z DD imagerel $LN3
	DD	imagerel $LN3+70
	DD	imagerel $unwind$??$_Pocca@V?$allocator@UMFSTState@MFST@@@std@@@std@@YAXAEAV?$allocator@UMFSTState@MFST@@@0@AEBV10@@Z
pdata	ENDS
;	COMDAT pdata
pdata	SEGMENT
$pdata$??$assign@V?$_Deque_unchecked_const_iterator@V?$_Deque_val@U?$_Deque_simple_types@UMFSTState@MFST@@@std@@@std@@@std@@$0A@@?$deque@UMFSTState@MFST@@V?$allocator@UMFSTState@MFST@@@std@@@std@@QEAAXV?$_Deque_unchecked_const_iterator@V?$_Deque_val@U?$_Deque_simple_types@UMFSTState@MFST@@@std@@@std@@@1@0@Z DD imagerel $LN10
	DD	imagerel $LN10+508
	DD	imagerel $unwind$??$assign@V?$_Deque_unchecked_const_iterator@V?$_Deque_val@U?$_Deque_simple_types@UMFSTState@MFST@@@std@@@std@@@std@@$0A@@?$deque@UMFSTState@MFST@@V?$allocator@UMFSTState@MFST@@@std@@@std@@QEAAXV?$_Deque_unchecked_const_iterator@V?$_Deque_val@U?$_Deque_simple_types@UMFSTState@MFST@@@std@@@std@@@1@0@Z
pdata	ENDS
;	COMDAT pdata
pdata	SEGMENT
$pdata$??$_Unfancy@F@std@@YAPEAFPEAF@Z DD imagerel $LN3
	DD	imagerel $LN3+71
	DD	imagerel $unwind$??$_Unfancy@F@std@@YAPEAFPEAF@Z
pdata	ENDS
;	COMDAT pdata
pdata	SEGMENT
$pdata$??$destroy@F@?$_Default_allocator_traits@V?$allocator@F@std@@@std@@SAXAEAV?$allocator@F@1@QEAF@Z DD imagerel $LN3
	DD	imagerel $LN3+69
	DD	imagerel $unwind$??$destroy@F@?$_Default_allocator_traits@V?$allocator@F@std@@@std@@SAXAEAV?$allocator@F@1@QEAF@Z
pdata	ENDS
;	COMDAT pdata
pdata	SEGMENT
$pdata$??$_Emplace_back_internal@AEBF@?$deque@FV?$allocator@F@std@@@std@@AEAAXAEBF@Z DD imagerel $LN5
	DD	imagerel $LN5+612
	DD	imagerel $unwind$??$_Emplace_back_internal@AEBF@?$deque@FV?$allocator@F@std@@@std@@AEAAXAEBF@Z
pdata	ENDS
;	COMDAT pdata
pdata	SEGMENT
$pdata$??D?$_Deque_unchecked_iterator@V?$_Deque_val@U?$_Deque_simple_types@F@std@@@std@@@std@@QEBAAEAFXZ DD imagerel $LN3
	DD	imagerel $LN3+76
	DD	imagerel $unwind$??D?$_Deque_unchecked_iterator@V?$_Deque_val@U?$_Deque_simple_types@F@std@@@std@@@std@@QEBAAEAFXZ
pdata	ENDS
;	COMDAT pdata
pdata	SEGMENT
$pdata$??E?$_Deque_unchecked_iterator@V?$_Deque_val@U?$_Deque_simple_types@F@std@@@std@@@std@@QEAAAEAV01@XZ DD imagerel $LN3
	DD	imagerel $LN3+83
	DD	imagerel $unwind$??E?$_Deque_unchecked_iterator@V?$_Deque_val@U?$_Deque_simple_types@F@std@@@std@@@std@@QEAAAEAV01@XZ
pdata	ENDS
;	COMDAT pdata
pdata	SEGMENT
$pdata$??Z?$_Deque_unchecked_iterator@V?$_Deque_val@U?$_Deque_simple_types@F@std@@@std@@@std@@QEAAAEAV01@_J@Z DD imagerel $LN3
	DD	imagerel $LN3+95
	DD	imagerel $unwind$??Z?$_Deque_unchecked_iterator@V?$_Deque_val@U?$_Deque_simple_types@F@std@@@std@@@std@@QEAAAEAV01@_J@Z
pdata	ENDS
;	COMDAT pdata
pdata	SEGMENT
$pdata$??G?$_Deque_unchecked_iterator@V?$_Deque_val@U?$_Deque_simple_types@F@std@@@std@@@std@@QEBA?AV01@_J@Z DD imagerel $LN3
	DD	imagerel $LN3+205
	DD	imagerel $unwind$??G?$_Deque_unchecked_iterator@V?$_Deque_val@U?$_Deque_simple_types@F@std@@@std@@@std@@QEBA?AV01@_J@Z
pdata	ENDS
;	COMDAT pdata
pdata	SEGMENT
$pdata$??G?$_Deque_unchecked_iterator@V?$_Deque_val@U?$_Deque_simple_types@F@std@@@std@@@std@@QEBA_JAEBV?$_Deque_unchecked_const_iterator@V?$_Deque_val@U?$_Deque_simple_types@F@std@@@std@@@1@@Z DD imagerel $LN3
	DD	imagerel $LN3+88
	DD	imagerel $unwind$??G?$_Deque_unchecked_iterator@V?$_Deque_val@U?$_Deque_simple_types@F@std@@@std@@@std@@QEBA_JAEBV?$_Deque_unchecked_const_iterator@V?$_Deque_val@U?$_Deque_simple_types@F@std@@@std@@@1@@Z
pdata	ENDS
;	COMDAT pdata
pdata	SEGMENT
$pdata$?__autoclassinit2@?$_Deque_unchecked_iterator@V?$_Deque_val@U?$_Deque_simple_types@F@std@@@std@@@std@@QEAAX_K@Z DD imagerel $LN3
	DD	imagerel $LN3+73
	DD	imagerel $unwind$?__autoclassinit2@?$_Deque_unchecked_iterator@V?$_Deque_val@U?$_Deque_simple_types@F@std@@@std@@@std@@QEAAX_K@Z
pdata	ENDS
;	COMDAT pdata
pdata	SEGMENT
$pdata$??0?$_Deque_unchecked_iterator@V?$_Deque_val@U?$_Deque_simple_types@F@std@@@std@@@std@@QEAA@_KPEBU_Container_base12@1@@Z DD imagerel $LN3
	DD	imagerel $LN3+95
	DD	imagerel $unwind$??0?$_Deque_unchecked_iterator@V?$_Deque_val@U?$_Deque_simple_types@F@std@@@std@@@std@@QEAA@_KPEBU_Container_base12@1@@Z
pdata	ENDS
;	COMDAT pdata
pdata	SEGMENT
$pdata$??$_Get_size_of_n@$01@std@@YA_K_K@Z DD imagerel $LN4
	DD	imagerel $LN4+116
	DD	imagerel $unwind$??$_Get_size_of_n@$01@std@@YA_K_K@Z
pdata	ENDS
;	COMDAT pdata
pdata	SEGMENT
$pdata$??$addressof@$$CBV?$_Deque_val@U?$_Deque_simple_types@UMFSTState@MFST@@@std@@@std@@@std@@YAPEBV?$_Deque_val@U?$_Deque_simple_types@UMFSTState@MFST@@@std@@@0@AEBV10@@Z DD imagerel $LN3
	DD	imagerel $LN3+71
	DD	imagerel $unwind$??$addressof@$$CBV?$_Deque_val@U?$_Deque_simple_types@UMFSTState@MFST@@@std@@@std@@@std@@YAPEBV?$_Deque_val@U?$_Deque_simple_types@UMFSTState@MFST@@@std@@@0@AEBV10@@Z
pdata	ENDS
;	COMDAT pdata
pdata	SEGMENT
$pdata$??$addressof@V?$_Deque_val@U?$_Deque_simple_types@UMFSTState@MFST@@@std@@@std@@@std@@YAPEAV?$_Deque_val@U?$_Deque_simple_types@UMFSTState@MFST@@@std@@@0@AEAV10@@Z DD imagerel $LN3
	DD	imagerel $LN3+71
	DD	imagerel $unwind$??$addressof@V?$_Deque_val@U?$_Deque_simple_types@UMFSTState@MFST@@@std@@@std@@@std@@YAPEAV?$_Deque_val@U?$_Deque_simple_types@UMFSTState@MFST@@@std@@@0@AEAV10@@Z
pdata	ENDS
;	COMDAT pdata
pdata	SEGMENT
$pdata$??$addressof@V?$_Deque_val@U?$_Deque_simple_types@F@std@@@std@@@std@@YAPEAV?$_Deque_val@U?$_Deque_simple_types@F@std@@@0@AEAV10@@Z DD imagerel $LN3
	DD	imagerel $LN3+71
	DD	imagerel $unwind$??$addressof@V?$_Deque_val@U?$_Deque_simple_types@F@std@@@std@@@std@@YAPEAV?$_Deque_val@U?$_Deque_simple_types@F@std@@@0@AEAV10@@Z
pdata	ENDS
;	COMDAT pdata
pdata	SEGMENT
$pdata$??$addressof@U_Container_proxy@std@@@std@@YAPEAU_Container_proxy@0@AEAU10@@Z DD imagerel $LN3
	DD	imagerel $LN3+71
	DD	imagerel $unwind$??$addressof@U_Container_proxy@std@@@std@@YAPEAU_Container_proxy@0@AEAU10@@Z
pdata	ENDS
;	COMDAT pdata
pdata	SEGMENT
$pdata$??$forward@PEAU_Container_base12@std@@@std@@YA$$QEAPEAU_Container_base12@0@AEAPEAU10@@Z DD imagerel $LN3
	DD	imagerel $LN3+71
	DD	imagerel $unwind$??$forward@PEAU_Container_base12@std@@@std@@YA$$QEAPEAU_Container_base12@0@AEAPEAU10@@Z
pdata	ENDS
;	COMDAT pdata
pdata	SEGMENT
$pdata$??$_Deallocate_plain@V?$allocator@U_Container_proxy@std@@@std@@@std@@YAXAEAV?$allocator@U_Container_proxy@std@@@0@QEAU_Container_proxy@0@@Z DD imagerel $LN3
	DD	imagerel $LN3+95
	DD	imagerel $unwind$??$_Deallocate_plain@V?$allocator@U_Container_proxy@std@@@std@@@std@@YAXAEAV?$allocator@U_Container_proxy@std@@@0@QEAU_Container_proxy@0@@Z
pdata	ENDS
;	COMDAT pdata
pdata	SEGMENT
$pdata$??$forward@V?$allocator@F@std@@@std@@YA$$QEAV?$allocator@F@0@AEAV10@@Z DD imagerel $LN3
	DD	imagerel $LN3+71
	DD	imagerel $unwind$??$forward@V?$allocator@F@std@@@std@@YA$$QEAV?$allocator@F@0@AEAV10@@Z
pdata	ENDS
;	COMDAT pdata
pdata	SEGMENT
$pdata$??1?$_Tidy_guard@V?$deque@FV?$allocator@F@std@@@std@@@std@@QEAA@XZ DD imagerel $LN4
	DD	imagerel $LN4+93
	DD	imagerel $unwind$??1?$_Tidy_guard@V?$deque@FV?$allocator@F@std@@@std@@@std@@QEAA@XZ
pdata	ENDS
;	COMDAT pdata
pdata	SEGMENT
$pdata$??$emplace_back@AEBF@?$deque@FV?$allocator@F@std@@@std@@QEAA@AEBF@Z DD imagerel $LN5
	DD	imagerel $LN5+624
	DD	imagerel $unwind$??$emplace_back@AEBF@?$deque@FV?$allocator@F@std@@@std@@QEAA@AEBF@Z
pdata	ENDS
;	COMDAT pdata
pdata	SEGMENT
$pdata$??$forward@AEBF@std@@YAAEBFAEBF@Z DD imagerel $LN3
	DD	imagerel $LN3+71
	DD	imagerel $unwind$??$forward@AEBF@std@@YAAEBFAEBF@Z
pdata	ENDS
;	COMDAT pdata
pdata	SEGMENT
$pdata$??$construct@FAEBF@?$_Default_allocator_traits@V?$allocator@F@std@@@std@@SAXAEAV?$allocator@F@1@QEAFAEBF@Z DD imagerel $LN3
	DD	imagerel $LN3+123
	DD	imagerel $unwind$??$construct@FAEBF@?$_Default_allocator_traits@V?$allocator@F@std@@@std@@SAXAEAV?$allocator@F@1@QEAFAEBF@Z
pdata	ENDS
;	COMDAT pdata
pdata	SEGMENT
$pdata$??$_Adl_verify_range@V?$_Deque_unchecked_const_iterator@V?$_Deque_val@U?$_Deque_simple_types@F@std@@@std@@@std@@V12@@std@@YAXAEBV?$_Deque_unchecked_const_iterator@V?$_Deque_val@U?$_Deque_simple_types@F@std@@@std@@@0@0@Z DD imagerel $LN3
	DD	imagerel $LN3+69
	DD	imagerel $unwind$??$_Adl_verify_range@V?$_Deque_unchecked_const_iterator@V?$_Deque_val@U?$_Deque_simple_types@F@std@@@std@@@std@@V12@@std@@YAXAEBV?$_Deque_unchecked_const_iterator@V?$_Deque_val@U?$_Deque_simple_types@F@std@@@std@@@0@0@Z
pdata	ENDS
;	COMDAT pdata
pdata	SEGMENT
$pdata$??$_Get_unwrapped@AEAV?$_Deque_unchecked_const_iterator@V?$_Deque_val@U?$_Deque_simple_types@F@std@@@std@@@std@@@std@@YA@AEAV?$_Deque_unchecked_const_iterator@V?$_Deque_val@U?$_Deque_simple_types@F@std@@@std@@@0@@Z DD imagerel $LN3
	DD	imagerel $LN3+71
	DD	imagerel $unwind$??$_Get_unwrapped@AEAV?$_Deque_unchecked_const_iterator@V?$_Deque_val@U?$_Deque_simple_types@F@std@@@std@@@std@@@std@@YA@AEAV?$_Deque_unchecked_const_iterator@V?$_Deque_val@U?$_Deque_simple_types@F@std@@@std@@@0@@Z
pdata	ENDS
;	COMDAT pdata
pdata	SEGMENT
$pdata$??$move@AEAV?$allocator@F@std@@@std@@YA$$QEAV?$allocator@F@0@AEAV10@@Z DD imagerel $LN3
	DD	imagerel $LN3+71
	DD	imagerel $unwind$??$move@AEAV?$allocator@F@std@@@std@@YA$$QEAV?$allocator@F@0@AEAV10@@Z
pdata	ENDS
;	COMDAT pdata
pdata	SEGMENT
$pdata$??$_Allocate_manually_vector_aligned@U_Default_allocate_traits@std@@@std@@YAPEAX_K@Z DD imagerel $LN13
	DD	imagerel $LN13+300
	DD	imagerel $unwind$??$_Allocate_manually_vector_aligned@U_Default_allocate_traits@std@@@std@@YAPEAX_K@Z
pdata	ENDS
;	COMDAT pdata
pdata	SEGMENT
$pdata$??$forward@AEBUMFSTState@MFST@@@std@@YAAEBUMFSTState@MFST@@AEBU12@@Z DD imagerel $LN3
	DD	imagerel $LN3+71
	DD	imagerel $unwind$??$forward@AEBUMFSTState@MFST@@@std@@YAAEBUMFSTState@MFST@@AEBU12@@Z
pdata	ENDS
;	COMDAT pdata
pdata	SEGMENT
$pdata$??$construct@UMFSTState@MFST@@AEBU12@@?$_Default_allocator_traits@V?$allocator@UMFSTState@MFST@@@std@@@std@@SAXAEAV?$allocator@UMFSTState@MFST@@@1@QEAUMFSTState@MFST@@AEBU34@@Z DD imagerel $LN3
	DD	imagerel $LN3+125
	DD	imagerel $unwind$??$construct@UMFSTState@MFST@@AEBU12@@?$_Default_allocator_traits@V?$allocator@UMFSTState@MFST@@@std@@@std@@SAXAEAV?$allocator@UMFSTState@MFST@@@1@QEAUMFSTState@MFST@@AEBU34@@Z
pdata	ENDS
;	COMDAT pdata
pdata	SEGMENT
$pdata$??$_Adl_verify_range@V?$_Deque_unchecked_const_iterator@V?$_Deque_val@U?$_Deque_simple_types@UMFSTState@MFST@@@std@@@std@@@std@@V12@@std@@YAXAEBV?$_Deque_unchecked_const_iterator@V?$_Deque_val@U?$_Deque_simple_types@UMFSTState@MFST@@@std@@@std@@@0@0@Z DD imagerel $LN3
	DD	imagerel $LN3+69
	DD	imagerel $unwind$??$_Adl_verify_range@V?$_Deque_unchecked_const_iterator@V?$_Deque_val@U?$_Deque_simple_types@UMFSTState@MFST@@@std@@@std@@@std@@V12@@std@@YAXAEBV?$_Deque_unchecked_const_iterator@V?$_Deque_val@U?$_Deque_simple_types@UMFSTState@MFST@@@std@@@std@@@0@0@Z
pdata	ENDS
;	COMDAT pdata
pdata	SEGMENT
$pdata$??$_Get_unwrapped@AEAV?$_Deque_unchecked_const_iterator@V?$_Deque_val@U?$_Deque_simple_types@UMFSTState@MFST@@@std@@@std@@@std@@@std@@YA@AEAV?$_Deque_unchecked_const_iterator@V?$_Deque_val@U?$_Deque_simple_types@UMFSTState@MFST@@@std@@@std@@@0@@Z DD imagerel $LN3
	DD	imagerel $LN3+71
	DD	imagerel $unwind$??$_Get_unwrapped@AEAV?$_Deque_unchecked_const_iterator@V?$_Deque_val@U?$_Deque_simple_types@UMFSTState@MFST@@@std@@@std@@@std@@@std@@YA@AEAV?$_Deque_unchecked_const_iterator@V?$_Deque_val@U?$_Deque_simple_types@UMFSTState@MFST@@@std@@@std@@@0@@Z
pdata	ENDS
;	COMDAT pdata
pdata	SEGMENT
$pdata$??$emplace_back@AEBUMFSTState@MFST@@@?$deque@UMFSTState@MFST@@V?$allocator@UMFSTState@MFST@@@std@@@std@@QEAA@AEBUMFSTState@MFST@@@Z DD imagerel $LN5
	DD	imagerel $LN5+571
	DD	imagerel $unwind$??$emplace_back@AEBUMFSTState@MFST@@@?$deque@UMFSTState@MFST@@V?$allocator@UMFSTState@MFST@@@std@@@std@@QEAA@AEBUMFSTState@MFST@@@Z
pdata	ENDS
;	COMDAT pdata
pdata	SEGMENT
$pdata$??$uninitialized_copy@PEAPEAUMFSTState@MFST@@PEAPEAU12@@std@@YAPEAPEAUMFSTState@MFST@@QEAPEAU12@0PEAPEAU12@@Z DD imagerel $LN3
	DD	imagerel $LN3+255
	DD	imagerel $unwind$??$uninitialized_copy@PEAPEAUMFSTState@MFST@@PEAPEAU12@@std@@YAPEAPEAUMFSTState@MFST@@QEAPEAU12@0PEAPEAU12@@Z
pdata	ENDS
;	COMDAT pdata
pdata	SEGMENT
$pdata$??$_Uninitialized_value_construct_n_unchecked1@PEAPEAUMFSTState@MFST@@_K@std@@YAPEAPEAUMFSTState@MFST@@PEAPEAU12@_K@Z DD imagerel $LN3
	DD	imagerel $LN3+102
	DD	imagerel $unwind$??$_Uninitialized_value_construct_n_unchecked1@PEAPEAUMFSTState@MFST@@_K@std@@YAPEAPEAUMFSTState@MFST@@PEAPEAU12@_K@Z
pdata	ENDS
;	COMDAT pdata
pdata	SEGMENT
$pdata$??$_Destroy_range@PEAPEAUMFSTState@MFST@@@std@@YAXPEAPEAUMFSTState@MFST@@QEAPEAU12@@Z DD imagerel $LN3
	DD	imagerel $LN3+70
	DD	imagerel $unwind$??$_Destroy_range@PEAPEAUMFSTState@MFST@@@std@@YAXPEAPEAUMFSTState@MFST@@QEAPEAU12@@Z
pdata	ENDS
;	COMDAT pdata
pdata	SEGMENT
$pdata$??$_Get_size_of_n@$0DA@@std@@YA_K_K@Z DD imagerel $LN4
	DD	imagerel $LN4+114
	DD	imagerel $unwind$??$_Get_size_of_n@$0DA@@std@@YA_K_K@Z
pdata	ENDS
;	COMDAT pdata
pdata	SEGMENT
$pdata$??$uninitialized_copy@PEAPEAFPEAPEAF@std@@YAPEAPEAFQEAPEAF0PEAPEAF@Z DD imagerel $LN3
	DD	imagerel $LN3+255
	DD	imagerel $unwind$??$uninitialized_copy@PEAPEAFPEAPEAF@std@@YAPEAPEAFQEAPEAF0PEAPEAF@Z
pdata	ENDS
;	COMDAT pdata
pdata	SEGMENT
$pdata$??$_Uninitialized_value_construct_n_unchecked1@PEAPEAF_K@std@@YAPEAPEAFPEAPEAF_K@Z DD imagerel $LN3
	DD	imagerel $LN3+102
	DD	imagerel $unwind$??$_Uninitialized_value_construct_n_unchecked1@PEAPEAF_K@std@@YAPEAPEAFPEAPEAF_K@Z
pdata	ENDS
;	COMDAT pdata
pdata	SEGMENT
$pdata$??$_Destroy_range@PEAPEAF@std@@YAXPEAPEAFQEAPEAF@Z DD imagerel $LN3
	DD	imagerel $LN3+70
	DD	imagerel $unwind$??$_Destroy_range@PEAPEAF@std@@YAXPEAPEAFQEAPEAF@Z
pdata	ENDS
;	COMDAT pdata
pdata	SEGMENT
$pdata$??$_Get_size_of_n@$07@std@@YA_K_K@Z DD imagerel $LN4
	DD	imagerel $LN4+117
	DD	imagerel $unwind$??$_Get_size_of_n@$07@std@@YA_K_K@Z
pdata	ENDS
;	COMDAT pdata
pdata	SEGMENT
$pdata$?deallocate@?$_Default_allocator_traits@V?$allocator@U_Container_proxy@std@@@std@@@std@@SAXAEAV?$allocator@U_Container_proxy@std@@@2@QEAU_Container_proxy@2@_K@Z DD imagerel $LN3
	DD	imagerel $LN3+97
	DD	imagerel $unwind$?deallocate@?$_Default_allocator_traits@V?$allocator@U_Container_proxy@std@@@std@@@std@@SAXAEAV?$allocator@U_Container_proxy@std@@@2@QEAU_Container_proxy@2@_K@Z
pdata	ENDS
;	COMDAT pdata
pdata	SEGMENT
$pdata$??$_Adl_verify_range@PEAPEAUMFSTState@MFST@@PEAPEAU12@@std@@YAXAEBQEAPEAUMFSTState@MFST@@0@Z DD imagerel $LN3
	DD	imagerel $LN3+94
	DD	imagerel $unwind$??$_Adl_verify_range@PEAPEAUMFSTState@MFST@@PEAPEAU12@@std@@YAXAEBQEAPEAUMFSTState@MFST@@0@Z
pdata	ENDS
;	COMDAT pdata
pdata	SEGMENT
$pdata$??$_Get_unwrapped@AEBQEAPEAUMFSTState@MFST@@@std@@YA@AEBQEAPEAUMFSTState@MFST@@@Z DD imagerel $LN3
	DD	imagerel $LN3+74
	DD	imagerel $unwind$??$_Get_unwrapped@AEBQEAPEAUMFSTState@MFST@@@std@@YA@AEBQEAPEAUMFSTState@MFST@@@Z
pdata	ENDS
;	COMDAT pdata
pdata	SEGMENT
$pdata$??$_Idl_distance@PEAPEAUMFSTState@MFST@@PEAPEAU12@@std@@YA@AEBQEAPEAUMFSTState@MFST@@0@Z DD imagerel $LN3
	DD	imagerel $LN3+96
	DD	imagerel $unwind$??$_Idl_distance@PEAPEAUMFSTState@MFST@@PEAPEAU12@@std@@YA@AEBQEAPEAUMFSTState@MFST@@0@Z
pdata	ENDS
;	COMDAT pdata
pdata	SEGMENT
$pdata$??$_Get_unwrapped_n@AEAPEAPEAUMFSTState@MFST@@_J@std@@YA@AEAPEAPEAUMFSTState@MFST@@_J@Z DD imagerel $LN3
	DD	imagerel $LN3+79
	DD	imagerel $unwind$??$_Get_unwrapped_n@AEAPEAPEAUMFSTState@MFST@@_J@std@@YA@AEAPEAPEAUMFSTState@MFST@@_J@Z
pdata	ENDS
;	COMDAT pdata
pdata	SEGMENT
$pdata$??$_Copy_memmove@PEAPEAUMFSTState@MFST@@PEAPEAU12@@std@@YAPEAPEAUMFSTState@MFST@@PEAPEAU12@00@Z DD imagerel $LN3
	DD	imagerel $LN3+156
	DD	imagerel $unwind$??$_Copy_memmove@PEAPEAUMFSTState@MFST@@PEAPEAU12@@std@@YAPEAPEAUMFSTState@MFST@@PEAPEAU12@00@Z
pdata	ENDS
;	COMDAT pdata
pdata	SEGMENT
$pdata$??$_Seek_wrapped@PEAPEAUMFSTState@MFST@@AEAPEAPEAU12@@std@@YAXAEAPEAPEAUMFSTState@MFST@@0@Z DD imagerel $LN3
	DD	imagerel $LN3+89
	DD	imagerel $unwind$??$_Seek_wrapped@PEAPEAUMFSTState@MFST@@AEAPEAPEAU12@@std@@YAXAEAPEAPEAUMFSTState@MFST@@0@Z
pdata	ENDS
;	COMDAT pdata
pdata	SEGMENT
$pdata$??$_Zero_range@PEAPEAUMFSTState@MFST@@@std@@YAPEAPEAUMFSTState@MFST@@QEAPEAU12@0@Z DD imagerel $LN3
	DD	imagerel $LN3+126
	DD	imagerel $unwind$??$_Zero_range@PEAPEAUMFSTState@MFST@@@std@@YAPEAPEAUMFSTState@MFST@@QEAPEAU12@0@Z
pdata	ENDS
;	COMDAT pdata
pdata	SEGMENT
$pdata$??$_Adl_verify_range@PEAPEAFPEAPEAF@std@@YAXAEBQEAPEAF0@Z DD imagerel $LN3
	DD	imagerel $LN3+94
	DD	imagerel $unwind$??$_Adl_verify_range@PEAPEAFPEAPEAF@std@@YAXAEBQEAPEAF0@Z
pdata	ENDS
;	COMDAT pdata
pdata	SEGMENT
$pdata$??$_Get_unwrapped@AEBQEAPEAF@std@@YA@AEBQEAPEAF@Z DD imagerel $LN3
	DD	imagerel $LN3+74
	DD	imagerel $unwind$??$_Get_unwrapped@AEBQEAPEAF@std@@YA@AEBQEAPEAF@Z
pdata	ENDS
;	COMDAT pdata
pdata	SEGMENT
$pdata$??$_Idl_distance@PEAPEAFPEAPEAF@std@@YA@AEBQEAPEAF0@Z DD imagerel $LN3
	DD	imagerel $LN3+96
	DD	imagerel $unwind$??$_Idl_distance@PEAPEAFPEAPEAF@std@@YA@AEBQEAPEAF0@Z
pdata	ENDS
;	COMDAT pdata
pdata	SEGMENT
$pdata$??$_Get_unwrapped_n@AEAPEAPEAF_J@std@@YA@AEAPEAPEAF_J@Z DD imagerel $LN3
	DD	imagerel $LN3+79
	DD	imagerel $unwind$??$_Get_unwrapped_n@AEAPEAPEAF_J@std@@YA@AEAPEAPEAF_J@Z
pdata	ENDS
;	COMDAT pdata
pdata	SEGMENT
$pdata$??$_Copy_memmove@PEAPEAFPEAPEAF@std@@YAPEAPEAFPEAPEAF00@Z DD imagerel $LN3
	DD	imagerel $LN3+156
	DD	imagerel $unwind$??$_Copy_memmove@PEAPEAFPEAPEAF@std@@YAPEAPEAFPEAPEAF00@Z
pdata	ENDS
;	COMDAT pdata
pdata	SEGMENT
$pdata$??$_Seek_wrapped@PEAPEAFAEAPEAPEAF@std@@YAXAEAPEAPEAF0@Z DD imagerel $LN3
	DD	imagerel $LN3+89
	DD	imagerel $unwind$??$_Seek_wrapped@PEAPEAFAEAPEAPEAF@std@@YAXAEAPEAPEAF0@Z
pdata	ENDS
;	COMDAT pdata
pdata	SEGMENT
$pdata$??$_Zero_range@PEAPEAF@std@@YAPEAPEAFQEAPEAF0@Z DD imagerel $LN3
	DD	imagerel $LN3+126
	DD	imagerel $unwind$??$_Zero_range@PEAPEAF@std@@YAPEAPEAFQEAPEAF0@Z
pdata	ENDS
;	COMDAT pdata
pdata	SEGMENT
$pdata$??$_Verify_range@PEAUMFSTState@MFST@@@std@@YAXQEBQEAUMFSTState@MFST@@0@Z DD imagerel $LN12
	DD	imagerel $LN12+204
	DD	imagerel $unwind$??$_Verify_range@PEAUMFSTState@MFST@@@std@@YAXQEBQEAUMFSTState@MFST@@0@Z
pdata	ENDS
;	COMDAT pdata
pdata	SEGMENT
$pdata$??$_Verify_range@PEAF@std@@YAXQEBQEAF0@Z DD imagerel $LN12
	DD	imagerel $LN12+204
	DD	imagerel $unwind$??$_Verify_range@PEAF@std@@YAXQEBQEAF0@Z
pdata	ENDS
;	COMDAT rtc$TMZ
rtc$TMZ	SEGMENT
_RTC_Shutdown.rtc$TMZ DQ FLAT:_RTC_Shutdown
rtc$TMZ	ENDS
;	COMDAT rtc$IMZ
rtc$IMZ	SEGMENT
_RTC_InitBase.rtc$IMZ DQ FLAT:_RTC_InitBase
rtc$IMZ	ENDS
;	COMDAT ??_R1A@?0A@EA@bad_array_new_length@std@@8
rdata$r	SEGMENT
??_R1A@?0A@EA@bad_array_new_length@std@@8 DD imagerel ??_R0?AVbad_array_new_length@std@@@8 ; std::bad_array_new_length::`RTTI Base Class Descriptor at (0,-1,0,64)'
	DD	02H
	DD	00H
	DD	0ffffffffH
	DD	00H
	DD	040H
	DD	imagerel ??_R3bad_array_new_length@std@@8
rdata$r	ENDS
;	COMDAT ??_R2bad_array_new_length@std@@8
rdata$r	SEGMENT
??_R2bad_array_new_length@std@@8 DD imagerel ??_R1A@?0A@EA@bad_array_new_length@std@@8 ; std::bad_array_new_length::`RTTI Base Class Array'
	DD	imagerel ??_R1A@?0A@EA@bad_alloc@std@@8
	DD	imagerel ??_R1A@?0A@EA@exception@std@@8
	ORG $+3
rdata$r	ENDS
;	COMDAT ??_R3bad_array_new_length@std@@8
rdata$r	SEGMENT
??_R3bad_array_new_length@std@@8 DD 00H			; std::bad_array_new_length::`RTTI Class Hierarchy Descriptor'
	DD	00H
	DD	03H
	DD	imagerel ??_R2bad_array_new_length@std@@8
rdata$r	ENDS
;	COMDAT ??_R4bad_array_new_length@std@@6B@
rdata$r	SEGMENT
??_R4bad_array_new_length@std@@6B@ DD 01H		; std::bad_array_new_length::`RTTI Complete Object Locator'
	DD	00H
	DD	00H
	DD	imagerel ??_R0?AVbad_array_new_length@std@@@8
	DD	imagerel ??_R3bad_array_new_length@std@@8
	DD	imagerel ??_R4bad_array_new_length@std@@6B@
rdata$r	ENDS
;	COMDAT ??_R1A@?0A@EA@bad_alloc@std@@8
rdata$r	SEGMENT
??_R1A@?0A@EA@bad_alloc@std@@8 DD imagerel ??_R0?AVbad_alloc@std@@@8 ; std::bad_alloc::`RTTI Base Class Descriptor at (0,-1,0,64)'
	DD	01H
	DD	00H
	DD	0ffffffffH
	DD	00H
	DD	040H
	DD	imagerel ??_R3bad_alloc@std@@8
rdata$r	ENDS
;	COMDAT ??_R2bad_alloc@std@@8
rdata$r	SEGMENT
??_R2bad_alloc@std@@8 DD imagerel ??_R1A@?0A@EA@bad_alloc@std@@8 ; std::bad_alloc::`RTTI Base Class Array'
	DD	imagerel ??_R1A@?0A@EA@exception@std@@8
	ORG $+3
rdata$r	ENDS
;	COMDAT ??_R3bad_alloc@std@@8
rdata$r	SEGMENT
??_R3bad_alloc@std@@8 DD 00H				; std::bad_alloc::`RTTI Class Hierarchy Descriptor'
	DD	00H
	DD	02H
	DD	imagerel ??_R2bad_alloc@std@@8
rdata$r	ENDS
;	COMDAT ??_R4bad_alloc@std@@6B@
rdata$r	SEGMENT
??_R4bad_alloc@std@@6B@ DD 01H				; std::bad_alloc::`RTTI Complete Object Locator'
	DD	00H
	DD	00H
	DD	imagerel ??_R0?AVbad_alloc@std@@@8
	DD	imagerel ??_R3bad_alloc@std@@8
	DD	imagerel ??_R4bad_alloc@std@@6B@
rdata$r	ENDS
;	COMDAT ??_R1A@?0A@EA@exception@std@@8
rdata$r	SEGMENT
??_R1A@?0A@EA@exception@std@@8 DD imagerel ??_R0?AVexception@std@@@8 ; std::exception::`RTTI Base Class Descriptor at (0,-1,0,64)'
	DD	00H
	DD	00H
	DD	0ffffffffH
	DD	00H
	DD	040H
	DD	imagerel ??_R3exception@std@@8
rdata$r	ENDS
;	COMDAT ??_R2exception@std@@8
rdata$r	SEGMENT
??_R2exception@std@@8 DD imagerel ??_R1A@?0A@EA@exception@std@@8 ; std::exception::`RTTI Base Class Array'
	ORG $+3
rdata$r	ENDS
;	COMDAT ??_R3exception@std@@8
rdata$r	SEGMENT
??_R3exception@std@@8 DD 00H				; std::exception::`RTTI Class Hierarchy Descriptor'
	DD	00H
	DD	01H
	DD	imagerel ??_R2exception@std@@8
rdata$r	ENDS
;	COMDAT ??_R4exception@std@@6B@
rdata$r	SEGMENT
??_R4exception@std@@6B@ DD 01H				; std::exception::`RTTI Complete Object Locator'
	DD	00H
	DD	00H
	DD	imagerel ??_R0?AVexception@std@@@8
	DD	imagerel ??_R3exception@std@@8
	DD	imagerel ??_R4exception@std@@6B@
rdata$r	ENDS
;	COMDAT ??_C@_1EO@GFNCMDLA@?$AAs?$AAt?$AAd?$AA?3?$AA?3?$AA_?$AAA?$AAl?$AAl?$AAo?$AAc?$AAa?$AAt?$AAe?$AA_@
CONST	SEGMENT
??_C@_1EO@GFNCMDLA@?$AAs?$AAt?$AAd?$AA?3?$AA?3?$AA_?$AAA?$AAl?$AAl?$AAo?$AAc?$AAa?$AAt?$AAe?$AA_@ DB 's'
	DB	00H, 't', 00H, 'd', 00H, ':', 00H, ':', 00H, '_', 00H, 'A', 00H
	DB	'l', 00H, 'l', 00H, 'o', 00H, 'c', 00H, 'a', 00H, 't', 00H, 'e'
	DB	00H, '_', 00H, 'm', 00H, 'a', 00H, 'n', 00H, 'u', 00H, 'a', 00H
	DB	'l', 00H, 'l', 00H, 'y', 00H, '_', 00H, 'v', 00H, 'e', 00H, 'c'
	DB	00H, 't', 00H, 'o', 00H, 'r', 00H, '_', 00H, 'a', 00H, 'l', 00H
	DB	'i', 00H, 'g', 00H, 'n', 00H, 'e', 00H, 'd', 00H, 00H, 00H ; `string'
CONST	ENDS
;	COMDAT ??_C@_1DG@FJIKMGFD@?$AA?$CC?$AAt?$AAr?$AAa?$AAn?$AAs?$AAp?$AAo?$AAs?$AAe?$AAd?$AA?5?$AAp?$AAo?$AAi@
CONST	SEGMENT
??_C@_1DG@FJIKMGFD@?$AA?$CC?$AAt?$AAr?$AAa?$AAn?$AAs?$AAp?$AAo?$AAs?$AAe?$AAd?$AA?5?$AAp?$AAo?$AAi@ DB '"'
	DB	00H, 't', 00H, 'r', 00H, 'a', 00H, 'n', 00H, 's', 00H, 'p', 00H
	DB	'o', 00H, 's', 00H, 'e', 00H, 'd', 00H, ' ', 00H, 'p', 00H, 'o'
	DB	00H, 'i', 00H, 'n', 00H, 't', 00H, 'e', 00H, 'r', 00H, ' ', 00H
	DB	'r', 00H, 'a', 00H, 'n', 00H, 'g', 00H, 'e', 00H, '"', 00H, 00H
	DB	00H						; `string'
CONST	ENDS
;	COMDAT ??_C@_1CG@LJCPDKEJ@?$AAs?$AAt?$AAd?$AA?3?$AA?3?$AA_?$AAV?$AAe?$AAr?$AAi?$AAf?$AAy?$AA_?$AAr?$AAa@
CONST	SEGMENT
??_C@_1CG@LJCPDKEJ@?$AAs?$AAt?$AAd?$AA?3?$AA?3?$AA_?$AAV?$AAe?$AAr?$AAi?$AAf?$AAy?$AA_?$AAr?$AAa@ DB 's'
	DB	00H, 't', 00H, 'd', 00H, ':', 00H, ':', 00H, '_', 00H, 'V', 00H
	DB	'e', 00H, 'r', 00H, 'i', 00H, 'f', 00H, 'y', 00H, '_', 00H, 'r'
	DB	00H, 'a', 00H, 'n', 00H, 'g', 00H, 'e', 00H, 00H, 00H ; `string'
CONST	ENDS
;	COMDAT ??_C@_1NE@NLDHILHB@?$AAC?$AA?3?$AA?2?$AAP?$AAr?$AAo?$AAg?$AAr?$AAa?$AAm?$AA?5?$AAF?$AAi?$AAl?$AAe@
CONST	SEGMENT
??_C@_1NE@NLDHILHB@?$AAC?$AA?3?$AA?2?$AAP?$AAr?$AAo?$AAg?$AAr?$AAa?$AAm?$AA?5?$AAF?$AAi?$AAl?$AAe@ DB 'C'
	DB	00H, ':', 00H, '\', 00H, 'P', 00H, 'r', 00H, 'o', 00H, 'g', 00H
	DB	'r', 00H, 'a', 00H, 'm', 00H, ' ', 00H, 'F', 00H, 'i', 00H, 'l'
	DB	00H, 'e', 00H, 's', 00H, ' ', 00H, '(', 00H, 'x', 00H, '8', 00H
	DB	'6', 00H, ')', 00H, '\', 00H, 'M', 00H, 'i', 00H, 'c', 00H, 'r'
	DB	00H, 'o', 00H, 's', 00H, 'o', 00H, 'f', 00H, 't', 00H, ' ', 00H
	DB	'V', 00H, 'i', 00H, 's', 00H, 'u', 00H, 'a', 00H, 'l', 00H, ' '
	DB	00H, 'S', 00H, 't', 00H, 'u', 00H, 'd', 00H, 'i', 00H, 'o', 00H
	DB	'\', 00H, '2', 00H, '0', 00H, '1', 00H, '9', 00H, '\', 00H, 'E'
	DB	00H, 'n', 00H, 't', 00H, 'e', 00H, 'r', 00H, 'p', 00H, 'r', 00H
	DB	'i', 00H, 's', 00H, 'e', 00H, '\', 00H, 'V', 00H, 'C', 00H, '\'
	DB	00H, 'T', 00H, 'o', 00H, 'o', 00H, 'l', 00H, 's', 00H, '\', 00H
	DB	'M', 00H, 'S', 00H, 'V', 00H, 'C', 00H, '\', 00H, '1', 00H, '4'
	DB	00H, '.', 00H, '2', 00H, '7', 00H, '.', 00H, '2', 00H, '9', 00H
	DB	'1', 00H, '1', 00H, '0', 00H, '\', 00H, 'i', 00H, 'n', 00H, 'c'
	DB	00H, 'l', 00H, 'u', 00H, 'd', 00H, 'e', 00H, '\', 00H, 'x', 00H
	DB	'u', 00H, 't', 00H, 'i', 00H, 'l', 00H, 'i', 00H, 't', 00H, 'y'
	DB	00H, 00H, 00H				; `string'
CONST	ENDS
;	COMDAT ??_C@_0GK@OHAIDBEA@C?3?2Program?5Files?5?$CIx86?$CJ?2Microsof@
CONST	SEGMENT
??_C@_0GK@OHAIDBEA@C?3?2Program?5Files?5?$CIx86?$CJ?2Microsof@ DB 'C:\Pro'
	DB	'gram Files (x86)\Microsoft Visual Studio\2019\Enterprise\VC\T'
	DB	'ools\MSVC\14.27.29110\include\xutility', 00H ; `string'
CONST	ENDS
;	COMDAT ??_C@_0BJ@HAJGEHKO@transposed?5pointer?5range@
CONST	SEGMENT
??_C@_0BJ@HAJGEHKO@transposed?5pointer?5range@ DB 'transposed pointer ran'
	DB	'ge', 00H					; `string'
CONST	ENDS
;	COMDAT ??_C@_0BC@KBDMBKEH@deque?$DMT?$DO?5too?5long@
CONST	SEGMENT
??_C@_0BC@KBDMBKEH@deque?$DMT?$DO?5too?5long@ DB 'deque<T> too long', 00H ; `string'
CONST	ENDS
;	COMDAT ??_C@_1BK@MHIKGOKE@?$AA?3?$AAA?$AAM?$AA?3?$AAa?$AAm?$AA?3?$AAP?$AAM?$AA?3?$AAp?$AAm@
CONST	SEGMENT
??_C@_1BK@MHIKGOKE@?$AA?3?$AAA?$AAM?$AA?3?$AAa?$AAm?$AA?3?$AAP?$AAM?$AA?3?$AAp?$AAm@ DB ':'
	DB	00H, 'A', 00H, 'M', 00H, ':', 00H, 'a', 00H, 'm', 00H, ':', 00H
	DB	'P', 00H, 'M', 00H, ':', 00H, 'p', 00H, 'm', 00H, 00H, 00H ; `string'
CONST	ENDS
;	COMDAT ??_C@_1GK@PHBEBIFI@?$AAs?$AAt?$AAd?$AA?3?$AA?3?$AAd?$AAe?$AAq?$AAu?$AAe?$AA?$DM?$AAs?$AAh?$AAo?$AAr@
CONST	SEGMENT
??_C@_1GK@PHBEBIFI@?$AAs?$AAt?$AAd?$AA?3?$AA?3?$AAd?$AAe?$AAq?$AAu?$AAe?$AA?$DM?$AAs?$AAh?$AAo?$AAr@ DB 's'
	DB	00H, 't', 00H, 'd', 00H, ':', 00H, ':', 00H, 'd', 00H, 'e', 00H
	DB	'q', 00H, 'u', 00H, 'e', 00H, '<', 00H, 's', 00H, 'h', 00H, 'o'
	DB	00H, 'r', 00H, 't', 00H, ',', 00H, 'c', 00H, 'l', 00H, 'a', 00H
	DB	's', 00H, 's', 00H, ' ', 00H, 's', 00H, 't', 00H, 'd', 00H, ':'
	DB	00H, ':', 00H, 'a', 00H, 'l', 00H, 'l', 00H, 'o', 00H, 'c', 00H
	DB	'a', 00H, 't', 00H, 'o', 00H, 'r', 00H, '<', 00H, 's', 00H, 'h'
	DB	00H, 'o', 00H, 'r', 00H, 't', 00H, '>', 00H, ' ', 00H, '>', 00H
	DB	':', 00H, ':', 00H, 'b', 00H, 'a', 00H, 'c', 00H, 'k', 00H, 00H
	DB	00H						; `string'
CONST	ENDS
;	COMDAT ??_C@_1HC@BNLMFKHI@?$AAs?$AAt?$AAd?$AA?3?$AA?3?$AAd?$AAe?$AAq?$AAu?$AAe?$AA?$DM?$AAs?$AAh?$AAo?$AAr@
CONST	SEGMENT
??_C@_1HC@BNLMFKHI@?$AAs?$AAt?$AAd?$AA?3?$AA?3?$AAd?$AAe?$AAq?$AAu?$AAe?$AA?$DM?$AAs?$AAh?$AAo?$AAr@ DB 's'
	DB	00H, 't', 00H, 'd', 00H, ':', 00H, ':', 00H, 'd', 00H, 'e', 00H
	DB	'q', 00H, 'u', 00H, 'e', 00H, '<', 00H, 's', 00H, 'h', 00H, 'o'
	DB	00H, 'r', 00H, 't', 00H, ',', 00H, 'c', 00H, 'l', 00H, 'a', 00H
	DB	's', 00H, 's', 00H, ' ', 00H, 's', 00H, 't', 00H, 'd', 00H, ':'
	DB	00H, ':', 00H, 'a', 00H, 'l', 00H, 'l', 00H, 'o', 00H, 'c', 00H
	DB	'a', 00H, 't', 00H, 'o', 00H, 'r', 00H, '<', 00H, 's', 00H, 'h'
	DB	00H, 'o', 00H, 'r', 00H, 't', 00H, '>', 00H, ' ', 00H, '>', 00H
	DB	':', 00H, ':', 00H, 'p', 00H, 'o', 00H, 'p', 00H, '_', 00H, 'b'
	DB	00H, 'a', 00H, 'c', 00H, 'k', 00H, 00H, 00H	; `string'
CONST	ENDS
;	COMDAT ??_C@_1DO@OOAHKDGC@?$AA?$CC?$AAb?$AAa?$AAc?$AAk?$AA?$CI?$AA?$CJ?$AA?5?$AAc?$AAa?$AAl?$AAl?$AAe?$AAd?$AA?5@
CONST	SEGMENT
??_C@_1DO@OOAHKDGC@?$AA?$CC?$AAb?$AAa?$AAc?$AAk?$AA?$CI?$AA?$CJ?$AA?5?$AAc?$AAa?$AAl?$AAl?$AAe?$AAd?$AA?5@ DB '"'
	DB	00H, 'b', 00H, 'a', 00H, 'c', 00H, 'k', 00H, '(', 00H, ')', 00H
	DB	' ', 00H, 'c', 00H, 'a', 00H, 'l', 00H, 'l', 00H, 'e', 00H, 'd'
	DB	00H, ' ', 00H, 'o', 00H, 'n', 00H, ' ', 00H, 'e', 00H, 'm', 00H
	DB	'p', 00H, 't', 00H, 'y', 00H, ' ', 00H, 'd', 00H, 'e', 00H, 'q'
	DB	00H, 'u', 00H, 'e', 00H, '"', 00H, 00H, 00H	; `string'
CONST	ENDS
;	COMDAT ??_C@_1KO@OPLLPFIJ@?$AAs?$AAt?$AAd?$AA?3?$AA?3?$AAd?$AAe?$AAq?$AAu?$AAe?$AA?$DM?$AAs?$AAt?$AAr?$AAu@
CONST	SEGMENT
??_C@_1KO@OPLLPFIJ@?$AAs?$AAt?$AAd?$AA?3?$AA?3?$AAd?$AAe?$AAq?$AAu?$AAe?$AA?$DM?$AAs?$AAt?$AAr?$AAu@ DB 's'
	DB	00H, 't', 00H, 'd', 00H, ':', 00H, ':', 00H, 'd', 00H, 'e', 00H
	DB	'q', 00H, 'u', 00H, 'e', 00H, '<', 00H, 's', 00H, 't', 00H, 'r'
	DB	00H, 'u', 00H, 'c', 00H, 't', 00H, ' ', 00H, 'M', 00H, 'F', 00H
	DB	'S', 00H, 'T', 00H, ':', 00H, ':', 00H, 'M', 00H, 'F', 00H, 'S'
	DB	00H, 'T', 00H, 'S', 00H, 't', 00H, 'a', 00H, 't', 00H, 'e', 00H
	DB	',', 00H, 'c', 00H, 'l', 00H, 'a', 00H, 's', 00H, 's', 00H, ' '
	DB	00H, 's', 00H, 't', 00H, 'd', 00H, ':', 00H, ':', 00H, 'a', 00H
	DB	'l', 00H, 'l', 00H, 'o', 00H, 'c', 00H, 'a', 00H, 't', 00H, 'o'
	DB	00H, 'r', 00H, '<', 00H, 's', 00H, 't', 00H, 'r', 00H, 'u', 00H
	DB	'c', 00H, 't', 00H, ' ', 00H, 'M', 00H, 'F', 00H, 'S', 00H, 'T'
	DB	00H, ':', 00H, ':', 00H, 'M', 00H, 'F', 00H, 'S', 00H, 'T', 00H
	DB	'S', 00H, 't', 00H, 'a', 00H, 't', 00H, 'e', 00H, '>', 00H, ' '
	DB	00H, '>', 00H, ':', 00H, ':', 00H, 'b', 00H, 'a', 00H, 'c', 00H
	DB	'k', 00H, 00H, 00H				; `string'
CONST	ENDS
;	COMDAT ??_C@_0BN@OLMACEKN@back?$CI?$CJ?5called?5on?5empty?5deque@
CONST	SEGMENT
??_C@_0BN@OLMACEKN@back?$CI?$CJ?5called?5on?5empty?5deque@ DB 'back() cal'
	DB	'led on empty deque', 00H			; `string'
CONST	ENDS
;	COMDAT ??_C@_1DC@NJAACHCD@?$AA?$CC?$AAd?$AAe?$AAq?$AAu?$AAe?$AA?5?$AAe?$AAm?$AAp?$AAt?$AAy?$AA?5?$AAb?$AAe@
CONST	SEGMENT
??_C@_1DC@NJAACHCD@?$AA?$CC?$AAd?$AAe?$AAq?$AAu?$AAe?$AA?5?$AAe?$AAm?$AAp?$AAt?$AAy?$AA?5?$AAb?$AAe@ DB '"'
	DB	00H, 'd', 00H, 'e', 00H, 'q', 00H, 'u', 00H, 'e', 00H, ' ', 00H
	DB	'e', 00H, 'm', 00H, 'p', 00H, 't', 00H, 'y', 00H, ' ', 00H, 'b'
	DB	00H, 'e', 00H, 'f', 00H, 'o', 00H, 'r', 00H, 'e', 00H, ' ', 00H
	DB	'p', 00H, 'o', 00H, 'p', 00H, '"', 00H, 00H, 00H ; `string'
CONST	ENDS
;	COMDAT ??_C@_1LG@NKGJEFF@?$AAs?$AAt?$AAd?$AA?3?$AA?3?$AAd?$AAe?$AAq?$AAu?$AAe?$AA?$DM?$AAs?$AAt?$AAr?$AAu@
CONST	SEGMENT
??_C@_1LG@NKGJEFF@?$AAs?$AAt?$AAd?$AA?3?$AA?3?$AAd?$AAe?$AAq?$AAu?$AAe?$AA?$DM?$AAs?$AAt?$AAr?$AAu@ DB 's'
	DB	00H, 't', 00H, 'd', 00H, ':', 00H, ':', 00H, 'd', 00H, 'e', 00H
	DB	'q', 00H, 'u', 00H, 'e', 00H, '<', 00H, 's', 00H, 't', 00H, 'r'
	DB	00H, 'u', 00H, 'c', 00H, 't', 00H, ' ', 00H, 'M', 00H, 'F', 00H
	DB	'S', 00H, 'T', 00H, ':', 00H, ':', 00H, 'M', 00H, 'F', 00H, 'S'
	DB	00H, 'T', 00H, 'S', 00H, 't', 00H, 'a', 00H, 't', 00H, 'e', 00H
	DB	',', 00H, 'c', 00H, 'l', 00H, 'a', 00H, 's', 00H, 's', 00H, ' '
	DB	00H, 's', 00H, 't', 00H, 'd', 00H, ':', 00H, ':', 00H, 'a', 00H
	DB	'l', 00H, 'l', 00H, 'o', 00H, 'c', 00H, 'a', 00H, 't', 00H, 'o'
	DB	00H, 'r', 00H, '<', 00H, 's', 00H, 't', 00H, 'r', 00H, 'u', 00H
	DB	'c', 00H, 't', 00H, ' ', 00H, 'M', 00H, 'F', 00H, 'S', 00H, 'T'
	DB	00H, ':', 00H, ':', 00H, 'M', 00H, 'F', 00H, 'S', 00H, 'T', 00H
	DB	'S', 00H, 't', 00H, 'a', 00H, 't', 00H, 'e', 00H, '>', 00H, ' '
	DB	00H, '>', 00H, ':', 00H, ':', 00H, 'p', 00H, 'o', 00H, 'p', 00H
	DB	'_', 00H, 'b', 00H, 'a', 00H, 'c', 00H, 'k', 00H, 00H, 00H ; `string'
CONST	ENDS
;	COMDAT ??_C@_1MO@ONLEFNNG@?$AAC?$AA?3?$AA?2?$AAP?$AAr?$AAo?$AAg?$AAr?$AAa?$AAm?$AA?5?$AAF?$AAi?$AAl?$AAe@
CONST	SEGMENT
??_C@_1MO@ONLEFNNG@?$AAC?$AA?3?$AA?2?$AAP?$AAr?$AAo?$AAg?$AAr?$AAa?$AAm?$AA?5?$AAF?$AAi?$AAl?$AAe@ DB 'C'
	DB	00H, ':', 00H, '\', 00H, 'P', 00H, 'r', 00H, 'o', 00H, 'g', 00H
	DB	'r', 00H, 'a', 00H, 'm', 00H, ' ', 00H, 'F', 00H, 'i', 00H, 'l'
	DB	00H, 'e', 00H, 's', 00H, ' ', 00H, '(', 00H, 'x', 00H, '8', 00H
	DB	'6', 00H, ')', 00H, '\', 00H, 'M', 00H, 'i', 00H, 'c', 00H, 'r'
	DB	00H, 'o', 00H, 's', 00H, 'o', 00H, 'f', 00H, 't', 00H, ' ', 00H
	DB	'V', 00H, 'i', 00H, 's', 00H, 'u', 00H, 'a', 00H, 'l', 00H, ' '
	DB	00H, 'S', 00H, 't', 00H, 'u', 00H, 'd', 00H, 'i', 00H, 'o', 00H
	DB	'\', 00H, '2', 00H, '0', 00H, '1', 00H, '9', 00H, '\', 00H, 'E'
	DB	00H, 'n', 00H, 't', 00H, 'e', 00H, 'r', 00H, 'p', 00H, 'r', 00H
	DB	'i', 00H, 's', 00H, 'e', 00H, '\', 00H, 'V', 00H, 'C', 00H, '\'
	DB	00H, 'T', 00H, 'o', 00H, 'o', 00H, 'l', 00H, 's', 00H, '\', 00H
	DB	'M', 00H, 'S', 00H, 'V', 00H, 'C', 00H, '\', 00H, '1', 00H, '4'
	DB	00H, '.', 00H, '2', 00H, '7', 00H, '.', 00H, '2', 00H, '9', 00H
	DB	'1', 00H, '1', 00H, '0', 00H, '\', 00H, 'i', 00H, 'n', 00H, 'c'
	DB	00H, 'l', 00H, 'u', 00H, 'd', 00H, 'e', 00H, '\', 00H, 'd', 00H
	DB	'e', 00H, 'q', 00H, 'u', 00H, 'e', 00H, 00H, 00H ; `string'
CONST	ENDS
;	COMDAT ??_C@_0GH@OBALDB@C?3?2Program?5Files?5?$CIx86?$CJ?2Microsof@
CONST	SEGMENT
??_C@_0GH@OBALDB@C?3?2Program?5Files?5?$CIx86?$CJ?2Microsof@ DB 'C:\Progr'
	DB	'am Files (x86)\Microsoft Visual Studio\2019\Enterprise\VC\Too'
	DB	'ls\MSVC\14.27.29110\include\deque', 00H	; `string'
CONST	ENDS
;	COMDAT ??_C@_0BH@EDKEEENI@deque?5empty?5before?5pop@
CONST	SEGMENT
??_C@_0BH@EDKEEENI@deque?5empty?5before?5pop@ DB 'deque empty before pop', 00H ; `string'
CONST	ENDS
;	COMDAT ??_C@_0N@LPFKKEBD@?3AM?3am?3PM?3pm@
CONST	SEGMENT
??_C@_0N@LPFKKEBD@?3AM?3am?3PM?3pm@ DB ':AM:am:PM:pm', 00H ; `string'
CONST	ENDS
;	COMDAT ??_C@_0BC@LNAJGJIK@?$CFd?3?5?q?r?p?n?j?$OA?5?$CFd?0?7?$CFs@
CONST	SEGMENT
??_C@_0BC@LNAJGJIK@?$CFd?3?5?q?r?p?n?j?$OA?5?$CFd?0?7?$CFs@ DB '%d: ', 0f1H
	DB	0f2H, 0f0H, 0eeH, 0eaH, 0e0H, ' %d,', 09H, '%s', 00H ; `string'
CONST	ENDS
;	COMDAT ??_C@_0BD@JCOAHIOB@?9?9?9?9?9?9?$DONS_SURPRISE@
CONST	SEGMENT
??_C@_0BD@JCOAHIOB@?9?9?9?9?9?9?$DONS_SURPRISE@ DB '------>NS_SURPRISE', 00H ; `string'
CONST	ENDS
;	COMDAT ??_C@_0BA@NNPHMIMB@?9?9?9?9?9?9?$DONS_ERROR@
CONST	SEGMENT
??_C@_0BA@NNPHMIMB@?9?9?9?9?9?9?$DONS_ERROR@ DB '------>NS_ERROR', 00H ; `string'
CONST	ENDS
;	COMDAT ??_C@_0BG@BMHLPKEK@?9?9?9?9?9?9?$DONS_NORULECHAIN@
CONST	SEGMENT
??_C@_0BG@BMHLPKEK@?9?9?9?9?9?9?$DONS_NORULECHAIN@ DB '------>NS_NORULECH'
	DB	'AIN', 00H					; `string'
CONST	ENDS
;	COMDAT ??_C@_0GE@LLHMEFDF@?9?9?9?9?9?9?9?9?9?9?9?9?9?9?9?9?9?9?9?9?9?9?9?9?9?9?9?9?9?9?9@
CONST	SEGMENT
??_C@_0GE@LLHMEFDF@?9?9?9?9?9?9?9?9?9?9?9?9?9?9?9?9?9?9?9?9?9?9?9?9?9?9?9?9?9?9?9@ DB '-'
	DB	'-------------------------------------------------------------'
	DB	'----------------------------   ------', 00H	; `string'
CONST	ENDS
;	COMDAT ??_C@_0BB@PFODMCJA@?9?9?9?9?9?9?$DONS_NORULE@
CONST	SEGMENT
??_C@_0BB@PFODMCJA@?9?9?9?9?9?9?$DONS_NORULE@ DB '------>NS_NORULE', 00H ; `string'
CONST	ENDS
;	COMDAT ??_C@_0GJ@GMBHIGPF@C?3?2Program?5Files?5?$CIx86?$CJ?2Microsof@
CONST	SEGMENT
??_C@_0GJ@GMBHIGPF@C?3?2Program?5Files?5?$CIx86?$CJ?2Microsof@ DB 'C:\Pro'
	DB	'gram Files (x86)\Microsoft Visual Studio\2019\Enterprise\VC\T'
	DB	'ools\MSVC\14.27.29110\include\xlocnum', 00H	; `string'
CONST	ENDS
;	COMDAT ?__LINE__Var@?0??_Maklocwcs@std@@YAPEA_WPEB_W@Z@4JA
_DATA	SEGMENT
?__LINE__Var@?0??_Maklocwcs@std@@YAPEA_WPEB_W@Z@4JA DD 05aH ; `std::_Maklocwcs'::`1'::__LINE__Var
_DATA	ENDS
;	COMDAT ??_C@_0GJ@OPFKIEFE@C?3?2Program?5Files?5?$CIx86?$CJ?2Microsof@
CONST	SEGMENT
??_C@_0GJ@OPFKIEFE@C?3?2Program?5Files?5?$CIx86?$CJ?2Microsof@ DB 'C:\Pro'
	DB	'gram Files (x86)\Microsoft Visual Studio\2019\Enterprise\VC\T'
	DB	'ools\MSVC\14.27.29110\include\xlocale', 00H	; `string'
CONST	ENDS
;	COMDAT ??_C@_02LMMGGCAJ@?3?5@
CONST	SEGMENT
??_C@_02LMMGGCAJ@?3?5@ DB ': ', 00H			; `string'
CONST	ENDS
_DATA	SEGMENT
?FST_TRACE_n@@3HA DD 0ffffffffH				; FST_TRACE_n
_DATA	ENDS
;	COMDAT ??_C@_1CG@JNLFBNGN@?$AA?$CC?$AAi?$AAn?$AAv?$AAa?$AAl?$AAi?$AAd?$AA?5?$AAa?$AAr?$AAg?$AAu?$AAm?$AAe@
CONST	SEGMENT
??_C@_1CG@JNLFBNGN@?$AA?$CC?$AAi?$AAn?$AAv?$AAa?$AAl?$AAi?$AAd?$AA?5?$AAa?$AAr?$AAg?$AAu?$AAm?$AAe@ DB '"'
	DB	00H, 'i', 00H, 'n', 00H, 'v', 00H, 'a', 00H, 'l', 00H, 'i', 00H
	DB	'd', 00H, ' ', 00H, 'a', 00H, 'r', 00H, 'g', 00H, 'u', 00H, 'm'
	DB	00H, 'e', 00H, 'n', 00H, 't', 00H, '"', 00H, 00H, 00H ; `string'
CONST	ENDS
;	COMDAT ??_C@_1EK@NIFDJFDG@?$AAs?$AAt?$AAd?$AA?3?$AA?3?$AA_?$AAA?$AAd?$AAj?$AAu?$AAs?$AAt?$AA_?$AAm?$AAa@
CONST	SEGMENT
??_C@_1EK@NIFDJFDG@?$AAs?$AAt?$AAd?$AA?3?$AA?3?$AA_?$AAA?$AAd?$AAj?$AAu?$AAs?$AAt?$AA_?$AAm?$AAa@ DB 's'
	DB	00H, 't', 00H, 'd', 00H, ':', 00H, ':', 00H, '_', 00H, 'A', 00H
	DB	'd', 00H, 'j', 00H, 'u', 00H, 's', 00H, 't', 00H, '_', 00H, 'm'
	DB	00H, 'a', 00H, 'n', 00H, 'u', 00H, 'a', 00H, 'l', 00H, 'l', 00H
	DB	'y', 00H, '_', 00H, 'v', 00H, 'e', 00H, 'c', 00H, 't', 00H, 'o'
	DB	00H, 'r', 00H, '_', 00H, 'a', 00H, 'l', 00H, 'i', 00H, 'g', 00H
	DB	'n', 00H, 'e', 00H, 'd', 00H, 00H, 00H	; `string'
CONST	ENDS
;	COMDAT ??_C@_1NC@LBGPBFDE@?$AAC?$AA?3?$AA?2?$AAP?$AAr?$AAo?$AAg?$AAr?$AAa?$AAm?$AA?5?$AAF?$AAi?$AAl?$AAe@
CONST	SEGMENT
??_C@_1NC@LBGPBFDE@?$AAC?$AA?3?$AA?2?$AAP?$AAr?$AAo?$AAg?$AAr?$AAa?$AAm?$AA?5?$AAF?$AAi?$AAl?$AAe@ DB 'C'
	DB	00H, ':', 00H, '\', 00H, 'P', 00H, 'r', 00H, 'o', 00H, 'g', 00H
	DB	'r', 00H, 'a', 00H, 'm', 00H, ' ', 00H, 'F', 00H, 'i', 00H, 'l'
	DB	00H, 'e', 00H, 's', 00H, ' ', 00H, '(', 00H, 'x', 00H, '8', 00H
	DB	'6', 00H, ')', 00H, '\', 00H, 'M', 00H, 'i', 00H, 'c', 00H, 'r'
	DB	00H, 'o', 00H, 's', 00H, 'o', 00H, 'f', 00H, 't', 00H, ' ', 00H
	DB	'V', 00H, 'i', 00H, 's', 00H, 'u', 00H, 'a', 00H, 'l', 00H, ' '
	DB	00H, 'S', 00H, 't', 00H, 'u', 00H, 'd', 00H, 'i', 00H, 'o', 00H
	DB	'\', 00H, '2', 00H, '0', 00H, '1', 00H, '9', 00H, '\', 00H, 'E'
	DB	00H, 'n', 00H, 't', 00H, 'e', 00H, 'r', 00H, 'p', 00H, 'r', 00H
	DB	'i', 00H, 's', 00H, 'e', 00H, '\', 00H, 'V', 00H, 'C', 00H, '\'
	DB	00H, 'T', 00H, 'o', 00H, 'o', 00H, 'l', 00H, 's', 00H, '\', 00H
	DB	'M', 00H, 'S', 00H, 'V', 00H, 'C', 00H, '\', 00H, '1', 00H, '4'
	DB	00H, '.', 00H, '2', 00H, '7', 00H, '.', 00H, '2', 00H, '9', 00H
	DB	'1', 00H, '1', 00H, '0', 00H, '\', 00H, 'i', 00H, 'n', 00H, 'c'
	DB	00H, 'l', 00H, 'u', 00H, 'd', 00H, 'e', 00H, '\', 00H, 'x', 00H
	DB	'm', 00H, 'e', 00H, 'm', 00H, 'o', 00H, 'r', 00H, 'y', 00H, 00H
	DB	00H						; `string'
CONST	ENDS
;	COMDAT ??_C@_0GJ@EHJGLGPD@C?3?2Program?5Files?5?$CIx86?$CJ?2Microsof@
CONST	SEGMENT
??_C@_0GJ@EHJGLGPD@C?3?2Program?5Files?5?$CIx86?$CJ?2Microsof@ DB 'C:\Pro'
	DB	'gram Files (x86)\Microsoft Visual Studio\2019\Enterprise\VC\T'
	DB	'ools\MSVC\14.27.29110\include\xmemory', 00H	; `string'
CONST	ENDS
;	COMDAT ??_C@_02DKCKIIND@?$CFs@
CONST	SEGMENT
??_C@_02DKCKIIND@?$CFs@ DB '%s', 00H			; `string'
CONST	ENDS
;	COMDAT ??_C@_0BB@FCMFBGOM@invalid?5argument@
CONST	SEGMENT
??_C@_0BB@FCMFBGOM@invalid?5argument@ DB 'invalid argument', 00H ; `string'
CONST	ENDS
;	COMDAT ?__LINE__Var@?0??_Adjust_manually_vector_aligned@std@@YAXAEAPEAXAEA_K@Z@4JA
_DATA	SEGMENT
?__LINE__Var@?0??_Adjust_manually_vector_aligned@std@@YAXAEAPEAXAEA_K@Z@4JA DD 084H ; `std::_Adjust_manually_vector_aligned'::`1'::__LINE__Var
_DATA	ENDS
;	COMDAT _CT??_R0?AVexception@std@@@8??0exception@std@@QEAA@AEBV01@@Z24
xdata$x	SEGMENT
_CT??_R0?AVexception@std@@@8??0exception@std@@QEAA@AEBV01@@Z24 DD 00H
	DD	imagerel ??_R0?AVexception@std@@@8
	DD	00H
	DD	0ffffffffH
	ORG $+4
	DD	018H
	DD	imagerel ??0exception@std@@QEAA@AEBV01@@Z
xdata$x	ENDS
;	COMDAT ??_R0?AVexception@std@@@8
data$r	SEGMENT
??_R0?AVexception@std@@@8 DQ FLAT:??_7type_info@@6B@	; std::exception `RTTI Type Descriptor'
	DQ	0000000000000000H
	DB	'.?AVexception@std@@', 00H
data$r	ENDS
;	COMDAT _CT??_R0?AVbad_alloc@std@@@8??0bad_alloc@std@@QEAA@AEBV01@@Z24
xdata$x	SEGMENT
_CT??_R0?AVbad_alloc@std@@@8??0bad_alloc@std@@QEAA@AEBV01@@Z24 DD 010H
	DD	imagerel ??_R0?AVbad_alloc@std@@@8
	DD	00H
	DD	0ffffffffH
	ORG $+4
	DD	018H
	DD	imagerel ??0bad_alloc@std@@QEAA@AEBV01@@Z
xdata$x	ENDS
;	COMDAT ??_R0?AVbad_alloc@std@@@8
data$r	SEGMENT
??_R0?AVbad_alloc@std@@@8 DQ FLAT:??_7type_info@@6B@	; std::bad_alloc `RTTI Type Descriptor'
	DQ	0000000000000000H
	DB	'.?AVbad_alloc@std@@', 00H
data$r	ENDS
;	COMDAT _CT??_R0?AVbad_array_new_length@std@@@8??0bad_array_new_length@std@@QEAA@AEBV01@@Z24
xdata$x	SEGMENT
_CT??_R0?AVbad_array_new_length@std@@@8??0bad_array_new_length@std@@QEAA@AEBV01@@Z24 DD 00H
	DD	imagerel ??_R0?AVbad_array_new_length@std@@@8
	DD	00H
	DD	0ffffffffH
	ORG $+4
	DD	018H
	DD	imagerel ??0bad_array_new_length@std@@QEAA@AEBV01@@Z
xdata$x	ENDS
;	COMDAT ??_R0?AVbad_array_new_length@std@@@8
data$r	SEGMENT
??_R0?AVbad_array_new_length@std@@@8 DQ FLAT:??_7type_info@@6B@ ; std::bad_array_new_length `RTTI Type Descriptor'
	DQ	0000000000000000H
	DB	'.?AVbad_array_new_length@std@@', 00H
data$r	ENDS
;	COMDAT _CTA3?AVbad_array_new_length@std@@
xdata$x	SEGMENT
_CTA3?AVbad_array_new_length@std@@ DD 03H
	DD	imagerel _CT??_R0?AVbad_array_new_length@std@@@8??0bad_array_new_length@std@@QEAA@AEBV01@@Z24
	DD	imagerel _CT??_R0?AVbad_alloc@std@@@8??0bad_alloc@std@@QEAA@AEBV01@@Z24
	DD	imagerel _CT??_R0?AVexception@std@@@8??0exception@std@@QEAA@AEBV01@@Z24
xdata$x	ENDS
;	COMDAT _TI3?AVbad_array_new_length@std@@
xdata$x	SEGMENT
_TI3?AVbad_array_new_length@std@@ DD 00H
	DD	imagerel ??1bad_array_new_length@std@@UEAA@XZ
	DD	00H
	DD	imagerel _CTA3?AVbad_array_new_length@std@@
xdata$x	ENDS
;	COMDAT ??_C@_0BF@KINCDENJ@bad?5array?5new?5length@
CONST	SEGMENT
??_C@_0BF@KINCDENJ@bad?5array?5new?5length@ DB 'bad array new length', 00H ; `string'
CONST	ENDS
;	COMDAT ??_7bad_array_new_length@std@@6B@
CONST	SEGMENT
??_7bad_array_new_length@std@@6B@ DQ FLAT:??_R4bad_array_new_length@std@@6B@ ; std::bad_array_new_length::`vftable'
	DQ	FLAT:??_Ebad_array_new_length@std@@UEAAPEAXI@Z
	DQ	FLAT:?what@exception@std@@UEBAPEBDXZ
CONST	ENDS
;	COMDAT ??_7bad_alloc@std@@6B@
CONST	SEGMENT
??_7bad_alloc@std@@6B@ DQ FLAT:??_R4bad_alloc@std@@6B@	; std::bad_alloc::`vftable'
	DQ	FLAT:??_Ebad_alloc@std@@UEAAPEAXI@Z
	DQ	FLAT:?what@exception@std@@UEBAPEBDXZ
CONST	ENDS
;	COMDAT ??_C@_0BC@EOODALEL@Unknown?5exception@
CONST	SEGMENT
??_C@_0BC@EOODALEL@Unknown?5exception@ DB 'Unknown exception', 00H ; `string'
CONST	ENDS
;	COMDAT ??_7exception@std@@6B@
CONST	SEGMENT
??_7exception@std@@6B@ DQ FLAT:??_R4exception@std@@6B@	; std::exception::`vftable'
	DQ	FLAT:??_Eexception@std@@UEAAPEAXI@Z
	DQ	FLAT:?what@exception@std@@UEBAPEBDXZ
CONST	ENDS
;	COMDAT xdata
xdata	SEGMENT
$ip2state$??$_Verify_range@PEAF@std@@YAXQEBQEAF0@Z DB 02H
	DB	00H
	DB	00H
xdata	ENDS
;	COMDAT xdata
xdata	SEGMENT
$cppxdata$??$_Verify_range@PEAF@std@@YAXQEBQEAF0@Z DB 060H
	DD	imagerel $ip2state$??$_Verify_range@PEAF@std@@YAXQEBQEAF0@Z
xdata	ENDS
;	COMDAT xdata
xdata	SEGMENT
$unwind$??$_Verify_range@PEAF@std@@YAXQEBQEAF0@Z DD 035052f19H
	DD	01133318H
	DD	0700c001fH
	DD	0500bH
	DD	imagerel __CxxFrameHandler4
	DD	imagerel $cppxdata$??$_Verify_range@PEAF@std@@YAXQEBQEAF0@Z
xdata	ENDS
;	COMDAT xdata
xdata	SEGMENT
$ip2state$??$_Verify_range@PEAUMFSTState@MFST@@@std@@YAXQEBQEAUMFSTState@MFST@@0@Z DB 02H
	DB	00H
	DB	00H
xdata	ENDS
;	COMDAT xdata
xdata	SEGMENT
$cppxdata$??$_Verify_range@PEAUMFSTState@MFST@@@std@@YAXQEBQEAUMFSTState@MFST@@0@Z DB 060H
	DD	imagerel $ip2state$??$_Verify_range@PEAUMFSTState@MFST@@@std@@YAXQEBQEAUMFSTState@MFST@@0@Z
xdata	ENDS
;	COMDAT xdata
xdata	SEGMENT
$unwind$??$_Verify_range@PEAUMFSTState@MFST@@@std@@YAXQEBQEAUMFSTState@MFST@@0@Z DD 035052f19H
	DD	01133318H
	DD	0700c001fH
	DD	0500bH
	DD	imagerel __CxxFrameHandler4
	DD	imagerel $cppxdata$??$_Verify_range@PEAUMFSTState@MFST@@@std@@YAXQEBQEAUMFSTState@MFST@@0@Z
xdata	ENDS
;	COMDAT xdata
xdata	SEGMENT
$unwind$??$_Zero_range@PEAPEAF@std@@YAPEAPEAFQEAPEAF0@Z DD 025052f01H
	DD	01132318H
	DD	0700c0025H
	DD	0500bH
xdata	ENDS
;	COMDAT xdata
xdata	SEGMENT
$unwind$??$_Seek_wrapped@PEAPEAFAEAPEAPEAF@std@@YAXAEAPEAPEAF0@Z DD 025052f01H
	DD	01132318H
	DD	0700c001dH
	DD	0500bH
xdata	ENDS
;	COMDAT xdata
xdata	SEGMENT
$unwind$??$_Copy_memmove@PEAPEAFPEAPEAF@std@@YAPEAPEAFPEAPEAF00@Z DD 025053401H
	DD	0118231dH
	DD	07011002dH
	DD	05010H
xdata	ENDS
;	COMDAT xdata
xdata	SEGMENT
$unwind$??$_Get_unwrapped_n@AEAPEAPEAF_J@std@@YA@AEAPEAPEAF_J@Z DD 025052f01H
	DD	01132318H
	DD	0700c001dH
	DD	0500bH
xdata	ENDS
;	COMDAT xdata
xdata	SEGMENT
$unwind$??$_Idl_distance@PEAPEAFPEAPEAF@std@@YA@AEBQEAPEAF0@Z DD 025052f01H
	DD	01132318H
	DD	0700c001dH
	DD	0500bH
xdata	ENDS
;	COMDAT xdata
xdata	SEGMENT
$unwind$??$_Get_unwrapped@AEBQEAPEAF@std@@YA@AEBQEAPEAF@Z DD 025052a01H
	DD	010e2313H
	DD	07007001dH
	DD	05006H
xdata	ENDS
;	COMDAT xdata
xdata	SEGMENT
$unwind$??$_Adl_verify_range@PEAPEAFPEAPEAF@std@@YAXAEBQEAPEAF0@Z DD 025052f01H
	DD	01132318H
	DD	0700c001dH
	DD	0500bH
xdata	ENDS
;	COMDAT xdata
xdata	SEGMENT
$unwind$??$_Zero_range@PEAPEAUMFSTState@MFST@@@std@@YAPEAPEAUMFSTState@MFST@@QEAPEAU12@0@Z DD 025052f01H
	DD	01132318H
	DD	0700c0025H
	DD	0500bH
xdata	ENDS
;	COMDAT xdata
xdata	SEGMENT
$unwind$??$_Seek_wrapped@PEAPEAUMFSTState@MFST@@AEAPEAPEAU12@@std@@YAXAEAPEAPEAUMFSTState@MFST@@0@Z DD 025052f01H
	DD	01132318H
	DD	0700c001dH
	DD	0500bH
xdata	ENDS
;	COMDAT xdata
xdata	SEGMENT
$unwind$??$_Copy_memmove@PEAPEAUMFSTState@MFST@@PEAPEAU12@@std@@YAPEAPEAUMFSTState@MFST@@PEAPEAU12@00@Z DD 025053401H
	DD	0118231dH
	DD	07011002dH
	DD	05010H
xdata	ENDS
;	COMDAT xdata
xdata	SEGMENT
$unwind$??$_Get_unwrapped_n@AEAPEAPEAUMFSTState@MFST@@_J@std@@YA@AEAPEAPEAUMFSTState@MFST@@_J@Z DD 025052f01H
	DD	01132318H
	DD	0700c001dH
	DD	0500bH
xdata	ENDS
;	COMDAT xdata
xdata	SEGMENT
$unwind$??$_Idl_distance@PEAPEAUMFSTState@MFST@@PEAPEAU12@@std@@YA@AEBQEAPEAUMFSTState@MFST@@0@Z DD 025052f01H
	DD	01132318H
	DD	0700c001dH
	DD	0500bH
xdata	ENDS
;	COMDAT xdata
xdata	SEGMENT
$unwind$??$_Get_unwrapped@AEBQEAPEAUMFSTState@MFST@@@std@@YA@AEBQEAPEAUMFSTState@MFST@@@Z DD 025052a01H
	DD	010e2313H
	DD	07007001dH
	DD	05006H
xdata	ENDS
;	COMDAT xdata
xdata	SEGMENT
$unwind$??$_Adl_verify_range@PEAPEAUMFSTState@MFST@@PEAPEAU12@@std@@YAXAEBQEAPEAUMFSTState@MFST@@0@Z DD 025052f01H
	DD	01132318H
	DD	0700c001dH
	DD	0500bH
xdata	ENDS
;	COMDAT xdata
xdata	SEGMENT
$unwind$?deallocate@?$_Default_allocator_traits@V?$allocator@U_Container_proxy@std@@@std@@@std@@SAXAEAV?$allocator@U_Container_proxy@std@@@2@QEAU_Container_proxy@2@_K@Z DD 025053401H
	DD	0118231dH
	DD	07011001dH
	DD	05010H
xdata	ENDS
;	COMDAT xdata
xdata	SEGMENT
$unwind$??$_Get_size_of_n@$07@std@@YA_K_K@Z DD 025052a01H
	DD	010e2313H
	DD	070070025H
	DD	05006H
xdata	ENDS
;	COMDAT xdata
xdata	SEGMENT
$ip2state$??$_Destroy_range@PEAPEAF@std@@YAXPEAPEAFQEAPEAF@Z DB 02H
	DB	00H
	DB	00H
xdata	ENDS
;	COMDAT xdata
xdata	SEGMENT
$cppxdata$??$_Destroy_range@PEAPEAF@std@@YAXPEAPEAFQEAPEAF@Z DB 060H
	DD	imagerel $ip2state$??$_Destroy_range@PEAPEAF@std@@YAXPEAPEAFQEAPEAF@Z
xdata	ENDS
;	COMDAT xdata
xdata	SEGMENT
$unwind$??$_Destroy_range@PEAPEAF@std@@YAXPEAPEAFQEAPEAF@Z DD 025052f19H
	DD	01132318H
	DD	0700c001dH
	DD	0500bH
	DD	imagerel __CxxFrameHandler4
	DD	imagerel $cppxdata$??$_Destroy_range@PEAPEAF@std@@YAXPEAPEAFQEAPEAF@Z
xdata	ENDS
;	COMDAT xdata
xdata	SEGMENT
$unwind$??$_Uninitialized_value_construct_n_unchecked1@PEAPEAF_K@std@@YAPEAPEAFPEAPEAF_K@Z DD 025052f01H
	DD	01132318H
	DD	0700c001dH
	DD	0500bH
xdata	ENDS
;	COMDAT xdata
xdata	SEGMENT
$unwind$??$uninitialized_copy@PEAPEAFPEAPEAF@std@@YAPEAPEAFQEAPEAF0PEAPEAF@Z DD 025054519H
	DD	0118231dH
	DD	070110029H
	DD	05010H
	DD	imagerel __GSHandlerCheck
	DD	0138H
xdata	ENDS
;	COMDAT CONST
CONST	SEGMENT
??$uninitialized_copy@PEAPEAFPEAPEAF@std@@YAPEAPEAFQEAPEAF0PEAPEAF@Z$rtcName$0 DB 05fH ; std::uninitialized_copy<short * *,short * *>
	DB	055H
	DB	046H
	DB	069H
	DB	072H
	DB	073H
	DB	074H
	DB	00H
??$uninitialized_copy@PEAPEAFPEAPEAF@std@@YAPEAPEAFQEAPEAF0PEAPEAF@Z$rtcName$1 DB 05fH ; std::uninitialized_copy<short * *,short * *>
	DB	055H
	DB	04cH
	DB	061H
	DB	073H
	DB	074H
	DB	00H
	ORG $+1
??$uninitialized_copy@PEAPEAFPEAPEAF@std@@YAPEAPEAFQEAPEAF0PEAPEAF@Z$rtcName$2 DB 05fH ; std::uninitialized_copy<short * *,short * *>
	DB	055H
	DB	044H
	DB	065H
	DB	073H
	DB	074H
	DB	00H
	ORG $+9
??$uninitialized_copy@PEAPEAFPEAPEAF@std@@YAPEAPEAFQEAPEAF0PEAPEAF@Z$rtcVarDesc DD 068H ; std::uninitialized_copy<short * *,short * *>
	DD	08H
	DQ	FLAT:??$uninitialized_copy@PEAPEAFPEAPEAF@std@@YAPEAPEAFQEAPEAF0PEAPEAF@Z$rtcName$2
	DD	048H
	DD	08H
	DQ	FLAT:??$uninitialized_copy@PEAPEAFPEAPEAF@std@@YAPEAPEAFQEAPEAF0PEAPEAF@Z$rtcName$1
	DD	028H
	DD	08H
	DQ	FLAT:??$uninitialized_copy@PEAPEAFPEAPEAF@std@@YAPEAPEAFQEAPEAF0PEAPEAF@Z$rtcName$0
	ORG $+144
??$uninitialized_copy@PEAPEAFPEAPEAF@std@@YAPEAPEAFQEAPEAF0PEAPEAF@Z$rtcFrameData DD 03H ; std::uninitialized_copy<short * *,short * *>
	DD	00H
	DQ	FLAT:??$uninitialized_copy@PEAPEAFPEAPEAF@std@@YAPEAPEAFQEAPEAF0PEAPEAF@Z$rtcVarDesc
CONST	ENDS
;	COMDAT xdata
xdata	SEGMENT
$unwind$??$_Get_size_of_n@$0DA@@std@@YA_K_K@Z DD 025052a01H
	DD	010e2313H
	DD	070070025H
	DD	05006H
xdata	ENDS
;	COMDAT xdata
xdata	SEGMENT
$ip2state$??$_Destroy_range@PEAPEAUMFSTState@MFST@@@std@@YAXPEAPEAUMFSTState@MFST@@QEAPEAU12@@Z DB 02H
	DB	00H
	DB	00H
xdata	ENDS
;	COMDAT xdata
xdata	SEGMENT
$cppxdata$??$_Destroy_range@PEAPEAUMFSTState@MFST@@@std@@YAXPEAPEAUMFSTState@MFST@@QEAPEAU12@@Z DB 060H
	DD	imagerel $ip2state$??$_Destroy_range@PEAPEAUMFSTState@MFST@@@std@@YAXPEAPEAUMFSTState@MFST@@QEAPEAU12@@Z
xdata	ENDS
;	COMDAT xdata
xdata	SEGMENT
$unwind$??$_Destroy_range@PEAPEAUMFSTState@MFST@@@std@@YAXPEAPEAUMFSTState@MFST@@QEAPEAU12@@Z DD 025052f19H
	DD	01132318H
	DD	0700c001dH
	DD	0500bH
	DD	imagerel __CxxFrameHandler4
	DD	imagerel $cppxdata$??$_Destroy_range@PEAPEAUMFSTState@MFST@@@std@@YAXPEAPEAUMFSTState@MFST@@QEAPEAU12@@Z
xdata	ENDS
;	COMDAT xdata
xdata	SEGMENT
$unwind$??$_Uninitialized_value_construct_n_unchecked1@PEAPEAUMFSTState@MFST@@_K@std@@YAPEAPEAUMFSTState@MFST@@PEAPEAU12@_K@Z DD 025052f01H
	DD	01132318H
	DD	0700c001dH
	DD	0500bH
xdata	ENDS
;	COMDAT xdata
xdata	SEGMENT
$unwind$??$uninitialized_copy@PEAPEAUMFSTState@MFST@@PEAPEAU12@@std@@YAPEAPEAUMFSTState@MFST@@QEAPEAU12@0PEAPEAU12@@Z DD 025054519H
	DD	0118231dH
	DD	070110029H
	DD	05010H
	DD	imagerel __GSHandlerCheck
	DD	0138H
xdata	ENDS
;	COMDAT CONST
CONST	SEGMENT
??$uninitialized_copy@PEAPEAUMFSTState@MFST@@PEAPEAU12@@std@@YAPEAPEAUMFSTState@MFST@@QEAPEAU12@0PEAPEAU12@@Z$rtcName$0 DB 05fH ; std::uninitialized_copy<MFST::MFSTState * *,MFST::MFSTState * *>
	DB	055H
	DB	046H
	DB	069H
	DB	072H
	DB	073H
	DB	074H
	DB	00H
??$uninitialized_copy@PEAPEAUMFSTState@MFST@@PEAPEAU12@@std@@YAPEAPEAUMFSTState@MFST@@QEAPEAU12@0PEAPEAU12@@Z$rtcName$1 DB 05fH ; std::uninitialized_copy<MFST::MFSTState * *,MFST::MFSTState * *>
	DB	055H
	DB	04cH
	DB	061H
	DB	073H
	DB	074H
	DB	00H
	ORG $+1
??$uninitialized_copy@PEAPEAUMFSTState@MFST@@PEAPEAU12@@std@@YAPEAPEAUMFSTState@MFST@@QEAPEAU12@0PEAPEAU12@@Z$rtcName$2 DB 05fH ; std::uninitialized_copy<MFST::MFSTState * *,MFST::MFSTState * *>
	DB	055H
	DB	044H
	DB	065H
	DB	073H
	DB	074H
	DB	00H
	ORG $+9
??$uninitialized_copy@PEAPEAUMFSTState@MFST@@PEAPEAU12@@std@@YAPEAPEAUMFSTState@MFST@@QEAPEAU12@0PEAPEAU12@@Z$rtcVarDesc DD 068H ; std::uninitialized_copy<MFST::MFSTState * *,MFST::MFSTState * *>
	DD	08H
	DQ	FLAT:??$uninitialized_copy@PEAPEAUMFSTState@MFST@@PEAPEAU12@@std@@YAPEAPEAUMFSTState@MFST@@QEAPEAU12@0PEAPEAU12@@Z$rtcName$2
	DD	048H
	DD	08H
	DQ	FLAT:??$uninitialized_copy@PEAPEAUMFSTState@MFST@@PEAPEAU12@@std@@YAPEAPEAUMFSTState@MFST@@QEAPEAU12@0PEAPEAU12@@Z$rtcName$1
	DD	028H
	DD	08H
	DQ	FLAT:??$uninitialized_copy@PEAPEAUMFSTState@MFST@@PEAPEAU12@@std@@YAPEAPEAUMFSTState@MFST@@QEAPEAU12@0PEAPEAU12@@Z$rtcName$0
	ORG $+144
??$uninitialized_copy@PEAPEAUMFSTState@MFST@@PEAPEAU12@@std@@YAPEAPEAUMFSTState@MFST@@QEAPEAU12@0PEAPEAU12@@Z$rtcFrameData DD 03H ; std::uninitialized_copy<MFST::MFSTState * *,MFST::MFSTState * *>
	DD	00H
	DQ	FLAT:??$uninitialized_copy@PEAPEAUMFSTState@MFST@@PEAPEAU12@@std@@YAPEAPEAUMFSTState@MFST@@QEAPEAU12@0PEAPEAU12@@Z$rtcVarDesc
CONST	ENDS
;	COMDAT xdata
xdata	SEGMENT
$unwind$??$emplace_back@AEBUMFSTState@MFST@@@?$deque@UMFSTState@MFST@@V?$allocator@UMFSTState@MFST@@@std@@@std@@QEAA@AEBUMFSTState@MFST@@@Z DD 025052f01H
	DD	01132318H
	DD	0700c0027H
	DD	0500bH
xdata	ENDS
;	COMDAT xdata
xdata	SEGMENT
$unwind$??$_Get_unwrapped@AEAV?$_Deque_unchecked_const_iterator@V?$_Deque_val@U?$_Deque_simple_types@UMFSTState@MFST@@@std@@@std@@@std@@@std@@YA@AEAV?$_Deque_unchecked_const_iterator@V?$_Deque_val@U?$_Deque_simple_types@UMFSTState@MFST@@@std@@@std@@@0@@Z DD 025052a01H
	DD	010e2313H
	DD	07007001dH
	DD	05006H
xdata	ENDS
;	COMDAT xdata
xdata	SEGMENT
$unwind$??$_Adl_verify_range@V?$_Deque_unchecked_const_iterator@V?$_Deque_val@U?$_Deque_simple_types@UMFSTState@MFST@@@std@@@std@@@std@@V12@@std@@YAXAEBV?$_Deque_unchecked_const_iterator@V?$_Deque_val@U?$_Deque_simple_types@UMFSTState@MFST@@@std@@@std@@@0@0@Z DD 025052f01H
	DD	01132318H
	DD	0700c001dH
	DD	0500bH
xdata	ENDS
;	COMDAT xdata
xdata	SEGMENT
$unwind$??$construct@UMFSTState@MFST@@AEBU12@@?$_Default_allocator_traits@V?$allocator@UMFSTState@MFST@@@std@@@std@@SAXAEAV?$allocator@UMFSTState@MFST@@@1@QEAUMFSTState@MFST@@AEBU34@@Z DD 025053401H
	DD	0118231dH
	DD	070110021H
	DD	05010H
xdata	ENDS
;	COMDAT xdata
xdata	SEGMENT
$ip2state$??$forward@AEBUMFSTState@MFST@@@std@@YAAEBUMFSTState@MFST@@AEBU12@@Z DB 02H
	DB	00H
	DB	00H
xdata	ENDS
;	COMDAT xdata
xdata	SEGMENT
$cppxdata$??$forward@AEBUMFSTState@MFST@@@std@@YAAEBUMFSTState@MFST@@AEBU12@@Z DB 060H
	DD	imagerel $ip2state$??$forward@AEBUMFSTState@MFST@@@std@@YAAEBUMFSTState@MFST@@AEBU12@@Z
xdata	ENDS
;	COMDAT xdata
xdata	SEGMENT
$unwind$??$forward@AEBUMFSTState@MFST@@@std@@YAAEBUMFSTState@MFST@@AEBU12@@Z DD 025052a19H
	DD	010e2313H
	DD	07007001dH
	DD	05006H
	DD	imagerel __CxxFrameHandler4
	DD	imagerel $cppxdata$??$forward@AEBUMFSTState@MFST@@@std@@YAAEBUMFSTState@MFST@@AEBU12@@Z
xdata	ENDS
;	COMDAT xdata
xdata	SEGMENT
$unwind$??$_Allocate_manually_vector_aligned@U_Default_allocate_traits@std@@@std@@YAPEAX_K@Z DD 035052a01H
	DD	010e3313H
	DD	07007002bH
	DD	05006H
xdata	ENDS
;	COMDAT xdata
xdata	SEGMENT
$ip2state$??$move@AEAV?$allocator@F@std@@@std@@YA$$QEAV?$allocator@F@0@AEAV10@@Z DB 02H
	DB	00H
	DB	00H
xdata	ENDS
;	COMDAT xdata
xdata	SEGMENT
$cppxdata$??$move@AEAV?$allocator@F@std@@@std@@YA$$QEAV?$allocator@F@0@AEAV10@@Z DB 060H
	DD	imagerel $ip2state$??$move@AEAV?$allocator@F@std@@@std@@YA$$QEAV?$allocator@F@0@AEAV10@@Z
xdata	ENDS
;	COMDAT xdata
xdata	SEGMENT
$unwind$??$move@AEAV?$allocator@F@std@@@std@@YA$$QEAV?$allocator@F@0@AEAV10@@Z DD 025052a19H
	DD	010e2313H
	DD	07007001dH
	DD	05006H
	DD	imagerel __CxxFrameHandler4
	DD	imagerel $cppxdata$??$move@AEAV?$allocator@F@std@@@std@@YA$$QEAV?$allocator@F@0@AEAV10@@Z
xdata	ENDS
;	COMDAT xdata
xdata	SEGMENT
$unwind$??$_Get_unwrapped@AEAV?$_Deque_unchecked_const_iterator@V?$_Deque_val@U?$_Deque_simple_types@F@std@@@std@@@std@@@std@@YA@AEAV?$_Deque_unchecked_const_iterator@V?$_Deque_val@U?$_Deque_simple_types@F@std@@@std@@@0@@Z DD 025052a01H
	DD	010e2313H
	DD	07007001dH
	DD	05006H
xdata	ENDS
;	COMDAT xdata
xdata	SEGMENT
$unwind$??$_Adl_verify_range@V?$_Deque_unchecked_const_iterator@V?$_Deque_val@U?$_Deque_simple_types@F@std@@@std@@@std@@V12@@std@@YAXAEBV?$_Deque_unchecked_const_iterator@V?$_Deque_val@U?$_Deque_simple_types@F@std@@@std@@@0@0@Z DD 025052f01H
	DD	01132318H
	DD	0700c001dH
	DD	0500bH
xdata	ENDS
;	COMDAT xdata
xdata	SEGMENT
$unwind$??$construct@FAEBF@?$_Default_allocator_traits@V?$allocator@F@std@@@std@@SAXAEAV?$allocator@F@1@QEAFAEBF@Z DD 025053401H
	DD	0118231dH
	DD	070110021H
	DD	05010H
xdata	ENDS
;	COMDAT xdata
xdata	SEGMENT
$ip2state$??$forward@AEBF@std@@YAAEBFAEBF@Z DB 02H
	DB	00H
	DB	00H
xdata	ENDS
;	COMDAT xdata
xdata	SEGMENT
$cppxdata$??$forward@AEBF@std@@YAAEBFAEBF@Z DB 060H
	DD	imagerel $ip2state$??$forward@AEBF@std@@YAAEBFAEBF@Z
xdata	ENDS
;	COMDAT xdata
xdata	SEGMENT
$unwind$??$forward@AEBF@std@@YAAEBFAEBF@Z DD 025052a19H
	DD	010e2313H
	DD	07007001dH
	DD	05006H
	DD	imagerel __CxxFrameHandler4
	DD	imagerel $cppxdata$??$forward@AEBF@std@@YAAEBFAEBF@Z
xdata	ENDS
;	COMDAT xdata
xdata	SEGMENT
$unwind$??$emplace_back@AEBF@?$deque@FV?$allocator@F@std@@@std@@QEAA@AEBF@Z DD 025052f01H
	DD	01132318H
	DD	0700c0027H
	DD	0500bH
xdata	ENDS
;	COMDAT xdata
xdata	SEGMENT
$ip2state$??1?$_Tidy_guard@V?$deque@FV?$allocator@F@std@@@std@@@std@@QEAA@XZ DB 02H
	DB	00H
	DB	00H
xdata	ENDS
;	COMDAT xdata
xdata	SEGMENT
$cppxdata$??1?$_Tidy_guard@V?$deque@FV?$allocator@F@std@@@std@@@std@@QEAA@XZ DB 060H
	DD	imagerel $ip2state$??1?$_Tidy_guard@V?$deque@FV?$allocator@F@std@@@std@@@std@@QEAA@XZ
xdata	ENDS
;	COMDAT xdata
xdata	SEGMENT
$unwind$??1?$_Tidy_guard@V?$deque@FV?$allocator@F@std@@@std@@@std@@QEAA@XZ DD 025052a19H
	DD	010e2313H
	DD	07007001dH
	DD	05006H
	DD	imagerel __CxxFrameHandler4
	DD	imagerel $cppxdata$??1?$_Tidy_guard@V?$deque@FV?$allocator@F@std@@@std@@@std@@QEAA@XZ
xdata	ENDS
;	COMDAT xdata
xdata	SEGMENT
$ip2state$??$forward@V?$allocator@F@std@@@std@@YA$$QEAV?$allocator@F@0@AEAV10@@Z DB 02H
	DB	00H
	DB	00H
xdata	ENDS
;	COMDAT xdata
xdata	SEGMENT
$cppxdata$??$forward@V?$allocator@F@std@@@std@@YA$$QEAV?$allocator@F@0@AEAV10@@Z DB 060H
	DD	imagerel $ip2state$??$forward@V?$allocator@F@std@@@std@@YA$$QEAV?$allocator@F@0@AEAV10@@Z
xdata	ENDS
;	COMDAT xdata
xdata	SEGMENT
$unwind$??$forward@V?$allocator@F@std@@@std@@YA$$QEAV?$allocator@F@0@AEAV10@@Z DD 025052a19H
	DD	010e2313H
	DD	07007001dH
	DD	05006H
	DD	imagerel __CxxFrameHandler4
	DD	imagerel $cppxdata$??$forward@V?$allocator@F@std@@@std@@YA$$QEAV?$allocator@F@0@AEAV10@@Z
xdata	ENDS
;	COMDAT xdata
xdata	SEGMENT
$ip2state$??$_Deallocate_plain@V?$allocator@U_Container_proxy@std@@@std@@@std@@YAXAEAV?$allocator@U_Container_proxy@std@@@0@QEAU_Container_proxy@0@@Z DB 02H
	DB	00H
	DB	00H
xdata	ENDS
;	COMDAT xdata
xdata	SEGMENT
$cppxdata$??$_Deallocate_plain@V?$allocator@U_Container_proxy@std@@@std@@@std@@YAXAEAV?$allocator@U_Container_proxy@std@@@0@QEAU_Container_proxy@0@@Z DB 060H
	DD	imagerel $ip2state$??$_Deallocate_plain@V?$allocator@U_Container_proxy@std@@@std@@@std@@YAXAEAV?$allocator@U_Container_proxy@std@@@0@QEAU_Container_proxy@0@@Z
xdata	ENDS
;	COMDAT xdata
xdata	SEGMENT
$unwind$??$_Deallocate_plain@V?$allocator@U_Container_proxy@std@@@std@@@std@@YAXAEAV?$allocator@U_Container_proxy@std@@@0@QEAU_Container_proxy@0@@Z DD 025052f19H
	DD	01132318H
	DD	0700c001dH
	DD	0500bH
	DD	imagerel __CxxFrameHandler4
	DD	imagerel $cppxdata$??$_Deallocate_plain@V?$allocator@U_Container_proxy@std@@@std@@@std@@YAXAEAV?$allocator@U_Container_proxy@std@@@0@QEAU_Container_proxy@0@@Z
xdata	ENDS
;	COMDAT xdata
xdata	SEGMENT
$ip2state$??$forward@PEAU_Container_base12@std@@@std@@YA$$QEAPEAU_Container_base12@0@AEAPEAU10@@Z DB 02H
	DB	00H
	DB	00H
xdata	ENDS
;	COMDAT xdata
xdata	SEGMENT
$cppxdata$??$forward@PEAU_Container_base12@std@@@std@@YA$$QEAPEAU_Container_base12@0@AEAPEAU10@@Z DB 060H
	DD	imagerel $ip2state$??$forward@PEAU_Container_base12@std@@@std@@YA$$QEAPEAU_Container_base12@0@AEAPEAU10@@Z
xdata	ENDS
;	COMDAT xdata
xdata	SEGMENT
$unwind$??$forward@PEAU_Container_base12@std@@@std@@YA$$QEAPEAU_Container_base12@0@AEAPEAU10@@Z DD 025052a19H
	DD	010e2313H
	DD	07007001dH
	DD	05006H
	DD	imagerel __CxxFrameHandler4
	DD	imagerel $cppxdata$??$forward@PEAU_Container_base12@std@@@std@@YA$$QEAPEAU_Container_base12@0@AEAPEAU10@@Z
xdata	ENDS
;	COMDAT xdata
xdata	SEGMENT
$ip2state$??$addressof@U_Container_proxy@std@@@std@@YAPEAU_Container_proxy@0@AEAU10@@Z DB 02H
	DB	00H
	DB	00H
xdata	ENDS
;	COMDAT xdata
xdata	SEGMENT
$cppxdata$??$addressof@U_Container_proxy@std@@@std@@YAPEAU_Container_proxy@0@AEAU10@@Z DB 060H
	DD	imagerel $ip2state$??$addressof@U_Container_proxy@std@@@std@@YAPEAU_Container_proxy@0@AEAU10@@Z
xdata	ENDS
;	COMDAT xdata
xdata	SEGMENT
$unwind$??$addressof@U_Container_proxy@std@@@std@@YAPEAU_Container_proxy@0@AEAU10@@Z DD 025052a19H
	DD	010e2313H
	DD	07007001dH
	DD	05006H
	DD	imagerel __CxxFrameHandler4
	DD	imagerel $cppxdata$??$addressof@U_Container_proxy@std@@@std@@YAPEAU_Container_proxy@0@AEAU10@@Z
xdata	ENDS
;	COMDAT xdata
xdata	SEGMENT
$ip2state$??$addressof@V?$_Deque_val@U?$_Deque_simple_types@F@std@@@std@@@std@@YAPEAV?$_Deque_val@U?$_Deque_simple_types@F@std@@@0@AEAV10@@Z DB 02H
	DB	00H
	DB	00H
xdata	ENDS
;	COMDAT xdata
xdata	SEGMENT
$cppxdata$??$addressof@V?$_Deque_val@U?$_Deque_simple_types@F@std@@@std@@@std@@YAPEAV?$_Deque_val@U?$_Deque_simple_types@F@std@@@0@AEAV10@@Z DB 060H
	DD	imagerel $ip2state$??$addressof@V?$_Deque_val@U?$_Deque_simple_types@F@std@@@std@@@std@@YAPEAV?$_Deque_val@U?$_Deque_simple_types@F@std@@@0@AEAV10@@Z
xdata	ENDS
;	COMDAT xdata
xdata	SEGMENT
$unwind$??$addressof@V?$_Deque_val@U?$_Deque_simple_types@F@std@@@std@@@std@@YAPEAV?$_Deque_val@U?$_Deque_simple_types@F@std@@@0@AEAV10@@Z DD 025052a19H
	DD	010e2313H
	DD	07007001dH
	DD	05006H
	DD	imagerel __CxxFrameHandler4
	DD	imagerel $cppxdata$??$addressof@V?$_Deque_val@U?$_Deque_simple_types@F@std@@@std@@@std@@YAPEAV?$_Deque_val@U?$_Deque_simple_types@F@std@@@0@AEAV10@@Z
xdata	ENDS
;	COMDAT xdata
xdata	SEGMENT
$ip2state$??$addressof@V?$_Deque_val@U?$_Deque_simple_types@UMFSTState@MFST@@@std@@@std@@@std@@YAPEAV?$_Deque_val@U?$_Deque_simple_types@UMFSTState@MFST@@@std@@@0@AEAV10@@Z DB 02H
	DB	00H
	DB	00H
xdata	ENDS
;	COMDAT xdata
xdata	SEGMENT
$cppxdata$??$addressof@V?$_Deque_val@U?$_Deque_simple_types@UMFSTState@MFST@@@std@@@std@@@std@@YAPEAV?$_Deque_val@U?$_Deque_simple_types@UMFSTState@MFST@@@std@@@0@AEAV10@@Z DB 060H
	DD	imagerel $ip2state$??$addressof@V?$_Deque_val@U?$_Deque_simple_types@UMFSTState@MFST@@@std@@@std@@@std@@YAPEAV?$_Deque_val@U?$_Deque_simple_types@UMFSTState@MFST@@@std@@@0@AEAV10@@Z
xdata	ENDS
;	COMDAT xdata
xdata	SEGMENT
$unwind$??$addressof@V?$_Deque_val@U?$_Deque_simple_types@UMFSTState@MFST@@@std@@@std@@@std@@YAPEAV?$_Deque_val@U?$_Deque_simple_types@UMFSTState@MFST@@@std@@@0@AEAV10@@Z DD 025052a19H
	DD	010e2313H
	DD	07007001dH
	DD	05006H
	DD	imagerel __CxxFrameHandler4
	DD	imagerel $cppxdata$??$addressof@V?$_Deque_val@U?$_Deque_simple_types@UMFSTState@MFST@@@std@@@std@@@std@@YAPEAV?$_Deque_val@U?$_Deque_simple_types@UMFSTState@MFST@@@std@@@0@AEAV10@@Z
xdata	ENDS
;	COMDAT xdata
xdata	SEGMENT
$ip2state$??$addressof@$$CBV?$_Deque_val@U?$_Deque_simple_types@UMFSTState@MFST@@@std@@@std@@@std@@YAPEBV?$_Deque_val@U?$_Deque_simple_types@UMFSTState@MFST@@@std@@@0@AEBV10@@Z DB 02H
	DB	00H
	DB	00H
xdata	ENDS
;	COMDAT xdata
xdata	SEGMENT
$cppxdata$??$addressof@$$CBV?$_Deque_val@U?$_Deque_simple_types@UMFSTState@MFST@@@std@@@std@@@std@@YAPEBV?$_Deque_val@U?$_Deque_simple_types@UMFSTState@MFST@@@std@@@0@AEBV10@@Z DB 060H
	DD	imagerel $ip2state$??$addressof@$$CBV?$_Deque_val@U?$_Deque_simple_types@UMFSTState@MFST@@@std@@@std@@@std@@YAPEBV?$_Deque_val@U?$_Deque_simple_types@UMFSTState@MFST@@@std@@@0@AEBV10@@Z
xdata	ENDS
;	COMDAT xdata
xdata	SEGMENT
$unwind$??$addressof@$$CBV?$_Deque_val@U?$_Deque_simple_types@UMFSTState@MFST@@@std@@@std@@@std@@YAPEBV?$_Deque_val@U?$_Deque_simple_types@UMFSTState@MFST@@@std@@@0@AEBV10@@Z DD 025052a19H
	DD	010e2313H
	DD	07007001dH
	DD	05006H
	DD	imagerel __CxxFrameHandler4
	DD	imagerel $cppxdata$??$addressof@$$CBV?$_Deque_val@U?$_Deque_simple_types@UMFSTState@MFST@@@std@@@std@@@std@@YAPEBV?$_Deque_val@U?$_Deque_simple_types@UMFSTState@MFST@@@std@@@0@AEBV10@@Z
xdata	ENDS
;	COMDAT xdata
xdata	SEGMENT
$unwind$??$_Get_size_of_n@$01@std@@YA_K_K@Z DD 025052a01H
	DD	010e2313H
	DD	070070025H
	DD	05006H
xdata	ENDS
;	COMDAT xdata
xdata	SEGMENT
$unwind$??0?$_Deque_unchecked_iterator@V?$_Deque_val@U?$_Deque_simple_types@F@std@@@std@@@std@@QEAA@_KPEBU_Container_base12@1@@Z DD 025053401H
	DD	0118231dH
	DD	07011001dH
	DD	05010H
xdata	ENDS
;	COMDAT xdata
xdata	SEGMENT
$unwind$?__autoclassinit2@?$_Deque_unchecked_iterator@V?$_Deque_val@U?$_Deque_simple_types@F@std@@@std@@@std@@QEAAX_K@Z DD 05052d01H
	DD	01130316H
	DD	0700c0019H
	DD	0500bH
xdata	ENDS
;	COMDAT xdata
xdata	SEGMENT
$unwind$??G?$_Deque_unchecked_iterator@V?$_Deque_val@U?$_Deque_simple_types@F@std@@@std@@@std@@QEBA_JAEBV?$_Deque_unchecked_const_iterator@V?$_Deque_val@U?$_Deque_simple_types@F@std@@@std@@@1@@Z DD 025052f01H
	DD	01132318H
	DD	0700c001dH
	DD	0500bH
xdata	ENDS
;	COMDAT xdata
xdata	SEGMENT
$unwind$??G?$_Deque_unchecked_iterator@V?$_Deque_val@U?$_Deque_simple_types@F@std@@@std@@@std@@QEBA?AV01@_J@Z DD 025064619H
	DD	0119231eH
	DD	070120022H
	DD	050106011H
	DD	imagerel __GSHandlerCheck
	DD	0108H
xdata	ENDS
;	COMDAT CONST
CONST	SEGMENT
??G?$_Deque_unchecked_iterator@V?$_Deque_val@U?$_Deque_simple_types@F@std@@@std@@@std@@QEBA?AV01@_J@Z$rtcName$0 DB 05fH ; std::_Deque_unchecked_iterator<std::_Deque_val<std::_Deque_simple_types<short> > >::operator-
	DB	054H
	DB	06dH
	DB	070H
	DB	00H
	ORG $+11
??G?$_Deque_unchecked_iterator@V?$_Deque_val@U?$_Deque_simple_types@F@std@@@std@@@std@@QEBA?AV01@_J@Z$rtcVarDesc DD 028H ; std::_Deque_unchecked_iterator<std::_Deque_val<std::_Deque_simple_types<short> > >::operator-
	DD	010H
	DQ	FLAT:??G?$_Deque_unchecked_iterator@V?$_Deque_val@U?$_Deque_simple_types@F@std@@@std@@@std@@QEBA?AV01@_J@Z$rtcName$0
	ORG $+48
??G?$_Deque_unchecked_iterator@V?$_Deque_val@U?$_Deque_simple_types@F@std@@@std@@@std@@QEBA?AV01@_J@Z$rtcFrameData DD 01H ; std::_Deque_unchecked_iterator<std::_Deque_val<std::_Deque_simple_types<short> > >::operator-
	DD	00H
	DQ	FLAT:??G?$_Deque_unchecked_iterator@V?$_Deque_val@U?$_Deque_simple_types@F@std@@@std@@@std@@QEBA?AV01@_J@Z$rtcVarDesc
CONST	ENDS
;	COMDAT xdata
xdata	SEGMENT
$unwind$??Z?$_Deque_unchecked_iterator@V?$_Deque_val@U?$_Deque_simple_types@F@std@@@std@@@std@@QEAAAEAV01@_J@Z DD 025052f01H
	DD	01132318H
	DD	0700c001dH
	DD	0500bH
xdata	ENDS
;	COMDAT xdata
xdata	SEGMENT
$unwind$??E?$_Deque_unchecked_iterator@V?$_Deque_val@U?$_Deque_simple_types@F@std@@@std@@@std@@QEAAAEAV01@XZ DD 025052a01H
	DD	010e2313H
	DD	07007001dH
	DD	05006H
xdata	ENDS
;	COMDAT xdata
xdata	SEGMENT
$unwind$??D?$_Deque_unchecked_iterator@V?$_Deque_val@U?$_Deque_simple_types@F@std@@@std@@@std@@QEBAAEAFXZ DD 025052a01H
	DD	010e2313H
	DD	07007001dH
	DD	05006H
xdata	ENDS
;	COMDAT xdata
xdata	SEGMENT
$unwind$??$_Emplace_back_internal@AEBF@?$deque@FV?$allocator@F@std@@@std@@AEAAXAEBF@Z DD 025052f01H
	DD	01132318H
	DD	0700c0027H
	DD	0500bH
xdata	ENDS
;	COMDAT xdata
xdata	SEGMENT
$unwind$??$destroy@F@?$_Default_allocator_traits@V?$allocator@F@std@@@std@@SAXAEAV?$allocator@F@1@QEAF@Z DD 025052f01H
	DD	01132318H
	DD	0700c001dH
	DD	0500bH
xdata	ENDS
;	COMDAT xdata
xdata	SEGMENT
$ip2state$??$_Unfancy@F@std@@YAPEAFPEAF@Z DB 02H
	DB	00H
	DB	00H
xdata	ENDS
;	COMDAT xdata
xdata	SEGMENT
$cppxdata$??$_Unfancy@F@std@@YAPEAFPEAF@Z DB 060H
	DD	imagerel $ip2state$??$_Unfancy@F@std@@YAPEAFPEAF@Z
xdata	ENDS
;	COMDAT xdata
xdata	SEGMENT
$unwind$??$_Unfancy@F@std@@YAPEAFPEAF@Z DD 025052a19H
	DD	010e2313H
	DD	07007001dH
	DD	05006H
	DD	imagerel __CxxFrameHandler4
	DD	imagerel $cppxdata$??$_Unfancy@F@std@@YAPEAFPEAF@Z
xdata	ENDS
;	COMDAT xdata
xdata	SEGMENT
$unwind$??$assign@V?$_Deque_unchecked_const_iterator@V?$_Deque_val@U?$_Deque_simple_types@UMFSTState@MFST@@@std@@@std@@@std@@$0A@@?$deque@UMFSTState@MFST@@V?$allocator@UMFSTState@MFST@@@std@@@std@@QEAAXV?$_Deque_unchecked_const_iterator@V?$_Deque_val@U?$_Deque_simple_types@UMFSTState@MFST@@@std@@@std@@@1@0@Z DD 025064619H
	DD	0119231eH
	DD	070120036H
	DD	050106011H
	DD	imagerel __GSHandlerCheck
	DD	01a0H
xdata	ENDS
;	COMDAT CONST
CONST	SEGMENT
??$assign@V?$_Deque_unchecked_const_iterator@V?$_Deque_val@U?$_Deque_simple_types@UMFSTState@MFST@@@std@@@std@@@std@@$0A@@?$deque@UMFSTState@MFST@@V?$allocator@UMFSTState@MFST@@@std@@@std@@QEAAXV?$_Deque_unchecked_const_iterator@V?$_Deque_val@U?$_Deque_simple_types@UMFSTState@MFST@@@std@@@std@@@1@0@Z$rtcName$0 DB 05fH ; std::deque<MFST::MFSTState,std::allocator<MFST::MFSTState> >::assign<std::_Deque_unchecked_const_iterator<std::_Deque_val<std::_Deque_simple_types<MFST::MFSTState> > >,0>
	DB	055H
	DB	046H
	DB	069H
	DB	072H
	DB	073H
	DB	074H
	DB	00H
??$assign@V?$_Deque_unchecked_const_iterator@V?$_Deque_val@U?$_Deque_simple_types@UMFSTState@MFST@@@std@@@std@@@std@@$0A@@?$deque@UMFSTState@MFST@@V?$allocator@UMFSTState@MFST@@@std@@@std@@QEAAXV?$_Deque_unchecked_const_iterator@V?$_Deque_val@U?$_Deque_simple_types@UMFSTState@MFST@@@std@@@std@@@1@0@Z$rtcName$1 DB 05fH ; std::deque<MFST::MFSTState,std::allocator<MFST::MFSTState> >::assign<std::_Deque_unchecked_const_iterator<std::_Deque_val<std::_Deque_simple_types<MFST::MFSTState> > >,0>
	DB	055H
	DB	04cH
	DB	061H
	DB	073H
	DB	074H
	DB	00H
	ORG $+1
??$assign@V?$_Deque_unchecked_const_iterator@V?$_Deque_val@U?$_Deque_simple_types@UMFSTState@MFST@@@std@@@std@@@std@@$0A@@?$deque@UMFSTState@MFST@@V?$allocator@UMFSTState@MFST@@@std@@@std@@QEAAXV?$_Deque_unchecked_const_iterator@V?$_Deque_val@U?$_Deque_simple_types@UMFSTState@MFST@@@std@@@std@@@1@0@Z$rtcName$2 DB 05fH ; std::deque<MFST::MFSTState,std::allocator<MFST::MFSTState> >::assign<std::_Deque_unchecked_const_iterator<std::_Deque_val<std::_Deque_simple_types<MFST::MFSTState> > >,0>
	DB	04dH
	DB	079H
	DB	066H
	DB	069H
	DB	072H
	DB	073H
	DB	074H
	DB	00H
	ORG $+7
??$assign@V?$_Deque_unchecked_const_iterator@V?$_Deque_val@U?$_Deque_simple_types@UMFSTState@MFST@@@std@@@std@@@std@@$0A@@?$deque@UMFSTState@MFST@@V?$allocator@UMFSTState@MFST@@@std@@@std@@QEAAXV?$_Deque_unchecked_const_iterator@V?$_Deque_val@U?$_Deque_simple_types@UMFSTState@MFST@@@std@@@std@@@1@0@Z$rtcName$3 DB 05fH ; std::deque<MFST::MFSTState,std::allocator<MFST::MFSTState> >::assign<std::_Deque_unchecked_const_iterator<std::_Deque_val<std::_Deque_simple_types<MFST::MFSTState> > >,0>
	DB	04dH
	DB	079H
	DB	06cH
	DB	061H
	DB	073H
	DB	074H
	DB	00H
	ORG $+8
??$assign@V?$_Deque_unchecked_const_iterator@V?$_Deque_val@U?$_Deque_simple_types@UMFSTState@MFST@@@std@@@std@@@std@@$0A@@?$deque@UMFSTState@MFST@@V?$allocator@UMFSTState@MFST@@@std@@@std@@QEAAXV?$_Deque_unchecked_const_iterator@V?$_Deque_val@U?$_Deque_simple_types@UMFSTState@MFST@@@std@@@std@@@1@0@Z$rtcVarDesc DD 0b8H ; std::deque<MFST::MFSTState,std::allocator<MFST::MFSTState> >::assign<std::_Deque_unchecked_const_iterator<std::_Deque_val<std::_Deque_simple_types<MFST::MFSTState> > >,0>
	DD	010H
	DQ	FLAT:??$assign@V?$_Deque_unchecked_const_iterator@V?$_Deque_val@U?$_Deque_simple_types@UMFSTState@MFST@@@std@@@std@@@std@@$0A@@?$deque@UMFSTState@MFST@@V?$allocator@UMFSTState@MFST@@@std@@@std@@QEAAXV?$_Deque_unchecked_const_iterator@V?$_Deque_val@U?$_Deque_simple_types@UMFSTState@MFST@@@std@@@std@@@1@0@Z$rtcName$3
	DD	088H
	DD	010H
	DQ	FLAT:??$assign@V?$_Deque_unchecked_const_iterator@V?$_Deque_val@U?$_Deque_simple_types@UMFSTState@MFST@@@std@@@std@@@std@@$0A@@?$deque@UMFSTState@MFST@@V?$allocator@UMFSTState@MFST@@@std@@@std@@QEAAXV?$_Deque_unchecked_const_iterator@V?$_Deque_val@U?$_Deque_simple_types@UMFSTState@MFST@@@std@@@std@@@1@0@Z$rtcName$2
	DD	058H
	DD	010H
	DQ	FLAT:??$assign@V?$_Deque_unchecked_const_iterator@V?$_Deque_val@U?$_Deque_simple_types@UMFSTState@MFST@@@std@@@std@@@std@@$0A@@?$deque@UMFSTState@MFST@@V?$allocator@UMFSTState@MFST@@@std@@@std@@QEAAXV?$_Deque_unchecked_const_iterator@V?$_Deque_val@U?$_Deque_simple_types@UMFSTState@MFST@@@std@@@std@@@1@0@Z$rtcName$1
	DD	028H
	DD	010H
	DQ	FLAT:??$assign@V?$_Deque_unchecked_const_iterator@V?$_Deque_val@U?$_Deque_simple_types@UMFSTState@MFST@@@std@@@std@@@std@@$0A@@?$deque@UMFSTState@MFST@@V?$allocator@UMFSTState@MFST@@@std@@@std@@QEAAXV?$_Deque_unchecked_const_iterator@V?$_Deque_val@U?$_Deque_simple_types@UMFSTState@MFST@@@std@@@std@@@1@0@Z$rtcName$0
	ORG $+192
??$assign@V?$_Deque_unchecked_const_iterator@V?$_Deque_val@U?$_Deque_simple_types@UMFSTState@MFST@@@std@@@std@@@std@@$0A@@?$deque@UMFSTState@MFST@@V?$allocator@UMFSTState@MFST@@@std@@@std@@QEAAXV?$_Deque_unchecked_const_iterator@V?$_Deque_val@U?$_Deque_simple_types@UMFSTState@MFST@@@std@@@std@@@1@0@Z$rtcFrameData DD 04H ; std::deque<MFST::MFSTState,std::allocator<MFST::MFSTState> >::assign<std::_Deque_unchecked_const_iterator<std::_Deque_val<std::_Deque_simple_types<MFST::MFSTState> > >,0>
	DD	00H
	DQ	FLAT:??$assign@V?$_Deque_unchecked_const_iterator@V?$_Deque_val@U?$_Deque_simple_types@UMFSTState@MFST@@@std@@@std@@@std@@$0A@@?$deque@UMFSTState@MFST@@V?$allocator@UMFSTState@MFST@@@std@@@std@@QEAAXV?$_Deque_unchecked_const_iterator@V?$_Deque_val@U?$_Deque_simple_types@UMFSTState@MFST@@@std@@@std@@@1@0@Z$rtcVarDesc
CONST	ENDS
;	COMDAT xdata
xdata	SEGMENT
$ip2state$??$_Pocca@V?$allocator@UMFSTState@MFST@@@std@@@std@@YAXAEAV?$allocator@UMFSTState@MFST@@@0@AEBV10@@Z DB 02H
	DB	00H
	DB	00H
xdata	ENDS
;	COMDAT xdata
xdata	SEGMENT
$cppxdata$??$_Pocca@V?$allocator@UMFSTState@MFST@@@std@@@std@@YAXAEAV?$allocator@UMFSTState@MFST@@@0@AEBV10@@Z DB 060H
	DD	imagerel $ip2state$??$_Pocca@V?$allocator@UMFSTState@MFST@@@std@@@std@@YAXAEAV?$allocator@UMFSTState@MFST@@@0@AEBV10@@Z
xdata	ENDS
;	COMDAT xdata
xdata	SEGMENT
$unwind$??$_Pocca@V?$allocator@UMFSTState@MFST@@@std@@@std@@YAXAEAV?$allocator@UMFSTState@MFST@@@0@AEBV10@@Z DD 025052f19H
	DD	01132318H
	DD	0700c001dH
	DD	0500bH
	DD	imagerel __CxxFrameHandler4
	DD	imagerel $cppxdata$??$_Pocca@V?$allocator@UMFSTState@MFST@@@std@@@std@@YAXAEAV?$allocator@UMFSTState@MFST@@@0@AEBV10@@Z
xdata	ENDS
;	COMDAT xdata
xdata	SEGMENT
$unwind$??0?$_Deque_unchecked_iterator@V?$_Deque_val@U?$_Deque_simple_types@UMFSTState@MFST@@@std@@@std@@@std@@QEAA@_KPEBU_Container_base12@1@@Z DD 025053401H
	DD	0118231dH
	DD	07011001dH
	DD	05010H
xdata	ENDS
;	COMDAT xdata
xdata	SEGMENT
$unwind$?__autoclassinit2@?$_Deque_unchecked_iterator@V?$_Deque_val@U?$_Deque_simple_types@UMFSTState@MFST@@@std@@@std@@@std@@QEAAX_K@Z DD 05052d01H
	DD	01130316H
	DD	0700c0019H
	DD	0500bH
xdata	ENDS
;	COMDAT xdata
xdata	SEGMENT
$unwind$??G?$_Deque_unchecked_iterator@V?$_Deque_val@U?$_Deque_simple_types@UMFSTState@MFST@@@std@@@std@@@std@@QEBA_JAEBV?$_Deque_unchecked_const_iterator@V?$_Deque_val@U?$_Deque_simple_types@UMFSTState@MFST@@@std@@@std@@@1@@Z DD 025052f01H
	DD	01132318H
	DD	0700c001dH
	DD	0500bH
xdata	ENDS
;	COMDAT xdata
xdata	SEGMENT
$unwind$??G?$_Deque_unchecked_iterator@V?$_Deque_val@U?$_Deque_simple_types@UMFSTState@MFST@@@std@@@std@@@std@@QEBA?AV01@_J@Z DD 025064619H
	DD	0119231eH
	DD	070120022H
	DD	050106011H
	DD	imagerel __GSHandlerCheck
	DD	0108H
xdata	ENDS
;	COMDAT CONST
CONST	SEGMENT
??G?$_Deque_unchecked_iterator@V?$_Deque_val@U?$_Deque_simple_types@UMFSTState@MFST@@@std@@@std@@@std@@QEBA?AV01@_J@Z$rtcName$0 DB 05fH ; std::_Deque_unchecked_iterator<std::_Deque_val<std::_Deque_simple_types<MFST::MFSTState> > >::operator-
	DB	054H
	DB	06dH
	DB	070H
	DB	00H
	ORG $+11
??G?$_Deque_unchecked_iterator@V?$_Deque_val@U?$_Deque_simple_types@UMFSTState@MFST@@@std@@@std@@@std@@QEBA?AV01@_J@Z$rtcVarDesc DD 028H ; std::_Deque_unchecked_iterator<std::_Deque_val<std::_Deque_simple_types<MFST::MFSTState> > >::operator-
	DD	010H
	DQ	FLAT:??G?$_Deque_unchecked_iterator@V?$_Deque_val@U?$_Deque_simple_types@UMFSTState@MFST@@@std@@@std@@@std@@QEBA?AV01@_J@Z$rtcName$0
	ORG $+48
??G?$_Deque_unchecked_iterator@V?$_Deque_val@U?$_Deque_simple_types@UMFSTState@MFST@@@std@@@std@@@std@@QEBA?AV01@_J@Z$rtcFrameData DD 01H ; std::_Deque_unchecked_iterator<std::_Deque_val<std::_Deque_simple_types<MFST::MFSTState> > >::operator-
	DD	00H
	DQ	FLAT:??G?$_Deque_unchecked_iterator@V?$_Deque_val@U?$_Deque_simple_types@UMFSTState@MFST@@@std@@@std@@@std@@QEBA?AV01@_J@Z$rtcVarDesc
CONST	ENDS
;	COMDAT xdata
xdata	SEGMENT
$unwind$??Z?$_Deque_unchecked_iterator@V?$_Deque_val@U?$_Deque_simple_types@UMFSTState@MFST@@@std@@@std@@@std@@QEAAAEAV01@_J@Z DD 025052f01H
	DD	01132318H
	DD	0700c001dH
	DD	0500bH
xdata	ENDS
;	COMDAT xdata
xdata	SEGMENT
$unwind$??E?$_Deque_unchecked_iterator@V?$_Deque_val@U?$_Deque_simple_types@UMFSTState@MFST@@@std@@@std@@@std@@QEAAAEAV01@XZ DD 025052a01H
	DD	010e2313H
	DD	07007001dH
	DD	05006H
xdata	ENDS
;	COMDAT xdata
xdata	SEGMENT
$unwind$??D?$_Deque_unchecked_iterator@V?$_Deque_val@U?$_Deque_simple_types@UMFSTState@MFST@@@std@@@std@@@std@@QEBAAEAUMFSTState@MFST@@XZ DD 025052a01H
	DD	010e2313H
	DD	07007001dH
	DD	05006H
xdata	ENDS
;	COMDAT xdata
xdata	SEGMENT
$unwind$?__autoclassinit2@?$_Deque_unchecked_const_iterator@V?$_Deque_val@U?$_Deque_simple_types@UMFSTState@MFST@@@std@@@std@@@std@@QEAAX_K@Z DD 05052d01H
	DD	01130316H
	DD	0700c0019H
	DD	0500bH
xdata	ENDS
;	COMDAT xdata
xdata	SEGMENT
$unwind$??9?$_Deque_unchecked_const_iterator@V?$_Deque_val@U?$_Deque_simple_types@UMFSTState@MFST@@@std@@@std@@@std@@QEBA_NAEBV01@@Z DD 025052f01H
	DD	01132318H
	DD	0700c001fH
	DD	0500bH
xdata	ENDS
;	COMDAT xdata
xdata	SEGMENT
$unwind$??8?$_Deque_unchecked_const_iterator@V?$_Deque_val@U?$_Deque_simple_types@UMFSTState@MFST@@@std@@@std@@@std@@QEBA_NAEBV01@@Z DD 025052f01H
	DD	01132318H
	DD	0700c001fH
	DD	0500bH
xdata	ENDS
;	COMDAT xdata
xdata	SEGMENT
$unwind$??G?$_Deque_unchecked_const_iterator@V?$_Deque_val@U?$_Deque_simple_types@UMFSTState@MFST@@@std@@@std@@@std@@QEBA_JAEBV01@@Z DD 025052f01H
	DD	01132318H
	DD	0700c001dH
	DD	0500bH
xdata	ENDS
;	COMDAT xdata
xdata	SEGMENT
$unwind$??Z?$_Deque_unchecked_const_iterator@V?$_Deque_val@U?$_Deque_simple_types@UMFSTState@MFST@@@std@@@std@@@std@@QEAAAEAV01@_J@Z DD 025052f01H
	DD	01132318H
	DD	0700c001dH
	DD	0500bH
xdata	ENDS
;	COMDAT xdata
xdata	SEGMENT
$unwind$??E?$_Deque_unchecked_const_iterator@V?$_Deque_val@U?$_Deque_simple_types@UMFSTState@MFST@@@std@@@std@@@std@@QEAAAEAV01@XZ DD 025052a01H
	DD	010e2313H
	DD	07007001dH
	DD	05006H
xdata	ENDS
;	COMDAT xdata
xdata	SEGMENT
$unwind$??D?$_Deque_unchecked_const_iterator@V?$_Deque_val@U?$_Deque_simple_types@UMFSTState@MFST@@@std@@@std@@@std@@QEBAAEBUMFSTState@MFST@@XZ DD 025052a01H
	DD	010e2313H
	DD	070070025H
	DD	05006H
xdata	ENDS
;	COMDAT xdata
xdata	SEGMENT
$ip2state$??0?$_Deque_unchecked_const_iterator@V?$_Deque_val@U?$_Deque_simple_types@UMFSTState@MFST@@@std@@@std@@@std@@QEAA@_KPEBU_Container_base12@1@@Z DB 02H
	DB	00H
	DB	00H
xdata	ENDS
;	COMDAT xdata
xdata	SEGMENT
$cppxdata$??0?$_Deque_unchecked_const_iterator@V?$_Deque_val@U?$_Deque_simple_types@UMFSTState@MFST@@@std@@@std@@@std@@QEAA@_KPEBU_Container_base12@1@@Z DB 060H
	DD	imagerel $ip2state$??0?$_Deque_unchecked_const_iterator@V?$_Deque_val@U?$_Deque_simple_types@UMFSTState@MFST@@@std@@@std@@@std@@QEAA@_KPEBU_Container_base12@1@@Z
xdata	ENDS
;	COMDAT xdata
xdata	SEGMENT
$unwind$??0?$_Deque_unchecked_const_iterator@V?$_Deque_val@U?$_Deque_simple_types@UMFSTState@MFST@@@std@@@std@@@std@@QEAA@_KPEBU_Container_base12@1@@Z DD 025053419H
	DD	0118231dH
	DD	07011001dH
	DD	05010H
	DD	imagerel __CxxFrameHandler4
	DD	imagerel $cppxdata$??0?$_Deque_unchecked_const_iterator@V?$_Deque_val@U?$_Deque_simple_types@UMFSTState@MFST@@@std@@@std@@@std@@QEAA@_KPEBU_Container_base12@1@@Z
xdata	ENDS
;	COMDAT xdata
xdata	SEGMENT
$unwind$??$_Emplace_back_internal@AEBUMFSTState@MFST@@@?$deque@UMFSTState@MFST@@V?$allocator@UMFSTState@MFST@@@std@@@std@@AEAAXAEBUMFSTState@MFST@@@Z DD 025052f01H
	DD	01132318H
	DD	0700c0027H
	DD	0500bH
xdata	ENDS
;	COMDAT xdata
xdata	SEGMENT
$unwind$??$destroy@UMFSTState@MFST@@@?$_Default_allocator_traits@V?$allocator@UMFSTState@MFST@@@std@@@std@@SAXAEAV?$allocator@UMFSTState@MFST@@@1@QEAUMFSTState@MFST@@@Z DD 025052f01H
	DD	01132318H
	DD	0700c001dH
	DD	0500bH
xdata	ENDS
;	COMDAT xdata
xdata	SEGMENT
$ip2state$??$_Unfancy@UMFSTState@MFST@@@std@@YAPEAUMFSTState@MFST@@PEAU12@@Z DB 02H
	DB	00H
	DB	00H
xdata	ENDS
;	COMDAT xdata
xdata	SEGMENT
$cppxdata$??$_Unfancy@UMFSTState@MFST@@@std@@YAPEAUMFSTState@MFST@@PEAU12@@Z DB 060H
	DD	imagerel $ip2state$??$_Unfancy@UMFSTState@MFST@@@std@@YAPEAUMFSTState@MFST@@PEAU12@@Z
xdata	ENDS
;	COMDAT xdata
xdata	SEGMENT
$unwind$??$_Unfancy@UMFSTState@MFST@@@std@@YAPEAUMFSTState@MFST@@PEAU12@@Z DD 025052a19H
	DD	010e2313H
	DD	07007001dH
	DD	05006H
	DD	imagerel __CxxFrameHandler4
	DD	imagerel $cppxdata$??$_Unfancy@UMFSTState@MFST@@@std@@YAPEAUMFSTState@MFST@@PEAU12@@Z
xdata	ENDS
;	COMDAT xdata
xdata	SEGMENT
$ip2state$??$_Deallocate@$0BA@$0A@@std@@YAXPEAX_K@Z DB 02H
	DB	00H
	DB	00H
xdata	ENDS
;	COMDAT xdata
xdata	SEGMENT
$cppxdata$??$_Deallocate@$0BA@$0A@@std@@YAXPEAX_K@Z DB 060H
	DD	imagerel $ip2state$??$_Deallocate@$0BA@$0A@@std@@YAXPEAX_K@Z
xdata	ENDS
;	COMDAT xdata
xdata	SEGMENT
$unwind$??$_Deallocate@$0BA@$0A@@std@@YAXPEAX_K@Z DD 025052f19H
	DD	01132318H
	DD	0700c001dH
	DD	0500bH
	DD	imagerel __CxxFrameHandler4
	DD	imagerel $cppxdata$??$_Deallocate@$0BA@$0A@@std@@YAXPEAX_K@Z
xdata	ENDS
;	COMDAT xdata
xdata	SEGMENT
$unwind$??$_Allocate@$0BA@U_Default_allocate_traits@std@@$0A@@std@@YAPEAX_K@Z DD 025052a01H
	DD	010e2313H
	DD	07007001dH
	DD	05006H
xdata	ENDS
;	COMDAT xdata
xdata	SEGMENT
$unwind$??$_Get_size_of_n@$0BA@@std@@YA_K_K@Z DD 025052a01H
	DD	010e2313H
	DD	070070025H
	DD	05006H
xdata	ENDS
;	COMDAT xdata
xdata	SEGMENT
$ip2state$??$_Pocma@V?$allocator@F@std@@@std@@YAXAEAV?$allocator@F@0@0@Z DB 02H
	DB	00H
	DB	00H
xdata	ENDS
;	COMDAT xdata
xdata	SEGMENT
$cppxdata$??$_Pocma@V?$allocator@F@std@@@std@@YAXAEAV?$allocator@F@0@0@Z DB 060H
	DD	imagerel $ip2state$??$_Pocma@V?$allocator@F@std@@@std@@YAXAEAV?$allocator@F@0@0@Z
xdata	ENDS
;	COMDAT xdata
xdata	SEGMENT
$unwind$??$_Pocma@V?$allocator@F@std@@@std@@YAXAEAV?$allocator@F@0@0@Z DD 025052f19H
	DD	01132318H
	DD	0700c001dH
	DD	0500bH
	DD	imagerel __CxxFrameHandler4
	DD	imagerel $cppxdata$??$_Pocma@V?$allocator@F@std@@@std@@YAXAEAV?$allocator@F@0@0@Z
xdata	ENDS
;	COMDAT xdata
xdata	SEGMENT
$unwind$??$assign@V?$_Deque_unchecked_const_iterator@V?$_Deque_val@U?$_Deque_simple_types@F@std@@@std@@@std@@$0A@@?$deque@FV?$allocator@F@std@@@std@@QEAAXV?$_Deque_unchecked_const_iterator@V?$_Deque_val@U?$_Deque_simple_types@F@std@@@std@@@1@0@Z DD 025064619H
	DD	0119231eH
	DD	070120036H
	DD	050106011H
	DD	imagerel __GSHandlerCheck
	DD	01a0H
xdata	ENDS
;	COMDAT CONST
CONST	SEGMENT
??$assign@V?$_Deque_unchecked_const_iterator@V?$_Deque_val@U?$_Deque_simple_types@F@std@@@std@@@std@@$0A@@?$deque@FV?$allocator@F@std@@@std@@QEAAXV?$_Deque_unchecked_const_iterator@V?$_Deque_val@U?$_Deque_simple_types@F@std@@@std@@@1@0@Z$rtcName$0 DB 05fH ; std::deque<short,std::allocator<short> >::assign<std::_Deque_unchecked_const_iterator<std::_Deque_val<std::_Deque_simple_types<short> > >,0>
	DB	055H
	DB	046H
	DB	069H
	DB	072H
	DB	073H
	DB	074H
	DB	00H
??$assign@V?$_Deque_unchecked_const_iterator@V?$_Deque_val@U?$_Deque_simple_types@F@std@@@std@@@std@@$0A@@?$deque@FV?$allocator@F@std@@@std@@QEAAXV?$_Deque_unchecked_const_iterator@V?$_Deque_val@U?$_Deque_simple_types@F@std@@@std@@@1@0@Z$rtcName$1 DB 05fH ; std::deque<short,std::allocator<short> >::assign<std::_Deque_unchecked_const_iterator<std::_Deque_val<std::_Deque_simple_types<short> > >,0>
	DB	055H
	DB	04cH
	DB	061H
	DB	073H
	DB	074H
	DB	00H
	ORG $+1
??$assign@V?$_Deque_unchecked_const_iterator@V?$_Deque_val@U?$_Deque_simple_types@F@std@@@std@@@std@@$0A@@?$deque@FV?$allocator@F@std@@@std@@QEAAXV?$_Deque_unchecked_const_iterator@V?$_Deque_val@U?$_Deque_simple_types@F@std@@@std@@@1@0@Z$rtcName$2 DB 05fH ; std::deque<short,std::allocator<short> >::assign<std::_Deque_unchecked_const_iterator<std::_Deque_val<std::_Deque_simple_types<short> > >,0>
	DB	04dH
	DB	079H
	DB	066H
	DB	069H
	DB	072H
	DB	073H
	DB	074H
	DB	00H
	ORG $+7
??$assign@V?$_Deque_unchecked_const_iterator@V?$_Deque_val@U?$_Deque_simple_types@F@std@@@std@@@std@@$0A@@?$deque@FV?$allocator@F@std@@@std@@QEAAXV?$_Deque_unchecked_const_iterator@V?$_Deque_val@U?$_Deque_simple_types@F@std@@@std@@@1@0@Z$rtcName$3 DB 05fH ; std::deque<short,std::allocator<short> >::assign<std::_Deque_unchecked_const_iterator<std::_Deque_val<std::_Deque_simple_types<short> > >,0>
	DB	04dH
	DB	079H
	DB	06cH
	DB	061H
	DB	073H
	DB	074H
	DB	00H
	ORG $+8
??$assign@V?$_Deque_unchecked_const_iterator@V?$_Deque_val@U?$_Deque_simple_types@F@std@@@std@@@std@@$0A@@?$deque@FV?$allocator@F@std@@@std@@QEAAXV?$_Deque_unchecked_const_iterator@V?$_Deque_val@U?$_Deque_simple_types@F@std@@@std@@@1@0@Z$rtcVarDesc DD 0b8H ; std::deque<short,std::allocator<short> >::assign<std::_Deque_unchecked_const_iterator<std::_Deque_val<std::_Deque_simple_types<short> > >,0>
	DD	010H
	DQ	FLAT:??$assign@V?$_Deque_unchecked_const_iterator@V?$_Deque_val@U?$_Deque_simple_types@F@std@@@std@@@std@@$0A@@?$deque@FV?$allocator@F@std@@@std@@QEAAXV?$_Deque_unchecked_const_iterator@V?$_Deque_val@U?$_Deque_simple_types@F@std@@@std@@@1@0@Z$rtcName$3
	DD	088H
	DD	010H
	DQ	FLAT:??$assign@V?$_Deque_unchecked_const_iterator@V?$_Deque_val@U?$_Deque_simple_types@F@std@@@std@@@std@@$0A@@?$deque@FV?$allocator@F@std@@@std@@QEAAXV?$_Deque_unchecked_const_iterator@V?$_Deque_val@U?$_Deque_simple_types@F@std@@@std@@@1@0@Z$rtcName$2
	DD	058H
	DD	010H
	DQ	FLAT:??$assign@V?$_Deque_unchecked_const_iterator@V?$_Deque_val@U?$_Deque_simple_types@F@std@@@std@@@std@@$0A@@?$deque@FV?$allocator@F@std@@@std@@QEAAXV?$_Deque_unchecked_const_iterator@V?$_Deque_val@U?$_Deque_simple_types@F@std@@@std@@@1@0@Z$rtcName$1
	DD	028H
	DD	010H
	DQ	FLAT:??$assign@V?$_Deque_unchecked_const_iterator@V?$_Deque_val@U?$_Deque_simple_types@F@std@@@std@@@std@@$0A@@?$deque@FV?$allocator@F@std@@@std@@QEAAXV?$_Deque_unchecked_const_iterator@V?$_Deque_val@U?$_Deque_simple_types@F@std@@@std@@@1@0@Z$rtcName$0
	ORG $+192
??$assign@V?$_Deque_unchecked_const_iterator@V?$_Deque_val@U?$_Deque_simple_types@F@std@@@std@@@std@@$0A@@?$deque@FV?$allocator@F@std@@@std@@QEAAXV?$_Deque_unchecked_const_iterator@V?$_Deque_val@U?$_Deque_simple_types@F@std@@@std@@@1@0@Z$rtcFrameData DD 04H ; std::deque<short,std::allocator<short> >::assign<std::_Deque_unchecked_const_iterator<std::_Deque_val<std::_Deque_simple_types<short> > >,0>
	DD	00H
	DQ	FLAT:??$assign@V?$_Deque_unchecked_const_iterator@V?$_Deque_val@U?$_Deque_simple_types@F@std@@@std@@@std@@$0A@@?$deque@FV?$allocator@F@std@@@std@@QEAAXV?$_Deque_unchecked_const_iterator@V?$_Deque_val@U?$_Deque_simple_types@F@std@@@std@@@1@0@Z$rtcVarDesc
CONST	ENDS
;	COMDAT xdata
xdata	SEGMENT
$ip2state$??$_Pocca@V?$allocator@F@std@@@std@@YAXAEAV?$allocator@F@0@AEBV10@@Z DB 02H
	DB	00H
	DB	00H
xdata	ENDS
;	COMDAT xdata
xdata	SEGMENT
$cppxdata$??$_Pocca@V?$allocator@F@std@@@std@@YAXAEAV?$allocator@F@0@AEBV10@@Z DB 060H
	DD	imagerel $ip2state$??$_Pocca@V?$allocator@F@std@@@std@@YAXAEAV?$allocator@F@0@AEBV10@@Z
xdata	ENDS
;	COMDAT xdata
xdata	SEGMENT
$unwind$??$_Pocca@V?$allocator@F@std@@@std@@YAXAEAV?$allocator@F@0@AEBV10@@Z DD 025052f19H
	DD	01132318H
	DD	0700c001dH
	DD	0500bH
	DD	imagerel __CxxFrameHandler4
	DD	imagerel $cppxdata$??$_Pocca@V?$allocator@F@std@@@std@@YAXAEAV?$allocator@F@0@AEBV10@@Z
xdata	ENDS
;	COMDAT xdata
xdata	SEGMENT
$ip2state$??$addressof@$$CBV?$_Deque_val@U?$_Deque_simple_types@F@std@@@std@@@std@@YAPEBV?$_Deque_val@U?$_Deque_simple_types@F@std@@@0@AEBV10@@Z DB 02H
	DB	00H
	DB	00H
xdata	ENDS
;	COMDAT xdata
xdata	SEGMENT
$cppxdata$??$addressof@$$CBV?$_Deque_val@U?$_Deque_simple_types@F@std@@@std@@@std@@YAPEBV?$_Deque_val@U?$_Deque_simple_types@F@std@@@0@AEBV10@@Z DB 060H
	DD	imagerel $ip2state$??$addressof@$$CBV?$_Deque_val@U?$_Deque_simple_types@F@std@@@std@@@std@@YAPEBV?$_Deque_val@U?$_Deque_simple_types@F@std@@@0@AEBV10@@Z
xdata	ENDS
;	COMDAT xdata
xdata	SEGMENT
$unwind$??$addressof@$$CBV?$_Deque_val@U?$_Deque_simple_types@F@std@@@std@@@std@@YAPEBV?$_Deque_val@U?$_Deque_simple_types@F@std@@@0@AEBV10@@Z DD 025052a19H
	DD	010e2313H
	DD	07007001dH
	DD	05006H
	DD	imagerel __CxxFrameHandler4
	DD	imagerel $cppxdata$??$addressof@$$CBV?$_Deque_val@U?$_Deque_simple_types@F@std@@@std@@@std@@YAPEBV?$_Deque_val@U?$_Deque_simple_types@F@std@@@0@AEBV10@@Z
xdata	ENDS
;	COMDAT xdata
xdata	SEGMENT
$ip2state$??$_Destroy_in_place@PEAF@std@@YAXAEAPEAF@Z DB 02H
	DB	00H
	DB	00H
xdata	ENDS
;	COMDAT xdata
xdata	SEGMENT
$cppxdata$??$_Destroy_in_place@PEAF@std@@YAXAEAPEAF@Z DB 060H
	DD	imagerel $ip2state$??$_Destroy_in_place@PEAF@std@@YAXAEAPEAF@Z
xdata	ENDS
;	COMDAT xdata
xdata	SEGMENT
$unwind$??$_Destroy_in_place@PEAF@std@@YAXAEAPEAF@Z DD 025052a19H
	DD	010e2313H
	DD	07007001dH
	DD	05006H
	DD	imagerel __CxxFrameHandler4
	DD	imagerel $cppxdata$??$_Destroy_in_place@PEAF@std@@YAXAEAPEAF@Z
xdata	ENDS
;	COMDAT xdata
xdata	SEGMENT
$ip2state$??$?0F@?$allocator@PEAF@std@@QEAA@AEBV?$allocator@F@1@@Z DB 02H
	DB	00H
	DB	00H
xdata	ENDS
;	COMDAT xdata
xdata	SEGMENT
$cppxdata$??$?0F@?$allocator@PEAF@std@@QEAA@AEBV?$allocator@F@1@@Z DB 060H
	DD	imagerel $ip2state$??$?0F@?$allocator@PEAF@std@@QEAA@AEBV?$allocator@F@1@@Z
xdata	ENDS
;	COMDAT xdata
xdata	SEGMENT
$unwind$??$?0F@?$allocator@PEAF@std@@QEAA@AEBV?$allocator@F@1@@Z DD 025052f19H
	DD	01132318H
	DD	0700c001dH
	DD	0500bH
	DD	imagerel __CxxFrameHandler4
	DD	imagerel $cppxdata$??$?0F@?$allocator@PEAF@std@@QEAA@AEBV?$allocator@F@1@@Z
xdata	ENDS
;	COMDAT xdata
xdata	SEGMENT
$ip2state$??$addressof@$$CBV?$deque@UMFSTState@MFST@@V?$allocator@UMFSTState@MFST@@@std@@@std@@@std@@YAPEBV?$deque@UMFSTState@MFST@@V?$allocator@UMFSTState@MFST@@@std@@@0@AEBV10@@Z DB 02H
	DB	00H
	DB	00H
xdata	ENDS
;	COMDAT xdata
xdata	SEGMENT
$cppxdata$??$addressof@$$CBV?$deque@UMFSTState@MFST@@V?$allocator@UMFSTState@MFST@@@std@@@std@@@std@@YAPEBV?$deque@UMFSTState@MFST@@V?$allocator@UMFSTState@MFST@@@std@@@0@AEBV10@@Z DB 060H
	DD	imagerel $ip2state$??$addressof@$$CBV?$deque@UMFSTState@MFST@@V?$allocator@UMFSTState@MFST@@@std@@@std@@@std@@YAPEBV?$deque@UMFSTState@MFST@@V?$allocator@UMFSTState@MFST@@@std@@@0@AEBV10@@Z
xdata	ENDS
;	COMDAT xdata
xdata	SEGMENT
$unwind$??$addressof@$$CBV?$deque@UMFSTState@MFST@@V?$allocator@UMFSTState@MFST@@@std@@@std@@@std@@YAPEBV?$deque@UMFSTState@MFST@@V?$allocator@UMFSTState@MFST@@@std@@@0@AEBV10@@Z DD 025052a19H
	DD	010e2313H
	DD	07007001dH
	DD	05006H
	DD	imagerel __CxxFrameHandler4
	DD	imagerel $cppxdata$??$addressof@$$CBV?$deque@UMFSTState@MFST@@V?$allocator@UMFSTState@MFST@@@std@@@std@@@std@@YAPEBV?$deque@UMFSTState@MFST@@V?$allocator@UMFSTState@MFST@@@std@@@0@AEBV10@@Z
xdata	ENDS
;	COMDAT xdata
xdata	SEGMENT
$ip2state$??$_Destroy_in_place@PEAUMFSTState@MFST@@@std@@YAXAEAPEAUMFSTState@MFST@@@Z DB 02H
	DB	00H
	DB	00H
xdata	ENDS
;	COMDAT xdata
xdata	SEGMENT
$cppxdata$??$_Destroy_in_place@PEAUMFSTState@MFST@@@std@@YAXAEAPEAUMFSTState@MFST@@@Z DB 060H
	DD	imagerel $ip2state$??$_Destroy_in_place@PEAUMFSTState@MFST@@@std@@YAXAEAPEAUMFSTState@MFST@@@Z
xdata	ENDS
;	COMDAT xdata
xdata	SEGMENT
$unwind$??$_Destroy_in_place@PEAUMFSTState@MFST@@@std@@YAXAEAPEAUMFSTState@MFST@@@Z DD 025052a19H
	DD	010e2313H
	DD	07007001dH
	DD	05006H
	DD	imagerel __CxxFrameHandler4
	DD	imagerel $cppxdata$??$_Destroy_in_place@PEAUMFSTState@MFST@@@std@@YAXAEAPEAUMFSTState@MFST@@@Z
xdata	ENDS
;	COMDAT xdata
xdata	SEGMENT
$ip2state$??$?0UMFSTState@MFST@@@?$allocator@PEAUMFSTState@MFST@@@std@@QEAA@AEBV?$allocator@UMFSTState@MFST@@@1@@Z DB 02H
	DB	00H
	DB	00H
xdata	ENDS
;	COMDAT xdata
xdata	SEGMENT
$cppxdata$??$?0UMFSTState@MFST@@@?$allocator@PEAUMFSTState@MFST@@@std@@QEAA@AEBV?$allocator@UMFSTState@MFST@@@1@@Z DB 060H
	DD	imagerel $ip2state$??$?0UMFSTState@MFST@@@?$allocator@PEAUMFSTState@MFST@@@std@@QEAA@AEBV?$allocator@UMFSTState@MFST@@@1@@Z
xdata	ENDS
;	COMDAT xdata
xdata	SEGMENT
$unwind$??$?0UMFSTState@MFST@@@?$allocator@PEAUMFSTState@MFST@@@std@@QEAA@AEBV?$allocator@UMFSTState@MFST@@@1@@Z DD 025052f19H
	DD	01132318H
	DD	0700c001dH
	DD	0500bH
	DD	imagerel __CxxFrameHandler4
	DD	imagerel $cppxdata$??$?0UMFSTState@MFST@@@?$allocator@PEAUMFSTState@MFST@@@std@@QEAA@AEBV?$allocator@UMFSTState@MFST@@@1@@Z
xdata	ENDS
;	COMDAT xdata
xdata	SEGMENT
$ip2state$??$_Unfancy@U_Container_proxy@std@@@std@@YAPEAU_Container_proxy@0@PEAU10@@Z DB 02H
	DB	00H
	DB	00H
xdata	ENDS
;	COMDAT xdata
xdata	SEGMENT
$cppxdata$??$_Unfancy@U_Container_proxy@std@@@std@@YAPEAU_Container_proxy@0@PEAU10@@Z DB 060H
	DD	imagerel $ip2state$??$_Unfancy@U_Container_proxy@std@@@std@@YAPEAU_Container_proxy@0@PEAU10@@Z
xdata	ENDS
;	COMDAT xdata
xdata	SEGMENT
$unwind$??$_Unfancy@U_Container_proxy@std@@@std@@YAPEAU_Container_proxy@0@PEAU10@@Z DD 025052a19H
	DD	010e2313H
	DD	07007001dH
	DD	05006H
	DD	imagerel __CxxFrameHandler4
	DD	imagerel $cppxdata$??$_Unfancy@U_Container_proxy@std@@@std@@YAPEAU_Container_proxy@0@PEAU10@@Z
xdata	ENDS
;	COMDAT xdata
xdata	SEGMENT
$ip2state$??$?0$$V@?$_Compressed_pair@V?$allocator@F@std@@V?$_Deque_val@U?$_Deque_simple_types@F@std@@@2@$00@std@@QEAA@U_Zero_then_variadic_args_t@1@@Z DB 02H
	DB	00H
	DB	00H
xdata	ENDS
;	COMDAT xdata
xdata	SEGMENT
$cppxdata$??$?0$$V@?$_Compressed_pair@V?$allocator@F@std@@V?$_Deque_val@U?$_Deque_simple_types@F@std@@@2@$00@std@@QEAA@U_Zero_then_variadic_args_t@1@@Z DB 060H
	DD	imagerel $ip2state$??$?0$$V@?$_Compressed_pair@V?$allocator@F@std@@V?$_Deque_val@U?$_Deque_simple_types@F@std@@@2@$00@std@@QEAA@U_Zero_then_variadic_args_t@1@@Z
xdata	ENDS
;	COMDAT xdata
xdata	SEGMENT
$unwind$??$?0$$V@?$_Compressed_pair@V?$allocator@F@std@@V?$_Deque_val@U?$_Deque_simple_types@F@std@@@2@$00@std@@QEAA@U_Zero_then_variadic_args_t@1@@Z DD 025052e19H
	DD	01122317H
	DD	0700b001dH
	DD	0500aH
	DD	imagerel __CxxFrameHandler4
	DD	imagerel $cppxdata$??$?0$$V@?$_Compressed_pair@V?$allocator@F@std@@V?$_Deque_val@U?$_Deque_simple_types@F@std@@@2@$00@std@@QEAA@U_Zero_then_variadic_args_t@1@@Z
xdata	ENDS
;	COMDAT xdata
xdata	SEGMENT
$unwind$?dtor$0@?0???$_Construct@V?$_Deque_unchecked_const_iterator@V?$_Deque_val@U?$_Deque_simple_types@F@std@@@std@@@std@@@?$deque@FV?$allocator@F@std@@@std@@AEAAXV?$_Deque_unchecked_const_iterator@V?$_Deque_val@U?$_Deque_simple_types@F@std@@@std@@@1@0@Z@4HA DD 031001H
	DD	0700c4210H
	DD	0500bH
xdata	ENDS
;	COMDAT xdata
xdata	SEGMENT
$ip2state$??$_Construct@V?$_Deque_unchecked_const_iterator@V?$_Deque_val@U?$_Deque_simple_types@F@std@@@std@@@std@@@?$deque@FV?$allocator@F@std@@@std@@AEAAXV?$_Deque_unchecked_const_iterator@V?$_Deque_val@U?$_Deque_simple_types@F@std@@@std@@@1@0@Z DB 06H
	DB	00H
	DB	00H
	DB	0b8H
	DB	02H
	DB	09aH
	DB	00H
xdata	ENDS
;	COMDAT xdata
xdata	SEGMENT
$stateUnwindMap$??$_Construct@V?$_Deque_unchecked_const_iterator@V?$_Deque_val@U?$_Deque_simple_types@F@std@@@std@@@std@@@?$deque@FV?$allocator@F@std@@@std@@AEAAXV?$_Deque_unchecked_const_iterator@V?$_Deque_val@U?$_Deque_simple_types@F@std@@@std@@@1@0@Z DB 02H
	DB	0eH
	DD	imagerel ?dtor$0@?0???$_Construct@V?$_Deque_unchecked_const_iterator@V?$_Deque_val@U?$_Deque_simple_types@F@std@@@std@@@std@@@?$deque@FV?$allocator@F@std@@@std@@AEAAXV?$_Deque_unchecked_const_iterator@V?$_Deque_val@U?$_Deque_simple_types@F@std@@@std@@@1@0@Z@4HA
xdata	ENDS
;	COMDAT xdata
xdata	SEGMENT
$cppxdata$??$_Construct@V?$_Deque_unchecked_const_iterator@V?$_Deque_val@U?$_Deque_simple_types@F@std@@@std@@@std@@@?$deque@FV?$allocator@F@std@@@std@@AEAAXV?$_Deque_unchecked_const_iterator@V?$_Deque_val@U?$_Deque_simple_types@F@std@@@std@@@1@0@Z DB 028H
	DD	imagerel $stateUnwindMap$??$_Construct@V?$_Deque_unchecked_const_iterator@V?$_Deque_val@U?$_Deque_simple_types@F@std@@@std@@@std@@@?$deque@FV?$allocator@F@std@@@std@@AEAAXV?$_Deque_unchecked_const_iterator@V?$_Deque_val@U?$_Deque_simple_types@F@std@@@std@@@1@0@Z
	DD	imagerel $ip2state$??$_Construct@V?$_Deque_unchecked_const_iterator@V?$_Deque_val@U?$_Deque_simple_types@F@std@@@std@@@std@@@?$deque@FV?$allocator@F@std@@@std@@AEAAXV?$_Deque_unchecked_const_iterator@V?$_Deque_val@U?$_Deque_simple_types@F@std@@@std@@@1@0@Z
xdata	ENDS
;	COMDAT xdata
xdata	SEGMENT
$unwind$??$_Construct@V?$_Deque_unchecked_const_iterator@V?$_Deque_val@U?$_Deque_simple_types@F@std@@@std@@@std@@@?$deque@FV?$allocator@F@std@@@std@@AEAAXV?$_Deque_unchecked_const_iterator@V?$_Deque_val@U?$_Deque_simple_types@F@std@@@std@@@1@0@Z DD 025054519H
	DD	0118231dH
	DD	070110021H
	DD	05010H
	DD	imagerel __GSHandlerCheck_EH4
	DD	imagerel $cppxdata$??$_Construct@V?$_Deque_unchecked_const_iterator@V?$_Deque_val@U?$_Deque_simple_types@F@std@@@std@@@std@@@?$deque@FV?$allocator@F@std@@@std@@AEAAXV?$_Deque_unchecked_const_iterator@V?$_Deque_val@U?$_Deque_simple_types@F@std@@@std@@@1@0@Z
	DD	0faH
xdata	ENDS
;	COMDAT CONST
CONST	SEGMENT
??$_Construct@V?$_Deque_unchecked_const_iterator@V?$_Deque_val@U?$_Deque_simple_types@F@std@@@std@@@std@@@?$deque@FV?$allocator@F@std@@@std@@AEAAXV?$_Deque_unchecked_const_iterator@V?$_Deque_val@U?$_Deque_simple_types@F@std@@@std@@@1@0@Z$rtcName$0 DB 05fH ; std::deque<short,std::allocator<short> >::_Construct<std::_Deque_unchecked_const_iterator<std::_Deque_val<std::_Deque_simple_types<short> > > >
	DB	047H
	DB	075H
	DB	061H
	DB	072H
	DB	064H
	DB	00H
	ORG $+9
??$_Construct@V?$_Deque_unchecked_const_iterator@V?$_Deque_val@U?$_Deque_simple_types@F@std@@@std@@@std@@@?$deque@FV?$allocator@F@std@@@std@@AEAAXV?$_Deque_unchecked_const_iterator@V?$_Deque_val@U?$_Deque_simple_types@F@std@@@std@@@1@0@Z$rtcVarDesc DD 028H ; std::deque<short,std::allocator<short> >::_Construct<std::_Deque_unchecked_const_iterator<std::_Deque_val<std::_Deque_simple_types<short> > > >
	DD	08H
	DQ	FLAT:??$_Construct@V?$_Deque_unchecked_const_iterator@V?$_Deque_val@U?$_Deque_simple_types@F@std@@@std@@@std@@@?$deque@FV?$allocator@F@std@@@std@@AEAAXV?$_Deque_unchecked_const_iterator@V?$_Deque_val@U?$_Deque_simple_types@F@std@@@std@@@1@0@Z$rtcName$0
	ORG $+48
??$_Construct@V?$_Deque_unchecked_const_iterator@V?$_Deque_val@U?$_Deque_simple_types@F@std@@@std@@@std@@@?$deque@FV?$allocator@F@std@@@std@@AEAAXV?$_Deque_unchecked_const_iterator@V?$_Deque_val@U?$_Deque_simple_types@F@std@@@std@@@1@0@Z$rtcFrameData DD 01H ; std::deque<short,std::allocator<short> >::_Construct<std::_Deque_unchecked_const_iterator<std::_Deque_val<std::_Deque_simple_types<short> > > >
	DD	00H
	DQ	FLAT:??$_Construct@V?$_Deque_unchecked_const_iterator@V?$_Deque_val@U?$_Deque_simple_types@F@std@@@std@@@std@@@?$deque@FV?$allocator@F@std@@@std@@AEAAXV?$_Deque_unchecked_const_iterator@V?$_Deque_val@U?$_Deque_simple_types@F@std@@@std@@@1@0@Z$rtcVarDesc
CONST	ENDS
;	COMDAT xdata
xdata	SEGMENT
$unwind$?__autoclassinit2@?$_Deque_unchecked_const_iterator@V?$_Deque_val@U?$_Deque_simple_types@F@std@@@std@@@std@@QEAAX_K@Z DD 05052d01H
	DD	01130316H
	DD	0700c0019H
	DD	0500bH
xdata	ENDS
;	COMDAT xdata
xdata	SEGMENT
$unwind$??9?$_Deque_unchecked_const_iterator@V?$_Deque_val@U?$_Deque_simple_types@F@std@@@std@@@std@@QEBA_NAEBV01@@Z DD 025052f01H
	DD	01132318H
	DD	0700c001fH
	DD	0500bH
xdata	ENDS
;	COMDAT xdata
xdata	SEGMENT
$unwind$??8?$_Deque_unchecked_const_iterator@V?$_Deque_val@U?$_Deque_simple_types@F@std@@@std@@@std@@QEBA_NAEBV01@@Z DD 025052f01H
	DD	01132318H
	DD	0700c001fH
	DD	0500bH
xdata	ENDS
;	COMDAT xdata
xdata	SEGMENT
$unwind$??G?$_Deque_unchecked_const_iterator@V?$_Deque_val@U?$_Deque_simple_types@F@std@@@std@@@std@@QEBA_JAEBV01@@Z DD 025052f01H
	DD	01132318H
	DD	0700c001dH
	DD	0500bH
xdata	ENDS
;	COMDAT xdata
xdata	SEGMENT
$unwind$??Z?$_Deque_unchecked_const_iterator@V?$_Deque_val@U?$_Deque_simple_types@F@std@@@std@@@std@@QEAAAEAV01@_J@Z DD 025052f01H
	DD	01132318H
	DD	0700c001dH
	DD	0500bH
xdata	ENDS
;	COMDAT xdata
xdata	SEGMENT
$unwind$??E?$_Deque_unchecked_const_iterator@V?$_Deque_val@U?$_Deque_simple_types@F@std@@@std@@@std@@QEAAAEAV01@XZ DD 025052a01H
	DD	010e2313H
	DD	07007001dH
	DD	05006H
xdata	ENDS
;	COMDAT xdata
xdata	SEGMENT
$unwind$??D?$_Deque_unchecked_const_iterator@V?$_Deque_val@U?$_Deque_simple_types@F@std@@@std@@@std@@QEBAAEBFXZ DD 025052a01H
	DD	010e2313H
	DD	070070025H
	DD	05006H
xdata	ENDS
;	COMDAT xdata
xdata	SEGMENT
$ip2state$??0?$_Deque_unchecked_const_iterator@V?$_Deque_val@U?$_Deque_simple_types@F@std@@@std@@@std@@QEAA@_KPEBU_Container_base12@1@@Z DB 02H
	DB	00H
	DB	00H
xdata	ENDS
;	COMDAT xdata
xdata	SEGMENT
$cppxdata$??0?$_Deque_unchecked_const_iterator@V?$_Deque_val@U?$_Deque_simple_types@F@std@@@std@@@std@@QEAA@_KPEBU_Container_base12@1@@Z DB 060H
	DD	imagerel $ip2state$??0?$_Deque_unchecked_const_iterator@V?$_Deque_val@U?$_Deque_simple_types@F@std@@@std@@@std@@QEAA@_KPEBU_Container_base12@1@@Z
xdata	ENDS
;	COMDAT xdata
xdata	SEGMENT
$unwind$??0?$_Deque_unchecked_const_iterator@V?$_Deque_val@U?$_Deque_simple_types@F@std@@@std@@@std@@QEAA@_KPEBU_Container_base12@1@@Z DD 025053419H
	DD	0118231dH
	DD	07011001dH
	DD	05010H
	DD	imagerel __CxxFrameHandler4
	DD	imagerel $cppxdata$??0?$_Deque_unchecked_const_iterator@V?$_Deque_val@U?$_Deque_simple_types@F@std@@@std@@@std@@QEAA@_KPEBU_Container_base12@1@@Z
xdata	ENDS
;	COMDAT xdata
xdata	SEGMENT
$ip2state$??$?0V?$allocator@F@std@@$$V@?$_Compressed_pair@V?$allocator@F@std@@V?$_Deque_val@U?$_Deque_simple_types@F@std@@@2@$00@std@@QEAA@U_One_then_variadic_args_t@1@$$QEAV?$allocator@F@1@@Z DB 02H
	DB	00H
	DB	00H
xdata	ENDS
;	COMDAT xdata
xdata	SEGMENT
$cppxdata$??$?0V?$allocator@F@std@@$$V@?$_Compressed_pair@V?$allocator@F@std@@V?$_Deque_val@U?$_Deque_simple_types@F@std@@@2@$00@std@@QEAA@U_One_then_variadic_args_t@1@$$QEAV?$allocator@F@1@@Z DB 060H
	DD	imagerel $ip2state$??$?0V?$allocator@F@std@@$$V@?$_Compressed_pair@V?$allocator@F@std@@V?$_Deque_val@U?$_Deque_simple_types@F@std@@@2@$00@std@@QEAA@U_One_then_variadic_args_t@1@$$QEAV?$allocator@F@1@@Z
xdata	ENDS
;	COMDAT xdata
xdata	SEGMENT
$unwind$??$?0V?$allocator@F@std@@$$V@?$_Compressed_pair@V?$allocator@F@std@@V?$_Deque_val@U?$_Deque_simple_types@F@std@@@2@$00@std@@QEAA@U_One_then_variadic_args_t@1@$$QEAV?$allocator@F@1@@Z DD 025053319H
	DD	0117231cH
	DD	07010001dH
	DD	0500fH
	DD	imagerel __CxxFrameHandler4
	DD	imagerel $cppxdata$??$?0V?$allocator@F@std@@$$V@?$_Compressed_pair@V?$allocator@F@std@@V?$_Deque_val@U?$_Deque_simple_types@F@std@@@2@$00@std@@QEAA@U_One_then_variadic_args_t@1@$$QEAV?$allocator@F@1@@Z
xdata	ENDS
;	COMDAT xdata
xdata	SEGMENT
$ip2state$??$addressof@V?$deque@FV?$allocator@F@std@@@std@@@std@@YAPEAV?$deque@FV?$allocator@F@std@@@0@AEAV10@@Z DB 02H
	DB	00H
	DB	00H
xdata	ENDS
;	COMDAT xdata
xdata	SEGMENT
$cppxdata$??$addressof@V?$deque@FV?$allocator@F@std@@@std@@@std@@YAPEAV?$deque@FV?$allocator@F@std@@@0@AEAV10@@Z DB 060H
	DD	imagerel $ip2state$??$addressof@V?$deque@FV?$allocator@F@std@@@std@@@std@@YAPEAV?$deque@FV?$allocator@F@std@@@0@AEAV10@@Z
xdata	ENDS
;	COMDAT xdata
xdata	SEGMENT
$unwind$??$addressof@V?$deque@FV?$allocator@F@std@@@std@@@std@@YAPEAV?$deque@FV?$allocator@F@std@@@0@AEAV10@@Z DD 025052a19H
	DD	010e2313H
	DD	07007001dH
	DD	05006H
	DD	imagerel __CxxFrameHandler4
	DD	imagerel $cppxdata$??$addressof@V?$deque@FV?$allocator@F@std@@@std@@@std@@YAPEAV?$deque@FV?$allocator@F@std@@@0@AEAV10@@Z
xdata	ENDS
;	COMDAT xdata
xdata	SEGMENT
$ip2state$??$?0F@?$allocator@U_Container_proxy@std@@@std@@QEAA@AEBV?$allocator@F@1@@Z DB 02H
	DB	00H
	DB	00H
xdata	ENDS
;	COMDAT xdata
xdata	SEGMENT
$cppxdata$??$?0F@?$allocator@U_Container_proxy@std@@@std@@QEAA@AEBV?$allocator@F@1@@Z DB 060H
	DD	imagerel $ip2state$??$?0F@?$allocator@U_Container_proxy@std@@@std@@QEAA@AEBV?$allocator@F@1@@Z
xdata	ENDS
;	COMDAT xdata
xdata	SEGMENT
$unwind$??$?0F@?$allocator@U_Container_proxy@std@@@std@@QEAA@AEBV?$allocator@F@1@@Z DD 025052f19H
	DD	01132318H
	DD	0700c001dH
	DD	0500bH
	DD	imagerel __CxxFrameHandler4
	DD	imagerel $cppxdata$??$?0F@?$allocator@U_Container_proxy@std@@@std@@QEAA@AEBV?$allocator@F@1@@Z
xdata	ENDS
;	COMDAT xdata
xdata	SEGMENT
$ip2state$??$addressof@$$CBV?$deque@FV?$allocator@F@std@@@std@@@std@@YAPEBV?$deque@FV?$allocator@F@std@@@0@AEBV10@@Z DB 02H
	DB	00H
	DB	00H
xdata	ENDS
;	COMDAT xdata
xdata	SEGMENT
$cppxdata$??$addressof@$$CBV?$deque@FV?$allocator@F@std@@@std@@@std@@YAPEBV?$deque@FV?$allocator@F@std@@@0@AEBV10@@Z DB 060H
	DD	imagerel $ip2state$??$addressof@$$CBV?$deque@FV?$allocator@F@std@@@std@@@std@@YAPEBV?$deque@FV?$allocator@F@std@@@0@AEBV10@@Z
xdata	ENDS
;	COMDAT xdata
xdata	SEGMENT
$unwind$??$addressof@$$CBV?$deque@FV?$allocator@F@std@@@std@@@std@@YAPEBV?$deque@FV?$allocator@F@std@@@0@AEBV10@@Z DD 025052a19H
	DD	010e2313H
	DD	07007001dH
	DD	05006H
	DD	imagerel __CxxFrameHandler4
	DD	imagerel $cppxdata$??$addressof@$$CBV?$deque@FV?$allocator@F@std@@@std@@@std@@YAPEBV?$deque@FV?$allocator@F@std@@@0@AEBV10@@Z
xdata	ENDS
;	COMDAT xdata
xdata	SEGMENT
$ip2state$??$?0$$V@?$_Compressed_pair@V?$allocator@UMFSTState@MFST@@@std@@V?$_Deque_val@U?$_Deque_simple_types@UMFSTState@MFST@@@std@@@2@$00@std@@QEAA@U_Zero_then_variadic_args_t@1@@Z DB 02H
	DB	00H
	DB	00H
xdata	ENDS
;	COMDAT xdata
xdata	SEGMENT
$cppxdata$??$?0$$V@?$_Compressed_pair@V?$allocator@UMFSTState@MFST@@@std@@V?$_Deque_val@U?$_Deque_simple_types@UMFSTState@MFST@@@std@@@2@$00@std@@QEAA@U_Zero_then_variadic_args_t@1@@Z DB 060H
	DD	imagerel $ip2state$??$?0$$V@?$_Compressed_pair@V?$allocator@UMFSTState@MFST@@@std@@V?$_Deque_val@U?$_Deque_simple_types@UMFSTState@MFST@@@std@@@2@$00@std@@QEAA@U_Zero_then_variadic_args_t@1@@Z
xdata	ENDS
;	COMDAT xdata
xdata	SEGMENT
$unwind$??$?0$$V@?$_Compressed_pair@V?$allocator@UMFSTState@MFST@@@std@@V?$_Deque_val@U?$_Deque_simple_types@UMFSTState@MFST@@@std@@@2@$00@std@@QEAA@U_Zero_then_variadic_args_t@1@@Z DD 025052e19H
	DD	01122317H
	DD	0700b001dH
	DD	0500aH
	DD	imagerel __CxxFrameHandler4
	DD	imagerel $cppxdata$??$?0$$V@?$_Compressed_pair@V?$allocator@UMFSTState@MFST@@@std@@V?$_Deque_val@U?$_Deque_simple_types@UMFSTState@MFST@@@std@@@2@$00@std@@QEAA@U_Zero_then_variadic_args_t@1@@Z
xdata	ENDS
;	COMDAT xdata
xdata	SEGMENT
$ip2state$??$exchange@PEAU_Container_proxy@std@@$$T@std@@YAPEAU_Container_proxy@0@AEAPEAU10@$$QEA$$T@Z DB 02H
	DB	00H
	DB	00H
xdata	ENDS
;	COMDAT xdata
xdata	SEGMENT
$cppxdata$??$exchange@PEAU_Container_proxy@std@@$$T@std@@YAPEAU_Container_proxy@0@AEAPEAU10@$$QEA$$T@Z DB 060H
	DD	imagerel $ip2state$??$exchange@PEAU_Container_proxy@std@@$$T@std@@YAPEAU_Container_proxy@0@AEAPEAU10@$$QEA$$T@Z
xdata	ENDS
;	COMDAT xdata
xdata	SEGMENT
$unwind$??$exchange@PEAU_Container_proxy@std@@$$T@std@@YAPEAU_Container_proxy@0@AEAPEAU10@$$QEA$$T@Z DD 025052f19H
	DD	01132318H
	DD	0700c0021H
	DD	0500bH
	DD	imagerel __CxxFrameHandler4
	DD	imagerel $cppxdata$??$exchange@PEAU_Container_proxy@std@@$$T@std@@YAPEAU_Container_proxy@0@AEAPEAU10@$$QEA$$T@Z
xdata	ENDS
;	COMDAT xdata
xdata	SEGMENT
$ip2state$??$?0UMFSTState@MFST@@@?$allocator@U_Container_proxy@std@@@std@@QEAA@AEBV?$allocator@UMFSTState@MFST@@@1@@Z DB 02H
	DB	00H
	DB	00H
xdata	ENDS
;	COMDAT xdata
xdata	SEGMENT
$cppxdata$??$?0UMFSTState@MFST@@@?$allocator@U_Container_proxy@std@@@std@@QEAA@AEBV?$allocator@UMFSTState@MFST@@@1@@Z DB 060H
	DD	imagerel $ip2state$??$?0UMFSTState@MFST@@@?$allocator@U_Container_proxy@std@@@std@@QEAA@AEBV?$allocator@UMFSTState@MFST@@@1@@Z
xdata	ENDS
;	COMDAT xdata
xdata	SEGMENT
$unwind$??$?0UMFSTState@MFST@@@?$allocator@U_Container_proxy@std@@@std@@QEAA@AEBV?$allocator@UMFSTState@MFST@@@1@@Z DD 025052f19H
	DD	01132318H
	DD	0700c001dH
	DD	0500bH
	DD	imagerel __CxxFrameHandler4
	DD	imagerel $cppxdata$??$?0UMFSTState@MFST@@@?$allocator@U_Container_proxy@std@@@std@@QEAA@AEBV?$allocator@UMFSTState@MFST@@@1@@Z
xdata	ENDS
;	COMDAT xdata
xdata	SEGMENT
$unwind$??$_Alloc_proxy@V?$allocator@U_Container_proxy@std@@@std@@@_Container_base12@std@@QEAAX$$QEAV?$allocator@U_Container_proxy@std@@@1@@Z DD 025052f01H
	DD	01132318H
	DD	0700c0025H
	DD	0500bH
xdata	ENDS
;	COMDAT xdata
xdata	SEGMENT
$ip2state$??1?$_Container_proxy_ptr12@V?$allocator@U_Container_proxy@std@@@std@@@std@@QEAA@XZ DB 02H
	DB	00H
	DB	00H
xdata	ENDS
;	COMDAT xdata
xdata	SEGMENT
$cppxdata$??1?$_Container_proxy_ptr12@V?$allocator@U_Container_proxy@std@@@std@@@std@@QEAA@XZ DB 060H
	DD	imagerel $ip2state$??1?$_Container_proxy_ptr12@V?$allocator@U_Container_proxy@std@@@std@@@std@@QEAA@XZ
xdata	ENDS
;	COMDAT xdata
xdata	SEGMENT
$unwind$??1?$_Container_proxy_ptr12@V?$allocator@U_Container_proxy@std@@@std@@@std@@QEAA@XZ DD 025052a19H
	DD	010e2313H
	DD	07007001dH
	DD	05006H
	DD	imagerel __CxxFrameHandler4
	DD	imagerel $cppxdata$??1?$_Container_proxy_ptr12@V?$allocator@U_Container_proxy@std@@@std@@@std@@QEAA@XZ
xdata	ENDS
;	COMDAT xdata
xdata	SEGMENT
$unwind$??0?$_Container_proxy_ptr12@V?$allocator@U_Container_proxy@std@@@std@@@std@@QEAA@AEAV?$allocator@U_Container_proxy@std@@@1@AEAU_Container_base12@1@@Z DD 025053401H
	DD	0118231dH
	DD	070110021H
	DD	05010H
xdata	ENDS
;	COMDAT xdata
xdata	SEGMENT
$ip2state$??$_Delete_plain_internal@V?$allocator@U_Container_proxy@std@@@std@@@std@@YAXAEAV?$allocator@U_Container_proxy@std@@@0@QEAU_Container_proxy@0@@Z DB 02H
	DB	00H
	DB	00H
xdata	ENDS
;	COMDAT xdata
xdata	SEGMENT
$cppxdata$??$_Delete_plain_internal@V?$allocator@U_Container_proxy@std@@@std@@@std@@YAXAEAV?$allocator@U_Container_proxy@std@@@0@QEAU_Container_proxy@0@@Z DB 060H
	DD	imagerel $ip2state$??$_Delete_plain_internal@V?$allocator@U_Container_proxy@std@@@std@@@std@@YAXAEAV?$allocator@U_Container_proxy@std@@@0@QEAU_Container_proxy@0@@Z
xdata	ENDS
;	COMDAT xdata
xdata	SEGMENT
$unwind$??$_Delete_plain_internal@V?$allocator@U_Container_proxy@std@@@std@@@std@@YAXAEAV?$allocator@U_Container_proxy@std@@@0@QEAU_Container_proxy@0@@Z DD 025052f19H
	DD	01132318H
	DD	0700c001dH
	DD	0500bH
	DD	imagerel __CxxFrameHandler4
	DD	imagerel $cppxdata$??$_Delete_plain_internal@V?$allocator@U_Container_proxy@std@@@std@@@std@@YAXAEAV?$allocator@U_Container_proxy@std@@@0@QEAU_Container_proxy@0@@Z
xdata	ENDS
;	COMDAT xdata
xdata	SEGMENT
$unwind$?allocate@?$allocator@U_Container_proxy@std@@@std@@QEAAPEAU_Container_proxy@2@_K@Z DD 025052f01H
	DD	01132318H
	DD	0700c001dH
	DD	0500bH
xdata	ENDS
;	COMDAT xdata
xdata	SEGMENT
$ip2state$??$min@_K@std@@YAAEB_KAEB_K0@Z DB 02H
	DB	00H
	DB	00H
xdata	ENDS
;	COMDAT xdata
xdata	SEGMENT
$cppxdata$??$min@_K@std@@YAAEB_KAEB_K0@Z DB 060H
	DD	imagerel $ip2state$??$min@_K@std@@YAAEB_KAEB_K0@Z
xdata	ENDS
;	COMDAT xdata
xdata	SEGMENT
$unwind$??$min@_K@std@@YAAEB_KAEB_K0@Z DD 025052f19H
	DD	01132318H
	DD	0700c0021H
	DD	0500bH
	DD	imagerel __CxxFrameHandler4
	DD	imagerel $cppxdata$??$min@_K@std@@YAAEB_KAEB_K0@Z
xdata	ENDS
;	COMDAT xdata
xdata	SEGMENT
$unwind$??Bsentry@?$basic_ostream@DU?$char_traits@D@std@@@std@@QEBA_NXZ DD 025052a01H
	DD	010e2313H
	DD	07007001dH
	DD	05006H
xdata	ENDS
;	COMDAT xdata
xdata	SEGMENT
$ip2state$??1sentry@?$basic_ostream@DU?$char_traits@D@std@@@std@@QEAA@XZ DB 02H
	DB	00H
	DB	00H
xdata	ENDS
;	COMDAT xdata
xdata	SEGMENT
$cppxdata$??1sentry@?$basic_ostream@DU?$char_traits@D@std@@@std@@QEAA@XZ DB 060H
	DD	imagerel $ip2state$??1sentry@?$basic_ostream@DU?$char_traits@D@std@@@std@@QEAA@XZ
xdata	ENDS
;	COMDAT xdata
xdata	SEGMENT
$unwind$??1sentry@?$basic_ostream@DU?$char_traits@D@std@@@std@@QEAA@XZ DD 025052a19H
	DD	010e2313H
	DD	070070021H
	DD	05006H
	DD	imagerel __CxxFrameHandler4
	DD	imagerel $cppxdata$??1sentry@?$basic_ostream@DU?$char_traits@D@std@@@std@@QEAA@XZ
xdata	ENDS
;	COMDAT xdata
xdata	SEGMENT
$unwind$?dtor$0@?0???0sentry@?$basic_ostream@DU?$char_traits@D@std@@@std@@QEAA@AEAV12@@Z@4HA DD 031001H
	DD	0700c4210H
	DD	0500bH
xdata	ENDS
;	COMDAT xdata
xdata	SEGMENT
$ip2state$??0sentry@?$basic_ostream@DU?$char_traits@D@std@@@std@@QEAA@AEAV12@@Z DB 06H
	DB	00H
	DB	00H
	DB	09eH
	DB	02H
	DB	0f1H, 02H
	DB	00H
xdata	ENDS
;	COMDAT xdata
xdata	SEGMENT
$stateUnwindMap$??0sentry@?$basic_ostream@DU?$char_traits@D@std@@@std@@QEAA@AEAV12@@Z DB 02H
	DB	0eH
	DD	imagerel ?dtor$0@?0???0sentry@?$basic_ostream@DU?$char_traits@D@std@@@std@@QEAA@AEAV12@@Z@4HA
xdata	ENDS
;	COMDAT xdata
xdata	SEGMENT
$cppxdata$??0sentry@?$basic_ostream@DU?$char_traits@D@std@@@std@@QEAA@AEAV12@@Z DB 028H
	DD	imagerel $stateUnwindMap$??0sentry@?$basic_ostream@DU?$char_traits@D@std@@@std@@QEAA@AEAV12@@Z
	DD	imagerel $ip2state$??0sentry@?$basic_ostream@DU?$char_traits@D@std@@@std@@QEAA@AEAV12@@Z
xdata	ENDS
;	COMDAT xdata
xdata	SEGMENT
$unwind$??0sentry@?$basic_ostream@DU?$char_traits@D@std@@@std@@QEAA@AEAV12@@Z DD 025052f11H
	DD	01132318H
	DD	0700c0021H
	DD	0500bH
	DD	imagerel __CxxFrameHandler4
	DD	imagerel $cppxdata$??0sentry@?$basic_ostream@DU?$char_traits@D@std@@@std@@QEAA@AEAV12@@Z
xdata	ENDS
;	COMDAT xdata
xdata	SEGMENT
$ip2state$??1_Sentry_base@?$basic_ostream@DU?$char_traits@D@std@@@std@@QEAA@XZ DB 02H
	DB	00H
	DB	00H
xdata	ENDS
;	COMDAT xdata
xdata	SEGMENT
$cppxdata$??1_Sentry_base@?$basic_ostream@DU?$char_traits@D@std@@@std@@QEAA@XZ DB 060H
	DD	imagerel $ip2state$??1_Sentry_base@?$basic_ostream@DU?$char_traits@D@std@@@std@@QEAA@XZ
xdata	ENDS
;	COMDAT xdata
xdata	SEGMENT
$unwind$??1_Sentry_base@?$basic_ostream@DU?$char_traits@D@std@@@std@@QEAA@XZ DD 025052a19H
	DD	010e2313H
	DD	070070021H
	DD	05006H
	DD	imagerel __CxxFrameHandler4
	DD	imagerel $cppxdata$??1_Sentry_base@?$basic_ostream@DU?$char_traits@D@std@@@std@@QEAA@XZ
xdata	ENDS
;	COMDAT xdata
xdata	SEGMENT
$unwind$??0_Sentry_base@?$basic_ostream@DU?$char_traits@D@std@@@std@@QEAA@AEAV12@@Z DD 025052f01H
	DD	01132318H
	DD	0700c0021H
	DD	0500bH
xdata	ENDS
;	COMDAT xdata
xdata	SEGMENT
$unwind$??$endl@DU?$char_traits@D@std@@@std@@YAAEAV?$basic_ostream@DU?$char_traits@D@std@@@0@AEAV10@@Z DD 025052a01H
	DD	010e2313H
	DD	07007001dH
	DD	05006H
xdata	ENDS
;	COMDAT xdata
xdata	SEGMENT
$unwind$?catch$1@?0???$?6U?$char_traits@D@std@@@std@@YAAEAV?$basic_ostream@DU?$char_traits@D@std@@@0@AEAV10@PEBD@Z@4HA DD 031001H
	DD	0700c4210H
	DD	0500bH
xdata	ENDS
;	COMDAT xdata
xdata	SEGMENT
$unwind$?dtor$0@?0???$?6U?$char_traits@D@std@@@std@@YAAEAV?$basic_ostream@DU?$char_traits@D@std@@@0@AEAV10@PEBD@Z@4HA DD 031001H
	DD	0700c4210H
	DD	0500bH
xdata	ENDS
;	COMDAT xdata
xdata	SEGMENT
$ip2state$??$?6U?$char_traits@D@std@@@std@@YAAEAV?$basic_ostream@DU?$char_traits@D@std@@@0@AEAV10@PEBD@Z DB 0aH
	DB	00H
	DB	00H
	DB	'9', 04H
	DB	02H
	DB	'<'
	DB	04H
	DB	095H, 09H
	DB	02H
	DB	't'
	DB	00H
xdata	ENDS
;	COMDAT xdata
xdata	SEGMENT
$handlerMap$??$?6U?$char_traits@D@std@@@std@@YAAEAV?$basic_ostream@DU?$char_traits@D@std@@@0@AEAV10@PEBD@Z DB 02H
	DB	01H
	DB	080H
	DD	imagerel ?catch$1@?0???$?6U?$char_traits@D@std@@@std@@YAAEAV?$basic_ostream@DU?$char_traits@D@std@@@0@AEAV10@PEBD@Z@4HA
xdata	ENDS
;	COMDAT xdata
xdata	SEGMENT
$tryMap$??$?6U?$char_traits@D@std@@@std@@YAAEAV?$basic_ostream@DU?$char_traits@D@std@@@0@AEAV10@PEBD@Z DB 02H
	DB	02H
	DB	02H
	DB	04H
	DD	imagerel $handlerMap$??$?6U?$char_traits@D@std@@@std@@YAAEAV?$basic_ostream@DU?$char_traits@D@std@@@0@AEAV10@PEBD@Z
xdata	ENDS
;	COMDAT xdata
xdata	SEGMENT
$stateUnwindMap$??$?6U?$char_traits@D@std@@@std@@YAAEAV?$basic_ostream@DU?$char_traits@D@std@@@0@AEAV10@PEBD@Z DB 06H
	DB	0eH
	DD	imagerel ?dtor$0@?0???$?6U?$char_traits@D@std@@@std@@YAAEAV?$basic_ostream@DU?$char_traits@D@std@@@0@AEAV10@PEBD@Z@4HA
	DB	028H
	DB	030H
xdata	ENDS
;	COMDAT xdata
xdata	SEGMENT
$cppxdata$??$?6U?$char_traits@D@std@@@std@@YAAEAV?$basic_ostream@DU?$char_traits@D@std@@@0@AEAV10@PEBD@Z DB 038H
	DD	imagerel $stateUnwindMap$??$?6U?$char_traits@D@std@@@std@@YAAEAV?$basic_ostream@DU?$char_traits@D@std@@@0@AEAV10@PEBD@Z
	DD	imagerel $tryMap$??$?6U?$char_traits@D@std@@@std@@YAAEAV?$basic_ostream@DU?$char_traits@D@std@@@0@AEAV10@PEBD@Z
	DD	imagerel $ip2state$??$?6U?$char_traits@D@std@@@std@@YAAEAV?$basic_ostream@DU?$char_traits@D@std@@@0@AEAV10@PEBD@Z
xdata	ENDS
;	COMDAT xdata
xdata	SEGMENT
$unwind$??$?6U?$char_traits@D@std@@@std@@YAAEAV?$basic_ostream@DU?$char_traits@D@std@@@0@AEAV10@PEBD@Z DD 025054019H
	DD	01132318H
	DD	0700c0045H
	DD	0500bH
	DD	imagerel __GSHandlerCheck_EH4
	DD	imagerel $cppxdata$??$?6U?$char_traits@D@std@@@std@@YAAEAV?$basic_ostream@DU?$char_traits@D@std@@@0@AEAV10@PEBD@Z
	DD	021bH
xdata	ENDS
;	COMDAT CONST
CONST	SEGMENT
??$?6U?$char_traits@D@std@@@std@@YAAEAV?$basic_ostream@DU?$char_traits@D@std@@@0@AEAV10@PEBD@Z$rtcName$0 DB 05fH ; std::operator<<<std::char_traits<char> >
	DB	04fH
	DB	06bH
	DB	00H
	ORG $+12
??$?6U?$char_traits@D@std@@@std@@YAAEAV?$basic_ostream@DU?$char_traits@D@std@@@0@AEAV10@PEBD@Z$rtcVarDesc DD 088H ; std::operator<<<std::char_traits<char> >
	DD	010H
	DQ	FLAT:??$?6U?$char_traits@D@std@@@std@@YAAEAV?$basic_ostream@DU?$char_traits@D@std@@@0@AEAV10@PEBD@Z$rtcName$0
	ORG $+48
??$?6U?$char_traits@D@std@@@std@@YAAEAV?$basic_ostream@DU?$char_traits@D@std@@@0@AEAV10@PEBD@Z$rtcFrameData DD 01H ; std::operator<<<std::char_traits<char> >
	DD	00H
	DQ	FLAT:??$?6U?$char_traits@D@std@@@std@@YAAEAV?$basic_ostream@DU?$char_traits@D@std@@@0@AEAV10@PEBD@Z$rtcVarDesc
CONST	ENDS
;	COMDAT xdata
xdata	SEGMENT
$unwind$??$_Getvals@_W@?$time_get@_WV?$istreambuf_iterator@_WU?$char_traits@_W@std@@@std@@@std@@IEAAX_WAEBV_Locinfo@1@@Z DD 025063501H
	DD	0119231eH
	DD	070120026H
	DD	050106011H
xdata	ENDS
;	COMDAT xdata
xdata	SEGMENT
$unwind$??$_Getvals@_W@?$time_get@DV?$istreambuf_iterator@DU?$char_traits@D@std@@@std@@@std@@IEAAX_WAEBV_Locinfo@1@@Z DD 025063501H
	DD	0119231eH
	DD	070120026H
	DD	050106011H
xdata	ENDS
;	COMDAT xdata
xdata	SEGMENT
$unwind$??$_Maklocstr@D@std@@YAPEADPEBDPEADAEBU_Cvtvec@@@Z DD 035053401H
	DD	0118331dH
	DD	07011002bH
	DD	05010H
xdata	ENDS
;	COMDAT xdata
xdata	SEGMENT
$unwind$?_Maklocwcs@std@@YAPEA_WPEB_W@Z DD 035052a01H
	DD	010e3313H
	DD	070070027H
	DD	05006H
xdata	ENDS
;	COMDAT xdata
xdata	SEGMENT
$unwind$??$_Maklocstr@_W@std@@YAPEA_WPEBDPEA_WAEBU_Cvtvec@@@Z DD 035054519H
	DD	0118331dH
	DD	070110047H
	DD	05010H
	DD	imagerel __GSHandlerCheck
	DD	0228H
xdata	ENDS
;	COMDAT CONST
CONST	SEGMENT
??$_Maklocstr@_W@std@@YAPEA_WPEBDPEA_WAEBU_Cvtvec@@@Z$rtcName$0 DB 05fH ; std::_Maklocstr<wchar_t>
	DB	057H
	DB	063H
	DB	00H
??$_Maklocstr@_W@std@@YAPEA_WPEBDPEA_WAEBU_Cvtvec@@@Z$rtcName$1 DB 05fH ; std::_Maklocstr<wchar_t>
	DB	04dH
	DB	062H
	DB	073H
	DB	074H
	DB	031H
	DB	00H
	ORG $+1
??$_Maklocstr@_W@std@@YAPEA_WPEBDPEA_WAEBU_Cvtvec@@@Z$rtcName$2 DB 05fH ; std::_Maklocstr<wchar_t>
	DB	04dH
	DB	062H
	DB	073H
	DB	074H
	DB	032H
	DB	00H
	ORG $+13
??$_Maklocstr@_W@std@@YAPEA_WPEBDPEA_WAEBU_Cvtvec@@@Z$rtcVarDesc DD 0158H ; std::_Maklocstr<wchar_t>
	DD	08H
	DQ	FLAT:??$_Maklocstr@_W@std@@YAPEA_WPEBDPEA_WAEBU_Cvtvec@@@Z$rtcName$2
	DD	0f8H
	DD	08H
	DQ	FLAT:??$_Maklocstr@_W@std@@YAPEA_WPEBDPEA_WAEBU_Cvtvec@@@Z$rtcName$1
	DD	0d4H
	DD	02H
	DQ	FLAT:??$_Maklocstr@_W@std@@YAPEA_WPEBDPEA_WAEBU_Cvtvec@@@Z$rtcName$0
	ORG $+144
??$_Maklocstr@_W@std@@YAPEA_WPEBDPEA_WAEBU_Cvtvec@@@Z$rtcFrameData DD 03H ; std::_Maklocstr<wchar_t>
	DD	00H
	DQ	FLAT:??$_Maklocstr@_W@std@@YAPEA_WPEBDPEA_WAEBU_Cvtvec@@@Z$rtcVarDesc
CONST	ENDS
;	COMDAT xdata
xdata	SEGMENT
$ip2state$?eof@?$_Narrow_char_traits@DH@std@@SAHXZ DB 02H
	DB	00H
	DB	00H
xdata	ENDS
;	COMDAT xdata
xdata	SEGMENT
$cppxdata$?eof@?$_Narrow_char_traits@DH@std@@SAHXZ DB 060H
	DD	imagerel $ip2state$?eof@?$_Narrow_char_traits@DH@std@@SAHXZ
xdata	ENDS
;	COMDAT xdata
xdata	SEGMENT
$unwind$?eof@?$_Narrow_char_traits@DH@std@@SAHXZ DD 025051e19H
	DD	010a230fH
	DD	07003001dH
	DD	05002H
	DD	imagerel __CxxFrameHandler4
	DD	imagerel $cppxdata$?eof@?$_Narrow_char_traits@DH@std@@SAHXZ
xdata	ENDS
;	COMDAT xdata
xdata	SEGMENT
$ip2state$?eq_int_type@?$_Narrow_char_traits@DH@std@@SA_NAEBH0@Z DB 02H
	DB	00H
	DB	00H
xdata	ENDS
;	COMDAT xdata
xdata	SEGMENT
$cppxdata$?eq_int_type@?$_Narrow_char_traits@DH@std@@SA_NAEBH0@Z DB 060H
	DD	imagerel $ip2state$?eq_int_type@?$_Narrow_char_traits@DH@std@@SA_NAEBH0@Z
xdata	ENDS
;	COMDAT xdata
xdata	SEGMENT
$unwind$?eq_int_type@?$_Narrow_char_traits@DH@std@@SA_NAEBH0@Z DD 025052f19H
	DD	01132318H
	DD	0700c001fH
	DD	0500bH
	DD	imagerel __CxxFrameHandler4
	DD	imagerel $cppxdata$?eq_int_type@?$_Narrow_char_traits@DH@std@@SA_NAEBH0@Z
xdata	ENDS
;	COMDAT xdata
xdata	SEGMENT
