; Listing generated by Microsoft (R) Optimizing Compiler Version 19.27.29112.0 

include listing.inc

INCLUDELIB MSVCRTD
INCLUDELIB OLDNAMES

msvcjmc	SEGMENT
__367CC694_corecrt_memcpy_s@h DB 01H
__F66CEB67_corecrt_stdio_config@h DB 01H
__5467428D_corecrt_wconio@h DB 01H
__4442441F_corecrt_wio@h DB 01H
__101834BA_corecrt_wstdio@h DB 01H
__DC9673E3_corecrt_wstring@h DB 01H
__45F4AF76_corecrt_wtime@h DB 01H
__186FF47F_stat@h DB 01H
__534C724A_wchar@h DB 01H
__62A468D7_tchar@h DB 01H
__FC8B975D_vcruntime_new@h DB 01H
__AD6A91B7_stdio@h DB 01H
__09340588_corecrt_math@h DB 01H
__24E9E95F_stdlib@h DB 01H
__51019776_cstdlib DB 01H
__5E219BC0_limits DB 01H
__B236D4B0_type_traits DB 01H
__B0C4CEA9_malloc@h DB 01H
__18D87206_vcruntime_exception@h DB 01H
__1302BCB8_exception DB 01H
__35D7DDB3_corecrt_memory@h DB 01H
__A29A7DFB_string@h DB 01H
__36E77527_xutility DB 01H
__0C99713E_xmemory DB 01H
__784AF7A2_xstring DB 01H
__7242C389_ctype@h DB 01H
__965C11D2_string DB 01H
__8AA3BE86_time@h DB 01H
__9A4C86E5_stdexcept DB 01H
__238A5427_xcall_once@h DB 01H
__3514C702_atomic DB 01H
__9CD74607_system_error DB 01H
__7B3ADE64_vcruntime_typeinfo@h DB 01H
__4638863E_typeinfo DB 01H
__E28F974E_memory DB 01H
__CECAC041_xfacet DB 01H
__59B165F6_xlocinfo DB 01H
__A7748393_xlocale DB 01H
__605412E5_xiosbase DB 01H
__8B7874EF_xlocmes DB 01H
__102707BA_cmath DB 01H
__39F3E584_xlocnum DB 01H
__1291F0BC_xlocmon DB 01H
__FDACCCE4_xloctime DB 01H
__D3011E72_ios DB 01H
__21FC1C84_fstream DB 01H
__7CEFA1A0_LT@h DB 01H
__4B315192_IT@h DB 01H
__BE522193_DP@h DB 01H
__20961129_GRB@h DB 01H
__22E0C0CC_MFST@h DB 01H
__0221B0B5_Parm@cpp DB 01H
__D7B46C6D_istream DB 01H
__B4645957_ostream DB 01H
__496265E3_locale DB 01H
__98EC3E59_streambuf DB 01H
__274BC267_iterator DB 01H
__92C84E46_iosfwd DB 01H
__660C12FD_utility DB 01H
__911385EF_xstddef DB 01H
__190E306E_xatomic@h DB 01H
msvcjmc	ENDS
PUBLIC	?__empty_global_delete@@YAXPEAX@Z		; __empty_global_delete
PUBLIC	?__empty_global_delete@@YAXPEAX_K@Z		; __empty_global_delete
PUBLIC	?wcsstr@@YAPEA_WPEA_WPEB_W@Z			; wcsstr
PUBLIC	wmemcpy
PUBLIC	??$_Maklocstr@_W@std@@YAPEA_WPEBDPEA_WAEBU_Cvtvec@@@Z ; std::_Maklocstr<wchar_t>
PUBLIC	?_Maklocwcs@std@@YAPEA_WPEB_W@Z			; std::_Maklocwcs
PUBLIC	??$_Maklocstr@D@std@@YAPEADPEBDPEADAEBU_Cvtvec@@@Z ; std::_Maklocstr<char>
PUBLIC	??$_Getvals@_W@?$time_get@DV?$istreambuf_iterator@DU?$char_traits@D@std@@@std@@@std@@IEAAX_WAEBV_Locinfo@1@@Z ; std::time_get<char,std::istreambuf_iterator<char,std::char_traits<char> > >::_Getvals<wchar_t>
PUBLIC	??$_Getvals@_W@?$time_get@_WV?$istreambuf_iterator@_WU?$char_traits@_W@std@@@std@@@std@@IEAAX_WAEBV_Locinfo@1@@Z ; std::time_get<wchar_t,std::istreambuf_iterator<wchar_t,std::char_traits<wchar_t> > >::_Getvals<wchar_t>
PUBLIC	?getparm@Parm@@YA?AUPARM@1@HPEAPEA_W@Z		; Parm::getparm
PUBLIC	??$wcscpy_s@$0BCM@@@YAHAEAY0BCM@_WPEB_W@Z	; wcscpy_s<300>
PUBLIC	??$wcscat_s@$0BCM@@@YAHAEAY0BCM@_WPEB_W@Z	; wcscat_s<300>
PUBLIC	__JustMyCode_Default
PUBLIC	??_C@_0GJ@OPFKIEFE@C?3?2Program?5Files?5?$CIx86?$CJ?2Microsof@ ; `string'
PUBLIC	?__LINE__Var@?0??_Maklocwcs@std@@YAPEA_WPEB_W@Z@4JA ; `std::_Maklocwcs'::`1'::__LINE__Var
PUBLIC	??_C@_0GJ@GMBHIGPF@C?3?2Program?5Files?5?$CIx86?$CJ?2Microsof@ ; `string'
PUBLIC	_TI1?AUERROR@Error@@
PUBLIC	_CTA1?AUERROR@Error@@
PUBLIC	??_R0?AUERROR@Error@@@8				; Error::ERROR `RTTI Type Descriptor'
PUBLIC	_CT??_R0?AUERROR@Error@@@8208
PUBLIC	??_C@_19MEBKNCJG@?$AA?9?$AAi?$AAn?$AA?3@	; `string'
PUBLIC	??_C@_1M@MJMNHEJN@?$AA?9?$AAo?$AAu?$AAt?$AA?3@	; `string'
PUBLIC	??_C@_19PLJILNEE@?$AA?4?$AAo?$AAu?$AAt@		; `string'
PUBLIC	??_C@_1M@EKMDJCEI@?$AA?9?$AAl?$AAo?$AAg?$AA?3@	; `string'
PUBLIC	??_C@_19JFPGGDCL@?$AA?4?$AAl?$AAo?$AAg@		; `string'
PUBLIC	??_C@_0N@LPFKKEBD@?3AM?3am?3PM?3pm@		; `string'
PUBLIC	??_C@_1BK@MHIKGOKE@?$AA?3?$AAA?$AAM?$AA?3?$AAa?$AAm?$AA?3?$AAP?$AAM?$AA?3?$AAp?$AAm@ ; `string'
EXTRN	memcpy:PROC
EXTRN	wcsstr:PROC
EXTRN	__imp_wcscat_s:PROC
EXTRN	__imp_wcscpy_s:PROC
EXTRN	__imp_wcslen:PROC
EXTRN	__imp__calloc_dbg:PROC
EXTRN	strlen:PROC
EXTRN	?_Xbad_alloc@std@@YAXXZ:PROC			; std::_Xbad_alloc
EXTRN	_Mbrtowc:PROC
EXTRN	__imp_?_Getcvt@_Locinfo@std@@QEBA?AU_Cvtvec@@XZ:PROC
EXTRN	__imp_?_Getdays@_Locinfo@std@@QEBAPEBDXZ:PROC
EXTRN	__imp_?_Getmonths@_Locinfo@std@@QEBAPEBDXZ:PROC
EXTRN	__imp_?_W_Getdays@_Locinfo@std@@QEBAPEBGXZ:PROC
EXTRN	__imp_?_W_Getmonths@_Locinfo@std@@QEBAPEBGXZ:PROC
EXTRN	?geterror@Error@@YA?AUERROR@1@H@Z:PROC		; Error::geterror
EXTRN	_CxxThrowException:PROC
EXTRN	_RTC_CheckStackVars:PROC
EXTRN	_RTC_InitBase:PROC
EXTRN	_RTC_Shutdown:PROC
EXTRN	_RTC_UninitUse:PROC
EXTRN	__CheckForDebuggerJustMyCode:PROC
EXTRN	__GSHandlerCheck:PROC
EXTRN	__chkstk:PROC
EXTRN	__security_check_cookie:PROC
EXTRN	??_7type_info@@6B@:BYTE				; type_info::`vftable'
EXTRN	__security_cookie:QWORD
;	COMDAT pdata
pdata	SEGMENT
$pdata$?__empty_global_delete@@YAXPEAX@Z DD imagerel $LN4
	DD	imagerel $LN4+64
	DD	imagerel $unwind$?__empty_global_delete@@YAXPEAX@Z
pdata	ENDS
;	COMDAT pdata
pdata	SEGMENT
$pdata$?__empty_global_delete@@YAXPEAX_K@Z DD imagerel $LN4
	DD	imagerel $LN4+69
	DD	imagerel $unwind$?__empty_global_delete@@YAXPEAX_K@Z
pdata	ENDS
;	COMDAT pdata
pdata	SEGMENT
$pdata$?wcsstr@@YAPEA_WPEA_WPEB_W@Z DD imagerel $LN4
	DD	imagerel $LN4+88
	DD	imagerel $unwind$?wcsstr@@YAPEA_WPEA_WPEB_W@Z
pdata	ENDS
;	COMDAT pdata
pdata	SEGMENT
$pdata$wmemcpy DD imagerel $LN4
	DD	imagerel $LN4+106
	DD	imagerel $unwind$wmemcpy
pdata	ENDS
;	COMDAT pdata
pdata	SEGMENT
$pdata$??$_Maklocstr@_W@std@@YAPEA_WPEBDPEA_WAEBU_Cvtvec@@@Z DD imagerel $LN12
	DD	imagerel $LN12+584
	DD	imagerel $unwind$??$_Maklocstr@_W@std@@YAPEA_WPEBDPEA_WAEBU_Cvtvec@@@Z
pdata	ENDS
;	COMDAT pdata
pdata	SEGMENT
$pdata$?_Maklocwcs@std@@YAPEA_WPEB_W@Z DD imagerel $LN4
	DD	imagerel $LN4+165
	DD	imagerel $unwind$?_Maklocwcs@std@@YAPEA_WPEB_W@Z
pdata	ENDS
;	COMDAT pdata
pdata	SEGMENT
$pdata$??$_Maklocstr@D@std@@YAPEADPEBDPEADAEBU_Cvtvec@@@Z DD imagerel $LN7
	DD	imagerel $LN7+223
	DD	imagerel $unwind$??$_Maklocstr@D@std@@YAPEADPEBDPEADAEBU_Cvtvec@@@Z
pdata	ENDS
;	COMDAT pdata
pdata	SEGMENT
$pdata$??$_Getvals@_W@?$time_get@DV?$istreambuf_iterator@DU?$char_traits@D@std@@@std@@@std@@IEAAX_WAEBV_Locinfo@1@@Z DD imagerel $LN5
	DD	imagerel $LN5+379
	DD	imagerel $unwind$??$_Getvals@_W@?$time_get@DV?$istreambuf_iterator@DU?$char_traits@D@std@@@std@@@std@@IEAAX_WAEBV_Locinfo@1@@Z
pdata	ENDS
;	COMDAT pdata
pdata	SEGMENT
$pdata$??$_Getvals@_W@?$time_get@_WV?$istreambuf_iterator@_WU?$char_traits@_W@std@@@std@@@std@@IEAAX_WAEBV_Locinfo@1@@Z DD imagerel $LN5
	DD	imagerel $LN5+379
	DD	imagerel $unwind$??$_Getvals@_W@?$time_get@_WV?$istreambuf_iterator@_WU?$char_traits@_W@std@@@std@@@std@@IEAAX_WAEBV_Locinfo@1@@Z
pdata	ENDS
;	COMDAT pdata
pdata	SEGMENT
$pdata$?getparm@Parm@@YA?AUPARM@1@HPEAPEA_W@Z DD imagerel $LN29
	DD	imagerel $LN29+1212
	DD	imagerel $unwind$?getparm@Parm@@YA?AUPARM@1@HPEAPEA_W@Z
pdata	ENDS
;	COMDAT pdata
pdata	SEGMENT
$pdata$??$wcscpy_s@$0BCM@@@YAHAEAY0BCM@_WPEB_W@Z DD imagerel $LN4
	DD	imagerel $LN4+94
	DD	imagerel $unwind$??$wcscpy_s@$0BCM@@@YAHAEAY0BCM@_WPEB_W@Z
pdata	ENDS
;	COMDAT pdata
pdata	SEGMENT
$pdata$??$wcscat_s@$0BCM@@@YAHAEAY0BCM@_WPEB_W@Z DD imagerel $LN4
	DD	imagerel $LN4+94
	DD	imagerel $unwind$??$wcscat_s@$0BCM@@@YAHAEAY0BCM@_WPEB_W@Z
pdata	ENDS
;	COMDAT rtc$TMZ
rtc$TMZ	SEGMENT
_RTC_Shutdown.rtc$TMZ DQ FLAT:_RTC_Shutdown
rtc$TMZ	ENDS
;	COMDAT rtc$IMZ
rtc$IMZ	SEGMENT
_RTC_InitBase.rtc$IMZ DQ FLAT:_RTC_InitBase
rtc$IMZ	ENDS
;	COMDAT ??_C@_1BK@MHIKGOKE@?$AA?3?$AAA?$AAM?$AA?3?$AAa?$AAm?$AA?3?$AAP?$AAM?$AA?3?$AAp?$AAm@
CONST	SEGMENT
??_C@_1BK@MHIKGOKE@?$AA?3?$AAA?$AAM?$AA?3?$AAa?$AAm?$AA?3?$AAP?$AAM?$AA?3?$AAp?$AAm@ DB ':'
	DB	00H, 'A', 00H, 'M', 00H, ':', 00H, 'a', 00H, 'm', 00H, ':', 00H
	DB	'P', 00H, 'M', 00H, ':', 00H, 'p', 00H, 'm', 00H, 00H, 00H ; `string'
CONST	ENDS
;	COMDAT ??_C@_0N@LPFKKEBD@?3AM?3am?3PM?3pm@
CONST	SEGMENT
??_C@_0N@LPFKKEBD@?3AM?3am?3PM?3pm@ DB ':AM:am:PM:pm', 00H ; `string'
CONST	ENDS
;	COMDAT ??_C@_19JFPGGDCL@?$AA?4?$AAl?$AAo?$AAg@
CONST	SEGMENT
??_C@_19JFPGGDCL@?$AA?4?$AAl?$AAo?$AAg@ DB '.', 00H, 'l', 00H, 'o', 00H, 'g'
	DB	00H, 00H, 00H				; `string'
CONST	ENDS
;	COMDAT ??_C@_1M@EKMDJCEI@?$AA?9?$AAl?$AAo?$AAg?$AA?3@
CONST	SEGMENT
??_C@_1M@EKMDJCEI@?$AA?9?$AAl?$AAo?$AAg?$AA?3@ DB '-', 00H, 'l', 00H, 'o', 00H
	DB	'g', 00H, ':', 00H, 00H, 00H			; `string'
CONST	ENDS
;	COMDAT ??_C@_19PLJILNEE@?$AA?4?$AAo?$AAu?$AAt@
CONST	SEGMENT
??_C@_19PLJILNEE@?$AA?4?$AAo?$AAu?$AAt@ DB '.', 00H, 'o', 00H, 'u', 00H, 't'
	DB	00H, 00H, 00H				; `string'
CONST	ENDS
;	COMDAT ??_C@_1M@MJMNHEJN@?$AA?9?$AAo?$AAu?$AAt?$AA?3@
CONST	SEGMENT
??_C@_1M@MJMNHEJN@?$AA?9?$AAo?$AAu?$AAt?$AA?3@ DB '-', 00H, 'o', 00H, 'u', 00H
	DB	't', 00H, ':', 00H, 00H, 00H			; `string'
CONST	ENDS
;	COMDAT ??_C@_19MEBKNCJG@?$AA?9?$AAi?$AAn?$AA?3@
CONST	SEGMENT
??_C@_19MEBKNCJG@?$AA?9?$AAi?$AAn?$AA?3@ DB '-', 00H, 'i', 00H, 'n', 00H, ':'
	DB	00H, 00H, 00H				; `string'
CONST	ENDS
;	COMDAT _CT??_R0?AUERROR@Error@@@8208
xdata$x	SEGMENT
_CT??_R0?AUERROR@Error@@@8208 DD 00H
	DD	imagerel ??_R0?AUERROR@Error@@@8
	DD	00H
	DD	0ffffffffH
	ORG $+4
	DD	0d0H
	DD	00H
xdata$x	ENDS
;	COMDAT ??_R0?AUERROR@Error@@@8
data$r	SEGMENT
??_R0?AUERROR@Error@@@8 DQ FLAT:??_7type_info@@6B@	; Error::ERROR `RTTI Type Descriptor'
	DQ	0000000000000000H
	DB	'.?AUERROR@Error@@', 00H
data$r	ENDS
;	COMDAT _CTA1?AUERROR@Error@@
xdata$x	SEGMENT
_CTA1?AUERROR@Error@@ DD 01H
	DD	imagerel _CT??_R0?AUERROR@Error@@@8208
xdata$x	ENDS
;	COMDAT _TI1?AUERROR@Error@@
xdata$x	SEGMENT
_TI1?AUERROR@Error@@ DD 00H
	DD	00H
	DD	00H
	DD	imagerel _CTA1?AUERROR@Error@@
xdata$x	ENDS
;	COMDAT ??_C@_0GJ@GMBHIGPF@C?3?2Program?5Files?5?$CIx86?$CJ?2Microsof@
CONST	SEGMENT
??_C@_0GJ@GMBHIGPF@C?3?2Program?5Files?5?$CIx86?$CJ?2Microsof@ DB 'C:\Pro'
	DB	'gram Files (x86)\Microsoft Visual Studio\2019\Enterprise\VC\T'
	DB	'ools\MSVC\14.27.29110\include\xlocnum', 00H	; `string'
CONST	ENDS
;	COMDAT ?__LINE__Var@?0??_Maklocwcs@std@@YAPEA_WPEB_W@Z@4JA
_DATA	SEGMENT
?__LINE__Var@?0??_Maklocwcs@std@@YAPEA_WPEB_W@Z@4JA DD 05aH ; `std::_Maklocwcs'::`1'::__LINE__Var
_DATA	ENDS
;	COMDAT ??_C@_0GJ@OPFKIEFE@C?3?2Program?5Files?5?$CIx86?$CJ?2Microsof@
CONST	SEGMENT
??_C@_0GJ@OPFKIEFE@C?3?2Program?5Files?5?$CIx86?$CJ?2Microsof@ DB 'C:\Pro'
	DB	'gram Files (x86)\Microsoft Visual Studio\2019\Enterprise\VC\T'
	DB	'ools\MSVC\14.27.29110\include\xlocale', 00H	; `string'
CONST	ENDS
;	COMDAT xdata
xdata	SEGMENT
$unwind$??$wcscat_s@$0BCM@@@YAHAEAY0BCM@_WPEB_W@Z DD 025052f01H
	DD	01132318H
	DD	0700c001dH
	DD	0500bH
xdata	ENDS
;	COMDAT xdata
xdata	SEGMENT
$unwind$??$wcscpy_s@$0BCM@@@YAHAEAY0BCM@_WPEB_W@Z DD 025052f01H
	DD	01132318H
	DD	0700c001dH
	DD	0500bH
xdata	ENDS
;	COMDAT xdata
xdata	SEGMENT
$unwind$?getparm@Parm@@YA?AUPARM@1@HPEAPEA_W@Z DD 025064b19H
	DD	011e2323H
	DD	07011032aH
	DD	0500f6010H
	DD	imagerel __GSHandlerCheck
	DD	01948H
xdata	ENDS
;	COMDAT CONST
CONST	SEGMENT
?getparm@Parm@@YA?AUPARM@1@HPEAPEA_W@Z$rtcName$0 DB 070H ; Parm::getparm
	DB	061H
	DB	072H
	DB	06dH
	DB	00H
	ORG $+11
?getparm@Parm@@YA?AUPARM@1@HPEAPEA_W@Z$rtcVarDesc DD 030H ; Parm::getparm
	DD	0708H
	DQ	FLAT:?getparm@Parm@@YA?AUPARM@1@HPEAPEA_W@Z$rtcName$0
	ORG $+48
?getparm@Parm@@YA?AUPARM@1@HPEAPEA_W@Z$rtcFrameData DD 01H ; Parm::getparm
	DD	00H
	DQ	FLAT:?getparm@Parm@@YA?AUPARM@1@HPEAPEA_W@Z$rtcVarDesc
CONST	ENDS
;	COMDAT xdata
xdata	SEGMENT
$unwind$??$_Getvals@_W@?$time_get@_WV?$istreambuf_iterator@_WU?$char_traits@_W@std@@@std@@@std@@IEAAX_WAEBV_Locinfo@1@@Z DD 025063501H
	DD	0119231eH
	DD	070120026H
	DD	050106011H
xdata	ENDS
;	COMDAT xdata
xdata	SEGMENT
$unwind$??$_Getvals@_W@?$time_get@DV?$istreambuf_iterator@DU?$char_traits@D@std@@@std@@@std@@IEAAX_WAEBV_Locinfo@1@@Z DD 025063501H
	DD	0119231eH
	DD	070120026H
	DD	050106011H
xdata	ENDS
;	COMDAT xdata
xdata	SEGMENT
$unwind$??$_Maklocstr@D@std@@YAPEADPEBDPEADAEBU_Cvtvec@@@Z DD 035053401H
	DD	0118331dH
	DD	07011002bH
	DD	05010H
xdata	ENDS
;	COMDAT xdata
xdata	SEGMENT
$unwind$?_Maklocwcs@std@@YAPEA_WPEB_W@Z DD 035052a01H
	DD	010e3313H
	DD	070070027H
	DD	05006H
xdata	ENDS
;	COMDAT xdata
xdata	SEGMENT
$unwind$??$_Maklocstr@_W@std@@YAPEA_WPEBDPEA_WAEBU_Cvtvec@@@Z DD 035054519H
	DD	0118331dH
	DD	070110047H
	DD	05010H
	DD	imagerel __GSHandlerCheck
	DD	0228H
xdata	ENDS
;	COMDAT CONST
CONST	SEGMENT
??$_Maklocstr@_W@std@@YAPEA_WPEBDPEA_WAEBU_Cvtvec@@@Z$rtcName$0 DB 05fH ; std::_Maklocstr<wchar_t>
	DB	057H
	DB	063H
	DB	00H
??$_Maklocstr@_W@std@@YAPEA_WPEBDPEA_WAEBU_Cvtvec@@@Z$rtcName$1 DB 05fH ; std::_Maklocstr<wchar_t>
	DB	04dH
	DB	062H
	DB	073H
	DB	074H
	DB	031H
	DB	00H
	ORG $+1
??$_Maklocstr@_W@std@@YAPEA_WPEBDPEA_WAEBU_Cvtvec@@@Z$rtcName$2 DB 05fH ; std::_Maklocstr<wchar_t>
	DB	04dH
	DB	062H
	DB	073H
	DB	074H
	DB	032H
	DB	00H
	ORG $+13
??$_Maklocstr@_W@std@@YAPEA_WPEBDPEA_WAEBU_Cvtvec@@@Z$rtcVarDesc DD 0158H ; std::_Maklocstr<wchar_t>
	DD	08H
	DQ	FLAT:??$_Maklocstr@_W@std@@YAPEA_WPEBDPEA_WAEBU_Cvtvec@@@Z$rtcName$2
	DD	0f8H
	DD	08H
	DQ	FLAT:??$_Maklocstr@_W@std@@YAPEA_WPEBDPEA_WAEBU_Cvtvec@@@Z$rtcName$1
	DD	0d4H
	DD	02H
	DQ	FLAT:??$_Maklocstr@_W@std@@YAPEA_WPEBDPEA_WAEBU_Cvtvec@@@Z$rtcName$0
	ORG $+144
??$_Maklocstr@_W@std@@YAPEA_WPEBDPEA_WAEBU_Cvtvec@@@Z$rtcFrameData DD 03H ; std::_Maklocstr<wchar_t>
	DD	00H
	DQ	FLAT:??$_Maklocstr@_W@std@@YAPEA_WPEBDPEA_WAEBU_Cvtvec@@@Z$rtcVarDesc
CONST	ENDS
;	COMDAT xdata
xdata	SEGMENT
$unwind$wmemcpy DD 025053401H
	DD	0118231dH
	DD	07011001dH
	DD	05010H
xdata	ENDS
;	COMDAT xdata
xdata	SEGMENT
$unwind$?wcsstr@@YAPEA_WPEA_WPEB_W@Z DD 025052f01H
	DD	01132318H
	DD	0700c001dH
	DD	0500bH
xdata	ENDS
;	COMDAT xdata
xdata	SEGMENT
$unwind$?__empty_global_delete@@YAXPEAX_K@Z DD 025052f01H
	DD	01132318H
	DD	0700c001dH
	DD	0500bH
xdata	ENDS
;	COMDAT xdata
xdata	SEGMENT
$unwind$?__empty_global_delete@@YAXPEAX@Z DD 025052a01H
	DD	010e2313H
	DD	07007001dH
	DD	05006H
xdata	ENDS
; Function compile flags: /Odt
;	COMDAT __JustMyCode_Default
_TEXT	SEGMENT
__JustMyCode_Default PROC				; COMDAT
  00000	c2 00 00	 ret	 0
__JustMyCode_Default ENDP
_TEXT	ENDS
; Function compile flags: /Odtp /RTCsu /ZI
; File C:\Program Files (x86)\Windows Kits\10\Include\10.0.18362.0\ucrt\corecrt_wstring.h
;	COMDAT ??$wcscat_s@$0BCM@@@YAHAEAY0BCM@_WPEB_W@Z
_TEXT	SEGMENT
_Destination$ = 224
_Source$ = 232
??$wcscat_s@$0BCM@@@YAHAEAY0BCM@_WPEB_W@Z PROC		; wcscat_s<300>, COMDAT

; 89   : __DEFINE_CPP_OVERLOAD_SECURE_FUNC_0_1(

$LN4:
  00000	48 89 54 24 10	 mov	 QWORD PTR [rsp+16], rdx
  00005	48 89 4c 24 08	 mov	 QWORD PTR [rsp+8], rcx
  0000a	55		 push	 rbp
  0000b	57		 push	 rdi
  0000c	48 81 ec e8 00
	00 00		 sub	 rsp, 232		; 000000e8H
  00013	48 8d 6c 24 20	 lea	 rbp, QWORD PTR [rsp+32]
  00018	48 8b fc	 mov	 rdi, rsp
  0001b	b9 3a 00 00 00	 mov	 ecx, 58			; 0000003aH
  00020	b8 cc cc cc cc	 mov	 eax, -858993460		; ccccccccH
  00025	f3 ab		 rep stosd
  00027	48 8b 8c 24 08
	01 00 00	 mov	 rcx, QWORD PTR [rsp+264]
  0002f	48 8d 0d 00 00
	00 00		 lea	 rcx, OFFSET FLAT:__DC9673E3_corecrt_wstring@h
  00036	e8 00 00 00 00	 call	 __CheckForDebuggerJustMyCode
  0003b	4c 8b 85 e8 00
	00 00		 mov	 r8, QWORD PTR _Source$[rbp]
  00042	ba 2c 01 00 00	 mov	 edx, 300		; 0000012cH
  00047	48 8b 8d e0 00
	00 00		 mov	 rcx, QWORD PTR _Destination$[rbp]
  0004e	ff 15 00 00 00
	00		 call	 QWORD PTR __imp_wcscat_s
  00054	48 8d a5 c8 00
	00 00		 lea	 rsp, QWORD PTR [rbp+200]
  0005b	5f		 pop	 rdi
  0005c	5d		 pop	 rbp
  0005d	c3		 ret	 0
??$wcscat_s@$0BCM@@@YAHAEAY0BCM@_WPEB_W@Z ENDP		; wcscat_s<300>
_TEXT	ENDS
; Function compile flags: /Odtp /RTCsu /ZI
; File C:\Program Files (x86)\Windows Kits\10\Include\10.0.18362.0\ucrt\corecrt_wstring.h
;	COMDAT ??$wcscpy_s@$0BCM@@@YAHAEAY0BCM@_WPEB_W@Z
_TEXT	SEGMENT
_Destination$ = 224
_Source$ = 232
??$wcscpy_s@$0BCM@@@YAHAEAY0BCM@_WPEB_W@Z PROC		; wcscpy_s<300>, COMDAT

; 114  : __DEFINE_CPP_OVERLOAD_SECURE_FUNC_0_1(

$LN4:
  00000	48 89 54 24 10	 mov	 QWORD PTR [rsp+16], rdx
  00005	48 89 4c 24 08	 mov	 QWORD PTR [rsp+8], rcx
  0000a	55		 push	 rbp
  0000b	57		 push	 rdi
  0000c	48 81 ec e8 00
	00 00		 sub	 rsp, 232		; 000000e8H
  00013	48 8d 6c 24 20	 lea	 rbp, QWORD PTR [rsp+32]
  00018	48 8b fc	 mov	 rdi, rsp
  0001b	b9 3a 00 00 00	 mov	 ecx, 58			; 0000003aH
  00020	b8 cc cc cc cc	 mov	 eax, -858993460		; ccccccccH
  00025	f3 ab		 rep stosd
  00027	48 8b 8c 24 08
	01 00 00	 mov	 rcx, QWORD PTR [rsp+264]
  0002f	48 8d 0d 00 00
	00 00		 lea	 rcx, OFFSET FLAT:__DC9673E3_corecrt_wstring@h
  00036	e8 00 00 00 00	 call	 __CheckForDebuggerJustMyCode
  0003b	4c 8b 85 e8 00
	00 00		 mov	 r8, QWORD PTR _Source$[rbp]
  00042	ba 2c 01 00 00	 mov	 edx, 300		; 0000012cH
  00047	48 8b 8d e0 00
	00 00		 mov	 rcx, QWORD PTR _Destination$[rbp]
  0004e	ff 15 00 00 00
	00		 call	 QWORD PTR __imp_wcscpy_s
  00054	48 8d a5 c8 00
	00 00		 lea	 rsp, QWORD PTR [rbp+200]
  0005b	5f		 pop	 rdi
  0005c	5d		 pop	 rbp
  0005d	c3		 ret	 0
??$wcscpy_s@$0BCM@@@YAHAEAY0BCM@_WPEB_W@Z ENDP		; wcscpy_s<300>
_TEXT	ENDS
; Function compile flags: /Odtp /RTCsu /ZI
; File C:\Users\Skvortsoff\OneDrive\Документы\GitHub\course_LP\course_LP\Parm.cpp
;	COMDAT ?getparm@Parm@@YA?AUPARM@1@HPEAPEA_W@Z
_TEXT	SEGMENT
parm$ = 16
ptr_in$ = 1848
ptr_out$ = 1880
ptr_log$ = 1912
i$4 = 1940
in$5 = 1972
$T6 = 3552
$T7 = 3792
$T8 = 4024
$T9 = 4272
$T10 = 4512
$T11 = 4744
$T12 = 4992
$T13 = 5232
$T14 = 5464
$T15 = 5712
$T16 = 5952
$T17 = 6184
$T18 = 6420
__$ArrayPad$ = 6440
$T19 = 6480
argc$ = 6488
argv$ = 6496
?getparm@Parm@@YA?AUPARM@1@HPEAPEA_W@Z PROC		; Parm::getparm, COMDAT

; 7    : 	{

$LN29:
  00000	4c 89 44 24 18	 mov	 QWORD PTR [rsp+24], r8
  00005	89 54 24 10	 mov	 DWORD PTR [rsp+16], edx
  00009	48 89 4c 24 08	 mov	 QWORD PTR [rsp+8], rcx
  0000e	55		 push	 rbp
  0000f	56		 push	 rsi
  00010	57		 push	 rdi
  00011	b8 50 19 00 00	 mov	 eax, 6480		; 00001950H
  00016	e8 00 00 00 00	 call	 __chkstk
  0001b	48 2b e0	 sub	 rsp, rax
  0001e	48 8d 6c 24 20	 lea	 rbp, QWORD PTR [rsp+32]
  00023	48 8b fc	 mov	 rdi, rsp
  00026	b9 54 06 00 00	 mov	 ecx, 1620		; 00000654H
  0002b	b8 cc cc cc cc	 mov	 eax, -858993460		; ccccccccH
  00030	f3 ab		 rep stosd
  00032	48 8b 8c 24 78
	19 00 00	 mov	 rcx, QWORD PTR [rsp+6520]
  0003a	48 8b 05 00 00
	00 00		 mov	 rax, QWORD PTR __security_cookie
  00041	48 33 c5	 xor	 rax, rbp
  00044	48 89 85 28 19
	00 00		 mov	 QWORD PTR __$ArrayPad$[rbp], rax
  0004b	c6 85 14 19 00
	00 00		 mov	 BYTE PTR $T18[rbp], 0
  00052	48 8d 0d 00 00
	00 00		 lea	 rcx, OFFSET FLAT:__0221B0B5_Parm@cpp
  00059	e8 00 00 00 00	 call	 __CheckForDebuggerJustMyCode

; 8    : 		if (argc == 1)

  0005e	83 bd 58 19 00
	00 01		 cmp	 DWORD PTR argc$[rbp], 1
  00065	75 53		 jne	 SHORT $LN5@getparm

; 9    : 			throw ERROR_THROW(100);

  00067	ba 64 00 00 00	 mov	 edx, 100		; 00000064H
  0006c	48 8d 8d b8 0f
	00 00		 lea	 rcx, QWORD PTR $T8[rbp]
  00073	e8 00 00 00 00	 call	 ?geterror@Error@@YA?AUERROR@1@H@Z ; Error::geterror
  00078	48 8d 8d d0 0e
	00 00		 lea	 rcx, QWORD PTR $T7[rbp]
  0007f	48 8b f9	 mov	 rdi, rcx
  00082	48 8b f0	 mov	 rsi, rax
  00085	b9 d0 00 00 00	 mov	 ecx, 208		; 000000d0H
  0008a	f3 a4		 rep movsb
  0008c	48 8d 85 e0 0d
	00 00		 lea	 rax, QWORD PTR $T6[rbp]
  00093	48 8d 8d d0 0e
	00 00		 lea	 rcx, QWORD PTR $T7[rbp]
  0009a	48 8b f8	 mov	 rdi, rax
  0009d	48 8b f1	 mov	 rsi, rcx
  000a0	b9 d0 00 00 00	 mov	 ecx, 208		; 000000d0H
  000a5	f3 a4		 rep movsb
  000a7	48 8d 15 00 00
	00 00		 lea	 rdx, OFFSET FLAT:_TI1?AUERROR@Error@@
  000ae	48 8d 8d e0 0d
	00 00		 lea	 rcx, QWORD PTR $T6[rbp]
  000b5	e8 00 00 00 00	 call	 _CxxThrowException
$LN5@getparm:

; 10   : 		if (argc > 4)

  000ba	83 bd 58 19 00
	00 04		 cmp	 DWORD PTR argc$[rbp], 4
  000c1	7e 53		 jle	 SHORT $LN6@getparm

; 11   : 			throw ERROR_THROW(101);

  000c3	ba 65 00 00 00	 mov	 edx, 101		; 00000065H
  000c8	48 8d 8d 88 12
	00 00		 lea	 rcx, QWORD PTR $T11[rbp]
  000cf	e8 00 00 00 00	 call	 ?geterror@Error@@YA?AUERROR@1@H@Z ; Error::geterror
  000d4	48 8d 8d a0 11
	00 00		 lea	 rcx, QWORD PTR $T10[rbp]
  000db	48 8b f9	 mov	 rdi, rcx
  000de	48 8b f0	 mov	 rsi, rax
  000e1	b9 d0 00 00 00	 mov	 ecx, 208		; 000000d0H
  000e6	f3 a4		 rep movsb
  000e8	48 8d 85 b0 10
	00 00		 lea	 rax, QWORD PTR $T9[rbp]
  000ef	48 8d 8d a0 11
	00 00		 lea	 rcx, QWORD PTR $T10[rbp]
  000f6	48 8b f8	 mov	 rdi, rax
  000f9	48 8b f1	 mov	 rsi, rcx
  000fc	b9 d0 00 00 00	 mov	 ecx, 208		; 000000d0H
  00101	f3 a4		 rep movsb
  00103	48 8d 15 00 00
	00 00		 lea	 rdx, OFFSET FLAT:_TI1?AUERROR@Error@@
  0010a	48 8d 8d b0 10
	00 00		 lea	 rcx, QWORD PTR $T9[rbp]
  00111	e8 00 00 00 00	 call	 _CxxThrowException
$LN6@getparm:

; 12   : 
; 13   : 		PARM parm;
; 14   : 		
; 15   : 
; 16   : 		//-------------ptr-for-strs-----------------
; 17   : 		wchar_t* ptr_in = nullptr;

  00116	48 c7 85 38 07
	00 00 00 00 00
	00		 mov	 QWORD PTR ptr_in$[rbp], 0

; 18   : 		wchar_t* ptr_out = nullptr;

  00121	48 c7 85 58 07
	00 00 00 00 00
	00		 mov	 QWORD PTR ptr_out$[rbp], 0

; 19   : 		wchar_t* ptr_log = nullptr;

  0012c	48 c7 85 78 07
	00 00 00 00 00
	00		 mov	 QWORD PTR ptr_log$[rbp], 0

; 20   : 		//------------------------------------------
; 21   : 
; 22   : 		for (int i = 1, in = 0; i < argc; i++) {

  00137	c7 85 94 07 00
	00 01 00 00 00	 mov	 DWORD PTR i$4[rbp], 1
  00141	c7 85 b4 07 00
	00 00 00 00 00	 mov	 DWORD PTR in$5[rbp], 0
  0014b	eb 0e		 jmp	 SHORT $LN4@getparm
$LN2@getparm:
  0014d	8b 85 94 07 00
	00		 mov	 eax, DWORD PTR i$4[rbp]
  00153	ff c0		 inc	 eax
  00155	89 85 94 07 00
	00		 mov	 DWORD PTR i$4[rbp], eax
$LN4@getparm:
  0015b	8b 85 58 19 00
	00		 mov	 eax, DWORD PTR argc$[rbp]
  00161	39 85 94 07 00
	00		 cmp	 DWORD PTR i$4[rbp], eax
  00167	0f 8d ed 01 00
	00		 jge	 $LN3@getparm

; 23   : 
; 24   : 			if (wcslen(argv[i]) > PARM_MAX_SIZE)

  0016d	48 63 85 94 07
	00 00		 movsxd	 rax, DWORD PTR i$4[rbp]
  00174	48 8b 8d 60 19
	00 00		 mov	 rcx, QWORD PTR argv$[rbp]
  0017b	48 8b 0c c1	 mov	 rcx, QWORD PTR [rcx+rax*8]
  0017f	ff 15 00 00 00
	00		 call	 QWORD PTR __imp_wcslen
  00185	48 3d 2c 01 00
	00		 cmp	 rax, 300		; 0000012cH
  0018b	76 53		 jbe	 SHORT $LN7@getparm

; 25   : 				throw ERROR_THROW(104);

  0018d	ba 68 00 00 00	 mov	 edx, 104		; 00000068H
  00192	48 8d 8d 58 15
	00 00		 lea	 rcx, QWORD PTR $T14[rbp]
  00199	e8 00 00 00 00	 call	 ?geterror@Error@@YA?AUERROR@1@H@Z ; Error::geterror
  0019e	48 8d 8d 70 14
	00 00		 lea	 rcx, QWORD PTR $T13[rbp]
  001a5	48 8b f9	 mov	 rdi, rcx
  001a8	48 8b f0	 mov	 rsi, rax
  001ab	b9 d0 00 00 00	 mov	 ecx, 208		; 000000d0H
  001b0	f3 a4		 rep movsb
  001b2	48 8d 85 80 13
	00 00		 lea	 rax, QWORD PTR $T12[rbp]
  001b9	48 8d 8d 70 14
	00 00		 lea	 rcx, QWORD PTR $T13[rbp]
  001c0	48 8b f8	 mov	 rdi, rax
  001c3	48 8b f1	 mov	 rsi, rcx
  001c6	b9 d0 00 00 00	 mov	 ecx, 208		; 000000d0H
  001cb	f3 a4		 rep movsb
  001cd	48 8d 15 00 00
	00 00		 lea	 rdx, OFFSET FLAT:_TI1?AUERROR@Error@@
  001d4	48 8d 8d 80 13
	00 00		 lea	 rcx, QWORD PTR $T12[rbp]
  001db	e8 00 00 00 00	 call	 _CxxThrowException
$LN7@getparm:

; 26   : 
; 27   : 			if (!ptr_in)

  001e0	48 83 bd 38 07
	00 00 00	 cmp	 QWORD PTR ptr_in$[rbp], 0
  001e8	75 5f		 jne	 SHORT $LN8@getparm

; 28   : 			{
; 29   : 				if (ptr_in = wcsstr(argv[i], PARM_IN))

  001ea	48 63 85 94 07
	00 00		 movsxd	 rax, DWORD PTR i$4[rbp]
  001f1	48 8d 15 00 00
	00 00		 lea	 rdx, OFFSET FLAT:??_C@_19MEBKNCJG@?$AA?9?$AAi?$AAn?$AA?3@
  001f8	48 8b 8d 60 19
	00 00		 mov	 rcx, QWORD PTR argv$[rbp]
  001ff	48 8b 0c c1	 mov	 rcx, QWORD PTR [rcx+rax*8]
  00203	e8 00 00 00 00	 call	 ?wcsstr@@YAPEA_WPEA_WPEB_W@Z ; wcsstr
  00208	48 89 85 38 07
	00 00		 mov	 QWORD PTR ptr_in$[rbp], rax
  0020f	48 83 bd 38 07
	00 00 00	 cmp	 QWORD PTR ptr_in$[rbp], 0
  00217	74 30		 je	 SHORT $LN9@getparm

; 30   : 				{
; 31   : 					wcscpy_s(parm.in, (ptr_in + wcslen(PARM_IN)));

  00219	48 8d 0d 00 00
	00 00		 lea	 rcx, OFFSET FLAT:??_C@_19MEBKNCJG@?$AA?9?$AAi?$AAn?$AA?3@
  00220	ff 15 00 00 00
	00		 call	 QWORD PTR __imp_wcslen
  00226	48 8b 8d 38 07
	00 00		 mov	 rcx, QWORD PTR ptr_in$[rbp]
  0022d	48 8d 04 41	 lea	 rax, QWORD PTR [rcx+rax*2]
  00231	c6 85 14 19 00
	00 01		 mov	 BYTE PTR $T18[rbp], 1
  00238	48 8b d0	 mov	 rdx, rax
  0023b	48 8d 4d 10	 lea	 rcx, QWORD PTR parm$[rbp]
  0023f	e8 00 00 00 00	 call	 ??$wcscpy_s@$0BCM@@@YAHAEAY0BCM@_WPEB_W@Z ; wcscpy_s<300>

; 32   : 					continue;

  00244	e9 04 ff ff ff	 jmp	 $LN2@getparm
$LN9@getparm:
$LN8@getparm:

; 33   : 				}
; 34   : 			}
; 35   : 
; 36   : 			if (!ptr_out)

  00249	48 83 bd 58 07
	00 00 00	 cmp	 QWORD PTR ptr_out$[rbp], 0
  00251	75 7c		 jne	 SHORT $LN10@getparm

; 37   : 			{
; 38   : 				if (ptr_out = wcsstr(argv[i], PARM_OUT))

  00253	48 63 85 94 07
	00 00		 movsxd	 rax, DWORD PTR i$4[rbp]
  0025a	48 8d 15 00 00
	00 00		 lea	 rdx, OFFSET FLAT:??_C@_1M@MJMNHEJN@?$AA?9?$AAo?$AAu?$AAt?$AA?3@
  00261	48 8b 8d 60 19
	00 00		 mov	 rcx, QWORD PTR argv$[rbp]
  00268	48 8b 0c c1	 mov	 rcx, QWORD PTR [rcx+rax*8]
  0026c	e8 00 00 00 00	 call	 ?wcsstr@@YAPEA_WPEA_WPEB_W@Z ; wcsstr
  00271	48 89 85 58 07
	00 00		 mov	 QWORD PTR ptr_out$[rbp], rax
  00278	48 83 bd 58 07
	00 00 00	 cmp	 QWORD PTR ptr_out$[rbp], 0
  00280	74 4d		 je	 SHORT $LN11@getparm

; 39   : 				{
; 40   : 					wcscpy_s(parm.out, (ptr_out + wcslen(PARM_OUT)));

  00282	48 8d 0d 00 00
	00 00		 lea	 rcx, OFFSET FLAT:??_C@_1M@MJMNHEJN@?$AA?9?$AAo?$AAu?$AAt?$AA?3@
  00289	ff 15 00 00 00
	00		 call	 QWORD PTR __imp_wcslen
  0028f	48 8b 8d 58 07
	00 00		 mov	 rcx, QWORD PTR ptr_out$[rbp]
  00296	48 8d 04 41	 lea	 rax, QWORD PTR [rcx+rax*2]
  0029a	c6 85 14 19 00
	00 01		 mov	 BYTE PTR $T18[rbp], 1
  002a1	48 8b d0	 mov	 rdx, rax
  002a4	48 8d 8d 68 02
	00 00		 lea	 rcx, QWORD PTR parm$[rbp+600]
  002ab	e8 00 00 00 00	 call	 ??$wcscpy_s@$0BCM@@@YAHAEAY0BCM@_WPEB_W@Z ; wcscpy_s<300>

; 41   : 					wcscat_s(parm.out, PARM_OUT_DEFAULT_EXT);

  002b0	c6 85 14 19 00
	00 01		 mov	 BYTE PTR $T18[rbp], 1
  002b7	48 8d 15 00 00
	00 00		 lea	 rdx, OFFSET FLAT:??_C@_19PLJILNEE@?$AA?4?$AAo?$AAu?$AAt@
  002be	48 8d 8d 68 02
	00 00		 lea	 rcx, QWORD PTR parm$[rbp+600]
  002c5	e8 00 00 00 00	 call	 ??$wcscat_s@$0BCM@@@YAHAEAY0BCM@_WPEB_W@Z ; wcscat_s<300>

; 42   : 					continue;

  002ca	e9 7e fe ff ff	 jmp	 $LN2@getparm
$LN11@getparm:
$LN10@getparm:

; 43   : 				}
; 44   : 			}
; 45   : 
; 46   : 			if (!ptr_log)

  002cf	48 83 bd 78 07
	00 00 00	 cmp	 QWORD PTR ptr_log$[rbp], 0
  002d7	75 7c		 jne	 SHORT $LN12@getparm

; 47   : 			{
; 48   : 				if (ptr_log = wcsstr(argv[i], PARM_LOG))

  002d9	48 63 85 94 07
	00 00		 movsxd	 rax, DWORD PTR i$4[rbp]
  002e0	48 8d 15 00 00
	00 00		 lea	 rdx, OFFSET FLAT:??_C@_1M@EKMDJCEI@?$AA?9?$AAl?$AAo?$AAg?$AA?3@
  002e7	48 8b 8d 60 19
	00 00		 mov	 rcx, QWORD PTR argv$[rbp]
  002ee	48 8b 0c c1	 mov	 rcx, QWORD PTR [rcx+rax*8]
  002f2	e8 00 00 00 00	 call	 ?wcsstr@@YAPEA_WPEA_WPEB_W@Z ; wcsstr
  002f7	48 89 85 78 07
	00 00		 mov	 QWORD PTR ptr_log$[rbp], rax
  002fe	48 83 bd 78 07
	00 00 00	 cmp	 QWORD PTR ptr_log$[rbp], 0
  00306	74 4d		 je	 SHORT $LN13@getparm

; 49   : 				{
; 50   : 					wcscpy_s(parm.log, (ptr_log + wcslen(PARM_LOG)));

  00308	48 8d 0d 00 00
	00 00		 lea	 rcx, OFFSET FLAT:??_C@_1M@EKMDJCEI@?$AA?9?$AAl?$AAo?$AAg?$AA?3@
  0030f	ff 15 00 00 00
	00		 call	 QWORD PTR __imp_wcslen
  00315	48 8b 8d 78 07
	00 00		 mov	 rcx, QWORD PTR ptr_log$[rbp]
  0031c	48 8d 04 41	 lea	 rax, QWORD PTR [rcx+rax*2]
  00320	c6 85 14 19 00
	00 01		 mov	 BYTE PTR $T18[rbp], 1
  00327	48 8b d0	 mov	 rdx, rax
  0032a	48 8d 8d c0 04
	00 00		 lea	 rcx, QWORD PTR parm$[rbp+1200]
  00331	e8 00 00 00 00	 call	 ??$wcscpy_s@$0BCM@@@YAHAEAY0BCM@_WPEB_W@Z ; wcscpy_s<300>

; 51   : 					wcscat_s(parm.log, PARM_LOG_DEFAULT_EXT);

  00336	c6 85 14 19 00
	00 01		 mov	 BYTE PTR $T18[rbp], 1
  0033d	48 8d 15 00 00
	00 00		 lea	 rdx, OFFSET FLAT:??_C@_19JFPGGDCL@?$AA?4?$AAl?$AAo?$AAg@
  00344	48 8d 8d c0 04
	00 00		 lea	 rcx, QWORD PTR parm$[rbp+1200]
  0034b	e8 00 00 00 00	 call	 ??$wcscat_s@$0BCM@@@YAHAEAY0BCM@_WPEB_W@Z ; wcscat_s<300>

; 52   : 					continue;

  00350	e9 f8 fd ff ff	 jmp	 $LN2@getparm
$LN13@getparm:
$LN12@getparm:

; 53   : 				}
; 54   : 			}
; 55   : 
; 56   : 		}

  00355	e9 f3 fd ff ff	 jmp	 $LN2@getparm
$LN3@getparm:

; 57   : 
; 58   : 		if (!ptr_in)

  0035a	48 83 bd 38 07
	00 00 00	 cmp	 QWORD PTR ptr_in$[rbp], 0
  00362	75 53		 jne	 SHORT $LN14@getparm

; 59   : 			throw ERROR_THROW(100);

  00364	ba 64 00 00 00	 mov	 edx, 100		; 00000064H
  00369	48 8d 8d 28 18
	00 00		 lea	 rcx, QWORD PTR $T17[rbp]
  00370	e8 00 00 00 00	 call	 ?geterror@Error@@YA?AUERROR@1@H@Z ; Error::geterror
  00375	48 8d 8d 40 17
	00 00		 lea	 rcx, QWORD PTR $T16[rbp]
  0037c	48 8b f9	 mov	 rdi, rcx
  0037f	48 8b f0	 mov	 rsi, rax
  00382	b9 d0 00 00 00	 mov	 ecx, 208		; 000000d0H
  00387	f3 a4		 rep movsb
  00389	48 8d 85 50 16
	00 00		 lea	 rax, QWORD PTR $T15[rbp]
  00390	48 8d 8d 40 17
	00 00		 lea	 rcx, QWORD PTR $T16[rbp]
  00397	48 8b f8	 mov	 rdi, rax
  0039a	48 8b f1	 mov	 rsi, rcx
  0039d	b9 d0 00 00 00	 mov	 ecx, 208		; 000000d0H
  003a2	f3 a4		 rep movsb
  003a4	48 8d 15 00 00
	00 00		 lea	 rdx, OFFSET FLAT:_TI1?AUERROR@Error@@
  003ab	48 8d 8d 50 16
	00 00		 lea	 rcx, QWORD PTR $T15[rbp]
  003b2	e8 00 00 00 00	 call	 _CxxThrowException
$LN14@getparm:

; 60   : 
; 61   : 		if (!ptr_out)

  003b7	48 83 bd 58 07
	00 00 00	 cmp	 QWORD PTR ptr_out$[rbp], 0
  003bf	75 48		 jne	 SHORT $LN15@getparm

; 62   : 		{
; 63   : 			wcscpy_s(parm.out, (ptr_in + wcslen(PARM_IN)));

  003c1	48 8d 0d 00 00
	00 00		 lea	 rcx, OFFSET FLAT:??_C@_19MEBKNCJG@?$AA?9?$AAi?$AAn?$AA?3@
  003c8	ff 15 00 00 00
	00		 call	 QWORD PTR __imp_wcslen
  003ce	48 8b 8d 38 07
	00 00		 mov	 rcx, QWORD PTR ptr_in$[rbp]
  003d5	48 8d 04 41	 lea	 rax, QWORD PTR [rcx+rax*2]
  003d9	c6 85 14 19 00
	00 01		 mov	 BYTE PTR $T18[rbp], 1
  003e0	48 8b d0	 mov	 rdx, rax
  003e3	48 8d 8d 68 02
	00 00		 lea	 rcx, QWORD PTR parm$[rbp+600]
  003ea	e8 00 00 00 00	 call	 ??$wcscpy_s@$0BCM@@@YAHAEAY0BCM@_WPEB_W@Z ; wcscpy_s<300>

; 64   : 			wcscat_s(parm.out, PARM_OUT_DEFAULT_EXT);

  003ef	c6 85 14 19 00
	00 01		 mov	 BYTE PTR $T18[rbp], 1
  003f6	48 8d 15 00 00
	00 00		 lea	 rdx, OFFSET FLAT:??_C@_19PLJILNEE@?$AA?4?$AAo?$AAu?$AAt@
  003fd	48 8d 8d 68 02
	00 00		 lea	 rcx, QWORD PTR parm$[rbp+600]
  00404	e8 00 00 00 00	 call	 ??$wcscat_s@$0BCM@@@YAHAEAY0BCM@_WPEB_W@Z ; wcscat_s<300>
$LN15@getparm:

; 65   : 		}
; 66   : 
; 67   : 		if (!ptr_log)

  00409	48 83 bd 78 07
	00 00 00	 cmp	 QWORD PTR ptr_log$[rbp], 0
  00411	75 48		 jne	 SHORT $LN16@getparm

; 68   : 		{
; 69   : 			wcscpy_s(parm.log, (ptr_in + wcslen(PARM_IN)));

  00413	48 8d 0d 00 00
	00 00		 lea	 rcx, OFFSET FLAT:??_C@_19MEBKNCJG@?$AA?9?$AAi?$AAn?$AA?3@
  0041a	ff 15 00 00 00
	00		 call	 QWORD PTR __imp_wcslen
  00420	48 8b 8d 38 07
	00 00		 mov	 rcx, QWORD PTR ptr_in$[rbp]
  00427	48 8d 04 41	 lea	 rax, QWORD PTR [rcx+rax*2]
  0042b	c6 85 14 19 00
	00 01		 mov	 BYTE PTR $T18[rbp], 1
  00432	48 8b d0	 mov	 rdx, rax
  00435	48 8d 8d c0 04
	00 00		 lea	 rcx, QWORD PTR parm$[rbp+1200]
  0043c	e8 00 00 00 00	 call	 ??$wcscpy_s@$0BCM@@@YAHAEAY0BCM@_WPEB_W@Z ; wcscpy_s<300>

; 70   : 			wcscat_s(parm.log, PARM_LOG_DEFAULT_EXT);

  00441	c6 85 14 19 00
	00 01		 mov	 BYTE PTR $T18[rbp], 1
  00448	48 8d 15 00 00
	00 00		 lea	 rdx, OFFSET FLAT:??_C@_19JFPGGDCL@?$AA?4?$AAl?$AAo?$AAg@
  0044f	48 8d 8d c0 04
	00 00		 lea	 rcx, QWORD PTR parm$[rbp+1200]
  00456	e8 00 00 00 00	 call	 ??$wcscat_s@$0BCM@@@YAHAEAY0BCM@_WPEB_W@Z ; wcscat_s<300>
$LN16@getparm:

; 71   : 		}
; 72   : 
; 73   : 		return parm;

  0045b	80 bd 14 19 00
	00 00		 cmp	 BYTE PTR $T18[rbp], 0
  00462	75 0c		 jne	 SHORT $LN18@getparm
  00464	48 8d 0d 00 00
	00 00		 lea	 rcx, OFFSET FLAT:?getparm@Parm@@YA?AUPARM@1@HPEAPEA_W@Z$rtcName$0
  0046b	e8 00 00 00 00	 call	 _RTC_UninitUse
$LN18@getparm:
  00470	48 8d 45 10	 lea	 rax, QWORD PTR parm$[rbp]
  00474	48 8b bd 50 19
	00 00		 mov	 rdi, QWORD PTR $T19[rbp]
  0047b	48 8b f0	 mov	 rsi, rax
  0047e	b9 08 07 00 00	 mov	 ecx, 1800		; 00000708H
  00483	f3 a4		 rep movsb
  00485	48 8b 85 50 19
	00 00		 mov	 rax, QWORD PTR $T19[rbp]
$LN17@getparm:

; 74   : 	}

  0048c	48 8b f8	 mov	 rdi, rax
  0048f	48 8d 4d e0	 lea	 rcx, QWORD PTR [rbp-32]
  00493	48 8d 15 00 00
	00 00		 lea	 rdx, OFFSET FLAT:?getparm@Parm@@YA?AUPARM@1@HPEAPEA_W@Z$rtcFrameData
  0049a	e8 00 00 00 00	 call	 _RTC_CheckStackVars
  0049f	48 8b c7	 mov	 rax, rdi
  004a2	48 8b 8d 28 19
	00 00		 mov	 rcx, QWORD PTR __$ArrayPad$[rbp]
  004a9	48 33 cd	 xor	 rcx, rbp
  004ac	e8 00 00 00 00	 call	 __security_check_cookie
  004b1	48 8d a5 30 19
	00 00		 lea	 rsp, QWORD PTR [rbp+6448]
  004b8	5f		 pop	 rdi
  004b9	5e		 pop	 rsi
  004ba	5d		 pop	 rbp
  004bb	c3		 ret	 0
?getparm@Parm@@YA?AUPARM@1@HPEAPEA_W@Z ENDP		; Parm::getparm
_TEXT	ENDS
; Function compile flags: /Odtp /RTCsu /ZI
; File C:\Program Files (x86)\Microsoft Visual Studio\2019\Enterprise\VC\Tools\MSVC\14.27.29110\include\xloctime
;	COMDAT ??$_Getvals@_W@?$time_get@_WV?$istreambuf_iterator@_WU?$char_traits@_W@std@@@std@@@std@@IEAAX_WAEBV_Locinfo@1@@Z
_TEXT	SEGMENT
$T1 = 200
tv93 = 264
tv85 = 264
this$ = 304
__formal$ = 312
_Lobj$ = 320
??$_Getvals@_W@?$time_get@_WV?$istreambuf_iterator@_WU?$char_traits@_W@std@@@std@@@std@@IEAAX_WAEBV_Locinfo@1@@Z PROC ; std::time_get<wchar_t,std::istreambuf_iterator<wchar_t,std::char_traits<wchar_t> > >::_Getvals<wchar_t>, COMDAT

; 176  :     void __CLR_OR_THIS_CALL _Getvals(_Elem2, const _Locinfo& _Lobj) { // get values

$LN5:
  00000	4c 89 44 24 18	 mov	 QWORD PTR [rsp+24], r8
  00005	66 89 54 24 10	 mov	 WORD PTR [rsp+16], dx
  0000a	48 89 4c 24 08	 mov	 QWORD PTR [rsp+8], rcx
  0000f	55		 push	 rbp
  00010	56		 push	 rsi
  00011	57		 push	 rdi
  00012	48 81 ec 30 01
	00 00		 sub	 rsp, 304		; 00000130H
  00019	48 8d 6c 24 20	 lea	 rbp, QWORD PTR [rsp+32]
  0001e	48 8b fc	 mov	 rdi, rsp
  00021	b9 4c 00 00 00	 mov	 ecx, 76			; 0000004cH
  00026	b8 cc cc cc cc	 mov	 eax, -858993460		; ccccccccH
  0002b	f3 ab		 rep stosd
  0002d	48 8b 8c 24 58
	01 00 00	 mov	 rcx, QWORD PTR [rsp+344]
  00035	48 8d 0d 00 00
	00 00		 lea	 rcx, OFFSET FLAT:__FDACCCE4_xloctime
  0003c	e8 00 00 00 00	 call	 __CheckForDebuggerJustMyCode

; 177  :         _Cvt = _Lobj._Getcvt();

  00041	48 8d 95 c8 00
	00 00		 lea	 rdx, QWORD PTR $T1[rbp]
  00048	48 8b 8d 40 01
	00 00		 mov	 rcx, QWORD PTR _Lobj$[rbp]
  0004f	ff 15 00 00 00
	00		 call	 QWORD PTR __imp_?_Getcvt@_Locinfo@std@@QEBA?AU_Cvtvec@@XZ
  00055	48 8b 8d 30 01
	00 00		 mov	 rcx, QWORD PTR this$[rbp]
  0005c	48 8d 79 2c	 lea	 rdi, QWORD PTR [rcx+44]
  00060	48 8b f0	 mov	 rsi, rax
  00063	b9 2c 00 00 00	 mov	 ecx, 44			; 0000002cH
  00068	f3 a4		 rep movsb

; 178  : 
; 179  :         if (is_same_v<_Elem2, wchar_t>) {

  0006a	33 c0		 xor	 eax, eax
  0006c	83 f8 01	 cmp	 eax, 1
  0006f	74 5c		 je	 SHORT $LN2@Getvals

; 180  :             _Days = reinterpret_cast<const _Elem*>(_Maklocwcs(reinterpret_cast<const wchar_t*>(_Lobj._W_Getdays())));

  00071	48 8b 8d 40 01
	00 00		 mov	 rcx, QWORD PTR _Lobj$[rbp]
  00078	ff 15 00 00 00
	00		 call	 QWORD PTR __imp_?_W_Getdays@_Locinfo@std@@QEBAPEBGXZ
  0007e	48 8b c8	 mov	 rcx, rax
  00081	e8 00 00 00 00	 call	 ?_Maklocwcs@std@@YAPEA_WPEB_W@Z ; std::_Maklocwcs
  00086	48 8b 8d 30 01
	00 00		 mov	 rcx, QWORD PTR this$[rbp]
  0008d	48 89 41 10	 mov	 QWORD PTR [rcx+16], rax

; 181  :             _Months =

  00091	48 8b 8d 40 01
	00 00		 mov	 rcx, QWORD PTR _Lobj$[rbp]
  00098	ff 15 00 00 00
	00		 call	 QWORD PTR __imp_?_W_Getmonths@_Locinfo@std@@QEBAPEBGXZ
  0009e	48 8b c8	 mov	 rcx, rax
  000a1	e8 00 00 00 00	 call	 ?_Maklocwcs@std@@YAPEA_WPEB_W@Z ; std::_Maklocwcs
  000a6	48 8b 8d 30 01
	00 00		 mov	 rcx, QWORD PTR this$[rbp]
  000ad	48 89 41 18	 mov	 QWORD PTR [rcx+24], rax

; 182  :                 reinterpret_cast<const _Elem*>(_Maklocwcs(reinterpret_cast<const wchar_t*>(_Lobj._W_Getmonths())));
; 183  :             _Ampm = reinterpret_cast<const _Elem*>(_Maklocwcs(L":AM:am:PM:pm"));

  000b1	48 8d 0d 00 00
	00 00		 lea	 rcx, OFFSET FLAT:??_C@_1BK@MHIKGOKE@?$AA?3?$AAA?$AAM?$AA?3?$AAa?$AAm?$AA?3?$AAP?$AAM?$AA?3?$AAp?$AAm@
  000b8	e8 00 00 00 00	 call	 ?_Maklocwcs@std@@YAPEA_WPEB_W@Z ; std::_Maklocwcs
  000bd	48 8b 8d 30 01
	00 00		 mov	 rcx, QWORD PTR this$[rbp]
  000c4	48 89 41 20	 mov	 QWORD PTR [rcx+32], rax

; 184  :         } else {

  000c8	e9 a3 00 00 00	 jmp	 $LN3@Getvals
$LN2@Getvals:

; 185  :             _Days   = _Maklocstr(_Lobj._Getdays(), static_cast<_Elem*>(nullptr), _Cvt);

  000cd	48 8b 85 30 01
	00 00		 mov	 rax, QWORD PTR this$[rbp]
  000d4	48 83 c0 2c	 add	 rax, 44			; 0000002cH
  000d8	48 89 85 08 01
	00 00		 mov	 QWORD PTR tv85[rbp], rax
  000df	48 8b 8d 40 01
	00 00		 mov	 rcx, QWORD PTR _Lobj$[rbp]
  000e6	ff 15 00 00 00
	00		 call	 QWORD PTR __imp_?_Getdays@_Locinfo@std@@QEBAPEBDXZ
  000ec	48 8b 8d 08 01
	00 00		 mov	 rcx, QWORD PTR tv85[rbp]
  000f3	4c 8b c1	 mov	 r8, rcx
  000f6	33 d2		 xor	 edx, edx
  000f8	48 8b c8	 mov	 rcx, rax
  000fb	e8 00 00 00 00	 call	 ??$_Maklocstr@_W@std@@YAPEA_WPEBDPEA_WAEBU_Cvtvec@@@Z ; std::_Maklocstr<wchar_t>
  00100	48 8b 8d 30 01
	00 00		 mov	 rcx, QWORD PTR this$[rbp]
  00107	48 89 41 10	 mov	 QWORD PTR [rcx+16], rax

; 186  :             _Months = _Maklocstr(_Lobj._Getmonths(), static_cast<_Elem*>(nullptr), _Cvt);

  0010b	48 8b 85 30 01
	00 00		 mov	 rax, QWORD PTR this$[rbp]
  00112	48 83 c0 2c	 add	 rax, 44			; 0000002cH
  00116	48 89 85 08 01
	00 00		 mov	 QWORD PTR tv93[rbp], rax
  0011d	48 8b 8d 40 01
	00 00		 mov	 rcx, QWORD PTR _Lobj$[rbp]
  00124	ff 15 00 00 00
	00		 call	 QWORD PTR __imp_?_Getmonths@_Locinfo@std@@QEBAPEBDXZ
  0012a	48 8b 8d 08 01
	00 00		 mov	 rcx, QWORD PTR tv93[rbp]
  00131	4c 8b c1	 mov	 r8, rcx
  00134	33 d2		 xor	 edx, edx
  00136	48 8b c8	 mov	 rcx, rax
  00139	e8 00 00 00 00	 call	 ??$_Maklocstr@_W@std@@YAPEA_WPEBDPEA_WAEBU_Cvtvec@@@Z ; std::_Maklocstr<wchar_t>
  0013e	48 8b 8d 30 01
	00 00		 mov	 rcx, QWORD PTR this$[rbp]
  00145	48 89 41 18	 mov	 QWORD PTR [rcx+24], rax

; 187  :             _Ampm   = _Maklocstr(":AM:am:PM:pm", static_cast<_Elem*>(nullptr), _Cvt);

  00149	48 8b 85 30 01
	00 00		 mov	 rax, QWORD PTR this$[rbp]
  00150	48 83 c0 2c	 add	 rax, 44			; 0000002cH
  00154	4c 8b c0	 mov	 r8, rax
  00157	33 d2		 xor	 edx, edx
  00159	48 8d 0d 00 00
	00 00		 lea	 rcx, OFFSET FLAT:??_C@_0N@LPFKKEBD@?3AM?3am?3PM?3pm@
  00160	e8 00 00 00 00	 call	 ??$_Maklocstr@_W@std@@YAPEA_WPEBDPEA_WAEBU_Cvtvec@@@Z ; std::_Maklocstr<wchar_t>
  00165	48 8b 8d 30 01
	00 00		 mov	 rcx, QWORD PTR this$[rbp]
  0016c	48 89 41 20	 mov	 QWORD PTR [rcx+32], rax
$LN3@Getvals:

; 188  :         }
; 189  :     }

  00170	48 8d a5 10 01
	00 00		 lea	 rsp, QWORD PTR [rbp+272]
  00177	5f		 pop	 rdi
  00178	5e		 pop	 rsi
  00179	5d		 pop	 rbp
  0017a	c3		 ret	 0
??$_Getvals@_W@?$time_get@_WV?$istreambuf_iterator@_WU?$char_traits@_W@std@@@std@@@std@@IEAAX_WAEBV_Locinfo@1@@Z ENDP ; std::time_get<wchar_t,std::istreambuf_iterator<wchar_t,std::char_traits<wchar_t> > >::_Getvals<wchar_t>
_TEXT	ENDS
; Function compile flags: /Odtp /RTCsu /ZI
; File C:\Program Files (x86)\Microsoft Visual Studio\2019\Enterprise\VC\Tools\MSVC\14.27.29110\include\xloctime
;	COMDAT ??$_Getvals@_W@?$time_get@DV?$istreambuf_iterator@DU?$char_traits@D@std@@@std@@@std@@IEAAX_WAEBV_Locinfo@1@@Z
_TEXT	SEGMENT
$T1 = 200
tv93 = 264
tv85 = 264
this$ = 304
__formal$ = 312
_Lobj$ = 320
??$_Getvals@_W@?$time_get@DV?$istreambuf_iterator@DU?$char_traits@D@std@@@std@@@std@@IEAAX_WAEBV_Locinfo@1@@Z PROC ; std::time_get<char,std::istreambuf_iterator<char,std::char_traits<char> > >::_Getvals<wchar_t>, COMDAT

; 176  :     void __CLR_OR_THIS_CALL _Getvals(_Elem2, const _Locinfo& _Lobj) { // get values

$LN5:
  00000	4c 89 44 24 18	 mov	 QWORD PTR [rsp+24], r8
  00005	66 89 54 24 10	 mov	 WORD PTR [rsp+16], dx
  0000a	48 89 4c 24 08	 mov	 QWORD PTR [rsp+8], rcx
  0000f	55		 push	 rbp
  00010	56		 push	 rsi
  00011	57		 push	 rdi
  00012	48 81 ec 30 01
	00 00		 sub	 rsp, 304		; 00000130H
  00019	48 8d 6c 24 20	 lea	 rbp, QWORD PTR [rsp+32]
  0001e	48 8b fc	 mov	 rdi, rsp
  00021	b9 4c 00 00 00	 mov	 ecx, 76			; 0000004cH
  00026	b8 cc cc cc cc	 mov	 eax, -858993460		; ccccccccH
  0002b	f3 ab		 rep stosd
  0002d	48 8b 8c 24 58
	01 00 00	 mov	 rcx, QWORD PTR [rsp+344]
  00035	48 8d 0d 00 00
	00 00		 lea	 rcx, OFFSET FLAT:__FDACCCE4_xloctime
  0003c	e8 00 00 00 00	 call	 __CheckForDebuggerJustMyCode

; 177  :         _Cvt = _Lobj._Getcvt();

  00041	48 8d 95 c8 00
	00 00		 lea	 rdx, QWORD PTR $T1[rbp]
  00048	48 8b 8d 40 01
	00 00		 mov	 rcx, QWORD PTR _Lobj$[rbp]
  0004f	ff 15 00 00 00
	00		 call	 QWORD PTR __imp_?_Getcvt@_Locinfo@std@@QEBA?AU_Cvtvec@@XZ
  00055	48 8b 8d 30 01
	00 00		 mov	 rcx, QWORD PTR this$[rbp]
  0005c	48 8d 79 2c	 lea	 rdi, QWORD PTR [rcx+44]
  00060	48 8b f0	 mov	 rsi, rax
  00063	b9 2c 00 00 00	 mov	 ecx, 44			; 0000002cH
  00068	f3 a4		 rep movsb

; 178  : 
; 179  :         if (is_same_v<_Elem2, wchar_t>) {

  0006a	33 c0		 xor	 eax, eax
  0006c	83 f8 01	 cmp	 eax, 1
  0006f	74 5c		 je	 SHORT $LN2@Getvals

; 180  :             _Days = reinterpret_cast<const _Elem*>(_Maklocwcs(reinterpret_cast<const wchar_t*>(_Lobj._W_Getdays())));

  00071	48 8b 8d 40 01
	00 00		 mov	 rcx, QWORD PTR _Lobj$[rbp]
  00078	ff 15 00 00 00
	00		 call	 QWORD PTR __imp_?_W_Getdays@_Locinfo@std@@QEBAPEBGXZ
  0007e	48 8b c8	 mov	 rcx, rax
  00081	e8 00 00 00 00	 call	 ?_Maklocwcs@std@@YAPEA_WPEB_W@Z ; std::_Maklocwcs
  00086	48 8b 8d 30 01
	00 00		 mov	 rcx, QWORD PTR this$[rbp]
  0008d	48 89 41 10	 mov	 QWORD PTR [rcx+16], rax

; 181  :             _Months =

  00091	48 8b 8d 40 01
	00 00		 mov	 rcx, QWORD PTR _Lobj$[rbp]
  00098	ff 15 00 00 00
	00		 call	 QWORD PTR __imp_?_W_Getmonths@_Locinfo@std@@QEBAPEBGXZ
  0009e	48 8b c8	 mov	 rcx, rax
  000a1	e8 00 00 00 00	 call	 ?_Maklocwcs@std@@YAPEA_WPEB_W@Z ; std::_Maklocwcs
  000a6	48 8b 8d 30 01
	00 00		 mov	 rcx, QWORD PTR this$[rbp]
  000ad	48 89 41 18	 mov	 QWORD PTR [rcx+24], rax

; 182  :                 reinterpret_cast<const _Elem*>(_Maklocwcs(reinterpret_cast<const wchar_t*>(_Lobj._W_Getmonths())));
; 183  :             _Ampm = reinterpret_cast<const _Elem*>(_Maklocwcs(L":AM:am:PM:pm"));

  000b1	48 8d 0d 00 00
	00 00		 lea	 rcx, OFFSET FLAT:??_C@_1BK@MHIKGOKE@?$AA?3?$AAA?$AAM?$AA?3?$AAa?$AAm?$AA?3?$AAP?$AAM?$AA?3?$AAp?$AAm@
  000b8	e8 00 00 00 00	 call	 ?_Maklocwcs@std@@YAPEA_WPEB_W@Z ; std::_Maklocwcs
  000bd	48 8b 8d 30 01
	00 00		 mov	 rcx, QWORD PTR this$[rbp]
  000c4	48 89 41 20	 mov	 QWORD PTR [rcx+32], rax

; 184  :         } else {

  000c8	e9 a3 00 00 00	 jmp	 $LN3@Getvals
$LN2@Getvals:

; 185  :             _Days   = _Maklocstr(_Lobj._Getdays(), static_cast<_Elem*>(nullptr), _Cvt);

  000cd	48 8b 85 30 01
	00 00		 mov	 rax, QWORD PTR this$[rbp]
  000d4	48 83 c0 2c	 add	 rax, 44			; 0000002cH
  000d8	48 89 85 08 01
	00 00		 mov	 QWORD PTR tv85[rbp], rax
  000df	48 8b 8d 40 01
	00 00		 mov	 rcx, QWORD PTR _Lobj$[rbp]
  000e6	ff 15 00 00 00
	00		 call	 QWORD PTR __imp_?_Getdays@_Locinfo@std@@QEBAPEBDXZ
  000ec	48 8b 8d 08 01
	00 00		 mov	 rcx, QWORD PTR tv85[rbp]
  000f3	4c 8b c1	 mov	 r8, rcx
  000f6	33 d2		 xor	 edx, edx
  000f8	48 8b c8	 mov	 rcx, rax
  000fb	e8 00 00 00 00	 call	 ??$_Maklocstr@D@std@@YAPEADPEBDPEADAEBU_Cvtvec@@@Z ; std::_Maklocstr<char>
  00100	48 8b 8d 30 01
	00 00		 mov	 rcx, QWORD PTR this$[rbp]
  00107	48 89 41 10	 mov	 QWORD PTR [rcx+16], rax

; 186  :             _Months = _Maklocstr(_Lobj._Getmonths(), static_cast<_Elem*>(nullptr), _Cvt);

  0010b	48 8b 85 30 01
	00 00		 mov	 rax, QWORD PTR this$[rbp]
  00112	48 83 c0 2c	 add	 rax, 44			; 0000002cH
  00116	48 89 85 08 01
	00 00		 mov	 QWORD PTR tv93[rbp], rax
  0011d	48 8b 8d 40 01
	00 00		 mov	 rcx, QWORD PTR _Lobj$[rbp]
  00124	ff 15 00 00 00
	00		 call	 QWORD PTR __imp_?_Getmonths@_Locinfo@std@@QEBAPEBDXZ
  0012a	48 8b 8d 08 01
	00 00		 mov	 rcx, QWORD PTR tv93[rbp]
  00131	4c 8b c1	 mov	 r8, rcx
  00134	33 d2		 xor	 edx, edx
  00136	48 8b c8	 mov	 rcx, rax
  00139	e8 00 00 00 00	 call	 ??$_Maklocstr@D@std@@YAPEADPEBDPEADAEBU_Cvtvec@@@Z ; std::_Maklocstr<char>
  0013e	48 8b 8d 30 01
	00 00		 mov	 rcx, QWORD PTR this$[rbp]
  00145	48 89 41 18	 mov	 QWORD PTR [rcx+24], rax

; 187  :             _Ampm   = _Maklocstr(":AM:am:PM:pm", static_cast<_Elem*>(nullptr), _Cvt);

  00149	48 8b 85 30 01
	00 00		 mov	 rax, QWORD PTR this$[rbp]
  00150	48 83 c0 2c	 add	 rax, 44			; 0000002cH
  00154	4c 8b c0	 mov	 r8, rax
  00157	33 d2		 xor	 edx, edx
  00159	48 8d 0d 00 00
	00 00		 lea	 rcx, OFFSET FLAT:??_C@_0N@LPFKKEBD@?3AM?3am?3PM?3pm@
  00160	e8 00 00 00 00	 call	 ??$_Maklocstr@D@std@@YAPEADPEBDPEADAEBU_Cvtvec@@@Z ; std::_Maklocstr<char>
  00165	48 8b 8d 30 01
	00 00		 mov	 rcx, QWORD PTR this$[rbp]
  0016c	48 89 41 20	 mov	 QWORD PTR [rcx+32], rax
$LN3@Getvals:

; 188  :         }
; 189  :     }

  00170	48 8d a5 10 01
	00 00		 lea	 rsp, QWORD PTR [rbp+272]
  00177	5f		 pop	 rdi
  00178	5e		 pop	 rsi
  00179	5d		 pop	 rbp
  0017a	c3		 ret	 0
??$_Getvals@_W@?$time_get@DV?$istreambuf_iterator@DU?$char_traits@D@std@@@std@@@std@@IEAAX_WAEBV_Locinfo@1@@Z ENDP ; std::time_get<char,std::istreambuf_iterator<char,std::char_traits<char> > >::_Getvals<wchar_t>
_TEXT	ENDS
; Function compile flags: /Odtp /RTCsu /ZI
; File C:\Program Files (x86)\Microsoft Visual Studio\2019\Enterprise\VC\Tools\MSVC\14.27.29110\include\xlocale
;	COMDAT ??$_Maklocstr@D@std@@YAPEADPEBDPEADAEBU_Cvtvec@@@Z
_TEXT	SEGMENT
_Count$ = 8
_Ptrdest$ = 40
_Ptrnext$1 = 72
_Ptr$ = 320
__formal$ = 328
__formal$ = 336
??$_Maklocstr@D@std@@YAPEADPEBDPEADAEBU_Cvtvec@@@Z PROC	; std::_Maklocstr<char>, COMDAT

; 563  : _Elem* __CRTDECL _Maklocstr(const char* _Ptr, _Elem*, const _Locinfo::_Cvtvec&) {

$LN7:
  00000	4c 89 44 24 18	 mov	 QWORD PTR [rsp+24], r8
  00005	48 89 54 24 10	 mov	 QWORD PTR [rsp+16], rdx
  0000a	48 89 4c 24 08	 mov	 QWORD PTR [rsp+8], rcx
  0000f	55		 push	 rbp
  00010	57		 push	 rdi
  00011	48 81 ec 58 01
	00 00		 sub	 rsp, 344		; 00000158H
  00018	48 8d 6c 24 30	 lea	 rbp, QWORD PTR [rsp+48]
  0001d	48 8b fc	 mov	 rdi, rsp
  00020	b9 56 00 00 00	 mov	 ecx, 86			; 00000056H
  00025	b8 cc cc cc cc	 mov	 eax, -858993460		; ccccccccH
  0002a	f3 ab		 rep stosd
  0002c	48 8b 8c 24 78
	01 00 00	 mov	 rcx, QWORD PTR [rsp+376]
  00034	48 8d 0d 00 00
	00 00		 lea	 rcx, OFFSET FLAT:__A7748393_xlocale
  0003b	e8 00 00 00 00	 call	 __CheckForDebuggerJustMyCode

; 564  :     // convert C string to _Elem sequence using _Cvtvec
; 565  :     size_t _Count = _CSTD strlen(_Ptr) + 1;

  00040	48 8b 8d 40 01
	00 00		 mov	 rcx, QWORD PTR _Ptr$[rbp]
  00047	e8 00 00 00 00	 call	 strlen
  0004c	48 ff c0	 inc	 rax
  0004f	48 89 45 08	 mov	 QWORD PTR _Count$[rbp], rax

; 566  : 
; 567  :     _Elem* _Ptrdest = static_cast<_Elem*>(_calloc_dbg(_Count, sizeof(_Elem), _CRT_BLOCK, __FILE__, __LINE__));

  00053	c7 44 24 20 37
	02 00 00	 mov	 DWORD PTR [rsp+32], 567	; 00000237H
  0005b	4c 8d 0d 00 00
	00 00		 lea	 r9, OFFSET FLAT:??_C@_0GJ@OPFKIEFE@C?3?2Program?5Files?5?$CIx86?$CJ?2Microsof@
  00062	41 b8 02 00 00
	00		 mov	 r8d, 2
  00068	ba 01 00 00 00	 mov	 edx, 1
  0006d	48 8b 4d 08	 mov	 rcx, QWORD PTR _Count$[rbp]
  00071	ff 15 00 00 00
	00		 call	 QWORD PTR __imp__calloc_dbg
  00077	48 89 45 28	 mov	 QWORD PTR _Ptrdest$[rbp], rax

; 568  : 
; 569  :     if (!_Ptrdest) {

  0007b	48 83 7d 28 00	 cmp	 QWORD PTR _Ptrdest$[rbp], 0
  00080	75 05		 jne	 SHORT $LN5@Maklocstr

; 570  :         _Xbad_alloc();

  00082	e8 00 00 00 00	 call	 ?_Xbad_alloc@std@@YAXXZ	; std::_Xbad_alloc
$LN5@Maklocstr:

; 571  :     }
; 572  : 
; 573  :     for (_Elem* _Ptrnext = _Ptrdest; 0 < _Count; --_Count, ++_Ptrnext, ++_Ptr) {

  00087	48 8b 45 28	 mov	 rax, QWORD PTR _Ptrdest$[rbp]
  0008b	48 89 45 48	 mov	 QWORD PTR _Ptrnext$1[rbp], rax
  0008f	eb 27		 jmp	 SHORT $LN4@Maklocstr
$LN2@Maklocstr:
  00091	48 8b 45 08	 mov	 rax, QWORD PTR _Count$[rbp]
  00095	48 ff c8	 dec	 rax
  00098	48 89 45 08	 mov	 QWORD PTR _Count$[rbp], rax
  0009c	48 8b 45 48	 mov	 rax, QWORD PTR _Ptrnext$1[rbp]
  000a0	48 ff c0	 inc	 rax
  000a3	48 89 45 48	 mov	 QWORD PTR _Ptrnext$1[rbp], rax
  000a7	48 8b 85 40 01
	00 00		 mov	 rax, QWORD PTR _Ptr$[rbp]
  000ae	48 ff c0	 inc	 rax
  000b1	48 89 85 40 01
	00 00		 mov	 QWORD PTR _Ptr$[rbp], rax
$LN4@Maklocstr:
  000b8	48 83 7d 08 00	 cmp	 QWORD PTR _Count$[rbp], 0
  000bd	76 12		 jbe	 SHORT $LN3@Maklocstr

; 574  :         *_Ptrnext = static_cast<_Elem>(static_cast<unsigned char>(*_Ptr));

  000bf	48 8b 45 48	 mov	 rax, QWORD PTR _Ptrnext$1[rbp]
  000c3	48 8b 8d 40 01
	00 00		 mov	 rcx, QWORD PTR _Ptr$[rbp]
  000ca	0f b6 09	 movzx	 ecx, BYTE PTR [rcx]
  000cd	88 08		 mov	 BYTE PTR [rax], cl

; 575  :     }

  000cf	eb c0		 jmp	 SHORT $LN2@Maklocstr
$LN3@Maklocstr:

; 576  : 
; 577  :     return _Ptrdest;

  000d1	48 8b 45 28	 mov	 rax, QWORD PTR _Ptrdest$[rbp]
$LN6@Maklocstr:

; 578  : }

  000d5	48 8d a5 28 01
	00 00		 lea	 rsp, QWORD PTR [rbp+296]
  000dc	5f		 pop	 rdi
  000dd	5d		 pop	 rbp
  000de	c3		 ret	 0
??$_Maklocstr@D@std@@YAPEADPEBDPEADAEBU_Cvtvec@@@Z ENDP	; std::_Maklocstr<char>
_TEXT	ENDS
; Function compile flags: /Odtp /RTCsu /ZI
; File C:\Program Files (x86)\Microsoft Visual Studio\2019\Enterprise\VC\Tools\MSVC\14.27.29110\include\xlocnum
;	COMDAT ?_Maklocwcs@std@@YAPEA_WPEB_W@Z
_TEXT	SEGMENT
_Count$ = 8
_Ptrdest$ = 40
_Ptr$ = 288
?_Maklocwcs@std@@YAPEA_WPEB_W@Z PROC			; std::_Maklocwcs, COMDAT

; 90   : inline wchar_t* _Maklocwcs(const wchar_t* _Ptr) { // copy NTWCS to allocated storage

$LN4:
  00000	48 89 4c 24 08	 mov	 QWORD PTR [rsp+8], rcx
  00005	55		 push	 rbp
  00006	57		 push	 rdi
  00007	48 81 ec 38 01
	00 00		 sub	 rsp, 312		; 00000138H
  0000e	48 8d 6c 24 30	 lea	 rbp, QWORD PTR [rsp+48]
  00013	48 8b fc	 mov	 rdi, rsp
  00016	b9 4e 00 00 00	 mov	 ecx, 78			; 0000004eH
  0001b	b8 cc cc cc cc	 mov	 eax, -858993460		; ccccccccH
  00020	f3 ab		 rep stosd
  00022	48 8b 8c 24 58
	01 00 00	 mov	 rcx, QWORD PTR [rsp+344]
  0002a	48 8d 0d 00 00
	00 00		 lea	 rcx, OFFSET FLAT:__39F3E584_xlocnum
  00031	e8 00 00 00 00	 call	 __CheckForDebuggerJustMyCode

; 91   :     const size_t _Count = _CSTD wcslen(_Ptr) + 1;

  00036	48 8b 8d 20 01
	00 00		 mov	 rcx, QWORD PTR _Ptr$[rbp]
  0003d	ff 15 00 00 00
	00		 call	 QWORD PTR __imp_wcslen
  00043	48 ff c0	 inc	 rax
  00046	48 89 45 08	 mov	 QWORD PTR _Count$[rbp], rax

; 92   : 
; 93   :     wchar_t* _Ptrdest = static_cast<wchar_t*>(_calloc_dbg(_Count, sizeof(wchar_t), _CRT_BLOCK, __FILE__, __LINE__));

  0004a	8b 05 00 00 00
	00		 mov	 eax, DWORD PTR ?__LINE__Var@?0??_Maklocwcs@std@@YAPEA_WPEB_W@Z@4JA
  00050	83 c0 03	 add	 eax, 3
  00053	89 44 24 20	 mov	 DWORD PTR [rsp+32], eax
  00057	4c 8d 0d 00 00
	00 00		 lea	 r9, OFFSET FLAT:??_C@_0GJ@GMBHIGPF@C?3?2Program?5Files?5?$CIx86?$CJ?2Microsof@
  0005e	41 b8 02 00 00
	00		 mov	 r8d, 2
  00064	ba 02 00 00 00	 mov	 edx, 2
  00069	48 8b 4d 08	 mov	 rcx, QWORD PTR _Count$[rbp]
  0006d	ff 15 00 00 00
	00		 call	 QWORD PTR __imp__calloc_dbg
  00073	48 89 45 28	 mov	 QWORD PTR _Ptrdest$[rbp], rax

; 94   : 
; 95   :     if (!_Ptrdest) {

  00077	48 83 7d 28 00	 cmp	 QWORD PTR _Ptrdest$[rbp], 0
  0007c	75 05		 jne	 SHORT $LN2@Maklocwcs

; 96   :         _Xbad_alloc();

  0007e	e8 00 00 00 00	 call	 ?_Xbad_alloc@std@@YAXXZ	; std::_Xbad_alloc
$LN2@Maklocwcs:

; 97   :     }
; 98   : 
; 99   :     _CSTD wmemcpy(_Ptrdest, _Ptr, _Count);

  00083	4c 8b 45 08	 mov	 r8, QWORD PTR _Count$[rbp]
  00087	48 8b 95 20 01
	00 00		 mov	 rdx, QWORD PTR _Ptr$[rbp]
  0008e	48 8b 4d 28	 mov	 rcx, QWORD PTR _Ptrdest$[rbp]
  00092	e8 00 00 00 00	 call	 wmemcpy

; 100  :     return _Ptrdest;

  00097	48 8b 45 28	 mov	 rax, QWORD PTR _Ptrdest$[rbp]
$LN3@Maklocwcs:

; 101  : }

  0009b	48 8d a5 08 01
	00 00		 lea	 rsp, QWORD PTR [rbp+264]
  000a2	5f		 pop	 rdi
  000a3	5d		 pop	 rbp
  000a4	c3		 ret	 0
?_Maklocwcs@std@@YAPEA_WPEB_W@Z ENDP			; std::_Maklocwcs
_TEXT	ENDS
; Function compile flags: /Odtp /RTCsu /ZI
; File C:\Program Files (x86)\Microsoft Visual Studio\2019\Enterprise\VC\Tools\MSVC\14.27.29110\include\xlocale
;	COMDAT ??$_Maklocstr@_W@std@@YAPEA_WPEBDPEA_WAEBU_Cvtvec@@@Z
_TEXT	SEGMENT
_Count$ = 8
_Count1$ = 40
_Wchars$ = 72
_Ptr1$ = 104
_Bytes$ = 132
_Wc$ = 164
_Mbst1$ = 200
_Ptrdest$ = 232
_Ptrnext$ = 264
_Mbst2$ = 296
__$ArrayPad$ = 504
_Ptr$ = 544
__formal$ = 552
_Cvt$ = 560
??$_Maklocstr@_W@std@@YAPEA_WPEBDPEA_WAEBU_Cvtvec@@@Z PROC ; std::_Maklocstr<wchar_t>, COMDAT

; 581  : inline wchar_t* __CRTDECL _Maklocstr(const char* _Ptr, wchar_t*, const _Locinfo::_Cvtvec& _Cvt) {

$LN12:
  00000	4c 89 44 24 18	 mov	 QWORD PTR [rsp+24], r8
  00005	48 89 54 24 10	 mov	 QWORD PTR [rsp+16], rdx
  0000a	48 89 4c 24 08	 mov	 QWORD PTR [rsp+8], rcx
  0000f	55		 push	 rbp
  00010	57		 push	 rdi
  00011	48 81 ec 38 02
	00 00		 sub	 rsp, 568		; 00000238H
  00018	48 8d 6c 24 30	 lea	 rbp, QWORD PTR [rsp+48]
  0001d	48 8b fc	 mov	 rdi, rsp
  00020	b9 8e 00 00 00	 mov	 ecx, 142		; 0000008eH
  00025	b8 cc cc cc cc	 mov	 eax, -858993460		; ccccccccH
  0002a	f3 ab		 rep stosd
  0002c	48 8b 8c 24 58
	02 00 00	 mov	 rcx, QWORD PTR [rsp+600]
  00034	48 8b 05 00 00
	00 00		 mov	 rax, QWORD PTR __security_cookie
  0003b	48 33 c5	 xor	 rax, rbp
  0003e	48 89 85 f8 01
	00 00		 mov	 QWORD PTR __$ArrayPad$[rbp], rax
  00045	48 8d 0d 00 00
	00 00		 lea	 rcx, OFFSET FLAT:__A7748393_xlocale
  0004c	e8 00 00 00 00	 call	 __CheckForDebuggerJustMyCode

; 582  :     // convert C string to wchar_t sequence using _Cvtvec
; 583  :     size_t _Count;
; 584  :     size_t _Count1;
; 585  :     size_t _Wchars;
; 586  :     const char* _Ptr1;
; 587  :     int _Bytes;
; 588  :     wchar_t _Wc;
; 589  :     mbstate_t _Mbst1 = {};

  00051	48 8d 85 c8 00
	00 00		 lea	 rax, QWORD PTR _Mbst1$[rbp]
  00058	48 8b f8	 mov	 rdi, rax
  0005b	33 c0		 xor	 eax, eax
  0005d	b9 08 00 00 00	 mov	 ecx, 8
  00062	f3 aa		 rep stosb

; 590  : 
; 591  :     _Count1 = _CSTD strlen(_Ptr) + 1;

  00064	48 8b 8d 20 02
	00 00		 mov	 rcx, QWORD PTR _Ptr$[rbp]
  0006b	e8 00 00 00 00	 call	 strlen
  00070	48 ff c0	 inc	 rax
  00073	48 89 45 28	 mov	 QWORD PTR _Count1$[rbp], rax

; 592  :     for (_Count = _Count1, _Wchars = 0, _Ptr1 = _Ptr; 0 < _Count; _Count -= _Bytes, _Ptr1 += _Bytes, ++_Wchars) {

  00077	48 8b 45 28	 mov	 rax, QWORD PTR _Count1$[rbp]
  0007b	48 89 45 08	 mov	 QWORD PTR _Count$[rbp], rax
  0007f	48 c7 45 48 00
	00 00 00	 mov	 QWORD PTR _Wchars$[rbp], 0
  00087	48 8b 85 20 02
	00 00		 mov	 rax, QWORD PTR _Ptr$[rbp]
  0008e	48 89 45 68	 mov	 QWORD PTR _Ptr1$[rbp], rax
  00092	eb 35		 jmp	 SHORT $LN4@Maklocstr
$LN2@Maklocstr:
  00094	48 63 85 84 00
	00 00		 movsxd	 rax, DWORD PTR _Bytes$[rbp]
  0009b	48 8b 4d 08	 mov	 rcx, QWORD PTR _Count$[rbp]
  0009f	48 2b c8	 sub	 rcx, rax
  000a2	48 8b c1	 mov	 rax, rcx
  000a5	48 89 45 08	 mov	 QWORD PTR _Count$[rbp], rax
  000a9	48 63 85 84 00
	00 00		 movsxd	 rax, DWORD PTR _Bytes$[rbp]
  000b0	48 8b 4d 68	 mov	 rcx, QWORD PTR _Ptr1$[rbp]
  000b4	48 03 c8	 add	 rcx, rax
  000b7	48 8b c1	 mov	 rax, rcx
  000ba	48 89 45 68	 mov	 QWORD PTR _Ptr1$[rbp], rax
  000be	48 8b 45 48	 mov	 rax, QWORD PTR _Wchars$[rbp]
  000c2	48 ff c0	 inc	 rax
  000c5	48 89 45 48	 mov	 QWORD PTR _Wchars$[rbp], rax
$LN4@Maklocstr:
  000c9	48 83 7d 08 00	 cmp	 QWORD PTR _Count$[rbp], 0
  000ce	76 3a		 jbe	 SHORT $LN3@Maklocstr

; 593  :         if ((_Bytes = _Mbrtowc(&_Wc, _Ptr1, _Count, &_Mbst1, &_Cvt)) <= 0) {

  000d0	48 8b 85 30 02
	00 00		 mov	 rax, QWORD PTR _Cvt$[rbp]
  000d7	48 89 44 24 20	 mov	 QWORD PTR [rsp+32], rax
  000dc	4c 8d 8d c8 00
	00 00		 lea	 r9, QWORD PTR _Mbst1$[rbp]
  000e3	4c 8b 45 08	 mov	 r8, QWORD PTR _Count$[rbp]
  000e7	48 8b 55 68	 mov	 rdx, QWORD PTR _Ptr1$[rbp]
  000eb	48 8d 8d a4 00
	00 00		 lea	 rcx, QWORD PTR _Wc$[rbp]
  000f2	e8 00 00 00 00	 call	 _Mbrtowc
  000f7	89 85 84 00 00
	00		 mov	 DWORD PTR _Bytes$[rbp], eax
  000fd	83 bd 84 00 00
	00 00		 cmp	 DWORD PTR _Bytes$[rbp], 0
  00104	7f 02		 jg	 SHORT $LN8@Maklocstr

; 594  :             break;

  00106	eb 02		 jmp	 SHORT $LN3@Maklocstr
$LN8@Maklocstr:

; 595  :         }
; 596  :     }

  00108	eb 8a		 jmp	 SHORT $LN2@Maklocstr
$LN3@Maklocstr:

; 597  : 
; 598  :     ++_Wchars; // count terminating nul

  0010a	48 8b 45 48	 mov	 rax, QWORD PTR _Wchars$[rbp]
  0010e	48 ff c0	 inc	 rax
  00111	48 89 45 48	 mov	 QWORD PTR _Wchars$[rbp], rax

; 599  : 
; 600  :     wchar_t* _Ptrdest = static_cast<wchar_t*>(_calloc_dbg(_Wchars, sizeof(wchar_t), _CRT_BLOCK, __FILE__, __LINE__));

  00115	c7 44 24 20 58
	02 00 00	 mov	 DWORD PTR [rsp+32], 600	; 00000258H
  0011d	4c 8d 0d 00 00
	00 00		 lea	 r9, OFFSET FLAT:??_C@_0GJ@OPFKIEFE@C?3?2Program?5Files?5?$CIx86?$CJ?2Microsof@
  00124	41 b8 02 00 00
	00		 mov	 r8d, 2
  0012a	ba 02 00 00 00	 mov	 edx, 2
  0012f	48 8b 4d 48	 mov	 rcx, QWORD PTR _Wchars$[rbp]
  00133	ff 15 00 00 00
	00		 call	 QWORD PTR __imp__calloc_dbg
  00139	48 89 85 e8 00
	00 00		 mov	 QWORD PTR _Ptrdest$[rbp], rax

; 601  : 
; 602  :     if (!_Ptrdest) {

  00140	48 83 bd e8 00
	00 00 00	 cmp	 QWORD PTR _Ptrdest$[rbp], 0
  00148	75 05		 jne	 SHORT $LN9@Maklocstr

; 603  :         _Xbad_alloc();

  0014a	e8 00 00 00 00	 call	 ?_Xbad_alloc@std@@YAXXZ	; std::_Xbad_alloc
$LN9@Maklocstr:

; 604  :     }
; 605  : 
; 606  :     wchar_t* _Ptrnext = _Ptrdest;

  0014f	48 8b 85 e8 00
	00 00		 mov	 rax, QWORD PTR _Ptrdest$[rbp]
  00156	48 89 85 08 01
	00 00		 mov	 QWORD PTR _Ptrnext$[rbp], rax

; 607  :     mbstate_t _Mbst2  = {};

  0015d	48 8d 85 28 01
	00 00		 lea	 rax, QWORD PTR _Mbst2$[rbp]
  00164	48 8b f8	 mov	 rdi, rax
  00167	33 c0		 xor	 eax, eax
  00169	b9 08 00 00 00	 mov	 ecx, 8
  0016e	f3 aa		 rep stosb

; 608  : 
; 609  :     for (; 0 < _Wchars; _Count -= _Bytes, _Ptr += _Bytes, --_Wchars, ++_Ptrnext) {

  00170	eb 4d		 jmp	 SHORT $LN7@Maklocstr
$LN5@Maklocstr:
  00172	48 63 85 84 00
	00 00		 movsxd	 rax, DWORD PTR _Bytes$[rbp]
  00179	48 8b 4d 08	 mov	 rcx, QWORD PTR _Count$[rbp]
  0017d	48 2b c8	 sub	 rcx, rax
  00180	48 8b c1	 mov	 rax, rcx
  00183	48 89 45 08	 mov	 QWORD PTR _Count$[rbp], rax
  00187	48 63 85 84 00
	00 00		 movsxd	 rax, DWORD PTR _Bytes$[rbp]
  0018e	48 8b 8d 20 02
	00 00		 mov	 rcx, QWORD PTR _Ptr$[rbp]
  00195	48 03 c8	 add	 rcx, rax
  00198	48 8b c1	 mov	 rax, rcx
  0019b	48 89 85 20 02
	00 00		 mov	 QWORD PTR _Ptr$[rbp], rax
  001a2	48 8b 45 48	 mov	 rax, QWORD PTR _Wchars$[rbp]
  001a6	48 ff c8	 dec	 rax
  001a9	48 89 45 48	 mov	 QWORD PTR _Wchars$[rbp], rax
  001ad	48 8b 85 08 01
	00 00		 mov	 rax, QWORD PTR _Ptrnext$[rbp]
  001b4	48 83 c0 02	 add	 rax, 2
  001b8	48 89 85 08 01
	00 00		 mov	 QWORD PTR _Ptrnext$[rbp], rax
$LN7@Maklocstr:
  001bf	48 83 7d 48 00	 cmp	 QWORD PTR _Wchars$[rbp], 0
  001c4	76 40		 jbe	 SHORT $LN6@Maklocstr

; 610  :         if ((_Bytes = _Mbrtowc(_Ptrnext, _Ptr, _Count1, &_Mbst2, &_Cvt)) <= 0) {

  001c6	48 8b 85 30 02
	00 00		 mov	 rax, QWORD PTR _Cvt$[rbp]
  001cd	48 89 44 24 20	 mov	 QWORD PTR [rsp+32], rax
  001d2	4c 8d 8d 28 01
	00 00		 lea	 r9, QWORD PTR _Mbst2$[rbp]
  001d9	4c 8b 45 28	 mov	 r8, QWORD PTR _Count1$[rbp]
  001dd	48 8b 95 20 02
	00 00		 mov	 rdx, QWORD PTR _Ptr$[rbp]
  001e4	48 8b 8d 08 01
	00 00		 mov	 rcx, QWORD PTR _Ptrnext$[rbp]
  001eb	e8 00 00 00 00	 call	 _Mbrtowc
  001f0	89 85 84 00 00
	00		 mov	 DWORD PTR _Bytes$[rbp], eax
  001f6	83 bd 84 00 00
	00 00		 cmp	 DWORD PTR _Bytes$[rbp], 0
  001fd	7f 02		 jg	 SHORT $LN10@Maklocstr

; 611  :             break;

  001ff	eb 05		 jmp	 SHORT $LN6@Maklocstr
$LN10@Maklocstr:

; 612  :         }
; 613  :     }

  00201	e9 6c ff ff ff	 jmp	 $LN5@Maklocstr
$LN6@Maklocstr:

; 614  : 
; 615  :     *_Ptrnext = L'\0';

  00206	33 c0		 xor	 eax, eax
  00208	48 8b 8d 08 01
	00 00		 mov	 rcx, QWORD PTR _Ptrnext$[rbp]
  0020f	66 89 01	 mov	 WORD PTR [rcx], ax

; 616  : 
; 617  :     return _Ptrdest;

  00212	48 8b 85 e8 00
	00 00		 mov	 rax, QWORD PTR _Ptrdest$[rbp]
$LN11@Maklocstr:

; 618  : }

  00219	48 8b f8	 mov	 rdi, rax
  0021c	48 8d 4d d0	 lea	 rcx, QWORD PTR [rbp-48]
  00220	48 8d 15 00 00
	00 00		 lea	 rdx, OFFSET FLAT:??$_Maklocstr@_W@std@@YAPEA_WPEBDPEA_WAEBU_Cvtvec@@@Z$rtcFrameData
  00227	e8 00 00 00 00	 call	 _RTC_CheckStackVars
  0022c	48 8b c7	 mov	 rax, rdi
  0022f	48 8b 8d f8 01
	00 00		 mov	 rcx, QWORD PTR __$ArrayPad$[rbp]
  00236	48 33 cd	 xor	 rcx, rbp
  00239	e8 00 00 00 00	 call	 __security_check_cookie
  0023e	48 8d a5 08 02
	00 00		 lea	 rsp, QWORD PTR [rbp+520]
  00245	5f		 pop	 rdi
  00246	5d		 pop	 rbp
  00247	c3		 ret	 0
??$_Maklocstr@_W@std@@YAPEA_WPEBDPEA_WAEBU_Cvtvec@@@Z ENDP ; std::_Maklocstr<wchar_t>
_TEXT	ENDS
; Function compile flags: /Odtp /RTCsu /ZI
; File C:\Program Files (x86)\Windows Kits\10\Include\10.0.18362.0\ucrt\wchar.h
;	COMDAT wmemcpy
_TEXT	SEGMENT
_S1$ = 224
_S2$ = 232
_N$ = 240
wmemcpy	PROC						; COMDAT

; 230  :     {

$LN4:
  00000	4c 89 44 24 18	 mov	 QWORD PTR [rsp+24], r8
  00005	48 89 54 24 10	 mov	 QWORD PTR [rsp+16], rdx
  0000a	48 89 4c 24 08	 mov	 QWORD PTR [rsp+8], rcx
  0000f	55		 push	 rbp
  00010	57		 push	 rdi
  00011	48 81 ec e8 00
	00 00		 sub	 rsp, 232		; 000000e8H
  00018	48 8d 6c 24 20	 lea	 rbp, QWORD PTR [rsp+32]
  0001d	48 8b fc	 mov	 rdi, rsp
  00020	b9 3a 00 00 00	 mov	 ecx, 58			; 0000003aH
  00025	b8 cc cc cc cc	 mov	 eax, -858993460		; ccccccccH
  0002a	f3 ab		 rep stosd
  0002c	48 8b 8c 24 08
	01 00 00	 mov	 rcx, QWORD PTR [rsp+264]
  00034	48 8d 0d 00 00
	00 00		 lea	 rcx, OFFSET FLAT:__534C724A_wchar@h
  0003b	e8 00 00 00 00	 call	 __CheckForDebuggerJustMyCode

; 231  :         #pragma warning(push)
; 232  :         #pragma warning(disable : 4995 4996 6386)
; 233  :         return (wchar_t*)memcpy(_S1, _S2, _N*sizeof(wchar_t));

  00040	48 8b 85 f0 00
	00 00		 mov	 rax, QWORD PTR _N$[rbp]
  00047	48 d1 e0	 shl	 rax, 1
  0004a	4c 8b c0	 mov	 r8, rax
  0004d	48 8b 95 e8 00
	00 00		 mov	 rdx, QWORD PTR _S2$[rbp]
  00054	48 8b 8d e0 00
	00 00		 mov	 rcx, QWORD PTR _S1$[rbp]
  0005b	e8 00 00 00 00	 call	 memcpy

; 234  :         #pragma warning(pop)
; 235  :     }

  00060	48 8d a5 c8 00
	00 00		 lea	 rsp, QWORD PTR [rbp+200]
  00067	5f		 pop	 rdi
  00068	5d		 pop	 rbp
  00069	c3		 ret	 0
wmemcpy	ENDP
_TEXT	ENDS
; Function compile flags: /Odtp /RTCsu /ZI
; File C:\Program Files (x86)\Windows Kits\10\Include\10.0.18362.0\ucrt\corecrt_wstring.h
;	COMDAT ?wcsstr@@YAPEA_WPEA_WPEB_W@Z
_TEXT	SEGMENT
_String$ = 224
_SubStr$ = 232
?wcsstr@@YAPEA_WPEA_WPEB_W@Z PROC			; wcsstr, COMDAT

; 559  :     {

$LN4:
  00000	48 89 54 24 10	 mov	 QWORD PTR [rsp+16], rdx
  00005	48 89 4c 24 08	 mov	 QWORD PTR [rsp+8], rcx
  0000a	55		 push	 rbp
  0000b	57		 push	 rdi
  0000c	48 81 ec e8 00
	00 00		 sub	 rsp, 232		; 000000e8H
  00013	48 8d 6c 24 20	 lea	 rbp, QWORD PTR [rsp+32]
  00018	48 8b fc	 mov	 rdi, rsp
  0001b	b9 3a 00 00 00	 mov	 ecx, 58			; 0000003aH
  00020	b8 cc cc cc cc	 mov	 eax, -858993460		; ccccccccH
  00025	f3 ab		 rep stosd
  00027	48 8b 8c 24 08
	01 00 00	 mov	 rcx, QWORD PTR [rsp+264]
  0002f	48 8d 0d 00 00
	00 00		 lea	 rcx, OFFSET FLAT:__DC9673E3_corecrt_wstring@h
  00036	e8 00 00 00 00	 call	 __CheckForDebuggerJustMyCode

; 560  :         return const_cast<wchar_t*>(wcsstr(static_cast<wchar_t const*>(_String), _SubStr));

  0003b	48 8b 95 e8 00
	00 00		 mov	 rdx, QWORD PTR _SubStr$[rbp]
  00042	48 8b 8d e0 00
	00 00		 mov	 rcx, QWORD PTR _String$[rbp]
  00049	e8 00 00 00 00	 call	 wcsstr

; 561  :     }

  0004e	48 8d a5 c8 00
	00 00		 lea	 rsp, QWORD PTR [rbp+200]
  00055	5f		 pop	 rdi
  00056	5d		 pop	 rbp
  00057	c3		 ret	 0
?wcsstr@@YAPEA_WPEA_WPEB_W@Z ENDP			; wcsstr
_TEXT	ENDS
; Function compile flags: /Odtp /RTCsu /ZI
; File C:\Users\Skvortsoff\OneDrive\Документы\GitHub\course_LP\course_LP\Parm.cpp
;	COMDAT ?__empty_global_delete@@YAXPEAX_K@Z
_TEXT	SEGMENT
__formal$ = 224
__formal$ = 232
?__empty_global_delete@@YAXPEAX_K@Z PROC		; __empty_global_delete, COMDAT

$LN4:
  00000	48 89 54 24 10	 mov	 QWORD PTR [rsp+16], rdx
  00005	48 89 4c 24 08	 mov	 QWORD PTR [rsp+8], rcx
  0000a	55		 push	 rbp
  0000b	57		 push	 rdi
  0000c	48 81 ec e8 00
	00 00		 sub	 rsp, 232		; 000000e8H
  00013	48 8d 6c 24 20	 lea	 rbp, QWORD PTR [rsp+32]
  00018	48 8b fc	 mov	 rdi, rsp
  0001b	b9 3a 00 00 00	 mov	 ecx, 58			; 0000003aH
  00020	b8 cc cc cc cc	 mov	 eax, -858993460		; ccccccccH
  00025	f3 ab		 rep stosd
  00027	48 8b 8c 24 08
	01 00 00	 mov	 rcx, QWORD PTR [rsp+264]
  0002f	48 8d 0d 00 00
	00 00		 lea	 rcx, OFFSET FLAT:__0221B0B5_Parm@cpp
  00036	e8 00 00 00 00	 call	 __CheckForDebuggerJustMyCode
  0003b	48 8d a5 c8 00
	00 00		 lea	 rsp, QWORD PTR [rbp+200]
  00042	5f		 pop	 rdi
  00043	5d		 pop	 rbp
  00044	c3		 ret	 0
?__empty_global_delete@@YAXPEAX_K@Z ENDP		; __empty_global_delete
_TEXT	ENDS
; Function compile flags: /Odtp /RTCsu /ZI
; File C:\Users\Skvortsoff\OneDrive\Документы\GitHub\course_LP\course_LP\Parm.cpp
;	COMDAT ?__empty_global_delete@@YAXPEAX@Z
_TEXT	SEGMENT
__formal$ = 224
?__empty_global_delete@@YAXPEAX@Z PROC			; __empty_global_delete, COMDAT

$LN4:
  00000	48 89 4c 24 08	 mov	 QWORD PTR [rsp+8], rcx
  00005	55		 push	 rbp
  00006	57		 push	 rdi
  00007	48 81 ec e8 00
	00 00		 sub	 rsp, 232		; 000000e8H
  0000e	48 8d 6c 24 20	 lea	 rbp, QWORD PTR [rsp+32]
  00013	48 8b fc	 mov	 rdi, rsp
  00016	b9 3a 00 00 00	 mov	 ecx, 58			; 0000003aH
  0001b	b8 cc cc cc cc	 mov	 eax, -858993460		; ccccccccH
  00020	f3 ab		 rep stosd
  00022	48 8b 8c 24 08
	01 00 00	 mov	 rcx, QWORD PTR [rsp+264]
  0002a	48 8d 0d 00 00
	00 00		 lea	 rcx, OFFSET FLAT:__0221B0B5_Parm@cpp
  00031	e8 00 00 00 00	 call	 __CheckForDebuggerJustMyCode
  00036	48 8d a5 c8 00
	00 00		 lea	 rsp, QWORD PTR [rbp+200]
  0003d	5f		 pop	 rdi
  0003e	5d		 pop	 rbp
  0003f	c3		 ret	 0
?__empty_global_delete@@YAXPEAX@Z ENDP			; __empty_global_delete
_TEXT	ENDS
END
