; Listing generated by Microsoft (R) Optimizing Compiler Version 19.27.29112.0 

include listing.inc

INCLUDELIB MSVCRTD
INCLUDELIB OLDNAMES

msvcjmc	SEGMENT
__367CC694_corecrt_memcpy_s@h DB 01H
__F66CEB67_corecrt_stdio_config@h DB 01H
__5467428D_corecrt_wconio@h DB 01H
__4442441F_corecrt_wio@h DB 01H
__101834BA_corecrt_wstdio@h DB 01H
__DC9673E3_corecrt_wstring@h DB 01H
__45F4AF76_corecrt_wtime@h DB 01H
__186FF47F_stat@h DB 01H
__534C724A_wchar@h DB 01H
__62A468D7_tchar@h DB 01H
__FC8B975D_vcruntime_new@h DB 01H
__AD6A91B7_stdio@h DB 01H
__09340588_corecrt_math@h DB 01H
__24E9E95F_stdlib@h DB 01H
__51019776_cstdlib DB 01H
__5E219BC0_limits DB 01H
__B236D4B0_type_traits DB 01H
__B0C4CEA9_malloc@h DB 01H
__18D87206_vcruntime_exception@h DB 01H
__1302BCB8_exception DB 01H
__35D7DDB3_corecrt_memory@h DB 01H
__A29A7DFB_string@h DB 01H
__36E77527_xutility DB 01H
__0C99713E_xmemory DB 01H
__784AF7A2_xstring DB 01H
__7242C389_ctype@h DB 01H
__965C11D2_string DB 01H
__8AA3BE86_time@h DB 01H
__9A4C86E5_stdexcept DB 01H
__238A5427_xcall_once@h DB 01H
__3514C702_atomic DB 01H
__9CD74607_system_error DB 01H
__7B3ADE64_vcruntime_typeinfo@h DB 01H
__4638863E_typeinfo DB 01H
__E28F974E_memory DB 01H
__CECAC041_xfacet DB 01H
__59B165F6_xlocinfo DB 01H
__A7748393_xlocale DB 01H
__605412E5_xiosbase DB 01H
__8B7874EF_xlocmes DB 01H
__102707BA_cmath DB 01H
__39F3E584_xlocnum DB 01H
__1291F0BC_xlocmon DB 01H
__FDACCCE4_xloctime DB 01H
__D3011E72_ios DB 01H
__21FC1C84_fstream DB 01H
__7CEFA1A0_LT@h DB 01H
__4B315192_IT@h DB 01H
__BE522193_DP@h DB 01H
__20961129_GRB@h DB 01H
__22E0C0CC_MFST@h DB 01H
__C15C5D01_stack DB 01H
__22FDF990_PN@cpp DB 01H
__DAE328AB_list DB 01H
__1C3F1DC9_deque DB 01H
__D7B46C6D_istream DB 01H
__B4645957_ostream DB 01H
__496265E3_locale DB 01H
__98EC3E59_streambuf DB 01H
__274BC267_iterator DB 01H
__92C84E46_iosfwd DB 01H
__660C12FD_utility DB 01H
__911385EF_xstddef DB 01H
__190E306E_xatomic@h DB 01H
msvcjmc	ENDS
PUBLIC	?__empty_global_delete@@YAXPEAX@Z		; __empty_global_delete
PUBLIC	?__empty_global_delete@@YAXPEAX_K@Z		; __empty_global_delete
PUBLIC	wmemcpy
PUBLIC	??2@YAPEAX_KPEAX@Z				; operator new
PUBLIC	?max@?$numeric_limits@_J@std@@SA_JXZ		; std::numeric_limits<__int64>::max
PUBLIC	??0exception@std@@QEAA@QEBDH@Z			; std::exception::exception
PUBLIC	??0exception@std@@QEAA@AEBV01@@Z		; std::exception::exception
PUBLIC	??1exception@std@@UEAA@XZ			; std::exception::~exception
PUBLIC	?what@exception@std@@UEBAPEBDXZ			; std::exception::what
PUBLIC	??_Gexception@std@@UEAAPEAXI@Z			; std::exception::`scalar deleting destructor'
PUBLIC	??0bad_alloc@std@@AEAA@QEBD@Z			; std::bad_alloc::bad_alloc
PUBLIC	??1bad_alloc@std@@UEAA@XZ			; std::bad_alloc::~bad_alloc
PUBLIC	??0bad_alloc@std@@QEAA@AEBV01@@Z		; std::bad_alloc::bad_alloc
PUBLIC	??_Gbad_alloc@std@@UEAAPEAXI@Z			; std::bad_alloc::`scalar deleting destructor'
PUBLIC	??0bad_array_new_length@std@@QEAA@XZ		; std::bad_array_new_length::bad_array_new_length
PUBLIC	??1bad_array_new_length@std@@UEAA@XZ		; std::bad_array_new_length::~bad_array_new_length
PUBLIC	??0bad_array_new_length@std@@QEAA@AEBV01@@Z	; std::bad_array_new_length::bad_array_new_length
PUBLIC	??_Gbad_array_new_length@std@@UEAAPEAXI@Z	; std::bad_array_new_length::`scalar deleting destructor'
PUBLIC	?_Throw_bad_array_new_length@std@@YAXXZ		; std::_Throw_bad_array_new_length
PUBLIC	?_Allocate@_Default_allocate_traits@std@@SAPEAX_K@Z ; std::_Default_allocate_traits::_Allocate
PUBLIC	?_Adjust_manually_vector_aligned@std@@YAXAEAPEAXAEA_K@Z ; std::_Adjust_manually_vector_aligned
PUBLIC	??0_Container_proxy@std@@QEAA@PEAU_Container_base12@1@@Z ; std::_Container_proxy::_Container_proxy
PUBLIC	??0_Container_base12@std@@QEAA@XZ		; std::_Container_base12::_Container_base12
PUBLIC	?_Orphan_all@_Container_base12@std@@QEAAXXZ	; std::_Container_base12::_Orphan_all
PUBLIC	?_Release@_Basic_container_proxy_ptr12@std@@QEAAXXZ ; std::_Basic_container_proxy_ptr12::_Release
PUBLIC	??$addressof@U_Container_base12@std@@@std@@YAPEAU_Container_base12@0@AEAU10@@Z ; std::addressof<std::_Container_base12>
PUBLIC	??$_Construct_in_place@U_Container_proxy@std@@PEAU_Container_base12@2@@std@@YAXAEAU_Container_proxy@0@$$QEAPEAU_Container_base12@0@@Z ; std::_Construct_in_place<std::_Container_proxy,std::_Container_base12 *>
PUBLIC	??$_Maklocstr@_W@std@@YAPEA_WPEBDPEA_WAEBU_Cvtvec@@@Z ; std::_Maklocstr<wchar_t>
PUBLIC	?_Maklocwcs@std@@YAPEA_WPEB_W@Z			; std::_Maklocwcs
PUBLIC	??$_Maklocstr@D@std@@YAPEADPEBDPEADAEBU_Cvtvec@@@Z ; std::_Maklocstr<char>
PUBLIC	??$_Getvals@_W@?$time_get@DV?$istreambuf_iterator@DU?$char_traits@D@std@@@std@@@std@@IEAAX_WAEBV_Locinfo@1@@Z ; std::time_get<char,std::istreambuf_iterator<char,std::char_traits<char> > >::_Getvals<wchar_t>
PUBLIC	??$_Getvals@_W@?$time_get@_WV?$istreambuf_iterator@_WU?$char_traits@_W@std@@@std@@@std@@IEAAX_WAEBV_Locinfo@1@@Z ; std::time_get<wchar_t,std::istreambuf_iterator<wchar_t,std::char_traits<wchar_t> > >::_Getvals<wchar_t>
PUBLIC	??0Entry@LT@@QEAA@XZ				; LT::Entry::Entry
PUBLIC	?seachingExpressions@PN@@YAXAEAULexTable@LT@@AEAUIdTable@IT@@@Z ; PN::seachingExpressions
PUBLIC	?polishNotation@PN@@YAHHAEAULexTable@LT@@AEAUIdTable@IT@@@Z ; PN::polishNotation
PUBLIC	??0?$allocator@UEntry@LT@@@std@@QEAA@XZ		; std::allocator<LT::Entry>::allocator<LT::Entry>
PUBLIC	?deallocate@?$allocator@UEntry@LT@@@std@@QEAAXQEAUEntry@LT@@_K@Z ; std::allocator<LT::Entry>::deallocate
PUBLIC	?allocate@?$allocator@UEntry@LT@@@std@@QEAAPEAUEntry@LT@@_K@Z ; std::allocator<LT::Entry>::allocate
PUBLIC	?max_size@?$_Default_allocator_traits@V?$allocator@UEntry@LT@@@std@@@std@@SA_KAEBV?$allocator@UEntry@LT@@@2@@Z ; std::_Default_allocator_traits<std::allocator<LT::Entry> >::max_size
PUBLIC	?deallocate@?$allocator@PEAUEntry@LT@@@std@@QEAAXQEAPEAUEntry@LT@@_K@Z ; std::allocator<LT::Entry *>::deallocate
PUBLIC	?allocate@?$allocator@PEAUEntry@LT@@@std@@QEAAPEAPEAUEntry@LT@@_K@Z ; std::allocator<LT::Entry *>::allocate
PUBLIC	??0?$deque@UEntry@LT@@V?$allocator@UEntry@LT@@@std@@@std@@QEAA@XZ ; std::deque<LT::Entry,std::allocator<LT::Entry> >::deque<LT::Entry,std::allocator<LT::Entry> >
PUBLIC	??1?$deque@UEntry@LT@@V?$allocator@UEntry@LT@@@std@@@std@@QEAA@XZ ; std::deque<LT::Entry,std::allocator<LT::Entry> >::~deque<LT::Entry,std::allocator<LT::Entry> >
PUBLIC	?_Unchecked_end@?$deque@UEntry@LT@@V?$allocator@UEntry@LT@@@std@@@std@@QEAA?AV?$_Deque_unchecked_iterator@V?$_Deque_val@U?$_Deque_simple_types@UEntry@LT@@@std@@@std@@@2@XZ ; std::deque<LT::Entry,std::allocator<LT::Entry> >::_Unchecked_end
PUBLIC	?max_size@?$deque@UEntry@LT@@V?$allocator@UEntry@LT@@@std@@@std@@QEBA_KXZ ; std::deque<LT::Entry,std::allocator<LT::Entry> >::max_size
PUBLIC	?empty@?$deque@UEntry@LT@@V?$allocator@UEntry@LT@@@std@@@std@@QEBA_NXZ ; std::deque<LT::Entry,std::allocator<LT::Entry> >::empty
PUBLIC	?back@?$deque@UEntry@LT@@V?$allocator@UEntry@LT@@@std@@@std@@QEAAAEAUEntry@LT@@XZ ; std::deque<LT::Entry,std::allocator<LT::Entry> >::back
PUBLIC	?push_back@?$deque@UEntry@LT@@V?$allocator@UEntry@LT@@@std@@@std@@QEAAXAEBUEntry@LT@@@Z ; std::deque<LT::Entry,std::allocator<LT::Entry> >::push_back
PUBLIC	?pop_back@?$deque@UEntry@LT@@V?$allocator@UEntry@LT@@@std@@@std@@QEAAXXZ ; std::deque<LT::Entry,std::allocator<LT::Entry> >::pop_back
PUBLIC	?_Xlen@?$deque@UEntry@LT@@V?$allocator@UEntry@LT@@@std@@@std@@AEBAXXZ ; std::deque<LT::Entry,std::allocator<LT::Entry> >::_Xlen
PUBLIC	?_Growmap@?$deque@UEntry@LT@@V?$allocator@UEntry@LT@@@std@@@std@@AEAAX_K@Z ; std::deque<LT::Entry,std::allocator<LT::Entry> >::_Growmap
PUBLIC	?_Tidy@?$deque@UEntry@LT@@V?$allocator@UEntry@LT@@@std@@@std@@AEAAXXZ ; std::deque<LT::Entry,std::allocator<LT::Entry> >::_Tidy
PUBLIC	?_Orphan_off@?$deque@UEntry@LT@@V?$allocator@UEntry@LT@@@std@@@std@@AEBAX_K@Z ; std::deque<LT::Entry,std::allocator<LT::Entry> >::_Orphan_off
PUBLIC	?_Getblock@?$deque@UEntry@LT@@V?$allocator@UEntry@LT@@@std@@@std@@AEBA_K_K@Z ; std::deque<LT::Entry,std::allocator<LT::Entry> >::_Getblock
PUBLIC	?_Orphan_all@?$deque@UEntry@LT@@V?$allocator@UEntry@LT@@@std@@@std@@AEAAXXZ ; std::deque<LT::Entry,std::allocator<LT::Entry> >::_Orphan_all
PUBLIC	?_Getal@?$deque@UEntry@LT@@V?$allocator@UEntry@LT@@@std@@@std@@AEAAAEAV?$allocator@UEntry@LT@@@2@XZ ; std::deque<LT::Entry,std::allocator<LT::Entry> >::_Getal
PUBLIC	?_Getal@?$deque@UEntry@LT@@V?$allocator@UEntry@LT@@@std@@@std@@AEBAAEBV?$allocator@UEntry@LT@@@2@XZ ; std::deque<LT::Entry,std::allocator<LT::Entry> >::_Getal
PUBLIC	?_Get_data@?$deque@UEntry@LT@@V?$allocator@UEntry@LT@@@std@@@std@@AEAAAEAV?$_Deque_val@U?$_Deque_simple_types@UEntry@LT@@@std@@@2@XZ ; std::deque<LT::Entry,std::allocator<LT::Entry> >::_Get_data
PUBLIC	?_Get_data@?$deque@UEntry@LT@@V?$allocator@UEntry@LT@@@std@@@std@@AEBAAEBV?$_Deque_val@U?$_Deque_simple_types@UEntry@LT@@@std@@@2@XZ ; std::deque<LT::Entry,std::allocator<LT::Entry> >::_Get_data
PUBLIC	?_Map@?$deque@UEntry@LT@@V?$allocator@UEntry@LT@@@std@@@std@@AEAAAEAPEAPEAUEntry@LT@@XZ ; std::deque<LT::Entry,std::allocator<LT::Entry> >::_Map
PUBLIC	?_Mapsize@?$deque@UEntry@LT@@V?$allocator@UEntry@LT@@@std@@@std@@AEAAAEA_KXZ ; std::deque<LT::Entry,std::allocator<LT::Entry> >::_Mapsize
PUBLIC	?_Myoff@?$deque@UEntry@LT@@V?$allocator@UEntry@LT@@@std@@@std@@AEAAAEA_KXZ ; std::deque<LT::Entry,std::allocator<LT::Entry> >::_Myoff
PUBLIC	?_Myoff@?$deque@UEntry@LT@@V?$allocator@UEntry@LT@@@std@@@std@@AEBAAEB_KXZ ; std::deque<LT::Entry,std::allocator<LT::Entry> >::_Myoff
PUBLIC	?_Mysize@?$deque@UEntry@LT@@V?$allocator@UEntry@LT@@@std@@@std@@AEAAAEA_KXZ ; std::deque<LT::Entry,std::allocator<LT::Entry> >::_Mysize
PUBLIC	?_Mysize@?$deque@UEntry@LT@@V?$allocator@UEntry@LT@@@std@@@std@@AEBAAEB_KXZ ; std::deque<LT::Entry,std::allocator<LT::Entry> >::_Mysize
PUBLIC	??0?$_Deque_val@U?$_Deque_simple_types@UEntry@LT@@@std@@@std@@QEAA@XZ ; std::_Deque_val<std::_Deque_simple_types<LT::Entry> >::_Deque_val<std::_Deque_simple_types<LT::Entry> >
PUBLIC	?_Getblock@?$_Deque_val@U?$_Deque_simple_types@UEntry@LT@@@std@@@std@@QEBA_K_K@Z ; std::_Deque_val<std::_Deque_simple_types<LT::Entry> >::_Getblock
PUBLIC	?_Get_first@?$_Compressed_pair@V?$allocator@UEntry@LT@@@std@@V?$_Deque_val@U?$_Deque_simple_types@UEntry@LT@@@std@@@2@$00@std@@QEAAAEAV?$allocator@UEntry@LT@@@2@XZ ; std::_Compressed_pair<std::allocator<LT::Entry>,std::_Deque_val<std::_Deque_simple_types<LT::Entry> >,1>::_Get_first
PUBLIC	?_Get_first@?$_Compressed_pair@V?$allocator@UEntry@LT@@@std@@V?$_Deque_val@U?$_Deque_simple_types@UEntry@LT@@@std@@@2@$00@std@@QEBAAEBV?$allocator@UEntry@LT@@@2@XZ ; std::_Compressed_pair<std::allocator<LT::Entry>,std::_Deque_val<std::_Deque_simple_types<LT::Entry> >,1>::_Get_first
PUBLIC	??0?$stack@UEntry@LT@@V?$deque@UEntry@LT@@V?$allocator@UEntry@LT@@@std@@@std@@@std@@QEAA@XZ ; std::stack<LT::Entry,std::deque<LT::Entry,std::allocator<LT::Entry> > >::stack<LT::Entry,std::deque<LT::Entry,std::allocator<LT::Entry> > >
PUBLIC	?empty@?$stack@UEntry@LT@@V?$deque@UEntry@LT@@V?$allocator@UEntry@LT@@@std@@@std@@@std@@QEBA_NXZ ; std::stack<LT::Entry,std::deque<LT::Entry,std::allocator<LT::Entry> > >::empty
PUBLIC	?top@?$stack@UEntry@LT@@V?$deque@UEntry@LT@@V?$allocator@UEntry@LT@@@std@@@std@@@std@@QEAAAEAUEntry@LT@@XZ ; std::stack<LT::Entry,std::deque<LT::Entry,std::allocator<LT::Entry> > >::top
PUBLIC	?push@?$stack@UEntry@LT@@V?$deque@UEntry@LT@@V?$allocator@UEntry@LT@@@std@@@std@@@std@@QEAAXAEBUEntry@LT@@@Z ; std::stack<LT::Entry,std::deque<LT::Entry,std::allocator<LT::Entry> > >::push
PUBLIC	?pop@?$stack@UEntry@LT@@V?$deque@UEntry@LT@@V?$allocator@UEntry@LT@@@std@@@std@@@std@@QEAAXXZ ; std::stack<LT::Entry,std::deque<LT::Entry,std::allocator<LT::Entry> > >::pop
PUBLIC	??1?$stack@UEntry@LT@@V?$deque@UEntry@LT@@V?$allocator@UEntry@LT@@@std@@@std@@@std@@QEAA@XZ ; std::stack<LT::Entry,std::deque<LT::Entry,std::allocator<LT::Entry> > >::~stack<LT::Entry,std::deque<LT::Entry,std::allocator<LT::Entry> > >
PUBLIC	?__autoclassinit2@?$stack@UEntry@LT@@V?$deque@UEntry@LT@@V?$allocator@UEntry@LT@@@std@@@std@@@std@@QEAAX_K@Z ; std::stack<LT::Entry,std::deque<LT::Entry,std::allocator<LT::Entry> > >::__autoclassinit2
PUBLIC	??0?$allocator@U?$_List_node@UEntry@LT@@PEAX@std@@@std@@QEAA@XZ ; std::allocator<std::_List_node<LT::Entry,void *> >::allocator<std::_List_node<LT::Entry,void *> >
PUBLIC	?deallocate@?$allocator@U?$_List_node@UEntry@LT@@PEAX@std@@@std@@QEAAXQEAU?$_List_node@UEntry@LT@@PEAX@2@_K@Z ; std::allocator<std::_List_node<LT::Entry,void *> >::deallocate
PUBLIC	?allocate@?$allocator@U?$_List_node@UEntry@LT@@PEAX@std@@@std@@QEAAPEAU?$_List_node@UEntry@LT@@PEAX@2@_K@Z ; std::allocator<std::_List_node<LT::Entry,void *> >::allocate
PUBLIC	?deallocate@?$_Default_allocator_traits@V?$allocator@U?$_List_node@UEntry@LT@@PEAX@std@@@std@@@std@@SAXAEAV?$allocator@U?$_List_node@UEntry@LT@@PEAX@std@@@2@QEAU?$_List_node@UEntry@LT@@PEAX@2@_K@Z ; std::_Default_allocator_traits<std::allocator<std::_List_node<LT::Entry,void *> > >::deallocate
PUBLIC	?max_size@?$_Default_allocator_traits@V?$allocator@U?$_List_node@UEntry@LT@@PEAX@std@@@std@@@std@@SA_KAEBV?$allocator@U?$_List_node@UEntry@LT@@PEAX@std@@@2@@Z ; std::_Default_allocator_traits<std::allocator<std::_List_node<LT::Entry,void *> > >::max_size
PUBLIC	??0?$list@UEntry@LT@@V?$allocator@UEntry@LT@@@std@@@std@@QEAA@XZ ; std::list<LT::Entry,std::allocator<LT::Entry> >::list<LT::Entry,std::allocator<LT::Entry> >
PUBLIC	??1?$list@UEntry@LT@@V?$allocator@UEntry@LT@@@std@@@std@@QEAA@XZ ; std::list<LT::Entry,std::allocator<LT::Entry> >::~list<LT::Entry,std::allocator<LT::Entry> >
PUBLIC	?max_size@?$list@UEntry@LT@@V?$allocator@UEntry@LT@@@std@@@std@@QEBA_KXZ ; std::list<LT::Entry,std::allocator<LT::Entry> >::max_size
PUBLIC	?empty@?$list@UEntry@LT@@V?$allocator@UEntry@LT@@@std@@@std@@QEBA_NXZ ; std::list<LT::Entry,std::allocator<LT::Entry> >::empty
PUBLIC	?front@?$list@UEntry@LT@@V?$allocator@UEntry@LT@@@std@@@std@@QEAAAEAUEntry@LT@@XZ ; std::list<LT::Entry,std::allocator<LT::Entry> >::front
PUBLIC	?pop_front@?$list@UEntry@LT@@V?$allocator@UEntry@LT@@@std@@@std@@QEAAXXZ ; std::list<LT::Entry,std::allocator<LT::Entry> >::pop_front
PUBLIC	?push_back@?$list@UEntry@LT@@V?$allocator@UEntry@LT@@@std@@@std@@QEAAXAEBUEntry@LT@@@Z ; std::list<LT::Entry,std::allocator<LT::Entry> >::push_back
PUBLIC	?_Unchecked_erase@?$list@UEntry@LT@@V?$allocator@UEntry@LT@@@std@@@std@@AEAAPEAU?$_List_node@UEntry@LT@@PEAX@2@QEAU32@@Z ; std::list<LT::Entry,std::allocator<LT::Entry> >::_Unchecked_erase
PUBLIC	?_Tidy@?$list@UEntry@LT@@V?$allocator@UEntry@LT@@@std@@@std@@AEAAXXZ ; std::list<LT::Entry,std::allocator<LT::Entry> >::_Tidy
PUBLIC	?_Alloc_sentinel_and_proxy@?$list@UEntry@LT@@V?$allocator@UEntry@LT@@@std@@@std@@AEAAXXZ ; std::list<LT::Entry,std::allocator<LT::Entry> >::_Alloc_sentinel_and_proxy
PUBLIC	?_Getal@?$list@UEntry@LT@@V?$allocator@UEntry@LT@@@std@@@std@@AEAAAEAV?$allocator@U?$_List_node@UEntry@LT@@PEAX@std@@@2@XZ ; std::list<LT::Entry,std::allocator<LT::Entry> >::_Getal
PUBLIC	?_Getal@?$list@UEntry@LT@@V?$allocator@UEntry@LT@@@std@@@std@@AEBAAEBV?$allocator@U?$_List_node@UEntry@LT@@PEAX@std@@@2@XZ ; std::list<LT::Entry,std::allocator<LT::Entry> >::_Getal
PUBLIC	??0?$_List_val@U?$_List_simple_types@UEntry@LT@@@std@@@std@@QEAA@XZ ; std::_List_val<std::_List_simple_types<LT::Entry> >::_List_val<std::_List_simple_types<LT::Entry> >
PUBLIC	?_Orphan_ptr2@?$_List_val@U?$_List_simple_types@UEntry@LT@@@std@@@std@@QEAAXPEAU?$_List_node@UEntry@LT@@PEAX@2@@Z ; std::_List_val<std::_List_simple_types<LT::Entry> >::_Orphan_ptr2
PUBLIC	?_Get_first@?$_Compressed_pair@V?$allocator@U?$_List_node@UEntry@LT@@PEAX@std@@@std@@V?$_List_val@U?$_List_simple_types@UEntry@LT@@@std@@@2@$00@std@@QEAAAEAV?$allocator@U?$_List_node@UEntry@LT@@PEAX@std@@@2@XZ ; std::_Compressed_pair<std::allocator<std::_List_node<LT::Entry,void *> >,std::_List_val<std::_List_simple_types<LT::Entry> >,1>::_Get_first
PUBLIC	?_Get_first@?$_Compressed_pair@V?$allocator@U?$_List_node@UEntry@LT@@PEAX@std@@@std@@V?$_List_val@U?$_List_simple_types@UEntry@LT@@@std@@@2@$00@std@@QEBAAEBV?$allocator@U?$_List_node@UEntry@LT@@PEAX@std@@@2@XZ ; std::_Compressed_pair<std::allocator<std::_List_node<LT::Entry,void *> >,std::_List_val<std::_List_simple_types<LT::Entry> >,1>::_Get_first
PUBLIC	?__autoclassinit2@?$list@UEntry@LT@@V?$allocator@UEntry@LT@@@std@@@std@@QEAAX_K@Z ; std::list<LT::Entry,std::allocator<LT::Entry> >::__autoclassinit2
PUBLIC	??$_Emplace@AEBUEntry@LT@@@?$list@UEntry@LT@@V?$allocator@UEntry@LT@@@std@@@std@@QEAAPEAU?$_List_node@UEntry@LT@@PEAX@1@QEAU21@AEBUEntry@LT@@@Z ; std::list<LT::Entry,std::allocator<LT::Entry> >::_Emplace<LT::Entry const &>
PUBLIC	?allocate@?$allocator@U_Container_proxy@std@@@std@@QEAAPEAU_Container_proxy@2@_K@Z ; std::allocator<std::_Container_proxy>::allocate
PUBLIC	??$?0U?$_List_node@UEntry@LT@@PEAX@std@@@?$allocator@U_Container_proxy@std@@@std@@QEAA@AEBV?$allocator@U?$_List_node@UEntry@LT@@PEAX@std@@@1@@Z ; std::allocator<std::_Container_proxy>::allocator<std::_Container_proxy><std::_List_node<LT::Entry,void *> >
PUBLIC	??$_Delete_plain_internal@V?$allocator@U_Container_proxy@std@@@std@@@std@@YAXAEAV?$allocator@U_Container_proxy@std@@@0@QEAU_Container_proxy@0@@Z ; std::_Delete_plain_internal<std::allocator<std::_Container_proxy> >
PUBLIC	??$?0$$V@?$_Compressed_pair@V?$allocator@U?$_List_node@UEntry@LT@@PEAX@std@@@std@@V?$_List_val@U?$_List_simple_types@UEntry@LT@@@std@@@2@$00@std@@QEAA@U_Zero_then_variadic_args_t@1@@Z ; std::_Compressed_pair<std::allocator<std::_List_node<LT::Entry,void *> >,std::_List_val<std::_List_simple_types<LT::Entry> >,1>::_Compressed_pair<std::allocator<std::_List_node<LT::Entry,void *> >,std::_List_val<std::_List_simple_types<LT::Entry> >,1><>
PUBLIC	??$?0UEntry@LT@@@?$allocator@U_Container_proxy@std@@@std@@QEAA@AEBV?$allocator@UEntry@LT@@@1@@Z ; std::allocator<std::_Container_proxy>::allocator<std::_Container_proxy><LT::Entry>
PUBLIC	??$exchange@PEAU_Container_proxy@std@@$$T@std@@YAPEAU_Container_proxy@0@AEAPEAU10@$$QEA$$T@Z ; std::exchange<std::_Container_proxy *,std::nullptr_t>
PUBLIC	??$?0$$V@?$_Compressed_pair@V?$allocator@UEntry@LT@@@std@@V?$_Deque_val@U?$_Deque_simple_types@UEntry@LT@@@std@@@2@$00@std@@QEAA@U_Zero_then_variadic_args_t@1@@Z ; std::_Compressed_pair<std::allocator<LT::Entry>,std::_Deque_val<std::_Deque_simple_types<LT::Entry> >,1>::_Compressed_pair<std::allocator<LT::Entry>,std::_Deque_val<std::_Deque_simple_types<LT::Entry> >,1><>
PUBLIC	??$_Alloc_proxy@V?$allocator@U_Container_proxy@std@@@std@@@_Container_base12@std@@QEAAX$$QEAV?$allocator@U_Container_proxy@std@@@1@@Z ; std::_Container_base12::_Alloc_proxy<std::allocator<std::_Container_proxy> >
PUBLIC	??$min@_K@std@@YAAEB_KAEB_K0@Z			; std::min<unsigned __int64>
PUBLIC	??0?$_Container_proxy_ptr12@V?$allocator@U_Container_proxy@std@@@std@@@std@@QEAA@AEAV?$allocator@U_Container_proxy@std@@@1@AEAU_Container_base12@1@@Z ; std::_Container_proxy_ptr12<std::allocator<std::_Container_proxy> >::_Container_proxy_ptr12<std::allocator<std::_Container_proxy> >
PUBLIC	??1?$_Container_proxy_ptr12@V?$allocator@U_Container_proxy@std@@@std@@@std@@QEAA@XZ ; std::_Container_proxy_ptr12<std::allocator<std::_Container_proxy> >::~_Container_proxy_ptr12<std::allocator<std::_Container_proxy> >
PUBLIC	??$_Unfancy@U_Container_proxy@std@@@std@@YAPEAU_Container_proxy@0@PEAU10@@Z ; std::_Unfancy<std::_Container_proxy>
PUBLIC	??$_Construct_in_place@PEAU?$_List_node@UEntry@LT@@PEAX@std@@AEAPEAU12@@std@@YAXAEAPEAU?$_List_node@UEntry@LT@@PEAX@0@0@Z ; std::_Construct_in_place<std::_List_node<LT::Entry,void *> *,std::_List_node<LT::Entry,void *> * &>
PUBLIC	??$_Free_non_head@V?$allocator@U?$_List_node@UEntry@LT@@PEAX@std@@@std@@@?$_List_node@UEntry@LT@@PEAX@std@@SAXAEAV?$allocator@U?$_List_node@UEntry@LT@@PEAX@std@@@1@PEAU01@@Z ; std::_List_node<LT::Entry,void *>::_Free_non_head<std::allocator<std::_List_node<LT::Entry,void *> > >
PUBLIC	??$_Freenode0@V?$allocator@U?$_List_node@UEntry@LT@@PEAX@std@@@std@@@?$_List_node@UEntry@LT@@PEAX@std@@SAXAEAV?$allocator@U?$_List_node@UEntry@LT@@PEAX@std@@@1@PEAU01@@Z ; std::_List_node<LT::Entry,void *>::_Freenode0<std::allocator<std::_List_node<LT::Entry,void *> > >
PUBLIC	??$_Freenode@V?$allocator@U?$_List_node@UEntry@LT@@PEAX@std@@@std@@@?$_List_node@UEntry@LT@@PEAX@std@@SAXAEAV?$allocator@U?$_List_node@UEntry@LT@@PEAX@std@@@1@PEAU01@@Z ; std::_List_node<LT::Entry,void *>::_Freenode<std::allocator<std::_List_node<LT::Entry,void *> > >
PUBLIC	??$?0UEntry@LT@@@?$allocator@PEAUEntry@LT@@@std@@QEAA@AEBV?$allocator@UEntry@LT@@@1@@Z ; std::allocator<LT::Entry *>::allocator<LT::Entry *><LT::Entry>
PUBLIC	??$_Destroy_in_place@PEAUEntry@LT@@@std@@YAXAEAPEAUEntry@LT@@@Z ; std::_Destroy_in_place<LT::Entry *>
PUBLIC	??$_Unfancy@UEntry@LT@@@std@@YAPEAUEntry@LT@@PEAU12@@Z ; std::_Unfancy<LT::Entry>
PUBLIC	??$destroy@UEntry@LT@@@?$_Default_allocator_traits@V?$allocator@UEntry@LT@@@std@@@std@@SAXAEAV?$allocator@UEntry@LT@@@1@QEAUEntry@LT@@@Z ; std::_Default_allocator_traits<std::allocator<LT::Entry> >::destroy<LT::Entry>
PUBLIC	??$_Emplace_back_internal@AEBUEntry@LT@@@?$deque@UEntry@LT@@V?$allocator@UEntry@LT@@@std@@@std@@AEAAXAEBUEntry@LT@@@Z ; std::deque<LT::Entry,std::allocator<LT::Entry> >::_Emplace_back_internal<LT::Entry const &>
PUBLIC	??0?$_Deque_unchecked_const_iterator@V?$_Deque_val@U?$_Deque_simple_types@UEntry@LT@@@std@@@std@@@std@@QEAA@_KPEBU_Container_base12@1@@Z ; std::_Deque_unchecked_const_iterator<std::_Deque_val<std::_Deque_simple_types<LT::Entry> > >::_Deque_unchecked_const_iterator<std::_Deque_val<std::_Deque_simple_types<LT::Entry> > >
PUBLIC	??D?$_Deque_unchecked_const_iterator@V?$_Deque_val@U?$_Deque_simple_types@UEntry@LT@@@std@@@std@@@std@@QEBAAEBUEntry@LT@@XZ ; std::_Deque_unchecked_const_iterator<std::_Deque_val<std::_Deque_simple_types<LT::Entry> > >::operator*
PUBLIC	??Z?$_Deque_unchecked_const_iterator@V?$_Deque_val@U?$_Deque_simple_types@UEntry@LT@@@std@@@std@@@std@@QEAAAEAV01@_J@Z ; std::_Deque_unchecked_const_iterator<std::_Deque_val<std::_Deque_simple_types<LT::Entry> > >::operator-=
PUBLIC	??D?$_Deque_unchecked_iterator@V?$_Deque_val@U?$_Deque_simple_types@UEntry@LT@@@std@@@std@@@std@@QEBAAEAUEntry@LT@@XZ ; std::_Deque_unchecked_iterator<std::_Deque_val<std::_Deque_simple_types<LT::Entry> > >::operator*
PUBLIC	??Z?$_Deque_unchecked_iterator@V?$_Deque_val@U?$_Deque_simple_types@UEntry@LT@@@std@@@std@@@std@@QEAAAEAV01@_J@Z ; std::_Deque_unchecked_iterator<std::_Deque_val<std::_Deque_simple_types<LT::Entry> > >::operator-=
PUBLIC	??G?$_Deque_unchecked_iterator@V?$_Deque_val@U?$_Deque_simple_types@UEntry@LT@@@std@@@std@@@std@@QEBA?AV01@_J@Z ; std::_Deque_unchecked_iterator<std::_Deque_val<std::_Deque_simple_types<LT::Entry> > >::operator-
PUBLIC	?__autoclassinit2@?$_Deque_unchecked_iterator@V?$_Deque_val@U?$_Deque_simple_types@UEntry@LT@@@std@@@std@@@std@@QEAAX_K@Z ; std::_Deque_unchecked_iterator<std::_Deque_val<std::_Deque_simple_types<LT::Entry> > >::__autoclassinit2
PUBLIC	??0?$_Deque_unchecked_iterator@V?$_Deque_val@U?$_Deque_simple_types@UEntry@LT@@@std@@@std@@@std@@QEAA@_KPEBU_Container_base12@1@@Z ; std::_Deque_unchecked_iterator<std::_Deque_val<std::_Deque_simple_types<LT::Entry> > >::_Deque_unchecked_iterator<std::_Deque_val<std::_Deque_simple_types<LT::Entry> > >
PUBLIC	??$_Get_size_of_n@$0BA@@std@@YA_K_K@Z		; std::_Get_size_of_n<16>
PUBLIC	??$_Allocate@$0BA@U_Default_allocate_traits@std@@$0A@@std@@YAPEAX_K@Z ; std::_Allocate<16,std::_Default_allocate_traits,0>
PUBLIC	??$_Get_size_of_n@$0CA@@std@@YA_K_K@Z		; std::_Get_size_of_n<32>
PUBLIC	??$addressof@V?$_Deque_val@U?$_Deque_simple_types@UEntry@LT@@@std@@@std@@@std@@YAPEAV?$_Deque_val@U?$_Deque_simple_types@UEntry@LT@@@std@@@0@AEAV10@@Z ; std::addressof<std::_Deque_val<std::_Deque_simple_types<LT::Entry> > >
PUBLIC	??$_Deallocate@$0BA@$0A@@std@@YAXPEAX_K@Z	; std::_Deallocate<16,0>
PUBLIC	??$addressof@U_Container_proxy@std@@@std@@YAPEAU_Container_proxy@0@AEAU10@@Z ; std::addressof<std::_Container_proxy>
PUBLIC	??$forward@PEAU_Container_base12@std@@@std@@YA$$QEAPEAU_Container_base12@0@AEAPEAU10@@Z ; std::forward<std::_Container_base12 *>
PUBLIC	??0?$_Alloc_construct_ptr@V?$allocator@U?$_List_node@UEntry@LT@@PEAX@std@@@std@@@std@@QEAA@AEAV?$allocator@U?$_List_node@UEntry@LT@@PEAX@std@@@1@@Z ; std::_Alloc_construct_ptr<std::allocator<std::_List_node<LT::Entry,void *> > >::_Alloc_construct_ptr<std::allocator<std::_List_node<LT::Entry,void *> > >
PUBLIC	?_Allocate@?$_Alloc_construct_ptr@V?$allocator@U?$_List_node@UEntry@LT@@PEAX@std@@@std@@@std@@QEAAXXZ ; std::_Alloc_construct_ptr<std::allocator<std::_List_node<LT::Entry,void *> > >::_Allocate
PUBLIC	??1?$_Alloc_construct_ptr@V?$allocator@U?$_List_node@UEntry@LT@@PEAX@std@@@std@@@std@@QEAA@XZ ; std::_Alloc_construct_ptr<std::allocator<std::_List_node<LT::Entry,void *> > >::~_Alloc_construct_ptr<std::allocator<std::_List_node<LT::Entry,void *> > >
PUBLIC	??1?$_List_node_emplace_op2@V?$allocator@U?$_List_node@UEntry@LT@@PEAX@std@@@std@@@std@@QEAA@XZ ; std::_List_node_emplace_op2<std::allocator<std::_List_node<LT::Entry,void *> > >::~_List_node_emplace_op2<std::allocator<std::_List_node<LT::Entry,void *> > >
PUBLIC	?_Transfer_before@?$_List_node_emplace_op2@V?$allocator@U?$_List_node@UEntry@LT@@PEAX@std@@@std@@@std@@QEAAPEAU?$_List_node@UEntry@LT@@PEAX@2@QEAU32@@Z ; std::_List_node_emplace_op2<std::allocator<std::_List_node<LT::Entry,void *> > >::_Transfer_before
PUBLIC	??$forward@AEBUEntry@LT@@@std@@YAAEBUEntry@LT@@AEBU12@@Z ; std::forward<LT::Entry const &>
PUBLIC	??$?0AEBUEntry@LT@@@?$_List_node_emplace_op2@V?$allocator@U?$_List_node@UEntry@LT@@PEAX@std@@@std@@@std@@QEAA@AEAV?$allocator@U?$_List_node@UEntry@LT@@PEAX@std@@@1@AEBUEntry@LT@@@Z ; std::_List_node_emplace_op2<std::allocator<std::_List_node<LT::Entry,void *> > >::_List_node_emplace_op2<std::allocator<std::_List_node<LT::Entry,void *> > ><LT::Entry const &>
PUBLIC	??$_Deallocate_plain@V?$allocator@U_Container_proxy@std@@@std@@@std@@YAXAEAV?$allocator@U_Container_proxy@std@@@0@QEAU_Container_proxy@0@@Z ; std::_Deallocate_plain<std::allocator<std::_Container_proxy> >
PUBLIC	??$addressof@PEAU?$_List_node@UEntry@LT@@PEAX@std@@@std@@YAPEAPEAU?$_List_node@UEntry@LT@@PEAX@0@AEAPEAU10@@Z ; std::addressof<std::_List_node<LT::Entry,void *> *>
PUBLIC	??$forward@AEAPEAU?$_List_node@UEntry@LT@@PEAX@std@@@std@@YAAEAPEAU?$_List_node@UEntry@LT@@PEAX@0@AEAPEAU10@@Z ; std::forward<std::_List_node<LT::Entry,void *> * &>
PUBLIC	??$_Destroy_in_place@PEAU?$_List_node@UEntry@LT@@PEAX@std@@@std@@YAXAEAPEAU?$_List_node@UEntry@LT@@PEAX@0@@Z ; std::_Destroy_in_place<std::_List_node<LT::Entry,void *> *>
PUBLIC	??$addressof@UEntry@LT@@@std@@YAPEAUEntry@LT@@AEAU12@@Z ; std::addressof<LT::Entry>
PUBLIC	??$destroy@UEntry@LT@@@?$_Default_allocator_traits@V?$allocator@U?$_List_node@UEntry@LT@@PEAX@std@@@std@@@std@@SAXAEAV?$allocator@U?$_List_node@UEntry@LT@@PEAX@std@@@1@QEAUEntry@LT@@@Z ; std::_Default_allocator_traits<std::allocator<std::_List_node<LT::Entry,void *> > >::destroy<LT::Entry>
PUBLIC	??$construct@UEntry@LT@@AEBU12@@?$_Default_allocator_traits@V?$allocator@UEntry@LT@@@std@@@std@@SAXAEAV?$allocator@UEntry@LT@@@1@QEAUEntry@LT@@AEBU34@@Z ; std::_Default_allocator_traits<std::allocator<LT::Entry> >::construct<LT::Entry,LT::Entry const &>
PUBLIC	??$_Allocate_manually_vector_aligned@U_Default_allocate_traits@std@@@std@@YAPEAX_K@Z ; std::_Allocate_manually_vector_aligned<std::_Default_allocate_traits>
PUBLIC	??$_Construct_in_place@PEAU?$_List_node@UEntry@LT@@PEAX@std@@AEBQEAU12@@std@@YAXAEAPEAU?$_List_node@UEntry@LT@@PEAX@0@AEBQEAU10@@Z ; std::_Construct_in_place<std::_List_node<LT::Entry,void *> *,std::_List_node<LT::Entry,void *> * const &>
PUBLIC	??$uninitialized_copy@PEAPEAUEntry@LT@@PEAPEAU12@@std@@YAPEAPEAUEntry@LT@@QEAPEAU12@0PEAPEAU12@@Z ; std::uninitialized_copy<LT::Entry * *,LT::Entry * *>
PUBLIC	??$_Uninitialized_value_construct_n_unchecked1@PEAPEAUEntry@LT@@_K@std@@YAPEAPEAUEntry@LT@@PEAPEAU12@_K@Z ; std::_Uninitialized_value_construct_n_unchecked1<LT::Entry * *,unsigned __int64>
PUBLIC	??$_Destroy_range@PEAPEAUEntry@LT@@@std@@YAXPEAPEAUEntry@LT@@QEAPEAU12@@Z ; std::_Destroy_range<LT::Entry * *>
PUBLIC	??$_Get_size_of_n@$07@std@@YA_K_K@Z		; std::_Get_size_of_n<8>
PUBLIC	??$construct@UEntry@LT@@AEBU12@@?$_Default_allocator_traits@V?$allocator@U?$_List_node@UEntry@LT@@PEAX@std@@@std@@@std@@SAXAEAV?$allocator@U?$_List_node@UEntry@LT@@PEAX@std@@@1@QEAUEntry@LT@@AEBU34@@Z ; std::_Default_allocator_traits<std::allocator<std::_List_node<LT::Entry,void *> > >::construct<LT::Entry,LT::Entry const &>
PUBLIC	?deallocate@?$_Default_allocator_traits@V?$allocator@U_Container_proxy@std@@@std@@@std@@SAXAEAV?$allocator@U_Container_proxy@std@@@2@QEAU_Container_proxy@2@_K@Z ; std::_Default_allocator_traits<std::allocator<std::_Container_proxy> >::deallocate
PUBLIC	??$forward@AEBQEAU?$_List_node@UEntry@LT@@PEAX@std@@@std@@YAAEBQEAU?$_List_node@UEntry@LT@@PEAX@0@AEBQEAU10@@Z ; std::forward<std::_List_node<LT::Entry,void *> * const &>
PUBLIC	??$_Adl_verify_range@PEAPEAUEntry@LT@@PEAPEAU12@@std@@YAXAEBQEAPEAUEntry@LT@@0@Z ; std::_Adl_verify_range<LT::Entry * *,LT::Entry * *>
PUBLIC	??$_Get_unwrapped@AEBQEAPEAUEntry@LT@@@std@@YA@AEBQEAPEAUEntry@LT@@@Z ; std::_Get_unwrapped<LT::Entry * * const &>
PUBLIC	??$_Idl_distance@PEAPEAUEntry@LT@@PEAPEAU12@@std@@YA@AEBQEAPEAUEntry@LT@@0@Z ; std::_Idl_distance<LT::Entry * *,LT::Entry * *>
PUBLIC	??$_Get_unwrapped_n@AEAPEAPEAUEntry@LT@@_J@std@@YA@AEAPEAPEAUEntry@LT@@_J@Z ; std::_Get_unwrapped_n<LT::Entry * * &,__int64>
PUBLIC	??$_Copy_memmove@PEAPEAUEntry@LT@@PEAPEAU12@@std@@YAPEAPEAUEntry@LT@@PEAPEAU12@00@Z ; std::_Copy_memmove<LT::Entry * *,LT::Entry * *>
PUBLIC	??$_Seek_wrapped@PEAPEAUEntry@LT@@AEAPEAPEAU12@@std@@YAXAEAPEAPEAUEntry@LT@@0@Z ; std::_Seek_wrapped<LT::Entry * *,LT::Entry * * &>
PUBLIC	??$_Zero_range@PEAPEAUEntry@LT@@@std@@YAPEAPEAUEntry@LT@@QEAPEAU12@0@Z ; std::_Zero_range<LT::Entry * *>
PUBLIC	??$_Verify_range@PEAUEntry@LT@@@std@@YAXQEBQEAUEntry@LT@@0@Z ; std::_Verify_range<LT::Entry *>
PUBLIC	__JustMyCode_Default
PUBLIC	??_7exception@std@@6B@				; std::exception::`vftable'
PUBLIC	??_C@_0BC@EOODALEL@Unknown?5exception@		; `string'
PUBLIC	??_7bad_alloc@std@@6B@				; std::bad_alloc::`vftable'
PUBLIC	??_7bad_array_new_length@std@@6B@		; std::bad_array_new_length::`vftable'
PUBLIC	??_C@_0BF@KINCDENJ@bad?5array?5new?5length@	; `string'
PUBLIC	_TI3?AVbad_array_new_length@std@@
PUBLIC	_CTA3?AVbad_array_new_length@std@@
PUBLIC	??_R0?AVbad_array_new_length@std@@@8		; std::bad_array_new_length `RTTI Type Descriptor'
PUBLIC	_CT??_R0?AVbad_array_new_length@std@@@8??0bad_array_new_length@std@@QEAA@AEBV01@@Z24
PUBLIC	??_R0?AVbad_alloc@std@@@8			; std::bad_alloc `RTTI Type Descriptor'
PUBLIC	_CT??_R0?AVbad_alloc@std@@@8??0bad_alloc@std@@QEAA@AEBV01@@Z24
PUBLIC	??_R0?AVexception@std@@@8			; std::exception `RTTI Type Descriptor'
PUBLIC	_CT??_R0?AVexception@std@@@8??0exception@std@@QEAA@AEBV01@@Z24
PUBLIC	?__LINE__Var@?0??_Adjust_manually_vector_aligned@std@@YAXAEAPEAXAEA_K@Z@4JA ; `std::_Adjust_manually_vector_aligned'::`1'::__LINE__Var
PUBLIC	??_C@_0BB@FCMFBGOM@invalid?5argument@		; `string'
PUBLIC	??_C@_02DKCKIIND@?$CFs@				; `string'
PUBLIC	??_C@_0GJ@EHJGLGPD@C?3?2Program?5Files?5?$CIx86?$CJ?2Microsof@ ; `string'
PUBLIC	??_C@_1NC@LBGPBFDE@?$AAC?$AA?3?$AA?2?$AAP?$AAr?$AAo?$AAg?$AAr?$AAa?$AAm?$AA?5?$AAF?$AAi?$AAl?$AAe@ ; `string'
PUBLIC	??_C@_1EK@NIFDJFDG@?$AAs?$AAt?$AAd?$AA?3?$AA?3?$AA_?$AAA?$AAd?$AAj?$AAu?$AAs?$AAt?$AA_?$AAm?$AAa@ ; `string'
PUBLIC	??_C@_1CG@JNLFBNGN@?$AA?$CC?$AAi?$AAn?$AAv?$AAa?$AAl?$AAi?$AAd?$AA?5?$AAa?$AAr?$AAg?$AAu?$AAm?$AAe@ ; `string'
PUBLIC	??_C@_0GJ@OPFKIEFE@C?3?2Program?5Files?5?$CIx86?$CJ?2Microsof@ ; `string'
PUBLIC	?__LINE__Var@?0??_Maklocwcs@std@@YAPEA_WPEB_W@Z@4JA ; `std::_Maklocwcs'::`1'::__LINE__Var
PUBLIC	??_C@_0GJ@GMBHIGPF@C?3?2Program?5Files?5?$CIx86?$CJ?2Microsof@ ; `string'
PUBLIC	??_C@_0BP@IEHBKPNI@pop_front?5called?5on?5empty?5list@ ; `string'
PUBLIC	??_C@_0GG@LMOKLFIB@C?3?2Program?5Files?5?$CIx86?$CJ?2Microsof@ ; `string'
PUBLIC	??_C@_1MM@MBGLLEPM@?$AAC?$AA?3?$AA?2?$AAP?$AAr?$AAo?$AAg?$AAr?$AAa?$AAm?$AA?5?$AAF?$AAi?$AAl?$AAe@ ; `string'
PUBLIC	??_C@_1JO@OELGKGEE@?$AAs?$AAt?$AAd?$AA?3?$AA?3?$AAl?$AAi?$AAs?$AAt?$AA?$DM?$AAs?$AAt?$AAr?$AAu?$AAc@ ; `string'
PUBLIC	??_C@_1EC@POEKFLJM@?$AA?$CC?$AAp?$AAo?$AAp?$AA_?$AAf?$AAr?$AAo?$AAn?$AAt?$AA?5?$AAc?$AAa?$AAl?$AAl@ ; `string'
PUBLIC	??_C@_0BN@GOIPFJJH@front?$CI?$CJ?5called?5on?5empty?5list@ ; `string'
PUBLIC	??_C@_1JG@CLHEJMNG@?$AAs?$AAt?$AAd?$AA?3?$AA?3?$AAl?$AAi?$AAs?$AAt?$AA?$DM?$AAs?$AAt?$AAr?$AAu?$AAc@ ; `string'
PUBLIC	??_C@_1DO@HIOMABHK@?$AA?$CC?$AAf?$AAr?$AAo?$AAn?$AAt?$AA?$CI?$AA?$CJ?$AA?5?$AAc?$AAa?$AAl?$AAl?$AAe?$AAd@ ; `string'
PUBLIC	??_C@_0N@LPFKKEBD@?3AM?3am?3PM?3pm@		; `string'
PUBLIC	??_C@_0BH@EDKEEENI@deque?5empty?5before?5pop@	; `string'
PUBLIC	??_C@_0GH@OBALDB@C?3?2Program?5Files?5?$CIx86?$CJ?2Microsof@ ; `string'
PUBLIC	??_C@_1MO@ONLEFNNG@?$AAC?$AA?3?$AA?2?$AAP?$AAr?$AAo?$AAg?$AAr?$AAa?$AAm?$AA?5?$AAF?$AAi?$AAl?$AAe@ ; `string'
PUBLIC	??_C@_1JO@MJALCHE@?$AAs?$AAt?$AAd?$AA?3?$AA?3?$AAd?$AAe?$AAq?$AAu?$AAe?$AA?$DM?$AAs?$AAt?$AAr?$AAu@ ; `string'
PUBLIC	??_C@_1DC@NJAACHCD@?$AA?$CC?$AAd?$AAe?$AAq?$AAu?$AAe?$AA?5?$AAe?$AAm?$AAp?$AAt?$AAy?$AA?5?$AAb?$AAe@ ; `string'
PUBLIC	??_C@_0BN@OLMACEKN@back?$CI?$CJ?5called?5on?5empty?5deque@ ; `string'
PUBLIC	??_C@_1JG@JOJHPKLP@?$AAs?$AAt?$AAd?$AA?3?$AA?3?$AAd?$AAe?$AAq?$AAu?$AAe?$AA?$DM?$AAs?$AAt?$AAr?$AAu@ ; `string'
PUBLIC	??_C@_1DO@OOAHKDGC@?$AA?$CC?$AAb?$AAa?$AAc?$AAk?$AA?$CI?$AA?$CJ?$AA?5?$AAc?$AAa?$AAl?$AAl?$AAe?$AAd?$AA?5@ ; `string'
PUBLIC	??_C@_1BK@MHIKGOKE@?$AA?3?$AAA?$AAM?$AA?3?$AAa?$AAm?$AA?3?$AAP?$AAM?$AA?3?$AAp?$AAm@ ; `string'
PUBLIC	??_C@_0O@NKNMEGII@list?5too?5long@		; `string'
PUBLIC	??_C@_0BC@KBDMBKEH@deque?$DMT?$DO?5too?5long@	; `string'
PUBLIC	??_C@_0BJ@HAJGEHKO@transposed?5pointer?5range@	; `string'
PUBLIC	??_C@_0GK@OHAIDBEA@C?3?2Program?5Files?5?$CIx86?$CJ?2Microsof@ ; `string'
PUBLIC	??_C@_1NE@NLDHILHB@?$AAC?$AA?3?$AA?2?$AAP?$AAr?$AAo?$AAg?$AAr?$AAa?$AAm?$AA?5?$AAF?$AAi?$AAl?$AAe@ ; `string'
PUBLIC	??_C@_1CG@LJCPDKEJ@?$AAs?$AAt?$AAd?$AA?3?$AA?3?$AA_?$AAV?$AAe?$AAr?$AAi?$AAf?$AAy?$AA_?$AAr?$AAa@ ; `string'
PUBLIC	??_C@_1DG@FJIKMGFD@?$AA?$CC?$AAt?$AAr?$AAa?$AAn?$AAs?$AAp?$AAo?$AAs?$AAe?$AAd?$AA?5?$AAp?$AAo?$AAi@ ; `string'
PUBLIC	??_C@_1EO@GFNCMDLA@?$AAs?$AAt?$AAd?$AA?3?$AA?3?$AA_?$AAA?$AAl?$AAl?$AAo?$AAc?$AAa?$AAt?$AAe?$AA_@ ; `string'
PUBLIC	??_R4exception@std@@6B@				; std::exception::`RTTI Complete Object Locator'
PUBLIC	??_R3exception@std@@8				; std::exception::`RTTI Class Hierarchy Descriptor'
PUBLIC	??_R2exception@std@@8				; std::exception::`RTTI Base Class Array'
PUBLIC	??_R1A@?0A@EA@exception@std@@8			; std::exception::`RTTI Base Class Descriptor at (0,-1,0,64)'
PUBLIC	??_R4bad_alloc@std@@6B@				; std::bad_alloc::`RTTI Complete Object Locator'
PUBLIC	??_R3bad_alloc@std@@8				; std::bad_alloc::`RTTI Class Hierarchy Descriptor'
PUBLIC	??_R2bad_alloc@std@@8				; std::bad_alloc::`RTTI Base Class Array'
PUBLIC	??_R1A@?0A@EA@bad_alloc@std@@8			; std::bad_alloc::`RTTI Base Class Descriptor at (0,-1,0,64)'
PUBLIC	??_R4bad_array_new_length@std@@6B@		; std::bad_array_new_length::`RTTI Complete Object Locator'
PUBLIC	??_R3bad_array_new_length@std@@8		; std::bad_array_new_length::`RTTI Class Hierarchy Descriptor'
PUBLIC	??_R2bad_array_new_length@std@@8		; std::bad_array_new_length::`RTTI Base Class Array'
PUBLIC	??_R1A@?0A@EA@bad_array_new_length@std@@8	; std::bad_array_new_length::`RTTI Base Class Descriptor at (0,-1,0,64)'
EXTRN	??2@YAPEAX_K@Z:PROC				; operator new
EXTRN	??3@YAXPEAX_K@Z:PROC				; operator delete
EXTRN	__imp__invalid_parameter:PROC
EXTRN	memcpy:PROC
EXTRN	memmove:PROC
EXTRN	memset:PROC
EXTRN	__imp_wcslen:PROC
EXTRN	__imp__calloc_dbg:PROC
EXTRN	__imp__CrtDbgReport:PROC
EXTRN	__imp_??0_Lockit@std@@QEAA@H@Z:PROC
EXTRN	__imp_??1_Lockit@std@@QEAA@XZ:PROC
EXTRN	__std_exception_copy:PROC
EXTRN	__std_exception_destroy:PROC
EXTRN	??_Eexception@std@@UEAAPEAXI@Z:PROC		; std::exception::`vector deleting destructor'
EXTRN	??_Ebad_alloc@std@@UEAAPEAXI@Z:PROC		; std::bad_alloc::`vector deleting destructor'
EXTRN	??_Ebad_array_new_length@std@@UEAAPEAXI@Z:PROC	; std::bad_array_new_length::`vector deleting destructor'
EXTRN	strlen:PROC
EXTRN	?_Xbad_alloc@std@@YAXXZ:PROC			; std::_Xbad_alloc
EXTRN	?_Xlength_error@std@@YAXPEBD@Z:PROC		; std::_Xlength_error
EXTRN	_Mbrtowc:PROC
EXTRN	__imp_?_Getcvt@_Locinfo@std@@QEBA?AU_Cvtvec@@XZ:PROC
EXTRN	__imp_?_Getdays@_Locinfo@std@@QEBAPEBDXZ:PROC
EXTRN	__imp_?_Getmonths@_Locinfo@std@@QEBAPEBDXZ:PROC
EXTRN	__imp_?_W_Getdays@_Locinfo@std@@QEBAPEBGXZ:PROC
EXTRN	__imp_?_W_Getmonths@_Locinfo@std@@QEBAPEBGXZ:PROC
EXTRN	_CxxThrowException:PROC
EXTRN	_RTC_CheckStackVars:PROC
EXTRN	_RTC_InitBase:PROC
EXTRN	_RTC_Shutdown:PROC
EXTRN	__CheckForDebuggerJustMyCode:PROC
EXTRN	__CxxFrameHandler4:PROC
EXTRN	__GSHandlerCheck:PROC
EXTRN	__GSHandlerCheck_EH4:PROC
EXTRN	__security_check_cookie:PROC
EXTRN	??_7type_info@@6B@:BYTE				; type_info::`vftable'
EXTRN	__ImageBase:BYTE
EXTRN	__security_cookie:QWORD
;	COMDAT pdata
pdata	SEGMENT
$pdata$?__empty_global_delete@@YAXPEAX@Z DD imagerel $LN4
	DD	imagerel $LN4+64
	DD	imagerel $unwind$?__empty_global_delete@@YAXPEAX@Z
pdata	ENDS
;	COMDAT pdata
pdata	SEGMENT
$pdata$?__empty_global_delete@@YAXPEAX_K@Z DD imagerel $LN4
	DD	imagerel $LN4+69
	DD	imagerel $unwind$?__empty_global_delete@@YAXPEAX_K@Z
pdata	ENDS
;	COMDAT pdata
pdata	SEGMENT
$pdata$wmemcpy DD imagerel $LN4
	DD	imagerel $LN4+106
	DD	imagerel $unwind$wmemcpy
pdata	ENDS
;	COMDAT pdata
pdata	SEGMENT
$pdata$??2@YAPEAX_KPEAX@Z DD imagerel $LN4
	DD	imagerel $LN4+76
	DD	imagerel $unwind$??2@YAPEAX_KPEAX@Z
pdata	ENDS
;	COMDAT pdata
pdata	SEGMENT
$pdata$?max@?$numeric_limits@_J@std@@SA_JXZ DD imagerel $LN3
	DD	imagerel $LN3+62
	DD	imagerel $unwind$?max@?$numeric_limits@_J@std@@SA_JXZ
pdata	ENDS
;	COMDAT pdata
pdata	SEGMENT
$pdata$??0exception@std@@QEAA@QEBDH@Z DD imagerel $LN3
	DD	imagerel $LN3+139
	DD	imagerel $unwind$??0exception@std@@QEAA@QEBDH@Z
pdata	ENDS
;	COMDAT pdata
pdata	SEGMENT
$pdata$??0exception@std@@QEAA@AEBV01@@Z DD imagerel $LN3
	DD	imagerel $LN3+146
	DD	imagerel $unwind$??0exception@std@@QEAA@AEBV01@@Z
pdata	ENDS
;	COMDAT pdata
pdata	SEGMENT
$pdata$??1exception@std@@UEAA@XZ DD imagerel $LN3
	DD	imagerel $LN3+101
	DD	imagerel $unwind$??1exception@std@@UEAA@XZ
pdata	ENDS
;	COMDAT pdata
pdata	SEGMENT
$pdata$?what@exception@std@@UEBAPEBDXZ DD imagerel $LN5
	DD	imagerel $LN5+119
	DD	imagerel $unwind$?what@exception@std@@UEBAPEBDXZ
pdata	ENDS
;	COMDAT pdata
pdata	SEGMENT
$pdata$??_Gexception@std@@UEAAPEAXI@Z DD imagerel $LN4
	DD	imagerel $LN4+105
	DD	imagerel $unwind$??_Gexception@std@@UEAAPEAXI@Z
pdata	ENDS
;	COMDAT pdata
pdata	SEGMENT
$pdata$??0bad_alloc@std@@AEAA@QEBD@Z DD imagerel $LN3
	DD	imagerel $LN3+118
	DD	imagerel $unwind$??0bad_alloc@std@@AEAA@QEBD@Z
pdata	ENDS
;	COMDAT pdata
pdata	SEGMENT
$pdata$??1bad_alloc@std@@UEAA@XZ DD imagerel $LN3
	DD	imagerel $LN3+64
	DD	imagerel $unwind$??1bad_alloc@std@@UEAA@XZ
pdata	ENDS
;	COMDAT pdata
pdata	SEGMENT
$pdata$??0bad_alloc@std@@QEAA@AEBV01@@Z DD imagerel $LN3
	DD	imagerel $LN3+100
	DD	imagerel $unwind$??0bad_alloc@std@@QEAA@AEBV01@@Z
pdata	ENDS
;	COMDAT pdata
pdata	SEGMENT
$pdata$??_Gbad_alloc@std@@UEAAPEAXI@Z DD imagerel $LN4
	DD	imagerel $LN4+105
	DD	imagerel $unwind$??_Gbad_alloc@std@@UEAAPEAXI@Z
pdata	ENDS
;	COMDAT pdata
pdata	SEGMENT
$pdata$??0bad_array_new_length@std@@QEAA@XZ DD imagerel $LN3
	DD	imagerel $LN3+107
	DD	imagerel $unwind$??0bad_array_new_length@std@@QEAA@XZ
pdata	ENDS
;	COMDAT pdata
pdata	SEGMENT
$pdata$??1bad_array_new_length@std@@UEAA@XZ DD imagerel $LN3
	DD	imagerel $LN3+64
	DD	imagerel $unwind$??1bad_array_new_length@std@@UEAA@XZ
pdata	ENDS
;	COMDAT pdata
pdata	SEGMENT
$pdata$??0bad_array_new_length@std@@QEAA@AEBV01@@Z DD imagerel $LN3
	DD	imagerel $LN3+100
	DD	imagerel $unwind$??0bad_array_new_length@std@@QEAA@AEBV01@@Z
pdata	ENDS
;	COMDAT pdata
pdata	SEGMENT
$pdata$??_Gbad_array_new_length@std@@UEAAPEAXI@Z DD imagerel $LN4
	DD	imagerel $LN4+105
	DD	imagerel $unwind$??_Gbad_array_new_length@std@@UEAAPEAXI@Z
pdata	ENDS
;	COMDAT pdata
pdata	SEGMENT
$pdata$?_Throw_bad_array_new_length@std@@YAXXZ DD imagerel $LN3
	DD	imagerel $LN3+83
	DD	imagerel $unwind$?_Throw_bad_array_new_length@std@@YAXXZ
pdata	ENDS
;	COMDAT pdata
pdata	SEGMENT
$pdata$?_Allocate@_Default_allocate_traits@std@@SAPEAX_K@Z DD imagerel $LN3
	DD	imagerel $LN3+76
	DD	imagerel $unwind$?_Allocate@_Default_allocate_traits@std@@SAPEAX_K@Z
pdata	ENDS
;	COMDAT pdata
pdata	SEGMENT
$pdata$?_Adjust_manually_vector_aligned@std@@YAXAEAPEAXAEA_K@Z DD imagerel $LN21
	DD	imagerel $LN21+476
	DD	imagerel $unwind$?_Adjust_manually_vector_aligned@std@@YAXAEAPEAXAEA_K@Z
pdata	ENDS
;	COMDAT pdata
pdata	SEGMENT
$pdata$??0_Container_proxy@std@@QEAA@PEAU_Container_base12@1@@Z DD imagerel $LN3
	DD	imagerel $LN3+108
	DD	imagerel $unwind$??0_Container_proxy@std@@QEAA@PEAU_Container_base12@1@@Z
pdata	ENDS
;	COMDAT pdata
pdata	SEGMENT
$pdata$??0_Container_base12@std@@QEAA@XZ DD imagerel $LN3
	DD	imagerel $LN3+85
	DD	imagerel $unwind$??0_Container_base12@std@@QEAA@XZ
pdata	ENDS
;	COMDAT pdata
pdata	SEGMENT
$pdata$?_Orphan_all@_Container_base12@std@@QEAAXXZ DD imagerel $LN7
	DD	imagerel $LN7+233
	DD	imagerel $unwind$?_Orphan_all@_Container_base12@std@@QEAAXXZ
pdata	ENDS
;	COMDAT pdata
pdata	SEGMENT
$pdata$?_Release@_Basic_container_proxy_ptr12@std@@QEAAXXZ DD imagerel $LN3
	DD	imagerel $LN3+78
	DD	imagerel $unwind$?_Release@_Basic_container_proxy_ptr12@std@@QEAAXXZ
pdata	ENDS
;	COMDAT pdata
pdata	SEGMENT
$pdata$??$addressof@U_Container_base12@std@@@std@@YAPEAU_Container_base12@0@AEAU10@@Z DD imagerel $LN3
	DD	imagerel $LN3+71
	DD	imagerel $unwind$??$addressof@U_Container_base12@std@@@std@@YAPEAU_Container_base12@0@AEAU10@@Z
pdata	ENDS
;	COMDAT pdata
pdata	SEGMENT
$pdata$??$_Construct_in_place@U_Container_proxy@std@@PEAU_Container_base12@2@@std@@YAXAEAU_Container_proxy@0@$$QEAPEAU_Container_base12@0@@Z DD imagerel $LN3
	DD	imagerel $LN3+129
	DD	imagerel $unwind$??$_Construct_in_place@U_Container_proxy@std@@PEAU_Container_base12@2@@std@@YAXAEAU_Container_proxy@0@$$QEAPEAU_Container_base12@0@@Z
pdata	ENDS
;	COMDAT pdata
pdata	SEGMENT
$pdata$??$_Maklocstr@_W@std@@YAPEA_WPEBDPEA_WAEBU_Cvtvec@@@Z DD imagerel $LN12
	DD	imagerel $LN12+584
	DD	imagerel $unwind$??$_Maklocstr@_W@std@@YAPEA_WPEBDPEA_WAEBU_Cvtvec@@@Z
pdata	ENDS
;	COMDAT pdata
pdata	SEGMENT
$pdata$?_Maklocwcs@std@@YAPEA_WPEB_W@Z DD imagerel $LN4
	DD	imagerel $LN4+165
	DD	imagerel $unwind$?_Maklocwcs@std@@YAPEA_WPEB_W@Z
pdata	ENDS
;	COMDAT pdata
pdata	SEGMENT
$pdata$??$_Maklocstr@D@std@@YAPEADPEBDPEADAEBU_Cvtvec@@@Z DD imagerel $LN7
	DD	imagerel $LN7+223
	DD	imagerel $unwind$??$_Maklocstr@D@std@@YAPEADPEBDPEADAEBU_Cvtvec@@@Z
pdata	ENDS
;	COMDAT pdata
pdata	SEGMENT
$pdata$??$_Getvals@_W@?$time_get@DV?$istreambuf_iterator@DU?$char_traits@D@std@@@std@@@std@@IEAAX_WAEBV_Locinfo@1@@Z DD imagerel $LN5
	DD	imagerel $LN5+379
	DD	imagerel $unwind$??$_Getvals@_W@?$time_get@DV?$istreambuf_iterator@DU?$char_traits@D@std@@@std@@@std@@IEAAX_WAEBV_Locinfo@1@@Z
pdata	ENDS
;	COMDAT pdata
pdata	SEGMENT
$pdata$??$_Getvals@_W@?$time_get@_WV?$istreambuf_iterator@_WU?$char_traits@_W@std@@@std@@@std@@IEAAX_WAEBV_Locinfo@1@@Z DD imagerel $LN5
	DD	imagerel $LN5+379
	DD	imagerel $unwind$??$_Getvals@_W@?$time_get@_WV?$istreambuf_iterator@_WU?$char_traits@_W@std@@@std@@@std@@IEAAX_WAEBV_Locinfo@1@@Z
pdata	ENDS
;	COMDAT pdata
pdata	SEGMENT
$pdata$??0Entry@LT@@QEAA@XZ DD imagerel $LN4
	DD	imagerel $LN4+149
	DD	imagerel $unwind$??0Entry@LT@@QEAA@XZ
pdata	ENDS
;	COMDAT pdata
pdata	SEGMENT
$pdata$?seachingExpressions@PN@@YAXAEAULexTable@LT@@AEAUIdTable@IT@@@Z DD imagerel $LN13
	DD	imagerel $LN13+275
	DD	imagerel $unwind$?seachingExpressions@PN@@YAXAEAULexTable@LT@@AEAUIdTable@IT@@@Z
pdata	ENDS
;	COMDAT pdata
pdata	SEGMENT
$pdata$?polishNotation@PN@@YAHHAEAULexTable@LT@@AEAUIdTable@IT@@@Z DD imagerel $LN95
	DD	imagerel $LN95+2358
	DD	imagerel $unwind$?polishNotation@PN@@YAHHAEAULexTable@LT@@AEAUIdTable@IT@@@Z
pdata	ENDS
;	COMDAT pdata
pdata	SEGMENT
$pdata$?dtor$0@?0??polishNotation@PN@@YAHHAEAULexTable@LT@@AEAUIdTable@IT@@@Z@4HA DD imagerel ?dtor$0@?0??polishNotation@PN@@YAHHAEAULexTable@LT@@AEAUIdTable@IT@@@Z@4HA
	DD	imagerel ?dtor$0@?0??polishNotation@PN@@YAHHAEAULexTable@LT@@AEAUIdTable@IT@@@Z@4HA+36
	DD	imagerel $unwind$?dtor$0@?0??polishNotation@PN@@YAHHAEAULexTable@LT@@AEAUIdTable@IT@@@Z@4HA
pdata	ENDS
;	COMDAT pdata
pdata	SEGMENT
$pdata$?dtor$1@?0??polishNotation@PN@@YAHHAEAULexTable@LT@@AEAUIdTable@IT@@@Z@4HA DD imagerel ?dtor$1@?0??polishNotation@PN@@YAHHAEAULexTable@LT@@AEAUIdTable@IT@@@Z@4HA
	DD	imagerel ?dtor$1@?0??polishNotation@PN@@YAHHAEAULexTable@LT@@AEAUIdTable@IT@@@Z@4HA+36
	DD	imagerel $unwind$?dtor$1@?0??polishNotation@PN@@YAHHAEAULexTable@LT@@AEAUIdTable@IT@@@Z@4HA
pdata	ENDS
;	COMDAT pdata
pdata	SEGMENT
$pdata$??0?$allocator@UEntry@LT@@@std@@QEAA@XZ DD imagerel $LN3
	DD	imagerel $LN3+71
	DD	imagerel $unwind$??0?$allocator@UEntry@LT@@@std@@QEAA@XZ
pdata	ENDS
;	COMDAT pdata
pdata	SEGMENT
$pdata$?deallocate@?$allocator@UEntry@LT@@@std@@QEAAXQEAUEntry@LT@@_K@Z DD imagerel $LN3
	DD	imagerel $LN3+97
	DD	imagerel $unwind$?deallocate@?$allocator@UEntry@LT@@@std@@QEAAXQEAUEntry@LT@@_K@Z
pdata	ENDS
;	COMDAT pdata
pdata	SEGMENT
$pdata$?allocate@?$allocator@UEntry@LT@@@std@@QEAAPEAUEntry@LT@@_K@Z DD imagerel $LN3
	DD	imagerel $LN3+89
	DD	imagerel $unwind$?allocate@?$allocator@UEntry@LT@@@std@@QEAAPEAUEntry@LT@@_K@Z
pdata	ENDS
;	COMDAT pdata
pdata	SEGMENT
$pdata$?max_size@?$_Default_allocator_traits@V?$allocator@UEntry@LT@@@std@@@std@@SA_KAEBV?$allocator@UEntry@LT@@@2@@Z DD imagerel $LN3
	DD	imagerel $LN3+74
	DD	imagerel $unwind$?max_size@?$_Default_allocator_traits@V?$allocator@UEntry@LT@@@std@@@std@@SA_KAEBV?$allocator@UEntry@LT@@@2@@Z
pdata	ENDS
;	COMDAT pdata
pdata	SEGMENT
$pdata$?deallocate@?$allocator@PEAUEntry@LT@@@std@@QEAAXQEAPEAUEntry@LT@@_K@Z DD imagerel $LN3
	DD	imagerel $LN3+100
	DD	imagerel $unwind$?deallocate@?$allocator@PEAUEntry@LT@@@std@@QEAAXQEAPEAUEntry@LT@@_K@Z
pdata	ENDS
;	COMDAT pdata
pdata	SEGMENT
$pdata$?allocate@?$allocator@PEAUEntry@LT@@@std@@QEAAPEAPEAUEntry@LT@@_K@Z DD imagerel $LN3
	DD	imagerel $LN3+89
	DD	imagerel $unwind$?allocate@?$allocator@PEAUEntry@LT@@@std@@QEAAPEAPEAUEntry@LT@@_K@Z
pdata	ENDS
;	COMDAT pdata
pdata	SEGMENT
$pdata$??0?$deque@UEntry@LT@@V?$allocator@UEntry@LT@@@std@@@std@@QEAA@XZ DD imagerel $LN3
	DD	imagerel $LN3+157
	DD	imagerel $unwind$??0?$deque@UEntry@LT@@V?$allocator@UEntry@LT@@@std@@@std@@QEAA@XZ
pdata	ENDS
;	COMDAT pdata
pdata	SEGMENT
$pdata$??1?$deque@UEntry@LT@@V?$allocator@UEntry@LT@@@std@@@std@@QEAA@XZ DD imagerel $LN3
	DD	imagerel $LN3+199
	DD	imagerel $unwind$??1?$deque@UEntry@LT@@V?$allocator@UEntry@LT@@@std@@@std@@QEAA@XZ
pdata	ENDS
;	COMDAT pdata
pdata	SEGMENT
$pdata$?_Unchecked_end@?$deque@UEntry@LT@@V?$allocator@UEntry@LT@@@std@@@std@@QEAA?AV?$_Deque_unchecked_iterator@V?$_Deque_val@U?$_Deque_simple_types@UEntry@LT@@@std@@@std@@@2@XZ DD imagerel $LN3
	DD	imagerel $LN3+175
	DD	imagerel $unwind$?_Unchecked_end@?$deque@UEntry@LT@@V?$allocator@UEntry@LT@@@std@@@std@@QEAA?AV?$_Deque_unchecked_iterator@V?$_Deque_val@U?$_Deque_simple_types@UEntry@LT@@@std@@@std@@@2@XZ
pdata	ENDS
;	COMDAT pdata
pdata	SEGMENT
$pdata$?max_size@?$deque@UEntry@LT@@V?$allocator@UEntry@LT@@@std@@@std@@QEBA_KXZ DD imagerel $LN3
	DD	imagerel $LN3+125
	DD	imagerel $unwind$?max_size@?$deque@UEntry@LT@@V?$allocator@UEntry@LT@@@std@@@std@@QEBA_KXZ
pdata	ENDS
;	COMDAT pdata
pdata	SEGMENT
$pdata$?empty@?$deque@UEntry@LT@@V?$allocator@UEntry@LT@@@std@@@std@@QEBA_NXZ DD imagerel $LN5
	DD	imagerel $LN5+111
	DD	imagerel $unwind$?empty@?$deque@UEntry@LT@@V?$allocator@UEntry@LT@@@std@@@std@@QEBA_NXZ
pdata	ENDS
;	COMDAT pdata
pdata	SEGMENT
$pdata$?back@?$deque@UEntry@LT@@V?$allocator@UEntry@LT@@@std@@@std@@QEAAAEAUEntry@LT@@XZ DD imagerel $LN12
	DD	imagerel $LN12+251
	DD	imagerel $unwind$?back@?$deque@UEntry@LT@@V?$allocator@UEntry@LT@@@std@@@std@@QEAAAEAUEntry@LT@@XZ
pdata	ENDS
;	COMDAT pdata
pdata	SEGMENT
$pdata$?push_back@?$deque@UEntry@LT@@V?$allocator@UEntry@LT@@@std@@@std@@QEAAXAEBUEntry@LT@@@Z DD imagerel $LN3
	DD	imagerel $LN3+100
	DD	imagerel $unwind$?push_back@?$deque@UEntry@LT@@V?$allocator@UEntry@LT@@@std@@@std@@QEAAXAEBUEntry@LT@@@Z
pdata	ENDS
;	COMDAT pdata
pdata	SEGMENT
$pdata$?pop_back@?$deque@UEntry@LT@@V?$allocator@UEntry@LT@@@std@@@std@@QEAAXXZ DD imagerel $LN10
	DD	imagerel $LN10+435
	DD	imagerel $unwind$?pop_back@?$deque@UEntry@LT@@V?$allocator@UEntry@LT@@@std@@@std@@QEAAXXZ
pdata	ENDS
;	COMDAT pdata
pdata	SEGMENT
$pdata$?_Xlen@?$deque@UEntry@LT@@V?$allocator@UEntry@LT@@@std@@@std@@AEBAXXZ DD imagerel $LN3
	DD	imagerel $LN3+76
	DD	imagerel $unwind$?_Xlen@?$deque@UEntry@LT@@V?$allocator@UEntry@LT@@@std@@@std@@AEBAXXZ
pdata	ENDS
;	COMDAT pdata
pdata	SEGMENT
$pdata$?_Growmap@?$deque@UEntry@LT@@V?$allocator@UEntry@LT@@@std@@@std@@AEAAX_K@Z DD imagerel $LN12
	DD	imagerel $LN12+1054
	DD	imagerel $unwind$?_Growmap@?$deque@UEntry@LT@@V?$allocator@UEntry@LT@@@std@@@std@@AEAAX_K@Z
pdata	ENDS
;	COMDAT pdata
pdata	SEGMENT
$pdata$?_Tidy@?$deque@UEntry@LT@@V?$allocator@UEntry@LT@@@std@@@std@@AEAAXXZ DD imagerel $LN10
	DD	imagerel $LN10+457
	DD	imagerel $unwind$?_Tidy@?$deque@UEntry@LT@@V?$allocator@UEntry@LT@@@std@@@std@@AEAAXXZ
pdata	ENDS
;	COMDAT pdata
pdata	SEGMENT
$pdata$?_Orphan_off@?$deque@UEntry@LT@@V?$allocator@UEntry@LT@@@std@@@std@@AEBAX_K@Z DD imagerel $LN11
	DD	imagerel $LN11+400
	DD	imagerel $unwind$?_Orphan_off@?$deque@UEntry@LT@@V?$allocator@UEntry@LT@@@std@@@std@@AEBAX_K@Z
pdata	ENDS
;	COMDAT pdata
pdata	SEGMENT
$pdata$?_Getblock@?$deque@UEntry@LT@@V?$allocator@UEntry@LT@@@std@@@std@@AEBA_K_K@Z DD imagerel $LN3
	DD	imagerel $LN3+97
	DD	imagerel $unwind$?_Getblock@?$deque@UEntry@LT@@V?$allocator@UEntry@LT@@@std@@@std@@AEBA_K_K@Z
pdata	ENDS
;	COMDAT pdata
pdata	SEGMENT
$pdata$?_Orphan_all@?$deque@UEntry@LT@@V?$allocator@UEntry@LT@@@std@@@std@@AEAAXXZ DD imagerel $LN3
	DD	imagerel $LN3+85
	DD	imagerel $unwind$?_Orphan_all@?$deque@UEntry@LT@@V?$allocator@UEntry@LT@@@std@@@std@@AEAAXXZ
pdata	ENDS
;	COMDAT pdata
pdata	SEGMENT
$pdata$?_Getal@?$deque@UEntry@LT@@V?$allocator@UEntry@LT@@@std@@@std@@AEAAAEAV?$allocator@UEntry@LT@@@2@XZ DD imagerel $LN3
	DD	imagerel $LN3+80
	DD	imagerel $unwind$?_Getal@?$deque@UEntry@LT@@V?$allocator@UEntry@LT@@@std@@@std@@AEAAAEAV?$allocator@UEntry@LT@@@2@XZ
pdata	ENDS
;	COMDAT pdata
pdata	SEGMENT
$pdata$?_Getal@?$deque@UEntry@LT@@V?$allocator@UEntry@LT@@@std@@@std@@AEBAAEBV?$allocator@UEntry@LT@@@2@XZ DD imagerel $LN3
	DD	imagerel $LN3+80
	DD	imagerel $unwind$?_Getal@?$deque@UEntry@LT@@V?$allocator@UEntry@LT@@@std@@@std@@AEBAAEBV?$allocator@UEntry@LT@@@2@XZ
pdata	ENDS
;	COMDAT pdata
pdata	SEGMENT
$pdata$?_Get_data@?$deque@UEntry@LT@@V?$allocator@UEntry@LT@@@std@@@std@@AEAAAEAV?$_Deque_val@U?$_Deque_simple_types@UEntry@LT@@@std@@@2@XZ DD imagerel $LN3
	DD	imagerel $LN3+71
	DD	imagerel $unwind$?_Get_data@?$deque@UEntry@LT@@V?$allocator@UEntry@LT@@@std@@@std@@AEAAAEAV?$_Deque_val@U?$_Deque_simple_types@UEntry@LT@@@std@@@2@XZ
pdata	ENDS
;	COMDAT pdata
pdata	SEGMENT
$pdata$?_Get_data@?$deque@UEntry@LT@@V?$allocator@UEntry@LT@@@std@@@std@@AEBAAEBV?$_Deque_val@U?$_Deque_simple_types@UEntry@LT@@@std@@@2@XZ DD imagerel $LN3
	DD	imagerel $LN3+71
	DD	imagerel $unwind$?_Get_data@?$deque@UEntry@LT@@V?$allocator@UEntry@LT@@@std@@@std@@AEBAAEBV?$_Deque_val@U?$_Deque_simple_types@UEntry@LT@@@std@@@2@XZ
pdata	ENDS
;	COMDAT pdata
pdata	SEGMENT
$pdata$?_Map@?$deque@UEntry@LT@@V?$allocator@UEntry@LT@@@std@@@std@@AEAAAEAPEAPEAUEntry@LT@@XZ DD imagerel $LN3
	DD	imagerel $LN3+80
	DD	imagerel $unwind$?_Map@?$deque@UEntry@LT@@V?$allocator@UEntry@LT@@@std@@@std@@AEAAAEAPEAPEAUEntry@LT@@XZ
pdata	ENDS
;	COMDAT pdata
pdata	SEGMENT
$pdata$?_Mapsize@?$deque@UEntry@LT@@V?$allocator@UEntry@LT@@@std@@@std@@AEAAAEA_KXZ DD imagerel $LN3
	DD	imagerel $LN3+80
	DD	imagerel $unwind$?_Mapsize@?$deque@UEntry@LT@@V?$allocator@UEntry@LT@@@std@@@std@@AEAAAEA_KXZ
pdata	ENDS
;	COMDAT pdata
pdata	SEGMENT
$pdata$?_Myoff@?$deque@UEntry@LT@@V?$allocator@UEntry@LT@@@std@@@std@@AEAAAEA_KXZ DD imagerel $LN3
	DD	imagerel $LN3+80
	DD	imagerel $unwind$?_Myoff@?$deque@UEntry@LT@@V?$allocator@UEntry@LT@@@std@@@std@@AEAAAEA_KXZ
pdata	ENDS
;	COMDAT pdata
pdata	SEGMENT
$pdata$?_Myoff@?$deque@UEntry@LT@@V?$allocator@UEntry@LT@@@std@@@std@@AEBAAEB_KXZ DD imagerel $LN3
	DD	imagerel $LN3+80
	DD	imagerel $unwind$?_Myoff@?$deque@UEntry@LT@@V?$allocator@UEntry@LT@@@std@@@std@@AEBAAEB_KXZ
pdata	ENDS
;	COMDAT pdata
pdata	SEGMENT
$pdata$?_Mysize@?$deque@UEntry@LT@@V?$allocator@UEntry@LT@@@std@@@std@@AEAAAEA_KXZ DD imagerel $LN3
	DD	imagerel $LN3+80
	DD	imagerel $unwind$?_Mysize@?$deque@UEntry@LT@@V?$allocator@UEntry@LT@@@std@@@std@@AEAAAEA_KXZ
pdata	ENDS
;	COMDAT pdata
pdata	SEGMENT
$pdata$?_Mysize@?$deque@UEntry@LT@@V?$allocator@UEntry@LT@@@std@@@std@@AEBAAEB_KXZ DD imagerel $LN3
	DD	imagerel $LN3+80
	DD	imagerel $unwind$?_Mysize@?$deque@UEntry@LT@@V?$allocator@UEntry@LT@@@std@@@std@@AEBAAEB_KXZ
pdata	ENDS
;	COMDAT pdata
pdata	SEGMENT
$pdata$??0?$_Deque_val@U?$_Deque_simple_types@UEntry@LT@@@std@@@std@@QEAA@XZ DD imagerel $LN3
	DD	imagerel $LN3+143
	DD	imagerel $unwind$??0?$_Deque_val@U?$_Deque_simple_types@UEntry@LT@@@std@@@std@@QEAA@XZ
pdata	ENDS
;	COMDAT pdata
pdata	SEGMENT
$pdata$?_Getblock@?$_Deque_val@U?$_Deque_simple_types@UEntry@LT@@@std@@@std@@QEBA_K_K@Z DD imagerel $LN3
	DD	imagerel $LN3+96
	DD	imagerel $unwind$?_Getblock@?$_Deque_val@U?$_Deque_simple_types@UEntry@LT@@@std@@@std@@QEBA_K_K@Z
pdata	ENDS
;	COMDAT pdata
pdata	SEGMENT
$pdata$?_Get_first@?$_Compressed_pair@V?$allocator@UEntry@LT@@@std@@V?$_Deque_val@U?$_Deque_simple_types@UEntry@LT@@@std@@@2@$00@std@@QEAAAEAV?$allocator@UEntry@LT@@@2@XZ DD imagerel $LN3
	DD	imagerel $LN3+71
	DD	imagerel $unwind$?_Get_first@?$_Compressed_pair@V?$allocator@UEntry@LT@@@std@@V?$_Deque_val@U?$_Deque_simple_types@UEntry@LT@@@std@@@2@$00@std@@QEAAAEAV?$allocator@UEntry@LT@@@2@XZ
pdata	ENDS
;	COMDAT pdata
pdata	SEGMENT
$pdata$?_Get_first@?$_Compressed_pair@V?$allocator@UEntry@LT@@@std@@V?$_Deque_val@U?$_Deque_simple_types@UEntry@LT@@@std@@@2@$00@std@@QEBAAEBV?$allocator@UEntry@LT@@@2@XZ DD imagerel $LN3
	DD	imagerel $LN3+71
	DD	imagerel $unwind$?_Get_first@?$_Compressed_pair@V?$allocator@UEntry@LT@@@std@@V?$_Deque_val@U?$_Deque_simple_types@UEntry@LT@@@std@@@2@$00@std@@QEBAAEBV?$allocator@UEntry@LT@@@2@XZ
pdata	ENDS
;	COMDAT pdata
pdata	SEGMENT
$pdata$??0?$stack@UEntry@LT@@V?$deque@UEntry@LT@@V?$allocator@UEntry@LT@@@std@@@std@@@std@@QEAA@XZ DD imagerel $LN3
	DD	imagerel $LN3+86
	DD	imagerel $unwind$??0?$stack@UEntry@LT@@V?$deque@UEntry@LT@@V?$allocator@UEntry@LT@@@std@@@std@@@std@@QEAA@XZ
pdata	ENDS
;	COMDAT pdata
pdata	SEGMENT
$pdata$?empty@?$stack@UEntry@LT@@V?$deque@UEntry@LT@@V?$allocator@UEntry@LT@@@std@@@std@@@std@@QEBA_NXZ DD imagerel $LN3
	DD	imagerel $LN3+80
	DD	imagerel $unwind$?empty@?$stack@UEntry@LT@@V?$deque@UEntry@LT@@V?$allocator@UEntry@LT@@@std@@@std@@@std@@QEBA_NXZ
pdata	ENDS
;	COMDAT pdata
pdata	SEGMENT
$pdata$?top@?$stack@UEntry@LT@@V?$deque@UEntry@LT@@V?$allocator@UEntry@LT@@@std@@@std@@@std@@QEAAAEAUEntry@LT@@XZ DD imagerel $LN3
	DD	imagerel $LN3+80
	DD	imagerel $unwind$?top@?$stack@UEntry@LT@@V?$deque@UEntry@LT@@V?$allocator@UEntry@LT@@@std@@@std@@@std@@QEAAAEAUEntry@LT@@XZ
pdata	ENDS
;	COMDAT pdata
pdata	SEGMENT
$pdata$?push@?$stack@UEntry@LT@@V?$deque@UEntry@LT@@V?$allocator@UEntry@LT@@@std@@@std@@@std@@QEAAXAEBUEntry@LT@@@Z DD imagerel $LN3
	DD	imagerel $LN3+91
	DD	imagerel $unwind$?push@?$stack@UEntry@LT@@V?$deque@UEntry@LT@@V?$allocator@UEntry@LT@@@std@@@std@@@std@@QEAAXAEBUEntry@LT@@@Z
pdata	ENDS
;	COMDAT pdata
pdata	SEGMENT
$pdata$?pop@?$stack@UEntry@LT@@V?$deque@UEntry@LT@@V?$allocator@UEntry@LT@@@std@@@std@@@std@@QEAAXXZ DD imagerel $LN3
	DD	imagerel $LN3+80
	DD	imagerel $unwind$?pop@?$stack@UEntry@LT@@V?$deque@UEntry@LT@@V?$allocator@UEntry@LT@@@std@@@std@@@std@@QEAAXXZ
pdata	ENDS
;	COMDAT pdata
pdata	SEGMENT
$pdata$??1?$stack@UEntry@LT@@V?$deque@UEntry@LT@@V?$allocator@UEntry@LT@@@std@@@std@@@std@@QEAA@XZ DD imagerel $LN3
	DD	imagerel $LN3+67
	DD	imagerel $unwind$??1?$stack@UEntry@LT@@V?$deque@UEntry@LT@@V?$allocator@UEntry@LT@@@std@@@std@@@std@@QEAA@XZ
pdata	ENDS
;	COMDAT pdata
pdata	SEGMENT
$pdata$?__autoclassinit2@?$stack@UEntry@LT@@V?$deque@UEntry@LT@@V?$allocator@UEntry@LT@@@std@@@std@@@std@@QEAAX_K@Z DD imagerel $LN3
	DD	imagerel $LN3+73
	DD	imagerel $unwind$?__autoclassinit2@?$stack@UEntry@LT@@V?$deque@UEntry@LT@@V?$allocator@UEntry@LT@@@std@@@std@@@std@@QEAAX_K@Z
pdata	ENDS
;	COMDAT pdata
pdata	SEGMENT
$pdata$??0?$allocator@U?$_List_node@UEntry@LT@@PEAX@std@@@std@@QEAA@XZ DD imagerel $LN3
	DD	imagerel $LN3+71
	DD	imagerel $unwind$??0?$allocator@U?$_List_node@UEntry@LT@@PEAX@std@@@std@@QEAA@XZ
pdata	ENDS
;	COMDAT pdata
pdata	SEGMENT
$pdata$?deallocate@?$allocator@U?$_List_node@UEntry@LT@@PEAX@std@@@std@@QEAAXQEAU?$_List_node@UEntry@LT@@PEAX@2@_K@Z DD imagerel $LN3
	DD	imagerel $LN3+97
	DD	imagerel $unwind$?deallocate@?$allocator@U?$_List_node@UEntry@LT@@PEAX@std@@@std@@QEAAXQEAU?$_List_node@UEntry@LT@@PEAX@2@_K@Z
pdata	ENDS
;	COMDAT pdata
pdata	SEGMENT
$pdata$?allocate@?$allocator@U?$_List_node@UEntry@LT@@PEAX@std@@@std@@QEAAPEAU?$_List_node@UEntry@LT@@PEAX@2@_K@Z DD imagerel $LN3
	DD	imagerel $LN3+89
	DD	imagerel $unwind$?allocate@?$allocator@U?$_List_node@UEntry@LT@@PEAX@std@@@std@@QEAAPEAU?$_List_node@UEntry@LT@@PEAX@2@_K@Z
pdata	ENDS
;	COMDAT pdata
pdata	SEGMENT
$pdata$?deallocate@?$_Default_allocator_traits@V?$allocator@U?$_List_node@UEntry@LT@@PEAX@std@@@std@@@std@@SAXAEAV?$allocator@U?$_List_node@UEntry@LT@@PEAX@std@@@2@QEAU?$_List_node@UEntry@LT@@PEAX@2@_K@Z DD imagerel $LN3
	DD	imagerel $LN3+97
	DD	imagerel $unwind$?deallocate@?$_Default_allocator_traits@V?$allocator@U?$_List_node@UEntry@LT@@PEAX@std@@@std@@@std@@SAXAEAV?$allocator@U?$_List_node@UEntry@LT@@PEAX@std@@@2@QEAU?$_List_node@UEntry@LT@@PEAX@2@_K@Z
pdata	ENDS
;	COMDAT pdata
pdata	SEGMENT
$pdata$?max_size@?$_Default_allocator_traits@V?$allocator@U?$_List_node@UEntry@LT@@PEAX@std@@@std@@@std@@SA_KAEBV?$allocator@U?$_List_node@UEntry@LT@@PEAX@std@@@2@@Z DD imagerel $LN3
	DD	imagerel $LN3+74
	DD	imagerel $unwind$?max_size@?$_Default_allocator_traits@V?$allocator@U?$_List_node@UEntry@LT@@PEAX@std@@@std@@@std@@SA_KAEBV?$allocator@U?$_List_node@UEntry@LT@@PEAX@std@@@2@@Z
pdata	ENDS
;	COMDAT pdata
pdata	SEGMENT
$pdata$??0?$list@UEntry@LT@@V?$allocator@UEntry@LT@@@std@@@std@@QEAA@XZ DD imagerel $LN3
	DD	imagerel $LN3+105
	DD	imagerel $unwind$??0?$list@UEntry@LT@@V?$allocator@UEntry@LT@@@std@@@std@@QEAA@XZ
pdata	ENDS
;	COMDAT pdata
pdata	SEGMENT
$pdata$??1?$list@UEntry@LT@@V?$allocator@UEntry@LT@@@std@@@std@@QEAA@XZ DD imagerel $LN3
	DD	imagerel $LN3+176
	DD	imagerel $unwind$??1?$list@UEntry@LT@@V?$allocator@UEntry@LT@@@std@@@std@@QEAA@XZ
pdata	ENDS
;	COMDAT pdata
pdata	SEGMENT
$pdata$?max_size@?$list@UEntry@LT@@V?$allocator@UEntry@LT@@@std@@@std@@QEBA_KXZ DD imagerel $LN3
	DD	imagerel $LN3+125
	DD	imagerel $unwind$?max_size@?$list@UEntry@LT@@V?$allocator@UEntry@LT@@@std@@@std@@QEBA_KXZ
pdata	ENDS
;	COMDAT pdata
pdata	SEGMENT
$pdata$?empty@?$list@UEntry@LT@@V?$allocator@UEntry@LT@@@std@@@std@@QEBA_NXZ DD imagerel $LN5
	DD	imagerel $LN5+107
	DD	imagerel $unwind$?empty@?$list@UEntry@LT@@V?$allocator@UEntry@LT@@@std@@@std@@QEBA_NXZ
pdata	ENDS
;	COMDAT pdata
pdata	SEGMENT
$pdata$?front@?$list@UEntry@LT@@V?$allocator@UEntry@LT@@@std@@@std@@QEAAAEAUEntry@LT@@XZ DD imagerel $LN12
	DD	imagerel $LN12+215
	DD	imagerel $unwind$?front@?$list@UEntry@LT@@V?$allocator@UEntry@LT@@@std@@@std@@QEAAAEAUEntry@LT@@XZ
pdata	ENDS
;	COMDAT pdata
pdata	SEGMENT
$pdata$?pop_front@?$list@UEntry@LT@@V?$allocator@UEntry@LT@@@std@@@std@@QEAAXXZ DD imagerel $LN12
	DD	imagerel $LN12+224
	DD	imagerel $unwind$?pop_front@?$list@UEntry@LT@@V?$allocator@UEntry@LT@@@std@@@std@@QEAAXXZ
pdata	ENDS
;	COMDAT pdata
pdata	SEGMENT
$pdata$?push_back@?$list@UEntry@LT@@V?$allocator@UEntry@LT@@@std@@@std@@QEAAXAEBUEntry@LT@@@Z DD imagerel $LN3
	DD	imagerel $LN3+99
	DD	imagerel $unwind$?push_back@?$list@UEntry@LT@@V?$allocator@UEntry@LT@@@std@@@std@@QEAAXAEBUEntry@LT@@@Z
pdata	ENDS
;	COMDAT pdata
pdata	SEGMENT
$pdata$?_Unchecked_erase@?$list@UEntry@LT@@V?$allocator@UEntry@LT@@@std@@@std@@AEAAPEAU?$_List_node@UEntry@LT@@PEAX@2@QEAU32@@Z DD imagerel $LN3
	DD	imagerel $LN3+198
	DD	imagerel $unwind$?_Unchecked_erase@?$list@UEntry@LT@@V?$allocator@UEntry@LT@@@std@@@std@@AEAAPEAU?$_List_node@UEntry@LT@@PEAX@2@QEAU32@@Z
pdata	ENDS
;	COMDAT pdata
pdata	SEGMENT
$pdata$?_Tidy@?$list@UEntry@LT@@V?$allocator@UEntry@LT@@@std@@@std@@AEAAXXZ DD imagerel $LN3
	DD	imagerel $LN3+135
	DD	imagerel $unwind$?_Tidy@?$list@UEntry@LT@@V?$allocator@UEntry@LT@@@std@@@std@@AEAAXXZ
pdata	ENDS
;	COMDAT pdata
pdata	SEGMENT
$pdata$?_Alloc_sentinel_and_proxy@?$list@UEntry@LT@@V?$allocator@UEntry@LT@@@std@@@std@@AEAAXXZ DD imagerel $LN4
	DD	imagerel $LN4+290
	DD	imagerel $unwind$?_Alloc_sentinel_and_proxy@?$list@UEntry@LT@@V?$allocator@UEntry@LT@@@std@@@std@@AEAAXXZ
pdata	ENDS
;	COMDAT pdata
pdata	SEGMENT
$pdata$?dtor$0@?0??_Alloc_sentinel_and_proxy@?$list@UEntry@LT@@V?$allocator@UEntry@LT@@@std@@@std@@AEAAXXZ@4HA DD imagerel ?dtor$0@?0??_Alloc_sentinel_and_proxy@?$list@UEntry@LT@@V?$allocator@UEntry@LT@@@std@@@std@@AEAAXXZ@4HA
	DD	imagerel ?dtor$0@?0??_Alloc_sentinel_and_proxy@?$list@UEntry@LT@@V?$allocator@UEntry@LT@@@std@@@std@@AEAAXXZ@4HA+36
	DD	imagerel $unwind$?dtor$0@?0??_Alloc_sentinel_and_proxy@?$list@UEntry@LT@@V?$allocator@UEntry@LT@@@std@@@std@@AEAAXXZ@4HA
pdata	ENDS
;	COMDAT pdata
pdata	SEGMENT
$pdata$?_Getal@?$list@UEntry@LT@@V?$allocator@UEntry@LT@@@std@@@std@@AEAAAEAV?$allocator@U?$_List_node@UEntry@LT@@PEAX@std@@@2@XZ DD imagerel $LN3
	DD	imagerel $LN3+80
	DD	imagerel $unwind$?_Getal@?$list@UEntry@LT@@V?$allocator@UEntry@LT@@@std@@@std@@AEAAAEAV?$allocator@U?$_List_node@UEntry@LT@@PEAX@std@@@2@XZ
pdata	ENDS
;	COMDAT pdata
pdata	SEGMENT
$pdata$?_Getal@?$list@UEntry@LT@@V?$allocator@UEntry@LT@@@std@@@std@@AEBAAEBV?$allocator@U?$_List_node@UEntry@LT@@PEAX@std@@@2@XZ DD imagerel $LN3
	DD	imagerel $LN3+80
	DD	imagerel $unwind$?_Getal@?$list@UEntry@LT@@V?$allocator@UEntry@LT@@@std@@@std@@AEBAAEBV?$allocator@U?$_List_node@UEntry@LT@@PEAX@std@@@2@XZ
pdata	ENDS
;	COMDAT pdata
pdata	SEGMENT
$pdata$??0?$_List_val@U?$_List_simple_types@UEntry@LT@@@std@@@std@@QEAA@XZ DD imagerel $LN3
	DD	imagerel $LN3+113
	DD	imagerel $unwind$??0?$_List_val@U?$_List_simple_types@UEntry@LT@@@std@@@std@@QEAA@XZ
pdata	ENDS
;	COMDAT pdata
pdata	SEGMENT
$pdata$?_Orphan_ptr2@?$_List_val@U?$_List_simple_types@UEntry@LT@@@std@@@std@@QEAAXPEAU?$_List_node@UEntry@LT@@PEAX@2@@Z DD imagerel $LN8
	DD	imagerel $LN8+288
	DD	imagerel $unwind$?_Orphan_ptr2@?$_List_val@U?$_List_simple_types@UEntry@LT@@@std@@@std@@QEAAXPEAU?$_List_node@UEntry@LT@@PEAX@2@@Z
pdata	ENDS
;	COMDAT pdata
pdata	SEGMENT
$pdata$?_Get_first@?$_Compressed_pair@V?$allocator@U?$_List_node@UEntry@LT@@PEAX@std@@@std@@V?$_List_val@U?$_List_simple_types@UEntry@LT@@@std@@@2@$00@std@@QEAAAEAV?$allocator@U?$_List_node@UEntry@LT@@PEAX@std@@@2@XZ DD imagerel $LN3
	DD	imagerel $LN3+71
	DD	imagerel $unwind$?_Get_first@?$_Compressed_pair@V?$allocator@U?$_List_node@UEntry@LT@@PEAX@std@@@std@@V?$_List_val@U?$_List_simple_types@UEntry@LT@@@std@@@2@$00@std@@QEAAAEAV?$allocator@U?$_List_node@UEntry@LT@@PEAX@std@@@2@XZ
pdata	ENDS
;	COMDAT pdata
pdata	SEGMENT
$pdata$?_Get_first@?$_Compressed_pair@V?$allocator@U?$_List_node@UEntry@LT@@PEAX@std@@@std@@V?$_List_val@U?$_List_simple_types@UEntry@LT@@@std@@@2@$00@std@@QEBAAEBV?$allocator@U?$_List_node@UEntry@LT@@PEAX@std@@@2@XZ DD imagerel $LN3
	DD	imagerel $LN3+71
	DD	imagerel $unwind$?_Get_first@?$_Compressed_pair@V?$allocator@U?$_List_node@UEntry@LT@@PEAX@std@@@std@@V?$_List_val@U?$_List_simple_types@UEntry@LT@@@std@@@2@$00@std@@QEBAAEBV?$allocator@U?$_List_node@UEntry@LT@@PEAX@std@@@2@XZ
pdata	ENDS
;	COMDAT pdata
pdata	SEGMENT
$pdata$?__autoclassinit2@?$list@UEntry@LT@@V?$allocator@UEntry@LT@@@std@@@std@@QEAAX_K@Z DD imagerel $LN3
	DD	imagerel $LN3+73
	DD	imagerel $unwind$?__autoclassinit2@?$list@UEntry@LT@@V?$allocator@UEntry@LT@@@std@@@std@@QEAAX_K@Z
pdata	ENDS
;	COMDAT pdata
pdata	SEGMENT
$pdata$??$_Emplace@AEBUEntry@LT@@@?$list@UEntry@LT@@V?$allocator@UEntry@LT@@@std@@@std@@QEAAPEAU?$_List_node@UEntry@LT@@PEAX@1@QEAU21@AEBUEntry@LT@@@Z DD imagerel $LN5
	DD	imagerel $LN5+293
	DD	imagerel $unwind$??$_Emplace@AEBUEntry@LT@@@?$list@UEntry@LT@@V?$allocator@UEntry@LT@@@std@@@std@@QEAAPEAU?$_List_node@UEntry@LT@@PEAX@1@QEAU21@AEBUEntry@LT@@@Z
pdata	ENDS
;	COMDAT pdata
pdata	SEGMENT
$pdata$?allocate@?$allocator@U_Container_proxy@std@@@std@@QEAAPEAU_Container_proxy@2@_K@Z DD imagerel $LN3
	DD	imagerel $LN3+89
	DD	imagerel $unwind$?allocate@?$allocator@U_Container_proxy@std@@@std@@QEAAPEAU_Container_proxy@2@_K@Z
pdata	ENDS
;	COMDAT pdata
pdata	SEGMENT
$pdata$??$?0U?$_List_node@UEntry@LT@@PEAX@std@@@?$allocator@U_Container_proxy@std@@@std@@QEAA@AEBV?$allocator@U?$_List_node@UEntry@LT@@PEAX@std@@@1@@Z DD imagerel $LN3
	DD	imagerel $LN3+76
	DD	imagerel $unwind$??$?0U?$_List_node@UEntry@LT@@PEAX@std@@@?$allocator@U_Container_proxy@std@@@std@@QEAA@AEBV?$allocator@U?$_List_node@UEntry@LT@@PEAX@std@@@1@@Z
pdata	ENDS
;	COMDAT pdata
pdata	SEGMENT
$pdata$??$_Delete_plain_internal@V?$allocator@U_Container_proxy@std@@@std@@@std@@YAXAEAV?$allocator@U_Container_proxy@std@@@0@QEAU_Container_proxy@0@@Z DD imagerel $LN3
	DD	imagerel $LN3+89
	DD	imagerel $unwind$??$_Delete_plain_internal@V?$allocator@U_Container_proxy@std@@@std@@@std@@YAXAEAV?$allocator@U_Container_proxy@std@@@0@QEAU_Container_proxy@0@@Z
pdata	ENDS
;	COMDAT pdata
pdata	SEGMENT
$pdata$??$?0$$V@?$_Compressed_pair@V?$allocator@U?$_List_node@UEntry@LT@@PEAX@std@@@std@@V?$_List_val@U?$_List_simple_types@UEntry@LT@@@std@@@2@$00@std@@QEAA@U_Zero_then_variadic_args_t@1@@Z DD imagerel $LN3
	DD	imagerel $LN3+102
	DD	imagerel $unwind$??$?0$$V@?$_Compressed_pair@V?$allocator@U?$_List_node@UEntry@LT@@PEAX@std@@@std@@V?$_List_val@U?$_List_simple_types@UEntry@LT@@@std@@@2@$00@std@@QEAA@U_Zero_then_variadic_args_t@1@@Z
pdata	ENDS
;	COMDAT pdata
pdata	SEGMENT
$pdata$??$?0UEntry@LT@@@?$allocator@U_Container_proxy@std@@@std@@QEAA@AEBV?$allocator@UEntry@LT@@@1@@Z DD imagerel $LN3
	DD	imagerel $LN3+76
	DD	imagerel $unwind$??$?0UEntry@LT@@@?$allocator@U_Container_proxy@std@@@std@@QEAA@AEBV?$allocator@UEntry@LT@@@1@@Z
pdata	ENDS
;	COMDAT pdata
pdata	SEGMENT
$pdata$??$exchange@PEAU_Container_proxy@std@@$$T@std@@YAPEAU_Container_proxy@0@AEAPEAU10@$$QEA$$T@Z DD imagerel $LN3
	DD	imagerel $LN3+107
	DD	imagerel $unwind$??$exchange@PEAU_Container_proxy@std@@$$T@std@@YAPEAU_Container_proxy@0@AEAPEAU10@$$QEA$$T@Z
pdata	ENDS
;	COMDAT pdata
pdata	SEGMENT
$pdata$??$?0$$V@?$_Compressed_pair@V?$allocator@UEntry@LT@@@std@@V?$_Deque_val@U?$_Deque_simple_types@UEntry@LT@@@std@@@2@$00@std@@QEAA@U_Zero_then_variadic_args_t@1@@Z DD imagerel $LN3
	DD	imagerel $LN3+102
	DD	imagerel $unwind$??$?0$$V@?$_Compressed_pair@V?$allocator@UEntry@LT@@@std@@V?$_Deque_val@U?$_Deque_simple_types@UEntry@LT@@@std@@@2@$00@std@@QEAA@U_Zero_then_variadic_args_t@1@@Z
pdata	ENDS
;	COMDAT pdata
pdata	SEGMENT
$pdata$??$_Alloc_proxy@V?$allocator@U_Container_proxy@std@@@std@@@_Container_base12@std@@QEAAX$$QEAV?$allocator@U_Container_proxy@std@@@1@@Z DD imagerel $LN3
	DD	imagerel $LN3+156
	DD	imagerel $unwind$??$_Alloc_proxy@V?$allocator@U_Container_proxy@std@@@std@@@_Container_base12@std@@QEAAX$$QEAV?$allocator@U_Container_proxy@std@@@1@@Z
pdata	ENDS
;	COMDAT pdata
pdata	SEGMENT
$pdata$??$min@_K@std@@YAAEB_KAEB_K0@Z DD imagerel $LN5
	DD	imagerel $LN5+142
	DD	imagerel $unwind$??$min@_K@std@@YAAEB_KAEB_K0@Z
pdata	ENDS
;	COMDAT pdata
pdata	SEGMENT
$pdata$??0?$_Container_proxy_ptr12@V?$allocator@U_Container_proxy@std@@@std@@@std@@QEAA@AEAV?$allocator@U_Container_proxy@std@@@1@AEAU_Container_base12@1@@Z DD imagerel $LN3
	DD	imagerel $LN3+195
	DD	imagerel $unwind$??0?$_Container_proxy_ptr12@V?$allocator@U_Container_proxy@std@@@std@@@std@@QEAA@AEAV?$allocator@U_Container_proxy@std@@@1@AEAU_Container_base12@1@@Z
pdata	ENDS
;	COMDAT pdata
pdata	SEGMENT
$pdata$??1?$_Container_proxy_ptr12@V?$allocator@U_Container_proxy@std@@@std@@@std@@QEAA@XZ DD imagerel $LN4
	DD	imagerel $LN4+104
	DD	imagerel $unwind$??1?$_Container_proxy_ptr12@V?$allocator@U_Container_proxy@std@@@std@@@std@@QEAA@XZ
pdata	ENDS
;	COMDAT pdata
pdata	SEGMENT
$pdata$??$_Unfancy@U_Container_proxy@std@@@std@@YAPEAU_Container_proxy@0@PEAU10@@Z DD imagerel $LN3
	DD	imagerel $LN3+71
	DD	imagerel $unwind$??$_Unfancy@U_Container_proxy@std@@@std@@YAPEAU_Container_proxy@0@PEAU10@@Z
pdata	ENDS
;	COMDAT pdata
pdata	SEGMENT
$pdata$??$_Construct_in_place@PEAU?$_List_node@UEntry@LT@@PEAX@std@@AEAPEAU12@@std@@YAXAEAPEAU?$_List_node@UEntry@LT@@PEAX@0@0@Z DD imagerel $LN3
	DD	imagerel $LN3+126
	DD	imagerel $unwind$??$_Construct_in_place@PEAU?$_List_node@UEntry@LT@@PEAX@std@@AEAPEAU12@@std@@YAXAEAPEAU?$_List_node@UEntry@LT@@PEAX@0@0@Z
pdata	ENDS
;	COMDAT pdata
pdata	SEGMENT
$pdata$??$_Free_non_head@V?$allocator@U?$_List_node@UEntry@LT@@PEAX@std@@@std@@@?$_List_node@UEntry@LT@@PEAX@std@@SAXAEAV?$allocator@U?$_List_node@UEntry@LT@@PEAX@std@@@1@PEAU01@@Z DD imagerel $LN6
	DD	imagerel $LN6+147
	DD	imagerel $unwind$??$_Free_non_head@V?$allocator@U?$_List_node@UEntry@LT@@PEAX@std@@@std@@@?$_List_node@UEntry@LT@@PEAX@std@@SAXAEAV?$allocator@U?$_List_node@UEntry@LT@@PEAX@std@@@1@PEAU01@@Z
pdata	ENDS
;	COMDAT pdata
pdata	SEGMENT
$pdata$??$_Freenode0@V?$allocator@U?$_List_node@UEntry@LT@@PEAX@std@@@std@@@?$_List_node@UEntry@LT@@PEAX@std@@SAXAEAV?$allocator@U?$_List_node@UEntry@LT@@PEAX@std@@@1@PEAU01@@Z DD imagerel $LN3
	DD	imagerel $LN3+129
	DD	imagerel $unwind$??$_Freenode0@V?$allocator@U?$_List_node@UEntry@LT@@PEAX@std@@@std@@@?$_List_node@UEntry@LT@@PEAX@std@@SAXAEAV?$allocator@U?$_List_node@UEntry@LT@@PEAX@std@@@1@PEAU01@@Z
pdata	ENDS
;	COMDAT pdata
pdata	SEGMENT
$pdata$??$_Freenode@V?$allocator@U?$_List_node@UEntry@LT@@PEAX@std@@@std@@@?$_List_node@UEntry@LT@@PEAX@std@@SAXAEAV?$allocator@U?$_List_node@UEntry@LT@@PEAX@std@@@1@PEAU01@@Z DD imagerel $LN3
	DD	imagerel $LN3+123
	DD	imagerel $unwind$??$_Freenode@V?$allocator@U?$_List_node@UEntry@LT@@PEAX@std@@@std@@@?$_List_node@UEntry@LT@@PEAX@std@@SAXAEAV?$allocator@U?$_List_node@UEntry@LT@@PEAX@std@@@1@PEAU01@@Z
pdata	ENDS
;	COMDAT pdata
pdata	SEGMENT
$pdata$??$?0UEntry@LT@@@?$allocator@PEAUEntry@LT@@@std@@QEAA@AEBV?$allocator@UEntry@LT@@@1@@Z DD imagerel $LN3
	DD	imagerel $LN3+76
	DD	imagerel $unwind$??$?0UEntry@LT@@@?$allocator@PEAUEntry@LT@@@std@@QEAA@AEBV?$allocator@UEntry@LT@@@1@@Z
pdata	ENDS
;	COMDAT pdata
pdata	SEGMENT
$pdata$??$_Destroy_in_place@PEAUEntry@LT@@@std@@YAXAEAPEAUEntry@LT@@@Z DD imagerel $LN3
	DD	imagerel $LN3+65
	DD	imagerel $unwind$??$_Destroy_in_place@PEAUEntry@LT@@@std@@YAXAEAPEAUEntry@LT@@@Z
pdata	ENDS
;	COMDAT pdata
pdata	SEGMENT
$pdata$??$_Unfancy@UEntry@LT@@@std@@YAPEAUEntry@LT@@PEAU12@@Z DD imagerel $LN3
	DD	imagerel $LN3+71
	DD	imagerel $unwind$??$_Unfancy@UEntry@LT@@@std@@YAPEAUEntry@LT@@PEAU12@@Z
pdata	ENDS
;	COMDAT pdata
pdata	SEGMENT
$pdata$??$destroy@UEntry@LT@@@?$_Default_allocator_traits@V?$allocator@UEntry@LT@@@std@@@std@@SAXAEAV?$allocator@UEntry@LT@@@1@QEAUEntry@LT@@@Z DD imagerel $LN3
	DD	imagerel $LN3+69
	DD	imagerel $unwind$??$destroy@UEntry@LT@@@?$_Default_allocator_traits@V?$allocator@UEntry@LT@@@std@@@std@@SAXAEAV?$allocator@UEntry@LT@@@1@QEAUEntry@LT@@@Z
pdata	ENDS
;	COMDAT pdata
pdata	SEGMENT
$pdata$??$_Emplace_back_internal@AEBUEntry@LT@@@?$deque@UEntry@LT@@V?$allocator@UEntry@LT@@@std@@@std@@AEAAXAEBUEntry@LT@@@Z DD imagerel $LN5
	DD	imagerel $LN5+559
	DD	imagerel $unwind$??$_Emplace_back_internal@AEBUEntry@LT@@@?$deque@UEntry@LT@@V?$allocator@UEntry@LT@@@std@@@std@@AEAAXAEBUEntry@LT@@@Z
pdata	ENDS
;	COMDAT pdata
pdata	SEGMENT
$pdata$??0?$_Deque_unchecked_const_iterator@V?$_Deque_val@U?$_Deque_simple_types@UEntry@LT@@@std@@@std@@@std@@QEAA@_KPEBU_Container_base12@1@@Z DD imagerel $LN3
	DD	imagerel $LN3+116
	DD	imagerel $unwind$??0?$_Deque_unchecked_const_iterator@V?$_Deque_val@U?$_Deque_simple_types@UEntry@LT@@@std@@@std@@@std@@QEAA@_KPEBU_Container_base12@1@@Z
pdata	ENDS
;	COMDAT pdata
pdata	SEGMENT
$pdata$??D?$_Deque_unchecked_const_iterator@V?$_Deque_val@U?$_Deque_simple_types@UEntry@LT@@@std@@@std@@@std@@QEBAAEBUEntry@LT@@XZ DD imagerel $LN3
	DD	imagerel $LN3+130
	DD	imagerel $unwind$??D?$_Deque_unchecked_const_iterator@V?$_Deque_val@U?$_Deque_simple_types@UEntry@LT@@@std@@@std@@@std@@QEBAAEBUEntry@LT@@XZ
pdata	ENDS
;	COMDAT pdata
pdata	SEGMENT
$pdata$??Z?$_Deque_unchecked_const_iterator@V?$_Deque_val@U?$_Deque_simple_types@UEntry@LT@@@std@@@std@@@std@@QEAAAEAV01@_J@Z DD imagerel $LN3
	DD	imagerel $LN3+108
	DD	imagerel $unwind$??Z?$_Deque_unchecked_const_iterator@V?$_Deque_val@U?$_Deque_simple_types@UEntry@LT@@@std@@@std@@@std@@QEAAAEAV01@_J@Z
pdata	ENDS
;	COMDAT pdata
pdata	SEGMENT
$pdata$??D?$_Deque_unchecked_iterator@V?$_Deque_val@U?$_Deque_simple_types@UEntry@LT@@@std@@@std@@@std@@QEBAAEAUEntry@LT@@XZ DD imagerel $LN3
	DD	imagerel $LN3+76
	DD	imagerel $unwind$??D?$_Deque_unchecked_iterator@V?$_Deque_val@U?$_Deque_simple_types@UEntry@LT@@@std@@@std@@@std@@QEBAAEAUEntry@LT@@XZ
pdata	ENDS
;	COMDAT pdata
pdata	SEGMENT
$pdata$??Z?$_Deque_unchecked_iterator@V?$_Deque_val@U?$_Deque_simple_types@UEntry@LT@@@std@@@std@@@std@@QEAAAEAV01@_J@Z DD imagerel $LN3
	DD	imagerel $LN3+95
	DD	imagerel $unwind$??Z?$_Deque_unchecked_iterator@V?$_Deque_val@U?$_Deque_simple_types@UEntry@LT@@@std@@@std@@@std@@QEAAAEAV01@_J@Z
pdata	ENDS
;	COMDAT pdata
pdata	SEGMENT
$pdata$??G?$_Deque_unchecked_iterator@V?$_Deque_val@U?$_Deque_simple_types@UEntry@LT@@@std@@@std@@@std@@QEBA?AV01@_J@Z DD imagerel $LN3
	DD	imagerel $LN3+205
	DD	imagerel $unwind$??G?$_Deque_unchecked_iterator@V?$_Deque_val@U?$_Deque_simple_types@UEntry@LT@@@std@@@std@@@std@@QEBA?AV01@_J@Z
pdata	ENDS
;	COMDAT pdata
pdata	SEGMENT
$pdata$?__autoclassinit2@?$_Deque_unchecked_iterator@V?$_Deque_val@U?$_Deque_simple_types@UEntry@LT@@@std@@@std@@@std@@QEAAX_K@Z DD imagerel $LN3
	DD	imagerel $LN3+73
	DD	imagerel $unwind$?__autoclassinit2@?$_Deque_unchecked_iterator@V?$_Deque_val@U?$_Deque_simple_types@UEntry@LT@@@std@@@std@@@std@@QEAAX_K@Z
pdata	ENDS
;	COMDAT pdata
pdata	SEGMENT
$pdata$??0?$_Deque_unchecked_iterator@V?$_Deque_val@U?$_Deque_simple_types@UEntry@LT@@@std@@@std@@@std@@QEAA@_KPEBU_Container_base12@1@@Z DD imagerel $LN3
	DD	imagerel $LN3+95
	DD	imagerel $unwind$??0?$_Deque_unchecked_iterator@V?$_Deque_val@U?$_Deque_simple_types@UEntry@LT@@@std@@@std@@@std@@QEAA@_KPEBU_Container_base12@1@@Z
pdata	ENDS
;	COMDAT pdata
pdata	SEGMENT
$pdata$??$_Get_size_of_n@$0BA@@std@@YA_K_K@Z DD imagerel $LN4
	DD	imagerel $LN4+114
	DD	imagerel $unwind$??$_Get_size_of_n@$0BA@@std@@YA_K_K@Z
pdata	ENDS
;	COMDAT pdata
pdata	SEGMENT
$pdata$??$_Allocate@$0BA@U_Default_allocate_traits@std@@$0A@@std@@YAPEAX_K@Z DD imagerel $LN5
	DD	imagerel $LN5+117
	DD	imagerel $unwind$??$_Allocate@$0BA@U_Default_allocate_traits@std@@$0A@@std@@YAPEAX_K@Z
pdata	ENDS
;	COMDAT pdata
pdata	SEGMENT
$pdata$??$_Get_size_of_n@$0CA@@std@@YA_K_K@Z DD imagerel $LN4
	DD	imagerel $LN4+114
	DD	imagerel $unwind$??$_Get_size_of_n@$0CA@@std@@YA_K_K@Z
pdata	ENDS
;	COMDAT pdata
pdata	SEGMENT
$pdata$??$addressof@V?$_Deque_val@U?$_Deque_simple_types@UEntry@LT@@@std@@@std@@@std@@YAPEAV?$_Deque_val@U?$_Deque_simple_types@UEntry@LT@@@std@@@0@AEAV10@@Z DD imagerel $LN3
	DD	imagerel $LN3+71
	DD	imagerel $unwind$??$addressof@V?$_Deque_val@U?$_Deque_simple_types@UEntry@LT@@@std@@@std@@@std@@YAPEAV?$_Deque_val@U?$_Deque_simple_types@UEntry@LT@@@std@@@0@AEAV10@@Z
pdata	ENDS
;	COMDAT pdata
pdata	SEGMENT
$pdata$??$_Deallocate@$0BA@$0A@@std@@YAXPEAX_K@Z DD imagerel $LN4
	DD	imagerel $LN4+121
	DD	imagerel $unwind$??$_Deallocate@$0BA@$0A@@std@@YAXPEAX_K@Z
pdata	ENDS
;	COMDAT pdata
pdata	SEGMENT
$pdata$??$addressof@U_Container_proxy@std@@@std@@YAPEAU_Container_proxy@0@AEAU10@@Z DD imagerel $LN3
	DD	imagerel $LN3+71
	DD	imagerel $unwind$??$addressof@U_Container_proxy@std@@@std@@YAPEAU_Container_proxy@0@AEAU10@@Z
pdata	ENDS
;	COMDAT pdata
pdata	SEGMENT
$pdata$??$forward@PEAU_Container_base12@std@@@std@@YA$$QEAPEAU_Container_base12@0@AEAPEAU10@@Z DD imagerel $LN3
	DD	imagerel $LN3+71
	DD	imagerel $unwind$??$forward@PEAU_Container_base12@std@@@std@@YA$$QEAPEAU_Container_base12@0@AEAPEAU10@@Z
pdata	ENDS
;	COMDAT pdata
pdata	SEGMENT
$pdata$??0?$_Alloc_construct_ptr@V?$allocator@U?$_List_node@UEntry@LT@@PEAX@std@@@std@@@std@@QEAA@AEAV?$allocator@U?$_List_node@UEntry@LT@@PEAX@std@@@1@@Z DD imagerel $LN3
	DD	imagerel $LN3+108
	DD	imagerel $unwind$??0?$_Alloc_construct_ptr@V?$allocator@U?$_List_node@UEntry@LT@@PEAX@std@@@std@@@std@@QEAA@AEAV?$allocator@U?$_List_node@UEntry@LT@@PEAX@std@@@1@@Z
pdata	ENDS
;	COMDAT pdata
pdata	SEGMENT
$pdata$?_Allocate@?$_Alloc_construct_ptr@V?$allocator@U?$_List_node@UEntry@LT@@PEAX@std@@@std@@@std@@QEAAXXZ DD imagerel $LN3
	DD	imagerel $LN3+110
	DD	imagerel $unwind$?_Allocate@?$_Alloc_construct_ptr@V?$allocator@U?$_List_node@UEntry@LT@@PEAX@std@@@std@@@std@@QEAAXXZ
pdata	ENDS
;	COMDAT pdata
pdata	SEGMENT
$pdata$??1?$_Alloc_construct_ptr@V?$allocator@U?$_List_node@UEntry@LT@@PEAX@std@@@std@@@std@@QEAA@XZ DD imagerel $LN4
	DD	imagerel $LN4+111
	DD	imagerel $unwind$??1?$_Alloc_construct_ptr@V?$allocator@U?$_List_node@UEntry@LT@@PEAX@std@@@std@@@std@@QEAA@XZ
pdata	ENDS
;	COMDAT pdata
pdata	SEGMENT
$pdata$??1?$_List_node_emplace_op2@V?$allocator@U?$_List_node@UEntry@LT@@PEAX@std@@@std@@@std@@QEAA@XZ DD imagerel $LN4
	DD	imagerel $LN4+132
	DD	imagerel $unwind$??1?$_List_node_emplace_op2@V?$allocator@U?$_List_node@UEntry@LT@@PEAX@std@@@std@@@std@@QEAA@XZ
pdata	ENDS
;	COMDAT pdata
pdata	SEGMENT
$pdata$?_Transfer_before@?$_List_node_emplace_op2@V?$allocator@U?$_List_node@UEntry@LT@@PEAX@std@@@std@@@std@@QEAAPEAU?$_List_node@UEntry@LT@@PEAX@2@QEAU32@@Z DD imagerel $LN3
	DD	imagerel $LN3+251
	DD	imagerel $unwind$?_Transfer_before@?$_List_node_emplace_op2@V?$allocator@U?$_List_node@UEntry@LT@@PEAX@std@@@std@@@std@@QEAAPEAU?$_List_node@UEntry@LT@@PEAX@2@QEAU32@@Z
pdata	ENDS
;	COMDAT pdata
pdata	SEGMENT
$pdata$??$forward@AEBUEntry@LT@@@std@@YAAEBUEntry@LT@@AEBU12@@Z DD imagerel $LN3
	DD	imagerel $LN3+71
	DD	imagerel $unwind$??$forward@AEBUEntry@LT@@@std@@YAAEBUEntry@LT@@AEBU12@@Z
pdata	ENDS
;	COMDAT pdata
pdata	SEGMENT
$pdata$??$?0AEBUEntry@LT@@@?$_List_node_emplace_op2@V?$allocator@U?$_List_node@UEntry@LT@@PEAX@std@@@std@@@std@@QEAA@AEAV?$allocator@U?$_List_node@UEntry@LT@@PEAX@std@@@1@AEBUEntry@LT@@@Z DD imagerel $LN4
	DD	imagerel $LN4+181
	DD	imagerel $unwind$??$?0AEBUEntry@LT@@@?$_List_node_emplace_op2@V?$allocator@U?$_List_node@UEntry@LT@@PEAX@std@@@std@@@std@@QEAA@AEAV?$allocator@U?$_List_node@UEntry@LT@@PEAX@std@@@1@AEBUEntry@LT@@@Z
pdata	ENDS
;	COMDAT pdata
pdata	SEGMENT
$pdata$?dtor$0@?0???$?0AEBUEntry@LT@@@?$_List_node_emplace_op2@V?$allocator@U?$_List_node@UEntry@LT@@PEAX@std@@@std@@@std@@QEAA@AEAV?$allocator@U?$_List_node@UEntry@LT@@PEAX@std@@@1@AEBUEntry@LT@@@Z@4HA DD imagerel ?dtor$0@?0???$?0AEBUEntry@LT@@@?$_List_node_emplace_op2@V?$allocator@U?$_List_node@UEntry@LT@@PEAX@std@@@std@@@std@@QEAA@AEAV?$allocator@U?$_List_node@UEntry@LT@@PEAX@std@@@1@AEBUEntry@LT@@@Z@4HA
	DD	imagerel ?dtor$0@?0???$?0AEBUEntry@LT@@@?$_List_node_emplace_op2@V?$allocator@U?$_List_node@UEntry@LT@@PEAX@std@@@std@@@std@@QEAA@AEAV?$allocator@U?$_List_node@UEntry@LT@@PEAX@std@@@1@AEBUEntry@LT@@@Z@4HA+39
	DD	imagerel $unwind$?dtor$0@?0???$?0AEBUEntry@LT@@@?$_List_node_emplace_op2@V?$allocator@U?$_List_node@UEntry@LT@@PEAX@std@@@std@@@std@@QEAA@AEAV?$allocator@U?$_List_node@UEntry@LT@@PEAX@std@@@1@AEBUEntry@LT@@@Z@4HA
pdata	ENDS
;	COMDAT pdata
pdata	SEGMENT
$pdata$??$_Deallocate_plain@V?$allocator@U_Container_proxy@std@@@std@@@std@@YAXAEAV?$allocator@U_Container_proxy@std@@@0@QEAU_Container_proxy@0@@Z DD imagerel $LN3
	DD	imagerel $LN3+95
	DD	imagerel $unwind$??$_Deallocate_plain@V?$allocator@U_Container_proxy@std@@@std@@@std@@YAXAEAV?$allocator@U_Container_proxy@std@@@0@QEAU_Container_proxy@0@@Z
pdata	ENDS
;	COMDAT pdata
pdata	SEGMENT
$pdata$??$addressof@PEAU?$_List_node@UEntry@LT@@PEAX@std@@@std@@YAPEAPEAU?$_List_node@UEntry@LT@@PEAX@0@AEAPEAU10@@Z DD imagerel $LN3
	DD	imagerel $LN3+71
	DD	imagerel $unwind$??$addressof@PEAU?$_List_node@UEntry@LT@@PEAX@std@@@std@@YAPEAPEAU?$_List_node@UEntry@LT@@PEAX@0@AEAPEAU10@@Z
pdata	ENDS
;	COMDAT pdata
pdata	SEGMENT
$pdata$??$forward@AEAPEAU?$_List_node@UEntry@LT@@PEAX@std@@@std@@YAAEAPEAU?$_List_node@UEntry@LT@@PEAX@0@AEAPEAU10@@Z DD imagerel $LN3
	DD	imagerel $LN3+71
	DD	imagerel $unwind$??$forward@AEAPEAU?$_List_node@UEntry@LT@@PEAX@std@@@std@@YAAEAPEAU?$_List_node@UEntry@LT@@PEAX@0@AEAPEAU10@@Z
pdata	ENDS
;	COMDAT pdata
pdata	SEGMENT
$pdata$??$_Destroy_in_place@PEAU?$_List_node@UEntry@LT@@PEAX@std@@@std@@YAXAEAPEAU?$_List_node@UEntry@LT@@PEAX@0@@Z DD imagerel $LN3
	DD	imagerel $LN3+65
	DD	imagerel $unwind$??$_Destroy_in_place@PEAU?$_List_node@UEntry@LT@@PEAX@std@@@std@@YAXAEAPEAU?$_List_node@UEntry@LT@@PEAX@0@@Z
pdata	ENDS
;	COMDAT pdata
pdata	SEGMENT
$pdata$??$addressof@UEntry@LT@@@std@@YAPEAUEntry@LT@@AEAU12@@Z DD imagerel $LN3
	DD	imagerel $LN3+71
	DD	imagerel $unwind$??$addressof@UEntry@LT@@@std@@YAPEAUEntry@LT@@AEAU12@@Z
pdata	ENDS
;	COMDAT pdata
pdata	SEGMENT
$pdata$??$destroy@UEntry@LT@@@?$_Default_allocator_traits@V?$allocator@U?$_List_node@UEntry@LT@@PEAX@std@@@std@@@std@@SAXAEAV?$allocator@U?$_List_node@UEntry@LT@@PEAX@std@@@1@QEAUEntry@LT@@@Z DD imagerel $LN3
	DD	imagerel $LN3+69
	DD	imagerel $unwind$??$destroy@UEntry@LT@@@?$_Default_allocator_traits@V?$allocator@U?$_List_node@UEntry@LT@@PEAX@std@@@std@@@std@@SAXAEAV?$allocator@U?$_List_node@UEntry@LT@@PEAX@std@@@1@QEAUEntry@LT@@@Z
pdata	ENDS
;	COMDAT pdata
pdata	SEGMENT
$pdata$??$construct@UEntry@LT@@AEBU12@@?$_Default_allocator_traits@V?$allocator@UEntry@LT@@@std@@@std@@SAXAEAV?$allocator@UEntry@LT@@@1@QEAUEntry@LT@@AEBU34@@Z DD imagerel $LN3
	DD	imagerel $LN3+129
	DD	imagerel $unwind$??$construct@UEntry@LT@@AEBU12@@?$_Default_allocator_traits@V?$allocator@UEntry@LT@@@std@@@std@@SAXAEAV?$allocator@UEntry@LT@@@1@QEAUEntry@LT@@AEBU34@@Z
pdata	ENDS
;	COMDAT pdata
pdata	SEGMENT
$pdata$??$_Allocate_manually_vector_aligned@U_Default_allocate_traits@std@@@std@@YAPEAX_K@Z DD imagerel $LN13
	DD	imagerel $LN13+300
	DD	imagerel $unwind$??$_Allocate_manually_vector_aligned@U_Default_allocate_traits@std@@@std@@YAPEAX_K@Z
pdata	ENDS
;	COMDAT pdata
pdata	SEGMENT
$pdata$??$_Construct_in_place@PEAU?$_List_node@UEntry@LT@@PEAX@std@@AEBQEAU12@@std@@YAXAEAPEAU?$_List_node@UEntry@LT@@PEAX@0@AEBQEAU10@@Z DD imagerel $LN3
	DD	imagerel $LN3+126
	DD	imagerel $unwind$??$_Construct_in_place@PEAU?$_List_node@UEntry@LT@@PEAX@std@@AEBQEAU12@@std@@YAXAEAPEAU?$_List_node@UEntry@LT@@PEAX@0@AEBQEAU10@@Z
pdata	ENDS
;	COMDAT pdata
pdata	SEGMENT
$pdata$??$uninitialized_copy@PEAPEAUEntry@LT@@PEAPEAU12@@std@@YAPEAPEAUEntry@LT@@QEAPEAU12@0PEAPEAU12@@Z DD imagerel $LN3
	DD	imagerel $LN3+255
	DD	imagerel $unwind$??$uninitialized_copy@PEAPEAUEntry@LT@@PEAPEAU12@@std@@YAPEAPEAUEntry@LT@@QEAPEAU12@0PEAPEAU12@@Z
pdata	ENDS
;	COMDAT pdata
pdata	SEGMENT
$pdata$??$_Uninitialized_value_construct_n_unchecked1@PEAPEAUEntry@LT@@_K@std@@YAPEAPEAUEntry@LT@@PEAPEAU12@_K@Z DD imagerel $LN3
	DD	imagerel $LN3+102
	DD	imagerel $unwind$??$_Uninitialized_value_construct_n_unchecked1@PEAPEAUEntry@LT@@_K@std@@YAPEAPEAUEntry@LT@@PEAPEAU12@_K@Z
pdata	ENDS
;	COMDAT pdata
pdata	SEGMENT
$pdata$??$_Destroy_range@PEAPEAUEntry@LT@@@std@@YAXPEAPEAUEntry@LT@@QEAPEAU12@@Z DD imagerel $LN3
	DD	imagerel $LN3+70
	DD	imagerel $unwind$??$_Destroy_range@PEAPEAUEntry@LT@@@std@@YAXPEAPEAUEntry@LT@@QEAPEAU12@@Z
pdata	ENDS
;	COMDAT pdata
pdata	SEGMENT
$pdata$??$_Get_size_of_n@$07@std@@YA_K_K@Z DD imagerel $LN4
	DD	imagerel $LN4+117
	DD	imagerel $unwind$??$_Get_size_of_n@$07@std@@YA_K_K@Z
pdata	ENDS
;	COMDAT pdata
pdata	SEGMENT
$pdata$??$construct@UEntry@LT@@AEBU12@@?$_Default_allocator_traits@V?$allocator@U?$_List_node@UEntry@LT@@PEAX@std@@@std@@@std@@SAXAEAV?$allocator@U?$_List_node@UEntry@LT@@PEAX@std@@@1@QEAUEntry@LT@@AEBU34@@Z DD imagerel $LN3
	DD	imagerel $LN3+129
	DD	imagerel $unwind$??$construct@UEntry@LT@@AEBU12@@?$_Default_allocator_traits@V?$allocator@U?$_List_node@UEntry@LT@@PEAX@std@@@std@@@std@@SAXAEAV?$allocator@U?$_List_node@UEntry@LT@@PEAX@std@@@1@QEAUEntry@LT@@AEBU34@@Z
pdata	ENDS
;	COMDAT pdata
pdata	SEGMENT
$pdata$?deallocate@?$_Default_allocator_traits@V?$allocator@U_Container_proxy@std@@@std@@@std@@SAXAEAV?$allocator@U_Container_proxy@std@@@2@QEAU_Container_proxy@2@_K@Z DD imagerel $LN3
	DD	imagerel $LN3+97
	DD	imagerel $unwind$?deallocate@?$_Default_allocator_traits@V?$allocator@U_Container_proxy@std@@@std@@@std@@SAXAEAV?$allocator@U_Container_proxy@std@@@2@QEAU_Container_proxy@2@_K@Z
pdata	ENDS
;	COMDAT pdata
pdata	SEGMENT
$pdata$??$forward@AEBQEAU?$_List_node@UEntry@LT@@PEAX@std@@@std@@YAAEBQEAU?$_List_node@UEntry@LT@@PEAX@0@AEBQEAU10@@Z DD imagerel $LN3
	DD	imagerel $LN3+71
	DD	imagerel $unwind$??$forward@AEBQEAU?$_List_node@UEntry@LT@@PEAX@std@@@std@@YAAEBQEAU?$_List_node@UEntry@LT@@PEAX@0@AEBQEAU10@@Z
pdata	ENDS
;	COMDAT pdata
pdata	SEGMENT
$pdata$??$_Adl_verify_range@PEAPEAUEntry@LT@@PEAPEAU12@@std@@YAXAEBQEAPEAUEntry@LT@@0@Z DD imagerel $LN3
	DD	imagerel $LN3+94
	DD	imagerel $unwind$??$_Adl_verify_range@PEAPEAUEntry@LT@@PEAPEAU12@@std@@YAXAEBQEAPEAUEntry@LT@@0@Z
pdata	ENDS
;	COMDAT pdata
pdata	SEGMENT
$pdata$??$_Get_unwrapped@AEBQEAPEAUEntry@LT@@@std@@YA@AEBQEAPEAUEntry@LT@@@Z DD imagerel $LN3
	DD	imagerel $LN3+74
	DD	imagerel $unwind$??$_Get_unwrapped@AEBQEAPEAUEntry@LT@@@std@@YA@AEBQEAPEAUEntry@LT@@@Z
pdata	ENDS
;	COMDAT pdata
pdata	SEGMENT
$pdata$??$_Idl_distance@PEAPEAUEntry@LT@@PEAPEAU12@@std@@YA@AEBQEAPEAUEntry@LT@@0@Z DD imagerel $LN3
	DD	imagerel $LN3+96
	DD	imagerel $unwind$??$_Idl_distance@PEAPEAUEntry@LT@@PEAPEAU12@@std@@YA@AEBQEAPEAUEntry@LT@@0@Z
pdata	ENDS
;	COMDAT pdata
pdata	SEGMENT
$pdata$??$_Get_unwrapped_n@AEAPEAPEAUEntry@LT@@_J@std@@YA@AEAPEAPEAUEntry@LT@@_J@Z DD imagerel $LN3
	DD	imagerel $LN3+79
	DD	imagerel $unwind$??$_Get_unwrapped_n@AEAPEAPEAUEntry@LT@@_J@std@@YA@AEAPEAPEAUEntry@LT@@_J@Z
pdata	ENDS
;	COMDAT pdata
pdata	SEGMENT
$pdata$??$_Copy_memmove@PEAPEAUEntry@LT@@PEAPEAU12@@std@@YAPEAPEAUEntry@LT@@PEAPEAU12@00@Z DD imagerel $LN3
	DD	imagerel $LN3+156
	DD	imagerel $unwind$??$_Copy_memmove@PEAPEAUEntry@LT@@PEAPEAU12@@std@@YAPEAPEAUEntry@LT@@PEAPEAU12@00@Z
pdata	ENDS
;	COMDAT pdata
pdata	SEGMENT
$pdata$??$_Seek_wrapped@PEAPEAUEntry@LT@@AEAPEAPEAU12@@std@@YAXAEAPEAPEAUEntry@LT@@0@Z DD imagerel $LN3
	DD	imagerel $LN3+89
	DD	imagerel $unwind$??$_Seek_wrapped@PEAPEAUEntry@LT@@AEAPEAPEAU12@@std@@YAXAEAPEAPEAUEntry@LT@@0@Z
pdata	ENDS
;	COMDAT pdata
pdata	SEGMENT
$pdata$??$_Zero_range@PEAPEAUEntry@LT@@@std@@YAPEAPEAUEntry@LT@@QEAPEAU12@0@Z DD imagerel $LN3
	DD	imagerel $LN3+126
	DD	imagerel $unwind$??$_Zero_range@PEAPEAUEntry@LT@@@std@@YAPEAPEAUEntry@LT@@QEAPEAU12@0@Z
pdata	ENDS
;	COMDAT pdata
pdata	SEGMENT
$pdata$??$_Verify_range@PEAUEntry@LT@@@std@@YAXQEBQEAUEntry@LT@@0@Z DD imagerel $LN12
	DD	imagerel $LN12+204
	DD	imagerel $unwind$??$_Verify_range@PEAUEntry@LT@@@std@@YAXQEBQEAUEntry@LT@@0@Z
pdata	ENDS
;	COMDAT rtc$TMZ
rtc$TMZ	SEGMENT
_RTC_Shutdown.rtc$TMZ DQ FLAT:_RTC_Shutdown
rtc$TMZ	ENDS
;	COMDAT rtc$IMZ
rtc$IMZ	SEGMENT
_RTC_InitBase.rtc$IMZ DQ FLAT:_RTC_InitBase
rtc$IMZ	ENDS
;	COMDAT ??_R1A@?0A@EA@bad_array_new_length@std@@8
rdata$r	SEGMENT
??_R1A@?0A@EA@bad_array_new_length@std@@8 DD imagerel ??_R0?AVbad_array_new_length@std@@@8 ; std::bad_array_new_length::`RTTI Base Class Descriptor at (0,-1,0,64)'
	DD	02H
	DD	00H
	DD	0ffffffffH
	DD	00H
	DD	040H
	DD	imagerel ??_R3bad_array_new_length@std@@8
rdata$r	ENDS
;	COMDAT ??_R2bad_array_new_length@std@@8
rdata$r	SEGMENT
??_R2bad_array_new_length@std@@8 DD imagerel ??_R1A@?0A@EA@bad_array_new_length@std@@8 ; std::bad_array_new_length::`RTTI Base Class Array'
	DD	imagerel ??_R1A@?0A@EA@bad_alloc@std@@8
	DD	imagerel ??_R1A@?0A@EA@exception@std@@8
	ORG $+3
rdata$r	ENDS
;	COMDAT ??_R3bad_array_new_length@std@@8
rdata$r	SEGMENT
??_R3bad_array_new_length@std@@8 DD 00H			; std::bad_array_new_length::`RTTI Class Hierarchy Descriptor'
	DD	00H
	DD	03H
	DD	imagerel ??_R2bad_array_new_length@std@@8
rdata$r	ENDS
;	COMDAT ??_R4bad_array_new_length@std@@6B@
rdata$r	SEGMENT
??_R4bad_array_new_length@std@@6B@ DD 01H		; std::bad_array_new_length::`RTTI Complete Object Locator'
	DD	00H
	DD	00H
	DD	imagerel ??_R0?AVbad_array_new_length@std@@@8
	DD	imagerel ??_R3bad_array_new_length@std@@8
	DD	imagerel ??_R4bad_array_new_length@std@@6B@
rdata$r	ENDS
;	COMDAT ??_R1A@?0A@EA@bad_alloc@std@@8
rdata$r	SEGMENT
??_R1A@?0A@EA@bad_alloc@std@@8 DD imagerel ??_R0?AVbad_alloc@std@@@8 ; std::bad_alloc::`RTTI Base Class Descriptor at (0,-1,0,64)'
	DD	01H
	DD	00H
	DD	0ffffffffH
	DD	00H
	DD	040H
	DD	imagerel ??_R3bad_alloc@std@@8
rdata$r	ENDS
;	COMDAT ??_R2bad_alloc@std@@8
rdata$r	SEGMENT
??_R2bad_alloc@std@@8 DD imagerel ??_R1A@?0A@EA@bad_alloc@std@@8 ; std::bad_alloc::`RTTI Base Class Array'
	DD	imagerel ??_R1A@?0A@EA@exception@std@@8
	ORG $+3
rdata$r	ENDS
;	COMDAT ??_R3bad_alloc@std@@8
rdata$r	SEGMENT
??_R3bad_alloc@std@@8 DD 00H				; std::bad_alloc::`RTTI Class Hierarchy Descriptor'
	DD	00H
	DD	02H
	DD	imagerel ??_R2bad_alloc@std@@8
rdata$r	ENDS
;	COMDAT ??_R4bad_alloc@std@@6B@
rdata$r	SEGMENT
??_R4bad_alloc@std@@6B@ DD 01H				; std::bad_alloc::`RTTI Complete Object Locator'
	DD	00H
	DD	00H
	DD	imagerel ??_R0?AVbad_alloc@std@@@8
	DD	imagerel ??_R3bad_alloc@std@@8
	DD	imagerel ??_R4bad_alloc@std@@6B@
rdata$r	ENDS
;	COMDAT ??_R1A@?0A@EA@exception@std@@8
rdata$r	SEGMENT
??_R1A@?0A@EA@exception@std@@8 DD imagerel ??_R0?AVexception@std@@@8 ; std::exception::`RTTI Base Class Descriptor at (0,-1,0,64)'
	DD	00H
	DD	00H
	DD	0ffffffffH
	DD	00H
	DD	040H
	DD	imagerel ??_R3exception@std@@8
rdata$r	ENDS
;	COMDAT ??_R2exception@std@@8
rdata$r	SEGMENT
??_R2exception@std@@8 DD imagerel ??_R1A@?0A@EA@exception@std@@8 ; std::exception::`RTTI Base Class Array'
	ORG $+3
rdata$r	ENDS
;	COMDAT ??_R3exception@std@@8
rdata$r	SEGMENT
??_R3exception@std@@8 DD 00H				; std::exception::`RTTI Class Hierarchy Descriptor'
	DD	00H
	DD	01H
	DD	imagerel ??_R2exception@std@@8
rdata$r	ENDS
;	COMDAT ??_R4exception@std@@6B@
rdata$r	SEGMENT
??_R4exception@std@@6B@ DD 01H				; std::exception::`RTTI Complete Object Locator'
	DD	00H
	DD	00H
	DD	imagerel ??_R0?AVexception@std@@@8
	DD	imagerel ??_R3exception@std@@8
	DD	imagerel ??_R4exception@std@@6B@
rdata$r	ENDS
;	COMDAT ??_C@_1EO@GFNCMDLA@?$AAs?$AAt?$AAd?$AA?3?$AA?3?$AA_?$AAA?$AAl?$AAl?$AAo?$AAc?$AAa?$AAt?$AAe?$AA_@
CONST	SEGMENT
??_C@_1EO@GFNCMDLA@?$AAs?$AAt?$AAd?$AA?3?$AA?3?$AA_?$AAA?$AAl?$AAl?$AAo?$AAc?$AAa?$AAt?$AAe?$AA_@ DB 's'
	DB	00H, 't', 00H, 'd', 00H, ':', 00H, ':', 00H, '_', 00H, 'A', 00H
	DB	'l', 00H, 'l', 00H, 'o', 00H, 'c', 00H, 'a', 00H, 't', 00H, 'e'
	DB	00H, '_', 00H, 'm', 00H, 'a', 00H, 'n', 00H, 'u', 00H, 'a', 00H
	DB	'l', 00H, 'l', 00H, 'y', 00H, '_', 00H, 'v', 00H, 'e', 00H, 'c'
	DB	00H, 't', 00H, 'o', 00H, 'r', 00H, '_', 00H, 'a', 00H, 'l', 00H
	DB	'i', 00H, 'g', 00H, 'n', 00H, 'e', 00H, 'd', 00H, 00H, 00H ; `string'
CONST	ENDS
;	COMDAT ??_C@_1DG@FJIKMGFD@?$AA?$CC?$AAt?$AAr?$AAa?$AAn?$AAs?$AAp?$AAo?$AAs?$AAe?$AAd?$AA?5?$AAp?$AAo?$AAi@
CONST	SEGMENT
??_C@_1DG@FJIKMGFD@?$AA?$CC?$AAt?$AAr?$AAa?$AAn?$AAs?$AAp?$AAo?$AAs?$AAe?$AAd?$AA?5?$AAp?$AAo?$AAi@ DB '"'
	DB	00H, 't', 00H, 'r', 00H, 'a', 00H, 'n', 00H, 's', 00H, 'p', 00H
	DB	'o', 00H, 's', 00H, 'e', 00H, 'd', 00H, ' ', 00H, 'p', 00H, 'o'
	DB	00H, 'i', 00H, 'n', 00H, 't', 00H, 'e', 00H, 'r', 00H, ' ', 00H
	DB	'r', 00H, 'a', 00H, 'n', 00H, 'g', 00H, 'e', 00H, '"', 00H, 00H
	DB	00H						; `string'
CONST	ENDS
;	COMDAT ??_C@_1CG@LJCPDKEJ@?$AAs?$AAt?$AAd?$AA?3?$AA?3?$AA_?$AAV?$AAe?$AAr?$AAi?$AAf?$AAy?$AA_?$AAr?$AAa@
CONST	SEGMENT
??_C@_1CG@LJCPDKEJ@?$AAs?$AAt?$AAd?$AA?3?$AA?3?$AA_?$AAV?$AAe?$AAr?$AAi?$AAf?$AAy?$AA_?$AAr?$AAa@ DB 's'
	DB	00H, 't', 00H, 'd', 00H, ':', 00H, ':', 00H, '_', 00H, 'V', 00H
	DB	'e', 00H, 'r', 00H, 'i', 00H, 'f', 00H, 'y', 00H, '_', 00H, 'r'
	DB	00H, 'a', 00H, 'n', 00H, 'g', 00H, 'e', 00H, 00H, 00H ; `string'
CONST	ENDS
;	COMDAT ??_C@_1NE@NLDHILHB@?$AAC?$AA?3?$AA?2?$AAP?$AAr?$AAo?$AAg?$AAr?$AAa?$AAm?$AA?5?$AAF?$AAi?$AAl?$AAe@
CONST	SEGMENT
??_C@_1NE@NLDHILHB@?$AAC?$AA?3?$AA?2?$AAP?$AAr?$AAo?$AAg?$AAr?$AAa?$AAm?$AA?5?$AAF?$AAi?$AAl?$AAe@ DB 'C'
	DB	00H, ':', 00H, '\', 00H, 'P', 00H, 'r', 00H, 'o', 00H, 'g', 00H
	DB	'r', 00H, 'a', 00H, 'm', 00H, ' ', 00H, 'F', 00H, 'i', 00H, 'l'
	DB	00H, 'e', 00H, 's', 00H, ' ', 00H, '(', 00H, 'x', 00H, '8', 00H
	DB	'6', 00H, ')', 00H, '\', 00H, 'M', 00H, 'i', 00H, 'c', 00H, 'r'
	DB	00H, 'o', 00H, 's', 00H, 'o', 00H, 'f', 00H, 't', 00H, ' ', 00H
	DB	'V', 00H, 'i', 00H, 's', 00H, 'u', 00H, 'a', 00H, 'l', 00H, ' '
	DB	00H, 'S', 00H, 't', 00H, 'u', 00H, 'd', 00H, 'i', 00H, 'o', 00H
	DB	'\', 00H, '2', 00H, '0', 00H, '1', 00H, '9', 00H, '\', 00H, 'E'
	DB	00H, 'n', 00H, 't', 00H, 'e', 00H, 'r', 00H, 'p', 00H, 'r', 00H
	DB	'i', 00H, 's', 00H, 'e', 00H, '\', 00H, 'V', 00H, 'C', 00H, '\'
	DB	00H, 'T', 00H, 'o', 00H, 'o', 00H, 'l', 00H, 's', 00H, '\', 00H
	DB	'M', 00H, 'S', 00H, 'V', 00H, 'C', 00H, '\', 00H, '1', 00H, '4'
	DB	00H, '.', 00H, '2', 00H, '7', 00H, '.', 00H, '2', 00H, '9', 00H
	DB	'1', 00H, '1', 00H, '0', 00H, '\', 00H, 'i', 00H, 'n', 00H, 'c'
	DB	00H, 'l', 00H, 'u', 00H, 'd', 00H, 'e', 00H, '\', 00H, 'x', 00H
	DB	'u', 00H, 't', 00H, 'i', 00H, 'l', 00H, 'i', 00H, 't', 00H, 'y'
	DB	00H, 00H, 00H				; `string'
CONST	ENDS
;	COMDAT ??_C@_0GK@OHAIDBEA@C?3?2Program?5Files?5?$CIx86?$CJ?2Microsof@
CONST	SEGMENT
??_C@_0GK@OHAIDBEA@C?3?2Program?5Files?5?$CIx86?$CJ?2Microsof@ DB 'C:\Pro'
	DB	'gram Files (x86)\Microsoft Visual Studio\2019\Enterprise\VC\T'
	DB	'ools\MSVC\14.27.29110\include\xutility', 00H ; `string'
CONST	ENDS
;	COMDAT ??_C@_0BJ@HAJGEHKO@transposed?5pointer?5range@
CONST	SEGMENT
??_C@_0BJ@HAJGEHKO@transposed?5pointer?5range@ DB 'transposed pointer ran'
	DB	'ge', 00H					; `string'
CONST	ENDS
;	COMDAT ??_C@_0BC@KBDMBKEH@deque?$DMT?$DO?5too?5long@
CONST	SEGMENT
??_C@_0BC@KBDMBKEH@deque?$DMT?$DO?5too?5long@ DB 'deque<T> too long', 00H ; `string'
CONST	ENDS
;	COMDAT ??_C@_0O@NKNMEGII@list?5too?5long@
CONST	SEGMENT
??_C@_0O@NKNMEGII@list?5too?5long@ DB 'list too long', 00H ; `string'
CONST	ENDS
;	COMDAT ??_C@_1BK@MHIKGOKE@?$AA?3?$AAA?$AAM?$AA?3?$AAa?$AAm?$AA?3?$AAP?$AAM?$AA?3?$AAp?$AAm@
CONST	SEGMENT
??_C@_1BK@MHIKGOKE@?$AA?3?$AAA?$AAM?$AA?3?$AAa?$AAm?$AA?3?$AAP?$AAM?$AA?3?$AAp?$AAm@ DB ':'
	DB	00H, 'A', 00H, 'M', 00H, ':', 00H, 'a', 00H, 'm', 00H, ':', 00H
	DB	'P', 00H, 'M', 00H, ':', 00H, 'p', 00H, 'm', 00H, 00H, 00H ; `string'
CONST	ENDS
;	COMDAT ??_C@_1DO@OOAHKDGC@?$AA?$CC?$AAb?$AAa?$AAc?$AAk?$AA?$CI?$AA?$CJ?$AA?5?$AAc?$AAa?$AAl?$AAl?$AAe?$AAd?$AA?5@
CONST	SEGMENT
??_C@_1DO@OOAHKDGC@?$AA?$CC?$AAb?$AAa?$AAc?$AAk?$AA?$CI?$AA?$CJ?$AA?5?$AAc?$AAa?$AAl?$AAl?$AAe?$AAd?$AA?5@ DB '"'
	DB	00H, 'b', 00H, 'a', 00H, 'c', 00H, 'k', 00H, '(', 00H, ')', 00H
	DB	' ', 00H, 'c', 00H, 'a', 00H, 'l', 00H, 'l', 00H, 'e', 00H, 'd'
	DB	00H, ' ', 00H, 'o', 00H, 'n', 00H, ' ', 00H, 'e', 00H, 'm', 00H
	DB	'p', 00H, 't', 00H, 'y', 00H, ' ', 00H, 'd', 00H, 'e', 00H, 'q'
	DB	00H, 'u', 00H, 'e', 00H, '"', 00H, 00H, 00H	; `string'
CONST	ENDS
;	COMDAT ??_C@_1JG@JOJHPKLP@?$AAs?$AAt?$AAd?$AA?3?$AA?3?$AAd?$AAe?$AAq?$AAu?$AAe?$AA?$DM?$AAs?$AAt?$AAr?$AAu@
CONST	SEGMENT
??_C@_1JG@JOJHPKLP@?$AAs?$AAt?$AAd?$AA?3?$AA?3?$AAd?$AAe?$AAq?$AAu?$AAe?$AA?$DM?$AAs?$AAt?$AAr?$AAu@ DB 's'
	DB	00H, 't', 00H, 'd', 00H, ':', 00H, ':', 00H, 'd', 00H, 'e', 00H
	DB	'q', 00H, 'u', 00H, 'e', 00H, '<', 00H, 's', 00H, 't', 00H, 'r'
	DB	00H, 'u', 00H, 'c', 00H, 't', 00H, ' ', 00H, 'L', 00H, 'T', 00H
	DB	':', 00H, ':', 00H, 'E', 00H, 'n', 00H, 't', 00H, 'r', 00H, 'y'
	DB	00H, ',', 00H, 'c', 00H, 'l', 00H, 'a', 00H, 's', 00H, 's', 00H
	DB	' ', 00H, 's', 00H, 't', 00H, 'd', 00H, ':', 00H, ':', 00H, 'a'
	DB	00H, 'l', 00H, 'l', 00H, 'o', 00H, 'c', 00H, 'a', 00H, 't', 00H
	DB	'o', 00H, 'r', 00H, '<', 00H, 's', 00H, 't', 00H, 'r', 00H, 'u'
	DB	00H, 'c', 00H, 't', 00H, ' ', 00H, 'L', 00H, 'T', 00H, ':', 00H
	DB	':', 00H, 'E', 00H, 'n', 00H, 't', 00H, 'r', 00H, 'y', 00H, '>'
	DB	00H, ' ', 00H, '>', 00H, ':', 00H, ':', 00H, 'b', 00H, 'a', 00H
	DB	'c', 00H, 'k', 00H, 00H, 00H			; `string'
CONST	ENDS
;	COMDAT ??_C@_0BN@OLMACEKN@back?$CI?$CJ?5called?5on?5empty?5deque@
CONST	SEGMENT
??_C@_0BN@OLMACEKN@back?$CI?$CJ?5called?5on?5empty?5deque@ DB 'back() cal'
	DB	'led on empty deque', 00H			; `string'
CONST	ENDS
;	COMDAT ??_C@_1DC@NJAACHCD@?$AA?$CC?$AAd?$AAe?$AAq?$AAu?$AAe?$AA?5?$AAe?$AAm?$AAp?$AAt?$AAy?$AA?5?$AAb?$AAe@
CONST	SEGMENT
??_C@_1DC@NJAACHCD@?$AA?$CC?$AAd?$AAe?$AAq?$AAu?$AAe?$AA?5?$AAe?$AAm?$AAp?$AAt?$AAy?$AA?5?$AAb?$AAe@ DB '"'
	DB	00H, 'd', 00H, 'e', 00H, 'q', 00H, 'u', 00H, 'e', 00H, ' ', 00H
	DB	'e', 00H, 'm', 00H, 'p', 00H, 't', 00H, 'y', 00H, ' ', 00H, 'b'
	DB	00H, 'e', 00H, 'f', 00H, 'o', 00H, 'r', 00H, 'e', 00H, ' ', 00H
	DB	'p', 00H, 'o', 00H, 'p', 00H, '"', 00H, 00H, 00H ; `string'
CONST	ENDS
;	COMDAT ??_C@_1JO@MJALCHE@?$AAs?$AAt?$AAd?$AA?3?$AA?3?$AAd?$AAe?$AAq?$AAu?$AAe?$AA?$DM?$AAs?$AAt?$AAr?$AAu@
CONST	SEGMENT
??_C@_1JO@MJALCHE@?$AAs?$AAt?$AAd?$AA?3?$AA?3?$AAd?$AAe?$AAq?$AAu?$AAe?$AA?$DM?$AAs?$AAt?$AAr?$AAu@ DB 's'
	DB	00H, 't', 00H, 'd', 00H, ':', 00H, ':', 00H, 'd', 00H, 'e', 00H
	DB	'q', 00H, 'u', 00H, 'e', 00H, '<', 00H, 's', 00H, 't', 00H, 'r'
	DB	00H, 'u', 00H, 'c', 00H, 't', 00H, ' ', 00H, 'L', 00H, 'T', 00H
	DB	':', 00H, ':', 00H, 'E', 00H, 'n', 00H, 't', 00H, 'r', 00H, 'y'
	DB	00H, ',', 00H, 'c', 00H, 'l', 00H, 'a', 00H, 's', 00H, 's', 00H
	DB	' ', 00H, 's', 00H, 't', 00H, 'd', 00H, ':', 00H, ':', 00H, 'a'
	DB	00H, 'l', 00H, 'l', 00H, 'o', 00H, 'c', 00H, 'a', 00H, 't', 00H
	DB	'o', 00H, 'r', 00H, '<', 00H, 's', 00H, 't', 00H, 'r', 00H, 'u'
	DB	00H, 'c', 00H, 't', 00H, ' ', 00H, 'L', 00H, 'T', 00H, ':', 00H
	DB	':', 00H, 'E', 00H, 'n', 00H, 't', 00H, 'r', 00H, 'y', 00H, '>'
	DB	00H, ' ', 00H, '>', 00H, ':', 00H, ':', 00H, 'p', 00H, 'o', 00H
	DB	'p', 00H, '_', 00H, 'b', 00H, 'a', 00H, 'c', 00H, 'k', 00H, 00H
	DB	00H						; `string'
CONST	ENDS
;	COMDAT ??_C@_1MO@ONLEFNNG@?$AAC?$AA?3?$AA?2?$AAP?$AAr?$AAo?$AAg?$AAr?$AAa?$AAm?$AA?5?$AAF?$AAi?$AAl?$AAe@
CONST	SEGMENT
??_C@_1MO@ONLEFNNG@?$AAC?$AA?3?$AA?2?$AAP?$AAr?$AAo?$AAg?$AAr?$AAa?$AAm?$AA?5?$AAF?$AAi?$AAl?$AAe@ DB 'C'
	DB	00H, ':', 00H, '\', 00H, 'P', 00H, 'r', 00H, 'o', 00H, 'g', 00H
	DB	'r', 00H, 'a', 00H, 'm', 00H, ' ', 00H, 'F', 00H, 'i', 00H, 'l'
	DB	00H, 'e', 00H, 's', 00H, ' ', 00H, '(', 00H, 'x', 00H, '8', 00H
	DB	'6', 00H, ')', 00H, '\', 00H, 'M', 00H, 'i', 00H, 'c', 00H, 'r'
	DB	00H, 'o', 00H, 's', 00H, 'o', 00H, 'f', 00H, 't', 00H, ' ', 00H
	DB	'V', 00H, 'i', 00H, 's', 00H, 'u', 00H, 'a', 00H, 'l', 00H, ' '
	DB	00H, 'S', 00H, 't', 00H, 'u', 00H, 'd', 00H, 'i', 00H, 'o', 00H
	DB	'\', 00H, '2', 00H, '0', 00H, '1', 00H, '9', 00H, '\', 00H, 'E'
	DB	00H, 'n', 00H, 't', 00H, 'e', 00H, 'r', 00H, 'p', 00H, 'r', 00H
	DB	'i', 00H, 's', 00H, 'e', 00H, '\', 00H, 'V', 00H, 'C', 00H, '\'
	DB	00H, 'T', 00H, 'o', 00H, 'o', 00H, 'l', 00H, 's', 00H, '\', 00H
	DB	'M', 00H, 'S', 00H, 'V', 00H, 'C', 00H, '\', 00H, '1', 00H, '4'
	DB	00H, '.', 00H, '2', 00H, '7', 00H, '.', 00H, '2', 00H, '9', 00H
	DB	'1', 00H, '1', 00H, '0', 00H, '\', 00H, 'i', 00H, 'n', 00H, 'c'
	DB	00H, 'l', 00H, 'u', 00H, 'd', 00H, 'e', 00H, '\', 00H, 'd', 00H
	DB	'e', 00H, 'q', 00H, 'u', 00H, 'e', 00H, 00H, 00H ; `string'
CONST	ENDS
;	COMDAT ??_C@_0GH@OBALDB@C?3?2Program?5Files?5?$CIx86?$CJ?2Microsof@
CONST	SEGMENT
??_C@_0GH@OBALDB@C?3?2Program?5Files?5?$CIx86?$CJ?2Microsof@ DB 'C:\Progr'
	DB	'am Files (x86)\Microsoft Visual Studio\2019\Enterprise\VC\Too'
	DB	'ls\MSVC\14.27.29110\include\deque', 00H	; `string'
CONST	ENDS
;	COMDAT ??_C@_0BH@EDKEEENI@deque?5empty?5before?5pop@
CONST	SEGMENT
??_C@_0BH@EDKEEENI@deque?5empty?5before?5pop@ DB 'deque empty before pop', 00H ; `string'
CONST	ENDS
;	COMDAT ??_C@_0N@LPFKKEBD@?3AM?3am?3PM?3pm@
CONST	SEGMENT
??_C@_0N@LPFKKEBD@?3AM?3am?3PM?3pm@ DB ':AM:am:PM:pm', 00H ; `string'
CONST	ENDS
;	COMDAT ??_C@_1DO@HIOMABHK@?$AA?$CC?$AAf?$AAr?$AAo?$AAn?$AAt?$AA?$CI?$AA?$CJ?$AA?5?$AAc?$AAa?$AAl?$AAl?$AAe?$AAd@
CONST	SEGMENT
??_C@_1DO@HIOMABHK@?$AA?$CC?$AAf?$AAr?$AAo?$AAn?$AAt?$AA?$CI?$AA?$CJ?$AA?5?$AAc?$AAa?$AAl?$AAl?$AAe?$AAd@ DB '"'
	DB	00H, 'f', 00H, 'r', 00H, 'o', 00H, 'n', 00H, 't', 00H, '(', 00H
	DB	')', 00H, ' ', 00H, 'c', 00H, 'a', 00H, 'l', 00H, 'l', 00H, 'e'
	DB	00H, 'd', 00H, ' ', 00H, 'o', 00H, 'n', 00H, ' ', 00H, 'e', 00H
	DB	'm', 00H, 'p', 00H, 't', 00H, 'y', 00H, ' ', 00H, 'l', 00H, 'i'
	DB	00H, 's', 00H, 't', 00H, '"', 00H, 00H, 00H	; `string'
CONST	ENDS
;	COMDAT ??_C@_1JG@CLHEJMNG@?$AAs?$AAt?$AAd?$AA?3?$AA?3?$AAl?$AAi?$AAs?$AAt?$AA?$DM?$AAs?$AAt?$AAr?$AAu?$AAc@
CONST	SEGMENT
??_C@_1JG@CLHEJMNG@?$AAs?$AAt?$AAd?$AA?3?$AA?3?$AAl?$AAi?$AAs?$AAt?$AA?$DM?$AAs?$AAt?$AAr?$AAu?$AAc@ DB 's'
	DB	00H, 't', 00H, 'd', 00H, ':', 00H, ':', 00H, 'l', 00H, 'i', 00H
	DB	's', 00H, 't', 00H, '<', 00H, 's', 00H, 't', 00H, 'r', 00H, 'u'
	DB	00H, 'c', 00H, 't', 00H, ' ', 00H, 'L', 00H, 'T', 00H, ':', 00H
	DB	':', 00H, 'E', 00H, 'n', 00H, 't', 00H, 'r', 00H, 'y', 00H, ','
	DB	00H, 'c', 00H, 'l', 00H, 'a', 00H, 's', 00H, 's', 00H, ' ', 00H
	DB	's', 00H, 't', 00H, 'd', 00H, ':', 00H, ':', 00H, 'a', 00H, 'l'
	DB	00H, 'l', 00H, 'o', 00H, 'c', 00H, 'a', 00H, 't', 00H, 'o', 00H
	DB	'r', 00H, '<', 00H, 's', 00H, 't', 00H, 'r', 00H, 'u', 00H, 'c'
	DB	00H, 't', 00H, ' ', 00H, 'L', 00H, 'T', 00H, ':', 00H, ':', 00H
	DB	'E', 00H, 'n', 00H, 't', 00H, 'r', 00H, 'y', 00H, '>', 00H, ' '
	DB	00H, '>', 00H, ':', 00H, ':', 00H, 'f', 00H, 'r', 00H, 'o', 00H
	DB	'n', 00H, 't', 00H, 00H, 00H			; `string'
CONST	ENDS
;	COMDAT ??_C@_0BN@GOIPFJJH@front?$CI?$CJ?5called?5on?5empty?5list@
CONST	SEGMENT
??_C@_0BN@GOIPFJJH@front?$CI?$CJ?5called?5on?5empty?5list@ DB 'front() ca'
	DB	'lled on empty list', 00H			; `string'
CONST	ENDS
;	COMDAT ??_C@_1EC@POEKFLJM@?$AA?$CC?$AAp?$AAo?$AAp?$AA_?$AAf?$AAr?$AAo?$AAn?$AAt?$AA?5?$AAc?$AAa?$AAl?$AAl@
CONST	SEGMENT
??_C@_1EC@POEKFLJM@?$AA?$CC?$AAp?$AAo?$AAp?$AA_?$AAf?$AAr?$AAo?$AAn?$AAt?$AA?5?$AAc?$AAa?$AAl?$AAl@ DB '"'
	DB	00H, 'p', 00H, 'o', 00H, 'p', 00H, '_', 00H, 'f', 00H, 'r', 00H
	DB	'o', 00H, 'n', 00H, 't', 00H, ' ', 00H, 'c', 00H, 'a', 00H, 'l'
	DB	00H, 'l', 00H, 'e', 00H, 'd', 00H, ' ', 00H, 'o', 00H, 'n', 00H
	DB	' ', 00H, 'e', 00H, 'm', 00H, 'p', 00H, 't', 00H, 'y', 00H, ' '
	DB	00H, 'l', 00H, 'i', 00H, 's', 00H, 't', 00H, '"', 00H, 00H, 00H ; `string'
CONST	ENDS
;	COMDAT ??_C@_1JO@OELGKGEE@?$AAs?$AAt?$AAd?$AA?3?$AA?3?$AAl?$AAi?$AAs?$AAt?$AA?$DM?$AAs?$AAt?$AAr?$AAu?$AAc@
CONST	SEGMENT
??_C@_1JO@OELGKGEE@?$AAs?$AAt?$AAd?$AA?3?$AA?3?$AAl?$AAi?$AAs?$AAt?$AA?$DM?$AAs?$AAt?$AAr?$AAu?$AAc@ DB 's'
	DB	00H, 't', 00H, 'd', 00H, ':', 00H, ':', 00H, 'l', 00H, 'i', 00H
	DB	's', 00H, 't', 00H, '<', 00H, 's', 00H, 't', 00H, 'r', 00H, 'u'
	DB	00H, 'c', 00H, 't', 00H, ' ', 00H, 'L', 00H, 'T', 00H, ':', 00H
	DB	':', 00H, 'E', 00H, 'n', 00H, 't', 00H, 'r', 00H, 'y', 00H, ','
	DB	00H, 'c', 00H, 'l', 00H, 'a', 00H, 's', 00H, 's', 00H, ' ', 00H
	DB	's', 00H, 't', 00H, 'd', 00H, ':', 00H, ':', 00H, 'a', 00H, 'l'
	DB	00H, 'l', 00H, 'o', 00H, 'c', 00H, 'a', 00H, 't', 00H, 'o', 00H
	DB	'r', 00H, '<', 00H, 's', 00H, 't', 00H, 'r', 00H, 'u', 00H, 'c'
	DB	00H, 't', 00H, ' ', 00H, 'L', 00H, 'T', 00H, ':', 00H, ':', 00H
	DB	'E', 00H, 'n', 00H, 't', 00H, 'r', 00H, 'y', 00H, '>', 00H, ' '
	DB	00H, '>', 00H, ':', 00H, ':', 00H, 'p', 00H, 'o', 00H, 'p', 00H
	DB	'_', 00H, 'f', 00H, 'r', 00H, 'o', 00H, 'n', 00H, 't', 00H, 00H
	DB	00H						; `string'
CONST	ENDS
;	COMDAT ??_C@_1MM@MBGLLEPM@?$AAC?$AA?3?$AA?2?$AAP?$AAr?$AAo?$AAg?$AAr?$AAa?$AAm?$AA?5?$AAF?$AAi?$AAl?$AAe@
CONST	SEGMENT
??_C@_1MM@MBGLLEPM@?$AAC?$AA?3?$AA?2?$AAP?$AAr?$AAo?$AAg?$AAr?$AAa?$AAm?$AA?5?$AAF?$AAi?$AAl?$AAe@ DB 'C'
	DB	00H, ':', 00H, '\', 00H, 'P', 00H, 'r', 00H, 'o', 00H, 'g', 00H
	DB	'r', 00H, 'a', 00H, 'm', 00H, ' ', 00H, 'F', 00H, 'i', 00H, 'l'
	DB	00H, 'e', 00H, 's', 00H, ' ', 00H, '(', 00H, 'x', 00H, '8', 00H
	DB	'6', 00H, ')', 00H, '\', 00H, 'M', 00H, 'i', 00H, 'c', 00H, 'r'
	DB	00H, 'o', 00H, 's', 00H, 'o', 00H, 'f', 00H, 't', 00H, ' ', 00H
	DB	'V', 00H, 'i', 00H, 's', 00H, 'u', 00H, 'a', 00H, 'l', 00H, ' '
	DB	00H, 'S', 00H, 't', 00H, 'u', 00H, 'd', 00H, 'i', 00H, 'o', 00H
	DB	'\', 00H, '2', 00H, '0', 00H, '1', 00H, '9', 00H, '\', 00H, 'E'
	DB	00H, 'n', 00H, 't', 00H, 'e', 00H, 'r', 00H, 'p', 00H, 'r', 00H
	DB	'i', 00H, 's', 00H, 'e', 00H, '\', 00H, 'V', 00H, 'C', 00H, '\'
	DB	00H, 'T', 00H, 'o', 00H, 'o', 00H, 'l', 00H, 's', 00H, '\', 00H
	DB	'M', 00H, 'S', 00H, 'V', 00H, 'C', 00H, '\', 00H, '1', 00H, '4'
	DB	00H, '.', 00H, '2', 00H, '7', 00H, '.', 00H, '2', 00H, '9', 00H
	DB	'1', 00H, '1', 00H, '0', 00H, '\', 00H, 'i', 00H, 'n', 00H, 'c'
	DB	00H, 'l', 00H, 'u', 00H, 'd', 00H, 'e', 00H, '\', 00H, 'l', 00H
	DB	'i', 00H, 's', 00H, 't', 00H, 00H, 00H	; `string'
CONST	ENDS
;	COMDAT ??_C@_0GG@LMOKLFIB@C?3?2Program?5Files?5?$CIx86?$CJ?2Microsof@
CONST	SEGMENT
??_C@_0GG@LMOKLFIB@C?3?2Program?5Files?5?$CIx86?$CJ?2Microsof@ DB 'C:\Pro'
	DB	'gram Files (x86)\Microsoft Visual Studio\2019\Enterprise\VC\T'
	DB	'ools\MSVC\14.27.29110\include\list', 00H	; `string'
CONST	ENDS
;	COMDAT ??_C@_0BP@IEHBKPNI@pop_front?5called?5on?5empty?5list@
CONST	SEGMENT
??_C@_0BP@IEHBKPNI@pop_front?5called?5on?5empty?5list@ DB 'pop_front call'
	DB	'ed on empty list', 00H			; `string'
CONST	ENDS
;	COMDAT ??_C@_0GJ@GMBHIGPF@C?3?2Program?5Files?5?$CIx86?$CJ?2Microsof@
CONST	SEGMENT
??_C@_0GJ@GMBHIGPF@C?3?2Program?5Files?5?$CIx86?$CJ?2Microsof@ DB 'C:\Pro'
	DB	'gram Files (x86)\Microsoft Visual Studio\2019\Enterprise\VC\T'
	DB	'ools\MSVC\14.27.29110\include\xlocnum', 00H	; `string'
CONST	ENDS
;	COMDAT ?__LINE__Var@?0??_Maklocwcs@std@@YAPEA_WPEB_W@Z@4JA
_DATA	SEGMENT
?__LINE__Var@?0??_Maklocwcs@std@@YAPEA_WPEB_W@Z@4JA DD 05aH ; `std::_Maklocwcs'::`1'::__LINE__Var
_DATA	ENDS
;	COMDAT ??_C@_0GJ@OPFKIEFE@C?3?2Program?5Files?5?$CIx86?$CJ?2Microsof@
CONST	SEGMENT
??_C@_0GJ@OPFKIEFE@C?3?2Program?5Files?5?$CIx86?$CJ?2Microsof@ DB 'C:\Pro'
	DB	'gram Files (x86)\Microsoft Visual Studio\2019\Enterprise\VC\T'
	DB	'ools\MSVC\14.27.29110\include\xlocale', 00H	; `string'
CONST	ENDS
;	COMDAT ??_C@_1CG@JNLFBNGN@?$AA?$CC?$AAi?$AAn?$AAv?$AAa?$AAl?$AAi?$AAd?$AA?5?$AAa?$AAr?$AAg?$AAu?$AAm?$AAe@
CONST	SEGMENT
??_C@_1CG@JNLFBNGN@?$AA?$CC?$AAi?$AAn?$AAv?$AAa?$AAl?$AAi?$AAd?$AA?5?$AAa?$AAr?$AAg?$AAu?$AAm?$AAe@ DB '"'
	DB	00H, 'i', 00H, 'n', 00H, 'v', 00H, 'a', 00H, 'l', 00H, 'i', 00H
	DB	'd', 00H, ' ', 00H, 'a', 00H, 'r', 00H, 'g', 00H, 'u', 00H, 'm'
	DB	00H, 'e', 00H, 'n', 00H, 't', 00H, '"', 00H, 00H, 00H ; `string'
CONST	ENDS
;	COMDAT ??_C@_1EK@NIFDJFDG@?$AAs?$AAt?$AAd?$AA?3?$AA?3?$AA_?$AAA?$AAd?$AAj?$AAu?$AAs?$AAt?$AA_?$AAm?$AAa@
CONST	SEGMENT
??_C@_1EK@NIFDJFDG@?$AAs?$AAt?$AAd?$AA?3?$AA?3?$AA_?$AAA?$AAd?$AAj?$AAu?$AAs?$AAt?$AA_?$AAm?$AAa@ DB 's'
	DB	00H, 't', 00H, 'd', 00H, ':', 00H, ':', 00H, '_', 00H, 'A', 00H
	DB	'd', 00H, 'j', 00H, 'u', 00H, 's', 00H, 't', 00H, '_', 00H, 'm'
	DB	00H, 'a', 00H, 'n', 00H, 'u', 00H, 'a', 00H, 'l', 00H, 'l', 00H
	DB	'y', 00H, '_', 00H, 'v', 00H, 'e', 00H, 'c', 00H, 't', 00H, 'o'
	DB	00H, 'r', 00H, '_', 00H, 'a', 00H, 'l', 00H, 'i', 00H, 'g', 00H
	DB	'n', 00H, 'e', 00H, 'd', 00H, 00H, 00H	; `string'
CONST	ENDS
;	COMDAT ??_C@_1NC@LBGPBFDE@?$AAC?$AA?3?$AA?2?$AAP?$AAr?$AAo?$AAg?$AAr?$AAa?$AAm?$AA?5?$AAF?$AAi?$AAl?$AAe@
CONST	SEGMENT
??_C@_1NC@LBGPBFDE@?$AAC?$AA?3?$AA?2?$AAP?$AAr?$AAo?$AAg?$AAr?$AAa?$AAm?$AA?5?$AAF?$AAi?$AAl?$AAe@ DB 'C'
	DB	00H, ':', 00H, '\', 00H, 'P', 00H, 'r', 00H, 'o', 00H, 'g', 00H
	DB	'r', 00H, 'a', 00H, 'm', 00H, ' ', 00H, 'F', 00H, 'i', 00H, 'l'
	DB	00H, 'e', 00H, 's', 00H, ' ', 00H, '(', 00H, 'x', 00H, '8', 00H
	DB	'6', 00H, ')', 00H, '\', 00H, 'M', 00H, 'i', 00H, 'c', 00H, 'r'
	DB	00H, 'o', 00H, 's', 00H, 'o', 00H, 'f', 00H, 't', 00H, ' ', 00H
	DB	'V', 00H, 'i', 00H, 's', 00H, 'u', 00H, 'a', 00H, 'l', 00H, ' '
	DB	00H, 'S', 00H, 't', 00H, 'u', 00H, 'd', 00H, 'i', 00H, 'o', 00H
	DB	'\', 00H, '2', 00H, '0', 00H, '1', 00H, '9', 00H, '\', 00H, 'E'
	DB	00H, 'n', 00H, 't', 00H, 'e', 00H, 'r', 00H, 'p', 00H, 'r', 00H
	DB	'i', 00H, 's', 00H, 'e', 00H, '\', 00H, 'V', 00H, 'C', 00H, '\'
	DB	00H, 'T', 00H, 'o', 00H, 'o', 00H, 'l', 00H, 's', 00H, '\', 00H
	DB	'M', 00H, 'S', 00H, 'V', 00H, 'C', 00H, '\', 00H, '1', 00H, '4'
	DB	00H, '.', 00H, '2', 00H, '7', 00H, '.', 00H, '2', 00H, '9', 00H
	DB	'1', 00H, '1', 00H, '0', 00H, '\', 00H, 'i', 00H, 'n', 00H, 'c'
	DB	00H, 'l', 00H, 'u', 00H, 'd', 00H, 'e', 00H, '\', 00H, 'x', 00H
	DB	'm', 00H, 'e', 00H, 'm', 00H, 'o', 00H, 'r', 00H, 'y', 00H, 00H
	DB	00H						; `string'
CONST	ENDS
;	COMDAT ??_C@_0GJ@EHJGLGPD@C?3?2Program?5Files?5?$CIx86?$CJ?2Microsof@
CONST	SEGMENT
??_C@_0GJ@EHJGLGPD@C?3?2Program?5Files?5?$CIx86?$CJ?2Microsof@ DB 'C:\Pro'
	DB	'gram Files (x86)\Microsoft Visual Studio\2019\Enterprise\VC\T'
	DB	'ools\MSVC\14.27.29110\include\xmemory', 00H	; `string'
CONST	ENDS
;	COMDAT ??_C@_02DKCKIIND@?$CFs@
CONST	SEGMENT
??_C@_02DKCKIIND@?$CFs@ DB '%s', 00H			; `string'
CONST	ENDS
;	COMDAT ??_C@_0BB@FCMFBGOM@invalid?5argument@
CONST	SEGMENT
??_C@_0BB@FCMFBGOM@invalid?5argument@ DB 'invalid argument', 00H ; `string'
CONST	ENDS
;	COMDAT ?__LINE__Var@?0??_Adjust_manually_vector_aligned@std@@YAXAEAPEAXAEA_K@Z@4JA
_DATA	SEGMENT
?__LINE__Var@?0??_Adjust_manually_vector_aligned@std@@YAXAEAPEAXAEA_K@Z@4JA DD 084H ; `std::_Adjust_manually_vector_aligned'::`1'::__LINE__Var
_DATA	ENDS
;	COMDAT _CT??_R0?AVexception@std@@@8??0exception@std@@QEAA@AEBV01@@Z24
xdata$x	SEGMENT
_CT??_R0?AVexception@std@@@8??0exception@std@@QEAA@AEBV01@@Z24 DD 00H
	DD	imagerel ??_R0?AVexception@std@@@8
	DD	00H
	DD	0ffffffffH
	ORG $+4
	DD	018H
	DD	imagerel ??0exception@std@@QEAA@AEBV01@@Z
xdata$x	ENDS
;	COMDAT ??_R0?AVexception@std@@@8
data$r	SEGMENT
??_R0?AVexception@std@@@8 DQ FLAT:??_7type_info@@6B@	; std::exception `RTTI Type Descriptor'
	DQ	0000000000000000H
	DB	'.?AVexception@std@@', 00H
data$r	ENDS
;	COMDAT _CT??_R0?AVbad_alloc@std@@@8??0bad_alloc@std@@QEAA@AEBV01@@Z24
xdata$x	SEGMENT
_CT??_R0?AVbad_alloc@std@@@8??0bad_alloc@std@@QEAA@AEBV01@@Z24 DD 010H
	DD	imagerel ??_R0?AVbad_alloc@std@@@8
	DD	00H
	DD	0ffffffffH
	ORG $+4
	DD	018H
	DD	imagerel ??0bad_alloc@std@@QEAA@AEBV01@@Z
xdata$x	ENDS
;	COMDAT ??_R0?AVbad_alloc@std@@@8
data$r	SEGMENT
??_R0?AVbad_alloc@std@@@8 DQ FLAT:??_7type_info@@6B@	; std::bad_alloc `RTTI Type Descriptor'
	DQ	0000000000000000H
	DB	'.?AVbad_alloc@std@@', 00H
data$r	ENDS
;	COMDAT _CT??_R0?AVbad_array_new_length@std@@@8??0bad_array_new_length@std@@QEAA@AEBV01@@Z24
xdata$x	SEGMENT
_CT??_R0?AVbad_array_new_length@std@@@8??0bad_array_new_length@std@@QEAA@AEBV01@@Z24 DD 00H
	DD	imagerel ??_R0?AVbad_array_new_length@std@@@8
	DD	00H
	DD	0ffffffffH
	ORG $+4
	DD	018H
	DD	imagerel ??0bad_array_new_length@std@@QEAA@AEBV01@@Z
xdata$x	ENDS
;	COMDAT ??_R0?AVbad_array_new_length@std@@@8
data$r	SEGMENT
??_R0?AVbad_array_new_length@std@@@8 DQ FLAT:??_7type_info@@6B@ ; std::bad_array_new_length `RTTI Type Descriptor'
	DQ	0000000000000000H
	DB	'.?AVbad_array_new_length@std@@', 00H
data$r	ENDS
;	COMDAT _CTA3?AVbad_array_new_length@std@@
xdata$x	SEGMENT
_CTA3?AVbad_array_new_length@std@@ DD 03H
	DD	imagerel _CT??_R0?AVbad_array_new_length@std@@@8??0bad_array_new_length@std@@QEAA@AEBV01@@Z24
	DD	imagerel _CT??_R0?AVbad_alloc@std@@@8??0bad_alloc@std@@QEAA@AEBV01@@Z24
	DD	imagerel _CT??_R0?AVexception@std@@@8??0exception@std@@QEAA@AEBV01@@Z24
xdata$x	ENDS
;	COMDAT _TI3?AVbad_array_new_length@std@@
xdata$x	SEGMENT
_TI3?AVbad_array_new_length@std@@ DD 00H
	DD	imagerel ??1bad_array_new_length@std@@UEAA@XZ
	DD	00H
	DD	imagerel _CTA3?AVbad_array_new_length@std@@
xdata$x	ENDS
;	COMDAT ??_C@_0BF@KINCDENJ@bad?5array?5new?5length@
CONST	SEGMENT
??_C@_0BF@KINCDENJ@bad?5array?5new?5length@ DB 'bad array new length', 00H ; `string'
CONST	ENDS
;	COMDAT ??_7bad_array_new_length@std@@6B@
CONST	SEGMENT
??_7bad_array_new_length@std@@6B@ DQ FLAT:??_R4bad_array_new_length@std@@6B@ ; std::bad_array_new_length::`vftable'
	DQ	FLAT:??_Ebad_array_new_length@std@@UEAAPEAXI@Z
	DQ	FLAT:?what@exception@std@@UEBAPEBDXZ
CONST	ENDS
;	COMDAT ??_7bad_alloc@std@@6B@
CONST	SEGMENT
??_7bad_alloc@std@@6B@ DQ FLAT:??_R4bad_alloc@std@@6B@	; std::bad_alloc::`vftable'
	DQ	FLAT:??_Ebad_alloc@std@@UEAAPEAXI@Z
	DQ	FLAT:?what@exception@std@@UEBAPEBDXZ
CONST	ENDS
;	COMDAT ??_C@_0BC@EOODALEL@Unknown?5exception@
CONST	SEGMENT
??_C@_0BC@EOODALEL@Unknown?5exception@ DB 'Unknown exception', 00H ; `string'
CONST	ENDS
;	COMDAT ??_7exception@std@@6B@
CONST	SEGMENT
??_7exception@std@@6B@ DQ FLAT:??_R4exception@std@@6B@	; std::exception::`vftable'
	DQ	FLAT:??_Eexception@std@@UEAAPEAXI@Z
	DQ	FLAT:?what@exception@std@@UEBAPEBDXZ
CONST	ENDS
;	COMDAT xdata
xdata	SEGMENT
$ip2state$??$_Verify_range@PEAUEntry@LT@@@std@@YAXQEBQEAUEntry@LT@@0@Z DB 02H
	DB	00H
	DB	00H
xdata	ENDS
;	COMDAT xdata
xdata	SEGMENT
$cppxdata$??$_Verify_range@PEAUEntry@LT@@@std@@YAXQEBQEAUEntry@LT@@0@Z DB 060H
	DD	imagerel $ip2state$??$_Verify_range@PEAUEntry@LT@@@std@@YAXQEBQEAUEntry@LT@@0@Z
xdata	ENDS
;	COMDAT xdata
xdata	SEGMENT
$unwind$??$_Verify_range@PEAUEntry@LT@@@std@@YAXQEBQEAUEntry@LT@@0@Z DD 035052f19H
	DD	01133318H
	DD	0700c001fH
	DD	0500bH
	DD	imagerel __CxxFrameHandler4
	DD	imagerel $cppxdata$??$_Verify_range@PEAUEntry@LT@@@std@@YAXQEBQEAUEntry@LT@@0@Z
xdata	ENDS
;	COMDAT xdata
xdata	SEGMENT
$unwind$??$_Zero_range@PEAPEAUEntry@LT@@@std@@YAPEAPEAUEntry@LT@@QEAPEAU12@0@Z DD 025052f01H
	DD	01132318H
	DD	0700c0025H
	DD	0500bH
xdata	ENDS
;	COMDAT xdata
xdata	SEGMENT
$unwind$??$_Seek_wrapped@PEAPEAUEntry@LT@@AEAPEAPEAU12@@std@@YAXAEAPEAPEAUEntry@LT@@0@Z DD 025052f01H
	DD	01132318H
	DD	0700c001dH
	DD	0500bH
xdata	ENDS
;	COMDAT xdata
xdata	SEGMENT
$unwind$??$_Copy_memmove@PEAPEAUEntry@LT@@PEAPEAU12@@std@@YAPEAPEAUEntry@LT@@PEAPEAU12@00@Z DD 025053401H
	DD	0118231dH
	DD	07011002dH
	DD	05010H
xdata	ENDS
;	COMDAT xdata
xdata	SEGMENT
$unwind$??$_Get_unwrapped_n@AEAPEAPEAUEntry@LT@@_J@std@@YA@AEAPEAPEAUEntry@LT@@_J@Z DD 025052f01H
	DD	01132318H
	DD	0700c001dH
	DD	0500bH
xdata	ENDS
;	COMDAT xdata
xdata	SEGMENT
$unwind$??$_Idl_distance@PEAPEAUEntry@LT@@PEAPEAU12@@std@@YA@AEBQEAPEAUEntry@LT@@0@Z DD 025052f01H
	DD	01132318H
	DD	0700c001dH
	DD	0500bH
xdata	ENDS
;	COMDAT xdata
xdata	SEGMENT
$unwind$??$_Get_unwrapped@AEBQEAPEAUEntry@LT@@@std@@YA@AEBQEAPEAUEntry@LT@@@Z DD 025052a01H
	DD	010e2313H
	DD	07007001dH
	DD	05006H
xdata	ENDS
;	COMDAT xdata
xdata	SEGMENT
$unwind$??$_Adl_verify_range@PEAPEAUEntry@LT@@PEAPEAU12@@std@@YAXAEBQEAPEAUEntry@LT@@0@Z DD 025052f01H
	DD	01132318H
	DD	0700c001dH
	DD	0500bH
xdata	ENDS
;	COMDAT xdata
xdata	SEGMENT
$ip2state$??$forward@AEBQEAU?$_List_node@UEntry@LT@@PEAX@std@@@std@@YAAEBQEAU?$_List_node@UEntry@LT@@PEAX@0@AEBQEAU10@@Z DB 02H
	DB	00H
	DB	00H
xdata	ENDS
;	COMDAT xdata
xdata	SEGMENT
$cppxdata$??$forward@AEBQEAU?$_List_node@UEntry@LT@@PEAX@std@@@std@@YAAEBQEAU?$_List_node@UEntry@LT@@PEAX@0@AEBQEAU10@@Z DB 060H
	DD	imagerel $ip2state$??$forward@AEBQEAU?$_List_node@UEntry@LT@@PEAX@std@@@std@@YAAEBQEAU?$_List_node@UEntry@LT@@PEAX@0@AEBQEAU10@@Z
xdata	ENDS
;	COMDAT xdata
xdata	SEGMENT
$unwind$??$forward@AEBQEAU?$_List_node@UEntry@LT@@PEAX@std@@@std@@YAAEBQEAU?$_List_node@UEntry@LT@@PEAX@0@AEBQEAU10@@Z DD 025052a19H
	DD	010e2313H
	DD	07007001dH
	DD	05006H
	DD	imagerel __CxxFrameHandler4
	DD	imagerel $cppxdata$??$forward@AEBQEAU?$_List_node@UEntry@LT@@PEAX@std@@@std@@YAAEBQEAU?$_List_node@UEntry@LT@@PEAX@0@AEBQEAU10@@Z
xdata	ENDS
;	COMDAT xdata
xdata	SEGMENT
$unwind$?deallocate@?$_Default_allocator_traits@V?$allocator@U_Container_proxy@std@@@std@@@std@@SAXAEAV?$allocator@U_Container_proxy@std@@@2@QEAU_Container_proxy@2@_K@Z DD 025053401H
	DD	0118231dH
	DD	07011001dH
	DD	05010H
xdata	ENDS
;	COMDAT xdata
xdata	SEGMENT
$unwind$??$construct@UEntry@LT@@AEBU12@@?$_Default_allocator_traits@V?$allocator@U?$_List_node@UEntry@LT@@PEAX@std@@@std@@@std@@SAXAEAV?$allocator@U?$_List_node@UEntry@LT@@PEAX@std@@@1@QEAUEntry@LT@@AEBU34@@Z DD 025063501H
	DD	0119231eH
	DD	070120020H
	DD	050106011H
xdata	ENDS
;	COMDAT xdata
xdata	SEGMENT
$unwind$??$_Get_size_of_n@$07@std@@YA_K_K@Z DD 025052a01H
	DD	010e2313H
	DD	070070025H
	DD	05006H
xdata	ENDS
;	COMDAT xdata
xdata	SEGMENT
$ip2state$??$_Destroy_range@PEAPEAUEntry@LT@@@std@@YAXPEAPEAUEntry@LT@@QEAPEAU12@@Z DB 02H
	DB	00H
	DB	00H
xdata	ENDS
;	COMDAT xdata
xdata	SEGMENT
$cppxdata$??$_Destroy_range@PEAPEAUEntry@LT@@@std@@YAXPEAPEAUEntry@LT@@QEAPEAU12@@Z DB 060H
	DD	imagerel $ip2state$??$_Destroy_range@PEAPEAUEntry@LT@@@std@@YAXPEAPEAUEntry@LT@@QEAPEAU12@@Z
xdata	ENDS
;	COMDAT xdata
xdata	SEGMENT
$unwind$??$_Destroy_range@PEAPEAUEntry@LT@@@std@@YAXPEAPEAUEntry@LT@@QEAPEAU12@@Z DD 025052f19H
	DD	01132318H
	DD	0700c001dH
	DD	0500bH
	DD	imagerel __CxxFrameHandler4
	DD	imagerel $cppxdata$??$_Destroy_range@PEAPEAUEntry@LT@@@std@@YAXPEAPEAUEntry@LT@@QEAPEAU12@@Z
xdata	ENDS
;	COMDAT xdata
xdata	SEGMENT
$unwind$??$_Uninitialized_value_construct_n_unchecked1@PEAPEAUEntry@LT@@_K@std@@YAPEAPEAUEntry@LT@@PEAPEAU12@_K@Z DD 025052f01H
	DD	01132318H
	DD	0700c001dH
	DD	0500bH
xdata	ENDS
;	COMDAT xdata
xdata	SEGMENT
$unwind$??$uninitialized_copy@PEAPEAUEntry@LT@@PEAPEAU12@@std@@YAPEAPEAUEntry@LT@@QEAPEAU12@0PEAPEAU12@@Z DD 025054519H
	DD	0118231dH
	DD	070110029H
	DD	05010H
	DD	imagerel __GSHandlerCheck
	DD	0138H
xdata	ENDS
;	COMDAT CONST
CONST	SEGMENT
??$uninitialized_copy@PEAPEAUEntry@LT@@PEAPEAU12@@std@@YAPEAPEAUEntry@LT@@QEAPEAU12@0PEAPEAU12@@Z$rtcName$0 DB 05fH ; std::uninitialized_copy<LT::Entry * *,LT::Entry * *>
	DB	055H
	DB	046H
	DB	069H
	DB	072H
	DB	073H
	DB	074H
	DB	00H
??$uninitialized_copy@PEAPEAUEntry@LT@@PEAPEAU12@@std@@YAPEAPEAUEntry@LT@@QEAPEAU12@0PEAPEAU12@@Z$rtcName$1 DB 05fH ; std::uninitialized_copy<LT::Entry * *,LT::Entry * *>
	DB	055H
	DB	04cH
	DB	061H
	DB	073H
	DB	074H
	DB	00H
	ORG $+1
??$uninitialized_copy@PEAPEAUEntry@LT@@PEAPEAU12@@std@@YAPEAPEAUEntry@LT@@QEAPEAU12@0PEAPEAU12@@Z$rtcName$2 DB 05fH ; std::uninitialized_copy<LT::Entry * *,LT::Entry * *>
	DB	055H
	DB	044H
	DB	065H
	DB	073H
	DB	074H
	DB	00H
	ORG $+9
??$uninitialized_copy@PEAPEAUEntry@LT@@PEAPEAU12@@std@@YAPEAPEAUEntry@LT@@QEAPEAU12@0PEAPEAU12@@Z$rtcVarDesc DD 068H ; std::uninitialized_copy<LT::Entry * *,LT::Entry * *>
	DD	08H
	DQ	FLAT:??$uninitialized_copy@PEAPEAUEntry@LT@@PEAPEAU12@@std@@YAPEAPEAUEntry@LT@@QEAPEAU12@0PEAPEAU12@@Z$rtcName$2
	DD	048H
	DD	08H
	DQ	FLAT:??$uninitialized_copy@PEAPEAUEntry@LT@@PEAPEAU12@@std@@YAPEAPEAUEntry@LT@@QEAPEAU12@0PEAPEAU12@@Z$rtcName$1
	DD	028H
	DD	08H
	DQ	FLAT:??$uninitialized_copy@PEAPEAUEntry@LT@@PEAPEAU12@@std@@YAPEAPEAUEntry@LT@@QEAPEAU12@0PEAPEAU12@@Z$rtcName$0
	ORG $+144
??$uninitialized_copy@PEAPEAUEntry@LT@@PEAPEAU12@@std@@YAPEAPEAUEntry@LT@@QEAPEAU12@0PEAPEAU12@@Z$rtcFrameData DD 03H ; std::uninitialized_copy<LT::Entry * *,LT::Entry * *>
	DD	00H
	DQ	FLAT:??$uninitialized_copy@PEAPEAUEntry@LT@@PEAPEAU12@@std@@YAPEAPEAUEntry@LT@@QEAPEAU12@0PEAPEAU12@@Z$rtcVarDesc
CONST	ENDS
;	COMDAT xdata
xdata	SEGMENT
$ip2state$??$_Construct_in_place@PEAU?$_List_node@UEntry@LT@@PEAX@std@@AEBQEAU12@@std@@YAXAEAPEAU?$_List_node@UEntry@LT@@PEAX@0@AEBQEAU10@@Z DB 02H
	DB	00H
	DB	00H
xdata	ENDS
;	COMDAT xdata
xdata	SEGMENT
$cppxdata$??$_Construct_in_place@PEAU?$_List_node@UEntry@LT@@PEAX@std@@AEBQEAU12@@std@@YAXAEAPEAU?$_List_node@UEntry@LT@@PEAX@0@AEBQEAU10@@Z DB 060H
	DD	imagerel $ip2state$??$_Construct_in_place@PEAU?$_List_node@UEntry@LT@@PEAX@std@@AEBQEAU12@@std@@YAXAEAPEAU?$_List_node@UEntry@LT@@PEAX@0@AEBQEAU10@@Z
xdata	ENDS
;	COMDAT xdata
xdata	SEGMENT
$unwind$??$_Construct_in_place@PEAU?$_List_node@UEntry@LT@@PEAX@std@@AEBQEAU12@@std@@YAXAEAPEAU?$_List_node@UEntry@LT@@PEAX@0@AEBQEAU10@@Z DD 025052f19H
	DD	01132318H
	DD	0700c0021H
	DD	0500bH
	DD	imagerel __CxxFrameHandler4
	DD	imagerel $cppxdata$??$_Construct_in_place@PEAU?$_List_node@UEntry@LT@@PEAX@std@@AEBQEAU12@@std@@YAXAEAPEAU?$_List_node@UEntry@LT@@PEAX@0@AEBQEAU10@@Z
xdata	ENDS
;	COMDAT xdata
xdata	SEGMENT
$unwind$??$_Allocate_manually_vector_aligned@U_Default_allocate_traits@std@@@std@@YAPEAX_K@Z DD 035052a01H
	DD	010e3313H
	DD	07007002bH
	DD	05006H
xdata	ENDS
;	COMDAT xdata
xdata	SEGMENT
$unwind$??$construct@UEntry@LT@@AEBU12@@?$_Default_allocator_traits@V?$allocator@UEntry@LT@@@std@@@std@@SAXAEAV?$allocator@UEntry@LT@@@1@QEAUEntry@LT@@AEBU34@@Z DD 025063501H
	DD	0119231eH
	DD	070120020H
	DD	050106011H
xdata	ENDS
;	COMDAT xdata
xdata	SEGMENT
$unwind$??$destroy@UEntry@LT@@@?$_Default_allocator_traits@V?$allocator@U?$_List_node@UEntry@LT@@PEAX@std@@@std@@@std@@SAXAEAV?$allocator@U?$_List_node@UEntry@LT@@PEAX@std@@@1@QEAUEntry@LT@@@Z DD 025052f01H
	DD	01132318H
	DD	0700c001dH
	DD	0500bH
xdata	ENDS
;	COMDAT xdata
xdata	SEGMENT
$ip2state$??$addressof@UEntry@LT@@@std@@YAPEAUEntry@LT@@AEAU12@@Z DB 02H
	DB	00H
	DB	00H
xdata	ENDS
;	COMDAT xdata
xdata	SEGMENT
$cppxdata$??$addressof@UEntry@LT@@@std@@YAPEAUEntry@LT@@AEAU12@@Z DB 060H
	DD	imagerel $ip2state$??$addressof@UEntry@LT@@@std@@YAPEAUEntry@LT@@AEAU12@@Z
xdata	ENDS
;	COMDAT xdata
xdata	SEGMENT
$unwind$??$addressof@UEntry@LT@@@std@@YAPEAUEntry@LT@@AEAU12@@Z DD 025052a19H
	DD	010e2313H
	DD	07007001dH
	DD	05006H
	DD	imagerel __CxxFrameHandler4
	DD	imagerel $cppxdata$??$addressof@UEntry@LT@@@std@@YAPEAUEntry@LT@@AEAU12@@Z
xdata	ENDS
;	COMDAT xdata
xdata	SEGMENT
$ip2state$??$_Destroy_in_place@PEAU?$_List_node@UEntry@LT@@PEAX@std@@@std@@YAXAEAPEAU?$_List_node@UEntry@LT@@PEAX@0@@Z DB 02H
	DB	00H
	DB	00H
xdata	ENDS
;	COMDAT xdata
xdata	SEGMENT
$cppxdata$??$_Destroy_in_place@PEAU?$_List_node@UEntry@LT@@PEAX@std@@@std@@YAXAEAPEAU?$_List_node@UEntry@LT@@PEAX@0@@Z DB 060H
	DD	imagerel $ip2state$??$_Destroy_in_place@PEAU?$_List_node@UEntry@LT@@PEAX@std@@@std@@YAXAEAPEAU?$_List_node@UEntry@LT@@PEAX@0@@Z
xdata	ENDS
;	COMDAT xdata
xdata	SEGMENT
$unwind$??$_Destroy_in_place@PEAU?$_List_node@UEntry@LT@@PEAX@std@@@std@@YAXAEAPEAU?$_List_node@UEntry@LT@@PEAX@0@@Z DD 025052a19H
	DD	010e2313H
	DD	07007001dH
	DD	05006H
	DD	imagerel __CxxFrameHandler4
	DD	imagerel $cppxdata$??$_Destroy_in_place@PEAU?$_List_node@UEntry@LT@@PEAX@std@@@std@@YAXAEAPEAU?$_List_node@UEntry@LT@@PEAX@0@@Z
xdata	ENDS
;	COMDAT xdata
xdata	SEGMENT
$ip2state$??$forward@AEAPEAU?$_List_node@UEntry@LT@@PEAX@std@@@std@@YAAEAPEAU?$_List_node@UEntry@LT@@PEAX@0@AEAPEAU10@@Z DB 02H
	DB	00H
	DB	00H
xdata	ENDS
;	COMDAT xdata
xdata	SEGMENT
$cppxdata$??$forward@AEAPEAU?$_List_node@UEntry@LT@@PEAX@std@@@std@@YAAEAPEAU?$_List_node@UEntry@LT@@PEAX@0@AEAPEAU10@@Z DB 060H
	DD	imagerel $ip2state$??$forward@AEAPEAU?$_List_node@UEntry@LT@@PEAX@std@@@std@@YAAEAPEAU?$_List_node@UEntry@LT@@PEAX@0@AEAPEAU10@@Z
xdata	ENDS
;	COMDAT xdata
xdata	SEGMENT
$unwind$??$forward@AEAPEAU?$_List_node@UEntry@LT@@PEAX@std@@@std@@YAAEAPEAU?$_List_node@UEntry@LT@@PEAX@0@AEAPEAU10@@Z DD 025052a19H
	DD	010e2313H
	DD	07007001dH
	DD	05006H
	DD	imagerel __CxxFrameHandler4
	DD	imagerel $cppxdata$??$forward@AEAPEAU?$_List_node@UEntry@LT@@PEAX@std@@@std@@YAAEAPEAU?$_List_node@UEntry@LT@@PEAX@0@AEAPEAU10@@Z
xdata	ENDS
;	COMDAT xdata
xdata	SEGMENT
$ip2state$??$addressof@PEAU?$_List_node@UEntry@LT@@PEAX@std@@@std@@YAPEAPEAU?$_List_node@UEntry@LT@@PEAX@0@AEAPEAU10@@Z DB 02H
	DB	00H
	DB	00H
xdata	ENDS
;	COMDAT xdata
xdata	SEGMENT
$cppxdata$??$addressof@PEAU?$_List_node@UEntry@LT@@PEAX@std@@@std@@YAPEAPEAU?$_List_node@UEntry@LT@@PEAX@0@AEAPEAU10@@Z DB 060H
	DD	imagerel $ip2state$??$addressof@PEAU?$_List_node@UEntry@LT@@PEAX@std@@@std@@YAPEAPEAU?$_List_node@UEntry@LT@@PEAX@0@AEAPEAU10@@Z
xdata	ENDS
;	COMDAT xdata
xdata	SEGMENT
$unwind$??$addressof@PEAU?$_List_node@UEntry@LT@@PEAX@std@@@std@@YAPEAPEAU?$_List_node@UEntry@LT@@PEAX@0@AEAPEAU10@@Z DD 025052a19H
	DD	010e2313H
	DD	07007001dH
	DD	05006H
	DD	imagerel __CxxFrameHandler4
	DD	imagerel $cppxdata$??$addressof@PEAU?$_List_node@UEntry@LT@@PEAX@std@@@std@@YAPEAPEAU?$_List_node@UEntry@LT@@PEAX@0@AEAPEAU10@@Z
xdata	ENDS
;	COMDAT xdata
xdata	SEGMENT
$ip2state$??$_Deallocate_plain@V?$allocator@U_Container_proxy@std@@@std@@@std@@YAXAEAV?$allocator@U_Container_proxy@std@@@0@QEAU_Container_proxy@0@@Z DB 02H
	DB	00H
	DB	00H
xdata	ENDS
;	COMDAT xdata
xdata	SEGMENT
$cppxdata$??$_Deallocate_plain@V?$allocator@U_Container_proxy@std@@@std@@@std@@YAXAEAV?$allocator@U_Container_proxy@std@@@0@QEAU_Container_proxy@0@@Z DB 060H
	DD	imagerel $ip2state$??$_Deallocate_plain@V?$allocator@U_Container_proxy@std@@@std@@@std@@YAXAEAV?$allocator@U_Container_proxy@std@@@0@QEAU_Container_proxy@0@@Z
xdata	ENDS
;	COMDAT xdata
xdata	SEGMENT
$unwind$??$_Deallocate_plain@V?$allocator@U_Container_proxy@std@@@std@@@std@@YAXAEAV?$allocator@U_Container_proxy@std@@@0@QEAU_Container_proxy@0@@Z DD 025052f19H
	DD	01132318H
	DD	0700c001dH
	DD	0500bH
	DD	imagerel __CxxFrameHandler4
	DD	imagerel $cppxdata$??$_Deallocate_plain@V?$allocator@U_Container_proxy@std@@@std@@@std@@YAXAEAV?$allocator@U_Container_proxy@std@@@0@QEAU_Container_proxy@0@@Z
xdata	ENDS
;	COMDAT xdata
xdata	SEGMENT
$unwind$?dtor$0@?0???$?0AEBUEntry@LT@@@?$_List_node_emplace_op2@V?$allocator@U?$_List_node@UEntry@LT@@PEAX@std@@@std@@@std@@QEAA@AEAV?$allocator@U?$_List_node@UEntry@LT@@PEAX@std@@@1@AEBUEntry@LT@@@Z@4HA DD 031001H
	DD	0700c4210H
	DD	0500bH
xdata	ENDS
;	COMDAT xdata
xdata	SEGMENT
$ip2state$??$?0AEBUEntry@LT@@@?$_List_node_emplace_op2@V?$allocator@U?$_List_node@UEntry@LT@@PEAX@std@@@std@@@std@@QEAA@AEAV?$allocator@U?$_List_node@UEntry@LT@@PEAX@std@@@1@AEBUEntry@LT@@@Z DB 06H
	DB	00H
	DB	00H
	DB	0a8H
	DB	02H
	DB	0a0H
	DB	00H
xdata	ENDS
;	COMDAT xdata
xdata	SEGMENT
$stateUnwindMap$??$?0AEBUEntry@LT@@@?$_List_node_emplace_op2@V?$allocator@U?$_List_node@UEntry@LT@@PEAX@std@@@std@@@std@@QEAA@AEAV?$allocator@U?$_List_node@UEntry@LT@@PEAX@std@@@1@AEBUEntry@LT@@@Z DB 02H
	DB	0eH
	DD	imagerel ?dtor$0@?0???$?0AEBUEntry@LT@@@?$_List_node_emplace_op2@V?$allocator@U?$_List_node@UEntry@LT@@PEAX@std@@@std@@@std@@QEAA@AEAV?$allocator@U?$_List_node@UEntry@LT@@PEAX@std@@@1@AEBUEntry@LT@@@Z@4HA
xdata	ENDS
;	COMDAT xdata
xdata	SEGMENT
$cppxdata$??$?0AEBUEntry@LT@@@?$_List_node_emplace_op2@V?$allocator@U?$_List_node@UEntry@LT@@PEAX@std@@@std@@@std@@QEAA@AEAV?$allocator@U?$_List_node@UEntry@LT@@PEAX@std@@@1@AEBUEntry@LT@@@Z DB 028H
	DD	imagerel $stateUnwindMap$??$?0AEBUEntry@LT@@@?$_List_node_emplace_op2@V?$allocator@U?$_List_node@UEntry@LT@@PEAX@std@@@std@@@std@@QEAA@AEAV?$allocator@U?$_List_node@UEntry@LT@@PEAX@std@@@1@AEBUEntry@LT@@@Z
	DD	imagerel $ip2state$??$?0AEBUEntry@LT@@@?$_List_node_emplace_op2@V?$allocator@U?$_List_node@UEntry@LT@@PEAX@std@@@std@@@std@@QEAA@AEAV?$allocator@U?$_List_node@UEntry@LT@@PEAX@std@@@1@AEBUEntry@LT@@@Z
xdata	ENDS
;	COMDAT xdata
xdata	SEGMENT
$unwind$??$?0AEBUEntry@LT@@@?$_List_node_emplace_op2@V?$allocator@U?$_List_node@UEntry@LT@@PEAX@std@@@std@@@std@@QEAA@AEAV?$allocator@U?$_List_node@UEntry@LT@@PEAX@std@@@1@AEBUEntry@LT@@@Z DD 025053411H
	DD	0118231dH
	DD	07011001fH
	DD	05010H
	DD	imagerel __CxxFrameHandler4
	DD	imagerel $cppxdata$??$?0AEBUEntry@LT@@@?$_List_node_emplace_op2@V?$allocator@U?$_List_node@UEntry@LT@@PEAX@std@@@std@@@std@@QEAA@AEAV?$allocator@U?$_List_node@UEntry@LT@@PEAX@std@@@1@AEBUEntry@LT@@@Z
xdata	ENDS
;	COMDAT xdata
xdata	SEGMENT
$ip2state$??$forward@AEBUEntry@LT@@@std@@YAAEBUEntry@LT@@AEBU12@@Z DB 02H
	DB	00H
	DB	00H
xdata	ENDS
;	COMDAT xdata
xdata	SEGMENT
$cppxdata$??$forward@AEBUEntry@LT@@@std@@YAAEBUEntry@LT@@AEBU12@@Z DB 060H
	DD	imagerel $ip2state$??$forward@AEBUEntry@LT@@@std@@YAAEBUEntry@LT@@AEBU12@@Z
xdata	ENDS
;	COMDAT xdata
xdata	SEGMENT
$unwind$??$forward@AEBUEntry@LT@@@std@@YAAEBUEntry@LT@@AEBU12@@Z DD 025052a19H
	DD	010e2313H
	DD	07007001dH
	DD	05006H
	DD	imagerel __CxxFrameHandler4
	DD	imagerel $cppxdata$??$forward@AEBUEntry@LT@@@std@@YAAEBUEntry@LT@@AEBU12@@Z
xdata	ENDS
;	COMDAT xdata
xdata	SEGMENT
$ip2state$?_Transfer_before@?$_List_node_emplace_op2@V?$allocator@U?$_List_node@UEntry@LT@@PEAX@std@@@std@@@std@@QEAAPEAU?$_List_node@UEntry@LT@@PEAX@2@QEAU32@@Z DB 02H
	DB	00H
	DB	00H
xdata	ENDS
;	COMDAT xdata
xdata	SEGMENT
$cppxdata$?_Transfer_before@?$_List_node_emplace_op2@V?$allocator@U?$_List_node@UEntry@LT@@PEAX@std@@@std@@@std@@QEAAPEAU?$_List_node@UEntry@LT@@PEAX@2@QEAU32@@Z DB 060H
	DD	imagerel $ip2state$?_Transfer_before@?$_List_node_emplace_op2@V?$allocator@U?$_List_node@UEntry@LT@@PEAX@std@@@std@@@std@@QEAAPEAU?$_List_node@UEntry@LT@@PEAX@2@QEAU32@@Z
xdata	ENDS
;	COMDAT xdata
xdata	SEGMENT
$unwind$?_Transfer_before@?$_List_node_emplace_op2@V?$allocator@U?$_List_node@UEntry@LT@@PEAX@std@@@std@@@std@@QEAAPEAU?$_List_node@UEntry@LT@@PEAX@2@QEAU32@@Z DD 025054019H
	DD	01132318H
	DD	0700c0025H
	DD	0500bH
	DD	imagerel __GSHandlerCheck_EH4
	DD	imagerel $cppxdata$?_Transfer_before@?$_List_node_emplace_op2@V?$allocator@U?$_List_node@UEntry@LT@@PEAX@std@@@std@@@std@@QEAAPEAU?$_List_node@UEntry@LT@@PEAX@2@QEAU32@@Z
	DD	011bH
xdata	ENDS
;	COMDAT CONST
CONST	SEGMENT
?_Transfer_before@?$_List_node_emplace_op2@V?$allocator@U?$_List_node@UEntry@LT@@PEAX@std@@@std@@@std@@QEAAPEAU?$_List_node@UEntry@LT@@PEAX@2@QEAU32@@Z$rtcName$0 DB 05fH ; std::_List_node_emplace_op2<std::allocator<std::_List_node<LT::Entry,void *> > >::_Transfer_before
	DB	049H
	DB	06eH
	DB	073H
	DB	065H
	DB	072H
	DB	074H
	DB	05fH
	DB	061H
	DB	066H
	DB	074H
	DB	065H
	DB	072H
	DB	00H
	ORG $+2
?_Transfer_before@?$_List_node_emplace_op2@V?$allocator@U?$_List_node@UEntry@LT@@PEAX@std@@@std@@@std@@QEAAPEAU?$_List_node@UEntry@LT@@PEAX@2@QEAU32@@Z$rtcVarDesc DD 028H ; std::_List_node_emplace_op2<std::allocator<std::_List_node<LT::Entry,void *> > >::_Transfer_before
	DD	08H
	DQ	FLAT:?_Transfer_before@?$_List_node_emplace_op2@V?$allocator@U?$_List_node@UEntry@LT@@PEAX@std@@@std@@@std@@QEAAPEAU?$_List_node@UEntry@LT@@PEAX@2@QEAU32@@Z$rtcName$0
	ORG $+48
?_Transfer_before@?$_List_node_emplace_op2@V?$allocator@U?$_List_node@UEntry@LT@@PEAX@std@@@std@@@std@@QEAAPEAU?$_List_node@UEntry@LT@@PEAX@2@QEAU32@@Z$rtcFrameData DD 01H ; std::_List_node_emplace_op2<std::allocator<std::_List_node<LT::Entry,void *> > >::_Transfer_before
	DD	00H
	DQ	FLAT:?_Transfer_before@?$_List_node_emplace_op2@V?$allocator@U?$_List_node@UEntry@LT@@PEAX@std@@@std@@@std@@QEAAPEAU?$_List_node@UEntry@LT@@PEAX@2@QEAU32@@Z$rtcVarDesc
CONST	ENDS
;	COMDAT xdata
xdata	SEGMENT
$ip2state$??1?$_List_node_emplace_op2@V?$allocator@U?$_List_node@UEntry@LT@@PEAX@std@@@std@@@std@@QEAA@XZ DB 02H
	DB	00H
	DB	00H
xdata	ENDS
;	COMDAT xdata
xdata	SEGMENT
$cppxdata$??1?$_List_node_emplace_op2@V?$allocator@U?$_List_node@UEntry@LT@@PEAX@std@@@std@@@std@@QEAA@XZ DB 060H
	DD	imagerel $ip2state$??1?$_List_node_emplace_op2@V?$allocator@U?$_List_node@UEntry@LT@@PEAX@std@@@std@@@std@@QEAA@XZ
xdata	ENDS
;	COMDAT xdata
xdata	SEGMENT
$unwind$??1?$_List_node_emplace_op2@V?$allocator@U?$_List_node@UEntry@LT@@PEAX@std@@@std@@@std@@QEAA@XZ DD 025052a19H
	DD	010e2313H
	DD	07007001dH
	DD	05006H
	DD	imagerel __CxxFrameHandler4
	DD	imagerel $cppxdata$??1?$_List_node_emplace_op2@V?$allocator@U?$_List_node@UEntry@LT@@PEAX@std@@@std@@@std@@QEAA@XZ
xdata	ENDS
;	COMDAT xdata
xdata	SEGMENT
$ip2state$??1?$_Alloc_construct_ptr@V?$allocator@U?$_List_node@UEntry@LT@@PEAX@std@@@std@@@std@@QEAA@XZ DB 02H
	DB	00H
	DB	00H
xdata	ENDS
;	COMDAT xdata
xdata	SEGMENT
$cppxdata$??1?$_Alloc_construct_ptr@V?$allocator@U?$_List_node@UEntry@LT@@PEAX@std@@@std@@@std@@QEAA@XZ DB 060H
	DD	imagerel $ip2state$??1?$_Alloc_construct_ptr@V?$allocator@U?$_List_node@UEntry@LT@@PEAX@std@@@std@@@std@@QEAA@XZ
xdata	ENDS
;	COMDAT xdata
xdata	SEGMENT
$unwind$??1?$_Alloc_construct_ptr@V?$allocator@U?$_List_node@UEntry@LT@@PEAX@std@@@std@@@std@@QEAA@XZ DD 025052a19H
	DD	010e2313H
	DD	07007001dH
	DD	05006H
	DD	imagerel __CxxFrameHandler4
	DD	imagerel $cppxdata$??1?$_Alloc_construct_ptr@V?$allocator@U?$_List_node@UEntry@LT@@PEAX@std@@@std@@@std@@QEAA@XZ
xdata	ENDS
;	COMDAT xdata
xdata	SEGMENT
$unwind$?_Allocate@?$_Alloc_construct_ptr@V?$allocator@U?$_List_node@UEntry@LT@@PEAX@std@@@std@@@std@@QEAAXXZ DD 025052a01H
	DD	010e2313H
	DD	07007001dH
	DD	05006H
xdata	ENDS
;	COMDAT xdata
xdata	SEGMENT
$unwind$??0?$_Alloc_construct_ptr@V?$allocator@U?$_List_node@UEntry@LT@@PEAX@std@@@std@@@std@@QEAA@AEAV?$allocator@U?$_List_node@UEntry@LT@@PEAX@std@@@1@@Z DD 025052f01H
	DD	01132318H
	DD	0700c001dH
	DD	0500bH
xdata	ENDS
;	COMDAT xdata
xdata	SEGMENT
$ip2state$??$forward@PEAU_Container_base12@std@@@std@@YA$$QEAPEAU_Container_base12@0@AEAPEAU10@@Z DB 02H
	DB	00H
	DB	00H
xdata	ENDS
;	COMDAT xdata
xdata	SEGMENT
$cppxdata$??$forward@PEAU_Container_base12@std@@@std@@YA$$QEAPEAU_Container_base12@0@AEAPEAU10@@Z DB 060H
	DD	imagerel $ip2state$??$forward@PEAU_Container_base12@std@@@std@@YA$$QEAPEAU_Container_base12@0@AEAPEAU10@@Z
xdata	ENDS
;	COMDAT xdata
xdata	SEGMENT
$unwind$??$forward@PEAU_Container_base12@std@@@std@@YA$$QEAPEAU_Container_base12@0@AEAPEAU10@@Z DD 025052a19H
	DD	010e2313H
	DD	07007001dH
	DD	05006H
	DD	imagerel __CxxFrameHandler4
	DD	imagerel $cppxdata$??$forward@PEAU_Container_base12@std@@@std@@YA$$QEAPEAU_Container_base12@0@AEAPEAU10@@Z
xdata	ENDS
;	COMDAT xdata
xdata	SEGMENT
$ip2state$??$addressof@U_Container_proxy@std@@@std@@YAPEAU_Container_proxy@0@AEAU10@@Z DB 02H
	DB	00H
	DB	00H
xdata	ENDS
;	COMDAT xdata
xdata	SEGMENT
$cppxdata$??$addressof@U_Container_proxy@std@@@std@@YAPEAU_Container_proxy@0@AEAU10@@Z DB 060H
	DD	imagerel $ip2state$??$addressof@U_Container_proxy@std@@@std@@YAPEAU_Container_proxy@0@AEAU10@@Z
xdata	ENDS
;	COMDAT xdata
xdata	SEGMENT
$unwind$??$addressof@U_Container_proxy@std@@@std@@YAPEAU_Container_proxy@0@AEAU10@@Z DD 025052a19H
	DD	010e2313H
	DD	07007001dH
	DD	05006H
	DD	imagerel __CxxFrameHandler4
	DD	imagerel $cppxdata$??$addressof@U_Container_proxy@std@@@std@@YAPEAU_Container_proxy@0@AEAU10@@Z
xdata	ENDS
;	COMDAT xdata
xdata	SEGMENT
$ip2state$??$_Deallocate@$0BA@$0A@@std@@YAXPEAX_K@Z DB 02H
	DB	00H
	DB	00H
xdata	ENDS
;	COMDAT xdata
xdata	SEGMENT
$cppxdata$??$_Deallocate@$0BA@$0A@@std@@YAXPEAX_K@Z DB 060H
	DD	imagerel $ip2state$??$_Deallocate@$0BA@$0A@@std@@YAXPEAX_K@Z
xdata	ENDS
;	COMDAT xdata
xdata	SEGMENT
$unwind$??$_Deallocate@$0BA@$0A@@std@@YAXPEAX_K@Z DD 025052f19H
	DD	01132318H
	DD	0700c001dH
	DD	0500bH
	DD	imagerel __CxxFrameHandler4
	DD	imagerel $cppxdata$??$_Deallocate@$0BA@$0A@@std@@YAXPEAX_K@Z
xdata	ENDS
;	COMDAT xdata
xdata	SEGMENT
$ip2state$??$addressof@V?$_Deque_val@U?$_Deque_simple_types@UEntry@LT@@@std@@@std@@@std@@YAPEAV?$_Deque_val@U?$_Deque_simple_types@UEntry@LT@@@std@@@0@AEAV10@@Z DB 02H
	DB	00H
	DB	00H
xdata	ENDS
;	COMDAT xdata
xdata	SEGMENT
$cppxdata$??$addressof@V?$_Deque_val@U?$_Deque_simple_types@UEntry@LT@@@std@@@std@@@std@@YAPEAV?$_Deque_val@U?$_Deque_simple_types@UEntry@LT@@@std@@@0@AEAV10@@Z DB 060H
	DD	imagerel $ip2state$??$addressof@V?$_Deque_val@U?$_Deque_simple_types@UEntry@LT@@@std@@@std@@@std@@YAPEAV?$_Deque_val@U?$_Deque_simple_types@UEntry@LT@@@std@@@0@AEAV10@@Z
xdata	ENDS
;	COMDAT xdata
xdata	SEGMENT
$unwind$??$addressof@V?$_Deque_val@U?$_Deque_simple_types@UEntry@LT@@@std@@@std@@@std@@YAPEAV?$_Deque_val@U?$_Deque_simple_types@UEntry@LT@@@std@@@0@AEAV10@@Z DD 025052a19H
	DD	010e2313H
	DD	07007001dH
	DD	05006H
	DD	imagerel __CxxFrameHandler4
	DD	imagerel $cppxdata$??$addressof@V?$_Deque_val@U?$_Deque_simple_types@UEntry@LT@@@std@@@std@@@std@@YAPEAV?$_Deque_val@U?$_Deque_simple_types@UEntry@LT@@@std@@@0@AEAV10@@Z
xdata	ENDS
;	COMDAT xdata
xdata	SEGMENT
$unwind$??$_Get_size_of_n@$0CA@@std@@YA_K_K@Z DD 025052a01H
	DD	010e2313H
	DD	070070025H
	DD	05006H
xdata	ENDS
;	COMDAT xdata
xdata	SEGMENT
$unwind$??$_Allocate@$0BA@U_Default_allocate_traits@std@@$0A@@std@@YAPEAX_K@Z DD 025052a01H
	DD	010e2313H
	DD	07007001dH
	DD	05006H
xdata	ENDS
;	COMDAT xdata
xdata	SEGMENT
$unwind$??$_Get_size_of_n@$0BA@@std@@YA_K_K@Z DD 025052a01H
	DD	010e2313H
	DD	070070025H
	DD	05006H
xdata	ENDS
;	COMDAT xdata
xdata	SEGMENT
$unwind$??0?$_Deque_unchecked_iterator@V?$_Deque_val@U?$_Deque_simple_types@UEntry@LT@@@std@@@std@@@std@@QEAA@_KPEBU_Container_base12@1@@Z DD 025053401H
	DD	0118231dH
	DD	07011001dH
	DD	05010H
xdata	ENDS
;	COMDAT xdata
xdata	SEGMENT
$unwind$?__autoclassinit2@?$_Deque_unchecked_iterator@V?$_Deque_val@U?$_Deque_simple_types@UEntry@LT@@@std@@@std@@@std@@QEAAX_K@Z DD 05052d01H
	DD	01130316H
	DD	0700c0019H
	DD	0500bH
xdata	ENDS
;	COMDAT xdata
xdata	SEGMENT
$unwind$??G?$_Deque_unchecked_iterator@V?$_Deque_val@U?$_Deque_simple_types@UEntry@LT@@@std@@@std@@@std@@QEBA?AV01@_J@Z DD 025064619H
	DD	0119231eH
	DD	070120022H
	DD	050106011H
	DD	imagerel __GSHandlerCheck
	DD	0108H
xdata	ENDS
;	COMDAT CONST
CONST	SEGMENT
??G?$_Deque_unchecked_iterator@V?$_Deque_val@U?$_Deque_simple_types@UEntry@LT@@@std@@@std@@@std@@QEBA?AV01@_J@Z$rtcName$0 DB 05fH ; std::_Deque_unchecked_iterator<std::_Deque_val<std::_Deque_simple_types<LT::Entry> > >::operator-
	DB	054H
	DB	06dH
	DB	070H
	DB	00H
	ORG $+11
??G?$_Deque_unchecked_iterator@V?$_Deque_val@U?$_Deque_simple_types@UEntry@LT@@@std@@@std@@@std@@QEBA?AV01@_J@Z$rtcVarDesc DD 028H ; std::_Deque_unchecked_iterator<std::_Deque_val<std::_Deque_simple_types<LT::Entry> > >::operator-
	DD	010H
	DQ	FLAT:??G?$_Deque_unchecked_iterator@V?$_Deque_val@U?$_Deque_simple_types@UEntry@LT@@@std@@@std@@@std@@QEBA?AV01@_J@Z$rtcName$0
	ORG $+48
??G?$_Deque_unchecked_iterator@V?$_Deque_val@U?$_Deque_simple_types@UEntry@LT@@@std@@@std@@@std@@QEBA?AV01@_J@Z$rtcFrameData DD 01H ; std::_Deque_unchecked_iterator<std::_Deque_val<std::_Deque_simple_types<LT::Entry> > >::operator-
	DD	00H
	DQ	FLAT:??G?$_Deque_unchecked_iterator@V?$_Deque_val@U?$_Deque_simple_types@UEntry@LT@@@std@@@std@@@std@@QEBA?AV01@_J@Z$rtcVarDesc
CONST	ENDS
;	COMDAT xdata
xdata	SEGMENT
$unwind$??Z?$_Deque_unchecked_iterator@V?$_Deque_val@U?$_Deque_simple_types@UEntry@LT@@@std@@@std@@@std@@QEAAAEAV01@_J@Z DD 025052f01H
	DD	01132318H
	DD	0700c001dH
	DD	0500bH
xdata	ENDS
;	COMDAT xdata
xdata	SEGMENT
$unwind$??D?$_Deque_unchecked_iterator@V?$_Deque_val@U?$_Deque_simple_types@UEntry@LT@@@std@@@std@@@std@@QEBAAEAUEntry@LT@@XZ DD 025052a01H
	DD	010e2313H
	DD	07007001dH
	DD	05006H
xdata	ENDS
;	COMDAT xdata
xdata	SEGMENT
$unwind$??Z?$_Deque_unchecked_const_iterator@V?$_Deque_val@U?$_Deque_simple_types@UEntry@LT@@@std@@@std@@@std@@QEAAAEAV01@_J@Z DD 025052f01H
	DD	01132318H
	DD	0700c001dH
	DD	0500bH
xdata	ENDS
;	COMDAT xdata
xdata	SEGMENT
$unwind$??D?$_Deque_unchecked_const_iterator@V?$_Deque_val@U?$_Deque_simple_types@UEntry@LT@@@std@@@std@@@std@@QEBAAEBUEntry@LT@@XZ DD 025052a01H
	DD	010e2313H
	DD	070070025H
	DD	05006H
xdata	ENDS
;	COMDAT xdata
xdata	SEGMENT
$ip2state$??0?$_Deque_unchecked_const_iterator@V?$_Deque_val@U?$_Deque_simple_types@UEntry@LT@@@std@@@std@@@std@@QEAA@_KPEBU_Container_base12@1@@Z DB 02H
	DB	00H
	DB	00H
xdata	ENDS
;	COMDAT xdata
xdata	SEGMENT
$cppxdata$??0?$_Deque_unchecked_const_iterator@V?$_Deque_val@U?$_Deque_simple_types@UEntry@LT@@@std@@@std@@@std@@QEAA@_KPEBU_Container_base12@1@@Z DB 060H
	DD	imagerel $ip2state$??0?$_Deque_unchecked_const_iterator@V?$_Deque_val@U?$_Deque_simple_types@UEntry@LT@@@std@@@std@@@std@@QEAA@_KPEBU_Container_base12@1@@Z
xdata	ENDS
;	COMDAT xdata
xdata	SEGMENT
$unwind$??0?$_Deque_unchecked_const_iterator@V?$_Deque_val@U?$_Deque_simple_types@UEntry@LT@@@std@@@std@@@std@@QEAA@_KPEBU_Container_base12@1@@Z DD 025053419H
	DD	0118231dH
	DD	07011001dH
	DD	05010H
	DD	imagerel __CxxFrameHandler4
	DD	imagerel $cppxdata$??0?$_Deque_unchecked_const_iterator@V?$_Deque_val@U?$_Deque_simple_types@UEntry@LT@@@std@@@std@@@std@@QEAA@_KPEBU_Container_base12@1@@Z
xdata	ENDS
;	COMDAT xdata
xdata	SEGMENT
$unwind$??$_Emplace_back_internal@AEBUEntry@LT@@@?$deque@UEntry@LT@@V?$allocator@UEntry@LT@@@std@@@std@@AEAAXAEBUEntry@LT@@@Z DD 025052f01H
	DD	01132318H
	DD	0700c0027H
	DD	0500bH
xdata	ENDS
;	COMDAT xdata
xdata	SEGMENT
$unwind$??$destroy@UEntry@LT@@@?$_Default_allocator_traits@V?$allocator@UEntry@LT@@@std@@@std@@SAXAEAV?$allocator@UEntry@LT@@@1@QEAUEntry@LT@@@Z DD 025052f01H
	DD	01132318H
	DD	0700c001dH
	DD	0500bH
xdata	ENDS
;	COMDAT xdata
xdata	SEGMENT
$ip2state$??$_Unfancy@UEntry@LT@@@std@@YAPEAUEntry@LT@@PEAU12@@Z DB 02H
	DB	00H
	DB	00H
xdata	ENDS
;	COMDAT xdata
xdata	SEGMENT
$cppxdata$??$_Unfancy@UEntry@LT@@@std@@YAPEAUEntry@LT@@PEAU12@@Z DB 060H
	DD	imagerel $ip2state$??$_Unfancy@UEntry@LT@@@std@@YAPEAUEntry@LT@@PEAU12@@Z
xdata	ENDS
;	COMDAT xdata
xdata	SEGMENT
$unwind$??$_Unfancy@UEntry@LT@@@std@@YAPEAUEntry@LT@@PEAU12@@Z DD 025052a19H
	DD	010e2313H
	DD	07007001dH
	DD	05006H
	DD	imagerel __CxxFrameHandler4
	DD	imagerel $cppxdata$??$_Unfancy@UEntry@LT@@@std@@YAPEAUEntry@LT@@PEAU12@@Z
xdata	ENDS
;	COMDAT xdata
xdata	SEGMENT
$ip2state$??$_Destroy_in_place@PEAUEntry@LT@@@std@@YAXAEAPEAUEntry@LT@@@Z DB 02H
	DB	00H
	DB	00H
xdata	ENDS
;	COMDAT xdata
xdata	SEGMENT
$cppxdata$??$_Destroy_in_place@PEAUEntry@LT@@@std@@YAXAEAPEAUEntry@LT@@@Z DB 060H
	DD	imagerel $ip2state$??$_Destroy_in_place@PEAUEntry@LT@@@std@@YAXAEAPEAUEntry@LT@@@Z
xdata	ENDS
;	COMDAT xdata
xdata	SEGMENT
$unwind$??$_Destroy_in_place@PEAUEntry@LT@@@std@@YAXAEAPEAUEntry@LT@@@Z DD 025052a19H
	DD	010e2313H
	DD	07007001dH
	DD	05006H
	DD	imagerel __CxxFrameHandler4
	DD	imagerel $cppxdata$??$_Destroy_in_place@PEAUEntry@LT@@@std@@YAXAEAPEAUEntry@LT@@@Z
xdata	ENDS
;	COMDAT xdata
xdata	SEGMENT
$ip2state$??$?0UEntry@LT@@@?$allocator@PEAUEntry@LT@@@std@@QEAA@AEBV?$allocator@UEntry@LT@@@1@@Z DB 02H
	DB	00H
	DB	00H
xdata	ENDS
;	COMDAT xdata
xdata	SEGMENT
$cppxdata$??$?0UEntry@LT@@@?$allocator@PEAUEntry@LT@@@std@@QEAA@AEBV?$allocator@UEntry@LT@@@1@@Z DB 060H
	DD	imagerel $ip2state$??$?0UEntry@LT@@@?$allocator@PEAUEntry@LT@@@std@@QEAA@AEBV?$allocator@UEntry@LT@@@1@@Z
xdata	ENDS
;	COMDAT xdata
xdata	SEGMENT
$unwind$??$?0UEntry@LT@@@?$allocator@PEAUEntry@LT@@@std@@QEAA@AEBV?$allocator@UEntry@LT@@@1@@Z DD 025052f19H
	DD	01132318H
	DD	0700c001dH
	DD	0500bH
	DD	imagerel __CxxFrameHandler4
	DD	imagerel $cppxdata$??$?0UEntry@LT@@@?$allocator@PEAUEntry@LT@@@std@@QEAA@AEBV?$allocator@UEntry@LT@@@1@@Z
xdata	ENDS
;	COMDAT xdata
xdata	SEGMENT
$ip2state$??$_Freenode@V?$allocator@U?$_List_node@UEntry@LT@@PEAX@std@@@std@@@?$_List_node@UEntry@LT@@PEAX@std@@SAXAEAV?$allocator@U?$_List_node@UEntry@LT@@PEAX@std@@@1@PEAU01@@Z DB 02H
	DB	00H
	DB	00H
xdata	ENDS
;	COMDAT xdata
xdata	SEGMENT
$cppxdata$??$_Freenode@V?$allocator@U?$_List_node@UEntry@LT@@PEAX@std@@@std@@@?$_List_node@UEntry@LT@@PEAX@std@@SAXAEAV?$allocator@U?$_List_node@UEntry@LT@@PEAX@std@@@1@PEAU01@@Z DB 060H
	DD	imagerel $ip2state$??$_Freenode@V?$allocator@U?$_List_node@UEntry@LT@@PEAX@std@@@std@@@?$_List_node@UEntry@LT@@PEAX@std@@SAXAEAV?$allocator@U?$_List_node@UEntry@LT@@PEAX@std@@@1@PEAU01@@Z
xdata	ENDS
;	COMDAT xdata
xdata	SEGMENT
$unwind$??$_Freenode@V?$allocator@U?$_List_node@UEntry@LT@@PEAX@std@@@std@@@?$_List_node@UEntry@LT@@PEAX@std@@SAXAEAV?$allocator@U?$_List_node@UEntry@LT@@PEAX@std@@@1@PEAU01@@Z DD 025052f19H
	DD	01132318H
	DD	0700c001dH
	DD	0500bH
	DD	imagerel __CxxFrameHandler4
	DD	imagerel $cppxdata$??$_Freenode@V?$allocator@U?$_List_node@UEntry@LT@@PEAX@std@@@std@@@?$_List_node@UEntry@LT@@PEAX@std@@SAXAEAV?$allocator@U?$_List_node@UEntry@LT@@PEAX@std@@@1@PEAU01@@Z
xdata	ENDS
;	COMDAT xdata
xdata	SEGMENT
$ip2state$??$_Freenode0@V?$allocator@U?$_List_node@UEntry@LT@@PEAX@std@@@std@@@?$_List_node@UEntry@LT@@PEAX@std@@SAXAEAV?$allocator@U?$_List_node@UEntry@LT@@PEAX@std@@@1@PEAU01@@Z DB 02H
	DB	00H
	DB	00H
xdata	ENDS
;	COMDAT xdata
xdata	SEGMENT
$cppxdata$??$_Freenode0@V?$allocator@U?$_List_node@UEntry@LT@@PEAX@std@@@std@@@?$_List_node@UEntry@LT@@PEAX@std@@SAXAEAV?$allocator@U?$_List_node@UEntry@LT@@PEAX@std@@@1@PEAU01@@Z DB 060H
	DD	imagerel $ip2state$??$_Freenode0@V?$allocator@U?$_List_node@UEntry@LT@@PEAX@std@@@std@@@?$_List_node@UEntry@LT@@PEAX@std@@SAXAEAV?$allocator@U?$_List_node@UEntry@LT@@PEAX@std@@@1@PEAU01@@Z
xdata	ENDS
;	COMDAT xdata
xdata	SEGMENT
$unwind$??$_Freenode0@V?$allocator@U?$_List_node@UEntry@LT@@PEAX@std@@@std@@@?$_List_node@UEntry@LT@@PEAX@std@@SAXAEAV?$allocator@U?$_List_node@UEntry@LT@@PEAX@std@@@1@PEAU01@@Z DD 025052f19H
	DD	01132318H
	DD	0700c001dH
	DD	0500bH
	DD	imagerel __CxxFrameHandler4
	DD	imagerel $cppxdata$??$_Freenode0@V?$allocator@U?$_List_node@UEntry@LT@@PEAX@std@@@std@@@?$_List_node@UEntry@LT@@PEAX@std@@SAXAEAV?$allocator@U?$_List_node@UEntry@LT@@PEAX@std@@@1@PEAU01@@Z
xdata	ENDS
;	COMDAT xdata
xdata	SEGMENT
$ip2state$??$_Free_non_head@V?$allocator@U?$_List_node@UEntry@LT@@PEAX@std@@@std@@@?$_List_node@UEntry@LT@@PEAX@std@@SAXAEAV?$allocator@U?$_List_node@UEntry@LT@@PEAX@std@@@1@PEAU01@@Z DB 02H
	DB	00H
	DB	00H
xdata	ENDS
;	COMDAT xdata
xdata	SEGMENT
$cppxdata$??$_Free_non_head@V?$allocator@U?$_List_node@UEntry@LT@@PEAX@std@@@std@@@?$_List_node@UEntry@LT@@PEAX@std@@SAXAEAV?$allocator@U?$_List_node@UEntry@LT@@PEAX@std@@@1@PEAU01@@Z DB 060H
	DD	imagerel $ip2state$??$_Free_non_head@V?$allocator@U?$_List_node@UEntry@LT@@PEAX@std@@@std@@@?$_List_node@UEntry@LT@@PEAX@std@@SAXAEAV?$allocator@U?$_List_node@UEntry@LT@@PEAX@std@@@1@PEAU01@@Z
xdata	ENDS
;	COMDAT xdata
xdata	SEGMENT
$unwind$??$_Free_non_head@V?$allocator@U?$_List_node@UEntry@LT@@PEAX@std@@@std@@@?$_List_node@UEntry@LT@@PEAX@std@@SAXAEAV?$allocator@U?$_List_node@UEntry@LT@@PEAX@std@@@1@PEAU01@@Z DD 025052f19H
	DD	01132318H
	DD	0700c0025H
	DD	0500bH
	DD	imagerel __CxxFrameHandler4
	DD	imagerel $cppxdata$??$_Free_non_head@V?$allocator@U?$_List_node@UEntry@LT@@PEAX@std@@@std@@@?$_List_node@UEntry@LT@@PEAX@std@@SAXAEAV?$allocator@U?$_List_node@UEntry@LT@@PEAX@std@@@1@PEAU01@@Z
xdata	ENDS
;	COMDAT xdata
xdata	SEGMENT
$ip2state$??$_Construct_in_place@PEAU?$_List_node@UEntry@LT@@PEAX@std@@AEAPEAU12@@std@@YAXAEAPEAU?$_List_node@UEntry@LT@@PEAX@0@0@Z DB 02H
	DB	00H
	DB	00H
xdata	ENDS
;	COMDAT xdata
xdata	SEGMENT
$cppxdata$??$_Construct_in_place@PEAU?$_List_node@UEntry@LT@@PEAX@std@@AEAPEAU12@@std@@YAXAEAPEAU?$_List_node@UEntry@LT@@PEAX@0@0@Z DB 060H
	DD	imagerel $ip2state$??$_Construct_in_place@PEAU?$_List_node@UEntry@LT@@PEAX@std@@AEAPEAU12@@std@@YAXAEAPEAU?$_List_node@UEntry@LT@@PEAX@0@0@Z
xdata	ENDS
;	COMDAT xdata
xdata	SEGMENT
$unwind$??$_Construct_in_place@PEAU?$_List_node@UEntry@LT@@PEAX@std@@AEAPEAU12@@std@@YAXAEAPEAU?$_List_node@UEntry@LT@@PEAX@0@0@Z DD 025052f19H
	DD	01132318H
	DD	0700c0021H
	DD	0500bH
	DD	imagerel __CxxFrameHandler4
	DD	imagerel $cppxdata$??$_Construct_in_place@PEAU?$_List_node@UEntry@LT@@PEAX@std@@AEAPEAU12@@std@@YAXAEAPEAU?$_List_node@UEntry@LT@@PEAX@0@0@Z
xdata	ENDS
;	COMDAT xdata
xdata	SEGMENT
$ip2state$??$_Unfancy@U_Container_proxy@std@@@std@@YAPEAU_Container_proxy@0@PEAU10@@Z DB 02H
	DB	00H
	DB	00H
xdata	ENDS
;	COMDAT xdata
xdata	SEGMENT
$cppxdata$??$_Unfancy@U_Container_proxy@std@@@std@@YAPEAU_Container_proxy@0@PEAU10@@Z DB 060H
	DD	imagerel $ip2state$??$_Unfancy@U_Container_proxy@std@@@std@@YAPEAU_Container_proxy@0@PEAU10@@Z
xdata	ENDS
;	COMDAT xdata
xdata	SEGMENT
$unwind$??$_Unfancy@U_Container_proxy@std@@@std@@YAPEAU_Container_proxy@0@PEAU10@@Z DD 025052a19H
	DD	010e2313H
	DD	07007001dH
	DD	05006H
	DD	imagerel __CxxFrameHandler4
	DD	imagerel $cppxdata$??$_Unfancy@U_Container_proxy@std@@@std@@YAPEAU_Container_proxy@0@PEAU10@@Z
xdata	ENDS
;	COMDAT xdata
xdata	SEGMENT
$ip2state$??1?$_Container_proxy_ptr12@V?$allocator@U_Container_proxy@std@@@std@@@std@@QEAA@XZ DB 02H
	DB	00H
	DB	00H
xdata	ENDS
;	COMDAT xdata
xdata	SEGMENT
$cppxdata$??1?$_Container_proxy_ptr12@V?$allocator@U_Container_proxy@std@@@std@@@std@@QEAA@XZ DB 060H
	DD	imagerel $ip2state$??1?$_Container_proxy_ptr12@V?$allocator@U_Container_proxy@std@@@std@@@std@@QEAA@XZ
xdata	ENDS
;	COMDAT xdata
xdata	SEGMENT
$unwind$??1?$_Container_proxy_ptr12@V?$allocator@U_Container_proxy@std@@@std@@@std@@QEAA@XZ DD 025052a19H
	DD	010e2313H
	DD	07007001dH
	DD	05006H
	DD	imagerel __CxxFrameHandler4
	DD	imagerel $cppxdata$??1?$_Container_proxy_ptr12@V?$allocator@U_Container_proxy@std@@@std@@@std@@QEAA@XZ
xdata	ENDS
;	COMDAT xdata
xdata	SEGMENT
$unwind$??0?$_Container_proxy_ptr12@V?$allocator@U_Container_proxy@std@@@std@@@std@@QEAA@AEAV?$allocator@U_Container_proxy@std@@@1@AEAU_Container_base12@1@@Z DD 025053401H
	DD	0118231dH
	DD	070110021H
	DD	05010H
xdata	ENDS
;	COMDAT xdata
xdata	SEGMENT
$ip2state$??$min@_K@std@@YAAEB_KAEB_K0@Z DB 02H
	DB	00H
	DB	00H
xdata	ENDS
;	COMDAT xdata
xdata	SEGMENT
$cppxdata$??$min@_K@std@@YAAEB_KAEB_K0@Z DB 060H
	DD	imagerel $ip2state$??$min@_K@std@@YAAEB_KAEB_K0@Z
xdata	ENDS
;	COMDAT xdata
xdata	SEGMENT
$unwind$??$min@_K@std@@YAAEB_KAEB_K0@Z DD 025052f19H
	DD	01132318H
	DD	0700c0021H
	DD	0500bH
	DD	imagerel __CxxFrameHandler4
	DD	imagerel $cppxdata$??$min@_K@std@@YAAEB_KAEB_K0@Z
xdata	ENDS
;	COMDAT xdata
xdata	SEGMENT
$unwind$??$_Alloc_proxy@V?$allocator@U_Container_proxy@std@@@std@@@_Container_base12@std@@QEAAX$$QEAV?$allocator@U_Container_proxy@std@@@1@@Z DD 025052f01H
	DD	01132318H
	DD	0700c0025H
	DD	0500bH
xdata	ENDS
;	COMDAT xdata
xdata	SEGMENT
$ip2state$??$?0$$V@?$_Compressed_pair@V?$allocator@UEntry@LT@@@std@@V?$_Deque_val@U?$_Deque_simple_types@UEntry@LT@@@std@@@2@$00@std@@QEAA@U_Zero_then_variadic_args_t@1@@Z DB 02H
	DB	00H
	DB	00H
xdata	ENDS
;	COMDAT xdata
xdata	SEGMENT
$cppxdata$??$?0$$V@?$_Compressed_pair@V?$allocator@UEntry@LT@@@std@@V?$_Deque_val@U?$_Deque_simple_types@UEntry@LT@@@std@@@2@$00@std@@QEAA@U_Zero_then_variadic_args_t@1@@Z DB 060H
	DD	imagerel $ip2state$??$?0$$V@?$_Compressed_pair@V?$allocator@UEntry@LT@@@std@@V?$_Deque_val@U?$_Deque_simple_types@UEntry@LT@@@std@@@2@$00@std@@QEAA@U_Zero_then_variadic_args_t@1@@Z
xdata	ENDS
;	COMDAT xdata
xdata	SEGMENT
$unwind$??$?0$$V@?$_Compressed_pair@V?$allocator@UEntry@LT@@@std@@V?$_Deque_val@U?$_Deque_simple_types@UEntry@LT@@@std@@@2@$00@std@@QEAA@U_Zero_then_variadic_args_t@1@@Z DD 025052e19H
	DD	01122317H
	DD	0700b001dH
	DD	0500aH
	DD	imagerel __CxxFrameHandler4
	DD	imagerel $cppxdata$??$?0$$V@?$_Compressed_pair@V?$allocator@UEntry@LT@@@std@@V?$_Deque_val@U?$_Deque_simple_types@UEntry@LT@@@std@@@2@$00@std@@QEAA@U_Zero_then_variadic_args_t@1@@Z
xdata	ENDS
;	COMDAT xdata
xdata	SEGMENT
$ip2state$??$exchange@PEAU_Container_proxy@std@@$$T@std@@YAPEAU_Container_proxy@0@AEAPEAU10@$$QEA$$T@Z DB 02H
	DB	00H
	DB	00H
xdata	ENDS
;	COMDAT xdata
xdata	SEGMENT
$cppxdata$??$exchange@PEAU_Container_proxy@std@@$$T@std@@YAPEAU_Container_proxy@0@AEAPEAU10@$$QEA$$T@Z DB 060H
	DD	imagerel $ip2state$??$exchange@PEAU_Container_proxy@std@@$$T@std@@YAPEAU_Container_proxy@0@AEAPEAU10@$$QEA$$T@Z
xdata	ENDS
;	COMDAT xdata
xdata	SEGMENT
$unwind$??$exchange@PEAU_Container_proxy@std@@$$T@std@@YAPEAU_Container_proxy@0@AEAPEAU10@$$QEA$$T@Z DD 025052f19H
	DD	01132318H
	DD	0700c0021H
	DD	0500bH
	DD	imagerel __CxxFrameHandler4
	DD	imagerel $cppxdata$??$exchange@PEAU_Container_proxy@std@@$$T@std@@YAPEAU_Container_proxy@0@AEAPEAU10@$$QEA$$T@Z
xdata	ENDS
;	COMDAT xdata
xdata	SEGMENT
$ip2state$??$?0UEntry@LT@@@?$allocator@U_Container_proxy@std@@@std@@QEAA@AEBV?$allocator@UEntry@LT@@@1@@Z DB 02H
	DB	00H
	DB	00H
xdata	ENDS
;	COMDAT xdata
xdata	SEGMENT
$cppxdata$??$?0UEntry@LT@@@?$allocator@U_Container_proxy@std@@@std@@QEAA@AEBV?$allocator@UEntry@LT@@@1@@Z DB 060H
	DD	imagerel $ip2state$??$?0UEntry@LT@@@?$allocator@U_Container_proxy@std@@@std@@QEAA@AEBV?$allocator@UEntry@LT@@@1@@Z
xdata	ENDS
;	COMDAT xdata
xdata	SEGMENT
$unwind$??$?0UEntry@LT@@@?$allocator@U_Container_proxy@std@@@std@@QEAA@AEBV?$allocator@UEntry@LT@@@1@@Z DD 025052f19H
	DD	01132318H
	DD	0700c001dH
	DD	0500bH
	DD	imagerel __CxxFrameHandler4
	DD	imagerel $cppxdata$??$?0UEntry@LT@@@?$allocator@U_Container_proxy@std@@@std@@QEAA@AEBV?$allocator@UEntry@LT@@@1@@Z
xdata	ENDS
;	COMDAT xdata
xdata	SEGMENT
$ip2state$??$?0$$V@?$_Compressed_pair@V?$allocator@U?$_List_node@UEntry@LT@@PEAX@std@@@std@@V?$_List_val@U?$_List_simple_types@UEntry@LT@@@std@@@2@$00@std@@QEAA@U_Zero_then_variadic_args_t@1@@Z DB 02H
	DB	00H
	DB	00H
xdata	ENDS
;	COMDAT xdata
xdata	SEGMENT
$cppxdata$??$?0$$V@?$_Compressed_pair@V?$allocator@U?$_List_node@UEntry@LT@@PEAX@std@@@std@@V?$_List_val@U?$_List_simple_types@UEntry@LT@@@std@@@2@$00@std@@QEAA@U_Zero_then_variadic_args_t@1@@Z DB 060H
	DD	imagerel $ip2state$??$?0$$V@?$_Compressed_pair@V?$allocator@U?$_List_node@UEntry@LT@@PEAX@std@@@std@@V?$_List_val@U?$_List_simple_types@UEntry@LT@@@std@@@2@$00@std@@QEAA@U_Zero_then_variadic_args_t@1@@Z
xdata	ENDS
;	COMDAT xdata
xdata	SEGMENT
$unwind$??$?0$$V@?$_Compressed_pair@V?$allocator@U?$_List_node@UEntry@LT@@PEAX@std@@@std@@V?$_List_val@U?$_List_simple_types@UEntry@LT@@@std@@@2@$00@std@@QEAA@U_Zero_then_variadic_args_t@1@@Z DD 025052e19H
	DD	01122317H
	DD	0700b001dH
	DD	0500aH
	DD	imagerel __CxxFrameHandler4
	DD	imagerel $cppxdata$??$?0$$V@?$_Compressed_pair@V?$allocator@U?$_List_node@UEntry@LT@@PEAX@std@@@std@@V?$_List_val@U?$_List_simple_types@UEntry@LT@@@std@@@2@$00@std@@QEAA@U_Zero_then_variadic_args_t@1@@Z
xdata	ENDS
;	COMDAT xdata
xdata	SEGMENT
$ip2state$??$_Delete_plain_internal@V?$allocator@U_Container_proxy@std@@@std@@@std@@YAXAEAV?$allocator@U_Container_proxy@std@@@0@QEAU_Container_proxy@0@@Z DB 02H
	DB	00H
	DB	00H
xdata	ENDS
;	COMDAT xdata
xdata	SEGMENT
$cppxdata$??$_Delete_plain_internal@V?$allocator@U_Container_proxy@std@@@std@@@std@@YAXAEAV?$allocator@U_Container_proxy@std@@@0@QEAU_Container_proxy@0@@Z DB 060H
	DD	imagerel $ip2state$??$_Delete_plain_internal@V?$allocator@U_Container_proxy@std@@@std@@@std@@YAXAEAV?$allocator@U_Container_proxy@std@@@0@QEAU_Container_proxy@0@@Z
xdata	ENDS
;	COMDAT xdata
xdata	SEGMENT
$unwind$??$_Delete_plain_internal@V?$allocator@U_Container_proxy@std@@@std@@@std@@YAXAEAV?$allocator@U_Container_proxy@std@@@0@QEAU_Container_proxy@0@@Z DD 025052f19H
	DD	01132318H
	DD	0700c001dH
	DD	0500bH
	DD	imagerel __CxxFrameHandler4
	DD	imagerel $cppxdata$??$_Delete_plain_internal@V?$allocator@U_Container_proxy@std@@@std@@@std@@YAXAEAV?$allocator@U_Container_proxy@std@@@0@QEAU_Container_proxy@0@@Z
xdata	ENDS
;	COMDAT xdata
xdata	SEGMENT
$ip2state$??$?0U?$_List_node@UEntry@LT@@PEAX@std@@@?$allocator@U_Container_proxy@std@@@std@@QEAA@AEBV?$allocator@U?$_List_node@UEntry@LT@@PEAX@std@@@1@@Z DB 02H
	DB	00H
	DB	00H
xdata	ENDS
;	COMDAT xdata
xdata	SEGMENT
$cppxdata$??$?0U?$_List_node@UEntry@LT@@PEAX@std@@@?$allocator@U_Container_proxy@std@@@std@@QEAA@AEBV?$allocator@U?$_List_node@UEntry@LT@@PEAX@std@@@1@@Z DB 060H
	DD	imagerel $ip2state$??$?0U?$_List_node@UEntry@LT@@PEAX@std@@@?$allocator@U_Container_proxy@std@@@std@@QEAA@AEBV?$allocator@U?$_List_node@UEntry@LT@@PEAX@std@@@1@@Z
xdata	ENDS
;	COMDAT xdata
xdata	SEGMENT
$unwind$??$?0U?$_List_node@UEntry@LT@@PEAX@std@@@?$allocator@U_Container_proxy@std@@@std@@QEAA@AEBV?$allocator@U?$_List_node@UEntry@LT@@PEAX@std@@@1@@Z DD 025052f19H
	DD	01132318H
	DD	0700c001dH
	DD	0500bH
	DD	imagerel __CxxFrameHandler4
	DD	imagerel $cppxdata$??$?0U?$_List_node@UEntry@LT@@PEAX@std@@@?$allocator@U_Container_proxy@std@@@std@@QEAA@AEBV?$allocator@U?$_List_node@UEntry@LT@@PEAX@std@@@1@@Z
xdata	ENDS
;	COMDAT xdata
xdata	SEGMENT
$unwind$?allocate@?$allocator@U_Container_proxy@std@@@std@@QEAAPEAU_Container_proxy@2@_K@Z DD 025052f01H
	DD	01132318H
	DD	0700c001dH
	DD	0500bH
xdata	ENDS
;	COMDAT xdata
xdata	SEGMENT
$unwind$??$_Emplace@AEBUEntry@LT@@@?$list@UEntry@LT@@V?$allocator@UEntry@LT@@@std@@@std@@QEAAPEAU?$_List_node@UEntry@LT@@PEAX@1@QEAU21@AEBUEntry@LT@@@Z DD 025054519H
	DD	0118231dH
	DD	07011002dH
	DD	05010H
	DD	imagerel __GSHandlerCheck
	DD	0158H
xdata	ENDS
;	COMDAT CONST
CONST	SEGMENT
??$_Emplace@AEBUEntry@LT@@@?$list@UEntry@LT@@V?$allocator@UEntry@LT@@@std@@@std@@QEAAPEAU?$_List_node@UEntry@LT@@PEAX@1@QEAU21@AEBUEntry@LT@@@Z$rtcName$0 DB 05fH ; std::list<LT::Entry,std::allocator<LT::Entry> >::_Emplace<LT::Entry const &>
	DB	04fH
	DB	070H
	DB	00H
	ORG $+12
??$_Emplace@AEBUEntry@LT@@@?$list@UEntry@LT@@V?$allocator@UEntry@LT@@@std@@@std@@QEAAPEAU?$_List_node@UEntry@LT@@PEAX@1@QEAU21@AEBUEntry@LT@@@Z$rtcVarDesc DD 048H ; std::list<LT::Entry,std::allocator<LT::Entry> >::_Emplace<LT::Entry const &>
	DD	010H
	DQ	FLAT:??$_Emplace@AEBUEntry@LT@@@?$list@UEntry@LT@@V?$allocator@UEntry@LT@@@std@@@std@@QEAAPEAU?$_List_node@UEntry@LT@@PEAX@1@QEAU21@AEBUEntry@LT@@@Z$rtcName$0
	ORG $+48
??$_Emplace@AEBUEntry@LT@@@?$list@UEntry@LT@@V?$allocator@UEntry@LT@@@std@@@std@@QEAAPEAU?$_List_node@UEntry@LT@@PEAX@1@QEAU21@AEBUEntry@LT@@@Z$rtcFrameData DD 01H ; std::list<LT::Entry,std::allocator<LT::Entry> >::_Emplace<LT::Entry const &>
	DD	00H
	DQ	FLAT:??$_Emplace@AEBUEntry@LT@@@?$list@UEntry@LT@@V?$allocator@UEntry@LT@@@std@@@std@@QEAAPEAU?$_List_node@UEntry@LT@@PEAX@1@QEAU21@AEBUEntry@LT@@@Z$rtcVarDesc
CONST	ENDS
;	COMDAT xdata
xdata	SEGMENT
$unwind$?__autoclassinit2@?$list@UEntry@LT@@V?$allocator@UEntry@LT@@@std@@@std@@QEAAX_K@Z DD 05052d01H
	DD	01130316H
	DD	0700c0019H
	DD	0500bH
xdata	ENDS
;	COMDAT xdata
xdata	SEGMENT
$ip2state$?_Get_first@?$_Compressed_pair@V?$allocator@U?$_List_node@UEntry@LT@@PEAX@std@@@std@@V?$_List_val@U?$_List_simple_types@UEntry@LT@@@std@@@2@$00@std@@QEBAAEBV?$allocator@U?$_List_node@UEntry@LT@@PEAX@std@@@2@XZ DB 02H
	DB	00H
	DB	00H
xdata	ENDS
;	COMDAT xdata
xdata	SEGMENT
$cppxdata$?_Get_first@?$_Compressed_pair@V?$allocator@U?$_List_node@UEntry@LT@@PEAX@std@@@std@@V?$_List_val@U?$_List_simple_types@UEntry@LT@@@std@@@2@$00@std@@QEBAAEBV?$allocator@U?$_List_node@UEntry@LT@@PEAX@std@@@2@XZ DB 060H
	DD	imagerel $ip2state$?_Get_first@?$_Compressed_pair@V?$allocator@U?$_List_node@UEntry@LT@@PEAX@std@@@std@@V?$_List_val@U?$_List_simple_types@UEntry@LT@@@std@@@2@$00@std@@QEBAAEBV?$allocator@U?$_List_node@UEntry@LT@@PEAX@std@@@2@XZ
xdata	ENDS
;	COMDAT xdata
xdata	SEGMENT
$unwind$?_Get_first@?$_Compressed_pair@V?$allocator@U?$_List_node@UEntry@LT@@PEAX@std@@@std@@V?$_List_val@U?$_List_simple_types@UEntry@LT@@@std@@@2@$00@std@@QEBAAEBV?$allocator@U?$_List_node@UEntry@LT@@PEAX@std@@@2@XZ DD 025052a19H
	DD	010e2313H
	DD	07007001dH
	DD	05006H
	DD	imagerel __CxxFrameHandler4
	DD	imagerel $cppxdata$?_Get_first@?$_Compressed_pair@V?$allocator@U?$_List_node@UEntry@LT@@PEAX@std@@@std@@V?$_List_val@U?$_List_simple_types@UEntry@LT@@@std@@@2@$00@std@@QEBAAEBV?$allocator@U?$_List_node@UEntry@LT@@PEAX@std@@@2@XZ
xdata	ENDS
;	COMDAT xdata
xdata	SEGMENT
$ip2state$?_Get_first@?$_Compressed_pair@V?$allocator@U?$_List_node@UEntry@LT@@PEAX@std@@@std@@V?$_List_val@U?$_List_simple_types@UEntry@LT@@@std@@@2@$00@std@@QEAAAEAV?$allocator@U?$_List_node@UEntry@LT@@PEAX@std@@@2@XZ DB 02H
	DB	00H
	DB	00H
xdata	ENDS
;	COMDAT xdata
xdata	SEGMENT
$cppxdata$?_Get_first@?$_Compressed_pair@V?$allocator@U?$_List_node@UEntry@LT@@PEAX@std@@@std@@V?$_List_val@U?$_List_simple_types@UEntry@LT@@@std@@@2@$00@std@@QEAAAEAV?$allocator@U?$_List_node@UEntry@LT@@PEAX@std@@@2@XZ DB 060H
	DD	imagerel $ip2state$?_Get_first@?$_Compressed_pair@V?$allocator@U?$_List_node@UEntry@LT@@PEAX@std@@@std@@V?$_List_val@U?$_List_simple_types@UEntry@LT@@@std@@@2@$00@std@@QEAAAEAV?$allocator@U?$_List_node@UEntry@LT@@PEAX@std@@@2@XZ
xdata	ENDS
;	COMDAT xdata
xdata	SEGMENT
$unwind$?_Get_first@?$_Compressed_pair@V?$allocator@U?$_List_node@UEntry@LT@@PEAX@std@@@std@@V?$_List_val@U?$_List_simple_types@UEntry@LT@@@std@@@2@$00@std@@QEAAAEAV?$allocator@U?$_List_node@UEntry@LT@@PEAX@std@@@2@XZ DD 025052a19H
	DD	010e2313H
	DD	07007001dH
	DD	05006H
	DD	imagerel __CxxFrameHandler4
	DD	imagerel $cppxdata$?_Get_first@?$_Compressed_pair@V?$allocator@U?$_List_node@UEntry@LT@@PEAX@std@@@std@@V?$_List_val@U?$_List_simple_types@UEntry@LT@@@std@@@2@$00@std@@QEAAAEAV?$allocator@U?$_List_node@UEntry@LT@@PEAX@std@@@2@XZ
xdata	ENDS
;	COMDAT xdata
xdata	SEGMENT
$ip2state$?_Orphan_ptr2@?$_List_val@U?$_List_simple_types@UEntry@LT@@@std@@@std@@QEAAXPEAU?$_List_node@UEntry@LT@@PEAX@2@@Z DB 02H
	DB	00H
	DB	00H
xdata	ENDS
;	COMDAT xdata
xdata	SEGMENT
$cppxdata$?_Orphan_ptr2@?$_List_val@U?$_List_simple_types@UEntry@LT@@@std@@@std@@QEAAXPEAU?$_List_node@UEntry@LT@@PEAX@2@@Z DB 060H
	DD	imagerel $ip2state$?_Orphan_ptr2@?$_List_val@U?$_List_simple_types@UEntry@LT@@@std@@@std@@QEAAXPEAU?$_List_node@UEntry@LT@@PEAX@2@@Z
xdata	ENDS
;	COMDAT xdata
xdata	SEGMENT
$unwind$?_Orphan_ptr2@?$_List_val@U?$_List_simple_types@UEntry@LT@@@std@@@std@@QEAAXPEAU?$_List_node@UEntry@LT@@PEAX@2@@Z DD 025054019H
	DD	01132318H
	DD	0700c0031H
	DD	0500bH
	DD	imagerel __GSHandlerCheck_EH4
	DD	imagerel $cppxdata$?_Orphan_ptr2@?$_List_val@U?$_List_simple_types@UEntry@LT@@@std@@@std@@QEAAXPEAU?$_List_node@UEntry@LT@@PEAX@2@@Z
	DD	017bH
xdata	ENDS
;	COMDAT CONST
CONST	SEGMENT
?_Orphan_ptr2@?$_List_val@U?$_List_simple_types@UEntry@LT@@@std@@@std@@QEAAXPEAU?$_List_node@UEntry@LT@@PEAX@2@@Z$rtcName$0 DB 05fH ; std::_List_val<std::_List_simple_types<LT::Entry> >::_Orphan_ptr2
	DB	04cH
	DB	06fH
	DB	063H
	DB	06bH
	DB	00H
	ORG $+10
?_Orphan_ptr2@?$_List_val@U?$_List_simple_types@UEntry@LT@@@std@@@std@@QEAAXPEAU?$_List_node@UEntry@LT@@PEAX@2@@Z$rtcVarDesc DD 024H ; std::_List_val<std::_List_simple_types<LT::Entry> >::_Orphan_ptr2
	DD	04H
	DQ	FLAT:?_Orphan_ptr2@?$_List_val@U?$_List_simple_types@UEntry@LT@@@std@@@std@@QEAAXPEAU?$_List_node@UEntry@LT@@PEAX@2@@Z$rtcName$0
	ORG $+48
?_Orphan_ptr2@?$_List_val@U?$_List_simple_types@UEntry@LT@@@std@@@std@@QEAAXPEAU?$_List_node@UEntry@LT@@PEAX@2@@Z$rtcFrameData DD 01H ; std::_List_val<std::_List_simple_types<LT::Entry> >::_Orphan_ptr2
	DD	00H
	DQ	FLAT:?_Orphan_ptr2@?$_List_val@U?$_List_simple_types@UEntry@LT@@@std@@@std@@QEAAXPEAU?$_List_node@UEntry@LT@@PEAX@2@@Z$rtcVarDesc
CONST	ENDS
;	COMDAT xdata
xdata	SEGMENT
$ip2state$??0?$_List_val@U?$_List_simple_types@UEntry@LT@@@std@@@std@@QEAA@XZ DB 02H
	DB	00H
	DB	00H
xdata	ENDS
;	COMDAT xdata
xdata	SEGMENT
$cppxdata$??0?$_List_val@U?$_List_simple_types@UEntry@LT@@@std@@@std@@QEAA@XZ DB 060H
	DD	imagerel $ip2state$??0?$_List_val@U?$_List_simple_types@UEntry@LT@@@std@@@std@@QEAA@XZ
xdata	ENDS
;	COMDAT xdata
xdata	SEGMENT
$unwind$??0?$_List_val@U?$_List_simple_types@UEntry@LT@@@std@@@std@@QEAA@XZ DD 025052a19H
	DD	010e2313H
	DD	07007001dH
	DD	05006H
	DD	imagerel __CxxFrameHandler4
	DD	imagerel $cppxdata$??0?$_List_val@U?$_List_simple_types@UEntry@LT@@@std@@@std@@QEAA@XZ
xdata	ENDS
;	COMDAT xdata
xdata	SEGMENT
$ip2state$?_Getal@?$list@UEntry@LT@@V?$allocator@UEntry@LT@@@std@@@std@@AEBAAEBV?$allocator@U?$_List_node@UEntry@LT@@PEAX@std@@@2@XZ DB 02H
	DB	00H
	DB	00H
xdata	ENDS
;	COMDAT xdata
xdata	SEGMENT
$cppxdata$?_Getal@?$list@UEntry@LT@@V?$allocator@UEntry@LT@@@std@@@std@@AEBAAEBV?$allocator@U?$_List_node@UEntry@LT@@PEAX@std@@@2@XZ DB 060H
	DD	imagerel $ip2state$?_Getal@?$list@UEntry@LT@@V?$allocator@UEntry@LT@@@std@@@std@@AEBAAEBV?$allocator@U?$_List_node@UEntry@LT@@PEAX@std@@@2@XZ
xdata	ENDS
;	COMDAT xdata
xdata	SEGMENT
$unwind$?_Getal@?$list@UEntry@LT@@V?$allocator@UEntry@LT@@@std@@@std@@AEBAAEBV?$allocator@U?$_List_node@UEntry@LT@@PEAX@std@@@2@XZ DD 025052a19H
	DD	010e2313H
	DD	07007001dH
	DD	05006H
	DD	imagerel __CxxFrameHandler4
	DD	imagerel $cppxdata$?_Getal@?$list@UEntry@LT@@V?$allocator@UEntry@LT@@@std@@@std@@AEBAAEBV?$allocator@U?$_List_node@UEntry@LT@@PEAX@std@@@2@XZ
xdata	ENDS
;	COMDAT xdata
xdata	SEGMENT
$ip2state$?_Getal@?$list@UEntry@LT@@V?$allocator@UEntry@LT@@@std@@@std@@AEAAAEAV?$allocator@U?$_List_node@UEntry@LT@@PEAX@std@@@2@XZ DB 02H
	DB	00H
	DB	00H
xdata	ENDS
;	COMDAT xdata
xdata	SEGMENT
$cppxdata$?_Getal@?$list@UEntry@LT@@V?$allocator@UEntry@LT@@@std@@@std@@AEAAAEAV?$allocator@U?$_List_node@UEntry@LT@@PEAX@std@@@2@XZ DB 060H
	DD	imagerel $ip2state$?_Getal@?$list@UEntry@LT@@V?$allocator@UEntry@LT@@@std@@@std@@AEAAAEAV?$allocator@U?$_List_node@UEntry@LT@@PEAX@std@@@2@XZ
xdata	ENDS
;	COMDAT xdata
xdata	SEGMENT
$unwind$?_Getal@?$list@UEntry@LT@@V?$allocator@UEntry@LT@@@std@@@std@@AEAAAEAV?$allocator@U?$_List_node@UEntry@LT@@PEAX@std@@@2@XZ DD 025052a19H
	DD	010e2313H
	DD	07007001dH
	DD	05006H
	DD	imagerel __CxxFrameHandler4
	DD	imagerel $cppxdata$?_Getal@?$list@UEntry@LT@@V?$allocator@UEntry@LT@@@std@@@std@@AEAAAEAV?$allocator@U?$_List_node@UEntry@LT@@PEAX@std@@@2@XZ
xdata	ENDS
;	COMDAT xdata
xdata	SEGMENT
$unwind$?dtor$0@?0??_Alloc_sentinel_and_proxy@?$list@UEntry@LT@@V?$allocator@UEntry@LT@@@std@@@std@@AEAAXXZ@4HA DD 031001H
	DD	0700c4210H
	DD	0500bH
xdata	ENDS
;	COMDAT xdata
xdata	SEGMENT
$ip2state$?_Alloc_sentinel_and_proxy@?$list@UEntry@LT@@V?$allocator@UEntry@LT@@@std@@@std@@AEAAXXZ DB 06H
	DB	00H
	DB	00H
	DB	0feH
	DB	02H
	DB	0e2H
	DB	00H
xdata	ENDS
;	COMDAT xdata
xdata	SEGMENT
$stateUnwindMap$?_Alloc_sentinel_and_proxy@?$list@UEntry@LT@@V?$allocator@UEntry@LT@@@std@@@std@@AEAAXXZ DB 02H
	DB	0eH
	DD	imagerel ?dtor$0@?0??_Alloc_sentinel_and_proxy@?$list@UEntry@LT@@V?$allocator@UEntry@LT@@@std@@@std@@AEAAXXZ@4HA
xdata	ENDS
;	COMDAT xdata
xdata	SEGMENT
$cppxdata$?_Alloc_sentinel_and_proxy@?$list@UEntry@LT@@V?$allocator@UEntry@LT@@@std@@@std@@AEAAXXZ DB 028H
	DD	imagerel $stateUnwindMap$?_Alloc_sentinel_and_proxy@?$list@UEntry@LT@@V?$allocator@UEntry@LT@@@std@@@std@@AEAAXXZ
	DD	imagerel $ip2state$?_Alloc_sentinel_and_proxy@?$list@UEntry@LT@@V?$allocator@UEntry@LT@@@std@@@std@@AEAAXXZ
xdata	ENDS
;	COMDAT xdata
xdata	SEGMENT
$unwind$?_Alloc_sentinel_and_proxy@?$list@UEntry@LT@@V?$allocator@UEntry@LT@@@std@@@std@@AEAAXXZ DD 025053b19H
	DD	010e2313H
	DD	070070033H
	DD	05006H
	DD	imagerel __GSHandlerCheck_EH4
	DD	imagerel $cppxdata$?_Alloc_sentinel_and_proxy@?$list@UEntry@LT@@V?$allocator@UEntry@LT@@@std@@@std@@AEAAXXZ
	DD	018aH
xdata	ENDS
;	COMDAT CONST
CONST	SEGMENT
?_Alloc_sentinel_and_proxy@?$list@UEntry@LT@@V?$allocator@UEntry@LT@@@std@@@std@@AEAAXXZ$rtcName$0 DB 024H ; std::list<LT::Entry,std::allocator<LT::Entry> >::_Alloc_sentinel_and_proxy
	DB	053H
	DB	031H
	DB	034H
	DB	00H
	ORG $+3
?_Alloc_sentinel_and_proxy@?$list@UEntry@LT@@V?$allocator@UEntry@LT@@@std@@@std@@AEAAXXZ$rtcName$1 DB 05fH ; std::list<LT::Entry,std::allocator<LT::Entry> >::_Alloc_sentinel_and_proxy
	DB	050H
	DB	072H
	DB	06fH
	DB	078H
	DB	079H
	DB	00H
	ORG $+1
?_Alloc_sentinel_and_proxy@?$list@UEntry@LT@@V?$allocator@UEntry@LT@@@std@@@std@@AEAAXXZ$rtcName$2 DB 05fH ; std::list<LT::Entry,std::allocator<LT::Entry> >::_Alloc_sentinel_and_proxy
	DB	04eH
	DB	065H
	DB	077H
	DB	068H
	DB	065H
	DB	061H
	DB	064H
	DB	00H
	ORG $+7
?_Alloc_sentinel_and_proxy@?$list@UEntry@LT@@V?$allocator@UEntry@LT@@@std@@@std@@AEAAXXZ$rtcVarDesc DD 0b8H ; std::list<LT::Entry,std::allocator<LT::Entry> >::_Alloc_sentinel_and_proxy
	DD	08H
	DQ	FLAT:?_Alloc_sentinel_and_proxy@?$list@UEntry@LT@@V?$allocator@UEntry@LT@@@std@@@std@@AEAAXXZ$rtcName$2
	DD	068H
	DD	010H
	DQ	FLAT:?_Alloc_sentinel_and_proxy@?$list@UEntry@LT@@V?$allocator@UEntry@LT@@@std@@@std@@AEAAXXZ$rtcName$1
	DD	044H
	DD	01H
	DQ	FLAT:?_Alloc_sentinel_and_proxy@?$list@UEntry@LT@@V?$allocator@UEntry@LT@@@std@@@std@@AEAAXXZ$rtcName$0
	ORG $+144
?_Alloc_sentinel_and_proxy@?$list@UEntry@LT@@V?$allocator@UEntry@LT@@@std@@@std@@AEAAXXZ$rtcFrameData DD 03H ; std::list<LT::Entry,std::allocator<LT::Entry> >::_Alloc_sentinel_and_proxy
	DD	00H
	DQ	FLAT:?_Alloc_sentinel_and_proxy@?$list@UEntry@LT@@V?$allocator@UEntry@LT@@@std@@@std@@AEAAXXZ$rtcVarDesc
CONST	ENDS
;	COMDAT xdata
xdata	SEGMENT
$ip2state$?_Tidy@?$list@UEntry@LT@@V?$allocator@UEntry@LT@@@std@@@std@@AEAAXXZ DB 02H
	DB	00H
	DB	00H
xdata	ENDS
;	COMDAT xdata
xdata	SEGMENT
$cppxdata$?_Tidy@?$list@UEntry@LT@@V?$allocator@UEntry@LT@@@std@@@std@@AEAAXXZ DB 060H
	DD	imagerel $ip2state$?_Tidy@?$list@UEntry@LT@@V?$allocator@UEntry@LT@@@std@@@std@@AEAAXXZ
xdata	ENDS
;	COMDAT xdata
xdata	SEGMENT
$unwind$?_Tidy@?$list@UEntry@LT@@V?$allocator@UEntry@LT@@@std@@@std@@AEAAXXZ DD 025052a19H
	DD	010e2313H
	DD	070070025H
	DD	05006H
	DD	imagerel __CxxFrameHandler4
	DD	imagerel $cppxdata$?_Tidy@?$list@UEntry@LT@@V?$allocator@UEntry@LT@@@std@@@std@@AEAAXXZ
xdata	ENDS
;	COMDAT xdata
xdata	SEGMENT
$ip2state$?_Unchecked_erase@?$list@UEntry@LT@@V?$allocator@UEntry@LT@@@std@@@std@@AEAAPEAU?$_List_node@UEntry@LT@@PEAX@2@QEAU32@@Z DB 02H
	DB	00H
	DB	00H
xdata	ENDS
;	COMDAT xdata
xdata	SEGMENT
$cppxdata$?_Unchecked_erase@?$list@UEntry@LT@@V?$allocator@UEntry@LT@@@std@@@std@@AEAAPEAU?$_List_node@UEntry@LT@@PEAX@2@QEAU32@@Z DB 060H
	DD	imagerel $ip2state$?_Unchecked_erase@?$list@UEntry@LT@@V?$allocator@UEntry@LT@@@std@@@std@@AEAAPEAU?$_List_node@UEntry@LT@@PEAX@2@QEAU32@@Z
xdata	ENDS
;	COMDAT xdata
xdata	SEGMENT
$unwind$?_Unchecked_erase@?$list@UEntry@LT@@V?$allocator@UEntry@LT@@@std@@@std@@AEAAPEAU?$_List_node@UEntry@LT@@PEAX@2@QEAU32@@Z DD 025052f19H
	DD	01132318H
	DD	0700c0021H
	DD	0500bH
	DD	imagerel __CxxFrameHandler4
	DD	imagerel $cppxdata$?_Unchecked_erase@?$list@UEntry@LT@@V?$allocator@UEntry@LT@@@std@@@std@@AEAAPEAU?$_List_node@UEntry@LT@@PEAX@2@QEAU32@@Z
xdata	ENDS
;	COMDAT xdata
xdata	SEGMENT
$unwind$?push_back@?$list@UEntry@LT@@V?$allocator@UEntry@LT@@@std@@@std@@QEAAXAEBUEntry@LT@@@Z DD 025052f01H
	DD	01132318H
	DD	0700c001dH
	DD	0500bH
xdata	ENDS
;	COMDAT xdata
xdata	SEGMENT
$ip2state$?pop_front@?$list@UEntry@LT@@V?$allocator@UEntry@LT@@@std@@@std@@QEAAXXZ DB 02H
	DB	00H
	DB	00H
xdata	ENDS
;	COMDAT xdata
xdata	SEGMENT
$cppxdata$?pop_front@?$list@UEntry@LT@@V?$allocator@UEntry@LT@@@std@@@std@@QEAAXXZ DB 060H
	DD	imagerel $ip2state$?pop_front@?$list@UEntry@LT@@V?$allocator@UEntry@LT@@@std@@@std@@QEAAXXZ
xdata	ENDS
;	COMDAT xdata
xdata	SEGMENT
$unwind$?pop_front@?$list@UEntry@LT@@V?$allocator@UEntry@LT@@@std@@@std@@QEAAXXZ DD 035052a19H
	DD	010e3313H
	DD	07007001fH
	DD	05006H
	DD	imagerel __CxxFrameHandler4
	DD	imagerel $cppxdata$?pop_front@?$list@UEntry@LT@@V?$allocator@UEntry@LT@@@std@@@std@@QEAAXXZ
xdata	ENDS
;	COMDAT xdata
xdata	SEGMENT
$ip2state$?front@?$list@UEntry@LT@@V?$allocator@UEntry@LT@@@std@@@std@@QEAAAEAUEntry@LT@@XZ DB 02H
	DB	00H
	DB	00H
xdata	ENDS
;	COMDAT xdata
xdata	SEGMENT
$cppxdata$?front@?$list@UEntry@LT@@V?$allocator@UEntry@LT@@@std@@@std@@QEAAAEAUEntry@LT@@XZ DB 060H
	DD	imagerel $ip2state$?front@?$list@UEntry@LT@@V?$allocator@UEntry@LT@@@std@@@std@@QEAAAEAUEntry@LT@@XZ
xdata	ENDS
;	COMDAT xdata
xdata	SEGMENT
$unwind$?front@?$list@UEntry@LT@@V?$allocator@UEntry@LT@@@std@@@std@@QEAAAEAUEntry@LT@@XZ DD 035052a19H
	DD	010e3313H
	DD	07007001fH
	DD	05006H
	DD	imagerel __CxxFrameHandler4
	DD	imagerel $cppxdata$?front@?$list@UEntry@LT@@V?$allocator@UEntry@LT@@@std@@@std@@QEAAAEAUEntry@LT@@XZ
xdata	ENDS
;	COMDAT xdata
xdata	SEGMENT
$ip2state$?empty@?$list@UEntry@LT@@V?$allocator@UEntry@LT@@@std@@@std@@QEBA_NXZ DB 02H
	DB	00H
	DB	00H
xdata	ENDS
;	COMDAT xdata
xdata	SEGMENT
$cppxdata$?empty@?$list@UEntry@LT@@V?$allocator@UEntry@LT@@@std@@@std@@QEBA_NXZ DB 060H
	DD	imagerel $ip2state$?empty@?$list@UEntry@LT@@V?$allocator@UEntry@LT@@@std@@@std@@QEBA_NXZ
xdata	ENDS
;	COMDAT xdata
xdata	SEGMENT
$unwind$?empty@?$list@UEntry@LT@@V?$allocator@UEntry@LT@@@std@@@std@@QEBA_NXZ DD 025052a19H
	DD	010e2313H
	DD	07007001fH
	DD	05006H
	DD	imagerel __CxxFrameHandler4
	DD	imagerel $cppxdata$?empty@?$list@UEntry@LT@@V?$allocator@UEntry@LT@@@std@@@std@@QEBA_NXZ
xdata	ENDS
;	COMDAT xdata
xdata	SEGMENT
$ip2state$?max_size@?$list@UEntry@LT@@V?$allocator@UEntry@LT@@@std@@@std@@QEBA_KXZ DB 02H
	DB	00H
	DB	00H
xdata	ENDS
;	COMDAT xdata
xdata	SEGMENT
$cppxdata$?max_size@?$list@UEntry@LT@@V?$allocator@UEntry@LT@@@std@@@std@@QEBA_KXZ DB 060H
	DD	imagerel $ip2state$?max_size@?$list@UEntry@LT@@V?$allocator@UEntry@LT@@@std@@@std@@QEBA_KXZ
xdata	ENDS
;	COMDAT xdata
xdata	SEGMENT
$unwind$?max_size@?$list@UEntry@LT@@V?$allocator@UEntry@LT@@@std@@@std@@QEBA_KXZ DD 025052a19H
	DD	010e2313H
	DD	070070025H
	DD	05006H
	DD	imagerel __CxxFrameHandler4
	DD	imagerel $cppxdata$?max_size@?$list@UEntry@LT@@V?$allocator@UEntry@LT@@@std@@@std@@QEBA_KXZ
xdata	ENDS
;	COMDAT xdata
xdata	SEGMENT
$ip2state$??1?$list@UEntry@LT@@V?$allocator@UEntry@LT@@@std@@@std@@QEAA@XZ DB 02H
	DB	00H
	DB	00H
xdata	ENDS
;	COMDAT xdata
xdata	SEGMENT
$cppxdata$??1?$list@UEntry@LT@@V?$allocator@UEntry@LT@@@std@@@std@@QEAA@XZ DB 060H
	DD	imagerel $ip2state$??1?$list@UEntry@LT@@V?$allocator@UEntry@LT@@@std@@@std@@QEAA@XZ
xdata	ENDS
;	COMDAT xdata
xdata	SEGMENT
$unwind$??1?$list@UEntry@LT@@V?$allocator@UEntry@LT@@@std@@@std@@QEAA@XZ DD 025053b19H
	DD	010e2313H
	DD	070070025H
	DD	05006H
	DD	imagerel __GSHandlerCheck_EH4
	DD	imagerel $cppxdata$??1?$list@UEntry@LT@@V?$allocator@UEntry@LT@@@std@@@std@@QEAA@XZ
	DD	011bH
xdata	ENDS
;	COMDAT CONST
CONST	SEGMENT
??1?$list@UEntry@LT@@V?$allocator@UEntry@LT@@@std@@@std@@QEAA@XZ$rtcName$0 DB 024H ; std::list<LT::Entry,std::allocator<LT::Entry> >::~list<LT::Entry,std::allocator<LT::Entry> >
	DB	053H
	DB	031H
	DB	00H
	ORG $+12
??1?$list@UEntry@LT@@V?$allocator@UEntry@LT@@@std@@@std@@QEAA@XZ$rtcVarDesc DD 044H ; std::list<LT::Entry,std::allocator<LT::Entry> >::~list<LT::Entry,std::allocator<LT::Entry> >
	DD	01H
	DQ	FLAT:??1?$list@UEntry@LT@@V?$allocator@UEntry@LT@@@std@@@std@@QEAA@XZ$rtcName$0
	ORG $+48
??1?$list@UEntry@LT@@V?$allocator@UEntry@LT@@@std@@@std@@QEAA@XZ$rtcFrameData DD 01H ; std::list<LT::Entry,std::allocator<LT::Entry> >::~list<LT::Entry,std::allocator<LT::Entry> >
	DD	00H
	DQ	FLAT:??1?$list@UEntry@LT@@V?$allocator@UEntry@LT@@@std@@@std@@QEAA@XZ$rtcVarDesc
CONST	ENDS
;	COMDAT xdata
xdata	SEGMENT
$unwind$??0?$list@UEntry@LT@@V?$allocator@UEntry@LT@@@std@@@std@@QEAA@XZ DD 025052a01H
	DD	010e2313H
	DD	070070021H
	DD	05006H
xdata	ENDS
;	COMDAT xdata
xdata	SEGMENT
$ip2state$?max_size@?$_Default_allocator_traits@V?$allocator@U?$_List_node@UEntry@LT@@PEAX@std@@@std@@@std@@SA_KAEBV?$allocator@U?$_List_node@UEntry@LT@@PEAX@std@@@2@@Z DB 02H
	DB	00H
	DB	00H
xdata	ENDS
;	COMDAT xdata
xdata	SEGMENT
$cppxdata$?max_size@?$_Default_allocator_traits@V?$allocator@U?$_List_node@UEntry@LT@@PEAX@std@@@std@@@std@@SA_KAEBV?$allocator@U?$_List_node@UEntry@LT@@PEAX@std@@@2@@Z DB 060H
	DD	imagerel $ip2state$?max_size@?$_Default_allocator_traits@V?$allocator@U?$_List_node@UEntry@LT@@PEAX@std@@@std@@@std@@SA_KAEBV?$allocator@U?$_List_node@UEntry@LT@@PEAX@std@@@2@@Z
xdata	ENDS
;	COMDAT xdata
xdata	SEGMENT
$unwind$?max_size@?$_Default_allocator_traits@V?$allocator@U?$_List_node@UEntry@LT@@PEAX@std@@@std@@@std@@SA_KAEBV?$allocator@U?$_List_node@UEntry@LT@@PEAX@std@@@2@@Z DD 025052a19H
	DD	010e2313H
	DD	07007001dH
	DD	05006H
	DD	imagerel __CxxFrameHandler4
	DD	imagerel $cppxdata$?max_size@?$_Default_allocator_traits@V?$allocator@U?$_List_node@UEntry@LT@@PEAX@std@@@std@@@std@@SA_KAEBV?$allocator@U?$_List_node@UEntry@LT@@PEAX@std@@@2@@Z
xdata	ENDS
;	COMDAT xdata
xdata	SEGMENT
$unwind$?deallocate@?$_Default_allocator_traits@V?$allocator@U?$_List_node@UEntry@LT@@PEAX@std@@@std@@@std@@SAXAEAV?$allocator@U?$_List_node@UEntry@LT@@PEAX@std@@@2@QEAU?$_List_node@UEntry@LT@@PEAX@2@_K@Z DD 025053401H
	DD	0118231dH
	DD	07011001dH
	DD	05010H
xdata	ENDS
;	COMDAT xdata
xdata	SEGMENT
$unwind$?allocate@?$allocator@U?$_List_node@UEntry@LT@@PEAX@std@@@std@@QEAAPEAU?$_List_node@UEntry@LT@@PEAX@2@_K@Z DD 025052f01H
	DD	01132318H
	DD	0700c001dH
	DD	0500bH
xdata	ENDS
;	COMDAT xdata
xdata	SEGMENT
$unwind$?deallocate@?$allocator@U?$_List_node@UEntry@LT@@PEAX@std@@@std@@QEAAXQEAU?$_List_node@UEntry@LT@@PEAX@2@_K@Z DD 025053401H
	DD	0118231dH
	DD	07011001dH
	DD	05010H
xdata	ENDS
;	COMDAT xdata
xdata	SEGMENT
$ip2state$??0?$allocator@U?$_List_node@UEntry@LT@@PEAX@std@@@std@@QEAA@XZ DB 02H
	DB	00H
	DB	00H
xdata	ENDS
;	COMDAT xdata
xdata	SEGMENT
$cppxdata$??0?$allocator@U?$_List_node@UEntry@LT@@PEAX@std@@@std@@QEAA@XZ DB 060H
	DD	imagerel $ip2state$??0?$allocator@U?$_List_node@UEntry@LT@@PEAX@std@@@std@@QEAA@XZ
xdata	ENDS
;	COMDAT xdata
xdata	SEGMENT
$unwind$??0?$allocator@U?$_List_node@UEntry@LT@@PEAX@std@@@std@@QEAA@XZ DD 025052a19H
	DD	010e2313H
	DD	07007001dH
	DD	05006H
	DD	imagerel __CxxFrameHandler4
	DD	imagerel $cppxdata$??0?$allocator@U?$_List_node@UEntry@LT@@PEAX@std@@@std@@QEAA@XZ
xdata	ENDS
;	COMDAT xdata
xdata	SEGMENT
$unwind$?__autoclassinit2@?$stack@UEntry@LT@@V?$deque@UEntry@LT@@V?$allocator@UEntry@LT@@@std@@@std@@@std@@QEAAX_K@Z DD 05052d01H
	DD	01130316H
	DD	0700c0019H
	DD	0500bH
xdata	ENDS
;	COMDAT xdata
xdata	SEGMENT
$unwind$??1?$stack@UEntry@LT@@V?$deque@UEntry@LT@@V?$allocator@UEntry@LT@@@std@@@std@@@std@@QEAA@XZ DD 025052a01H
	DD	010e2313H
	DD	07007001dH
	DD	05006H
xdata	ENDS
;	COMDAT xdata
xdata	SEGMENT
$ip2state$?pop@?$stack@UEntry@LT@@V?$deque@UEntry@LT@@V?$allocator@UEntry@LT@@@std@@@std@@@std@@QEAAXXZ DB 02H
	DB	00H
	DB	00H
xdata	ENDS
;	COMDAT xdata
xdata	SEGMENT
$cppxdata$?pop@?$stack@UEntry@LT@@V?$deque@UEntry@LT@@V?$allocator@UEntry@LT@@@std@@@std@@@std@@QEAAXXZ DB 060H
	DD	imagerel $ip2state$?pop@?$stack@UEntry@LT@@V?$deque@UEntry@LT@@V?$allocator@UEntry@LT@@@std@@@std@@@std@@QEAAXXZ
xdata	ENDS
;	COMDAT xdata
xdata	SEGMENT
$unwind$?pop@?$stack@UEntry@LT@@V?$deque@UEntry@LT@@V?$allocator@UEntry@LT@@@std@@@std@@@std@@QEAAXXZ DD 025052a19H
	DD	010e2313H
	DD	07007001dH
	DD	05006H
	DD	imagerel __CxxFrameHandler4
	DD	imagerel $cppxdata$?pop@?$stack@UEntry@LT@@V?$deque@UEntry@LT@@V?$allocator@UEntry@LT@@@std@@@std@@@std@@QEAAXXZ
xdata	ENDS
;	COMDAT xdata
xdata	SEGMENT
$unwind$?push@?$stack@UEntry@LT@@V?$deque@UEntry@LT@@V?$allocator@UEntry@LT@@@std@@@std@@@std@@QEAAXAEBUEntry@LT@@@Z DD 025052f01H
	DD	01132318H
	DD	0700c001dH
	DD	0500bH
xdata	ENDS
;	COMDAT xdata
xdata	SEGMENT
$ip2state$?top@?$stack@UEntry@LT@@V?$deque@UEntry@LT@@V?$allocator@UEntry@LT@@@std@@@std@@@std@@QEAAAEAUEntry@LT@@XZ DB 02H
	DB	00H
	DB	00H
xdata	ENDS
;	COMDAT xdata
xdata	SEGMENT
$cppxdata$?top@?$stack@UEntry@LT@@V?$deque@UEntry@LT@@V?$allocator@UEntry@LT@@@std@@@std@@@std@@QEAAAEAUEntry@LT@@XZ DB 060H
	DD	imagerel $ip2state$?top@?$stack@UEntry@LT@@V?$deque@UEntry@LT@@V?$allocator@UEntry@LT@@@std@@@std@@@std@@QEAAAEAUEntry@LT@@XZ
xdata	ENDS
;	COMDAT xdata
xdata	SEGMENT
$unwind$?top@?$stack@UEntry@LT@@V?$deque@UEntry@LT@@V?$allocator@UEntry@LT@@@std@@@std@@@std@@QEAAAEAUEntry@LT@@XZ DD 025052a19H
	DD	010e2313H
	DD	07007001dH
	DD	05006H
	DD	imagerel __CxxFrameHandler4
	DD	imagerel $cppxdata$?top@?$stack@UEntry@LT@@V?$deque@UEntry@LT@@V?$allocator@UEntry@LT@@@std@@@std@@@std@@QEAAAEAUEntry@LT@@XZ
xdata	ENDS
;	COMDAT xdata
xdata	SEGMENT
$ip2state$?empty@?$stack@UEntry@LT@@V?$deque@UEntry@LT@@V?$allocator@UEntry@LT@@@std@@@std@@@std@@QEBA_NXZ DB 02H
	DB	00H
	DB	00H
xdata	ENDS
;	COMDAT xdata
xdata	SEGMENT
$cppxdata$?empty@?$stack@UEntry@LT@@V?$deque@UEntry@LT@@V?$allocator@UEntry@LT@@@std@@@std@@@std@@QEBA_NXZ DB 060H
	DD	imagerel $ip2state$?empty@?$stack@UEntry@LT@@V?$deque@UEntry@LT@@V?$allocator@UEntry@LT@@@std@@@std@@@std@@QEBA_NXZ
xdata	ENDS
;	COMDAT xdata
xdata	SEGMENT
$unwind$?empty@?$stack@UEntry@LT@@V?$deque@UEntry@LT@@V?$allocator@UEntry@LT@@@std@@@std@@@std@@QEBA_NXZ DD 025052a19H
	DD	010e2313H
	DD	07007001dH
	DD	05006H
	DD	imagerel __CxxFrameHandler4
	DD	imagerel $cppxdata$?empty@?$stack@UEntry@LT@@V?$deque@UEntry@LT@@V?$allocator@UEntry@LT@@@std@@@std@@@std@@QEBA_NXZ
xdata	ENDS
;	COMDAT xdata
xdata	SEGMENT
$ip2state$??0?$stack@UEntry@LT@@V?$deque@UEntry@LT@@V?$allocator@UEntry@LT@@@std@@@std@@@std@@QEAA@XZ DB 02H
	DB	00H
	DB	00H
xdata	ENDS
;	COMDAT xdata
xdata	SEGMENT
$cppxdata$??0?$stack@UEntry@LT@@V?$deque@UEntry@LT@@V?$allocator@UEntry@LT@@@std@@@std@@@std@@QEAA@XZ DB 060H
	DD	imagerel $ip2state$??0?$stack@UEntry@LT@@V?$deque@UEntry@LT@@V?$allocator@UEntry@LT@@@std@@@std@@@std@@QEAA@XZ
xdata	ENDS
;	COMDAT xdata
xdata	SEGMENT
$unwind$??0?$stack@UEntry@LT@@V?$deque@UEntry@LT@@V?$allocator@UEntry@LT@@@std@@@std@@@std@@QEAA@XZ DD 025052a19H
	DD	010e2313H
	DD	07007001dH
	DD	05006H
	DD	imagerel __CxxFrameHandler4
	DD	imagerel $cppxdata$??0?$stack@UEntry@LT@@V?$deque@UEntry@LT@@V?$allocator@UEntry@LT@@@std@@@std@@@std@@QEAA@XZ
xdata	ENDS
;	COMDAT xdata
xdata	SEGMENT
$ip2state$?_Get_first@?$_Compressed_pair@V?$allocator@UEntry@LT@@@std@@V?$_Deque_val@U?$_Deque_simple_types@UEntry@LT@@@std@@@2@$00@std@@QEBAAEBV?$allocator@UEntry@LT@@@2@XZ DB 02H
	DB	00H
	DB	00H
xdata	ENDS
;	COMDAT xdata
xdata	SEGMENT
$cppxdata$?_Get_first@?$_Compressed_pair@V?$allocator@UEntry@LT@@@std@@V?$_Deque_val@U?$_Deque_simple_types@UEntry@LT@@@std@@@2@$00@std@@QEBAAEBV?$allocator@UEntry@LT@@@2@XZ DB 060H
	DD	imagerel $ip2state$?_Get_first@?$_Compressed_pair@V?$allocator@UEntry@LT@@@std@@V?$_Deque_val@U?$_Deque_simple_types@UEntry@LT@@@std@@@2@$00@std@@QEBAAEBV?$allocator@UEntry@LT@@@2@XZ
xdata	ENDS
;	COMDAT xdata
xdata	SEGMENT
$unwind$?_Get_first@?$_Compressed_pair@V?$allocator@UEntry@LT@@@std@@V?$_Deque_val@U?$_Deque_simple_types@UEntry@LT@@@std@@@2@$00@std@@QEBAAEBV?$allocator@UEntry@LT@@@2@XZ DD 025052a19H
	DD	010e2313H
	DD	07007001dH
	DD	05006H
	DD	imagerel __CxxFrameHandler4
	DD	imagerel $cppxdata$?_Get_first@?$_Compressed_pair@V?$allocator@UEntry@LT@@@std@@V?$_Deque_val@U?$_Deque_simple_types@UEntry@LT@@@std@@@2@$00@std@@QEBAAEBV?$allocator@UEntry@LT@@@2@XZ
xdata	ENDS
;	COMDAT xdata
xdata	SEGMENT
$ip2state$?_Get_first@?$_Compressed_pair@V?$allocator@UEntry@LT@@@std@@V?$_Deque_val@U?$_Deque_simple_types@UEntry@LT@@@std@@@2@$00@std@@QEAAAEAV?$allocator@UEntry@LT@@@2@XZ DB 02H
	DB	00H
	DB	00H
xdata	ENDS
;	COMDAT xdata
xdata	SEGMENT
$cppxdata$?_Get_first@?$_Compressed_pair@V?$allocator@UEntry@LT@@@std@@V?$_Deque_val@U?$_Deque_simple_types@UEntry@LT@@@std@@@2@$00@std@@QEAAAEAV?$allocator@UEntry@LT@@@2@XZ DB 060H
	DD	imagerel $ip2state$?_Get_first@?$_Compressed_pair@V?$allocator@UEntry@LT@@@std@@V?$_Deque_val@U?$_Deque_simple_types@UEntry@LT@@@std@@@2@$00@std@@QEAAAEAV?$allocator@UEntry@LT@@@2@XZ
xdata	ENDS
;	COMDAT xdata
xdata	SEGMENT
$unwind$?_Get_first@?$_Compressed_pair@V?$allocator@UEntry@LT@@@std@@V?$_Deque_val@U?$_Deque_simple_types@UEntry@LT@@@std@@@2@$00@std@@QEAAAEAV?$allocator@UEntry@LT@@@2@XZ DD 025052a19H
	DD	010e2313H
	DD	07007001dH
	DD	05006H
	DD	imagerel __CxxFrameHandler4
	DD	imagerel $cppxdata$?_Get_first@?$_Compressed_pair@V?$allocator@UEntry@LT@@@std@@V?$_Deque_val@U?$_Deque_simple_types@UEntry@LT@@@std@@@2@$00@std@@QEAAAEAV?$allocator@UEntry@LT@@@2@XZ
xdata	ENDS
;	COMDAT xdata
xdata	SEGMENT
$ip2state$?_Getblock@?$_Deque_val@U?$_Deque_simple_types@UEntry@LT@@@std@@@std@@QEBA_K_K@Z DB 02H
	DB	00H
	DB	00H
xdata	ENDS
;	COMDAT xdata
xdata	SEGMENT
$cppxdata$?_Getblock@?$_Deque_val@U?$_Deque_simple_types@UEntry@LT@@@std@@@std@@QEBA_K_K@Z DB 060H
	DD	imagerel $ip2state$?_Getblock@?$_Deque_val@U?$_Deque_simple_types@UEntry@LT@@@std@@@std@@QEBA_K_K@Z
xdata	ENDS
;	COMDAT xdata
xdata	SEGMENT
$unwind$?_Getblock@?$_Deque_val@U?$_Deque_simple_types@UEntry@LT@@@std@@@std@@QEBA_K_K@Z DD 025052f19H
	DD	01132318H
	DD	0700c001dH
	DD	0500bH
	DD	imagerel __CxxFrameHandler4
	DD	imagerel $cppxdata$?_Getblock@?$_Deque_val@U?$_Deque_simple_types@UEntry@LT@@@std@@@std@@QEBA_K_K@Z
xdata	ENDS
;	COMDAT xdata
xdata	SEGMENT
$ip2state$??0?$_Deque_val@U?$_Deque_simple_types@UEntry@LT@@@std@@@std@@QEAA@XZ DB 02H
	DB	00H
	DB	00H
xdata	ENDS
;	COMDAT xdata
xdata	SEGMENT
$cppxdata$??0?$_Deque_val@U?$_Deque_simple_types@UEntry@LT@@@std@@@std@@QEAA@XZ DB 060H
	DD	imagerel $ip2state$??0?$_Deque_val@U?$_Deque_simple_types@UEntry@LT@@@std@@@std@@QEAA@XZ
xdata	ENDS
;	COMDAT xdata
xdata	SEGMENT
$unwind$??0?$_Deque_val@U?$_Deque_simple_types@UEntry@LT@@@std@@@std@@QEAA@XZ DD 025052a19H
	DD	010e2313H
	DD	07007001dH
	DD	05006H
	DD	imagerel __CxxFrameHandler4
	DD	imagerel $cppxdata$??0?$_Deque_val@U?$_Deque_simple_types@UEntry@LT@@@std@@@std@@QEAA@XZ
xdata	ENDS
;	COMDAT xdata
xdata	SEGMENT
$ip2state$?_Mysize@?$deque@UEntry@LT@@V?$allocator@UEntry@LT@@@std@@@std@@AEBAAEB_KXZ DB 02H
	DB	00H
	DB	00H
xdata	ENDS
;	COMDAT xdata
xdata	SEGMENT
$cppxdata$?_Mysize@?$deque@UEntry@LT@@V?$allocator@UEntry@LT@@@std@@@std@@AEBAAEB_KXZ DB 060H
	DD	imagerel $ip2state$?_Mysize@?$deque@UEntry@LT@@V?$allocator@UEntry@LT@@@std@@@std@@AEBAAEB_KXZ
xdata	ENDS
;	COMDAT xdata
xdata	SEGMENT
$unwind$?_Mysize@?$deque@UEntry@LT@@V?$allocator@UEntry@LT@@@std@@@std@@AEBAAEB_KXZ DD 025052a19H
	DD	010e2313H
	DD	07007001dH
	DD	05006H
	DD	imagerel __CxxFrameHandler4
	DD	imagerel $cppxdata$?_Mysize@?$deque@UEntry@LT@@V?$allocator@UEntry@LT@@@std@@@std@@AEBAAEB_KXZ
xdata	ENDS
;	COMDAT xdata
xdata	SEGMENT
$ip2state$?_Mysize@?$deque@UEntry@LT@@V?$allocator@UEntry@LT@@@std@@@std@@AEAAAEA_KXZ DB 02H
	DB	00H
	DB	00H
xdata	ENDS
;	COMDAT xdata
xdata	SEGMENT
$cppxdata$?_Mysize@?$deque@UEntry@LT@@V?$allocator@UEntry@LT@@@std@@@std@@AEAAAEA_KXZ DB 060H
	DD	imagerel $ip2state$?_Mysize@?$deque@UEntry@LT@@V?$allocator@UEntry@LT@@@std@@@std@@AEAAAEA_KXZ
xdata	ENDS
;	COMDAT xdata
xdata	SEGMENT
$unwind$?_Mysize@?$deque@UEntry@LT@@V?$allocator@UEntry@LT@@@std@@@std@@AEAAAEA_KXZ DD 025052a19H
	DD	010e2313H
	DD	07007001dH
	DD	05006H
	DD	imagerel __CxxFrameHandler4
	DD	imagerel $cppxdata$?_Mysize@?$deque@UEntry@LT@@V?$allocator@UEntry@LT@@@std@@@std@@AEAAAEA_KXZ
xdata	ENDS
;	COMDAT xdata
xdata	SEGMENT
$ip2state$?_Myoff@?$deque@UEntry@LT@@V?$allocator@UEntry@LT@@@std@@@std@@AEBAAEB_KXZ DB 02H
	DB	00H
	DB	00H
xdata	ENDS
;	COMDAT xdata
xdata	SEGMENT
$cppxdata$?_Myoff@?$deque@UEntry@LT@@V?$allocator@UEntry@LT@@@std@@@std@@AEBAAEB_KXZ DB 060H
	DD	imagerel $ip2state$?_Myoff@?$deque@UEntry@LT@@V?$allocator@UEntry@LT@@@std@@@std@@AEBAAEB_KXZ
xdata	ENDS
;	COMDAT xdata
xdata	SEGMENT
$unwind$?_Myoff@?$deque@UEntry@LT@@V?$allocator@UEntry@LT@@@std@@@std@@AEBAAEB_KXZ DD 025052a19H
	DD	010e2313H
	DD	07007001dH
	DD	05006H
	DD	imagerel __CxxFrameHandler4
	DD	imagerel $cppxdata$?_Myoff@?$deque@UEntry@LT@@V?$allocator@UEntry@LT@@@std@@@std@@AEBAAEB_KXZ
xdata	ENDS
;	COMDAT xdata
xdata	SEGMENT
$ip2state$?_Myoff@?$deque@UEntry@LT@@V?$allocator@UEntry@LT@@@std@@@std@@AEAAAEA_KXZ DB 02H
	DB	00H
	DB	00H
xdata	ENDS
;	COMDAT xdata
xdata	SEGMENT
$cppxdata$?_Myoff@?$deque@UEntry@LT@@V?$allocator@UEntry@LT@@@std@@@std@@AEAAAEA_KXZ DB 060H
	DD	imagerel $ip2state$?_Myoff@?$deque@UEntry@LT@@V?$allocator@UEntry@LT@@@std@@@std@@AEAAAEA_KXZ
xdata	ENDS
;	COMDAT xdata
xdata	SEGMENT
$unwind$?_Myoff@?$deque@UEntry@LT@@V?$allocator@UEntry@LT@@@std@@@std@@AEAAAEA_KXZ DD 025052a19H
	DD	010e2313H
	DD	07007001dH
	DD	05006H
	DD	imagerel __CxxFrameHandler4
	DD	imagerel $cppxdata$?_Myoff@?$deque@UEntry@LT@@V?$allocator@UEntry@LT@@@std@@@std@@AEAAAEA_KXZ
xdata	ENDS
;	COMDAT xdata
xdata	SEGMENT
$ip2state$?_Mapsize@?$deque@UEntry@LT@@V?$allocator@UEntry@LT@@@std@@@std@@AEAAAEA_KXZ DB 02H
	DB	00H
	DB	00H
xdata	ENDS
;	COMDAT xdata
xdata	SEGMENT
$cppxdata$?_Mapsize@?$deque@UEntry@LT@@V?$allocator@UEntry@LT@@@std@@@std@@AEAAAEA_KXZ DB 060H
	DD	imagerel $ip2state$?_Mapsize@?$deque@UEntry@LT@@V?$allocator@UEntry@LT@@@std@@@std@@AEAAAEA_KXZ
xdata	ENDS
;	COMDAT xdata
xdata	SEGMENT
$unwind$?_Mapsize@?$deque@UEntry@LT@@V?$allocator@UEntry@LT@@@std@@@std@@AEAAAEA_KXZ DD 025052a19H
	DD	010e2313H
	DD	07007001dH
	DD	05006H
	DD	imagerel __CxxFrameHandler4
	DD	imagerel $cppxdata$?_Mapsize@?$deque@UEntry@LT@@V?$allocator@UEntry@LT@@@std@@@std@@AEAAAEA_KXZ
xdata	ENDS
;	COMDAT xdata
xdata	SEGMENT
$ip2state$?_Map@?$deque@UEntry@LT@@V?$allocator@UEntry@LT@@@std@@@std@@AEAAAEAPEAPEAUEntry@LT@@XZ DB 02H
	DB	00H
	DB	00H
xdata	ENDS
;	COMDAT xdata
xdata	SEGMENT
$cppxdata$?_Map@?$deque@UEntry@LT@@V?$allocator@UEntry@LT@@@std@@@std@@AEAAAEAPEAPEAUEntry@LT@@XZ DB 060H
	DD	imagerel $ip2state$?_Map@?$deque@UEntry@LT@@V?$allocator@UEntry@LT@@@std@@@std@@AEAAAEAPEAPEAUEntry@LT@@XZ
xdata	ENDS
;	COMDAT xdata
xdata	SEGMENT
$unwind$?_Map@?$deque@UEntry@LT@@V?$allocator@UEntry@LT@@@std@@@std@@AEAAAEAPEAPEAUEntry@LT@@XZ DD 025052a19H
	DD	010e2313H
	DD	07007001dH
	DD	05006H
	DD	imagerel __CxxFrameHandler4
	DD	imagerel $cppxdata$?_Map@?$deque@UEntry@LT@@V?$allocator@UEntry@LT@@@std@@@std@@AEAAAEAPEAPEAUEntry@LT@@XZ
xdata	ENDS
;	COMDAT xdata
xdata	SEGMENT
$ip2state$?_Get_data@?$deque@UEntry@LT@@V?$allocator@UEntry@LT@@@std@@@std@@AEBAAEBV?$_Deque_val@U?$_Deque_simple_types@UEntry@LT@@@std@@@2@XZ DB 02H
	DB	00H
	DB	00H
xdata	ENDS
;	COMDAT xdata
xdata	SEGMENT
$cppxdata$?_Get_data@?$deque@UEntry@LT@@V?$allocator@UEntry@LT@@@std@@@std@@AEBAAEBV?$_Deque_val@U?$_Deque_simple_types@UEntry@LT@@@std@@@2@XZ DB 060H
	DD	imagerel $ip2state$?_Get_data@?$deque@UEntry@LT@@V?$allocator@UEntry@LT@@@std@@@std@@AEBAAEBV?$_Deque_val@U?$_Deque_simple_types@UEntry@LT@@@std@@@2@XZ
xdata	ENDS
;	COMDAT xdata
xdata	SEGMENT
$unwind$?_Get_data@?$deque@UEntry@LT@@V?$allocator@UEntry@LT@@@std@@@std@@AEBAAEBV?$_Deque_val@U?$_Deque_simple_types@UEntry@LT@@@std@@@2@XZ DD 025052a19H
	DD	010e2313H
	DD	07007001dH
	DD	05006H
	DD	imagerel __CxxFrameHandler4
	DD	imagerel $cppxdata$?_Get_data@?$deque@UEntry@LT@@V?$allocator@UEntry@LT@@@std@@@std@@AEBAAEBV?$_Deque_val@U?$_Deque_simple_types@UEntry@LT@@@std@@@2@XZ
xdata	ENDS
;	COMDAT xdata
xdata	SEGMENT
$ip2state$?_Get_data@?$deque@UEntry@LT@@V?$allocator@UEntry@LT@@@std@@@std@@AEAAAEAV?$_Deque_val@U?$_Deque_simple_types@UEntry@LT@@@std@@@2@XZ DB 02H
	DB	00H
	DB	00H
xdata	ENDS
;	COMDAT xdata
xdata	SEGMENT
$cppxdata$?_Get_data@?$deque@UEntry@LT@@V?$allocator@UEntry@LT@@@std@@@std@@AEAAAEAV?$_Deque_val@U?$_Deque_simple_types@UEntry@LT@@@std@@@2@XZ DB 060H
	DD	imagerel $ip2state$?_Get_data@?$deque@UEntry@LT@@V?$allocator@UEntry@LT@@@std@@@std@@AEAAAEAV?$_Deque_val@U?$_Deque_simple_types@UEntry@LT@@@std@@@2@XZ
xdata	ENDS
;	COMDAT xdata
xdata	SEGMENT
$unwind$?_Get_data@?$deque@UEntry@LT@@V?$allocator@UEntry@LT@@@std@@@std@@AEAAAEAV?$_Deque_val@U?$_Deque_simple_types@UEntry@LT@@@std@@@2@XZ DD 025052a19H
	DD	010e2313H
	DD	07007001dH
	DD	05006H
	DD	imagerel __CxxFrameHandler4
	DD	imagerel $cppxdata$?_Get_data@?$deque@UEntry@LT@@V?$allocator@UEntry@LT@@@std@@@std@@AEAAAEAV?$_Deque_val@U?$_Deque_simple_types@UEntry@LT@@@std@@@2@XZ
xdata	ENDS
;	COMDAT xdata
xdata	SEGMENT
$ip2state$?_Getal@?$deque@UEntry@LT@@V?$allocator@UEntry@LT@@@std@@@std@@AEBAAEBV?$allocator@UEntry@LT@@@2@XZ DB 02H
	DB	00H
	DB	00H
xdata	ENDS
;	COMDAT xdata
xdata	SEGMENT
$cppxdata$?_Getal@?$deque@UEntry@LT@@V?$allocator@UEntry@LT@@@std@@@std@@AEBAAEBV?$allocator@UEntry@LT@@@2@XZ DB 060H
	DD	imagerel $ip2state$?_Getal@?$deque@UEntry@LT@@V?$allocator@UEntry@LT@@@std@@@std@@AEBAAEBV?$allocator@UEntry@LT@@@2@XZ
xdata	ENDS
;	COMDAT xdata
xdata	SEGMENT
$unwind$?_Getal@?$deque@UEntry@LT@@V?$allocator@UEntry@LT@@@std@@@std@@AEBAAEBV?$allocator@UEntry@LT@@@2@XZ DD 025052a19H
	DD	010e2313H
	DD	07007001dH
	DD	05006H
	DD	imagerel __CxxFrameHandler4
	DD	imagerel $cppxdata$?_Getal@?$deque@UEntry@LT@@V?$allocator@UEntry@LT@@@std@@@std@@AEBAAEBV?$allocator@UEntry@LT@@@2@XZ
xdata	ENDS
;	COMDAT xdata
xdata	SEGMENT
$ip2state$?_Getal@?$deque@UEntry@LT@@V?$allocator@UEntry@LT@@@std@@@std@@AEAAAEAV?$allocator@UEntry@LT@@@2@XZ DB 02H
	DB	00H
	DB	00H
xdata	ENDS
;	COMDAT xdata
xdata	SEGMENT
$cppxdata$?_Getal@?$deque@UEntry@LT@@V?$allocator@UEntry@LT@@@std@@@std@@AEAAAEAV?$allocator@UEntry@LT@@@2@XZ DB 060H
	DD	imagerel $ip2state$?_Getal@?$deque@UEntry@LT@@V?$allocator@UEntry@LT@@@std@@@std@@AEAAAEAV?$allocator@UEntry@LT@@@2@XZ
xdata	ENDS
;	COMDAT xdata
xdata	SEGMENT
$unwind$?_Getal@?$deque@UEntry@LT@@V?$allocator@UEntry@LT@@@std@@@std@@AEAAAEAV?$allocator@UEntry@LT@@@2@XZ DD 025052a19H
	DD	010e2313H
	DD	07007001dH
	DD	05006H
	DD	imagerel __CxxFrameHandler4
	DD	imagerel $cppxdata$?_Getal@?$deque@UEntry@LT@@V?$allocator@UEntry@LT@@@std@@@std@@AEAAAEAV?$allocator@UEntry@LT@@@2@XZ
xdata	ENDS
;	COMDAT xdata
xdata	SEGMENT
$ip2state$?_Orphan_all@?$deque@UEntry@LT@@V?$allocator@UEntry@LT@@@std@@@std@@AEAAXXZ DB 02H
	DB	00H
	DB	00H
xdata	ENDS
;	COMDAT xdata
xdata	SEGMENT
$cppxdata$?_Orphan_all@?$deque@UEntry@LT@@V?$allocator@UEntry@LT@@@std@@@std@@AEAAXXZ DB 060H
	DD	imagerel $ip2state$?_Orphan_all@?$deque@UEntry@LT@@V?$allocator@UEntry@LT@@@std@@@std@@AEAAXXZ
xdata	ENDS
;	COMDAT xdata
xdata	SEGMENT
$unwind$?_Orphan_all@?$deque@UEntry@LT@@V?$allocator@UEntry@LT@@@std@@@std@@AEAAXXZ DD 025052a19H
	DD	010e2313H
	DD	07007001dH
	DD	05006H
	DD	imagerel __CxxFrameHandler4
	DD	imagerel $cppxdata$?_Orphan_all@?$deque@UEntry@LT@@V?$allocator@UEntry@LT@@@std@@@std@@AEAAXXZ
xdata	ENDS
;	COMDAT xdata
xdata	SEGMENT
$ip2state$?_Getblock@?$deque@UEntry@LT@@V?$allocator@UEntry@LT@@@std@@@std@@AEBA_K_K@Z DB 02H
	DB	00H
	DB	00H
xdata	ENDS
;	COMDAT xdata
xdata	SEGMENT
$cppxdata$?_Getblock@?$deque@UEntry@LT@@V?$allocator@UEntry@LT@@@std@@@std@@AEBA_K_K@Z DB 060H
	DD	imagerel $ip2state$?_Getblock@?$deque@UEntry@LT@@V?$allocator@UEntry@LT@@@std@@@std@@AEBA_K_K@Z
xdata	ENDS
;	COMDAT xdata
xdata	SEGMENT
$unwind$?_Getblock@?$deque@UEntry@LT@@V?$allocator@UEntry@LT@@@std@@@std@@AEBA_K_K@Z DD 025052f19H
	DD	01132318H
	DD	0700c001dH
	DD	0500bH
	DD	imagerel __CxxFrameHandler4
	DD	imagerel $cppxdata$?_Getblock@?$deque@UEntry@LT@@V?$allocator@UEntry@LT@@@std@@@std@@AEBA_K_K@Z
xdata	ENDS
;	COMDAT xdata
xdata	SEGMENT
$ip2state$?_Orphan_off@?$deque@UEntry@LT@@V?$allocator@UEntry@LT@@@std@@@std@@AEBAX_K@Z DB 02H
	DB	00H
	DB	00H
xdata	ENDS
;	COMDAT xdata
xdata	SEGMENT
$cppxdata$?_Orphan_off@?$deque@UEntry@LT@@V?$allocator@UEntry@LT@@@std@@@std@@AEBAX_K@Z DB 060H
	DD	imagerel $ip2state$?_Orphan_off@?$deque@UEntry@LT@@V?$allocator@UEntry@LT@@@std@@@std@@AEBAX_K@Z
xdata	ENDS
;	COMDAT xdata
xdata	SEGMENT
$unwind$?_Orphan_off@?$deque@UEntry@LT@@V?$allocator@UEntry@LT@@@std@@@std@@AEBAX_K@Z DD 025054019H
	DD	01132318H
	DD	0700c002fH
	DD	0500bH
	DD	imagerel __GSHandlerCheck_EH4
	DD	imagerel $cppxdata$?_Orphan_off@?$deque@UEntry@LT@@V?$allocator@UEntry@LT@@@std@@@std@@AEBAX_K@Z
	DD	016bH
xdata	ENDS
;	COMDAT CONST
CONST	SEGMENT
?_Orphan_off@?$deque@UEntry@LT@@V?$allocator@UEntry@LT@@@std@@@std@@AEBAX_K@Z$rtcName$0 DB 05fH ; std::deque<LT::Entry,std::allocator<LT::Entry> >::_Orphan_off
	DB	04cH
	DB	06fH
	DB	063H
	DB	06bH
	DB	00H
	ORG $+10
?_Orphan_off@?$deque@UEntry@LT@@V?$allocator@UEntry@LT@@@std@@@std@@AEBAX_K@Z$rtcVarDesc DD 044H ; std::deque<LT::Entry,std::allocator<LT::Entry> >::_Orphan_off
	DD	04H
	DQ	FLAT:?_Orphan_off@?$deque@UEntry@LT@@V?$allocator@UEntry@LT@@@std@@@std@@AEBAX_K@Z$rtcName$0
	ORG $+48
?_Orphan_off@?$deque@UEntry@LT@@V?$allocator@UEntry@LT@@@std@@@std@@AEBAX_K@Z$rtcFrameData DD 01H ; std::deque<LT::Entry,std::allocator<LT::Entry> >::_Orphan_off
	DD	00H
	DQ	FLAT:?_Orphan_off@?$deque@UEntry@LT@@V?$allocator@UEntry@LT@@@std@@@std@@AEBAX_K@Z$rtcVarDesc
CONST	ENDS
;	COMDAT xdata
xdata	SEGMENT
$ip2state$?_Tidy@?$deque@UEntry@LT@@V?$allocator@UEntry@LT@@@std@@@std@@AEAAXXZ DB 02H
	DB	00H
	DB	00H
xdata	ENDS
;	COMDAT xdata
xdata	SEGMENT
$cppxdata$?_Tidy@?$deque@UEntry@LT@@V?$allocator@UEntry@LT@@@std@@@std@@AEAAXXZ DB 060H
	DD	imagerel $ip2state$?_Tidy@?$deque@UEntry@LT@@V?$allocator@UEntry@LT@@@std@@@std@@AEAAXXZ
xdata	ENDS
;	COMDAT xdata
xdata	SEGMENT
$unwind$?_Tidy@?$deque@UEntry@LT@@V?$allocator@UEntry@LT@@@std@@@std@@AEAAXXZ DD 025053b19H
	DD	010e2313H
	DD	070070027H
	DD	05006H
	DD	imagerel __GSHandlerCheck_EH4
	DD	imagerel $cppxdata$?_Tidy@?$deque@UEntry@LT@@V?$allocator@UEntry@LT@@@std@@@std@@AEAAXXZ
	DD	0123H
xdata	ENDS
;	COMDAT CONST
CONST	SEGMENT
?_Tidy@?$deque@UEntry@LT@@V?$allocator@UEntry@LT@@@std@@@std@@AEAAXXZ$rtcName$0 DB 05fH ; std::deque<LT::Entry,std::allocator<LT::Entry> >::_Tidy
	DB	041H
	DB	06cH
	DB	06dH
	DB	061H
	DB	070H
	DB	00H
	ORG $+9
?_Tidy@?$deque@UEntry@LT@@V?$allocator@UEntry@LT@@@std@@@std@@AEAAXXZ$rtcVarDesc DD 024H ; std::deque<LT::Entry,std::allocator<LT::Entry> >::_Tidy
	DD	01H
	DQ	FLAT:?_Tidy@?$deque@UEntry@LT@@V?$allocator@UEntry@LT@@@std@@@std@@AEAAXXZ$rtcName$0
	ORG $+48
?_Tidy@?$deque@UEntry@LT@@V?$allocator@UEntry@LT@@@std@@@std@@AEAAXXZ$rtcFrameData DD 01H ; std::deque<LT::Entry,std::allocator<LT::Entry> >::_Tidy
	DD	00H
	DQ	FLAT:?_Tidy@?$deque@UEntry@LT@@V?$allocator@UEntry@LT@@@std@@@std@@AEAAXXZ$rtcVarDesc
CONST	ENDS
;	COMDAT xdata
xdata	SEGMENT
$unwind$?_Growmap@?$deque@UEntry@LT@@V?$allocator@UEntry@LT@@@std@@@std@@AEAAX_K@Z DD 025054019H
	DD	01132318H
	DD	0700c0033H
	DD	0500bH
	DD	imagerel __GSHandlerCheck
	DD	0188H
xdata	ENDS
;	COMDAT CONST
CONST	SEGMENT
?_Growmap@?$deque@UEntry@LT@@V?$allocator@UEntry@LT@@@std@@@std@@AEAAX_K@Z$rtcName$0 DB 05fH ; std::deque<LT::Entry,std::allocator<LT::Entry> >::_Growmap
	DB	041H
	DB	06cH
	DB	06dH
	DB	061H
	DB	070H
	DB	00H
	ORG $+9
?_Growmap@?$deque@UEntry@LT@@V?$allocator@UEntry@LT@@@std@@@std@@AEAAX_K@Z$rtcVarDesc DD 024H ; std::deque<LT::Entry,std::allocator<LT::Entry> >::_Growmap
	DD	01H
	DQ	FLAT:?_Growmap@?$deque@UEntry@LT@@V?$allocator@UEntry@LT@@@std@@@std@@AEAAX_K@Z$rtcName$0
	ORG $+48
?_Growmap@?$deque@UEntry@LT@@V?$allocator@UEntry@LT@@@std@@@std@@AEAAX_K@Z$rtcFrameData DD 01H ; std::deque<LT::Entry,std::allocator<LT::Entry> >::_Growmap
	DD	00H
	DQ	FLAT:?_Growmap@?$deque@UEntry@LT@@V?$allocator@UEntry@LT@@@std@@@std@@AEAAX_K@Z$rtcVarDesc
CONST	ENDS
;	COMDAT xdata
xdata	SEGMENT
$unwind$?_Xlen@?$deque@UEntry@LT@@V?$allocator@UEntry@LT@@@std@@@std@@AEBAXXZ DD 025052a01H
	DD	010e2313H
	DD	07007001dH
	DD	05006H
xdata	ENDS
;	COMDAT xdata
xdata	SEGMENT
$ip2state$?pop_back@?$deque@UEntry@LT@@V?$allocator@UEntry@LT@@@std@@@std@@QEAAXXZ DB 02H
	DB	00H
	DB	00H
xdata	ENDS
;	COMDAT xdata
xdata	SEGMENT
$cppxdata$?pop_back@?$deque@UEntry@LT@@V?$allocator@UEntry@LT@@@std@@@std@@QEAAXXZ DB 060H
	DD	imagerel $ip2state$?pop_back@?$deque@UEntry@LT@@V?$allocator@UEntry@LT@@@std@@@std@@QEAAXXZ
xdata	ENDS
;	COMDAT xdata
xdata	SEGMENT
$unwind$?pop_back@?$deque@UEntry@LT@@V?$allocator@UEntry@LT@@@std@@@std@@QEAAXXZ DD 035052a19H
	DD	010e3313H
	DD	070070027H
	DD	05006H
	DD	imagerel __CxxFrameHandler4
	DD	imagerel $cppxdata$?pop_back@?$deque@UEntry@LT@@V?$allocator@UEntry@LT@@@std@@@std@@QEAAXXZ
xdata	ENDS
;	COMDAT xdata
xdata	SEGMENT
$unwind$?push_back@?$deque@UEntry@LT@@V?$allocator@UEntry@LT@@@std@@@std@@QEAAXAEBUEntry@LT@@@Z DD 025052f01H
	DD	01132318H
	DD	0700c001dH
	DD	0500bH
xdata	ENDS
;	COMDAT xdata
xdata	SEGMENT
$ip2state$?back@?$deque@UEntry@LT@@V?$allocator@UEntry@LT@@@std@@@std@@QEAAAEAUEntry@LT@@XZ DB 02H
	DB	00H
	DB	00H
xdata	ENDS
;	COMDAT xdata
xdata	SEGMENT
$cppxdata$?back@?$deque@UEntry@LT@@V?$allocator@UEntry@LT@@@std@@@std@@QEAAAEAUEntry@LT@@XZ DB 060H
	DD	imagerel $ip2state$?back@?$deque@UEntry@LT@@V?$allocator@UEntry@LT@@@std@@@std@@QEAAAEAUEntry@LT@@XZ
xdata	ENDS
;	COMDAT xdata
xdata	SEGMENT
$unwind$?back@?$deque@UEntry@LT@@V?$allocator@UEntry@LT@@@std@@@std@@QEAAAEAUEntry@LT@@XZ DD 035052a19H
	DD	010e3313H
	DD	07007002bH
	DD	05006H
	DD	imagerel __CxxFrameHandler4
	DD	imagerel $cppxdata$?back@?$deque@UEntry@LT@@V?$allocator@UEntry@LT@@@std@@@std@@QEAAAEAUEntry@LT@@XZ
xdata	ENDS
;	COMDAT xdata
xdata	SEGMENT
$ip2state$?empty@?$deque@UEntry@LT@@V?$allocator@UEntry@LT@@@std@@@std@@QEBA_NXZ DB 02H
	DB	00H
	DB	00H
xdata	ENDS
;	COMDAT xdata
xdata	SEGMENT
$cppxdata$?empty@?$deque@UEntry@LT@@V?$allocator@UEntry@LT@@@std@@@std@@QEBA_NXZ DB 060H
	DD	imagerel $ip2state$?empty@?$deque@UEntry@LT@@V?$allocator@UEntry@LT@@@std@@@std@@QEBA_NXZ
xdata	ENDS
;	COMDAT xdata
xdata	SEGMENT
$unwind$?empty@?$deque@UEntry@LT@@V?$allocator@UEntry@LT@@@std@@@std@@QEBA_NXZ DD 025052a19H
	DD	010e2313H
	DD	07007001fH
	DD	05006H
	DD	imagerel __CxxFrameHandler4
	DD	imagerel $cppxdata$?empty@?$deque@UEntry@LT@@V?$allocator@UEntry@LT@@@std@@@std@@QEBA_NXZ
xdata	ENDS
;	COMDAT xdata
xdata	SEGMENT
$ip2state$?max_size@?$deque@UEntry@LT@@V?$allocator@UEntry@LT@@@std@@@std@@QEBA_KXZ DB 02H
	DB	00H
	DB	00H
xdata	ENDS
;	COMDAT xdata
xdata	SEGMENT
$cppxdata$?max_size@?$deque@UEntry@LT@@V?$allocator@UEntry@LT@@@std@@@std@@QEBA_KXZ DB 060H
	DD	imagerel $ip2state$?max_size@?$deque@UEntry@LT@@V?$allocator@UEntry@LT@@@std@@@std@@QEBA_KXZ
xdata	ENDS
;	COMDAT xdata
xdata	SEGMENT
$unwind$?max_size@?$deque@UEntry@LT@@V?$allocator@UEntry@LT@@@std@@@std@@QEBA_KXZ DD 025052a19H
	DD	010e2313H
	DD	070070025H
	DD	05006H
	DD	imagerel __CxxFrameHandler4
	DD	imagerel $cppxdata$?max_size@?$deque@UEntry@LT@@V?$allocator@UEntry@LT@@@std@@@std@@QEBA_KXZ
xdata	ENDS
;	COMDAT xdata
xdata	SEGMENT
$ip2state$?_Unchecked_end@?$deque@UEntry@LT@@V?$allocator@UEntry@LT@@@std@@@std@@QEAA?AV?$_Deque_unchecked_iterator@V?$_Deque_val@U?$_Deque_simple_types@UEntry@LT@@@std@@@std@@@2@XZ DB 02H
	DB	00H
	DB	00H
xdata	ENDS
;	COMDAT xdata
xdata	SEGMENT
$cppxdata$?_Unchecked_end@?$deque@UEntry@LT@@V?$allocator@UEntry@LT@@@std@@@std@@QEAA?AV?$_Deque_unchecked_iterator@V?$_Deque_val@U?$_Deque_simple_types@UEntry@LT@@@std@@@std@@@2@XZ DB 060H
	DD	imagerel $ip2state$?_Unchecked_end@?$deque@UEntry@LT@@V?$allocator@UEntry@LT@@@std@@@std@@QEAA?AV?$_Deque_unchecked_iterator@V?$_Deque_val@U?$_Deque_simple_types@UEntry@LT@@@std@@@std@@@2@XZ
xdata	ENDS
;	COMDAT xdata
xdata	SEGMENT
$unwind$?_Unchecked_end@?$deque@UEntry@LT@@V?$allocator@UEntry@LT@@@std@@@std@@QEAA?AV?$_Deque_unchecked_iterator@V?$_Deque_val@U?$_Deque_simple_types@UEntry@LT@@@std@@@std@@@2@XZ DD 025052f19H
	DD	01132318H
	DD	0700c001fH
	DD	0500bH
	DD	imagerel __CxxFrameHandler4
	DD	imagerel $cppxdata$?_Unchecked_end@?$deque@UEntry@LT@@V?$allocator@UEntry@LT@@@std@@@std@@QEAA?AV?$_Deque_unchecked_iterator@V?$_Deque_val@U?$_Deque_simple_types@UEntry@LT@@@std@@@std@@@2@XZ
xdata	ENDS
;	COMDAT xdata
xdata	SEGMENT
$ip2state$??1?$deque@UEntry@LT@@V?$allocator@UEntry@LT@@@std@@@std@@QEAA@XZ DB 02H
	DB	00H
	DB	00H
xdata	ENDS
;	COMDAT xdata
xdata	SEGMENT
$cppxdata$??1?$deque@UEntry@LT@@V?$allocator@UEntry@LT@@@std@@@std@@QEAA@XZ DB 060H
	DD	imagerel $ip2state$??1?$deque@UEntry@LT@@V?$allocator@UEntry@LT@@@std@@@std@@QEAA@XZ
xdata	ENDS
;	COMDAT xdata
xdata	SEGMENT
$unwind$??1?$deque@UEntry@LT@@V?$allocator@UEntry@LT@@@std@@@std@@QEAA@XZ DD 025053b19H
	DD	010e2313H
	DD	070070025H
	DD	05006H
	DD	imagerel __GSHandlerCheck_EH4
	DD	imagerel $cppxdata$??1?$deque@UEntry@LT@@V?$allocator@UEntry@LT@@@std@@@std@@QEAA@XZ
	DD	011bH
xdata	ENDS
;	COMDAT CONST
CONST	SEGMENT
??1?$deque@UEntry@LT@@V?$allocator@UEntry@LT@@@std@@@std@@QEAA@XZ$rtcName$0 DB 05fH ; std::deque<LT::Entry,std::allocator<LT::Entry> >::~deque<LT::Entry,std::allocator<LT::Entry> >
	DB	050H
	DB	072H
	DB	06fH
	DB	078H
	DB	079H
	DB	05fH
	DB	061H
	DB	06cH
	DB	06cH
	DB	06fH
	DB	063H
	DB	061H
	DB	074H
	DB	06fH
	DB	072H
	DB	00H
	ORG $+15
??1?$deque@UEntry@LT@@V?$allocator@UEntry@LT@@@std@@@std@@QEAA@XZ$rtcVarDesc DD 024H ; std::deque<LT::Entry,std::allocator<LT::Entry> >::~deque<LT::Entry,std::allocator<LT::Entry> >
	DD	01H
	DQ	FLAT:??1?$deque@UEntry@LT@@V?$allocator@UEntry@LT@@@std@@@std@@QEAA@XZ$rtcName$0
	ORG $+48
??1?$deque@UEntry@LT@@V?$allocator@UEntry@LT@@@std@@@std@@QEAA@XZ$rtcFrameData DD 01H ; std::deque<LT::Entry,std::allocator<LT::Entry> >::~deque<LT::Entry,std::allocator<LT::Entry> >
	DD	00H
	DQ	FLAT:??1?$deque@UEntry@LT@@V?$allocator@UEntry@LT@@@std@@@std@@QEAA@XZ$rtcVarDesc
CONST	ENDS
;	COMDAT xdata
xdata	SEGMENT
$unwind$??0?$deque@UEntry@LT@@V?$allocator@UEntry@LT@@@std@@@std@@QEAA@XZ DD 025052a01H
	DD	010e2313H
	DD	070070025H
	DD	05006H
xdata	ENDS
;	COMDAT xdata
xdata	SEGMENT
$unwind$?allocate@?$allocator@PEAUEntry@LT@@@std@@QEAAPEAPEAUEntry@LT@@_K@Z DD 025052f01H
	DD	01132318H
	DD	0700c001dH
	DD	0500bH
xdata	ENDS
;	COMDAT xdata
xdata	SEGMENT
$unwind$?deallocate@?$allocator@PEAUEntry@LT@@@std@@QEAAXQEAPEAUEntry@LT@@_K@Z DD 025053401H
	DD	0118231dH
	DD	07011001dH
	DD	05010H
xdata	ENDS
;	COMDAT xdata
xdata	SEGMENT
$ip2state$?max_size@?$_Default_allocator_traits@V?$allocator@UEntry@LT@@@std@@@std@@SA_KAEBV?$allocator@UEntry@LT@@@2@@Z DB 02H
	DB	00H
	DB	00H
xdata	ENDS
;	COMDAT xdata
xdata	SEGMENT
$cppxdata$?max_size@?$_Default_allocator_traits@V?$allocator@UEntry@LT@@@std@@@std@@SA_KAEBV?$allocator@UEntry@LT@@@2@@Z DB 060H
	DD	imagerel $ip2state$?max_size@?$_Default_allocator_traits@V?$allocator@UEntry@LT@@@std@@@std@@SA_KAEBV?$allocator@UEntry@LT@@@2@@Z
xdata	ENDS
;	COMDAT xdata
xdata	SEGMENT
$unwind$?max_size@?$_Default_allocator_traits@V?$allocator@UEntry@LT@@@std@@@std@@SA_KAEBV?$allocator@UEntry@LT@@@2@@Z DD 025052a19H
	DD	010e2313H
	DD	07007001dH
	DD	05006H
	DD	imagerel __CxxFrameHandler4
	DD	imagerel $cppxdata$?max_size@?$_Default_allocator_traits@V?$allocator@UEntry@LT@@@std@@@std@@SA_KAEBV?$allocator@UEntry@LT@@@2@@Z
xdata	ENDS
;	COMDAT xdata
xdata	SEGMENT
$unwind$?allocate@?$allocator@UEntry@LT@@@std@@QEAAPEAUEntry@LT@@_K@Z DD 025052f01H
	DD	01132318H
	DD	0700c001dH
	DD	0500bH
xdata	ENDS
;	COMDAT xdata
xdata	SEGMENT
$unwind$?deallocate@?$allocator@UEntry@LT@@@std@@QEAAXQEAUEntry@LT@@_K@Z DD 025053401H
	DD	0118231dH
	DD	07011001dH
	DD	05010H
xdata	ENDS
;	COMDAT xdata
xdata	SEGMENT
$ip2state$??0?$allocator@UEntry@LT@@@std@@QEAA@XZ DB 02H
	DB	00H
	DB	00H
xdata	ENDS
;	COMDAT xdata
xdata	SEGMENT
$cppxdata$??0?$allocator@UEntry@LT@@@std@@QEAA@XZ DB 060H
	DD	imagerel $ip2state$??0?$allocator@UEntry@LT@@@std@@QEAA@XZ
xdata	ENDS
;	COMDAT xdata
xdata	SEGMENT
$unwind$??0?$allocator@UEntry@LT@@@std@@QEAA@XZ DD 025052a19H
	DD	010e2313H
	DD	07007001dH
	DD	05006H
	DD	imagerel __CxxFrameHandler4
	DD	imagerel $cppxdata$??0?$allocator@UEntry@LT@@@std@@QEAA@XZ
xdata	ENDS
;	COMDAT xdata
xdata	SEGMENT
$unwind$?dtor$1@?0??polishNotation@PN@@YAHHAEAULexTable@LT@@AEAUIdTable@IT@@@Z@4HA DD 031001H
	DD	0700c4210H
	DD	0500bH
xdata	ENDS
;	COMDAT xdata
xdata	SEGMENT
$unwind$?dtor$0@?0??polishNotation@PN@@YAHHAEAULexTable@LT@@AEAUIdTable@IT@@@Z@4HA DD 031001H
	DD	0700c4210H
	DD	0500bH
xdata	ENDS
;	COMDAT xdata
xdata	SEGMENT
$ip2state$?polishNotation@PN@@YAHHAEAULexTable@LT@@AEAUIdTable@IT@@@Z DB 016H
	DB	00H
	DB	00H
	DB	0d0H
	DB	02H
	DB	'0'
	DB	04H
	DB	')', 0dH
	DB	02H
	DB	04H
	DB	04H
	DB	'}', 0fH
	DB	02H
	DB	014H
	DB	00H
	DB	'('
	DB	04H
	DB	'I', 03H
	DB	02H
	DB	014H
	DB	00H
	DB	'~'
	DB	02H
xdata	ENDS
;	COMDAT xdata
xdata	SEGMENT
$stateUnwindMap$?polishNotation@PN@@YAHHAEAULexTable@LT@@AEAUIdTable@IT@@@Z DB 04H
	DB	0eH
	DD	imagerel ?dtor$0@?0??polishNotation@PN@@YAHHAEAULexTable@LT@@AEAUIdTable@IT@@@Z@4HA
	DB	02eH
	DD	imagerel ?dtor$1@?0??polishNotation@PN@@YAHHAEAULexTable@LT@@AEAUIdTable@IT@@@Z@4HA
xdata	ENDS
;	COMDAT xdata
xdata	SEGMENT
$cppxdata$?polishNotation@PN@@YAHHAEAULexTable@LT@@AEAUIdTable@IT@@@Z DB 028H
	DD	imagerel $stateUnwindMap$?polishNotation@PN@@YAHHAEAULexTable@LT@@AEAUIdTable@IT@@@Z
	DD	imagerel $ip2state$?polishNotation@PN@@YAHHAEAULexTable@LT@@AEAUIdTable@IT@@@Z
xdata	ENDS
;	COMDAT xdata
xdata	SEGMENT
$unwind$?polishNotation@PN@@YAHHAEAULexTable@LT@@AEAUIdTable@IT@@@Z DD 025064419H
	DD	0118231dH
	DD	070110078H
	DD	0500f6010H
	DD	imagerel __GSHandlerCheck_EH4
	DD	imagerel $cppxdata$?polishNotation@PN@@YAHHAEAULexTable@LT@@AEAUIdTable@IT@@@Z
	DD	03baH
xdata	ENDS
;	COMDAT CONST
CONST	SEGMENT
?polishNotation@PN@@YAHHAEAULexTable@LT@@AEAUIdTable@IT@@@Z$rtcName$0 DB 073H ; PN::polishNotation
	DB	074H
	DB	061H
	DB	063H
	DB	06bH
	DB	00H
	ORG $+2
?polishNotation@PN@@YAHHAEAULexTable@LT@@AEAUIdTable@IT@@@Z$rtcName$1 DB 06fH ; PN::polishNotation
	DB	070H
	DB	065H
	DB	072H
	DB	061H
	DB	06eH
	DB	064H
	DB	073H
	DB	00H
	ORG $+3
?polishNotation@PN@@YAHHAEAULexTable@LT@@AEAUIdTable@IT@@@Z$rtcName$2 DB 074H ; PN::polishNotation
	DB	065H
	DB	06dH
	DB	070H
	DB	00H
	ORG $+7
?polishNotation@PN@@YAHHAEAULexTable@LT@@AEAUIdTable@IT@@@Z$rtcVarDesc DD 0198H ; PN::polishNotation
	DD	010H
	DQ	FLAT:?polishNotation@PN@@YAHHAEAULexTable@LT@@AEAUIdTable@IT@@@Z$rtcName$2
	DD	068H
	DD	018H
	DQ	FLAT:?polishNotation@PN@@YAHHAEAULexTable@LT@@AEAUIdTable@IT@@@Z$rtcName$1
	DD	028H
	DD	028H
	DQ	FLAT:?polishNotation@PN@@YAHHAEAULexTable@LT@@AEAUIdTable@IT@@@Z$rtcName$0
	ORG $+144
?polishNotation@PN@@YAHHAEAULexTable@LT@@AEAUIdTable@IT@@@Z$rtcFrameData DD 03H ; PN::polishNotation
	DD	00H
	DQ	FLAT:?polishNotation@PN@@YAHHAEAULexTable@LT@@AEAUIdTable@IT@@@Z$rtcVarDesc
CONST	ENDS
;	COMDAT xdata
xdata	SEGMENT
$unwind$?seachingExpressions@PN@@YAXAEAULexTable@LT@@AEAUIdTable@IT@@@Z DD 025052f01H
	DD	01132318H
	DD	0700c0025H
	DD	0500bH
xdata	ENDS
;	COMDAT xdata
xdata	SEGMENT
$unwind$??0Entry@LT@@QEAA@XZ DD 025052a01H
	DD	010e2313H
	DD	07007001dH
	DD	05006H
xdata	ENDS
;	COMDAT xdata
xdata	SEGMENT
$unwind$??$_Getvals@_W@?$time_get@_WV?$istreambuf_iterator@_WU?$char_traits@_W@std@@@std@@@std@@IEAAX_WAEBV_Locinfo@1@@Z DD 025063501H
	DD	0119231eH
	DD	070120026H
	DD	050106011H
xdata	ENDS
;	COMDAT xdata
xdata	SEGMENT
$unwind$??$_Getvals@_W@?$time_get@DV?$istreambuf_iterator@DU?$char_traits@D@std@@@std@@@std@@IEAAX_WAEBV_Locinfo@1@@Z DD 025063501H
	DD	0119231eH
	DD	070120026H
	DD	050106011H
xdata	ENDS
;	COMDAT xdata
xdata	SEGMENT
$unwind$??$_Maklocstr@D@std@@YAPEADPEBDPEADAEBU_Cvtvec@@@Z DD 035053401H
	DD	0118331dH
	DD	07011002bH
	DD	05010H
xdata	ENDS
;	COMDAT xdata
xdata	SEGMENT
$unwind$?_Maklocwcs@std@@YAPEA_WPEB_W@Z DD 035052a01H
	DD	010e3313H
	DD	070070027H
	DD	05006H
xdata	ENDS
;	COMDAT xdata
xdata	SEGMENT
$unwind$??$_Maklocstr@_W@std@@YAPEA_WPEBDPEA_WAEBU_Cvtvec@@@Z DD 035054519H
	DD	0118331dH
	DD	070110047H
	DD	05010H
	DD	imagerel __GSHandlerCheck
	DD	0228H
xdata	ENDS
;	COMDAT CONST
CONST	SEGMENT
??$_Maklocstr@_W@std@@YAPEA_WPEBDPEA_WAEBU_Cvtvec@@@Z$rtcName$0 DB 05fH ; std::_Maklocstr<wchar_t>
	DB	057H
	DB	063H
	DB	00H
??$_Maklocstr@_W@std@@YAPEA_WPEBDPEA_WAEBU_Cvtvec@@@Z$rtcName$1 DB 05fH ; std::_Maklocstr<wchar_t>
	DB	04dH
	DB	062H
	DB	073H
	DB	074H
	DB	031H
	DB	00H
	ORG $+1
??$_Maklocstr@_W@std@@YAPEA_WPEBDPEA_WAEBU_Cvtvec@@@Z$rtcName$2 DB 05fH ; std::_Maklocstr<wchar_t>
	DB	04dH
	DB	062H
	DB	073H
	DB	074H
	DB	032H
	DB	00H
	ORG $+13
??$_Maklocstr@_W@std@@YAPEA_WPEBDPEA_WAEBU_Cvtvec@@@Z$rtcVarDesc DD 0158H ; std::_Maklocstr<wchar_t>
	DD	08H
	DQ	FLAT:??$_Maklocstr@_W@std@@YAPEA_WPEBDPEA_WAEBU_Cvtvec@@@Z$rtcName$2
	DD	0f8H
	DD	08H
	DQ	FLAT:??$_Maklocstr@_W@std@@YAPEA_WPEBDPEA_WAEBU_Cvtvec@@@Z$rtcName$1
	DD	0d4H
	DD	02H
	DQ	FLAT:??$_Maklocstr@_W@std@@YAPEA_WPEBDPEA_WAEBU_Cvtvec@@@Z$rtcName$0
	ORG $+144
??$_Maklocstr@_W@std@@YAPEA_WPEBDPEA_WAEBU_Cvtvec@@@Z$rtcFrameData DD 03H ; std::_Maklocstr<wchar_t>
	DD	00H
	DQ	FLAT:??$_Maklocstr@_W@std@@YAPEA_WPEBDPEA_WAEBU_Cvtvec@@@Z$rtcVarDesc
CONST	ENDS
;	COMDAT xdata
xdata	SEGMENT
$ip2state$??$_Construct_in_place@U_Container_proxy@std@@PEAU_Container_base12@2@@std@@YAXAEAU_Container_proxy@0@$$QEAPEAU_Container_base12@0@@Z DB 02H
	DB	00H
	DB	00H
xdata	ENDS
;	COMDAT xdata
xdata	SEGMENT
$cppxdata$??$_Construct_in_place@U_Container_proxy@std@@PEAU_Container_base12@2@@std@@YAXAEAU_Container_proxy@0@$$QEAPEAU_Container_base12@0@@Z DB 060H
	DD	imagerel $ip2state$??$_Construct_in_place@U_Container_proxy@std@@PEAU_Container_base12@2@@std@@YAXAEAU_Container_proxy@0@$$QEAPEAU_Container_base12@0@@Z
xdata	ENDS
;	COMDAT xdata
xdata	SEGMENT
$unwind$??$_Construct_in_place@U_Container_proxy@std@@PEAU_Container_base12@2@@std@@YAXAEAU_Container_proxy@0@$$QEAPEAU_Container_base12@0@@Z DD 025052f19H
	DD	01132318H
	DD	0700c0021H
	DD	0500bH
	DD	imagerel __CxxFrameHandler4
	DD	imagerel $cppxdata$??$_Construct_in_place@U_Container_proxy@std@@PEAU_Container_base12@2@@std@@YAXAEAU_Container_proxy@0@$$QEAPEAU_Container_base12@0@@Z
xdata	ENDS
;	COMDAT xdata
xdata	SEGMENT
$ip2state$??$addressof@U_Container_base12@std@@@std@@YAPEAU_Container_base12@0@AEAU10@@Z DB 02H
	DB	00H
	DB	00H
xdata	ENDS
;	COMDAT xdata
xdata	SEGMENT
$cppxdata$??$addressof@U_Container_base12@std@@@std@@YAPEAU_Container_base12@0@AEAU10@@Z DB 060H
	DD	imagerel $ip2state$??$addressof@U_Container_base12@std@@@std@@YAPEAU_Container_base12@0@AEAU10@@Z
xdata	ENDS
;	COMDAT xdata
xdata	SEGMENT
$unwind$??$addressof@U_Container_base12@std@@@std@@YAPEAU_Container_base12@0@AEAU10@@Z DD 025052a19H
	DD	010e2313H
	DD	07007001dH
	DD	05006H
	DD	imagerel __CxxFrameHandler4
	DD	imagerel $cppxdata$??$addressof@U_Container_base12@std@@@std@@YAPEAU_Container_base12@0@AEAU10@@Z
xdata	ENDS
;	COMDAT xdata
xdata	SEGMENT
$ip2state$?_Release@_Basic_container_proxy_ptr12@std@@QEAAXXZ DB 02H
	DB	00H
	DB	00H
xdata	ENDS
;	COMDAT xdata
xdata	SEGMENT
$cppxdata$?_Release@_Basic_container_proxy_ptr12@std@@QEAAXXZ DB 060H
	DD	imagerel $ip2state$?_Release@_Basic_container_proxy_ptr12@std@@QEAAXXZ
xdata	ENDS
;	COMDAT xdata
xdata	SEGMENT
$unwind$?_Release@_Basic_container_proxy_ptr12@std@@QEAAXXZ DD 025052a19H
	DD	010e2313H
	DD	07007001dH
	DD	05006H
	DD	imagerel __CxxFrameHandler4
	DD	imagerel $cppxdata$?_Release@_Basic_container_proxy_ptr12@std@@QEAAXXZ
xdata	ENDS
;	COMDAT xdata
xdata	SEGMENT
$ip2state$?_Orphan_all@_Container_base12@std@@QEAAXXZ DB 02H
	DB	00H
	DB	00H
xdata	ENDS
;	COMDAT xdata
xdata	SEGMENT
$cppxdata$?_Orphan_all@_Container_base12@std@@QEAAXXZ DB 060H
	DD	imagerel $ip2state$?_Orphan_all@_Container_base12@std@@QEAAXXZ
xdata	ENDS
;	COMDAT xdata
xdata	SEGMENT
$unwind$?_Orphan_all@_Container_base12@std@@QEAAXXZ DD 025053b19H
	DD	010e2313H
	DD	070070025H
	DD	05006H
	DD	imagerel __GSHandlerCheck_EH4
	DD	imagerel $cppxdata$?_Orphan_all@_Container_base12@std@@QEAAXXZ
	DD	011bH
xdata	ENDS
;	COMDAT CONST
CONST	SEGMENT
?_Orphan_all@_Container_base12@std@@QEAAXXZ$rtcName$0 DB 05fH ; std::_Container_base12::_Orphan_all
	DB	04cH
	DB	06fH
	DB	063H
	DB	06bH
	DB	00H
	ORG $+10
?_Orphan_all@_Container_base12@std@@QEAAXXZ$rtcVarDesc DD 024H ; std::_Container_base12::_Orphan_all
	DD	04H
	DQ	FLAT:?_Orphan_all@_Container_base12@std@@QEAAXXZ$rtcName$0
	ORG $+48
?_Orphan_all@_Container_base12@std@@QEAAXXZ$rtcFrameData DD 01H ; std::_Container_base12::_Orphan_all
	DD	00H
	DQ	FLAT:?_Orphan_all@_Container_base12@std@@QEAAXXZ$rtcVarDesc
CONST	ENDS
;	COMDAT xdata
xdata	SEGMENT
$ip2state$??0_Container_base12@std@@QEAA@XZ DB 02H
	DB	00H
	DB	00H
xdata	ENDS
;	COMDAT xdata
xdata	SEGMENT
$cppxdata$??0_Container_base12@std@@QEAA@XZ DB 060H
	DD	imagerel $ip2state$??0_Container_base12@std@@QEAA@XZ
xdata	ENDS
;	COMDAT xdata
xdata	SEGMENT
$unwind$??0_Container_base12@std@@QEAA@XZ DD 025052a19H
	DD	010e2313H
	DD	07007001dH
	DD	05006H
	DD	imagerel __CxxFrameHandler4
	DD	imagerel $cppxdata$??0_Container_base12@std@@QEAA@XZ
xdata	ENDS
;	COMDAT xdata
xdata	SEGMENT
$ip2state$??0_Container_proxy@std@@QEAA@PEAU_Container_base12@1@@Z DB 02H
	DB	00H
	DB	00H
xdata	ENDS
;	COMDAT xdata
xdata	SEGMENT
$cppxdata$??0_Container_proxy@std@@QEAA@PEAU_Container_base12@1@@Z DB 060H
	DD	imagerel $ip2state$??0_Container_proxy@std@@QEAA@PEAU_Container_base12@1@@Z
xdata	ENDS
;	COMDAT xdata
xdata	SEGMENT
$unwind$??0_Container_proxy@std@@QEAA@PEAU_Container_base12@1@@Z DD 025052f19H
	DD	01132318H
	DD	0700c001dH
	DD	0500bH
	DD	imagerel __CxxFrameHandler4
	DD	imagerel $cppxdata$??0_Container_proxy@std@@QEAA@PEAU_Container_base12@1@@Z
xdata	ENDS
;	COMDAT xdata
xdata	SEGMENT
$unwind$?_Adjust_manually_vector_aligned@std@@YAXAEAPEAXAEA_K@Z DD 035052f01H
	DD	01133318H
	DD	0700c002fH
	DD	0500bH
xdata	ENDS
;	COMDAT xdata
xdata	SEGMENT
$unwind$?_Allocate@_Default_allocate_traits@std@@SAPEAX_K@Z DD 025052a01H
	DD	010e2313H
	DD	07007001dH
	DD	05006H
xdata	ENDS
;	COMDAT xdata
xdata	SEGMENT
$unwind$?_Throw_bad_array_new_length@std@@YAXXZ DD 025051e01H
	DD	010a230fH
	DD	070030023H
	DD	05002H
xdata	ENDS
;	COMDAT xdata
xdata	SEGMENT
$unwind$??_Gbad_array_new_length@std@@UEAAPEAXI@Z DD 025052e01H
	DD	01122317H
	DD	0700b001dH
	DD	0500aH
xdata	ENDS
;	COMDAT xdata
xdata	SEGMENT
$unwind$??0bad_array_new_length@std@@QEAA@AEBV01@@Z DD 025052f01H
	DD	01132318H
	DD	0700c001dH
	DD	0500bH
xdata	ENDS
;	COMDAT xdata
xdata	SEGMENT
$unwind$??1bad_array_new_length@std@@UEAA@XZ DD 025052a01H
	DD	010e2313H
	DD	07007001dH
	DD	05006H
xdata	ENDS
;	COMDAT xdata
xdata	SEGMENT
$ip2state$??0bad_array_new_length@std@@QEAA@XZ DB 02H
	DB	00H
	DB	00H
xdata	ENDS
;	COMDAT xdata
xdata	SEGMENT
$cppxdata$??0bad_array_new_length@std@@QEAA@XZ DB 060H
	DD	imagerel $ip2state$??0bad_array_new_length@std@@QEAA@XZ
xdata	ENDS
;	COMDAT xdata
xdata	SEGMENT
$unwind$??0bad_array_new_length@std@@QEAA@XZ DD 025052a19H
	DD	010e2313H
	DD	07007001dH
	DD	05006H
	DD	imagerel __CxxFrameHandler4
	DD	imagerel $cppxdata$??0bad_array_new_length@std@@QEAA@XZ
xdata	ENDS
;	COMDAT xdata
xdata	SEGMENT
$unwind$??_Gbad_alloc@std@@UEAAPEAXI@Z DD 025052e01H
	DD	01122317H
	DD	0700b001dH
	DD	0500aH
xdata	ENDS
;	COMDAT xdata
xdata	SEGMENT
$unwind$??0bad_alloc@std@@QEAA@AEBV01@@Z DD 025052f01H
	DD	01132318H
	DD	0700c001dH
	DD	0500bH
xdata	ENDS
;	COMDAT xdata
xdata	SEGMENT
$unwind$??1bad_alloc@std@@UEAA@XZ DD 025052a01H
	DD	010e2313H
	DD	07007001dH
	DD	05006H
xdata	ENDS
;	COMDAT xdata
xdata	SEGMENT
$ip2state$??0bad_alloc@std@@AEAA@QEBD@Z DB 02H
	DB	00H
	DB	00H
xdata	ENDS
;	COMDAT xdata
xdata	SEGMENT
$cppxdata$??0bad_alloc@std@@AEAA@QEBD@Z DB 060H
	DD	imagerel $ip2state$??0bad_alloc@std@@AEAA@QEBD@Z
xdata	ENDS
;	COMDAT xdata
xdata	SEGMENT
$unwind$??0bad_alloc@std@@AEAA@QEBD@Z DD 025052f19H
	DD	01132318H
	DD	0700c001dH
	DD	0500bH
	DD	imagerel __CxxFrameHandler4
	DD	imagerel $cppxdata$??0bad_alloc@std@@AEAA@QEBD@Z
xdata	ENDS
;	COMDAT xdata
xdata	SEGMENT
$unwind$??_Gexception@std@@UEAAPEAXI@Z DD 025052e01H
	DD	01122317H
	DD	0700b001dH
	DD	0500aH
xdata	ENDS
;	COMDAT xdata
xdata	SEGMENT
$unwind$?what@exception@std@@UEBAPEBDXZ DD 025052a01H
	DD	010e2313H
	DD	07007001fH
	DD	05006H
xdata	ENDS
;	COMDAT xdata
xdata	SEGMENT
$ip2state$??1exception@std@@UEAA@XZ DB 02H
	DB	00H
	DB	00H
xdata	ENDS
;	COMDAT xdata
xdata	SEGMENT
$cppxdata$??1exception@std@@UEAA@XZ DB 060H
	DD	imagerel $ip2state$??1exception@std@@UEAA@XZ
xdata	ENDS
;	COMDAT xdata
xdata	SEGMENT
$unwind$??1exception@std@@UEAA@XZ DD 025052a19H
	DD	010e2313H
	DD	07007001dH
	DD	05006H
	DD	imagerel __CxxFrameHandler4
	DD	imagerel $cppxdata$??1exception@std@@UEAA@XZ
xdata	ENDS
;	COMDAT xdata
xdata	SEGMENT
$ip2state$??0exception@std@@QEAA@AEBV01@@Z DB 02H
	DB	00H
	DB	00H
xdata	ENDS
;	COMDAT xdata
xdata	SEGMENT
$cppxdata$??0exception@std@@QEAA@AEBV01@@Z DB 060H
	DD	imagerel $ip2state$??0exception@std@@QEAA@AEBV01@@Z
xdata	ENDS
;	COMDAT xdata
xdata	SEGMENT
$unwind$??0exception@std@@QEAA@AEBV01@@Z DD 025052f19H
	DD	01132318H
	DD	0700c001dH
	DD	0500bH
	DD	imagerel __CxxFrameHandler4
	DD	imagerel $cppxdata$??0exception@std@@QEAA@AEBV01@@Z
xdata	ENDS
;	COMDAT xdata
xdata	SEGMENT
$ip2state$??0exception@std@@QEAA@QEBDH@Z DB 02H
	DB	00H
	DB	00H
xdata	ENDS
;	COMDAT xdata
xdata	SEGMENT
$cppxdata$??0exception@std@@QEAA@QEBDH@Z DB 060H
	DD	imagerel $ip2state$??0exception@std@@QEAA@QEBDH@Z
xdata	ENDS
;	COMDAT xdata
xdata	SEGMENT
$unwind$??0exception@std@@QEAA@QEBDH@Z DD 025053419H
	DD	0118231dH
	DD	07011001dH
	DD	05010H
	DD	imagerel __CxxFrameHandler4
	DD	imagerel $cppxdata$??0exception@std@@QEAA@QEBDH@Z
xdata	ENDS
;	COMDAT xdata
xdata	SEGMENT
$ip2state$?max@?$numeric_limits@_J@std@@SA_JXZ DB 02H
	DB	00H
	DB	00H
xdata	ENDS
;	COMDAT xdata
xdata	SEGMENT
$cppxdata$?max@?$numeric_limits@_J@std@@SA_JXZ DB 060H
	DD	imagerel $ip2state$?max@?$numeric_limits@_J@std@@SA_JXZ
xdata	ENDS
;	COMDAT xdata
xdata	SEGMENT
$unwind$?max@?$numeric_limits@_J@std@@SA_JXZ DD 025051e19H
	DD	010a230fH
	DD	07003001dH
	DD	05002H
	DD	imagerel __CxxFrameHandler4
	DD	imagerel $cppxdata$?max@?$numeric_limits@_J@std@@SA_JXZ
xdata	ENDS
;	COMDAT xdata
xdata	SEGMENT
$ip2state$??2@YAPEAX_KPEAX@Z DB 02H
	DB	00H
	DB	00H
xdata	ENDS
;	COMDAT xdata
xdata	SEGMENT
$cppxdata$??2@YAPEAX_KPEAX@Z DB 060H
	DD	imagerel $ip2state$??2@YAPEAX_KPEAX@Z
xdata	ENDS
;	COMDAT xdata
xdata	SEGMENT
$unwind$??2@YAPEAX_KPEAX@Z DD 025052f19H
	DD	01132318H
	DD	0700c001dH
	DD	0500bH
	DD	imagerel __CxxFrameHandler4
	DD	imagerel $cppxdata$??2@YAPEAX_KPEAX@Z
xdata	ENDS
;	COMDAT xdata
xdata	SEGMENT
$unwind$wmemcpy DD 025053401H
	DD	0118231dH
	DD	07011001dH
	DD	05010H
xdata	ENDS
;	COMDAT xdata
xdata	SEGMENT
$unwind$?__empty_global_delete@@YAXPEAX_K@Z DD 025052f01H
	DD	01132318H
	DD	0700c001dH
	DD	0500bH
xdata	ENDS
;	COMDAT xdata
xdata	SEGMENT
$unwind$?__empty_global_delete@@YAXPEAX@Z DD 025052a01H
	DD	010e2313H
	DD	07007001dH
	DD	05006H
xdata	ENDS
; Function compile flags: /Odt
;	COMDAT __JustMyCode_Default
_TEXT	SEGMENT
__JustMyCode_Default PROC				; COMDAT
  00000	c2 00 00	 ret	 0
__JustMyCode_Default ENDP
_TEXT	ENDS
; Function compile flags: /Odtp /RTCsu /ZI
; File C:\Program Files (x86)\Microsoft Visual Studio\2019\Enterprise\VC\Tools\MSVC\14.27.29110\include\xutility
;	COMDAT ??$_Verify_range@PEAUEntry@LT@@@std@@YAXQEBQEAUEntry@LT@@0@Z
_TEXT	SEGMENT
_First$ = 224
_Last$ = 232
??$_Verify_range@PEAUEntry@LT@@@std@@YAXQEBQEAUEntry@LT@@0@Z PROC ; std::_Verify_range<LT::Entry *>, COMDAT

; 1169 : constexpr void _Verify_range(const _Ty* const _First, const _Ty* const _Last) noexcept {

$LN12:
  00000	48 89 54 24 10	 mov	 QWORD PTR [rsp+16], rdx
  00005	48 89 4c 24 08	 mov	 QWORD PTR [rsp+8], rcx
  0000a	55		 push	 rbp
  0000b	57		 push	 rdi
  0000c	48 81 ec f8 00
	00 00		 sub	 rsp, 248		; 000000f8H
  00013	48 8d 6c 24 30	 lea	 rbp, QWORD PTR [rsp+48]
  00018	48 8b fc	 mov	 rdi, rsp
  0001b	b9 3e 00 00 00	 mov	 ecx, 62			; 0000003eH
  00020	b8 cc cc cc cc	 mov	 eax, -858993460		; ccccccccH
  00025	f3 ab		 rep stosd
  00027	48 8b 8c 24 18
	01 00 00	 mov	 rcx, QWORD PTR [rsp+280]
  0002f	48 8d 0d 00 00
	00 00		 lea	 rcx, OFFSET FLAT:__36E77527_xutility
  00036	e8 00 00 00 00	 call	 __CheckForDebuggerJustMyCode
$LN4@Verify_ran:

; 1170 :     // special case range verification for pointers
; 1171 :     _STL_VERIFY(_First <= _Last, "transposed pointer range");

  0003b	48 8b 85 e8 00
	00 00		 mov	 rax, QWORD PTR _Last$[rbp]
  00042	48 39 85 e0 00
	00 00		 cmp	 QWORD PTR _First$[rbp], rax
  00049	77 02		 ja	 SHORT $LN7@Verify_ran
  0004b	eb 6b		 jmp	 SHORT $LN9@Verify_ran
$LN7@Verify_ran:
  0004d	48 8d 05 00 00
	00 00		 lea	 rax, OFFSET FLAT:??_C@_0BJ@HAJGEHKO@transposed?5pointer?5range@
  00054	48 89 44 24 28	 mov	 QWORD PTR [rsp+40], rax
  00059	48 8d 05 00 00
	00 00		 lea	 rax, OFFSET FLAT:??_C@_02DKCKIIND@?$CFs@
  00060	48 89 44 24 20	 mov	 QWORD PTR [rsp+32], rax
  00065	45 33 c9	 xor	 r9d, r9d
  00068	41 b8 93 04 00
	00		 mov	 r8d, 1171		; 00000493H
  0006e	48 8d 15 00 00
	00 00		 lea	 rdx, OFFSET FLAT:??_C@_0GK@OHAIDBEA@C?3?2Program?5Files?5?$CIx86?$CJ?2Microsof@
  00075	b9 02 00 00 00	 mov	 ecx, 2
  0007a	ff 15 00 00 00
	00		 call	 QWORD PTR __imp__CrtDbgReport
  00080	83 f8 01	 cmp	 eax, 1
  00083	75 03		 jne	 SHORT $LN11@Verify_ran
  00085	cc		 int	 3
  00086	33 c0		 xor	 eax, eax
$LN11@Verify_ran:
  00088	48 c7 44 24 20
	00 00 00 00	 mov	 QWORD PTR [rsp+32], 0
  00091	41 b9 93 04 00
	00		 mov	 r9d, 1171		; 00000493H
  00097	4c 8d 05 00 00
	00 00		 lea	 r8, OFFSET FLAT:??_C@_1NE@NLDHILHB@?$AAC?$AA?3?$AA?2?$AAP?$AAr?$AAo?$AAg?$AAr?$AAa?$AAm?$AA?5?$AAF?$AAi?$AAl?$AAe@
  0009e	48 8d 15 00 00
	00 00		 lea	 rdx, OFFSET FLAT:??_C@_1CG@LJCPDKEJ@?$AAs?$AAt?$AAd?$AA?3?$AA?3?$AA_?$AAV?$AAe?$AAr?$AAi?$AAf?$AAy?$AA_?$AAr?$AAa@
  000a5	48 8d 0d 00 00
	00 00		 lea	 rcx, OFFSET FLAT:??_C@_1DG@FJIKMGFD@?$AA?$CC?$AAt?$AAr?$AAa?$AAn?$AAs?$AAp?$AAo?$AAs?$AAe?$AAd?$AA?5?$AAp?$AAo?$AAi@
  000ac	ff 15 00 00 00
	00		 call	 QWORD PTR __imp__invalid_parameter
  000b2	33 c0		 xor	 eax, eax
  000b4	85 c0		 test	 eax, eax
  000b6	75 95		 jne	 SHORT $LN7@Verify_ran
$LN9@Verify_ran:
  000b8	33 c0		 xor	 eax, eax
  000ba	85 c0		 test	 eax, eax
  000bc	0f 85 79 ff ff
	ff		 jne	 $LN4@Verify_ran

; 1172 : }

  000c2	48 8d a5 c8 00
	00 00		 lea	 rsp, QWORD PTR [rbp+200]
  000c9	5f		 pop	 rdi
  000ca	5d		 pop	 rbp
  000cb	c3		 ret	 0
??$_Verify_range@PEAUEntry@LT@@@std@@YAXQEBQEAUEntry@LT@@0@Z ENDP ; std::_Verify_range<LT::Entry *>
_TEXT	ENDS
; Function compile flags: /Odtp /RTCsu /ZI
; File C:\Program Files (x86)\Microsoft Visual Studio\2019\Enterprise\VC\Tools\MSVC\14.27.29110\include\xmemory
;	COMDAT ??$_Zero_range@PEAPEAUEntry@LT@@@std@@YAPEAPEAUEntry@LT@@QEAPEAU12@0@Z
_TEXT	SEGMENT
_First_ch$ = 8
_Last_ch$ = 40
_First$ = 288
_Last$ = 296
??$_Zero_range@PEAPEAUEntry@LT@@@std@@YAPEAPEAUEntry@LT@@QEAPEAU12@0@Z PROC ; std::_Zero_range<LT::Entry * *>, COMDAT

; 1814 : _Ptr _Zero_range(const _Ptr _First, const _Ptr _Last) { // fill [_First, _Last) with zeroes

$LN3:
  00000	48 89 54 24 10	 mov	 QWORD PTR [rsp+16], rdx
  00005	48 89 4c 24 08	 mov	 QWORD PTR [rsp+8], rcx
  0000a	55		 push	 rbp
  0000b	57		 push	 rdi
  0000c	48 81 ec 28 01
	00 00		 sub	 rsp, 296		; 00000128H
  00013	48 8d 6c 24 20	 lea	 rbp, QWORD PTR [rsp+32]
  00018	48 8b fc	 mov	 rdi, rsp
  0001b	b9 4a 00 00 00	 mov	 ecx, 74			; 0000004aH
  00020	b8 cc cc cc cc	 mov	 eax, -858993460		; ccccccccH
  00025	f3 ab		 rep stosd
  00027	48 8b 8c 24 48
	01 00 00	 mov	 rcx, QWORD PTR [rsp+328]
  0002f	48 8d 0d 00 00
	00 00		 lea	 rcx, OFFSET FLAT:__0C99713E_xmemory
  00036	e8 00 00 00 00	 call	 __CheckForDebuggerJustMyCode

; 1815 :     char* const _First_ch = reinterpret_cast<char*>(_First);

  0003b	48 8b 85 20 01
	00 00		 mov	 rax, QWORD PTR _First$[rbp]
  00042	48 89 45 08	 mov	 QWORD PTR _First_ch$[rbp], rax

; 1816 :     char* const _Last_ch  = reinterpret_cast<char*>(_Last);

  00046	48 8b 85 28 01
	00 00		 mov	 rax, QWORD PTR _Last$[rbp]
  0004d	48 89 45 28	 mov	 QWORD PTR _Last_ch$[rbp], rax

; 1817 :     _CSTD memset(_First_ch, 0, static_cast<size_t>(_Last_ch - _First_ch));

  00051	48 8b 45 08	 mov	 rax, QWORD PTR _First_ch$[rbp]
  00055	48 8b 4d 28	 mov	 rcx, QWORD PTR _Last_ch$[rbp]
  00059	48 2b c8	 sub	 rcx, rax
  0005c	48 8b c1	 mov	 rax, rcx
  0005f	4c 8b c0	 mov	 r8, rax
  00062	33 d2		 xor	 edx, edx
  00064	48 8b 4d 08	 mov	 rcx, QWORD PTR _First_ch$[rbp]
  00068	e8 00 00 00 00	 call	 memset

; 1818 :     return _Last;

  0006d	48 8b 85 28 01
	00 00		 mov	 rax, QWORD PTR _Last$[rbp]

; 1819 : }

  00074	48 8d a5 08 01
	00 00		 lea	 rsp, QWORD PTR [rbp+264]
  0007b	5f		 pop	 rdi
  0007c	5d		 pop	 rbp
  0007d	c3		 ret	 0
??$_Zero_range@PEAPEAUEntry@LT@@@std@@YAPEAPEAUEntry@LT@@QEAPEAU12@0@Z ENDP ; std::_Zero_range<LT::Entry * *>
_TEXT	ENDS
; Function compile flags: /Odtp /RTCsu /ZI
; File C:\Program Files (x86)\Microsoft Visual Studio\2019\Enterprise\VC\Tools\MSVC\14.27.29110\include\xutility
;	COMDAT ??$_Seek_wrapped@PEAPEAUEntry@LT@@AEAPEAPEAU12@@std@@YAXAEAPEAPEAUEntry@LT@@0@Z
_TEXT	SEGMENT
_It$ = 224
_UIt$ = 232
??$_Seek_wrapped@PEAPEAUEntry@LT@@AEAPEAPEAU12@@std@@YAXAEAPEAPEAUEntry@LT@@0@Z PROC ; std::_Seek_wrapped<LT::Entry * *,LT::Entry * * &>, COMDAT

; 1417 : constexpr void _Seek_wrapped(_Iter& _It, _UIter&& _UIt) {

$LN3:
  00000	48 89 54 24 10	 mov	 QWORD PTR [rsp+16], rdx
  00005	48 89 4c 24 08	 mov	 QWORD PTR [rsp+8], rcx
  0000a	55		 push	 rbp
  0000b	57		 push	 rdi
  0000c	48 81 ec e8 00
	00 00		 sub	 rsp, 232		; 000000e8H
  00013	48 8d 6c 24 20	 lea	 rbp, QWORD PTR [rsp+32]
  00018	48 8b fc	 mov	 rdi, rsp
  0001b	b9 3a 00 00 00	 mov	 ecx, 58			; 0000003aH
  00020	b8 cc cc cc cc	 mov	 eax, -858993460		; ccccccccH
  00025	f3 ab		 rep stosd
  00027	48 8b 8c 24 08
	01 00 00	 mov	 rcx, QWORD PTR [rsp+264]
  0002f	48 8d 0d 00 00
	00 00		 lea	 rcx, OFFSET FLAT:__36E77527_xutility
  00036	e8 00 00 00 00	 call	 __CheckForDebuggerJustMyCode

; 1418 :     if constexpr (_Wrapped_seekable_v<_Iter, _UIter>) {
; 1419 :         _It._Seek_to(static_cast<_UIter&&>(_UIt));
; 1420 :     } else {
; 1421 :         _It = static_cast<_UIter&&>(_UIt);

  0003b	48 8b 85 e0 00
	00 00		 mov	 rax, QWORD PTR _It$[rbp]
  00042	48 8b 8d e8 00
	00 00		 mov	 rcx, QWORD PTR _UIt$[rbp]
  00049	48 8b 09	 mov	 rcx, QWORD PTR [rcx]
  0004c	48 89 08	 mov	 QWORD PTR [rax], rcx

; 1422 :     }
; 1423 : }

  0004f	48 8d a5 c8 00
	00 00		 lea	 rsp, QWORD PTR [rbp+200]
  00056	5f		 pop	 rdi
  00057	5d		 pop	 rbp
  00058	c3		 ret	 0
??$_Seek_wrapped@PEAPEAUEntry@LT@@AEAPEAPEAU12@@std@@YAXAEAPEAPEAUEntry@LT@@0@Z ENDP ; std::_Seek_wrapped<LT::Entry * *,LT::Entry * * &>
_TEXT	ENDS
; Function compile flags: /Odtp /RTCsu /ZI
; File C:\Program Files (x86)\Microsoft Visual Studio\2019\Enterprise\VC\Tools\MSVC\14.27.29110\include\xutility
;	COMDAT ??$_Copy_memmove@PEAPEAUEntry@LT@@PEAPEAU12@@std@@YAPEAPEAUEntry@LT@@PEAPEAU12@00@Z
_TEXT	SEGMENT
_First_ch$ = 8
_Last_ch$ = 40
_Dest_ch$ = 72
_Count$ = 104
_First$ = 352
_Last$ = 360
_Dest$ = 368
??$_Copy_memmove@PEAPEAUEntry@LT@@PEAPEAU12@@std@@YAPEAPEAUEntry@LT@@PEAPEAU12@00@Z PROC ; std::_Copy_memmove<LT::Entry * *,LT::Entry * *>, COMDAT

; 4113 : _OutIt _Copy_memmove(_InIt _First, _InIt _Last, _OutIt _Dest) {

$LN3:
  00000	4c 89 44 24 18	 mov	 QWORD PTR [rsp+24], r8
  00005	48 89 54 24 10	 mov	 QWORD PTR [rsp+16], rdx
  0000a	48 89 4c 24 08	 mov	 QWORD PTR [rsp+8], rcx
  0000f	55		 push	 rbp
  00010	57		 push	 rdi
  00011	48 81 ec 68 01
	00 00		 sub	 rsp, 360		; 00000168H
  00018	48 8d 6c 24 20	 lea	 rbp, QWORD PTR [rsp+32]
  0001d	48 8b fc	 mov	 rdi, rsp
  00020	b9 5a 00 00 00	 mov	 ecx, 90			; 0000005aH
  00025	b8 cc cc cc cc	 mov	 eax, -858993460		; ccccccccH
  0002a	f3 ab		 rep stosd
  0002c	48 8b 8c 24 88
	01 00 00	 mov	 rcx, QWORD PTR [rsp+392]
  00034	48 8d 0d 00 00
	00 00		 lea	 rcx, OFFSET FLAT:__36E77527_xutility
  0003b	e8 00 00 00 00	 call	 __CheckForDebuggerJustMyCode

; 4114 :     const char* const _First_ch = const_cast<const char*>(reinterpret_cast<const volatile char*>(_First));

  00040	48 8b 85 60 01
	00 00		 mov	 rax, QWORD PTR _First$[rbp]
  00047	48 89 45 08	 mov	 QWORD PTR _First_ch$[rbp], rax

; 4115 :     const char* const _Last_ch  = const_cast<const char*>(reinterpret_cast<const volatile char*>(_Last));

  0004b	48 8b 85 68 01
	00 00		 mov	 rax, QWORD PTR _Last$[rbp]
  00052	48 89 45 28	 mov	 QWORD PTR _Last_ch$[rbp], rax

; 4116 :     char* const _Dest_ch        = const_cast<char*>(reinterpret_cast<volatile char*>(_Dest));

  00056	48 8b 85 70 01
	00 00		 mov	 rax, QWORD PTR _Dest$[rbp]
  0005d	48 89 45 48	 mov	 QWORD PTR _Dest_ch$[rbp], rax

; 4117 :     const auto _Count           = static_cast<size_t>(_Last_ch - _First_ch);

  00061	48 8b 45 08	 mov	 rax, QWORD PTR _First_ch$[rbp]
  00065	48 8b 4d 28	 mov	 rcx, QWORD PTR _Last_ch$[rbp]
  00069	48 2b c8	 sub	 rcx, rax
  0006c	48 8b c1	 mov	 rax, rcx
  0006f	48 89 45 68	 mov	 QWORD PTR _Count$[rbp], rax

; 4118 :     _CSTD memmove(_Dest_ch, _First_ch, _Count);

  00073	4c 8b 45 68	 mov	 r8, QWORD PTR _Count$[rbp]
  00077	48 8b 55 08	 mov	 rdx, QWORD PTR _First_ch$[rbp]
  0007b	48 8b 4d 48	 mov	 rcx, QWORD PTR _Dest_ch$[rbp]
  0007f	e8 00 00 00 00	 call	 memmove

; 4119 :     return reinterpret_cast<_OutIt>(_Dest_ch + _Count);

  00084	48 8b 45 68	 mov	 rax, QWORD PTR _Count$[rbp]
  00088	48 8b 4d 48	 mov	 rcx, QWORD PTR _Dest_ch$[rbp]
  0008c	48 03 c8	 add	 rcx, rax
  0008f	48 8b c1	 mov	 rax, rcx

; 4120 : }

  00092	48 8d a5 48 01
	00 00		 lea	 rsp, QWORD PTR [rbp+328]
  00099	5f		 pop	 rdi
  0009a	5d		 pop	 rbp
  0009b	c3		 ret	 0
??$_Copy_memmove@PEAPEAUEntry@LT@@PEAPEAU12@@std@@YAPEAPEAUEntry@LT@@PEAPEAU12@00@Z ENDP ; std::_Copy_memmove<LT::Entry * *,LT::Entry * *>
_TEXT	ENDS
; Function compile flags: /Odtp /RTCsu /ZI
; File C:\Program Files (x86)\Microsoft Visual Studio\2019\Enterprise\VC\Tools\MSVC\14.27.29110\include\xutility
;	COMDAT ??$_Get_unwrapped_n@AEAPEAPEAUEntry@LT@@_J@std@@YA@AEAPEAPEAUEntry@LT@@_J@Z
_TEXT	SEGMENT
_It$ = 224
_Off$ = 232
??$_Get_unwrapped_n@AEAPEAPEAUEntry@LT@@_J@std@@YA@AEAPEAPEAUEntry@LT@@_J@Z PROC ; std::_Get_unwrapped_n<LT::Entry * * &,__int64>, COMDAT

; 1335 : _NODISCARD constexpr decltype(auto) _Get_unwrapped_n(_Iter&& _It, const _Diff _Off) {

$LN3:
  00000	48 89 54 24 10	 mov	 QWORD PTR [rsp+16], rdx
  00005	48 89 4c 24 08	 mov	 QWORD PTR [rsp+8], rcx
  0000a	55		 push	 rbp
  0000b	57		 push	 rdi
  0000c	48 81 ec e8 00
	00 00		 sub	 rsp, 232		; 000000e8H
  00013	48 8d 6c 24 20	 lea	 rbp, QWORD PTR [rsp+32]
  00018	48 8b fc	 mov	 rdi, rsp
  0001b	b9 3a 00 00 00	 mov	 ecx, 58			; 0000003aH
  00020	b8 cc cc cc cc	 mov	 eax, -858993460		; ccccccccH
  00025	f3 ab		 rep stosd
  00027	48 8b 8c 24 08
	01 00 00	 mov	 rcx, QWORD PTR [rsp+264]
  0002f	48 8d 0d 00 00
	00 00		 lea	 rcx, OFFSET FLAT:__36E77527_xutility
  00036	e8 00 00 00 00	 call	 __CheckForDebuggerJustMyCode

; 1336 :     if constexpr (is_pointer_v<decay_t<_Iter>>) {
; 1337 :         return _It + 0;

  0003b	48 8b 85 e0 00
	00 00		 mov	 rax, QWORD PTR _It$[rbp]
  00042	48 8b 00	 mov	 rax, QWORD PTR [rax]

; 1338 :     } else if constexpr (_Unwrappable_for_offset_v<_Iter> && is_integral_v<_Diff>) {
; 1339 :         // ask an iterator to assert that the iterator moved _Off positions is valid, and unwrap
; 1340 :         using _IDiff     = _Iter_diff_t<_Remove_cvref_t<_Iter>>;
; 1341 :         using _CDiff     = common_type_t<_Diff, _IDiff>;
; 1342 :         const auto _COff = static_cast<_CDiff>(_Off);
; 1343 : 
; 1344 :         _STL_ASSERT(_COff <= static_cast<_CDiff>(_Max_possible_v<_IDiff>)
; 1345 :                         && (is_unsigned_v<_Diff> || static_cast<_CDiff>(_Min_possible_v<_IDiff>) <= _COff),
; 1346 :             "integer overflow");
; 1347 :         (void) _COff;
; 1348 : 
; 1349 :         _It._Verify_offset(static_cast<_IDiff>(_Off));
; 1350 :         return static_cast<_Iter&&>(_It)._Unwrapped();
; 1351 :     } else if constexpr (_Unwrappable_for_unverified_v<_Iter>) {
; 1352 :         // iterator doesn't support offset-based asserts, or offset unknown; defer to unverified unwrap
; 1353 :         return static_cast<_Iter&&>(_It)._Unwrapped();
; 1354 :     } else {
; 1355 :         // pass through iterator that doesn't participate in checking
; 1356 :         return static_cast<_Iter&&>(_It);
; 1357 :     }
; 1358 : }

  00045	48 8d a5 c8 00
	00 00		 lea	 rsp, QWORD PTR [rbp+200]
  0004c	5f		 pop	 rdi
  0004d	5d		 pop	 rbp
  0004e	c3		 ret	 0
??$_Get_unwrapped_n@AEAPEAPEAUEntry@LT@@_J@std@@YA@AEAPEAPEAUEntry@LT@@_J@Z ENDP ; std::_Get_unwrapped_n<LT::Entry * * &,__int64>
_TEXT	ENDS
; Function compile flags: /Odtp /RTCsu /ZI
; File C:\Program Files (x86)\Microsoft Visual Studio\2019\Enterprise\VC\Tools\MSVC\14.27.29110\include\xutility
;	COMDAT ??$_Idl_distance@PEAPEAUEntry@LT@@PEAPEAU12@@std@@YA@AEBQEAPEAUEntry@LT@@0@Z
_TEXT	SEGMENT
_First$ = 224
_Last$ = 232
??$_Idl_distance@PEAPEAUEntry@LT@@PEAPEAU12@@std@@YA@AEBQEAPEAUEntry@LT@@0@Z PROC ; std::_Idl_distance<LT::Entry * *,LT::Entry * *>, COMDAT

; 1483 : _NODISCARD constexpr auto _Idl_distance(const _Iter& _First, const _Iter& _Last) {

$LN3:
  00000	48 89 54 24 10	 mov	 QWORD PTR [rsp+16], rdx
  00005	48 89 4c 24 08	 mov	 QWORD PTR [rsp+8], rcx
  0000a	55		 push	 rbp
  0000b	57		 push	 rdi
  0000c	48 81 ec e8 00
	00 00		 sub	 rsp, 232		; 000000e8H
  00013	48 8d 6c 24 20	 lea	 rbp, QWORD PTR [rsp+32]
  00018	48 8b fc	 mov	 rdi, rsp
  0001b	b9 3a 00 00 00	 mov	 ecx, 58			; 0000003aH
  00020	b8 cc cc cc cc	 mov	 eax, -858993460		; ccccccccH
  00025	f3 ab		 rep stosd
  00027	48 8b 8c 24 08
	01 00 00	 mov	 rcx, QWORD PTR [rsp+264]
  0002f	48 8d 0d 00 00
	00 00		 lea	 rcx, OFFSET FLAT:__36E77527_xutility
  00036	e8 00 00 00 00	 call	 __CheckForDebuggerJustMyCode

; 1484 :     // tries to get the distance between _First and _Last if they are random-access iterators
; 1485 :     if constexpr (_Is_random_iter_v<_Iter>) {
; 1486 :         return static_cast<_Iter_diff_t<_Checked>>(_Last - _First);

  0003b	48 8b 85 e8 00
	00 00		 mov	 rax, QWORD PTR _Last$[rbp]
  00042	48 8b 8d e0 00
	00 00		 mov	 rcx, QWORD PTR _First$[rbp]
  00049	48 8b 09	 mov	 rcx, QWORD PTR [rcx]
  0004c	48 8b 00	 mov	 rax, QWORD PTR [rax]
  0004f	48 2b c1	 sub	 rax, rcx
  00052	48 c1 f8 03	 sar	 rax, 3

; 1487 :     } else {
; 1488 :         return _Distance_unknown{};
; 1489 :     }
; 1490 : }

  00056	48 8d a5 c8 00
	00 00		 lea	 rsp, QWORD PTR [rbp+200]
  0005d	5f		 pop	 rdi
  0005e	5d		 pop	 rbp
  0005f	c3		 ret	 0
??$_Idl_distance@PEAPEAUEntry@LT@@PEAPEAU12@@std@@YA@AEBQEAPEAUEntry@LT@@0@Z ENDP ; std::_Idl_distance<LT::Entry * *,LT::Entry * *>
_TEXT	ENDS
; Function compile flags: /Odtp /RTCsu /ZI
; File C:\Program Files (x86)\Microsoft Visual Studio\2019\Enterprise\VC\Tools\MSVC\14.27.29110\include\xutility
;	COMDAT ??$_Get_unwrapped@AEBQEAPEAUEntry@LT@@@std@@YA@AEBQEAPEAUEntry@LT@@@Z
_TEXT	SEGMENT
_It$ = 224
??$_Get_unwrapped@AEBQEAPEAUEntry@LT@@@std@@YA@AEBQEAPEAUEntry@LT@@@Z PROC ; std::_Get_unwrapped<LT::Entry * * const &>, COMDAT

; 1229 : _NODISCARD constexpr decltype(auto) _Get_unwrapped(_Iter&& _It) {

$LN3:
  00000	48 89 4c 24 08	 mov	 QWORD PTR [rsp+8], rcx
  00005	55		 push	 rbp
  00006	57		 push	 rdi
  00007	48 81 ec e8 00
	00 00		 sub	 rsp, 232		; 000000e8H
  0000e	48 8d 6c 24 20	 lea	 rbp, QWORD PTR [rsp+32]
  00013	48 8b fc	 mov	 rdi, rsp
  00016	b9 3a 00 00 00	 mov	 ecx, 58			; 0000003aH
  0001b	b8 cc cc cc cc	 mov	 eax, -858993460		; ccccccccH
  00020	f3 ab		 rep stosd
  00022	48 8b 8c 24 08
	01 00 00	 mov	 rcx, QWORD PTR [rsp+264]
  0002a	48 8d 0d 00 00
	00 00		 lea	 rcx, OFFSET FLAT:__36E77527_xutility
  00031	e8 00 00 00 00	 call	 __CheckForDebuggerJustMyCode

; 1230 :     // unwrap an iterator previously subjected to _Adl_verify_range or otherwise validated
; 1231 :     if constexpr (is_pointer_v<decay_t<_Iter>>) { // special-case pointers and arrays
; 1232 :         return _It + 0;

  00036	48 8b 85 e0 00
	00 00		 mov	 rax, QWORD PTR _It$[rbp]
  0003d	48 8b 00	 mov	 rax, QWORD PTR [rax]

; 1233 :     } else if constexpr (_Unwrappable_v<_Iter>) {
; 1234 :         return static_cast<_Iter&&>(_It)._Unwrapped();
; 1235 :     } else {
; 1236 :         return static_cast<_Iter&&>(_It);
; 1237 :     }
; 1238 : }

  00040	48 8d a5 c8 00
	00 00		 lea	 rsp, QWORD PTR [rbp+200]
  00047	5f		 pop	 rdi
  00048	5d		 pop	 rbp
  00049	c3		 ret	 0
??$_Get_unwrapped@AEBQEAPEAUEntry@LT@@@std@@YA@AEBQEAPEAUEntry@LT@@@Z ENDP ; std::_Get_unwrapped<LT::Entry * * const &>
_TEXT	ENDS
; Function compile flags: /Odtp /RTCsu /ZI
; File C:\Program Files (x86)\Microsoft Visual Studio\2019\Enterprise\VC\Tools\MSVC\14.27.29110\include\xutility
;	COMDAT ??$_Adl_verify_range@PEAPEAUEntry@LT@@PEAPEAU12@@std@@YAXAEBQEAPEAUEntry@LT@@0@Z
_TEXT	SEGMENT
_First$ = 224
_Last$ = 232
??$_Adl_verify_range@PEAPEAUEntry@LT@@PEAPEAU12@@std@@YAXAEBQEAPEAUEntry@LT@@0@Z PROC ; std::_Adl_verify_range<LT::Entry * *,LT::Entry * *>, COMDAT

; 1192 : constexpr void _Adl_verify_range(const _Iter& _First, const _Sentinel& _Last) {

$LN3:
  00000	48 89 54 24 10	 mov	 QWORD PTR [rsp+16], rdx
  00005	48 89 4c 24 08	 mov	 QWORD PTR [rsp+8], rcx
  0000a	55		 push	 rbp
  0000b	57		 push	 rdi
  0000c	48 81 ec e8 00
	00 00		 sub	 rsp, 232		; 000000e8H
  00013	48 8d 6c 24 20	 lea	 rbp, QWORD PTR [rsp+32]
  00018	48 8b fc	 mov	 rdi, rsp
  0001b	b9 3a 00 00 00	 mov	 ecx, 58			; 0000003aH
  00020	b8 cc cc cc cc	 mov	 eax, -858993460		; ccccccccH
  00025	f3 ab		 rep stosd
  00027	48 8b 8c 24 08
	01 00 00	 mov	 rcx, QWORD PTR [rsp+264]
  0002f	48 8d 0d 00 00
	00 00		 lea	 rcx, OFFSET FLAT:__36E77527_xutility
  00036	e8 00 00 00 00	 call	 __CheckForDebuggerJustMyCode

; 1193 :     // check that [_First, _Last) forms an iterator range
; 1194 :     if constexpr (_Range_verifiable_v<_Iter, _Sentinel>) {
; 1195 :         _Verify_range(_First, _Last);

  0003b	48 8b 85 e8 00
	00 00		 mov	 rax, QWORD PTR _Last$[rbp]
  00042	48 8b 10	 mov	 rdx, QWORD PTR [rax]
  00045	48 8b 85 e0 00
	00 00		 mov	 rax, QWORD PTR _First$[rbp]
  0004c	48 8b 08	 mov	 rcx, QWORD PTR [rax]
  0004f	e8 00 00 00 00	 call	 ??$_Verify_range@PEAUEntry@LT@@@std@@YAXQEBQEAUEntry@LT@@0@Z ; std::_Verify_range<LT::Entry *>

; 1196 :     }
; 1197 : }

  00054	48 8d a5 c8 00
	00 00		 lea	 rsp, QWORD PTR [rbp+200]
  0005b	5f		 pop	 rdi
  0005c	5d		 pop	 rbp
  0005d	c3		 ret	 0
??$_Adl_verify_range@PEAPEAUEntry@LT@@PEAPEAU12@@std@@YAXAEBQEAPEAUEntry@LT@@0@Z ENDP ; std::_Adl_verify_range<LT::Entry * *,LT::Entry * *>
_TEXT	ENDS
; Function compile flags: /Odtp /RTCsu /ZI
; File C:\Program Files (x86)\Microsoft Visual Studio\2019\Enterprise\VC\Tools\MSVC\14.27.29110\include\type_traits
;	COMDAT ??$forward@AEBQEAU?$_List_node@UEntry@LT@@PEAX@std@@@std@@YAAEBQEAU?$_List_node@UEntry@LT@@PEAX@0@AEBQEAU10@@Z
_TEXT	SEGMENT
_Arg$ = 224
??$forward@AEBQEAU?$_List_node@UEntry@LT@@PEAX@std@@@std@@YAAEBQEAU?$_List_node@UEntry@LT@@PEAX@0@AEBQEAU10@@Z PROC ; std::forward<std::_List_node<LT::Entry,void *> * const &>, COMDAT

; 1454 :     remove_reference_t<_Ty>& _Arg) noexcept { // forward an lvalue as either an lvalue or an rvalue

$LN3:
  00000	48 89 4c 24 08	 mov	 QWORD PTR [rsp+8], rcx
  00005	55		 push	 rbp
  00006	57		 push	 rdi
  00007	48 81 ec e8 00
	00 00		 sub	 rsp, 232		; 000000e8H
  0000e	48 8d 6c 24 20	 lea	 rbp, QWORD PTR [rsp+32]
  00013	48 8b fc	 mov	 rdi, rsp
  00016	b9 3a 00 00 00	 mov	 ecx, 58			; 0000003aH
  0001b	b8 cc cc cc cc	 mov	 eax, -858993460		; ccccccccH
  00020	f3 ab		 rep stosd
  00022	48 8b 8c 24 08
	01 00 00	 mov	 rcx, QWORD PTR [rsp+264]
  0002a	48 8d 0d 00 00
	00 00		 lea	 rcx, OFFSET FLAT:__B236D4B0_type_traits
  00031	e8 00 00 00 00	 call	 __CheckForDebuggerJustMyCode

; 1455 :     return static_cast<_Ty&&>(_Arg);

  00036	48 8b 85 e0 00
	00 00		 mov	 rax, QWORD PTR _Arg$[rbp]

; 1456 : }

  0003d	48 8d a5 c8 00
	00 00		 lea	 rsp, QWORD PTR [rbp+200]
  00044	5f		 pop	 rdi
  00045	5d		 pop	 rbp
  00046	c3		 ret	 0
??$forward@AEBQEAU?$_List_node@UEntry@LT@@PEAX@std@@@std@@YAAEBQEAU?$_List_node@UEntry@LT@@PEAX@0@AEBQEAU10@@Z ENDP ; std::forward<std::_List_node<LT::Entry,void *> * const &>
_TEXT	ENDS
; Function compile flags: /Odtp /RTCsu /ZI
; File C:\Program Files (x86)\Microsoft Visual Studio\2019\Enterprise\VC\Tools\MSVC\14.27.29110\include\xmemory
;	COMDAT ?deallocate@?$_Default_allocator_traits@V?$allocator@U_Container_proxy@std@@@std@@@std@@SAXAEAV?$allocator@U_Container_proxy@std@@@2@QEAU_Container_proxy@2@_K@Z
_TEXT	SEGMENT
__formal$ = 224
_Ptr$ = 232
_Count$ = 240
?deallocate@?$_Default_allocator_traits@V?$allocator@U_Container_proxy@std@@@std@@@std@@SAXAEAV?$allocator@U_Container_proxy@std@@@2@QEAU_Container_proxy@2@_K@Z PROC ; std::_Default_allocator_traits<std::allocator<std::_Container_proxy> >::deallocate, COMDAT

; 687  :     static void deallocate(_Alloc&, const pointer _Ptr, const size_type _Count) {

$LN3:
  00000	4c 89 44 24 18	 mov	 QWORD PTR [rsp+24], r8
  00005	48 89 54 24 10	 mov	 QWORD PTR [rsp+16], rdx
  0000a	48 89 4c 24 08	 mov	 QWORD PTR [rsp+8], rcx
  0000f	55		 push	 rbp
  00010	57		 push	 rdi
  00011	48 81 ec e8 00
	00 00		 sub	 rsp, 232		; 000000e8H
  00018	48 8d 6c 24 20	 lea	 rbp, QWORD PTR [rsp+32]
  0001d	48 8b fc	 mov	 rdi, rsp
  00020	b9 3a 00 00 00	 mov	 ecx, 58			; 0000003aH
  00025	b8 cc cc cc cc	 mov	 eax, -858993460		; ccccccccH
  0002a	f3 ab		 rep stosd
  0002c	48 8b 8c 24 08
	01 00 00	 mov	 rcx, QWORD PTR [rsp+264]
  00034	48 8d 0d 00 00
	00 00		 lea	 rcx, OFFSET FLAT:__0C99713E_xmemory
  0003b	e8 00 00 00 00	 call	 __CheckForDebuggerJustMyCode

; 688  :         // no overflow check on the following multiply; we assume _Allocate did that check
; 689  :         _Deallocate<_New_alignof<value_type>>(_Ptr, sizeof(value_type) * _Count);

  00040	48 6b 85 f0 00
	00 00 10	 imul	 rax, QWORD PTR _Count$[rbp], 16
  00048	48 8b d0	 mov	 rdx, rax
  0004b	48 8b 8d e8 00
	00 00		 mov	 rcx, QWORD PTR _Ptr$[rbp]
  00052	e8 00 00 00 00	 call	 ??$_Deallocate@$0BA@$0A@@std@@YAXPEAX_K@Z ; std::_Deallocate<16,0>

; 690  :     }

  00057	48 8d a5 c8 00
	00 00		 lea	 rsp, QWORD PTR [rbp+200]
  0005e	5f		 pop	 rdi
  0005f	5d		 pop	 rbp
  00060	c3		 ret	 0
?deallocate@?$_Default_allocator_traits@V?$allocator@U_Container_proxy@std@@@std@@@std@@SAXAEAV?$allocator@U_Container_proxy@std@@@2@QEAU_Container_proxy@2@_K@Z ENDP ; std::_Default_allocator_traits<std::allocator<std::_Container_proxy> >::deallocate
_TEXT	ENDS
; Function compile flags: /Odtp /RTCsu /ZI
; File C:\Program Files (x86)\Microsoft Visual Studio\2019\Enterprise\VC\Tools\MSVC\14.27.29110\include\xmemory
;	COMDAT ??$construct@UEntry@LT@@AEBU12@@?$_Default_allocator_traits@V?$allocator@U?$_List_node@UEntry@LT@@PEAX@std@@@std@@@std@@SAXAEAV?$allocator@U?$_List_node@UEntry@LT@@PEAX@std@@@1@QEAUEntry@LT@@AEBU34@@Z
_TEXT	SEGMENT
$T1 = 200
__formal$ = 256
_Ptr$ = 264
<_Args_0>$ = 272
??$construct@UEntry@LT@@AEBU12@@?$_Default_allocator_traits@V?$allocator@U?$_List_node@UEntry@LT@@PEAX@std@@@std@@@std@@SAXAEAV?$allocator@U?$_List_node@UEntry@LT@@PEAX@std@@@1@QEAUEntry@LT@@AEBU34@@Z PROC ; std::_Default_allocator_traits<std::allocator<std::_List_node<LT::Entry,void *> > >::construct<LT::Entry,LT::Entry const &>, COMDAT

; 693  :     static void construct(_Alloc&, _Objty* const _Ptr, _Types&&... _Args) {

$LN3:
  00000	4c 89 44 24 18	 mov	 QWORD PTR [rsp+24], r8
  00005	48 89 54 24 10	 mov	 QWORD PTR [rsp+16], rdx
  0000a	48 89 4c 24 08	 mov	 QWORD PTR [rsp+8], rcx
  0000f	55		 push	 rbp
  00010	56		 push	 rsi
  00011	57		 push	 rdi
  00012	48 81 ec 00 01
	00 00		 sub	 rsp, 256		; 00000100H
  00019	48 8d 6c 24 20	 lea	 rbp, QWORD PTR [rsp+32]
  0001e	48 8b fc	 mov	 rdi, rsp
  00021	b9 40 00 00 00	 mov	 ecx, 64			; 00000040H
  00026	b8 cc cc cc cc	 mov	 eax, -858993460		; ccccccccH
  0002b	f3 ab		 rep stosd
  0002d	48 8b 8c 24 28
	01 00 00	 mov	 rcx, QWORD PTR [rsp+296]
  00035	48 8d 0d 00 00
	00 00		 lea	 rcx, OFFSET FLAT:__0C99713E_xmemory
  0003c	e8 00 00 00 00	 call	 __CheckForDebuggerJustMyCode
  00041	48 8b 95 08 01
	00 00		 mov	 rdx, QWORD PTR _Ptr$[rbp]
  00048	b9 10 00 00 00	 mov	 ecx, 16
  0004d	e8 00 00 00 00	 call	 ??2@YAPEAX_KPEAX@Z	; operator new
  00052	48 89 85 c8 00
	00 00		 mov	 QWORD PTR $T1[rbp], rax
  00059	48 8b 8d 10 01
	00 00		 mov	 rcx, QWORD PTR <_Args_0>$[rbp]
  00060	e8 00 00 00 00	 call	 ??$forward@AEBUEntry@LT@@@std@@YAAEBUEntry@LT@@AEBU12@@Z ; std::forward<LT::Entry const &>
  00065	48 8b bd c8 00
	00 00		 mov	 rdi, QWORD PTR $T1[rbp]
  0006c	48 8b f0	 mov	 rsi, rax
  0006f	b9 10 00 00 00	 mov	 ecx, 16
  00074	f3 a4		 rep movsb

; 694  :         ::new (const_cast<void*>(static_cast<const volatile void*>(_Ptr))) _Objty(_STD forward<_Types>(_Args)...);
; 695  :     }

  00076	48 8d a5 e0 00
	00 00		 lea	 rsp, QWORD PTR [rbp+224]
  0007d	5f		 pop	 rdi
  0007e	5e		 pop	 rsi
  0007f	5d		 pop	 rbp
  00080	c3		 ret	 0
??$construct@UEntry@LT@@AEBU12@@?$_Default_allocator_traits@V?$allocator@U?$_List_node@UEntry@LT@@PEAX@std@@@std@@@std@@SAXAEAV?$allocator@U?$_List_node@UEntry@LT@@PEAX@std@@@1@QEAUEntry@LT@@AEBU34@@Z ENDP ; std::_Default_allocator_traits<std::allocator<std::_List_node<LT::Entry,void *> > >::construct<LT::Entry,LT::Entry const &>
_TEXT	ENDS
; Function compile flags: /Odtp /RTCsu /ZI
; File C:\Program Files (x86)\Microsoft Visual Studio\2019\Enterprise\VC\Tools\MSVC\14.27.29110\include\xmemory
;	COMDAT ??$_Get_size_of_n@$07@std@@YA_K_K@Z
_TEXT	SEGMENT
_Overflow_is_possible$ = 4
_Max_possible$1 = 40
_Count$ = 288
??$_Get_size_of_n@$07@std@@YA_K_K@Z PROC		; std::_Get_size_of_n<8>, COMDAT

; 55   : _NODISCARD constexpr size_t _Get_size_of_n(const size_t _Count) {

$LN4:
  00000	48 89 4c 24 08	 mov	 QWORD PTR [rsp+8], rcx
  00005	55		 push	 rbp
  00006	57		 push	 rdi
  00007	48 81 ec 28 01
	00 00		 sub	 rsp, 296		; 00000128H
  0000e	48 8d 6c 24 20	 lea	 rbp, QWORD PTR [rsp+32]
  00013	48 8b fc	 mov	 rdi, rsp
  00016	b9 4a 00 00 00	 mov	 ecx, 74			; 0000004aH
  0001b	b8 cc cc cc cc	 mov	 eax, -858993460		; ccccccccH
  00020	f3 ab		 rep stosd
  00022	48 8b 8c 24 48
	01 00 00	 mov	 rcx, QWORD PTR [rsp+328]
  0002a	48 8d 0d 00 00
	00 00		 lea	 rcx, OFFSET FLAT:__0C99713E_xmemory
  00031	e8 00 00 00 00	 call	 __CheckForDebuggerJustMyCode

; 56   :     constexpr bool _Overflow_is_possible = _Ty_size > 1;

  00036	c6 45 04 01	 mov	 BYTE PTR _Overflow_is_possible$[rbp], 1

; 57   : 
; 58   :     if _CONSTEXPR_IF (_Overflow_is_possible) {
; 59   :         constexpr size_t _Max_possible = static_cast<size_t>(-1) / _Ty_size;

  0003a	48 b8 ff ff ff
	ff ff ff ff 1f	 mov	 rax, 2305843009213693951 ; 1fffffffffffffffH
  00044	48 89 45 28	 mov	 QWORD PTR _Max_possible$1[rbp], rax

; 60   :         if (_Count > _Max_possible) {

  00048	48 b8 ff ff ff
	ff ff ff ff 1f	 mov	 rax, 2305843009213693951 ; 1fffffffffffffffH
  00052	48 39 85 20 01
	00 00		 cmp	 QWORD PTR _Count$[rbp], rax
  00059	76 05		 jbe	 SHORT $LN2@Get_size_o

; 61   :             _Throw_bad_array_new_length(); // multiply overflow

  0005b	e8 00 00 00 00	 call	 ?_Throw_bad_array_new_length@std@@YAXXZ ; std::_Throw_bad_array_new_length
$LN2@Get_size_o:

; 62   :         }
; 63   :     }
; 64   : 
; 65   :     return _Count * _Ty_size;

  00060	48 8b 85 20 01
	00 00		 mov	 rax, QWORD PTR _Count$[rbp]
  00067	48 c1 e0 03	 shl	 rax, 3
$LN3@Get_size_o:

; 66   : }

  0006b	48 8d a5 08 01
	00 00		 lea	 rsp, QWORD PTR [rbp+264]
  00072	5f		 pop	 rdi
  00073	5d		 pop	 rbp
  00074	c3		 ret	 0
??$_Get_size_of_n@$07@std@@YA_K_K@Z ENDP		; std::_Get_size_of_n<8>
_TEXT	ENDS
; Function compile flags: /Odtp /RTCsu /ZI
; File C:\Program Files (x86)\Microsoft Visual Studio\2019\Enterprise\VC\Tools\MSVC\14.27.29110\include\xmemory
;	COMDAT ??$_Destroy_range@PEAPEAUEntry@LT@@@std@@YAXPEAPEAUEntry@LT@@QEAPEAU12@@Z
_TEXT	SEGMENT
_First$ = 224
_Last$ = 232
??$_Destroy_range@PEAPEAUEntry@LT@@@std@@YAXPEAPEAUEntry@LT@@QEAPEAU12@@Z PROC ; std::_Destroy_range<LT::Entry * *>, COMDAT

; 968  : void _Destroy_range(_NoThrowFwdIt _First, const _NoThrowFwdIt _Last) noexcept {

$LN3:
  00000	48 89 54 24 10	 mov	 QWORD PTR [rsp+16], rdx
  00005	48 89 4c 24 08	 mov	 QWORD PTR [rsp+8], rcx
  0000a	55		 push	 rbp
  0000b	57		 push	 rdi
  0000c	48 81 ec e8 00
	00 00		 sub	 rsp, 232		; 000000e8H
  00013	48 8d 6c 24 20	 lea	 rbp, QWORD PTR [rsp+32]
  00018	48 8b fc	 mov	 rdi, rsp
  0001b	b9 3a 00 00 00	 mov	 ecx, 58			; 0000003aH
  00020	b8 cc cc cc cc	 mov	 eax, -858993460		; ccccccccH
  00025	f3 ab		 rep stosd
  00027	48 8b 8c 24 08
	01 00 00	 mov	 rcx, QWORD PTR [rsp+264]
  0002f	48 8d 0d 00 00
	00 00		 lea	 rcx, OFFSET FLAT:__0C99713E_xmemory
  00036	e8 00 00 00 00	 call	 __CheckForDebuggerJustMyCode
  0003b	90		 npad	 1

; 969  :     // note that this is an optimization for debug mode codegen; in release mode the BE removes all of this
; 970  :     if _CONSTEXPR_IF (!is_trivially_destructible_v<_Iter_value_t<_NoThrowFwdIt>>) {
; 971  :         for (; _First != _Last; ++_First) {
; 972  :             _Destroy_in_place(*_First);
; 973  :         }
; 974  :     }
; 975  : }

  0003c	48 8d a5 c8 00
	00 00		 lea	 rsp, QWORD PTR [rbp+200]
  00043	5f		 pop	 rdi
  00044	5d		 pop	 rbp
  00045	c3		 ret	 0
??$_Destroy_range@PEAPEAUEntry@LT@@@std@@YAXPEAPEAUEntry@LT@@QEAPEAU12@@Z ENDP ; std::_Destroy_range<LT::Entry * *>
_TEXT	ENDS
; Function compile flags: /Odtp /RTCsu /ZI
; File C:\Program Files (x86)\Microsoft Visual Studio\2019\Enterprise\VC\Tools\MSVC\14.27.29110\include\xmemory
;	COMDAT ??$_Uninitialized_value_construct_n_unchecked1@PEAPEAUEntry@LT@@_K@std@@YAPEAPEAUEntry@LT@@PEAPEAU12@_K@Z
_TEXT	SEGMENT
_UFirst$ = 224
_Count$ = 232
??$_Uninitialized_value_construct_n_unchecked1@PEAPEAUEntry@LT@@_K@std@@YAPEAPEAUEntry@LT@@PEAPEAU12@_K@Z PROC ; std::_Uninitialized_value_construct_n_unchecked1<LT::Entry * *,unsigned __int64>, COMDAT

; 1874 : _NoThrowFwdIt _Uninitialized_value_construct_n_unchecked1(_NoThrowFwdIt _UFirst, _Diff _Count) {

$LN3:
  00000	48 89 54 24 10	 mov	 QWORD PTR [rsp+16], rdx
  00005	48 89 4c 24 08	 mov	 QWORD PTR [rsp+8], rcx
  0000a	55		 push	 rbp
  0000b	57		 push	 rdi
  0000c	48 81 ec e8 00
	00 00		 sub	 rsp, 232		; 000000e8H
  00013	48 8d 6c 24 20	 lea	 rbp, QWORD PTR [rsp+32]
  00018	48 8b fc	 mov	 rdi, rsp
  0001b	b9 3a 00 00 00	 mov	 ecx, 58			; 0000003aH
  00020	b8 cc cc cc cc	 mov	 eax, -858993460		; ccccccccH
  00025	f3 ab		 rep stosd
  00027	48 8b 8c 24 08
	01 00 00	 mov	 rcx, QWORD PTR [rsp+264]
  0002f	48 8d 0d 00 00
	00 00		 lea	 rcx, OFFSET FLAT:__0C99713E_xmemory
  00036	e8 00 00 00 00	 call	 __CheckForDebuggerJustMyCode

; 1875 :     // value-initialize all elements in [_UFirst, _UFirst + _Count_raw)
; 1876 :     _STL_INTERNAL_CHECK(_Count >= 0);
; 1877 :     if constexpr (_Use_memset_value_construct_v<_NoThrowFwdIt>) {
; 1878 :         return _Zero_range(_UFirst, _UFirst + _Count);

  0003b	48 8b 85 e0 00
	00 00		 mov	 rax, QWORD PTR _UFirst$[rbp]
  00042	48 8b 8d e8 00
	00 00		 mov	 rcx, QWORD PTR _Count$[rbp]
  00049	48 8d 04 c8	 lea	 rax, QWORD PTR [rax+rcx*8]
  0004d	48 8b d0	 mov	 rdx, rax
  00050	48 8b 8d e0 00
	00 00		 mov	 rcx, QWORD PTR _UFirst$[rbp]
  00057	e8 00 00 00 00	 call	 ??$_Zero_range@PEAPEAUEntry@LT@@@std@@YAPEAPEAUEntry@LT@@QEAPEAU12@0@Z ; std::_Zero_range<LT::Entry * *>

; 1879 :     } else {
; 1880 :         _Uninitialized_backout<_NoThrowFwdIt> _Backout{_UFirst};
; 1881 :         for (; 0 < _Count; --_Count) {
; 1882 :             _Backout._Emplace_back();
; 1883 :         }
; 1884 : 
