; Listing generated by Microsoft (R) Optimizing Compiler Version 19.27.29112.0 

include listing.inc

INCLUDELIB MSVCRTD
INCLUDELIB OLDNAMES

msvcjmc	SEGMENT
__367CC694_corecrt_memcpy_s@h DB 01H
__F66CEB67_corecrt_stdio_config@h DB 01H
__5467428D_corecrt_wconio@h DB 01H
__4442441F_corecrt_wio@h DB 01H
__101834BA_corecrt_wstdio@h DB 01H
__DC9673E3_corecrt_wstring@h DB 01H
__45F4AF76_corecrt_wtime@h DB 01H
__186FF47F_stat@h DB 01H
__534C724A_wchar@h DB 01H
__62A468D7_tchar@h DB 01H
__FC8B975D_vcruntime_new@h DB 01H
__AD6A91B7_stdio@h DB 01H
__09340588_corecrt_math@h DB 01H
__24E9E95F_stdlib@h DB 01H
__51019776_cstdlib DB 01H
__5E219BC0_limits DB 01H
__B236D4B0_type_traits DB 01H
__B0C4CEA9_malloc@h DB 01H
__18D87206_vcruntime_exception@h DB 01H
__1302BCB8_exception DB 01H
__35D7DDB3_corecrt_memory@h DB 01H
__A29A7DFB_string@h DB 01H
__36E77527_xutility DB 01H
__0C99713E_xmemory DB 01H
__784AF7A2_xstring DB 01H
__7242C389_ctype@h DB 01H
__965C11D2_string DB 01H
__8AA3BE86_time@h DB 01H
__9A4C86E5_stdexcept DB 01H
__238A5427_xcall_once@h DB 01H
__3514C702_atomic DB 01H
__9CD74607_system_error DB 01H
__7B3ADE64_vcruntime_typeinfo@h DB 01H
__4638863E_typeinfo DB 01H
__E28F974E_memory DB 01H
__CECAC041_xfacet DB 01H
__59B165F6_xlocinfo DB 01H
__A7748393_xlocale DB 01H
__605412E5_xiosbase DB 01H
__8B7874EF_xlocmes DB 01H
__102707BA_cmath DB 01H
__39F3E584_xlocnum DB 01H
__1291F0BC_xlocmon DB 01H
__FDACCCE4_xloctime DB 01H
__D3011E72_ios DB 01H
__21FC1C84_fstream DB 01H
__7CEFA1A0_LT@h DB 01H
__4B315192_IT@h DB 01H
__BE522193_DP@h DB 01H
__20961129_GRB@h DB 01H
__22E0C0CC_MFST@h DB 01H
__C15C5D01_stack DB 01H
__22FDF990_PN@cpp DB 01H
__DAE328AB_list DB 01H
__1C3F1DC9_deque DB 01H
__D7B46C6D_istream DB 01H
__B4645957_ostream DB 01H
__496265E3_locale DB 01H
__98EC3E59_streambuf DB 01H
__274BC267_iterator DB 01H
__92C84E46_iosfwd DB 01H
__660C12FD_utility DB 01H
__911385EF_xstddef DB 01H
__190E306E_xatomic@h DB 01H
msvcjmc	ENDS
PUBLIC	?__empty_global_delete@@YAXPEAX@Z		; __empty_global_delete
PUBLIC	?__empty_global_delete@@YAXPEAX_K@Z		; __empty_global_delete
PUBLIC	wmemcpy
PUBLIC	??2@YAPEAX_KPEAX@Z				; operator new
PUBLIC	?max@?$numeric_limits@_J@std@@SA_JXZ		; std::numeric_limits<__int64>::max
PUBLIC	??0exception@std@@QEAA@QEBDH@Z			; std::exception::exception
PUBLIC	??0exception@std@@QEAA@AEBV01@@Z		; std::exception::exception
PUBLIC	??1exception@std@@UEAA@XZ			; std::exception::~exception
PUBLIC	?what@exception@std@@UEBAPEBDXZ			; std::exception::what
PUBLIC	??_Gexception@std@@UEAAPEAXI@Z			; std::exception::`scalar deleting destructor'
PUBLIC	??0bad_alloc@std@@AEAA@QEBD@Z			; std::bad_alloc::bad_alloc
PUBLIC	??1bad_alloc@std@@UEAA@XZ			; std::bad_alloc::~bad_alloc
PUBLIC	??0bad_alloc@std@@QEAA@AEBV01@@Z		; std::bad_alloc::bad_alloc
PUBLIC	??_Gbad_alloc@std@@UEAAPEAXI@Z			; std::bad_alloc::`scalar deleting destructor'
PUBLIC	??0bad_array_new_length@std@@QEAA@XZ		; std::bad_array_new_length::bad_array_new_length
PUBLIC	??1bad_array_new_length@std@@UEAA@XZ		; std::bad_array_new_length::~bad_array_new_length
PUBLIC	??0bad_array_new_length@std@@QEAA@AEBV01@@Z	; std::bad_array_new_length::bad_array_new_length
PUBLIC	??_Gbad_array_new_length@std@@UEAAPEAXI@Z	; std::bad_array_new_length::`scalar deleting destructor'
PUBLIC	?_Throw_bad_array_new_length@std@@YAXXZ		; std::_Throw_bad_array_new_length
PUBLIC	?_Allocate@_Default_allocate_traits@std@@SAPEAX_K@Z ; std::_Default_allocate_traits::_Allocate
PUBLIC	?_Adjust_manually_vector_aligned@std@@YAXAEAPEAXAEA_K@Z ; std::_Adjust_manually_vector_aligned
PUBLIC	??0_Container_proxy@std@@QEAA@PEAU_Container_base12@1@@Z ; std::_Container_proxy::_Container_proxy
PUBLIC	??0_Container_base12@std@@QEAA@XZ		; std::_Container_base12::_Container_base12
PUBLIC	?_Orphan_all@_Container_base12@std@@QEAAXXZ	; std::_Container_base12::_Orphan_all
PUBLIC	?_Release@_Basic_container_proxy_ptr12@std@@QEAAXXZ ; std::_Basic_container_proxy_ptr12::_Release
PUBLIC	??$addressof@U_Container_base12@std@@@std@@YAPEAU_Container_base12@0@AEAU10@@Z ; std::addressof<std::_Container_base12>
PUBLIC	??$_Construct_in_place@U_Container_proxy@std@@PEAU_Container_base12@2@@std@@YAXAEAU_Container_proxy@0@$$QEAPEAU_Container_base12@0@@Z ; std::_Construct_in_place<std::_Container_proxy,std::_Container_base12 *>
PUBLIC	??$_Maklocstr@_W@std@@YAPEA_WPEBDPEA_WAEBU_Cvtvec@@@Z ; std::_Maklocstr<wchar_t>
PUBLIC	?_Maklocwcs@std@@YAPEA_WPEB_W@Z			; std::_Maklocwcs
PUBLIC	??$_Maklocstr@D@std@@YAPEADPEBDPEADAEBU_Cvtvec@@@Z ; std::_Maklocstr<char>
PUBLIC	??$_Getvals@_W@?$time_get@DV?$istreambuf_iterator@DU?$char_traits@D@std@@@std@@@std@@IEAAX_WAEBV_Locinfo@1@@Z ; std::time_get<char,std::istreambuf_iterator<char,std::char_traits<char> > >::_Getvals<wchar_t>
PUBLIC	??$_Getvals@_W@?$time_get@_WV?$istreambuf_iterator@_WU?$char_traits@_W@std@@@std@@@std@@IEAAX_WAEBV_Locinfo@1@@Z ; std::time_get<wchar_t,std::istreambuf_iterator<wchar_t,std::char_traits<wchar_t> > >::_Getvals<wchar_t>
PUBLIC	??0Entry@LT@@QEAA@XZ				; LT::Entry::Entry
PUBLIC	?seachingExpressions@PN@@YAXAEAULexTable@LT@@AEAUIdTable@IT@@@Z ; PN::seachingExpressions
PUBLIC	?polishNotation@PN@@YAHHAEAULexTable@LT@@AEAUIdTable@IT@@@Z ; PN::polishNotation
PUBLIC	??0?$allocator@UEntry@LT@@@std@@QEAA@XZ		; std::allocator<LT::Entry>::allocator<LT::Entry>
PUBLIC	?deallocate@?$allocator@UEntry@LT@@@std@@QEAAXQEAUEntry@LT@@_K@Z ; std::allocator<LT::Entry>::deallocate
PUBLIC	?allocate@?$allocator@UEntry@LT@@@std@@QEAAPEAUEntry@LT@@_K@Z ; std::allocator<LT::Entry>::allocate
PUBLIC	?max_size@?$_Default_allocator_traits@V?$allocator@UEntry@LT@@@std@@@std@@SA_KAEBV?$allocator@UEntry@LT@@@2@@Z ; std::_Default_allocator_traits<std::allocator<LT::Entry> >::max_size
PUBLIC	?deallocate@?$allocator@PEAUEntry@LT@@@std@@QEAAXQEAPEAUEntry@LT@@_K@Z ; std::allocator<LT::Entry *>::deallocate
PUBLIC	?allocate@?$allocator@PEAUEntry@LT@@@std@@QEAAPEAPEAUEntry@LT@@_K@Z ; std::allocator<LT::Entry *>::allocate
PUBLIC	??0?$deque@UEntry@LT@@V?$allocator@UEntry@LT@@@std@@@std@@QEAA@XZ ; std::deque<LT::Entry,std::allocator<LT::Entry> >::deque<LT::Entry,std::allocator<LT::Entry> >
PUBLIC	??1?$deque@UEntry@LT@@V?$allocator@UEntry@LT@@@std@@@std@@QEAA@XZ ; std::deque<LT::Entry,std::allocator<LT::Entry> >::~deque<LT::Entry,std::allocator<LT::Entry> >
PUBLIC	?_Unchecked_end@?$deque@UEntry@LT@@V?$allocator@UEntry@LT@@@std@@@std@@QEAA?AV?$_Deque_unchecked_iterator@V?$_Deque_val@U?$_Deque_simple_types@UEntry@LT@@@std@@@std@@@2@XZ ; std::deque<LT::Entry,std::allocator<LT::Entry> >::_Unchecked_end
PUBLIC	?max_size@?$deque@UEntry@LT@@V?$allocator@UEntry@LT@@@std@@@std@@QEBA_KXZ ; std::deque<LT::Entry,std::allocator<LT::Entry> >::max_size
PUBLIC	?empty@?$deque@UEntry@LT@@V?$allocator@UEntry@LT@@@std@@@std@@QEBA_NXZ ; std::deque<LT::Entry,std::allocator<LT::Entry> >::empty
PUBLIC	?back@?$deque@UEntry@LT@@V?$allocator@UEntry@LT@@@std@@@std@@QEAAAEAUEntry@LT@@XZ ; std::deque<LT::Entry,std::allocator<LT::Entry> >::back
PUBLIC	?push_back@?$deque@UEntry@LT@@V?$allocator@UEntry@LT@@@std@@@std@@QEAAXAEBUEntry@LT@@@Z ; std::deque<LT::Entry,std::allocator<LT::Entry> >::push_back
PUBLIC	?pop_back@?$deque@UEntry@LT@@V?$allocator@UEntry@LT@@@std@@@std@@QEAAXXZ ; std::deque<LT::Entry,std::allocator<LT::Entry> >::pop_back
PUBLIC	?_Xlen@?$deque@UEntry@LT@@V?$allocator@UEntry@LT@@@std@@@std@@AEBAXXZ ; std::deque<LT::Entry,std::allocator<LT::Entry> >::_Xlen
PUBLIC	?_Growmap@?$deque@UEntry@LT@@V?$allocator@UEntry@LT@@@std@@@std@@AEAAX_K@Z ; std::deque<LT::Entry,std::allocator<LT::Entry> >::_Growmap
PUBLIC	?_Tidy@?$deque@UEntry@LT@@V?$allocator@UEntry@LT@@@std@@@std@@AEAAXXZ ; std::deque<LT::Entry,std::allocator<LT::Entry> >::_Tidy
PUBLIC	?_Orphan_off@?$deque@UEntry@LT@@V?$allocator@UEntry@LT@@@std@@@std@@AEBAX_K@Z ; std::deque<LT::Entry,std::allocator<LT::Entry> >::_Orphan_off
PUBLIC	?_Getblock@?$deque@UEntry@LT@@V?$allocator@UEntry@LT@@@std@@@std@@AEBA_K_K@Z ; std::deque<LT::Entry,std::allocator<LT::Entry> >::_Getblock
PUBLIC	?_Orphan_all@?$deque@UEntry@LT@@V?$allocator@UEntry@LT@@@std@@@std@@AEAAXXZ ; std::deque<LT::Entry,std::allocator<LT::Entry> >::_Orphan_all
PUBLIC	?_Getal@?$deque@UEntry@LT@@V?$allocator@UEntry@LT@@@std@@@std@@AEAAAEAV?$allocator@UEntry@LT@@@2@XZ ; std::deque<LT::Entry,std::allocator<LT::Entry> >::_Getal
PUBLIC	?_Getal@?$deque@UEntry@LT@@V?$allocator@UEntry@LT@@@std@@@std@@AEBAAEBV?$allocator@UEntry@LT@@@2@XZ ; std::deque<LT::Entry,std::allocator<LT::Entry> >::_Getal
PUBLIC	?_Get_data@?$deque@UEntry@LT@@V?$allocator@UEntry@LT@@@std@@@std@@AEAAAEAV?$_Deque_val@U?$_Deque_simple_types@UEntry@LT@@@std@@@2@XZ ; std::deque<LT::Entry,std::allocator<LT::Entry> >::_Get_data
PUBLIC	?_Get_data@?$deque@UEntry@LT@@V?$allocator@UEntry@LT@@@std@@@std@@AEBAAEBV?$_Deque_val@U?$_Deque_simple_types@UEntry@LT@@@std@@@2@XZ ; std::deque<LT::Entry,std::allocator<LT::Entry> >::_Get_data
PUBLIC	?_Map@?$deque@UEntry@LT@@V?$allocator@UEntry@LT@@@std@@@std@@AEAAAEAPEAPEAUEntry@LT@@XZ ; std::deque<LT::Entry,std::allocator<LT::Entry> >::_Map
PUBLIC	?_Mapsize@?$deque@UEntry@LT@@V?$allocator@UEntry@LT@@@std@@@std@@AEAAAEA_KXZ ; std::deque<LT::Entry,std::allocator<LT::Entry> >::_Mapsize
PUBLIC	?_Myoff@?$deque@UEntry@LT@@V?$allocator@UEntry@LT@@@std@@@std@@AEAAAEA_KXZ ; std::deque<LT::Entry,std::allocator<LT::Entry> >::_Myoff
PUBLIC	?_Myoff@?$deque@UEntry@LT@@V?$allocator@UEntry@LT@@@std@@@std@@AEBAAEB_KXZ ; std::deque<LT::Entry,std::allocator<LT::Entry> >::_Myoff
PUBLIC	?_Mysize@?$deque@UEntry@LT@@V?$allocator@UEntry@LT@@@std@@@std@@AEAAAEA_KXZ ; std::deque<LT::Entry,std::allocator<LT::Entry> >::_Mysize
PUBLIC	?_Mysize@?$deque@UEntry@LT@@V?$allocator@UEntry@LT@@@std@@@std@@AEBAAEB_KXZ ; std::deque<LT::Entry,std::allocator<LT::Entry> >::_Mysize
PUBLIC	??0?$_Deque_val@U?$_Deque_simple_types@UEntry@LT@@@std@@@std@@QEAA@XZ ; std::_Deque_val<std::_Deque_simple_types<LT::Entry> >::_Deque_val<std::_Deque_simple_types<LT::Entry> >
PUBLIC	?_Getblock@?$_Deque_val@U?$_Deque_simple_types@UEntry@LT@@@std@@@std@@QEBA_K_K@Z ; std::_Deque_val<std::_Deque_simple_types<LT::Entry> >::_Getblock
PUBLIC	?_Get_first@?$_Compressed_pair@V?$allocator@UEntry@LT@@@std@@V?$_Deque_val@U?$_Deque_simple_types@UEntry@LT@@@std@@@2@$00@std@@QEAAAEAV?$allocator@UEntry@LT@@@2@XZ ; std::_Compressed_pair<std::allocator<LT::Entry>,std::_Deque_val<std::_Deque_simple_types<LT::Entry> >,1>::_Get_first
PUBLIC	?_Get_first@?$_Compressed_pair@V?$allocator@UEntry@LT@@@std@@V?$_Deque_val@U?$_Deque_simple_types@UEntry@LT@@@std@@@2@$00@std@@QEBAAEBV?$allocator@UEntry@LT@@@2@XZ ; std::_Compressed_pair<std::allocator<LT::Entry>,std::_Deque_val<std::_Deque_simple_types<LT::Entry> >,1>::_Get_first
PUBLIC	??0?$stack@UEntry@LT@@V?$deque@UEntry@LT@@V?$allocator@UEntry@LT@@@std@@@std@@@std@@QEAA@XZ ; std::stack<LT::Entry,std::deque<LT::Entry,std::allocator<LT::Entry> > >::stack<LT::Entry,std::deque<LT::Entry,std::allocator<LT::Entry> > >
PUBLIC	?empty@?$stack@UEntry@LT@@V?$deque@UEntry@LT@@V?$allocator@UEntry@LT@@@std@@@std@@@std@@QEBA_NXZ ; std::stack<LT::Entry,std::deque<LT::Entry,std::allocator<LT::Entry> > >::empty
PUBLIC	?top@?$stack@UEntry@LT@@V?$deque@UEntry@LT@@V?$allocator@UEntry@LT@@@std@@@std@@@std@@QEAAAEAUEntry@LT@@XZ ; std::stack<LT::Entry,std::deque<LT::Entry,std::allocator<LT::Entry> > >::top
PUBLIC	?push@?$stack@UEntry@LT@@V?$deque@UEntry@LT@@V?$allocator@UEntry@LT@@@std@@@std@@@std@@QEAAXAEBUEntry@LT@@@Z ; std::stack<LT::Entry,std::deque<LT::Entry,std::allocator<LT::Entry> > >::push
PUBLIC	?pop@?$stack@UEntry@LT@@V?$deque@UEntry@LT@@V?$allocator@UEntry@LT@@@std@@@std@@@std@@QEAAXXZ ; std::stack<LT::Entry,std::deque<LT::Entry,std::allocator<LT::Entry> > >::pop
PUBLIC	??1?$stack@UEntry@LT@@V?$deque@UEntry@LT@@V?$allocator@UEntry@LT@@@std@@@std@@@std@@QEAA@XZ ; std::stack<LT::Entry,std::deque<LT::Entry,std::allocator<LT::Entry> > >::~stack<LT::Entry,std::deque<LT::Entry,std::allocator<LT::Entry> > >
PUBLIC	?__autoclassinit2@?$stack@UEntry@LT@@V?$deque@UEntry@LT@@V?$allocator@UEntry@LT@@@std@@@std@@@std@@QEAAX_K@Z ; std::stack<LT::Entry,std::deque<LT::Entry,std::allocator<LT::Entry> > >::__autoclassinit2
PUBLIC	??0?$allocator@U?$_List_node@UEntry@LT@@PEAX@std@@@std@@QEAA@XZ ; std::allocator<std::_List_node<LT::Entry,void *> >::allocator<std::_List_node<LT::Entry,void *> >
PUBLIC	?deallocate@?$allocator@U?$_List_node@UEntry@LT@@PEAX@std@@@std@@QEAAXQEAU?$_List_node@UEntry@LT@@PEAX@2@_K@Z ; std::allocator<std::_List_node<LT::Entry,void *> >::deallocate
PUBLIC	?allocate@?$allocator@U?$_List_node@UEntry@LT@@PEAX@std@@@std@@QEAAPEAU?$_List_node@UEntry@LT@@PEAX@2@_K@Z ; std::allocator<std::_List_node<LT::Entry,void *> >::allocate
PUBLIC	?deallocate@?$_Default_allocator_traits@V?$allocator@U?$_List_node@UEntry@LT@@PEAX@std@@@std@@@std@@SAXAEAV?$allocator@U?$_List_node@UEntry@LT@@PEAX@std@@@2@QEAU?$_List_node@UEntry@LT@@PEAX@2@_K@Z ; std::_Default_allocator_traits<std::allocator<std::_List_node<LT::Entry,void *> > >::deallocate
PUBLIC	?max_size@?$_Default_allocator_traits@V?$allocator@U?$_List_node@UEntry@LT@@PEAX@std@@@std@@@std@@SA_KAEBV?$allocator@U?$_List_node@UEntry@LT@@PEAX@std@@@2@@Z ; std::_Default_allocator_traits<std::allocator<std::_List_node<LT::Entry,void *> > >::max_size
PUBLIC	??0?$list@UEntry@LT@@V?$allocator@UEntry@LT@@@std@@@std@@QEAA@XZ ; std::list<LT::Entry,std::allocator<LT::Entry> >::list<LT::Entry,std::allocator<LT::Entry> >
PUBLIC	??1?$list@UEntry@LT@@V?$allocator@UEntry@LT@@@std@@@std@@QEAA@XZ ; std::list<LT::Entry,std::allocator<LT::Entry> >::~list<LT::Entry,std::allocator<LT::Entry> >
PUBLIC	?max_size@?$list@UEntry@LT@@V?$allocator@UEntry@LT@@@std@@@std@@QEBA_KXZ ; std::list<LT::Entry,std::allocator<LT::Entry> >::max_size
PUBLIC	?empty@?$list@UEntry@LT@@V?$allocator@UEntry@LT@@@std@@@std@@QEBA_NXZ ; std::list<LT::Entry,std::allocator<LT::Entry> >::empty
PUBLIC	?front@?$list@UEntry@LT@@V?$allocator@UEntry@LT@@@std@@@std@@QEAAAEAUEntry@LT@@XZ ; std::list<LT::Entry,std::allocator<LT::Entry> >::front
PUBLIC	?pop_front@?$list@UEntry@LT@@V?$allocator@UEntry@LT@@@std@@@std@@QEAAXXZ ; std::list<LT::Entry,std::allocator<LT::Entry> >::pop_front
PUBLIC	?push_back@?$list@UEntry@LT@@V?$allocator@UEntry@LT@@@std@@@std@@QEAAXAEBUEntry@LT@@@Z ; std::list<LT::Entry,std::allocator<LT::Entry> >::push_back
PUBLIC	?_Unchecked_erase@?$list@UEntry@LT@@V?$allocator@UEntry@LT@@@std@@@std@@AEAAPEAU?$_List_node@UEntry@LT@@PEAX@2@QEAU32@@Z ; std::list<LT::Entry,std::allocator<LT::Entry> >::_Unchecked_erase
PUBLIC	?_Tidy@?$list@UEntry@LT@@V?$allocator@UEntry@LT@@@std@@@std@@AEAAXXZ ; std::list<LT::Entry,std::allocator<LT::Entry> >::_Tidy
PUBLIC	?_Alloc_sentinel_and_proxy@?$list@UEntry@LT@@V?$allocator@UEntry@LT@@@std@@@std@@AEAAXXZ ; std::list<LT::Entry,std::allocator<LT::Entry> >::_Alloc_sentinel_and_proxy
PUBLIC	?_Getal@?$list@UEntry@LT@@V?$allocator@UEntry@LT@@@std@@@std@@AEAAAEAV?$allocator@U?$_List_node@UEntry@LT@@PEAX@std@@@2@XZ ; std::list<LT::Entry,std::allocator<LT::Entry> >::_Getal
PUBLIC	?_Getal@?$list@UEntry@LT@@V?$allocator@UEntry@LT@@@std@@@std@@AEBAAEBV?$allocator@U?$_List_node@UEntry@LT@@PEAX@std@@@2@XZ ; std::list<LT::Entry,std::allocator<LT::Entry> >::_Getal
PUBLIC	??0?$_List_val@U?$_List_simple_types@UEntry@LT@@@std@@@std@@QEAA@XZ ; std::_List_val<std::_List_simple_types<LT::Entry> >::_List_val<std::_List_simple_types<LT::Entry> >
PUBLIC	?_Orphan_ptr2@?$_List_val@U?$_List_simple_types@UEntry@LT@@@std@@@std@@QEAAXPEAU?$_List_node@UEntry@LT@@PEAX@2@@Z ; std::_List_val<std::_List_simple_types<LT::Entry> >::_Orphan_ptr2
PUBLIC	?_Get_first@?$_Compressed_pair@V?$allocator@U?$_List_node@UEntry@LT@@PEAX@std@@@std@@V?$_List_val@U?$_List_simple_types@UEntry@LT@@@std@@@2@$00@std@@QEAAAEAV?$allocator@U?$_List_node@UEntry@LT@@PEAX@std@@@2@XZ ; std::_Compressed_pair<std::allocator<std::_List_node<LT::Entry,void *> >,std::_List_val<std::_List_simple_types<LT::Entry> >,1>::_Get_first
PUBLIC	?_Get_first@?$_Compressed_pair@V?$allocator@U?$_List_node@UEntry@LT@@PEAX@std@@@std@@V?$_List_val@U?$_List_simple_types@UEntry@LT@@@std@@@2@$00@std@@QEBAAEBV?$allocator@U?$_List_node@UEntry@LT@@PEAX@std@@@2@XZ ; std::_Compressed_pair<std::allocator<std::_List_node<LT::Entry,void *> >,std::_List_val<std::_List_simple_types<LT::Entry> >,1>::_Get_first
PUBLIC	?__autoclassinit2@?$list@UEntry@LT@@V?$allocator@UEntry@LT@@@std@@@std@@QEAAX_K@Z ; std::list<LT::Entry,std::allocator<LT::Entry> >::__autoclassinit2
PUBLIC	??$_Emplace@AEBUEntry@LT@@@?$list@UEntry@LT@@V?$allocator@UEntry@LT@@@std@@@std@@QEAAPEAU?$_List_node@UEntry@LT@@PEAX@1@QEAU21@AEBUEntry@LT@@@Z ; std::list<LT::Entry,std::allocator<LT::Entry> >::_Emplace<LT::Entry const &>
PUBLIC	?allocate@?$allocator@U_Container_proxy@std@@@std@@QEAAPEAU_Container_proxy@2@_K@Z ; std::allocator<std::_Container_proxy>::allocate
PUBLIC	??$?0U?$_List_node@UEntry@LT@@PEAX@std@@@?$allocator@U_Container_proxy@std@@@std@@QEAA@AEBV?$allocator@U?$_List_node@UEntry@LT@@PEAX@std@@@1@@Z ; std::allocator<std::_Container_proxy>::allocator<std::_Container_proxy><std::_List_node<LT::Entry,void *> >
PUBLIC	??$_Delete_plain_internal@V?$allocator@U_Container_proxy@std@@@std@@@std@@YAXAEAV?$allocator@U_Container_proxy@std@@@0@QEAU_Container_proxy@0@@Z ; std::_Delete_plain_internal<std::allocator<std::_Container_proxy> >
PUBLIC	??$?0$$V@?$_Compressed_pair@V?$allocator@U?$_List_node@UEntry@LT@@PEAX@std@@@std@@V?$_List_val@U?$_List_simple_types@UEntry@LT@@@std@@@2@$00@std@@QEAA@U_Zero_then_variadic_args_t@1@@Z ; std::_Compressed_pair<std::allocator<std::_List_node<LT::Entry,void *> >,std::_List_val<std::_List_simple_types<LT::Entry> >,1>::_Compressed_pair<std::allocator<std::_List_node<LT::Entry,void *> >,std::_List_val<std::_List_simple_types<LT::Entry> >,1><>
PUBLIC	??$?0UEntry@LT@@@?$allocator@U_Container_proxy@std@@@std@@QEAA@AEBV?$allocator@UEntry@LT@@@1@@Z ; std::allocator<std::_Container_proxy>::allocator<std::_Container_proxy><LT::Entry>
PUBLIC	??$exchange@PEAU_Container_proxy@std@@$$T@std@@YAPEAU_Container_proxy@0@AEAPEAU10@$$QEA$$T@Z ; std::exchange<std::_Container_proxy *,std::nullptr_t>
PUBLIC	??$?0$$V@?$_Compressed_pair@V?$allocator@UEntry@LT@@@std@@V?$_Deque_val@U?$_Deque_simple_types@UEntry@LT@@@std@@@2@$00@std@@QEAA@U_Zero_then_variadic_args_t@1@@Z ; std::_Compressed_pair<std::allocator<LT::Entry>,std::_Deque_val<std::_Deque_simple_types<LT::Entry> >,1>::_Compressed_pair<std::allocator<LT::Entry>,std::_Deque_val<std::_Deque_simple_types<LT::Entry> >,1><>
PUBLIC	??$_Alloc_proxy@V?$allocator@U_Container_proxy@std@@@std@@@_Container_base12@std@@QEAAX$$QEAV?$allocator@U_Container_proxy@std@@@1@@Z ; std::_Container_base12::_Alloc_proxy<std::allocator<std::_Container_proxy> >
PUBLIC	??$min@_K@std@@YAAEB_KAEB_K0@Z			; std::min<unsigned __int64>
PUBLIC	??0?$_Container_proxy_ptr12@V?$allocator@U_Container_proxy@std@@@std@@@std@@QEAA@AEAV?$allocator@U_Container_proxy@std@@@1@AEAU_Container_base12@1@@Z ; std::_Container_proxy_ptr12<std::allocator<std::_Container_proxy> >::_Container_proxy_ptr12<std::allocator<std::_Container_proxy> >
PUBLIC	??1?$_Container_proxy_ptr12@V?$allocator@U_Container_proxy@std@@@std@@@std@@QEAA@XZ ; std::_Container_proxy_ptr12<std::allocator<std::_Container_proxy> >::~_Container_proxy_ptr12<std::allocator<std::_Container_proxy> >
PUBLIC	??$_Unfancy@U_Container_proxy@std@@@std@@YAPEAU_Container_proxy@0@PEAU10@@Z ; std::_Unfancy<std::_Container_proxy>
PUBLIC	??$_Construct_in_place@PEAU?$_List_node@UEntry@LT@@PEAX@std@@AEAPEAU12@@std@@YAXAEAPEAU?$_List_node@UEntry@LT@@PEAX@0@0@Z ; std::_Construct_in_place<std::_List_node<LT::Entry,void *> *,std::_List_node<LT::Entry,void *> * &>
PUBLIC	??$_Free_non_head@V?$allocator@U?$_List_node@UEntry@LT@@PEAX@std@@@std@@@?$_List_node@UEntry@LT@@PEAX@std@@SAXAEAV?$allocator@U?$_List_node@UEntry@LT@@PEAX@std@@@1@PEAU01@@Z ; std::_List_node<LT::Entry,void *>::_Free_non_head<std::allocator<std::_List_node<LT::Entry,void *> > >
PUBLIC	??$_Freenode0@V?$allocator@U?$_List_node@UEntry@LT@@PEAX@std@@@std@@@?$_List_node@UEntry@LT@@PEAX@std@@SAXAEAV?$allocator@U?$_List_node@UEntry@LT@@PEAX@std@@@1@PEAU01@@Z ; std::_List_node<LT::Entry,void *>::_Freenode0<std::allocator<std::_List_node<LT::Entry,void *> > >
PUBLIC	??$_Freenode@V?$allocator@U?$_List_node@UEntry@LT@@PEAX@std@@@std@@@?$_List_node@UEntry@LT@@PEAX@std@@SAXAEAV?$allocator@U?$_List_node@UEntry@LT@@PEAX@std@@@1@PEAU01@@Z ; std::_List_node<LT::Entry,void *>::_Freenode<std::allocator<std::_List_node<LT::Entry,void *> > >
PUBLIC	??$?0UEntry@LT@@@?$allocator@PEAUEntry@LT@@@std@@QEAA@AEBV?$allocator@UEntry@LT@@@1@@Z ; std::allocator<LT::Entry *>::allocator<LT::Entry *><LT::Entry>
PUBLIC	??$_Destroy_in_place@PEAUEntry@LT@@@std@@YAXAEAPEAUEntry@LT@@@Z ; std::_Destroy_in_place<LT::Entry *>
PUBLIC	??$_Unfancy@UEntry@LT@@@std@@YAPEAUEntry@LT@@PEAU12@@Z ; std::_Unfancy<LT::Entry>
PUBLIC	??$destroy@UEntry@LT@@@?$_Default_allocator_traits@V?$allocator@UEntry@LT@@@std@@@std@@SAXAEAV?$allocator@UEntry@LT@@@1@QEAUEntry@LT@@@Z ; std::_Default_allocator_traits<std::allocator<LT::Entry> >::destroy<LT::Entry>
PUBLIC	??$_Emplace_back_internal@AEBUEntry@LT@@@?$deque@UEntry@LT@@V?$allocator@UEntry@LT@@@std@@@std@@AEAAXAEBUEntry@LT@@@Z ; std::deque<LT::Entry,std::allocator<LT::Entry> >::_Emplace_back_internal<LT::Entry const &>
PUBLIC	??0?$_Deque_unchecked_const_iterator@V?$_Deque_val@U?$_Deque_simple_types@UEntry@LT@@@std@@@std@@@std@@QEAA@_KPEBU_Container_base12@1@@Z ; std::_Deque_unchecked_const_iterator<std::_Deque_val<std::_Deque_simple_types<LT::Entry> > >::_Deque_unchecked_const_iterator<std::_Deque_val<std::_Deque_simple_types<LT::Entry> > >
PUBLIC	??D?$_Deque_unchecked_const_iterator@V?$_Deque_val@U?$_Deque_simple_types@UEntry@LT@@@std@@@std@@@std@@QEBAAEBUEntry@LT@@XZ ; std::_Deque_unchecked_const_iterator<std::_Deque_val<std::_Deque_simple_types<LT::Entry> > >::operator*
PUBLIC	??Z?$_Deque_unchecked_const_iterator@V?$_Deque_val@U?$_Deque_simple_types@UEntry@LT@@@std@@@std@@@std@@QEAAAEAV01@_J@Z ; std::_Deque_unchecked_const_iterator<std::_Deque_val<std::_Deque_simple_types<LT::Entry> > >::operator-=
PUBLIC	??D?$_Deque_unchecked_iterator@V?$_Deque_val@U?$_Deque_simple_types@UEntry@LT@@@std@@@std@@@std@@QEBAAEAUEntry@LT@@XZ ; std::_Deque_unchecked_iterator<std::_Deque_val<std::_Deque_simple_types<LT::Entry> > >::operator*
PUBLIC	??Z?$_Deque_unchecked_iterator@V?$_Deque_val@U?$_Deque_simple_types@UEntry@LT@@@std@@@std@@@std@@QEAAAEAV01@_J@Z ; std::_Deque_unchecked_iterator<std::_Deque_val<std::_Deque_simple_types<LT::Entry> > >::operator-=
PUBLIC	??G?$_Deque_unchecked_iterator@V?$_Deque_val@U?$_Deque_simple_types@UEntry@LT@@@std@@@std@@@std@@QEBA?AV01@_J@Z ; std::_Deque_unchecked_iterator<std::_Deque_val<std::_Deque_simple_types<LT::Entry> > >::operator-
PUBLIC	?__autoclassinit2@?$_Deque_unchecked_iterator@V?$_Deque_val@U?$_Deque_simple_types@UEntry@LT@@@std@@@std@@@std@@QEAAX_K@Z ; std::_Deque_unchecked_iterator<std::_Deque_val<std::_Deque_simple_types<LT::Entry> > >::__autoclassinit2
PUBLIC	??0?$_Deque_unchecked_iterator@V?$_Deque_val@U?$_Deque_simple_types@UEntry@LT@@@std@@@std@@@std@@QEAA@_KPEBU_Container_base12@1@@Z ; std::_Deque_unchecked_iterator<std::_Deque_val<std::_Deque_simple_types<LT::Entry> > >::_Deque_unchecked_iterator<std::_Deque_val<std::_Deque_simple_types<LT::Entry> > >
PUBLIC	??$_Get_size_of_n@$0BA@@std@@YA_K_K@Z		; std::_Get_size_of_n<16>
PUBLIC	??$_Allocate@$0BA@U_Default_allocate_traits@std@@$0A@@std@@YAPEAX_K@Z ; std::_Allocate<16,std::_Default_allocate_traits,0>
PUBLIC	??$_Get_size_of_n@$0CA@@std@@YA_K_K@Z		; std::_Get_size_of_n<32>
PUBLIC	??$addressof@V?$_Deque_val@U?$_Deque_simple_types@UEntry@LT@@@std@@@std@@@std@@YAPEAV?$_Deque_val@U?$_Deque_simple_types@UEntry@LT@@@std@@@0@AEAV10@@Z ; std::addressof<std::_Deque_val<std::_Deque_simple_types<LT::Entry> > >
PUBLIC	??$_Deallocate@$0BA@$0A@@std@@YAXPEAX_K@Z	; std::_Deallocate<16,0>
PUBLIC	??$addressof@U_Container_proxy@std@@@std@@YAPEAU_Container_proxy@0@AEAU10@@Z ; std::addressof<std::_Container_proxy>
PUBLIC	??$forward@PEAU_Container_base12@std@@@std@@YA$$QEAPEAU_Container_base12@0@AEAPEAU10@@Z ; std::forward<std::_Container_base12 *>
PUBLIC	??0?$_Alloc_construct_ptr@V?$allocator@U?$_List_node@UEntry@LT@@PEAX@std@@@std@@@std@@QEAA@AEAV?$allocator@U?$_List_node@UEntry@LT@@PEAX@std@@@1@@Z ; std::_Alloc_construct_ptr<std::allocator<std::_List_node<LT::Entry,void *> > >::_Alloc_construct_ptr<std::allocator<std::_List_node<LT::Entry,void *> > >
PUBLIC	?_Allocate@?$_Alloc_construct_ptr@V?$allocator@U?$_List_node@UEntry@LT@@PEAX@std@@@std@@@std@@QEAAXXZ ; std::_Alloc_construct_ptr<std::allocator<std::_List_node<LT::Entry,void *> > >::_Allocate
PUBLIC	??1?$_Alloc_construct_ptr@V?$allocator@U?$_List_node@UEntry@LT@@PEAX@std@@@std@@@std@@QEAA@XZ ; std::_Alloc_construct_ptr<std::allocator<std::_List_node<LT::Entry,void *> > >::~_Alloc_construct_ptr<std::allocator<std::_List_node<LT::Entry,void *> > >
PUBLIC	??1?$_List_node_emplace_op2@V?$allocator@U?$_List_node@UEntry@LT@@PEAX@std@@@std@@@std@@QEAA@XZ ; std::_List_node_emplace_op2<std::allocator<std::_List_node<LT::Entry,void *> > >::~_List_node_emplace_op2<std::allocator<std::_List_node<LT::Entry,void *> > >
PUBLIC	?_Transfer_before@?$_List_node_emplace_op2@V?$allocator@U?$_List_node@UEntry@LT@@PEAX@std@@@std@@@std@@QEAAPEAU?$_List_node@UEntry@LT@@PEAX@2@QEAU32@@Z ; std::_List_node_emplace_op2<std::allocator<std::_List_node<LT::Entry,void *> > >::_Transfer_before
PUBLIC	??$forward@AEBUEntry@LT@@@std@@YAAEBUEntry@LT@@AEBU12@@Z ; std::forward<LT::Entry const &>
PUBLIC	??$?0AEBUEntry@LT@@@?$_List_node_emplace_op2@V?$allocator@U?$_List_node@UEntry@LT@@PEAX@std@@@std@@@std@@QEAA@AEAV?$allocator@U?$_List_node@UEntry@LT@@PEAX@std@@@1@AEBUEntry@LT@@@Z ; std::_List_node_emplace_op2<std::allocator<std::_List_node<LT::Entry,void *> > >::_List_node_emplace_op2<std::allocator<std::_List_node<LT::Entry,void *> > ><LT::Entry const &>
PUBLIC	??$_Deallocate_plain@V?$allocator@U_Container_proxy@std@@@std@@@std@@YAXAEAV?$allocator@U_Container_proxy@std@@@0@QEAU_Container_proxy@0@@Z ; std::_Deallocate_plain<std::allocator<std::_Container_proxy> >
PUBLIC	??$addressof@PEAU?$_List_node@UEntry@LT@@PEAX@std@@@std@@YAPEAPEAU?$_List_node@UEntry@LT@@PEAX@0@AEAPEAU10@@Z ; std::addressof<std::_List_node<LT::Entry,void *> *>
PUBLIC	??$forward@AEAPEAU?$_List_node@UEntry@LT@@PEAX@std@@@std@@YAAEAPEAU?$_List_node@UEntry@LT@@PEAX@0@AEAPEAU10@@Z ; std::forward<std::_List_node<LT::Entry,void *> * &>
PUBLIC	??$_Destroy_in_place@PEAU?$_List_node@UEntry@LT@@PEAX@std@@@std@@YAXAEAPEAU?$_List_node@UEntry@LT@@PEAX@0@@Z ; std::_Destroy_in_place<std::_List_node<LT::Entry,void *> *>
PUBLIC	??$addressof@UEntry@LT@@@std@@YAPEAUEntry@LT@@AEAU12@@Z ; std::addressof<LT::Entry>
PUBLIC	??$destroy@UEntry@LT@@@?$_Default_allocator_traits@V?$allocator@U?$_List_node@UEntry@LT@@PEAX@std@@@std@@@std@@SAXAEAV?$allocator@U?$_List_node@UEntry@LT@@PEAX@std@@@1@QEAUEntry@LT@@@Z ; std::_Default_allocator_traits<std::allocator<std::_List_node<LT::Entry,void *> > >::destroy<LT::Entry>
PUBLIC	??$construct@UEntry@LT@@AEBU12@@?$_Default_allocator_traits@V?$allocator@UEntry@LT@@@std@@@std@@SAXAEAV?$allocator@UEntry@LT@@@1@QEAUEntry@LT@@AEBU34@@Z ; std::_Default_allocator_traits<std::allocator<LT::Entry> >::construct<LT::Entry,LT::Entry const &>
PUBLIC	??$_Allocate_manually_vector_aligned@U_Default_allocate_traits@std@@@std@@YAPEAX_K@Z ; std::_Allocate_manually_vector_aligned<std::_Default_allocate_traits>
PUBLIC	??$_Construct_in_place@PEAU?$_List_node@UEntry@LT@@PEAX@std@@AEBQEAU12@@std@@YAXAEAPEAU?$_List_node@UEntry@LT@@PEAX@0@AEBQEAU10@@Z ; std::_Construct_in_place<std::_List_node<LT::Entry,void *> *,std::_List_node<LT::Entry,void *> * const &>
PUBLIC	??$uninitialized_copy@PEAPEAUEntry@LT@@PEAPEAU12@@std@@YAPEAPEAUEntry@LT@@QEAPEAU12@0PEAPEAU12@@Z ; std::uninitialized_copy<LT::Entry * *,LT::Entry * *>
PUBLIC	??$_Uninitialized_value_construct_n_unchecked1@PEAPEAUEntry@LT@@_K@std@@YAPEAPEAUEntry@LT@@PEAPEAU12@_K@Z ; std::_Uninitialized_value_construct_n_unchecked1<LT::Entry * *,unsigned __int64>
PUBLIC	??$_Destroy_range@PEAPEAUEntry@LT@@@std@@YAXPEAPEAUEntry@LT@@QEAPEAU12@@Z ; std::_Destroy_range<LT::Entry * *>
PUBLIC	??$_Get_size_of_n@$07@std@@YA_K_K@Z		; std::_Get_size_of_n<8>
PUBLIC	??$construct@UEntry@LT@@AEBU12@@?$_Default_allocator_traits@V?$allocator@U?$_List_node@UEntry@LT@@PEAX@std@@@std@@@std@@SAXAEAV?$allocator@U?$_List_node@UEntry@LT@@PEAX@std@@@1@QEAUEntry@LT@@AEBU34@@Z ; std::_Default_allocator_traits<std::allocator<std::_List_node<LT::Entry,void *> > >::construct<LT::Entry,LT::Entry const &>
PUBLIC	?deallocate@?$_Default_allocator_traits@V?$allocator@U_Container_proxy@std@@@std@@@std@@SAXAEAV?$allocator@U_Container_proxy@std@@@2@QEAU_Container_proxy@2@_K@Z ; std::_Default_allocator_traits<std::allocator<std::_Container_proxy> >::deallocate
PUBLIC	??$forward@AEBQEAU?$_List_node@UEntry@LT@@PEAX@std@@@std@@YAAEBQEAU?$_List_node@UEntry@LT@@PEAX@0@AEBQEAU10@@Z ; std::forward<std::_List_node<LT::Entry,void *> * const &>
PUBLIC	??$_Adl_verify_range@PEAPEAUEntry@LT@@PEAPEAU12@@std@@YAXAEBQEAPEAUEntry@LT@@0@Z ; std::_Adl_verify_range<LT::Entry * *,LT::Entry * *>
PUBLIC	??$_Get_unwrapped@AEBQEAPEAUEntry@LT@@@std@@YA@AEBQEAPEAUEntry@LT@@@Z ; std::_Get_unwrapped<LT::Entry * * const &>
PUBLIC	??$_Idl_distance@PEAPEAUEntry@LT@@PEAPEAU12@@std@@YA@AEBQEAPEAUEntry@LT@@0@Z ; std::_Idl_distance<LT::Entry * *,LT::Entry * *>
PUBLIC	??$_Get_unwrapped_n@AEAPEAPEAUEntry@LT@@_J@std@@YA@AEAPEAPEAUEntry@LT@@_J@Z ; std::_Get_unwrapped_n<LT::Entry * * &,__int64>
PUBLIC	??$_Copy_memmove@PEAPEAUEntry@LT@@PEAPEAU12@@std@@YAPEAPEAUEntry@LT@@PEAPEAU12@00@Z ; std::_Copy_memmove<LT::Entry * *,LT::Entry * *>
PUBLIC	??$_Seek_wrapped@PEAPEAUEntry@LT@@AEAPEAPEAU12@@std@@YAXAEAPEAPEAUEntry@LT@@0@Z ; std::_Seek_wrapped<LT::Entry * *,LT::Entry * * &>
PUBLIC	??$_Zero_range@PEAPEAUEntry@LT@@@std@@YAPEAPEAUEntry@LT@@QEAPEAU12@0@Z ; std::_Zero_range<LT::Entry * *>
PUBLIC	??$_Verify_range@PEAUEntry@LT@@@std@@YAXQEBQEAUEntry@LT@@0@Z ; std::_Verify_range<LT::Entry *>
PUBLIC	__JustMyCode_Default
PUBLIC	??_7exception@std@@6B@				; std::exception::`vftable'
PUBLIC	??_C@_0BC@EOODALEL@Unknown?5exception@		; `string'
PUBLIC	??_7bad_alloc@std@@6B@				; std::bad_alloc::`vftable'
PUBLIC	??_7bad_array_new_length@std@@6B@		; std::bad_array_new_length::`vftable'
PUBLIC	??_C@_0BF@KINCDENJ@bad?5array?5new?5length@	; `string'
PUBLIC	_TI3?AVbad_array_new_length@std@@
PUBLIC	_CTA3?AVbad_array_new_length@std@@
PUBLIC	??_R0?AVbad_array_new_length@std@@@8		; std::bad_array_new_length `RTTI Type Descriptor'
PUBLIC	_CT??_R0?AVbad_array_new_length@std@@@8??0bad_array_new_length@std@@QEAA@AEBV01@@Z24
PUBLIC	??_R0?AVbad_alloc@std@@@8			; std::bad_alloc `RTTI Type Descriptor'
PUBLIC	_CT??_R0?AVbad_alloc@std@@@8??0bad_alloc@std@@QEAA@AEBV01@@Z24
PUBLIC	??_R0?AVexception@std@@@8			; std::exception `RTTI Type Descriptor'
PUBLIC	_CT??_R0?AVexception@std@@@8??0exception@std@@QEAA@AEBV01@@Z24
PUBLIC	?__LINE__Var@?0??_Adjust_manually_vector_aligned@std@@YAXAEAPEAXAEA_K@Z@4JA ; `std::_Adjust_manually_vector_aligned'::`1'::__LINE__Var
PUBLIC	??_C@_0BB@FCMFBGOM@invalid?5argument@		; `string'
PUBLIC	??_C@_02DKCKIIND@?$CFs@				; `string'
PUBLIC	??_C@_0GJ@EHJGLGPD@C?3?2Program?5Files?5?$CIx86?$CJ?2Microsof@ ; `string'
PUBLIC	??_C@_1NC@LBGPBFDE@?$AAC?$AA?3?$AA?2?$AAP?$AAr?$AAo?$AAg?$AAr?$AAa?$AAm?$AA?5?$AAF?$AAi?$AAl?$AAe@ ; `string'
PUBLIC	??_C@_1EK@NIFDJFDG@?$AAs?$AAt?$AAd?$AA?3?$AA?3?$AA_?$AAA?$AAd?$AAj?$AAu?$AAs?$AAt?$AA_?$AAm?$AAa@ ; `string'
PUBLIC	??_C@_1CG@JNLFBNGN@?$AA?$CC?$AAi?$AAn?$AAv?$AAa?$AAl?$AAi?$AAd?$AA?5?$AAa?$AAr?$AAg?$AAu?$AAm?$AAe@ ; `string'
PUBLIC	??_C@_0GJ@OPFKIEFE@C?3?2Program?5Files?5?$CIx86?$CJ?2Microsof@ ; `string'
PUBLIC	?__LINE__Var@?0??_Maklocwcs@std@@YAPEA_WPEB_W@Z@4JA ; `std::_Maklocwcs'::`1'::__LINE__Var
PUBLIC	??_C@_0GJ@GMBHIGPF@C?3?2Program?5Files?5?$CIx86?$CJ?2Microsof@ ; `string'
PUBLIC	??_C@_0BP@IEHBKPNI@pop_front?5called?5on?5empty?5list@ ; `string'
PUBLIC	??_C@_0GG@LMOKLFIB@C?3?2Program?5Files?5?$CIx86?$CJ?2Microsof@ ; `string'
PUBLIC	??_C@_1MM@MBGLLEPM@?$AAC?$AA?3?$AA?2?$AAP?$AAr?$AAo?$AAg?$AAr?$AAa?$AAm?$AA?5?$AAF?$AAi?$AAl?$AAe@ ; `string'
PUBLIC	??_C@_1JO@OELGKGEE@?$AAs?$AAt?$AAd?$AA?3?$AA?3?$AAl?$AAi?$AAs?$AAt?$AA?$DM?$AAs?$AAt?$AAr?$AAu?$AAc@ ; `string'
PUBLIC	??_C@_1EC@POEKFLJM@?$AA?$CC?$AAp?$AAo?$AAp?$AA_?$AAf?$AAr?$AAo?$AAn?$AAt?$AA?5?$AAc?$AAa?$AAl?$AAl@ ; `string'
PUBLIC	??_C@_0BN@GOIPFJJH@front?$CI?$CJ?5called?5on?5empty?5list@ ; `string'
PUBLIC	??_C@_1JG@CLHEJMNG@?$AAs?$AAt?$AAd?$AA?3?$AA?3?$AAl?$AAi?$AAs?$AAt?$AA?$DM?$AAs?$AAt?$AAr?$AAu?$AAc@ ; `string'
PUBLIC	??_C@_1DO@HIOMABHK@?$AA?$CC?$AAf?$AAr?$AAo?$AAn?$AAt?$AA?$CI?$AA?$CJ?$AA?5?$AAc?$AAa?$AAl?$AAl?$AAe?$AAd@ ; `string'
PUBLIC	??_C@_0N@LPFKKEBD@?3AM?3am?3PM?3pm@		; `string'
PUBLIC	??_C@_0BH@EDKEEENI@deque?5empty?5before?5pop@	; `string'
PUBLIC	??_C@_0GH@OBALDB@C?3?2Program?5Files?5?$CIx86?$CJ?2Microsof@ ; `string'
PUBLIC	??_C@_1MO@ONLEFNNG@?$AAC?$AA?3?$AA?2?$AAP?$AAr?$AAo?$AAg?$AAr?$AAa?$AAm?$AA?5?$AAF?$AAi?$AAl?$AAe@ ; `string'
PUBLIC	??_C@_1JO@MJALCHE@?$AAs?$AAt?$AAd?$AA?3?$AA?3?$AAd?$AAe?$AAq?$AAu?$AAe?$AA?$DM?$AAs?$AAt?$AAr?$AAu@ ; `string'
PUBLIC	??_C@_1DC@NJAACHCD@?$AA?$CC?$AAd?$AAe?$AAq?$AAu?$AAe?$AA?5?$AAe?$AAm?$AAp?$AAt?$AAy?$AA?5?$AAb?$AAe@ ; `string'
PUBLIC	??_C@_0BN@OLMACEKN@back?$CI?$CJ?5called?5on?5empty?5deque@ ; `string'
PUBLIC	??_C@_1JG@JOJHPKLP@?$AAs?$AAt?$AAd?$AA?3?$AA?3?$AAd?$AAe?$AAq?$AAu?$AAe?$AA?$DM?$AAs?$AAt?$AAr?$AAu@ ; `string'
PUBLIC	??_C@_1DO@OOAHKDGC@?$AA?$CC?$AAb?$AAa?$AAc?$AAk?$AA?$CI?$AA?$CJ?$AA?5?$AAc?$AAa?$AAl?$AAl?$AAe?$AAd?$AA?5@ ; `string'
PUBLIC	??_C@_1BK@MHIKGOKE@?$AA?3?$AAA?$AAM?$AA?3?$AAa?$AAm?$AA?3?$AAP?$AAM?$AA?3?$AAp?$AAm@ ; `string'
PUBLIC	??_C@_0O@NKNMEGII@list?5too?5long@		; `string'
PUBLIC	??_C@_0BC@KBDMBKEH@deque?$DMT?$DO?5too?5long@	; `string'
PUBLIC	??_C@_0BJ@HAJGEHKO@transposed?5pointer?5range@	; `string'
PUBLIC	??_C@_0GK@OHAIDBEA@C?3?2Program?5Files?5?$CIx86?$CJ?2Microsof@ ; `string'
PUBLIC	??_C@_1NE@NLDHILHB@?$AAC?$AA?3?$AA?2?$AAP?$AAr?$AAo?$AAg?$AAr?$AAa?$AAm?$AA?5?$AAF?$AAi?$AAl?$AAe@ ; `string'
PUBLIC	??_C@_1CG@LJCPDKEJ@?$AAs?$AAt?$AAd?$AA?3?$AA?3?$AA_?$AAV?$AAe?$AAr?$AAi?$AAf?$AAy?$AA_?$AAr?$AAa@ ; `string'
PUBLIC	??_C@_1DG@FJIKMGFD@?$AA?$CC?$AAt?$AAr?$AAa?$AAn?$AAs?$AAp?$AAo?$AAs?$AAe?$AAd?$AA?5?$AAp?$AAo?$AAi@ ; `string'
PUBLIC	??_C@_1EO@GFNCMDLA@?$AAs?$AAt?$AAd?$AA?3?$AA?3?$AA_?$AAA?$AAl?$AAl?$AAo?$AAc?$AAa?$AAt?$AAe?$AA_@ ; `string'
PUBLIC	??_R4exception@std@@6B@				; std::exception::`RTTI Complete Object Locator'
PUBLIC	??_R3exception@std@@8				; std::exception::`RTTI Class Hierarchy Descriptor'
PUBLIC	??_R2exception@std@@8				; std::exception::`RTTI Base Class Array'
PUBLIC	??_R1A@?0A@EA@exception@std@@8			; std::exception::`RTTI Base Class Descriptor at (0,-1,0,64)'
PUBLIC	??_R4bad_alloc@std@@6B@				; std::bad_alloc::`RTTI Complete Object Locator'
PUBLIC	??_R3bad_alloc@std@@8				; std::bad_alloc::`RTTI Class Hierarchy Descriptor'
PUBLIC	??_R2bad_alloc@std@@8				; std::bad_alloc::`RTTI Base Class Array'
PUBLIC	??_R1A@?0A@EA@bad_alloc@std@@8			; std::bad_alloc::`RTTI Base Class Descriptor at (0,-1,0,64)'
PUBLIC	??_R4bad_array_new_length@std@@6B@		; std::bad_array_new_length::`RTTI Complete Object Locator'
PUBLIC	??_R3bad_array_new_length@std@@8		; std::bad_array_new_length::`RTTI Class Hierarchy Descriptor'
PUBLIC	??_R2bad_array_new_length@std@@8		; std::bad_array_new_length::`RTTI Base Class Array'
PUBLIC	??_R1A@?0A@EA@bad_array_new_length@std@@8	; std::bad_array_new_length::`RTTI Base Class Descriptor at (0,-1,0,64)'
EXTRN	??2@YAPEAX_K@Z:PROC				; operator new
EXTRN	??3@YAXPEAX_K@Z:PROC				; operator delete
EXTRN	__imp__invalid_parameter:PROC
EXTRN	memcpy:PROC
EXTRN	memmove:PROC
EXTRN	memset:PROC
EXTRN	__imp_wcslen:PROC
EXTRN	__imp__calloc_dbg:PROC
EXTRN	__imp__CrtDbgReport:PROC
EXTRN	__imp_??0_Lockit@std@@QEAA@H@Z:PROC
EXTRN	__imp_??1_Lockit@std@@QEAA@XZ:PROC
EXTRN	__std_exception_copy:PROC
EXTRN	__std_exception_destroy:PROC
EXTRN	??_Eexception@std@@UEAAPEAXI@Z:PROC		; std::exception::`vector deleting destructor'
EXTRN	??_Ebad_alloc@std@@UEAAPEAXI@Z:PROC		; std::bad_alloc::`vector deleting destructor'
EXTRN	??_Ebad_array_new_length@std@@UEAAPEAXI@Z:PROC	; std::bad_array_new_length::`vector deleting destructor'
EXTRN	strlen:PROC
EXTRN	?_Xbad_alloc@std@@YAXXZ:PROC			; std::_Xbad_alloc
EXTRN	?_Xlength_error@std@@YAXPEBD@Z:PROC		; std::_Xlength_error
EXTRN	_Mbrtowc:PROC
EXTRN	__imp_?_Getcvt@_Locinfo@std@@QEBA?AU_Cvtvec@@XZ:PROC
EXTRN	__imp_?_Getdays@_Locinfo@std@@QEBAPEBDXZ:PROC
EXTRN	__imp_?_Getmonths@_Locinfo@std@@QEBAPEBDXZ:PROC
EXTRN	__imp_?_W_Getdays@_Locinfo@std@@QEBAPEBGXZ:PROC
EXTRN	__imp_?_W_Getmonths@_Locinfo@std@@QEBAPEBGXZ:PROC
EXTRN	_CxxThrowException:PROC
EXTRN	_RTC_CheckStackVars:PROC
EXTRN	_RTC_InitBase:PROC
EXTRN	_RTC_Shutdown:PROC
EXTRN	__CheckForDebuggerJustMyCode:PROC
EXTRN	__CxxFrameHandler4:PROC
EXTRN	__GSHandlerCheck:PROC
EXTRN	__GSHandlerCheck_EH4:PROC
EXTRN	__security_check_cookie:PROC
EXTRN	??_7type_info@@6B@:BYTE				; type_info::`vftable'
EXTRN	__ImageBase:BYTE
EXTRN	__security_cookie:QWORD
;	COMDAT pdata
pdata	SEGMENT
$pdata$?__empty_global_delete@@YAXPEAX@Z DD imagerel $LN4
	DD	imagerel $LN4+64
	DD	imagerel $unwind$?__empty_global_delete@@YAXPEAX@Z
pdata	ENDS
;	COMDAT pdata
pdata	SEGMENT
$pdata$?__empty_global_delete@@YAXPEAX_K@Z DD imagerel $LN4
	DD	imagerel $LN4+69
	DD	imagerel $unwind$?__empty_global_delete@@YAXPEAX_K@Z
pdata	ENDS
;	COMDAT pdata
pdata	SEGMENT
$pdata$wmemcpy DD imagerel $LN4
	DD	imagerel $LN4+106
	DD	imagerel $unwind$wmemcpy
pdata	ENDS
;	COMDAT pdata
pdata	SEGMENT
$pdata$??2@YAPEAX_KPEAX@Z DD imagerel $LN4
	DD	imagerel $LN4+76
	DD	imagerel $unwind$??2@YAPEAX_KPEAX@Z
pdata	ENDS
;	COMDAT pdata
pdata	SEGMENT
$pdata$?max@?$numeric_limits@_J@std@@SA_JXZ DD imagerel $LN3
	DD	imagerel $LN3+62
	DD	imagerel $unwind$?max@?$numeric_limits@_J@std@@SA_JXZ
pdata	ENDS
;	COMDAT pdata
pdata	SEGMENT
$pdata$??0exception@std@@QEAA@QEBDH@Z DD imagerel $LN3
	DD	imagerel $LN3+139
	DD	imagerel $unwind$??0exception@std@@QEAA@QEBDH@Z
pdata	ENDS
;	COMDAT pdata
pdata	SEGMENT
$pdata$??0exception@std@@QEAA@AEBV01@@Z DD imagerel $LN3
	DD	imagerel $LN3+146
	DD	imagerel $unwind$??0exception@std@@QEAA@AEBV01@@Z
pdata	ENDS
;	COMDAT pdata
pdata	SEGMENT
$pdata$??1exception@std@@UEAA@XZ DD imagerel $LN3
	DD	imagerel $LN3+101
	DD	imagerel $unwind$??1exception@std@@UEAA@XZ
pdata	ENDS
;	COMDAT pdata
pdata	SEGMENT
$pdata$?what@exception@std@@UEBAPEBDXZ DD imagerel $LN5
	DD	imagerel $LN5+119
	DD	imagerel $unwind$?what@exception@std@@UEBAPEBDXZ
pdata	ENDS
;	COMDAT pdata
pdata	SEGMENT
$pdata$??_Gexception@std@@UEAAPEAXI@Z DD imagerel $LN4
	DD	imagerel $LN4+105
	DD	imagerel $unwind$??_Gexception@std@@UEAAPEAXI@Z
pdata	ENDS
;	COMDAT pdata
pdata	SEGMENT
$pdata$??0bad_alloc@std@@AEAA@QEBD@Z DD imagerel $LN3
	DD	imagerel $LN3+118
	DD	imagerel $unwind$??0bad_alloc@std@@AEAA@QEBD@Z
pdata	ENDS
;	COMDAT pdata
pdata	SEGMENT
$pdata$??1bad_alloc@std@@UEAA@XZ DD imagerel $LN3
	DD	imagerel $LN3+64
	DD	imagerel $unwind$??1bad_alloc@std@@UEAA@XZ
pdata	ENDS
;	COMDAT pdata
pdata	SEGMENT
$pdata$??0bad_alloc@std@@QEAA@AEBV01@@Z DD imagerel $LN3
	DD	imagerel $LN3+100
	DD	imagerel $unwind$??0bad_alloc@std@@QEAA@AEBV01@@Z
pdata	ENDS
;	COMDAT pdata
pdata	SEGMENT
$pdata$??_Gbad_alloc@std@@UEAAPEAXI@Z DD imagerel $LN4
	DD	imagerel $LN4+105
	DD	imagerel $unwind$??_Gbad_alloc@std@@UEAAPEAXI@Z
pdata	ENDS
;	COMDAT pdata
pdata	SEGMENT
$pdata$??0bad_array_new_length@std@@QEAA@XZ DD imagerel $LN3
	DD	imagerel $LN3+107
	DD	imagerel $unwind$??0bad_array_new_length@std@@QEAA@XZ
pdata	ENDS
;	COMDAT pdata
pdata	SEGMENT
$pdata$??1bad_array_new_length@std@@UEAA@XZ DD imagerel $LN3
	DD	imagerel $LN3+64
	DD	imagerel $unwind$??1bad_array_new_length@std@@UEAA@XZ
pdata	ENDS
;	COMDAT pdata
pdata	SEGMENT
$pdata$??0bad_array_new_length@std@@QEAA@AEBV01@@Z DD imagerel $LN3
	DD	imagerel $LN3+100
	DD	imagerel $unwind$??0bad_array_new_length@std@@QEAA@AEBV01@@Z
pdata	ENDS
;	COMDAT pdata
pdata	SEGMENT
$pdata$??_Gbad_array_new_length@std@@UEAAPEAXI@Z DD imagerel $LN4
	DD	imagerel $LN4+105
	DD	imagerel $unwind$??_Gbad_array_new_length@std@@UEAAPEAXI@Z
pdata	ENDS
;	COMDAT pdata
pdata	SEGMENT
$pdata$?_Throw_bad_array_new_length@std@@YAXXZ DD imagerel $LN3
	DD	imagerel $LN3+83
	DD	imagerel $unwind$?_Throw_bad_array_new_length@std@@YAXXZ
pdata	ENDS
;	COMDAT pdata
pdata	SEGMENT
$pdata$?_Allocate@_Default_allocate_traits@std@@SAPEAX_K@Z DD imagerel $LN3
	DD	imagerel $LN3+76
	DD	imagerel $unwind$?_Allocate@_Default_allocate_traits@std@@SAPEAX_K@Z
pdata	ENDS
;	COMDAT pdata
pdata	SEGMENT
$pdata$?_Adjust_manually_vector_aligned@std@@YAXAEAPEAXAEA_K@Z DD imagerel $LN21
	DD	imagerel $LN21+476
	DD	imagerel $unwind$?_Adjust_manually_vector_aligned@std@@YAXAEAPEAXAEA_K@Z
pdata	ENDS
;	COMDAT pdata
pdata	SEGMENT
$pdata$??0_Container_proxy@std@@QEAA@PEAU_Container_base12@1@@Z DD imagerel $LN3
	DD	imagerel $LN3+108
	DD	imagerel $unwind$??0_Container_proxy@std@@QEAA@PEAU_Container_base12@1@@Z
pdata	ENDS
;	COMDAT pdata
pdata	SEGMENT
$pdata$??0_Container_base12@std@@QEAA@XZ DD imagerel $LN3
	DD	imagerel $LN3+85
	DD	imagerel $unwind$??0_Container_base12@std@@QEAA@XZ
pdata	ENDS
;	COMDAT pdata
pdata	SEGMENT
$pdata$?_Orphan_all@_Container_base12@std@@QEAAXXZ DD imagerel $LN7
	DD	imagerel $LN7+233
	DD	imagerel $unwind$?_Orphan_all@_Container_base12@std@@QEAAXXZ
pdata	ENDS
;	COMDAT pdata
pdata	SEGMENT
$pdata$?_Release@_Basic_container_proxy_ptr12@std@@QEAAXXZ DD imagerel $LN3
	DD	imagerel $LN3+78
	DD	imagerel $unwind$?_Release@_Basic_container_proxy_ptr12@std@@QEAAXXZ
pdata	ENDS
;	COMDAT pdata
pdata	SEGMENT
$pdata$??$addressof@U_Container_base12@std@@@std@@YAPEAU_Container_base12@0@AEAU10@@Z DD imagerel $LN3
	DD	imagerel $LN3+71
	DD	imagerel $unwind$??$addressof@U_Container_base12@std@@@std@@YAPEAU_Container_base12@0@AEAU10@@Z
pdata	ENDS
;	COMDAT pdata
pdata	SEGMENT
$pdata$??$_Construct_in_place@U_Container_proxy@std@@PEAU_Container_base12@2@@std@@YAXAEAU_Container_proxy@0@$$QEAPEAU_Container_base12@0@@Z DD imagerel $LN3
	DD	imagerel $LN3+129
	DD	imagerel $unwind$??$_Construct_in_place@U_Container_proxy@std@@PEAU_Container_base12@2@@std@@YAXAEAU_Container_proxy@0@$$QEAPEAU_Container_base12@0@@Z
pdata	ENDS
;	COMDAT pdata
pdata	SEGMENT
$pdata$??$_Maklocstr@_W@std@@YAPEA_WPEBDPEA_WAEBU_Cvtvec@@@Z DD imagerel $LN12
	DD	imagerel $LN12+584
	DD	imagerel $unwind$??$_Maklocstr@_W@std@@YAPEA_WPEBDPEA_WAEBU_Cvtvec@@@Z
pdata	ENDS
;	COMDAT pdata
pdata	SEGMENT
$pdata$?_Maklocwcs@std@@YAPEA_WPEB_W@Z DD imagerel $LN4
	DD	imagerel $LN4+165
	DD	imagerel $unwind$?_Maklocwcs@std@@YAPEA_WPEB_W@Z
pdata	ENDS
;	COMDAT pdata
pdata	SEGMENT
$pdata$??$_Maklocstr@D@std@@YAPEADPEBDPEADAEBU_Cvtvec@@@Z DD imagerel $LN7
	DD	imagerel $LN7+223
	DD	imagerel $unwind$??$_Maklocstr@D@std@@YAPEADPEBDPEADAEBU_Cvtvec@@@Z
pdata	ENDS
;	COMDAT pdata
pdata	SEGMENT
$pdata$??$_Getvals@_W@?$time_get@DV?$istreambuf_iterator@DU?$char_traits@D@std@@@std@@@std@@IEAAX_WAEBV_Locinfo@1@@Z DD imagerel $LN5
	DD	imagerel $LN5+379
	DD	imagerel $unwind$??$_Getvals@_W@?$time_get@DV?$istreambuf_iterator@DU?$char_traits@D@std@@@std@@@std@@IEAAX_WAEBV_Locinfo@1@@Z
pdata	ENDS
;	COMDAT pdata
pdata	SEGMENT
$pdata$??$_Getvals@_W@?$time_get@_WV?$istreambuf_iterator@_WU?$char_traits@_W@std@@@std@@@std@@IEAAX_WAEBV_Locinfo@1@@Z DD imagerel $LN5
	DD	imagerel $LN5+379
	DD	imagerel $unwind$??$_Getvals@_W@?$time_get@_WV?$istreambuf_iterator@_WU?$char_traits@_W@std@@@std@@@std@@IEAAX_WAEBV_Locinfo@1@@Z
pdata	ENDS
;	COMDAT pdata
pdata	SEGMENT
$pdata$??0Entry@LT@@QEAA@XZ DD imagerel $LN4
	DD	imagerel $LN4+149
	DD	imagerel $unwind$??0Entry@LT@@QEAA@XZ
pdata	ENDS
;	COMDAT pdata
pdata	SEGMENT
$pdata$?seachingExpressions@PN@@YAXAEAULexTable@LT@@AEAUIdTable@IT@@@Z DD imagerel $LN13
	DD	imagerel $LN13+275
	DD	imagerel $unwind$?seachingExpressions@PN@@YAXAEAULexTable@LT@@AEAUIdTable@IT@@@Z
pdata	ENDS
;	COMDAT pdata
pdata	SEGMENT
$pdata$?polishNotation@PN@@YAHHAEAULexTable@LT@@AEAUIdTable@IT@@@Z DD imagerel $LN95
	DD	imagerel $LN95+2358
	DD	imagerel $unwind$?polishNotation@PN@@YAHHAEAULexTable@LT@@AEAUIdTable@IT@@@Z
pdata	ENDS
;	COMDAT pdata
pdata	SEGMENT
$pdata$?dtor$0@?0??polishNotation@PN@@YAHHAEAULexTable@LT@@AEAUIdTable@IT@@@Z@4HA DD imagerel ?dtor$0@?0??polishNotation@PN@@YAHHAEAULexTable@LT@@AEAUIdTable@IT@@@Z@4HA
	DD	imagerel ?dtor$0@?0??polishNotation@PN@@YAHHAEAULexTable@LT@@AEAUIdTable@IT@@@Z@4HA+36
	DD	imagerel $unwind$?dtor$0@?0??polishNotation@PN@@YAHHAEAULexTable@LT@@AEAUIdTable@IT@@@Z@4HA
pdata	ENDS
;	COMDAT pdata
pdata	SEGMENT
$pdata$?dtor$1@?0??polishNotation@PN@@YAHHAEAULexTable@LT@@AEAUIdTable@IT@@@Z@4HA DD imagerel ?dtor$1@?0??polishNotation@PN@@YAHHAEAULexTable@LT@@AEAUIdTable@IT@@@Z@4HA
	DD	imagerel ?dtor$1@?0??polishNotation@PN@@YAHHAEAULexTable@LT@@AEAUIdTable@IT@@@Z@4HA+36
	DD	imagerel $unwind$?dtor$1@?0??polishNotation@PN@@YAHHAEAULexTable@LT@@AEAUIdTable@IT@@@Z@4HA
pdata	ENDS
;	COMDAT pdata
pdata	SEGMENT
$pdata$??0?$allocator@UEntry@LT@@@std@@QEAA@XZ DD imagerel $LN3
	DD	imagerel $LN3+71
	DD	imagerel $unwind$??0?$allocator@UEntry@LT@@@std@@QEAA@XZ
pdata	ENDS
;	COMDAT pdata
pdata	SEGMENT
$pdata$?deallocate@?$allocator@UEntry@LT@@@std@@QEAAXQEAUEntry@LT@@_K@Z DD imagerel $LN3
	DD	imagerel $LN3+97
	DD	imagerel $unwind$?deallocate@?$allocator@UEntry@LT@@@std@@QEAAXQEAUEntry@LT@@_K@Z
pdata	ENDS
;	COMDAT pdata
pdata	SEGMENT
$pdata$?allocate@?$allocator@UEntry@LT@@@std@@QEAAPEAUEntry@LT@@_K@Z DD imagerel $LN3
	DD	imagerel $LN3+89
	DD	imagerel $unwind$?allocate@?$allocator@UEntry@LT@@@std@@QEAAPEAUEntry@LT@@_K@Z
pdata	ENDS
;	COMDAT pdata
pdata	SEGMENT
$pdata$?max_size@?$_Default_allocator_traits@V?$allocator@UEntry@LT@@@std@@@std@@SA_KAEBV?$allocator@UEntry@LT@@@2@@Z DD imagerel $LN3
	DD	imagerel $LN3+74
	DD	imagerel $unwind$?max_size@?$_Default_allocator_traits@V?$allocator@UEntry@LT@@@std@@@std@@SA_KAEBV?$allocator@UEntry@LT@@@2@@Z
pdata	ENDS
;	COMDAT pdata
pdata	SEGMENT
$pdata$?deallocate@?$allocator@PEAUEntry@LT@@@std@@QEAAXQEAPEAUEntry@LT@@_K@Z DD imagerel $LN3
	DD	imagerel $LN3+100
	DD	imagerel $unwind$?deallocate@?$allocator@PEAUEntry@LT@@@std@@QEAAXQEAPEAUEntry@LT@@_K@Z
pdata	ENDS
;	COMDAT pdata
pdata	SEGMENT
$pdata$?allocate@?$allocator@PEAUEntry@LT@@@std@@QEAAPEAPEAUEntry@LT@@_K@Z DD imagerel $LN3
	DD	imagerel $LN3+89
	DD	imagerel $unwind$?allocate@?$allocator@PEAUEntry@LT@@@std@@QEAAPEAPEAUEntry@LT@@_K@Z
pdata	ENDS
;	COMDAT pdata
pdata	SEGMENT
$pdata$??0?$deque@UEntry@LT@@V?$allocator@UEntry@LT@@@std@@@std@@QEAA@XZ DD imagerel $LN3
	DD	imagerel $LN3+157
	DD	imagerel $unwind$??0?$deque@UEntry@LT@@V?$allocator@UEntry@LT@@@std@@@std@@QEAA@XZ
pdata	ENDS
;	COMDAT pdata
pdata	SEGMENT
$pdata$??1?$deque@UEntry@LT@@V?$allocator@UEntry@LT@@@std@@@std@@QEAA@XZ DD imagerel $LN3
	DD	imagerel $LN3+199
	DD	imagerel $unwind$??1?$deque@UEntry@LT@@V?$allocator@UEntry@LT@@@std@@@std@@QEAA@XZ
pdata	ENDS
;	COMDAT pdata
pdata	SEGMENT
$pdata$?_Unchecked_end@?$deque@UEntry@LT@@V?$allocator@UEntry@LT@@@std@@@std@@QEAA?AV?$_Deque_unchecked_iterator@V?$_Deque_val@U?$_Deque_simple_types@UEntry@LT@@@std@@@std@@@2@XZ DD imagerel $LN3
	DD	imagerel $LN3+175
	DD	imagerel $unwind$?_Unchecked_end@?$deque@UEntry@LT@@V?$allocator@UEntry@LT@@@std@@@std@@QEAA?AV?$_Deque_unchecked_iterator@V?$_Deque_val@U?$_Deque_simple_types@UEntry@LT@@@std@@@std@@@2@XZ
pdata	ENDS
;	COMDAT pdata
pdata	SEGMENT
$pdata$?max_size@?$deque@UEntry@LT@@V?$allocator@UEntry@LT@@@std@@@std@@QEBA_KXZ DD imagerel $LN3
	DD	imagerel $LN3+125
	DD	imagerel $unwind$?max_size@?$deque@UEntry@LT@@V?$allocator@UEntry@LT@@@std@@@std@@QEBA_KXZ
pdata	ENDS
;	COMDAT pdata
pdata	SEGMENT
$pdata$?empty@?$deque@UEntry@LT@@V?$allocator@UEntry@LT@@@std@@@std@@QEBA_NXZ DD imagerel $LN5
	DD	imagerel $LN5+111
	DD	imagerel $unwind$?empty@?$deque@UEntry@LT@@V?$allocator@UEntry@LT@@@std@@@std@@QEBA_NXZ
pdata	ENDS
;	COMDAT pdata
pdata	SEGMENT
$pdata$?back@?$deque@UEntry@LT@@V?$allocator@UEntry@LT@@@std@@@std@@QEAAAEAUEntry@LT@@XZ DD imagerel $LN12
	DD	imagerel $LN12+251
	DD	imagerel $unwind$?back@?$deque@UEntry@LT@@V?$allocator@UEntry@LT@@@std@@@std@@QEAAAEAUEntry@LT@@XZ
pdata	ENDS
;	COMDAT pdata
pdata	SEGMENT
$pdata$?push_back@?$deque@UEntry@LT@@V?$allocator@UEntry@LT@@@std@@@std@@QEAAXAEBUEntry@LT@@@Z DD imagerel $LN3
	DD	imagerel $LN3+100
	DD	imagerel $unwind$?push_back@?$deque@UEntry@LT@@V?$allocator@UEntry@LT@@@std@@@std@@QEAAXAEBUEntry@LT@@@Z
pdata	ENDS
;	COMDAT pdata
pdata	SEGMENT
$pdata$?pop_back@?$deque@UEntry@LT@@V?$allocator@UEntry@LT@@@std@@@std@@QEAAXXZ DD imagerel $LN10
	DD	imagerel $LN10+435
	DD	imagerel $unwind$?pop_back@?$deque@UEntry@LT@@V?$allocator@UEntry@LT@@@std@@@std@@QEAAXXZ
pdata	ENDS
;	COMDAT pdata
pdata	SEGMENT
$pdata$?_Xlen@?$deque@UEntry@LT@@V?$allocator@UEntry@LT@@@std@@@std@@AEBAXXZ DD imagerel $LN3
	DD	imagerel $LN3+76
	DD	imagerel $unwind$?_Xlen@?$deque@UEntry@LT@@V?$allocator@UEntry@LT@@@std@@@std@@AEBAXXZ
pdata	ENDS
;	COMDAT pdata
pdata	SEGMENT
$pdata$?_Growmap@?$deque@UEntry@LT@@V?$allocator@UEntry@LT@@@std@@@std@@AEAAX_K@Z DD imagerel $LN12
	DD	imagerel $LN12+1054
	DD	imagerel $unwind$?_Growmap@?$deque@UEntry@LT@@V?$allocator@UEntry@LT@@@std@@@std@@AEAAX_K@Z
pdata	ENDS
;	COMDAT pdata
pdata	SEGMENT
$pdata$?_Tidy@?$deque@UEntry@LT@@V?$allocator@UEntry@LT@@@std@@@std@@AEAAXXZ DD imagerel $LN10
	DD	imagerel $LN10+457
	DD	imagerel $unwind$?_Tidy@?$deque@UEntry@LT@@V?$allocator@UEntry@LT@@@std@@@std@@AEAAXXZ
pdata	ENDS
;	COMDAT pdata
pdata	SEGMENT
$pdata$?_Orphan_off@?$deque@UEntry@LT@@V?$allocator@UEntry@LT@@@std@@@std@@AEBAX_K@Z DD imagerel $LN11
	DD	imagerel $LN11+400
	DD	imagerel $unwind$?_Orphan_off@?$deque@UEntry@LT@@V?$allocator@UEntry@LT@@@std@@@std@@AEBAX_K@Z
pdata	ENDS
;	COMDAT pdata
pdata	SEGMENT
$pdata$?_Getblock@?$deque@UEntry@LT@@V?$allocator@UEntry@LT@@@std@@@std@@AEBA_K_K@Z DD imagerel $LN3
	DD	imagerel $LN3+97
	DD	imagerel $unwind$?_Getblock@?$deque@UEntry@LT@@V?$allocator@UEntry@LT@@@std@@@std@@AEBA_K_K@Z
pdata	ENDS
;	COMDAT pdata
pdata	SEGMENT
$pdata$?_Orphan_all@?$deque@UEntry@LT@@V?$allocator@UEntry@LT@@@std@@@std@@AEAAXXZ DD imagerel $LN3
	DD	imagerel $LN3+85
	DD	imagerel $unwind$?_Orphan_all@?$deque@UEntry@LT@@V?$allocator@UEntry@LT@@@std@@@std@@AEAAXXZ
pdata	ENDS
;	COMDAT pdata
pdata	SEGMENT
$pdata$?_Getal@?$deque@UEntry@LT@@V?$allocator@UEntry@LT@@@std@@@std@@AEAAAEAV?$allocator@UEntry@LT@@@2@XZ DD imagerel $LN3
	DD	imagerel $LN3+80
	DD	imagerel $unwind$?_Getal@?$deque@UEntry@LT@@V?$allocator@UEntry@LT@@@std@@@std@@AEAAAEAV?$allocator@UEntry@LT@@@2@XZ
pdata	ENDS
;	COMDAT pdata
pdata	SEGMENT
$pdata$?_Getal@?$deque@UEntry@LT@@V?$allocator@UEntry@LT@@@std@@@std@@AEBAAEBV?$allocator@UEntry@LT@@@2@XZ DD imagerel $LN3
	DD	imagerel $LN3+80
	DD	imagerel $unwind$?_Getal@?$deque@UEntry@LT@@V?$allocator@UEntry@LT@@@std@@@std@@AEBAAEBV?$allocator@UEntry@LT@@@2@XZ
pdata	ENDS
;	COMDAT pdata
pdata	SEGMENT
$pdata$?_Get_data@?$deque@UEntry@LT@@V?$allocator@UEntry@LT@@@std@@@std@@AEAAAEAV?$_Deque_val@U?$_Deque_simple_types@UEntry@LT@@@std@@@2@XZ DD imagerel $LN3
	DD	imagerel $LN3+71
	DD	imagerel $unwind$?_Get_data@?$deque@UEntry@LT@@V?$allocator@UEntry@LT@@@std@@@std@@AEAAAEAV?$_Deque_val@U?$_Deque_simple_types@UEntry@LT@@@std@@@2@XZ
pdata	ENDS
;	COMDAT pdata
pdata	SEGMENT
$pdata$?_Get_data@?$deque@UEntry@LT@@V?$allocator@UEntry@LT@@@std@@@std@@AEBAAEBV?$_Deque_val@U?$_Deque_simple_types@UEntry@LT@@@std@@@2@XZ DD imagerel $LN3
	DD	imagerel $LN3+71
	DD	imagerel $unwind$?_Get_data@?$deque@UEntry@LT@@V?$allocator@UEntry@LT@@@std@@@std@@AEBAAEBV?$_Deque_val@U?$_Deque_simple_types@UEntry@LT@@@std@@@2@XZ
pdata	ENDS
;	COMDAT pdata
pdata	SEGMENT
$pdata$?_Map@?$deque@UEntry@LT@@V?$allocator@UEntry@LT@@@std@@@std@@AEAAAEAPEAPEAUEntry@LT@@XZ DD imagerel $LN3
	DD	imagerel $LN3+80
	DD	imagerel $unwind$?_Map@?$deque@UEntry@LT@@V?$allocator@UEntry@LT@@@std@@@std@@AEAAAEAPEAPEAUEntry@LT@@XZ
pdata	ENDS
;	COMDAT pdata
pdata	SEGMENT
$pdata$?_Mapsize@?$deque@UEntry@LT@@V?$allocator@UEntry@LT@@@std@@@std@@AEAAAEA_KXZ DD imagerel $LN3
	DD	imagerel $LN3+80
	DD	imagerel $unwind$?_Mapsize@?$deque@UEntry@LT@@V?$allocator@UEntry@LT@@@std@@@std@@AEAAAEA_KXZ
pdata	ENDS
;	COMDAT pdata
pdata	SEGMENT
$pdata$?_Myoff@?$deque@UEntry@LT@@V?$allocator@UEntry@LT@@@std@@@std@@AEAAAEA_KXZ DD imagerel $LN3
	DD	imagerel $LN3+80
	DD	imagerel $unwind$?_Myoff@?$deque@UEntry@LT@@V?$allocator@UEntry@LT@@@std@@@std@@AEAAAEA_KXZ
pdata	ENDS
;	COMDAT pdata
pdata	SEGMENT
$pdata$?_Myoff@?$deque@UEntry@LT@@V?$allocator@UEntry@LT@@@std@@@std@@AEBAAEB_KXZ DD imagerel $LN3
	DD	imagerel $LN3+80
	DD	imagerel $unwind$?_Myoff@?$deque@UEntry@LT@@V?$allocator@UEntry@LT@@@std@@@std@@AEBAAEB_KXZ
pdata	ENDS
;	COMDAT pdata
pdata	SEGMENT
$pdata$?_Mysize@?$deque@UEntry@LT@@V?$allocator@UEntry@LT@@@std@@@std@@AEAAAEA_KXZ DD imagerel $LN3
	DD	imagerel $LN3+80
	DD	imagerel $unwind$?_Mysize@?$deque@UEntry@LT@@V?$allocator@UEntry@LT@@@std@@@std@@AEAAAEA_KXZ
pdata	ENDS
;	COMDAT pdata
pdata	SEGMENT
$pdata$?_Mysize@?$deque@UEntry@LT@@V?$allocator@UEntry@LT@@@std@@@std@@AEBAAEB_KXZ DD imagerel $LN3
	DD	imagerel $LN3+80
	DD	imagerel $unwind$?_Mysize@?$deque@UEntry@LT@@V?$allocator@UEntry@LT@@@std@@@std@@AEBAAEB_KXZ
pdata	ENDS
;	COMDAT pdata
pdata	SEGMENT
$pdata$??0?$_Deque_val@U?$_Deque_simple_types@UEntry@LT@@@std@@@std@@QEAA@XZ DD imagerel $LN3
	DD	imagerel $LN3+143
	DD	imagerel $unwind$??0?$_Deque_val@U?$_Deque_simple_types@UEntry@LT@@@std@@@std@@QEAA@XZ
pdata	ENDS
;	COMDAT pdata
pdata	SEGMENT
$pdata$?_Getblock@?$_Deque_val@U?$_Deque_simple_types@UEntry@LT@@@std@@@std@@QEBA_K_K@Z DD imagerel $LN3
	DD	imagerel $LN3+96
	DD	imagerel $unwind$?_Getblock@?$_Deque_val@U?$_Deque_simple_types@UEntry@LT@@@std@@@std@@QEBA_K_K@Z
pdata	ENDS
;	COMDAT pdata
pdata	SEGMENT
$pdata$?_Get_first@?$_Compressed_pair@V?$allocator@UEntry@LT@@@std@@V?$_Deque_val@U?$_Deque_simple_types@UEntry@LT@@@std@@@2@$00@std@@QEAAAEAV?$allocator@UEntry@LT@@@2@XZ DD imagerel $LN3
	DD	imagerel $LN3+71
	DD	imagerel $unwind$?_Get_first@?$_Compressed_pair@V?$allocator@UEntry@LT@@@std@@V?$_Deque_val@U?$_Deque_simple_types@UEntry@LT@@@std@@@2@$00@std@@QEAAAEAV?$allocator@UEntry@LT@@@2@XZ
pdata	ENDS
;	COMDAT pdata
pdata	SEGMENT
$pdata$?_Get_first@?$_Compressed_pair@V?$allocator@UEntry@LT@@@std@@V?$_Deque_val@U?$_Deque_simple_types@UEntry@LT@@@std@@@2@$00@std@@QEBAAEBV?$allocator@UEntry@LT@@@2@XZ DD imagerel $LN3
	DD	imagerel $LN3+71
	DD	imagerel $unwind$?_Get_first@?$_Compressed_pair@V?$allocator@UEntry@LT@@@std@@V?$_Deque_val@U?$_Deque_simple_types@UEntry@LT@@@std@@@2@$00@std@@QEBAAEBV?$allocator@UEntry@LT@@@2@XZ
pdata	ENDS
;	COMDAT pdata
pdata	SEGMENT
$pdata$??0?$stack@UEntry@LT@@V?$deque@UEntry@LT@@V?$allocator@UEntry@LT@@@std@@@std@@@std@@QEAA@XZ DD imagerel $LN3
	DD	imagerel $LN3+86
	DD	imagerel $unwind$??0?$stack@UEntry@LT@@V?$deque@UEntry@LT@@V?$allocator@UEntry@LT@@@std@@@std@@@std@@QEAA@XZ
pdata	ENDS
;	COMDAT pdata
pdata	SEGMENT
$pdata$?empty@?$stack@UEntry@LT@@V?$deque@UEntry@LT@@V?$allocator@UEntry@LT@@@std@@@std@@@std@@QEBA_NXZ DD imagerel $LN3
	DD	imagerel $LN3+80
	DD	imagerel $unwind$?empty@?$stack@UEntry@LT@@V?$deque@UEntry@LT@@V?$allocator@UEntry@LT@@@std@@@std@@@std@@QEBA_NXZ
pdata	ENDS
;	COMDAT pdata
pdata	SEGMENT
$pdata$?top@?$stack@UEntry@LT@@V?$deque@UEntry@LT@@V?$allocator@UEntry@LT@@@std@@@std@@@std@@QEAAAEAUEntry@LT@@XZ DD imagerel $LN3
	DD	imagerel $LN3+80
	DD	imagerel $unwind$?top@?$stack@UEntry@LT@@V?$deque@UEntry@LT@@V?$allocator@UEntry@LT@@@std@@@std@@@std@@QEAAAEAUEntry@LT@@XZ
pdata	ENDS
;	COMDAT pdata
pdata	SEGMENT
$pdata$?push@?$stack@UEntry@LT@@V?$deque@UEntry@LT@@V?$allocator@UEntry@LT@@@std@@@std@@@std@@QEAAXAEBUEntry@LT@@@Z DD imagerel $LN3
	DD	imagerel $LN3+91
	DD	imagerel $unwind$?push@?$stack@UEntry@LT@@V?$deque@UEntry@LT@@V?$allocator@UEntry@LT@@@std@@@std@@@std@@QEAAXAEBUEntry@LT@@@Z
pdata	ENDS
;	COMDAT pdata
pdata	SEGMENT
$pdata$?pop@?$stack@UEntry@LT@@V?$deque@UEntry@LT@@V?$allocator@UEntry@LT@@@std@@@std@@@std@@QEAAXXZ DD imagerel $LN3
	DD	imagerel $LN3+80
	DD	imagerel $unwind$?pop@?$stack@UEntry@LT@@V?$deque@UEntry@LT@@V?$allocator@UEntry@LT@@@std@@@std@@@std@@QEAAXXZ
pdata	ENDS
;	COMDAT pdata
pdata	SEGMENT
$pdata$??1?$stack@UEntry@LT@@V?$deque@UEntry@LT@@V?$allocator@UEntry@LT@@@std@@@std@@@std@@QEAA@XZ DD imagerel $LN3
	DD	imagerel $LN3+67
	DD	imagerel $unwind$??1?$stack@UEntry@LT@@V?$deque@UEntry@LT@@V?$allocator@UEntry@LT@@@std@@@std@@@std@@QEAA@XZ
pdata	ENDS
;	COMDAT pdata
pdata	SEGMENT
$pdata$?__autoclassinit2@?$stack@UEntry@LT@@V?$deque@UEntry@LT@@V?$allocator@UEntry@LT@@@std@@@std@@@std@@QEAAX_K@Z DD imagerel $LN3
	DD	imagerel $LN3+73
	DD	imagerel $unwind$?__autoclassinit2@?$stack@UEntry@LT@@V?$deque@UEntry@LT@@V?$allocator@UEntry@LT@@@std@@@std@@@std@@QEAAX_K@Z
pdata	ENDS
;	COMDAT pdata
pdata	SEGMENT
$pdata$??0?$allocator@U?$_List_node@UEntry@LT@@PEAX@std@@@std@@QEAA@XZ DD imagerel $LN3
	DD	imagerel $LN3+71
	DD	imagerel $unwind$??0?$allocator@U?$_List_node@UEntry@LT@@PEAX@std@@@std@@QEAA@XZ
pdata	ENDS
;	COMDAT pdata
pdata	SEGMENT
$pdata$?deallocate@?$allocator@U?$_List_node@UEntry@LT@@PEAX@std@@@std@@QEAAXQEAU?$_List_node@UEntry@LT@@PEAX@2@_K@Z DD imagerel $LN3
	DD	imagerel $LN3+97
	DD	imagerel $unwind$?deallocate@?$allocator@U?$_List_node@UEntry@LT@@PEAX@std@@@std@@QEAAXQEAU?$_List_node@UEntry@LT@@PEAX@2@_K@Z
pdata	ENDS
;	COMDAT pdata
pdata	SEGMENT
$pdata$?allocate@?$allocator@U?$_List_node@UEntry@LT@@PEAX@std@@@std@@QEAAPEAU?$_List_node@UEntry@LT@@PEAX@2@_K@Z DD imagerel $LN3
	DD	imagerel $LN3+89
	DD	imagerel $unwind$?allocate@?$allocator@U?$_List_node@UEntry@LT@@PEAX@std@@@std@@QEAAPEAU?$_List_node@UEntry@LT@@PEAX@2@_K@Z
pdata	ENDS
;	COMDAT pdata
pdata	SEGMENT
$pdata$?deallocate@?$_Default_allocator_traits@V?$allocator@U?$_List_node@UEntry@LT@@PEAX@std@@@std@@@std@@SAXAEAV?$allocator@U?$_List_node@UEntry@LT@@PEAX@std@@@2@QEAU?$_List_node@UEntry@LT@@PEAX@2@_K@Z DD imagerel $LN3
	DD	imagerel $LN3+97
	DD	imagerel $unwind$?deallocate@?$_Default_allocator_traits@V?$allocator@U?$_List_node@UEntry@LT@@PEAX@std@@@std@@@std@@SAXAEAV?$allocator@U?$_List_node@UEntry@LT@@PEAX@std@@@2@QEAU?$_List_node@UEntry@LT@@PEAX@2@_K@Z
pdata	ENDS
;	COMDAT pdata
pdata	SEGMENT
$pdata$?max_size@?$_Default_allocator_traits@V?$allocator@U?$_List_node@UEntry@LT@@PEAX@std@@@std@@@std@@SA_KAEBV?$allocator@U?$_List_node@UEntry@LT@@PEAX@std@@@2@@Z DD imagerel $LN3
	DD	imagerel $LN3+74
	DD	imagerel $unwind$?max_size@?$_Default_allocator_traits@V?$allocator@U?$_List_node@UEntry@LT@@PEAX@std@@@std@@@std@@SA_KAEBV?$allocator@U?$_List_node@UEntry@LT@@PEAX@std@@@2@@Z
pdata	ENDS
;	COMDAT pdata
pdata	SEGMENT
$pdata$??0?$list@UEntry@LT@@V?$allocator@UEntry@LT@@@std@@@std@@QEAA@XZ DD imagerel $LN3
	DD	imagerel $LN3+105
	DD	imagerel $unwind$??0?$list@UEntry@LT@@V?$allocator@UEntry@LT@@@std@@@std@@QEAA@XZ
pdata	ENDS
;	COMDAT pdata
pdata	SEGMENT
$pdata$??1?$list@UEntry@LT@@V?$allocator@UEntry@LT@@@std@@@std@@QEAA@XZ DD imagerel $LN3
	DD	imagerel $LN3+176
	DD	imagerel $unwind$??1?$list@UEntry@LT@@V?$allocator@UEntry@LT@@@std@@@std@@QEAA@XZ
pdata	ENDS
;	COMDAT pdata
pdata	SEGMENT
$pdata$?max_size@?$list@UEntry@LT@@V?$allocator@UEntry@LT@@@std@@@std@@QEBA_KXZ DD imagerel $LN3
	DD	imagerel $LN3+125
	DD	imagerel $unwind$?max_size@?$list@UEntry@LT@@V?$allocator@UEntry@LT@@@std@@@std@@QEBA_KXZ
pdata	ENDS
;	COMDAT pdata
pdata	SEGMENT
$pdata$?empty@?$list@UEntry@LT@@V?$allocator@UEntry@LT@@@std@@@std@@QEBA_NXZ DD imagerel $LN5
	DD	imagerel $LN5+107
	DD	imagerel $unwind$?empty@?$list@UEntry@LT@@V?$allocator@UEntry@LT@@@std@@@std@@QEBA_NXZ
pdata	ENDS
;	COMDAT pdata
pdata	SEGMENT
$pdata$?front@?$list@UEntry@LT@@V?$allocator@UEntry@LT@@@std@@@std@@QEAAAEAUEntry@LT@@XZ DD imagerel $LN12
	DD	imagerel $LN12+215
	DD	imagerel $unwind$?front@?$list@UEntry@LT@@V?$allocator@UEntry@LT@@@std@@@std@@QEAAAEAUEntry@LT@@XZ
pdata	ENDS
;	COMDAT pdata
pdata	SEGMENT
$pdata$?pop_front@?$list@UEntry@LT@@V?$allocator@UEntry@LT@@@std@@@std@@QEAAXXZ DD imagerel $LN12
	DD	imagerel $LN12+224
	DD	imagerel $unwind$?pop_front@?$list@UEntry@LT@@V?$allocator@UEntry@LT@@@std@@@std@@QEAAXXZ
pdata	ENDS
;	COMDAT pdata
pdata	SEGMENT
$pdata$?push_back@?$list@UEntry@LT@@V?$allocator@UEntry@LT@@@std@@@std@@QEAAXAEBUEntry@LT@@@Z DD imagerel $LN3
	DD	imagerel $LN3+99
	DD	imagerel $unwind$?push_back@?$list@UEntry@LT@@V?$allocator@UEntry@LT@@@std@@@std@@QEAAXAEBUEntry@LT@@@Z
pdata	ENDS
;	COMDAT pdata
pdata	SEGMENT
$pdata$?_Unchecked_erase@?$list@UEntry@LT@@V?$allocator@UEntry@LT@@@std@@@std@@AEAAPEAU?$_List_node@UEntry@LT@@PEAX@2@QEAU32@@Z DD imagerel $LN3
	DD	imagerel $LN3+198
	DD	imagerel $unwind$?_Unchecked_erase@?$list@UEntry@LT@@V?$allocator@UEntry@LT@@@std@@@std@@AEAAPEAU?$_List_node@UEntry@LT@@PEAX@2@QEAU32@@Z
pdata	ENDS
;	COMDAT pdata
pdata	SEGMENT
$pdata$?_Tidy@?$list@UEntry@LT@@V?$allocator@UEntry@LT@@@std@@@std@@AEAAXXZ DD imagerel $LN3
	DD	imagerel $LN3+135
	DD	imagerel $unwind$?_Tidy@?$list@UEntry@LT@@V?$allocator@UEntry@LT@@@std@@@std@@AEAAXXZ
pdata	ENDS
;	COMDAT pdata
pdata	SEGMENT
$pdata$?_Alloc_sentinel_and_proxy@?$list@UEntry@LT@@V?$allocator@UEntry@LT@@@std@@@std@@AEAAXXZ DD imagerel $LN4
	DD	imagerel $LN4+290
	DD	imagerel $unwind$?_Alloc_sentinel_and_proxy@?$list@UEntry@LT@@V?$allocator@UEntry@LT@@@std@@@std@@AEAAXXZ
pdata	ENDS
;	COMDAT pdata
pdata	SEGMENT
$pdata$?dtor$0@?0??_Alloc_sentinel_and_proxy@?$list@UEntry@LT@@V?$allocator@UEntry@LT@@@std@@@std@@AEAAXXZ@4HA DD imagerel ?dtor$0@?0??_Alloc_sentinel_and_proxy@?$list@UEntry@LT@@V?$allocator@UEntry@LT@@@std@@@std@@AEAAXXZ@4HA
	DD	imagerel ?dtor$0@?0??_Alloc_sentinel_and_proxy@?$list@UEntry@LT@@V?$allocator@UEntry@LT@@@std@@@std@@AEAAXXZ@4HA+36
	DD	imagerel $unwind$?dtor$0@?0??_Alloc_sentinel_and_proxy@?$list@UEntry@LT@@V?$allocator@UEntry@LT@@@std@@@std@@AEAAXXZ@4HA
pdata	ENDS
;	COMDAT pdata
pdata	SEGMENT
$pdata$?_Getal@?$list@UEntry@LT@@V?$allocator@UEntry@LT@@@std@@@std@@AEAAAEAV?$allocator@U?$_List_node@UEntry@LT@@PEAX@std@@@2@XZ DD imagerel $LN3
	DD	imagerel $LN3+80
	DD	imagerel $unwind$?_Getal@?$list@UEntry@LT@@V?$allocator@UEntry@LT@@@std@@@std@@AEAAAEAV?$allocator@U?$_List_node@UEntry@LT@@PEAX@std@@@2@XZ
pdata	ENDS
;	COMDAT pdata
pdata	SEGMENT
$pdata$?_Getal@?$list@UEntry@LT@@V?$allocator@UEntry@LT@@@std@@@std@@AEBAAEBV?$allocator@U?$_List_node@UEntry@LT@@PEAX@std@@@2@XZ DD imagerel $LN3
	DD	imagerel $LN3+80
	DD	imagerel $unwind$?_Getal@?$list@UEntry@LT@@V?$allocator@UEntry@LT@@@std@@@std@@AEBAAEBV?$allocator@U?$_List_node@UEntry@LT@@PEAX@std@@@2@XZ
pdata	ENDS
;	COMDAT pdata
pdata	SEGMENT
$pdata$??0?$_List_val@U?$_List_simple_types@UEntry@LT@@@std@@@std@@QEAA@XZ DD imagerel $LN3
	DD	imagerel $LN3+113
	DD	imagerel $unwind$??0?$_List_val@U?$_List_simple_types@UEntry@LT@@@std@@@std@@QEAA@XZ
pdata	ENDS
;	COMDAT pdata
pdata	SEGMENT
$pdata$?_Orphan_ptr2@?$_List_val@U?$_List_simple_types@UEntry@LT@@@std@@@std@@QEAAXPEAU?$_List_node@UEntry@LT@@PEAX@2@@Z DD imagerel $LN8
	DD	imagerel $LN8+288
	DD	imagerel $unwind$?_Orphan_ptr2@?$_List_val@U?$_List_simple_types@UEntry@LT@@@std@@@std@@QEAAXPEAU?$_List_node@UEntry@LT@@PEAX@2@@Z
pdata	ENDS
;	COMDAT pdata
pdata	SEGMENT
$pdata$?_Get_first@?$_Compressed_pair@V?$allocator@U?$_List_node@UEntry@LT@@PEAX@std@@@std@@V?$_List_val@U?$_List_simple_types@UEntry@LT@@@std@@@2@$00@std@@QEAAAEAV?$allocator@U?$_List_node@UEntry@LT@@PEAX@std@@@2@XZ DD imagerel $LN3
	DD	imagerel $LN3+71
	DD	imagerel $unwind$?_Get_first@?$_Compressed_pair@V?$allocator@U?$_List_node@UEntry@LT@@PEAX@std@@@std@@V?$_List_val@U?$_List_simple_types@UEntry@LT@@@std@@@2@$00@std@@QEAAAEAV?$allocator@U?$_List_node@UEntry@LT@@PEAX@std@@@2@XZ
pdata	ENDS
;	COMDAT pdata
pdata	SEGMENT
$pdata$?_Get_first@?$_Compressed_pair@V?$allocator@U?$_List_node@UEntry@LT@@PEAX@std@@@std@@V?$_List_val@U?$_List_simple_types@UEntry@LT@@@std@@@2@$00@std@@QEBAAEBV?$allocator@U?$_List_node@UEntry@LT@@PEAX@std@@@2@XZ DD imagerel $LN3
	DD	imagerel $LN3+71
	DD	imagerel $unwind$?_Get_first@?$_Compressed_pair@V?$allocator@U?$_List_node@UEntry@LT@@PEAX@std@@@std@@V?$_List_val@U?$_List_simple_types@UEntry@LT@@@std@@@2@$00@std@@QEBAAEBV?$allocator@U?$_List_node@UEntry@LT@@PEAX@std@@@2@XZ
pdata	ENDS
;	COMDAT pdata
pdata	SEGMENT
$pdata$?__autoclassinit2@?$list@UEntry@LT@@V?$allocator@UEntry@LT@@@std@@@std@@QEAAX_K@Z DD imagerel $LN3
	DD	imagerel $LN3+73
	DD	imagerel $unwind$?__autoclassinit2@?$list@UEntry@LT@@V?$allocator@UEntry@LT@@@std@@@std@@QEAAX_K@Z
pdata	ENDS
;	COMDAT pdata
pdata	SEGMENT
$pdata$??$_Emplace@AEBUEntry@LT@@@?$list@UEntry@LT@@V?$allocator@UEntry@LT@@@std@@@std@@QEAAPEAU?$_List_node@UEntry@LT@@PEAX@1@QEAU21@AEBUEntry@LT@@@Z DD imagerel $LN5
	DD	imagerel $LN5+293
	DD	imagerel $unwind$??$_Emplace@AEBUEntry@LT@@@?$list@UEntry@LT@@V?$allocator@UEntry@LT@@@std@@@std@@QEAAPEAU?$_List_node@UEntry@LT@@PEAX@1@QEAU21@AEBUEntry@LT@@@Z
pdata	ENDS
;	COMDAT pdata
pdata	SEGMENT
$pdata$?allocate@?$allocator@U_Container_proxy@std@@@std@@QEAAPEAU_Container_proxy@2@_K@Z DD imagerel $LN3
	DD	imagerel $LN3+89
	DD	imagerel $unwind$?allocate@?$allocator@U_Container_proxy@std@@@std@@QEAAPEAU_Container_proxy@2@_K@Z
pdata	ENDS
;	COMDAT pdata
pdata	SEGMENT
$pdata$??$?0U?$_List_node@UEntry@LT@@PEAX@std@@@?$allocator@U_Container_proxy@std@@@std@@QEAA@AEBV?$allocator@U?$_List_node@UEntry@LT@@PEAX@std@@@1@@Z DD imagerel $LN3
	DD	imagerel $LN3+76
	DD	imagerel $unwind$??$?0U?$_List_node@UEntry@LT@@PEAX@std@@@?$allocator@U_Container_proxy@std@@@std@@QEAA@AEBV?$allocator@U?$_List_node@UEntry@LT@@PEAX@std@@@1@@Z
pdata	ENDS
;	COMDAT pdata
pdata	SEGMENT
$pdata$??$_Delete_plain_internal@V?$allocator@U_Container_proxy@std@@@std@@@std@@YAXAEAV?$allocator@U_Container_proxy@std@@@0@QEAU_Container_proxy@0@@Z DD imagerel $LN3
	DD	imagerel $LN3+89
	DD	imagerel $unwind$??$_Delete_plain_internal@V?$allocator@U_Container_proxy@std@@@std@@@std@@YAXAEAV?$allocator@U_Container_proxy@std@@@0@QEAU_Container_proxy@0@@Z
pdata	ENDS
;	COMDAT pdata
pdata	SEGMENT
$pdata$??$?0$$V@?$_Compressed_pair@V?$allocator@U?$_List_node@UEntry@LT@@PEAX@std@@@std@@V?$_List_val@U?$_List_simple_types@UEntry@LT@@@std@@@2@$00@std@@QEAA@U_Zero_then_variadic_args_t@1@@Z DD imagerel $LN3
	DD	imagerel $LN3+102
	DD	imagerel $unwind$??$?0$$V@?$_Compressed_pair@V?$allocator@U?$_List_node@UEntry@LT@@PEAX@std@@@std@@V?$_List_val@U?$_List_simple_types@UEntry@LT@@@std@@@2@$00@std@@QEAA@U_Zero_then_variadic_args_t@1@@Z
pdata	ENDS
;	COMDAT pdata
pdata	SEGMENT
$pdata$??$?0UEntry@LT@@@?$allocator@U_Container_proxy@std@@@std@@QEAA@AEBV?$allocator@UEntry@LT@@@1@@Z DD imagerel $LN3
	DD	imagerel $LN3+76
	DD	imagerel $unwind$??$?0UEntry@LT@@@?$allocator@U_Container_proxy@std@@@std@@QEAA@AEBV?$allocator@UEntry@LT@@@1@@Z
pdata	ENDS
;	COMDAT pdata
pdata	SEGMENT
$pdata$??$exchange@PEAU_Container_proxy@std@@$$T@std@@YAPEAU_Container_proxy@0@AEAPEAU10@$$QEA$$T@Z DD imagerel $LN3
	DD	imagerel $LN3+107
	DD	imagerel $unwind$??$exchange@PEAU_Container_proxy@std@@$$T@std@@YAPEAU_Container_proxy@0@AEAPEAU10@$$QEA$$T@Z
pdata	ENDS
;	COMDAT pdata
pdata	SEGMENT
$pdata$??$?0$$V@?$_Compressed_pair@V?$allocator@UEntry@LT@@@std@@V?$_Deque_val@U?$_Deque_simple_types@UEntry@LT@@@std@@@2@$00@std@@QEAA@U_Zero_then_variadic_args_t@1@@Z DD imagerel $LN3
	DD	imagerel $LN3+102
	DD	imagerel $unwind$??$?0$$V@?$_Compressed_pair@V?$allocator@UEntry@LT@@@std@@V?$_Deque_val@U?$_Deque_simple_types@UEntry@LT@@@std@@@2@$00@std@@QEAA@U_Zero_then_variadic_args_t@1@@Z
pdata	ENDS
;	COMDAT pdata
pdata	SEGMENT
$pdata$??$_Alloc_proxy@V?$allocator@U_Container_proxy@std@@@std@@@_Container_base12@std@@QEAAX$$QEAV?$allocator@U_Container_proxy@std@@@1@@Z DD imagerel $LN3
	DD	imagerel $LN3+156
	DD	imagerel $unwind$??$_Alloc_proxy@V?$allocator@U_Container_proxy@std@@@std@@@_Container_base12@std@@QEAAX$$QEAV?$allocator@U_Container_proxy@std@@@1@@Z
pdata	ENDS
;	COMDAT pdata
pdata	SEGMENT
$pdata$??$min@_K@std@@YAAEB_KAEB_K0@Z DD imagerel $LN5
	DD	imagerel $LN5+142
	DD	imagerel $unwind$??$min@_K@std@@YAAEB_KAEB_K0@Z
pdata	ENDS
;	COMDAT pdata
pdata	SEGMENT
$pdata$??0?$_Container_proxy_ptr12@V?$allocator@U_Container_proxy@std@@@std@@@std@@QEAA@AEAV?$allocator@U_Container_proxy@std@@@1@AEAU_Container_base12@1@@Z DD imagerel $LN3
	DD	imagerel $LN3+195
	DD	imagerel $unwind$??0?$_Container_proxy_ptr12@V?$allocator@U_Container_proxy@std@@@std@@@std@@QEAA@AEAV?$allocator@U_Container_proxy@std@@@1@AEAU_Container_base12@1@@Z
pdata	ENDS
;	COMDAT pdata
pdata	SEGMENT
$pdata$??1?$_Container_proxy_ptr12@V?$allocator@U_Container_proxy@std@@@std@@@std@@QEAA@XZ DD imagerel $LN4
	DD	imagerel $LN4+104
	DD	imagerel $unwind$??1?$_Container_proxy_ptr12@V?$allocator@U_Container_proxy@std@@@std@@@std@@QEAA@XZ
pdata	ENDS
;	COMDAT pdata
pdata	SEGMENT
$pdata$??$_Unfancy@U_Container_proxy@std@@@std@@YAPEAU_Container_proxy@0@PEAU10@@Z DD imagerel $LN3
	DD	imagerel $LN3+71
	DD	imagerel $unwind$??$_Unfancy@U_Container_proxy@std@@@std@@YAPEAU_Container_proxy@0@PEAU10@@Z
pdata	ENDS
;	COMDAT pdata
pdata	SEGMENT
$pdata$??$_Construct_in_place@PEAU?$_List_node@UEntry@LT@@PEAX@std@@AEAPEAU12@@std@@YAXAEAPEAU?$_List_node@UEntry@LT@@PEAX@0@0@Z DD imagerel $LN3
	DD	imagerel $LN3+126
	DD	imagerel $unwind$??$_Construct_in_place@PEAU?$_List_node@UEntry@LT@@PEAX@std@@AEAPEAU12@@std@@YAXAEAPEAU?$_List_node@UEntry@LT@@PEAX@0@0@Z
pdata	ENDS
;	COMDAT pdata
pdata	SEGMENT
$pdata$??$_Free_non_head@V?$allocator@U?$_List_node@UEntry@LT@@PEAX@std@@@std@@@?$_List_node@UEntry@LT@@PEAX@std@@SAXAEAV?$allocator@U?$_List_node@UEntry@LT@@PEAX@std@@@1@PEAU01@@Z DD imagerel $LN6
	DD	imagerel $LN6+147
	DD	imagerel $unwind$??$_Free_non_head@V?$allocator@U?$_List_node@UEntry@LT@@PEAX@std@@@std@@@?$_List_node@UEntry@LT@@PEAX@std@@SAXAEAV?$allocator@U?$_List_node@UEntry@LT@@PEAX@std@@@1@PEAU01@@Z
pdata	ENDS
;	COMDAT pdata
pdata	SEGMENT
$pdata$??$_Freenode0@V?$allocator@U?$_List_node@UEntry@LT@@PEAX@std@@@std@@@?$_List_node@UEntry@LT@@PEAX@std@@SAXAEAV?$allocator@U?$_List_node@UEntry@LT@@PEAX@std@@@1@PEAU01@@Z DD imagerel $LN3
	DD	imagerel $LN3+129
	DD	imagerel $unwind$??$_Freenode0@V?$allocator@U?$_List_node@UEntry@LT@@PEAX@std@@@std@@@?$_List_node@UEntry@LT@@PEAX@std@@SAXAEAV?$allocator@U?$_List_node@UEntry@LT@@PEAX@std@@@1@PEAU01@@Z
pdata	ENDS
;	COMDAT pdata
pdata	SEGMENT
$pdata$??$_Freenode@V?$allocator@U?$_List_node@UEntry@LT@@PEAX@std@@@std@@@?$_List_node@UEntry@LT@@PEAX@std@@SAXAEAV?$allocator@U?$_List_node@UEntry@LT@@PEAX@std@@@1@PEAU01@@Z DD imagerel $LN3
	DD	imagerel $LN3+123
	DD	imagerel $unwind$??$_Freenode@V?$allocator@U?$_List_node@UEntry@LT@@PEAX@std@@@std@@@?$_List_node@UEntry@LT@@PEAX@std@@SAXAEAV?$allocator@U?$_List_node@UEntry@LT@@PEAX@std@@@1@PEAU01@@Z
pdata	ENDS
;	COMDAT pdata
pdata	SEGMENT
$pdata$??$?0UEntry@LT@@@?$allocator@PEAUEntry@LT@@@std@@QEAA@AEBV?$allocator@UEntry@LT@@@1@@Z DD imagerel $LN3
	DD	imagerel $LN3+76
	DD	imagerel $unwind$??$?0UEntry@LT@@@?$allocator@PEAUEntry@LT@@@std@@QEAA@AEBV?$allocator@UEntry@LT@@@1@@Z
pdata	ENDS
;	COMDAT pdata
pdata	SEGMENT
$pdata$??$_Destroy_in_place@PEAUEntry@LT@@@std@@YAXAEAPEAUEntry@LT@@@Z DD imagerel $LN3
	DD	imagerel $LN3+65
	DD	imagerel $unwind$??$_Destroy_in_place@PEAUEntry@LT@@@std@@YAXAEAPEAUEntry@LT@@@Z
pdata	ENDS
;	COMDAT pdata
pdata	SEGMENT
$pdata$??$_Unfancy@UEntry@LT@@@std@@YAPEAUEntry@LT@@PEAU12@@Z DD imagerel $LN3
	DD	imagerel $LN3+71
	DD	imagerel $unwind$??$_Unfancy@UEntry@LT@@@std@@YAPEAUEntry@LT@@PEAU12@@Z
pdata	ENDS
;	COMDAT pdata
pdata	SEGMENT
$pdata$??$destroy@UEntry@LT@@@?$_Default_allocator_traits@V?$allocator@UEntry@LT@@@std@@@std@@SAXAEAV?$allocator@UEntry@LT@@@1@QEAUEntry@LT@@@Z DD imagerel $LN3
	DD	imagerel $LN3+69
	DD	imagerel $unwind$??$destroy@UEntry@LT@@@?$_Default_allocator_traits@V?$allocator@UEntry@LT@@@std@@@std@@SAXAEAV?$allocator@UEntry@LT@@@1@QEAUEntry@LT@@@Z
pdata	ENDS
;	COMDAT pdata
pdata	SEGMENT
$pdata$??$_Emplace_back_internal@AEBUEntry@LT@@@?$deque@UEntry@LT@@V?$allocator@UEntry@LT@@@std@@@std@@AEAAXAEBUEntry@LT@@@Z DD imagerel $LN5
	DD	imagerel $LN5+559
	DD	imagerel $unwind$??$_Emplace_back_internal@AEBUEntry@LT@@@?$deque@UEntry@LT@@V?$allocator@UEntry@LT@@@std@@@std@@AEAAXAEBUEntry@LT@@@Z
pdata	ENDS
;	COMDAT pdata
pdata	SEGMENT
$pdata$??0?$_Deque_unchecked_const_iterator@V?$_Deque_val@U?$_Deque_simple_types@UEntry@LT@@@std@@@std@@@std@@QEAA@_KPEBU_Container_base12@1@@Z DD imagerel $LN3
	DD	imagerel $LN3+116
	DD	imagerel $unwind$??0?$_Deque_unchecked_const_iterator@V?$_Deque_val@U?$_Deque_simple_types@UEntry@LT@@@std@@@std@@@std@@QEAA@_KPEBU_Container_base12@1@@Z
pdata	ENDS
;	COMDAT pdata
pdata	SEGMENT
$pdata$??D?$_Deque_unchecked_const_iterator@V?$_Deque_val@U?$_Deque_simple_types@UEntry@LT@@@std@@@std@@@std@@QEBAAEBUEntry@LT@@XZ DD imagerel $LN3
	DD	imagerel $LN3+130
	DD	imagerel $unwind$??D?$_Deque_unchecked_const_iterator@V?$_Deque_val@U?$_Deque_simple_types@UEntry@LT@@@std@@@std@@@std@@QEBAAEBUEntry@LT@@XZ
pdata	ENDS
;	COMDAT pdata
pdata	SEGMENT
$pdata$??Z?$_Deque_unchecked_const_iterator@V?$_Deque_val@U?$_Deque_simple_types@UEntry@LT@@@std@@@std@@@std@@QEAAAEAV01@_J@Z DD imagerel $LN3
	DD	imagerel $LN3+108
	DD	imagerel $unwind$??Z?$_Deque_unchecked_const_iterator@V?$_Deque_val@U?$_Deque_simple_types@UEntry@LT@@@std@@@std@@@std@@QEAAAEAV01@_J@Z
pdata	ENDS
;	COMDAT pdata
pdata	SEGMENT
$pdata$??D?$_Deque_unchecked_iterator@V?$_Deque_val@U?$_Deque_simple_types@UEntry@LT@@@std@@@std@@@std@@QEBAAEAUEntry@LT@@XZ DD imagerel $LN3
	DD	imagerel $LN3+76
	DD	imagerel $unwind$??D?$_Deque_unchecked_iterator@V?$_Deque_val@U?$_Deque_simple_types@UEntry@LT@@@std@@@std@@@std@@QEBAAEAUEntry@LT@@XZ
pdata	ENDS
;	COMDAT pdata
pdata	SEGMENT
$pdata$??Z?$_Deque_unchecked_iterator@V?$_Deque_val@U?$_Deque_simple_types@UEntry@LT@@@std@@@std@@@std@@QEAAAEAV01@_J@Z DD imagerel $LN3
	DD	imagerel $LN3+95
	DD	imagerel $unwind$??Z?$_Deque_unchecked_iterator@V?$_Deque_val@U?$_Deque_simple_types@UEntry@LT@@@std@@@std@@@std@@QEAAAEAV01@_J@Z
pdata	ENDS
;	COMDAT pdata
pdata	SEGMENT
$pdata$??G?$_Deque_unchecked_iterator@V?$_Deque_val@U?$_Deque_simple_types@UEntry@LT@@@std@@@std@@@std@@QEBA?AV01@_J@Z DD imagerel $LN3
	DD	imagerel $LN3+205
	DD	imagerel $unwind$??G?$_Deque_unchecked_iterator@V?$_Deque_val@U?$_Deque_simple_types@UEntry@LT@@@std@@@std@@@std@@QEBA?AV01@_J@Z
pdata	ENDS
;	COMDAT pdata
pdata	SEGMENT
$pdata$?__autoclassinit2@?$_Deque_unchecked_iterator@V?$_Deque_val@U?$_Deque_simple_types@UEntry@LT@@@std@@@std@@@std@@QEAAX_K@Z DD imagerel $LN3
	DD	imagerel $LN3+73
	DD	imagerel $unwind$?__autoclassinit2@?$_Deque_unchecked_iterator@V?$_Deque_val@U?$_Deque_simple_types@UEntry@LT@@@std@@@std@@@std@@QEAAX_K@Z
pdata	ENDS
;	COMDAT pdata
pdata	SEGMENT
$pdata$??0?$_Deque_unchecked_iterator@V?$_Deque_val@U?$_Deque_simple_types@UEntry@LT@@@std@@@std@@@std@@QEAA@_KPEBU_Container_base12@1@@Z DD imagerel $LN3
	DD	imagerel $LN3+95
	DD	imagerel $unwind$??0?$_Deque_unchecked_iterator@V?$_Deque_val@U?$_Deque_simple_types@UEntry@LT@@@std@@@std@@@std@@QEAA@_KPEBU_Container_base12@1@@Z
pdata	ENDS
;	COMDAT pdata
pdata	SEGMENT
$pdata$??$_Get_size_of_n@$0BA@@std@@YA_K_K@Z DD imagerel $LN4
	DD	imagerel $LN4+114
	DD	imagerel $unwind$??$_Get_size_of_n@$0BA@@std@@YA_K_K@Z
pdata	ENDS
;	COMDAT pdata
pdata	SEGMENT
$pdata$??$_Allocate@$0BA@U_Default_allocate_traits@std@@$0A@@std@@YAPEAX_K@Z DD imagerel $LN5
	DD	imagerel $LN5+117
	DD	imagerel $unwind$??$_Allocate@$0BA@U_Default_allocate_traits@std@@$0A@@std@@YAPEAX_K@Z
pdata	ENDS
;	COMDAT pdata
pdata	SEGMENT
$pdata$??$_Get_size_of_n@$0CA@@std@@YA_K_K@Z DD imagerel $LN4
	DD	imagerel $LN4+114
	DD	imagerel $unwind$??$_Get_size_of_n@$0CA@@std@@YA_K_K@Z
pdata	ENDS
;	COMDAT pdata
pdata	SEGMENT
$pdata$??$addressof@V?$_Deque_val@U?$_Deque_simple_types@UEntry@LT@@@std@@@std@@@std@@YAPEAV?$_Deque_val@U?$_Deque_simple_types@UEntry@LT@@@std@@@0@AEAV10@@Z DD imagerel $LN3
	DD	imagerel $LN3+71
	DD	imagerel $unwind$??$addressof@V?$_Deque_val@U?$_Deque_simple_types@UEntry@LT@@@std@@@std@@@std@@YAPEAV?$_Deque_val@U?$_Deque_simple_types@UEntry@LT@@@std@@@0@AEAV10@@Z
pdata	ENDS
;	COMDAT pdata
pdata	SEGMENT
$pdata$??$_Deallocate@$0BA@$0A@@std@@YAXPEAX_K@Z DD imagerel $LN4
	DD	imagerel $LN4+121
	DD	imagerel $unwind$??$_Deallocate@$0BA@$0A@@std@@YAXPEAX_K@Z
pdata	ENDS
;	COMDAT pdata
pdata	SEGMENT
$pdata$??$addressof@U_Container_proxy@std@@@std@@YAPEAU_Container_proxy@0@AEAU10@@Z DD imagerel $LN3
	DD	imagerel $LN3+71
	DD	imagerel $unwind$??$addressof@U_Container_proxy@std@@@std@@YAPEAU_Container_proxy@0@AEAU10@@Z
pdata	ENDS
;	COMDAT pdata
pdata	SEGMENT
$pdata$??$forward@PEAU_Container_base12@std@@@std@@YA$$QEAPEAU_Container_base12@0@AEAPEAU10@@Z DD imagerel $LN3
	DD	imagerel $LN3+71
	DD	imagerel $unwind$??$forward@PEAU_Container_base12@std@@@std@@YA$$QEAPEAU_Container_base12@0@AEAPEAU10@@Z
pdata	ENDS
;	COMDAT pdata
pdata	SEGMENT
$pdata$??0?$_Alloc_construct_ptr@V?$allocator@U?$_List_node@UEntry@LT@@PEAX@std@@@std@@@std@@QEAA@AEAV?$allocator@U?$_List_node@UEntry@LT@@PEAX@std@@@1@@Z DD imagerel $LN3
	DD	imagerel $LN3+108
	DD	imagerel $unwind$??0?$_Alloc_construct_ptr@V?$allocator@U?$_List_node@UEntry@LT@@PEAX@std@@@std@@@std@@QEAA@AEAV?$allocator@U?$_List_node@UEntry@LT@@PEAX@std@@@1@@Z
pdata	ENDS
;	COMDAT pdata
pdata	SEGMENT
$pdata$?_Allocate@?$_Alloc_construct_ptr@V?$allocator@U?$_List_node@UEntry@LT@@PEAX@std@@@std@@@std@@QEAAXXZ DD imagerel $LN3
	DD	imagerel $LN3+110
	DD	imagerel $unwind$?_Allocate@?$_Alloc_construct_ptr@V?$allocator@U?$_List_node@UEntry@LT@@PEAX@std@@@std@@@std@@QEAAXXZ
pdata	ENDS
;	COMDAT pdata
pdata	SEGMENT
$pdata$??1?$_Alloc_construct_ptr@V?$allocator@U?$_List_node@UEntry@LT@@PEAX@std@@@std@@@std@@QEAA@XZ DD imagerel $LN4
	DD	imagerel $LN4+111
	DD	imagerel $unwind$??1?$_Alloc_construct_ptr@V?$allocator@U?$_List_node@UEntry@LT@@PEAX@std@@@std@@@std@@QEAA@XZ
pdata	ENDS
;	COMDAT pdata
pdata	SEGMENT
$pdata$??1?$_List_node_emplace_op2@V?$allocator@U?$_List_node@UEntry@LT@@PEAX@std@@@std@@@std@@QEAA@XZ DD imagerel $LN4
	DD	imagerel $LN4+132
	DD	imagerel $unwind$??1?$_List_node_emplace_op2@V?$allocator@U?$_List_node@UEntry@LT@@PEAX@std@@@std@@@std@@QEAA@XZ
pdata	ENDS
;	COMDAT pdata
pdata	SEGMENT
$pdata$?_Transfer_before@?$_List_node_emplace_op2@V?$allocator@U?$_List_node@UEntry@LT@@PEAX@std@@@std@@@std@@QEAAPEAU?$_List_node@UEntry@LT@@PEAX@2@QEAU32@@Z DD imagerel $LN3
	DD	imagerel $LN3+251
	DD	imagerel $unwind$?_Transfer_before@?$_List_node_emplace_op2@V?$allocator@U?$_List_node@UEntry@LT@@PEAX@std@@@std@@@std@@QEAAPEAU?$_List_node@UEntry@LT@@PEAX@2@QEAU32@@Z
pdata	ENDS
;	COMDAT pdata
pdata	SEGMENT
$pdata$??$forward@AEBUEntry@LT@@@std@@YAAEBUEntry@LT@@AEBU12@@Z DD imagerel $LN3
	DD	imagerel $LN3+71
	DD	imagerel $unwind$??$forward@AEBUEntry@LT@@@std@@YAAEBUEntry@LT@@AEBU12@@Z
pdata	ENDS
;	COMDAT pdata
pdata	SEGMENT
$pdata$??$?0AEBUEntry@LT@@@?$_List_node_emplace_op2@V?$allocator@U?$_List_node@UEntry@LT@@PEAX@std@@@std@@@std@@QEAA@AEAV?$allocator@U?$_List_node@UEntry@LT@@PEAX@std@@@1@AEBUEntry@LT@@@Z DD imagerel $LN4
	DD	imagerel $LN4+181
	DD	imagerel $unwind$??$?0AEBUEntry@LT@@@?$_List_node_emplace_op2@V?$allocator@U?$_List_node@UEntry@LT@@PEAX@std@@@std@@@std@@QEAA@AEAV?$allocator@U?$_List_node@UEntry@LT@@PEAX@std@@@1@AEBUEntry@LT@@@Z
pdata	ENDS
;	COMDAT pdata
pdata	SEGMENT
$pdata$?dtor$0@?0???$?0AEBUEntry@LT@@@?$_List_node_emplace_op2@V?$allocator@U?$_List_node@UEntry@LT@@PEAX@std@@@std@@@std@@QEAA@AEAV?$allocator@U?$_List_node@UEntry@LT@@PEAX@std@@@1@AEBUEntry@LT@@@Z@4HA DD imagerel ?dtor$0@?0???$?0AEBUEntry@LT@@@?$_List_node_emplace_op2@V?$allocator@U?$_List_node@UEntry@LT@@PEAX@std@@@std@@@std@@QEAA@AEAV?$allocator@U?$_List_node@UEntry@LT@@PEAX@std@@@1@AEBUEntry@LT@@@Z@4HA
	DD	imagerel ?dtor$0@?0???$?0AEBUEntry@LT@@@?$_List_node_emplace_op2@V?$allocator@U?$_List_node@UEntry@LT@@PEAX@std@@@std@@@std@@QEAA@AEAV?$allocator@U?$_List_node@UEntry@LT@@PEAX@std@@@1@AEBUEntry@LT@@@Z@4HA+39
	DD	imagerel $unwind$?dtor$0@?0???$?0AEBUEntry@LT@@@?$_List_node_emplace_op2@V?$allocator@U?$_List_node@UEntry@LT@@PEAX@std@@@std@@@std@@QEAA@AEAV?$allocator@U?$_List_node@UEntry@LT@@PEAX@std@@@1@AEBUEntry@LT@@@Z@4HA
pdata	ENDS
;	COMDAT pdata
pdata	SEGMENT
$pdata$??$_Deallocate_plain@V?$allocator@U_Container_proxy@std@@@std@@@std@@YAXAEAV?$allocator@U_Container_proxy@std@@@0@QEAU_Container_proxy@0@@Z DD imagerel $LN3
	DD	imagerel $LN3+95
	DD	imagerel $unwind$??$_Deallocate_plain@V?$allocator@U_Container_proxy@std@@@std@@@std@@YAXAEAV?$allocator@U_Container_proxy@std@@@0@QEAU_Container_proxy@0@@Z
pdata	ENDS
;	COMDAT pdata
pdata	SEGMENT
$pdata$??$addressof@PEAU?$_List_node@UEntry@LT@@PEAX@std@@@std@@YAPEAPEAU?$_List_node@UEntry@LT@@PEAX@0@AEAPEAU10@@Z DD imagerel $LN3
	DD	imagerel $LN3+71
	DD	imagerel $unwind$??$addressof@PEAU?$_List_node@UEntry@LT@@PEAX@std@@@std@@YAPEAPEAU?$_List_node@UEntry@LT@@PEAX@0@AEAPEAU10@@Z
pdata	ENDS
;	COMDAT pdata
pdata	SEGMENT
$pdata$??$forward@AEAPEAU?$_List_node@UEntry@LT@@PEAX@std@@@std@@YAAEAPEAU?$_List_node@UEntry@LT@@PEAX@0@AEAPEAU10@@Z DD imagerel $LN3
	DD	imagerel $LN3+71
	DD	imagerel $unwind$??$forward@AEAPEAU?$_List_node@UEntry@LT@@PEAX@std@@@std@@YAAEAPEAU?$_List_node@UEntry@LT@@PEAX@0@AEAPEAU10@@Z
pdata	ENDS
;	COMDAT pdata
pdata	SEGMENT
$pdata$??$_Destroy_in_place@PEAU?$_List_node@UEntry@LT@@PEAX@std@@@std@@YAXAEAPEAU?$_List_node@UEntry@LT@@PEAX@0@@Z DD imagerel $LN3
	DD	imagerel $LN3+65
	DD	imagerel $unwind$??$_Destroy_in_place@PEAU?$_List_node@UEntry@LT@@PEAX@std@@@std@@YAXAEAPEAU?$_List_node@UEntry@LT@@PEAX@0@@Z
pdata	ENDS
;	COMDAT pdata
pdata	SEGMENT
$pdata$??$addressof@UEntry@LT@@@std@@YAPEAUEntry@LT@@AEAU12@@Z DD imagerel $LN3
	DD	imagerel $LN3+71
	DD	imagerel $unwind$??$addressof@UEntry@LT@@@std@@YAPEAUEntry@LT@@AEAU12@@Z
pdata	ENDS
;	COMDAT pdata
pdata	SEGMENT
$pdata$??$destroy@UEntry@LT@@@?$_Default_allocator_traits@V?$allocator@U?$_List_node@UEntry@LT@@PEAX@std@@@std@@@std@@SAXAEAV?$allocator@U?$_List_node@UEntry@LT@@PEAX@std@@@1@QEAUEntry@LT@@@Z DD imagerel $LN3
	DD	imagerel $LN3+69
	DD	imagerel $unwind$??$destroy@UEntry@LT@@@?$_Default_allocator_traits@V?$allocator@U?$_List_node@UEntry@LT@@PEAX@std@@@std@@@std@@SAXAEAV?$allocator@U?$_List_node@UEntry@LT@@PEAX@std@@@1@QEAUEntry@LT@@@Z
pdata	ENDS
;	COMDAT pdata
pdata	SEGMENT
$pdata$??$construct@UEntry@LT@@AEBU12@@?$_Default_allocator_traits@V?$allocator@UEntry@LT@@@std@@@std@@SAXAEAV?$allocator@UEntry@LT@@@1@QEAUEntry@LT@@AEBU34@@Z DD imagerel $LN3
	DD	imagerel $LN3+129
	DD	imagerel $unwind$??$construct@UEntry@LT@@AEBU12@@?$_Default_allocator_traits@V?$allocator@UEntry@LT@@@std@@@std@@SAXAEAV?$allocator@UEntry@LT@@@1@QEAUEntry@LT@@AEBU34@@Z
pdata	ENDS
;	COMDAT pdata
pdata	SEGMENT
$pdata$??$_Allocate_manually_vector_aligned@U_Default_allocate_traits@std@@@std@@YAPEAX_K@Z DD imagerel $LN13
	DD	imagerel $LN13+300
	DD	imagerel $unwind$??$_Allocate_manually_vector_aligned@U_Default_allocate_traits@std@@@std@@YAPEAX_K@Z
pdata	ENDS
;	COMDAT pdata
pdata	SEGMENT
$pdata$??$_Construct_in_place@PEAU?$_List_node@UEntry@LT@@PEAX@std@@AEBQEAU12@@std@@YAXAEAPEAU?$_List_node@UEntry@LT@@PEAX@0@AEBQEAU10@@Z DD imagerel $LN3
	DD	imagerel $LN3+126
	DD	imagerel $unwind$??$_Construct_in_place@PEAU?$_List_node@UEntry@LT@@PEAX@std@@AEBQEAU12@@std@@YAXAEAPEAU?$_List_node@UEntry@LT@@PEAX@0@AEBQEAU10@@Z
pdata	ENDS
;	COMDAT pdata
pdata	SEGMENT
$pdata$??$uninitialized_copy@PEAPEAUEntry@LT@@PEAPEAU12@@std@@YAPEAPEAUEntry@LT@@QEAPEAU12@0PEAPEAU12@@Z DD imagerel $LN3
	DD	imagerel $LN3+255
	DD	imagerel $unwind$??$uninitialized_copy@PEAPEAUEntry@LT@@PEAPEAU12@@std@@YAPEAPEAUEntry@LT@@QEAPEAU12@0PEAPEAU12@@Z
pdata	ENDS
;	COMDAT pdata
pdata	SEGMENT
$pdata$??$_Uninitialized_value_construct_n_unchecked1@PEAPEAUEntry@LT@@_K@std@@YAPEAPEAUEntry@LT@@PEAPEAU12@_K@Z DD imagerel $LN3
	DD	imagerel $LN3+102
	DD	imagerel $unwind$??$_Uninitialized_value_construct_n_unchecked1@PEAPEAUEntry@LT@@_K@std@@YAPEAPEAUEntry@LT@@PEAPEAU12@_K@Z
pdata	ENDS
;	COMDAT pdata
pdata	SEGMENT
$pdata$??$_Destroy_range@PEAPEAUEntry@LT@@@std@@YAXPEAPEAUEntry@LT@@QEAPEAU12@@Z DD imagerel $LN3
	DD	imagerel $LN3+70
	DD	imagerel $unwind$??$_Destroy_range@PEAPEAUEntry@LT@@@std@@YAXPEAPEAUEntry@LT@@QEAPEAU12@@Z
pdata	ENDS
;	COMDAT pdata
pdata	SEGMENT
$pdata$??$_Get_size_of_n@$07@std@@YA_K_K@Z DD imagerel $LN4
	DD	imagerel $LN4+117
	DD	imagerel $unwind$??$_Get_size_of_n@$07@std@@YA_K_K@Z
pdata	ENDS
;	COMDAT pdata
pdata	SEGMENT
$pdata$??$construct@UEntry@LT@@AEBU12@@?$_Default_allocator_traits@V?$allocator@U?$_List_node@UEntry@LT@@PEAX@std@@@std@@@std@@SAXAEAV?$allocator@U?$_List_node@UEntry@LT@@PEAX@std@@@1@QEAUEntry@LT@@AEBU34@@Z DD imagerel $LN3
	DD	imagerel $LN3+129
	DD	imagerel $unwind$??$construct@UEntry@LT@@AEBU12@@?$_Default_allocator_traits@V?$allocator@U?$_List_node@UEntry@LT@@PEAX@std@@@std@@@std@@SAXAEAV?$allocator@U?$_List_node@UEntry@LT@@PEAX@std@@@1@QEAUEntry@LT@@AEBU34@@Z
pdata	ENDS
;	COMDAT pdata
pdata	SEGMENT
$pdata$?deallocate@?$_Default_allocator_traits@V?$allocator@U_Container_proxy@std@@@std@@@std@@SAXAEAV?$allocator@U_Container_proxy@std@@@2@QEAU_Container_proxy@2@_K@Z DD imagerel $LN3
	DD	imagerel $LN3+97
	DD	imagerel $unwind$?deallocate@?$_Default_allocator_traits@V?$allocator@U_Container_proxy@std@@@std@@@std@@SAXAEAV?$allocator@U_Container_proxy@std@@@2@QEAU_Container_proxy@2@_K@Z
pdata	ENDS
;	COMDAT pdata
pdata	SEGMENT
$pdata$??$forward@AEBQEAU?$_List_node@UEntry@LT@@PEAX@std@@@std@@YAAEBQEAU?$_List_node@UEntry@LT@@PEAX@0@AEBQEAU10@@Z DD imagerel $LN3
	DD	imagerel $LN3+71
	DD	imagerel $unwind$??$forward@AEBQEAU?$_List_node@UEntry@LT@@PEAX@std@@@std@@YAAEBQEAU?$_List_node@UEntry@LT@@PEAX@0@AEBQEAU10@@Z
pdata	ENDS
;	COMDAT pdata
pdata	SEGMENT
$pdata$??$_Adl_verify_range@PEAPEAUEntry@LT@@PEAPEAU12@@std@@YAXAEBQEAPEAUEntry@LT@@0@Z DD imagerel $LN3
	DD	imagerel $LN3+94
	DD	imagerel $unwind$??$_Adl_verify_range@PEAPEAUEntry@LT@@PEAPEAU12@@std@@YAXAEBQEAPEAUEntry@LT@@0@Z
pdata	ENDS
;	COMDAT pdata
pdata	SEGMENT
$pdata$??$_Get_unwrapped@AEBQEAPEAUEntry@LT@@@std@@YA@AEBQEAPEAUEntry@LT@@@Z DD imagerel $LN3
	DD	imagerel $LN3+74
	DD	imagerel $unwind$??$_Get_unwrapped@AEBQEAPEAUEntry@LT@@@std@@YA@AEBQEAPEAUEntry@LT@@@Z
pdata	ENDS
;	COMDAT pdata
pdata	SEGMENT
$pdata$??$_Idl_distance@PEAPEAUEntry@LT@@PEAPEAU12@@std@@YA@AEBQEAPEAUEntry@LT@@0@Z DD imagerel $LN3
	DD	imagerel $LN3+96
	DD	imagerel $unwind$??$_Idl_distance@PEAPEAUEntry@LT@@PEAPEAU12@@std@@YA@AEBQEAPEAUEntry@LT@@0@Z
pdata	ENDS
;	COMDAT pdata
pdata	SEGMENT
$pdata$??$_Get_unwrapped_n@AEAPEAPEAUEntry@LT@@_J@std@@YA@AEAPEAPEAUEntry@LT@@_J@Z DD imagerel $LN3
	DD	imagerel $LN3+79
	DD	imagerel $unwind$??$_Get_unwrapped_n@AEAPEAPEAUEntry@LT@@_J@std@@YA@AEAPEAPEAUEntry@LT@@_J@Z
pdata	ENDS
;	COMDAT pdata
pdata	SEGMENT
$pdata$??$_Copy_memmove@PEAPEAUEntry@LT@@PEAPEAU12@@std@@YAPEAPEAUEntry@LT@@PEAPEAU12@00@Z DD imagerel $LN3
	DD	imagerel $LN3+156
	DD	imagerel $unwind$??$_Copy_memmove@PEAPEAUEntry@LT@@PEAPEAU12@@std@@YAPEAPEAUEntry@LT@@PEAPEAU12@00@Z
pdata	ENDS
;	COMDAT pdata
pdata	SEGMENT
$pdata$??$_Seek_wrapped@PEAPEAUEntry@LT@@AEAPEAPEAU12@@std@@YAXAEAPEAPEAUEntry@LT@@0@Z DD imagerel $LN3
	DD	imagerel $LN3+89
	DD	imagerel $unwind$??$_Seek_wrapped@PEAPEAUEntry@LT@@AEAPEAPEAU12@@std@@YAXAEAPEAPEAUEntry@LT@@0@Z
pdata	ENDS
;	COMDAT pdata
pdata	SEGMENT
$pdata$??$_Zero_range@PEAPEAUEntry@LT@@@std@@YAPEAPEAUEntry@LT@@QEAPEAU12@0@Z DD imagerel $LN3
	DD	imagerel $LN3+126
	DD	imagerel $unwind$??$_Zero_range@PEAPEAUEntry@LT@@@std@@YAPEAPEAUEntry@LT@@QEAPEAU12@0@Z
pdata	ENDS
;	COMDAT pdata
pdata	SEGMENT
$pdata$??$_Verify_range@PEAUEntry@LT@@@std@@YAXQEBQEAUEntry@LT@@0@Z DD imagerel $LN12
	DD	imagerel $LN12+204
	DD	imagerel $unwind$??$_Verify_range@PEAUEntry@LT@@@std@@YAXQEBQEAUEntry@LT@@0@Z
pdata	ENDS
;	COMDAT rtc$TMZ
rtc$TMZ	SEGMENT
_RTC_Shutdown.rtc$TMZ DQ FLAT:_RTC_Shutdown
rtc$TMZ	ENDS
;	COMDAT rtc$IMZ
rtc$IMZ	SEGMENT
_RTC_InitBase.rtc$IMZ DQ FLAT:_RTC_InitBase
rtc$IMZ	ENDS
;	COMDAT ??_R1A@?0A@EA@bad_array_new_length@std@@8
rdata$r	SEGMENT
??_R1A@?0A@EA@bad_array_new_length@std@@8 DD imagerel ??_R0?AVbad_array_new_length@std@@@8 ; std::bad_array_new_length::`RTTI Base Class Descriptor at (0,-1,0,64)'
	DD	02H
	DD	00H
	DD	0ffffffffH
	DD	00H
	DD	040H
	DD	imagerel ??_R3bad_array_new_length@std@@8
rdata$r	ENDS
;	COMDAT ??_R2bad_array_new_length@std@@8
rdata$r	SEGMENT
??_R2bad_array_new_length@std@@8 DD imagerel ??_R1A@?0A@EA@bad_array_new_length@std@@8 ; std::bad_array_new_length::`RTTI Base Class Array'
	DD	imagerel ??_R1A@?0A@EA@bad_alloc@std@@8
	DD	imagerel ??_R1A@?0A@EA@exception@std@@8
	ORG $+3
rdata$r	ENDS
;	COMDAT ??_R3bad_array_new_length@std@@8
rdata$r	SEGMENT
??_R3bad_array_new_length@std@@8 DD 00H			; std::bad_array_new_length::`RTTI Class Hierarchy Descriptor'
	DD	00H
	DD	03H
	DD	imagerel ??_R2bad_array_new_length@std@@8
rdata$r	ENDS
;	COMDAT ??_R4bad_array_new_length@std@@6B@
rdata$r	SEGMENT
??_R4bad_array_new_length@std@@6B@ DD 01H		; std::bad_array_new_length::`RTTI Complete Object Locator'
	DD	00H
	DD	00H
	DD	imagerel ??_R0?AVbad_array_new_length@std@@@8
	DD	imagerel ??_R3bad_array_new_length@std@@8
	DD	imagerel ??_R4bad_array_new_length@std@@6B@
rdata$r	ENDS
;	COMDAT ??_R1A@?0A@EA@bad_alloc@std@@8
rdata$r	SEGMENT
??_R1A@?0A@EA@bad_alloc@std@@8 DD imagerel ??_R0?AVbad_alloc@std@@@8 ; std::bad_alloc::`RTTI Base Class Descriptor at (0,-1,0,64)'
	DD	01H
	DD	00H
	DD	0ffffffffH
	DD	00H
	DD	040H
	DD	imagerel ??_R3bad_alloc@std@@8
rdata$r	ENDS
;	COMDAT ??_R2bad_alloc@std@@8
rdata$r	SEGMENT
??_R2bad_alloc@std@@8 DD imagerel ??_R1A@?0A@EA@bad_alloc@std@@8 ; std::bad_alloc::`RTTI Base Class Array'
	DD	imagerel ??_R1A@?0A@EA@exception@std@@8
	ORG $+3
rdata$r	ENDS
;	COMDAT ??_R3bad_alloc@std@@8
rdata$r	SEGMENT
??_R3bad_alloc@std@@8 DD 00H				; std::bad_alloc::`RTTI Class Hierarchy Descriptor'
	DD	00H
	DD	02H
	DD	imagerel ??_R2bad_alloc@std@@8
rdata$r	ENDS
;	COMDAT ??_R4bad_alloc@std@@6B@
rdata$r	SEGMENT
??_R4bad_alloc@std@@6B@ DD 01H				; std::bad_alloc::`RTTI Complete Object Locator'
	DD	00H
	DD	00H
	DD	imagerel ??_R0?AVbad_alloc@std@@@8
	DD	imagerel ??_R3bad_alloc@std@@8
	DD	imagerel ??_R4bad_alloc@std@@6B@
rdata$r	ENDS
;	COMDAT ??_R1A@?0A@EA@exception@std@@8
rdata$r	SEGMENT
??_R1A@?0A@EA@exception@std@@8 DD imagerel ??_R0?AVexception@std@@@8 ; std::exception::`RTTI Base Class Descriptor at (0,-1,0,64)'
	DD	00H
	DD	00H
	DD	0ffffffffH
	DD	00H
	DD	040H
	DD	imagerel ??_R3exception@std@@8
rdata$r	ENDS
;	COMDAT ??_R2exception@std@@8
rdata$r	SEGMENT
??_R2exception@std@@8 DD imagerel ??_R1A@?0A@EA@exception@std@@8 ; std::exception::`RTTI Base Class Array'
	ORG $+3
rdata$r	ENDS
;	COMDAT ??_R3exception@std@@8
rdata$r	SEGMENT
??_R3exception@std@@8 DD 00H				; std::exception::`RTTI Class Hierarchy Descriptor'
	DD	00H
	DD	01H
	DD	imagerel ??_R2exception@std@@8
rdata$r	ENDS
;	COMDAT ??_R4exception@std@@6B@
rdata$r	SEGMENT
??_R4exception@std@@6B@ DD 01H				; std::exception::`RTTI Complete Object Locator'
	DD	00H
	DD	00H
	DD	imagerel ??_R0?AVexception@std@@@8
	DD	imagerel ??_R3exception@std@@8
	DD	imagerel ??_R4exception@std@@6B@
rdata$r	ENDS
;	COMDAT ??_C@_1EO@GFNCMDLA@?$AAs?$AAt?$AAd?$AA?3?$AA?3?$AA_?$AAA?$AAl?$AAl?$AAo?$AAc?$AAa?$AAt?$AAe?$AA_@
CONST	SEGMENT
??_C@_1EO@GFNCMDLA@?$AAs?$AAt?$AAd?$AA?3?$AA?3?$AA_?$AAA?$AAl?$AAl?$AAo?$AAc?$AAa?$AAt?$AAe?$AA_@ DB 's'
	DB	00H, 't', 00H, 'd', 00H, ':', 00H, ':', 00H, '_', 00H, 'A', 00H
	DB	'l', 00H, 'l', 00H, 'o', 00H, 'c', 00H, 'a', 00H, 't', 00H, 'e'
	DB	00H, '_', 00H, 'm', 00H, 'a', 00H, 'n', 00H, 'u', 00H, 'a', 00H
	DB	'l', 00H, 'l', 00H, 'y', 00H, '_', 00H, 'v', 00H, 'e', 00H, 'c'
	DB	00H, 't', 00H, 'o', 00H, 'r', 00H, '_', 00H, 'a', 00H, 'l', 00H
	DB	'i', 00H, 'g', 00H, 'n', 00H, 'e', 00H, 'd', 00H, 00H, 00H ; `string'
CONST	ENDS
;	COMDAT ??_C@_1DG@FJIKMGFD@?$AA?$CC?$AAt?$AAr?$AAa?$AAn?$AAs?$AAp?$AAo?$AAs?$AAe?$AAd?$AA?5?$AAp?$AAo?$AAi@
CONST	SEGMENT
??_C@_1DG@FJIKMGFD@?$AA?$CC?$AAt?$AAr?$AAa?$AAn?$AAs?$AAp?$AAo?$AAs?$AAe?$AAd?$AA?5?$AAp?$AAo?$AAi@ DB '"'
	DB	00H, 't', 00H, 'r', 00H, 'a', 00H, 'n', 00H, 's', 00H, 'p', 00H
	DB	'o', 00H, 's', 00H, 'e', 00H, 'd', 00H, ' ', 00H, 'p', 00H, 'o'
	DB	00H, 'i', 00H, 'n', 00H, 't', 00H, 'e', 00H, 'r', 00H, ' ', 00H
	DB	'r', 00H, 'a', 00H, 'n', 00H, 'g', 00H, 'e', 00H, '"', 00H, 00H
	DB	00H						; `string'
CONST	ENDS
;	COMDAT ??_C@_1CG@LJCPDKEJ@?$AAs?$AAt?$AAd?$AA?3?$AA?3?$AA_?$AAV?$AAe?$AAr?$AAi?$AAf?$AAy?$AA_?$AAr?$AAa@
CONST	SEGMENT
??_C@_1CG@LJCPDKEJ@?$AAs?$AAt?$AAd?$AA?3?$AA?3?$AA_?$AAV?$AAe?$AAr?$AAi?$AAf?$AAy?$AA_?$AAr?$AAa@ DB 's'
	DB	00H, 't', 00H, 'd', 00H, ':', 00H, ':', 00H, '_', 00H, 'V', 00H
	DB	'e', 00H, 'r', 00H, 'i', 00H, 'f', 00H, 'y', 00H, '_', 00H, 'r'
	DB	00H, 'a', 00H, 'n', 00H, 'g', 00H, 'e', 00H, 00H, 00H ; `string'
CONST	ENDS
;	COMDAT ??_C@_1NE@NLDHILHB@?$AAC?$AA?3?$AA?2?$AAP?$AAr?$AAo?$AAg?$AAr?$AAa?$AAm?$AA?5?$AAF?$AAi?$AAl?$AAe@
CONST	SEGMENT
??_C@_1NE@NLDHILHB@?$AAC?$AA?3?$AA?2?$AAP?$AAr?$AAo?$AAg?$AAr?$AAa?$AAm?$AA?5?$AAF?$AAi?$AAl?$AAe@ DB 'C'
	DB	00H, ':', 00H, '\', 00H, 'P', 00H, 'r', 00H, 'o', 00H, 'g', 00H
	DB	'r', 00H, 'a', 00H, 'm', 00H, ' ', 00H, 'F', 00H, 'i', 00H, 'l'
	DB	00H, 'e', 00H, 's', 00H, ' ', 00H, '(', 00H, 'x', 00H, '8', 00H
	DB	'6', 00H, ')', 00H, '\', 00H, 'M', 00H, 'i', 00H, 'c', 00H, 'r'
	DB	00H, 'o', 00H, 's', 00H, 'o', 00H, 'f', 00H, 't', 00H, ' ', 00H
	DB	'V', 00H, 'i', 00H, 's', 00H, 'u', 00H, 'a', 00H, 'l', 00H, ' '
	DB	00H, 'S', 00H, 't', 00H, 'u', 00H, 'd', 00H, 'i', 00H, 'o', 00H
	DB	'\', 00H, '2', 00H, '0', 00H, '1', 00H, '9', 00H, '\', 00H, 'E'
	DB	00H, 'n', 00H, 't', 00H, 'e', 00H, 'r', 00H, 'p', 00H, 'r', 00H
	DB	'i', 00H, 's', 00H, 'e', 00H, '\', 00H, 'V', 00H, 'C', 00H, '\'
	DB	00H, 'T', 00H, 'o', 00H, 'o', 00H, 'l', 00H, 's', 00H, '\', 00H
	DB	'M', 00H, 'S', 00H, 'V', 00H, 'C', 00H, '\', 00H, '1', 00H, '4'
	DB	00H, '.', 00H, '2', 00H, '7', 00H, '.', 00H, '2', 00H, '9', 00H
	DB	'1', 00H, '1', 00H, '0', 00H, '\', 00H, 'i', 00H, 'n', 00H, 'c'
	DB	00H, 'l', 00H, 'u', 00H, 'd', 00H, 'e', 00H, '\', 00H, 'x', 00H
	DB	'u', 00H, 't', 00H, 'i', 00H, 'l', 00H, 'i', 00H, 't', 00H, 'y'
	DB	00H, 00H, 00H				; `string'
CONST	ENDS
;	COMDAT ??_C@_0GK@OHAIDBEA@C?3?2Program?5Files?5?$CIx86?$CJ?2Microsof@
CONST	SEGMENT
??_C@_0GK@OHAIDBEA@C?3?2Program?5Files?5?$CIx86?$CJ?2Microsof@ DB 'C:\Pro'
	DB	'gram Files (x86)\Microsoft Visual Studio\2019\Enterprise\VC\T'
	DB	'ools\MSVC\14.27.29110\include\xutility', 00H ; `string'
CONST	ENDS
;	COMDAT ??_C@_0BJ@HAJGEHKO@transposed?5pointer?5range@
CONST	SEGMENT
??_C@_0BJ@HAJGEHKO@transposed?5pointer?5range@ DB 'transposed pointer ran'
	DB	'ge', 00H					; `string'
CONST	ENDS
;	COMDAT ??_C@_0BC@KBDMBKEH@deque?$DMT?$DO?5too?5long@
CONST	SEGMENT
??_C@_0BC@KBDMBKEH@deque?$DMT?$DO?5too?5long@ DB 'deque<T> too long', 00H ; `string'
CONST	ENDS
;	COMDAT ??_C@_0O@NKNMEGII@list?5too?5long@
CONST	SEGMENT
??_C@_0O@NKNMEGII@list?5too?5long@ DB 'list too long', 00H ; `string'
CONST	ENDS
;	COMDAT ??_C@_1BK@MHIKGOKE@?$AA?3?$AAA?$AAM?$AA?3?$AAa?$AAm?$AA?3?$AAP?$AAM?$AA?3?$AAp?$AAm@
CONST	SEGMENT
??_C@_1BK@MHIKGOKE@?$AA?3?$AAA?$AAM?$AA?3?$AAa?$AAm?$AA?3?$AAP?$AAM?$AA?3?$AAp?$AAm@ DB ':'
	DB	00H, 'A', 00H, 'M', 00H, ':', 00H, 'a', 00H, 'm', 00H, ':', 00H
	DB	'P', 00H, 'M', 00H, ':', 00H, 'p', 00H, 'm', 00H, 00H, 00H ; `string'
CONST	ENDS
;	COMDAT ??_C@_1DO@OOAHKDGC@?$AA?$CC?$AAb?$AAa?$AAc?$AAk?$AA?$CI?$AA?$CJ?$AA?5?$AAc?$AAa?$AAl?$AAl?$AAe?$AAd?$AA?5@
CONST	SEGMENT
??_C@_1DO@OOAHKDGC@?$AA?$CC?$AAb?$AAa?$AAc?$AAk?$AA?$CI?$AA?$CJ?$AA?5?$AAc?$AAa?$AAl?$AAl?$AAe?$AAd?$AA?5@ DB '"'
	DB	00H, 'b', 00H, 'a', 00H, 'c', 00H, 'k', 00H, '(', 00H, ')', 00H
	DB	' ', 00H, 'c', 00H, 'a', 00H, 'l', 00H, 'l', 00H, 'e', 00H, 'd'
	DB	00H, ' ', 00H, 'o', 00H, 'n', 00H, ' ', 00H, 'e', 00H, 'm', 00H
	DB	'p', 00H, 't', 00H, 'y', 00H, ' ', 00H, 'd', 00H, 'e', 00H, 'q'
	DB	00H, 'u', 00H, 'e', 00H, '"', 00H, 00H, 00H	; `string'
CONST	ENDS
;	COMDAT ??_C@_1JG@JOJHPKLP@?$AAs?$AAt?$AAd?$AA?3?$AA?3?$AAd?$AAe?$AAq?$AAu?$AAe?$AA?$DM?$AAs?$AAt?$AAr?$AAu@
CONST	SEGMENT
??_C@_1JG@JOJHPKLP@?$AAs?$AAt?$AAd?$AA?3?$AA?3?$AAd?$AAe?$AAq?$AAu?$AAe?$AA?$DM?$AAs?$AAt?$AAr?$AAu@ DB 's'
	DB	00H, 't', 00H, 'd', 00H, ':', 00H, ':', 00H, 'd', 00H, 'e', 00H
	DB	'q', 00H, 'u', 00H, 'e', 00H, '<', 00H, 's', 00H, 't', 00H, 'r'
	DB	00H, 'u', 00H, 'c', 00H, 't', 00H, ' ', 00H, 'L', 00H, 'T', 00H
	DB	':', 00H, ':', 00H, 'E', 00H, 'n', 00H, 't', 00H, 'r', 00H, 'y'
	DB	00H, ',', 00H, 'c', 00H, 'l', 00H, 'a', 00H, 's', 00H, 's', 00H
	DB	' ', 00H, 's', 00H, 't', 00H, 'd', 00H, ':', 00H, ':', 00H, 'a'
	DB	00H, 'l', 00H, 'l', 00H, 'o', 00H, 'c', 00H, 'a', 00H, 't', 00H
	DB	'o', 00H, 'r', 00H, '<', 00H, 's', 00H, 't', 00H, 'r', 00H, 'u'
	DB	00H, 'c', 00H, 't', 00H, ' ', 00H, 'L', 00H, 'T', 00H, ':', 00H
	DB	':', 00H, 'E', 00H, 'n', 00H, 't', 00H, 'r', 00H, 'y', 00H, '>'
	DB	00H, ' ', 00H, '>', 00H, ':', 00H, ':', 00H, 'b', 00H, 'a', 00H
	DB	'c', 00H, 'k', 00H, 00H, 00H			; `string'
CONST	ENDS
;	COMDAT ??_C@_0BN@OLMACEKN@back?$CI?$CJ?5called?5on?5empty?5deque@
CONST	SEGMENT
??_C@_0BN@OLMACEKN@back?$CI?$CJ?5called?5on?5empty?5deque@ DB 'back() cal'
	DB	'led on empty deque', 00H			; `string'
CONST	ENDS
;	COMDAT ??_C@_1DC@NJAACHCD@?$AA?$CC?$AAd?$AAe?$AAq?$AAu?$AAe?$AA?5?$AAe?$AAm?$AAp?$AAt?$AAy?$AA?5?$AAb?$AAe@
CONST	SEGMENT
??_C@_1DC@NJAACHCD@?$AA?$CC?$AAd?$AAe?$AAq?$AAu?$AAe?$AA?5?$AAe?$AAm?$AAp?$AAt?$AAy?$AA?5?$AAb?$AAe@ DB '"'
	DB	00H, 'd', 00H, 'e', 00H, 'q', 00H, 'u', 00H, 'e', 00H, ' ', 00H
	DB	'e', 00H, 'm', 00H, 'p', 00H, 't', 00H, 'y', 00H, ' ', 00H, 'b'
	DB	00H, 'e', 00H, 'f', 00H, 'o', 00H, 'r', 00H, 'e', 00H, ' ', 00H
	DB	'p', 00H, 'o', 00H, 'p', 00H, '"', 00H, 00H, 00H ; `string'
CONST	ENDS
;	COMDAT ??_C@_1JO@MJALCHE@?$AAs?$AAt?$AAd?$AA?3?$AA?3?$AAd?$AAe?$AAq?$AAu?$AAe?$AA?$DM?$AAs?$AAt?$AAr?$AAu@
CONST	SEGMENT
??_C@_1JO@MJALCHE@?$AAs?$AAt?$AAd?$AA?3?$AA?3?$AAd?$AAe?$AAq?$AAu?$AAe?$AA?$DM?$AAs?$AAt?$AAr?$AAu@ DB 's'
	DB	00H, 't', 00H, 'd', 00H, ':', 00H, ':', 00H, 'd', 00H, 'e', 00H
	DB	'q', 00H, 'u', 00H, 'e', 00H, '<', 00H, 's', 00H, 't', 00H, 'r'
	DB	00H, 'u', 00H, 'c', 00H, 't', 00H, ' ', 00H, 'L', 00H, 'T', 00H
	DB	':', 00H, ':', 00H, 'E', 00H, 'n', 00H, 't', 00H, 'r', 00H, 'y'
	DB	00H, ',', 00H, 'c', 00H, 'l', 00H, 'a', 00H, 's', 00H, 's', 00H
	DB	' ', 00H, 's', 00H, 't', 00H, 'd', 00H, ':', 00H, ':', 00H, 'a'
	DB	00H, 'l', 00H, 'l', 00H, 'o', 00H, 'c', 00H, 'a', 00H, 't', 00H
	DB	'o', 00H, 'r', 00H, '<', 00H, 's', 00H, 't', 00H, 'r', 00H, 'u'
	DB	00H, 'c', 00H, 't', 00H, ' ', 00H, 'L', 00H, 'T', 00H, ':', 00H
	DB	':', 00H, 'E', 00H, 'n', 00H, 't', 00H, 'r', 00H, 'y', 00H, '>'
	DB	00H, ' ', 00H, '>', 00H, ':', 00H, ':', 00H, 'p', 00H, 'o', 00H
	DB	'p', 00H, '_', 00H, 'b', 00H, 'a', 00H, 'c', 00H, 'k', 00H, 00H
	DB	00H						; `string'
CONST	ENDS
;	COMDAT ??_C@_1MO@ONLEFNNG@?$AAC?$AA?3?$AA?2?$AAP?$AAr?$AAo?$AAg?$AAr?$AAa?$AAm?$AA?5?$AAF?$AAi?$AAl?$AAe@
CONST	SEGMENT
??_C@_1MO@ONLEFNNG@?$AAC?$AA?3?$AA?2?$AAP?$AAr?$AAo?$AAg?$AAr?$AAa?$AAm?$AA?5?$AAF?$AAi?$AAl?$AAe@ DB 'C'
	DB	00H, ':', 00H, '\', 00H, 'P', 00H, 'r', 00H, 'o', 00H, 'g', 00H
	DB	'r', 00H, 'a', 00H, 'm', 00H, ' ', 00H, 'F', 00H, 'i', 00H, 'l'
	DB	00H, 'e', 00H, 's', 00H, ' ', 00H, '(', 00H, 'x', 00H, '8', 00H
	DB	'6', 00H, ')', 00H, '\', 00H, 'M', 00H, 'i', 00H, 'c', 00H, 'r'
	DB	00H, 'o', 00H, 's', 00H, 'o', 00H, 'f', 00H, 't', 00H, ' ', 00H
	DB	'V', 00H, 'i', 00H, 's', 00H, 'u', 00H, 'a', 00H, 'l', 00H, ' '
	DB	00H, 'S', 00H, 't', 00H, 'u', 00H, 'd', 00H, 'i', 00H, 'o', 00H
	DB	'\', 00H, '2', 00H, '0', 00H, '1', 00H, '9', 00H, '\', 00H, 'E'
	DB	00H, 'n', 00H, 't', 00H, 'e', 00H, 'r', 00H, 'p', 00H, 'r', 00H
	DB	'i', 00H, 's', 00H, 'e', 00H, '\', 00H, 'V', 00H, 'C', 00H, '\'
	DB	00H, 'T', 00H, 'o', 00H, 'o', 00H, 'l', 00H, 's', 00H, '\', 00H
	DB	'M', 00H, 'S', 00H, 'V', 00H, 'C', 00H, '\', 00H, '1', 00H, '4'
	DB	00H, '.', 00H, '2', 00H, '7', 00H, '.', 00H, '2', 00H, '9', 00H
	DB	'1', 00H, '1', 00H, '0', 00H, '\', 00H, 'i', 00H, 'n', 00H, 'c'
	DB	00H, 'l', 00H, 'u', 00H, 'd', 00H, 'e', 00H, '\', 00H, 'd', 00H
	DB	'e', 00H, 'q', 00H, 'u', 00H, 'e', 00H, 00H, 00H ; `string'
CONST	ENDS
;	COMDAT ??_C@_0GH@OBALDB@C?3?2Program?5Files?5?$CIx86?$CJ?2Microsof@
CONST	SEGMENT
??_C@_0GH@OBALDB@C?3?2Program?5Files?5?$CIx86?$CJ?2Microsof@ DB 'C:\Progr'
	DB	'am Files (x86)\Microsoft Visual Studio\2019\Enterprise\VC\Too'
	DB	'ls\MSVC\14.27.29110\include\deque', 00H	; `string'
CONST	ENDS
;	COMDAT ??_C@_0BH@EDKEEENI@deque?5empty?5before?5pop@
CONST	SEGMENT
??_C@_0BH@EDKEEENI@deque?5empty?5before?5pop@ DB 'deque empty before pop', 00H ; `string'
CONST	ENDS
;	COMDAT ??_C@_0N@LPFKKEBD@?3AM?3am?3PM?3pm@
CONST	SEGMENT
??_C@_0N@LPFKKEBD@?3AM?3am?3PM?3pm@ DB ':AM:am:PM:pm', 00H ; `string'
CONST	ENDS
;	COMDAT ??_C@_1DO@HIOMABHK@?$AA?$CC?$AAf?$AAr?$AAo?$AAn?$AAt?$AA?$CI?$AA?$CJ?$AA?5?$AAc?$AAa?$AAl?$AAl?$AAe?$AAd@
CONST	SEGMENT
??_C@_1DO@HIOMABHK@?$AA?$CC?$AAf?$AAr?$AAo?$AAn?$AAt?$AA?$CI?$AA?$CJ?$AA?5?$AAc?$AAa?$AAl?$AAl?$AAe?$AAd@ DB '"'
	DB	00H, 'f', 00H, 'r', 00H, 'o', 00H, 'n', 00H, 't', 00H, '(', 00H
	DB	')', 00H, ' ', 00H, 'c', 00H, 'a', 00H, 'l', 00H, 'l', 00H, 'e'
	DB	00H, 'd', 00H, ' ', 00H, 'o', 00H, 'n', 00H, ' ', 00H, 'e', 00H
	DB	'm', 00H, 'p', 00H, 't', 00H, 'y', 00H, ' ', 00H, 'l', 00H, 'i'
	DB	00H, 's', 00H, 't', 00H, '"', 00H, 00H, 00H	; `string'
CONST	ENDS
;	COMDAT ??_C@_1JG@CLHEJMNG@?$AAs?$AAt?$AAd?$AA?3?$AA?3?$AAl?$AAi?$AAs?$AAt?$AA?$DM?$AAs?$AAt?$AAr?$AAu?$AAc@
CONST	SEGMENT
??_C@_1JG@CLHEJMNG@?$AAs?$AAt?$AAd?$AA?3?$AA?3?$AAl?$AAi?$AAs?$AAt?$AA?$DM?$AAs?$AAt?$AAr?$AAu?$AAc@ DB 's'
	DB	00H, 't', 00H, 'd', 00H, ':', 00H, ':', 00H, 'l', 00H, 'i', 00H
	DB	's', 00H, 't', 00H, '<', 00H, 's', 00H, 't', 00H, 'r', 00H, 'u'
	DB	00H, 'c', 00H, 't', 00H, ' ', 00H, 'L', 00H, 'T', 00H, ':', 00H
	DB	':', 00H, 'E', 00H, 'n', 00H, 't', 00H, 'r', 00H, 'y', 00H, ','
	DB	00H, 'c', 00H, 'l', 00H, 'a', 00H, 's', 00H, 's', 00H, ' ', 00H
	DB	's', 00H, 't', 00H, 'd', 00H, ':', 00H, ':', 00H, 'a', 00H, 'l'
	DB	00H, 'l', 00H, 'o', 00H, 'c', 00H, 'a', 00H, 't', 00H, 'o', 00H
	DB	'r', 00H, '<', 00H, 's', 00H, 't', 00H, 'r', 00H, 'u', 00H, 'c'
	DB	00H, 't', 00H, ' ', 00H, 'L', 00H, 'T', 00H, ':', 00H, ':', 00H
	DB	'E', 00H, 'n', 00H, 't', 00H, 'r', 00H, 'y', 00H, '>', 00H, ' '
	DB	00H, '>', 00H, ':', 00H, ':', 00H, 'f', 00H, 'r', 00H, 'o', 00H
	DB	'n', 00H, 't', 00H, 00H, 00H			; `string'
CONST	ENDS
;	COMDAT ??_C@_0BN@GOIPFJJH@front?$CI?$CJ?5called?5on?5empty?5list@
CONST	SEGMENT
??_C@_0BN@GOIPFJJH@front?$CI?$CJ?5called?5on?5empty?5list@ DB 'front() ca'
	DB	'lled on empty list', 00H			; `string'
CONST	ENDS
;	COMDAT ??_C@_1EC@POEKFLJM@?$AA?$CC?$AAp?$AAo?$AAp?$AA_?$AAf?$AAr?$AAo?$AAn?$AAt?$AA?5?$AAc?$AAa?$AAl?$AAl@
CONST	SEGMENT
??_C@_1EC@POEKFLJM@?$AA?$CC?$AAp?$AAo?$AAp?$AA_?$AAf?$AAr?$AAo?$AAn?$AAt?$AA?5?$AAc?$AAa?$AAl?$AAl@ DB '"'
	DB	00H, 'p', 00H, 'o', 00H, 'p', 00H, '_', 00H, 'f', 00H, 'r', 00H
	DB	'o', 00H, 'n', 00H, 't', 00H, ' ', 00H, 'c', 00H, 'a', 00H, 'l'
	DB	00H, 'l', 00H, 'e', 00H, 'd', 00H, ' ', 00H, 'o', 00H, 'n', 00H
	DB	' ', 00H, 'e', 00H, 'm', 00H, 'p', 00H, 't', 00H, 'y', 00H, ' '
	DB	00H, 'l', 00H, 'i', 00H, 's', 00H, 't', 00H, '"', 00H, 00H, 00H ; `string'
CONST	ENDS
;	COMDAT ??_C@_1JO@OELGKGEE@?$AAs?$AAt?$AAd?$AA?3?$AA?3?$AAl?$AAi?$AAs?$AAt?$AA?$DM?$AAs?$AAt?$AAr?$AAu?$AAc@
CONST	SEGMENT
??_C@_1JO@OELGKGEE@?$AAs?$AAt?$AAd?$AA?3?$AA?3?$AAl?$AAi?$AAs?$AAt?$AA?$DM?$AAs?$AAt?$AAr?$AAu?$AAc@ DB 's'
	DB	00H, 't', 00H, 'd', 00H, ':', 00H, ':', 00H, 'l', 00H, 'i', 00H
	DB	's', 00H, 't', 00H, '<', 00H, 's', 00H, 't', 00H, 'r', 00H, 'u'
	DB	00H, 'c', 00H, 't', 00H, ' ', 00H, 'L', 00H, 'T', 00H, ':', 00H
	DB	':', 00H, 'E', 00H, 'n', 00H, 't', 00H, 'r', 00H, 'y', 00H, ','
	DB	00H, 'c', 00H, 'l', 00H, 'a', 00H, 's', 00H, 's', 00H, ' ', 00H
	DB	's', 00H, 't', 00H, 'd', 00H, ':', 00H, ':', 00H, 'a', 00H, 'l'
	DB	00H, 'l', 00H, 'o', 00H, 'c', 00H, 'a', 00H, 't', 00H, 'o', 00H
	DB	'r', 00H, '<', 00H, 's', 00H, 't', 00H, 'r', 00H, 'u', 00H, 'c'
	DB	00H, 't', 00H, ' ', 00H, 'L', 00H, 'T', 00H, ':', 00H, ':', 00H
	DB	'E', 00H, 'n', 00H, 't', 00H, 'r', 00H, 'y', 00H, '>', 00H, ' '
	DB	00H, '>', 00H, ':', 00H, ':', 00H, 'p', 00H, 'o', 00H, 'p', 00H
	DB	'_', 00H, 'f', 00H, 'r', 00H, 'o', 00H, 'n', 00H, 't', 00H, 00H
	DB	00H						; `string'
CONST	ENDS
;	COMDAT ??_C@_1MM@MBGLLEPM@?$AAC?$AA?3?$AA?2?$AAP?$AAr?$AAo?$AAg?$AAr?$AAa?$AAm?$AA?5?$AAF?$AAi?$AAl?$AAe@
CONST	SEGMENT
??_C@_1MM@MBGLLEPM@?$AAC?$AA?3?$AA?2?$AAP?$AAr?$AAo?$AAg?$AAr?$AAa?$AAm?$AA?5?$AAF?$AAi?$AAl?$AAe@ DB 'C'
	DB	00H, ':', 00H, '\', 00H, 'P', 00H, 'r', 00H, 'o', 00H, 'g', 00H
	DB	'r', 00H, 'a', 00H, 'm', 00H, ' ', 00H, 'F', 00H, 'i', 00H, 'l'
	DB	00H, 'e', 00H, 's', 00H, ' ', 00H, '(', 00H, 'x', 00H, '8', 00H
	DB	'6', 00H, ')', 00H, '\', 00H, 'M', 00H, 'i', 00H, 'c', 00H, 'r'
	DB	00H, 'o', 00H, 's', 00H, 'o', 00H, 'f', 00H, 't', 00H, ' ', 00H
	DB	'V', 00H, 'i', 00H, 's', 00H, 'u', 00H, 'a', 00H, 'l', 00H, ' '
	DB	00H, 'S', 00H, 't', 00H, 'u', 00H, 'd', 00H, 'i', 00H, 'o', 00H
	DB	'\', 00H, '2', 00H, '0', 00H, '1', 00H, '9', 00H, '\', 00H, 'E'
	DB	00H, 'n', 00H, 't', 00H, 'e', 00H, 'r', 00H, 'p', 00H, 'r', 00H
	DB	'i', 00H, 's', 00H, 'e', 00H, '\', 00H, 'V', 00H, 'C', 00H, '\'
	DB	00H, 'T', 00H, 'o', 00H, 'o', 00H, 'l', 00H, 's', 00H, '\', 00H
	DB	'M', 00H, 'S', 00H, 'V', 00H, 'C', 00H, '\', 00H, '1', 00H, '4'
	DB	00H, '.', 00H, '2', 00H, '7', 00H, '.', 00H, '2', 00H, '9', 00H
	DB	'1', 00H, '1', 00H, '0', 00H, '\', 00H, 'i', 00H, 'n', 00H, 'c'
	DB	00H, 'l', 00H, 'u', 00H, 'd', 00H, 'e', 00H, '\', 00H, 'l', 00H
	DB	'i', 00H, 's', 00H, 't', 00H, 00H, 00H	; `string'
CONST	ENDS
;	COMDAT ??_C@_0GG@LMOKLFIB@C?3?2Program?5Files?5?$CIx86?$CJ?2Microsof@
CONST	SEGMENT
??_C@_0GG@LMOKLFIB@C?3?2Program?5Files?5?$CIx86?$CJ?2Microsof@ DB 'C:\Pro'
	DB	'gram Files (x86)\Microsoft Visual Studio\2019\Enterprise\VC\T'
	DB	'ools\MSVC\14.27.29110\include\list', 00H	; `string'
CONST	ENDS
;	COMDAT ??_C@_0BP@IEHBKPNI@pop_front?5called?5on?5empty?5list@
CONST	SEGMENT
??_C@_0BP@IEHBKPNI@pop_front?5called?5on?5empty?5list@ DB 'pop_front call'
	DB	'ed on empty list', 00H			; `string'
CONST	ENDS
;	COMDAT ??_C@_0GJ@GMBHIGPF@C?3?2Program?5Files?5?$CIx86?$CJ?2Microsof@
CONST	SEGMENT
??_C@_0GJ@GMBHIGPF@C?3?2Program?5Files?5?$CIx86?$CJ?2Microsof@ DB 'C:\Pro'
	DB	'gram Files (x86)\Microsoft Visual Studio\2019\Enterprise\VC\T'
	DB	'ools\MSVC\14.27.29110\include\xlocnum', 00H	; `string'
CONST	ENDS
;	COMDAT ?__LINE__Var@?0??_Maklocwcs@std@@YAPEA_WPEB_W@Z@4JA
_DATA	SEGMENT
?__LINE__Var@?0??_Maklocwcs@std@@YAPEA_WPEB_W@Z@4JA DD 05aH ; `std::_Maklocwcs'::`1'::__LINE__Var
_DATA	ENDS
;	COMDAT ??_C@_0GJ@OPFKIEFE@C?3?2Program?5Files?5?$CIx86?$CJ?2Microsof@
CONST	SEGMENT
??_C@_0GJ@OPFKIEFE@C?3?2Program?5Files?5?$CIx86?$CJ?2Microsof@ DB 'C:\Pro'
	DB	'gram Files (x86)\Microsoft Visual Studio\2019\Enterprise\VC\T'
	DB	'ools\MSVC\14.27.29110\include\xlocale', 00H	; `string'
CONST	ENDS
;	COMDAT ??_C@_1CG@JNLFBNGN@?$AA?$CC?$AAi?$AAn?$AAv?$AAa?$AAl?$AAi?$AAd?$AA?5?$AAa?$AAr?$AAg?$AAu?$AAm?$AAe@
CONST	SEGMENT
??_C@_1CG@JNLFBNGN@?$AA?$CC?$AAi?$AAn?$AAv?$AAa?$AAl?$AAi?$AAd?$AA?5?$AAa?$AAr?$AAg?$AAu?$AAm?$AAe@ DB '"'
	DB	00H, 'i', 00H, 'n', 00H, 'v', 00H, 'a', 00H, 'l', 00H, 'i', 00H
	DB	'd', 00H, ' ', 00H, 'a', 00H, 'r', 00H, 'g', 00H, 'u', 00H, 'm'
	DB	00H, 'e', 00H, 'n', 00H, 't', 00H, '"', 00H, 00H, 00H ; `string'
CONST	ENDS
;	COMDAT ??_C@_1EK@NIFDJFDG@?$AAs?$AAt?$AAd?$AA?3?$AA?3?$AA_?$AAA?$AAd?$AAj?$AAu?$AAs?$AAt?$AA_?$AAm?$AAa@
CONST	SEGMENT
??_C@_1EK@NIFDJFDG@?$AAs?$AAt?$AAd?$AA?3?$AA?3?$AA_?$AAA?$AAd?$AAj?$AAu?$AAs?$AAt?$AA_?$AAm?$AAa@ DB 's'
	DB	00H, 't', 00H, 'd', 00H, ':', 00H, ':', 00H, '_', 00H, 'A', 00H
	DB	'd', 00H, 'j', 00H, 'u', 00H, 's', 00H, 't', 00H, '_', 00H, 'm'
	DB	00H, 'a', 00H, 'n', 00H, 'u', 00H, 'a', 00H, 'l', 00H, 'l', 00H
	DB	'y', 00H, '_', 00H, 'v', 00H, 'e', 00H, 'c', 00H, 't', 00H, 'o'
	DB	00H, 'r', 00H, '_', 00H, 'a', 00H, 'l', 00H, 'i', 00H, 'g', 00H
	DB	'n', 00H, 'e', 00H, 'd', 00H, 00H, 00H	; `string'
CONST	ENDS
;	COMDAT ??_C@_1NC@LBGPBFDE@?$AAC?$AA?3?$AA?2?$AAP?$AAr?$AAo?$AAg?$AAr?$AAa?$AAm?$AA?5?$AAF?$AAi?$AAl?$AAe@
CONST	SEGMENT
??_C@_1NC@LBGPBFDE@?$AAC?$AA?3?$AA?2?$AAP?$AAr?$AAo?$AAg?$AAr?$AAa?$AAm?$AA?5?$AAF?$AAi?$AAl?$AAe@ DB 'C'
	DB	00H, ':', 00H, '\', 00H, 'P', 00H, 'r', 00H, 'o', 00H, 'g', 00H
	DB	'r', 00H, 'a', 00H, 'm', 00H, ' ', 00H, 'F', 00H, 'i', 00H, 'l'
	DB	00H, 'e', 00H, 's', 00H, ' ', 00H, '(', 00H, 'x', 00H, '8', 00H
	DB	'6', 00H, ')', 00H, '\', 00H, 'M', 00H, 'i', 00H, 'c', 00H, 'r'
	DB	00H, 'o', 00H, 's', 00H, 'o', 00H, 'f', 00H, 't', 00H, ' ', 00H
	DB	'V', 00H, 'i', 00H, 's', 00H, 'u', 00H, 'a', 00H, 'l', 00H, ' '
	DB	00H, 'S', 00H, 't', 00H, 'u', 00H, 'd', 00H, 'i', 00H, 'o', 00H
	DB	'\', 00H, '2', 00H, '0', 00H, '1', 00H, '9', 00H, '\', 00H, 'E'
	DB	00H, 'n', 00H, 't', 00H, 'e', 00H, 'r', 00H, 'p', 00H, 'r', 00H
	DB	'i', 00H, 's', 00H, 'e', 00H, '\', 00H, 'V', 00H, 'C', 00H, '\'
	DB	00H, 'T', 00H, 'o', 00H, 'o', 00H, 'l', 00H, 's', 00H, '\', 00H
	DB	'M', 00H, 'S', 00H, 'V', 00H, 'C', 00H, '\', 00H, '1', 00H, '4'
	DB	00H, '.', 00H, '2', 00H, '7', 00H, '.', 00H, '2', 00H, '9', 00H
	DB	'1', 00H, '1', 00H, '0', 00H, '\', 00H, 'i', 00H, 'n', 00H, 'c'
	DB	00H, 'l', 00H, 'u', 00H, 'd', 00H, 'e', 00H, '\', 00H, 'x', 00H
	DB	'm', 00H, 'e', 00H, 'm', 00H, 'o', 00H, 'r', 00H, 'y', 00H, 00H
	DB	00H						; `string'
CONST	ENDS
;	COMDAT ??_C@_0GJ@EHJGLGPD@C?3?2Program?5Files?5?$CIx86?$CJ?2Microsof@
CONST	SEGMENT
??_C@_0GJ@EHJGLGPD@C?3?2Program?5Files?5?$CIx86?$CJ?2Microsof@ DB 'C:\Pro'
	DB	'gram Files (x86)\Microsoft Visual Studio\2019\Enterprise\VC\T'
	DB	'ools\MSVC\14.27.29110\include\xmemory', 00H	; `string'
CONST	ENDS
;	COMDAT ??_C@_02DKCKIIND@?$CFs@
CONST	SEGMENT
??_C@_02DKCKIIND@?$CFs@ DB '%s', 00H			; `string'
CONST	ENDS
;	COMDAT ??_C@_0BB@FCMFBGOM@invalid?5argument@
CONST	SEGMENT
??_C@_0BB@FCMFBGOM@invalid?5argument@ DB 'invalid argument', 00H ; `string'
CONST	ENDS
;	COMDAT ?__LINE__Var@?0??_Adjust_manually_vector_aligned@std@@YAXAEAPEAXAEA_K@Z@4JA
_DATA	SEGMENT
?__LINE__Var@?0??_Adjust_manually_vector_aligned@std@@YAXAEAPEAXAEA_K@Z@4JA DD 084H ; `std::_Adjust_manually_vector_aligned'::`1'::__LINE__Var
_DATA	ENDS
;	COMDAT _CT??_R0?AVexception@std@@@8??0exception@std@@QEAA@AEBV01@@Z24
xdata$x	SEGMENT
_CT??_R0?AVexception@std@@@8??0exception@std@@QEAA@AEBV01@@Z24 DD 00H
	DD	imagerel ??_R0?AVexception@std@@@8
	DD	00H
	DD	0ffffffffH
	ORG $+4
	DD	018H
	DD	imagerel ??0exception@std@@QEAA@AEBV01@@Z
xdata$x	ENDS
;	COMDAT ??_R0?AVexception@std@@@8
data$r	SEGMENT
??_R0?AVexception@std@@@8 DQ FLAT:??_7type_info@@6B@	; std::exception `RTTI Type Descriptor'
	DQ	0000000000000000H
	DB	'.?AVexception@std@@', 00H
data$r	ENDS
;	COMDAT _CT??_R0?AVbad_alloc@std@@@8??0bad_alloc@std@@QEAA@AEBV01@@Z24
xdata$x	SEGMENT
_CT??_R0?AVbad_alloc@std@@@8??0bad_alloc@std@@QEAA@AEBV01@@Z24 DD 010H
	DD	imagerel ??_R0?AVbad_alloc@std@@@8
	DD	00H
	DD	0ffffffffH
	ORG $+4
	DD	018H
	DD	imagerel ??0bad_alloc@std@@QEAA@AEBV01@@Z
xdata$x	ENDS
;	COMDAT ??_R0?AVbad_alloc@std@@@8
data$r	SEGMENT
??_R0?AVbad_alloc@std@@@8 DQ FLAT:??_7type_info@@6B@	; std::bad_alloc `RTTI Type Descriptor'
	DQ	0000000000000000H
	DB	'.?AVbad_alloc@std@@', 00H
data$r	ENDS
;	COMDAT _CT??_R0?AVbad_array_new_length@std@@@8??0bad_array_new_length@std@@QEAA@AEBV01@@Z24
xdata$x	SEGMENT
_CT??_R0?AVbad_array_new_length@std@@@8??0bad_array_new_length@std@@QEAA@AEBV01@@Z24 DD 00H
	DD	imagerel ??_R0?AVbad_array_new_length@std@@@8
	DD	00H
	DD	0ffffffffH
	ORG $+4
	DD	018H
	DD	imagerel ??0bad_array_new_length@std@@QEAA@AEBV01@@Z
xdata$x	ENDS
;	COMDAT ??_R0?AVbad_array_new_length@std@@@8
data$r	SEGMENT
??_R0?AVbad_array_new_length@std@@@8 DQ FLAT:??_7type_info@@6B@ ; std::bad_array_new_length `RTTI Type Descriptor'
	DQ	0000000000000000H
	DB	'.?AVbad_array_new_length@std@@', 00H
data$r	ENDS
;	COMDAT _CTA3?AVbad_array_new_length@std@@
xdata$x	SEGMENT
_CTA3?AVbad_array_new_length@std@@ DD 03H
	DD	imagerel _CT??_R0?AVbad_array_new_length@std@@@8??0bad_array_new_length@std@@QEAA@AEBV01@@Z24
	DD	imagerel _CT??_R0?AVbad_alloc@std@@@8??0bad_alloc@std@@QEAA@AEBV01@@Z24
	DD	imagerel _CT??_R0?AVexception@std@@@8??0exception@std@@QEAA@AEBV01@@Z24
xdata$x	ENDS
;	COMDAT _TI3?AVbad_array_new_length@std@@
xdata$x	SEGMENT
_TI3?AVbad_array_new_length@std@@ DD 00H
	DD	imagerel ??1bad_array_new_length@std@@UEAA@XZ
	DD	00H
	DD	imagerel _CTA3?AVbad_array_new_length@std@@
xdata$x	ENDS
;	COMDAT ??_C@_0BF@KINCDENJ@bad?5array?5new?5length@
CONST	SEGMENT
??_C@_0BF@KINCDENJ@bad?5array?5new?5length@ DB 'bad array new length', 00H ; `string'
CONST	ENDS
;	COMDAT ??_7bad_array_new_length@std@@6B@
CONST	SEGMENT
??_7bad_array_new_length@std@@6B@ DQ FLAT:??_R4bad_array_new_length@std@@6B@ ; std::bad_array_new_length::`vftable'
	DQ	FLAT:??_Ebad_array_new_length@std@@UEAAPEAXI@Z
	DQ	FLAT:?what@exception@std@@UEBAPEBDXZ
CONST	ENDS
;	COMDAT ??_7bad_alloc@std@@6B@
CONST	SEGMENT
??_7bad_alloc@std@@6B@ DQ FLAT:??_R4bad_alloc@std@@6B@	; std::bad_alloc::`vftable'
	DQ	FLAT:??_Ebad_alloc@std@@UEAAPEAXI@Z
	DQ	FLAT:?what@exception@std@@UEBAPEBDXZ
CONST	ENDS
;	COMDAT ??_C@_0BC@EOODALEL@Unknown?5exception@
CONST	SEGMENT
??_C@_0BC@EOODALEL@Unknown?5exception@ DB 'Unknown exception', 00H ; `string'
CONST	ENDS
;	COMDAT ??_7exception@std@@6B@
CONST	SEGMENT
??_7exception@std@@6B@ DQ FLAT:??_R4exception@std@@6B@	; std::exception::`vftable'
	DQ	FLAT:??_Eexception@std@@UEAAPEAXI@Z
	DQ	FLAT:?what@exception@std@@UEBAPEBDXZ
CONST	ENDS
;	COMDAT xdata
xdata	SEGMENT
$ip2state$??$_Verify_range@PEAUEntry@LT@@@std@@YAXQEBQEAUEntry@LT@@0@Z DB 02H
	DB	00H
	DB	00H
xdata	ENDS
;	COMDAT xdata
xdata	SEGMENT
$cppxdata$??$_Verify_range@PEAUEntry@LT@@@std@@YAXQEBQEAUEntry@LT@@0@Z DB 060H
	DD	imagerel $ip2state$??$_Verify_range@PEAUEntry@LT@@@std@@YAXQEBQEAUEntry@LT@@0@Z
xdata	ENDS
;	COMDAT xdata
xdata	SEGMENT
$unwind$??$_Verify_range@PEAUEntry@LT@@@std@@YAXQEBQEAUEntry@LT@@0@Z DD 035052f19H
	DD	01133318H
	DD	0700c001fH
	DD	0500bH
	DD	imagerel __CxxFrameHandler4
	DD	imagerel $cppxdata$??$_Verify_range@PEAUEntry@LT@@@std@@YAXQEBQEAUEntry@LT@@0@Z
xdata	ENDS
;	COMDAT xdata
xdata	SEGMENT
$unwind$??$_Zero_range@PEAPEAUEntry@LT@@@std@@YAPEAPEAUEntry@LT@@QEAPEAU12@0@Z DD 025052f01H
	DD	01132318H
	DD	0700c0025H
	DD	0500bH
xdata	ENDS
;	COMDAT xdata
xdata	SEGMENT
$unwind$??$_Seek_wrapped@PEAPEAUEntry@LT@@AEAPEAPEAU12@@std@@YAXAEAPEAPEAUEntry@LT@@0@Z DD 025052f01H
	DD	01132318H
	DD	0700c001dH
	DD	0500bH
xdata	ENDS
;	COMDAT xdata
xdata	SEGMENT
$unwind$??$_Copy_memmove@PEAPEAUEntry@LT@@PEAPEAU12@@std@@YAPEAPEAUEntry@LT@@PEAPEAU12@00@Z DD 025053401H
	DD	0118231dH
	DD	07011002dH
	DD	05010H
xdata	ENDS
;	COMDAT xdata
xdata	SEGMENT
$unwind$??$_Get_unwrapped_n@AEAPEAPEAUEntry@LT@@_J@std@@YA@AEAPEAPEAUEntry@LT@@_J@Z DD 025052f01H
	DD	01132318H
	DD	0700c001dH
	DD	0500bH
xdata	ENDS
;	COMDAT xdata
xdata	SEGMENT
$unwind$??$_Idl_distance@PEAPEAUEntry@LT@@PEAPEAU12@@std@@YA@AEBQEAPEAUEntry@LT@@0@Z DD 025052f01H
	DD	01132318H
	DD	0700c001dH
	DD	0500bH
xdata	ENDS
;	COMDAT xdata
xdata	SEGMENT
$unwind$??$_Get_unwrapped@AEBQEAPEAUEntry@LT@@@std@@YA@AEBQEAPEAUEntry@LT@@@Z DD 025052a01H
	DD	010e2313H
	DD	07007001dH
	DD	05006H
xdata	ENDS
;	COMDAT xdata
xdata	SEGMENT
$unwind$??$_Adl_verify_range@PEAPEAUEntry@LT@@PEAPEAU12@@std@@YAXAEBQEAPEAUEntry@LT@@0@Z DD 025052f01H
	DD	01132318H
	DD	0700c001dH
	DD	0500bH
xdata	ENDS
;	COMDAT xdata
xdata	SEGMENT
$ip2state$??$forward@AEBQEAU?$_List_node@UEntry@LT@@PEAX@std@@@std@@YAAEBQEAU?$_List_node@UEntry@LT@@PEAX@0@AEBQEAU10@@Z DB 02H
	DB	00H
	DB	00H
xdata	ENDS
;	COMDAT xdata
xdata	SEGMENT
$cppxdata$??$forward@AEBQEAU?$_List_node@UEntry@LT@@PEAX@std@@@std@@YAAEBQEAU?$_List_node@UEntry@LT@@PEAX@0@AEBQEAU10@@Z DB 060H
	DD	imagerel $ip2state$??$forward@AEBQEAU?$_List_node@UEntry@LT@@PEAX@std@@@std@@YAAEBQEAU?$_List_node@UEntry@LT@@PEAX@0@AEBQEAU10@@Z
xdata	ENDS
;	COMDAT xdata
xdata	SEGMENT
$unwind$??$forward@AEBQEAU?$_List_node@UEntry@LT@@PEAX@std@@@std@@YAAEBQEAU?$_List_node@UEntry@LT@@PEAX@0@AEBQEAU10@@Z DD 025052a19H
	DD	010e2313H
	DD	07007001dH
	DD	05006H
	DD	imagerel __CxxFrameHandler4
	DD	imagerel $cppxdata$??$forward@AEBQEAU?$_List_node@UEntry@LT@@PEAX@std@@@std@@YAAEBQEAU?$_List_node@UEntry@LT@@PEAX@0@AEBQEAU10@@Z
xdata	ENDS
;	COMDAT xdata
xdata	SEGMENT
$unwind$?deallocate@?$_Default_allocator_traits@V?$allocator@U_Container_proxy@std@@@std@@@std@@SAXAEAV?$allocator@U_Container_proxy@std@@@2@QEAU_Container_proxy@2@_K@Z DD 025053401H
	DD	0118231dH
	DD	07011001dH
	DD	05010H
xdata	ENDS
;	COMDAT xdata
xdata	SEGMENT
$unwind$??$construct@UEntry@LT@@AEBU12@@?$_Default_allocator_traits@V?$allocator@U?$_List_node@UEntry@LT@@PEAX@std@@@std@@@std@@SAXAEAV?$allocator@U?$_List_node@UEntry@LT@@PEAX@std@@@1@QEAUEntry@LT@@AEBU34@@Z DD 025063501H
	DD	0119231eH
	DD	070120020H
	DD	050106011H
xdata	ENDS
;	COMDAT xdata
xdata	SEGMENT
$unwind$??$_Get_size_of_n@$07@std@@YA_K_K@Z DD 025052a01H
	DD	010e2313H
	DD	070070025H
	DD	05006H
xdata	ENDS
;	COMDAT xdata
xdata	SEGMENT
$ip2state$??$_Destroy_range@PEAPEAUEntry@LT@@@std@@YAXPEAPEAUEntry@LT@@QEAPEAU12@@Z DB 02H
	DB	00H
	DB	00H
xdata	ENDS
;	COMDAT xdata
xdata	SEGMENT
$cppxdata$??$_Destroy_range@PEAPEAUEntry@LT@@@std@@YAXPEAPEAUEntry@LT@@QEAPEAU12@@Z DB 060H
	DD	imagerel $ip2state$??$_Destroy_range@PEAPEAUEntry@LT@@@std@@YAXPEAPEAUEntry@LT@@QEAPEAU12@@Z
xdata	ENDS
;	COMDAT xdata
xdata	SEGMENT
$unwind$??$_Destroy_range@PEAPEAUEntry@LT@@@std@@YAXPEAPEAUEntry@LT@@QEAPEAU12@@Z DD 025052f19H
	DD	01132318H
	DD	0700c001dH
	DD	0500bH
	DD	imagerel __CxxFrameHandler4
	DD	imagerel $cppxdata$??$_Destroy_range@PEAPEAUEntry@LT@@@std@@YAXPEAPEAUEntry@LT@@QEAPEAU12@@Z
xdata	ENDS
;	COMDAT xdata
xdata	SEGMENT
$unwind$??$_Uninitialized_value_construct_n_unchecked1@PEAPEAUEntry@LT@@_K@std@@YAPEAPEAUEntry@LT@@PEAPEAU12@_K@Z DD 025052f01H
	DD	01132318H
	DD	0700c001dH
	DD	0500bH
xdata	ENDS
;	COMDAT xdata
xdata	SEGMENT
$unwind$??$uninitialized_copy@PEAPEAUEntry@LT@@PEAPEAU12@@std@@YAPEAPEAUEntry@LT@@QEAPEAU12@0PEAPEAU12@@Z DD 025054519H
	DD	0118231dH
	DD	070110029H
	DD	05010H
	DD	imagerel __GSHandlerCheck
	DD	0138H
xdata	ENDS
;	COMDAT CONST
CONST	SEGMENT
??$uninitialized_copy@PEAPEAUEntry@LT@@PEAPEAU12@@std@@YAPEAPEAUEntry@LT@@QEAPEAU12@0PEAPEAU12@@Z$rtcName$0 DB 05fH ; std::uninitialized_copy<LT::Entry * *,LT::Entry * *>
	DB	055H
	DB	046H
	DB	069H
	DB	072H
	DB	073H
	DB	074H
	DB	00H
??$uninitialized_copy@PEAPEAUEntry@LT@@PEAPEAU12@@std@@YAPEAPEAUEntry@LT@@QEAPEAU12@0PEAPEAU12@@Z$rtcName$1 DB 05fH ; std::uninitialized_copy<LT::Entry * *,LT::Entry * *>
	DB	055H
	DB	04cH
	DB	061H
	DB	073H
	DB	074H
	DB	00H
	ORG $+1
??$uninitialized_copy@PEAPEAUEntry@LT@@PEAPEAU12@@std@@YAPEAPEAUEntry@LT@@QEAPEAU12@0PEAPEAU12@@Z$rtcName$2 DB 05fH ; std::uninitialized_copy<LT::Entry * *,LT::Entry * *>
	DB	055H
	DB	044H
	DB	065H
	DB	073H
	DB	074H
	DB	00H
	ORG $+9
??$uninitialized_copy@PEAPEAUEntry@LT@@PEAPEAU12@@std@@YAPEAPEAUEntry@LT@@QEAPEAU12@0PEAPEAU12@@Z$rtcVarDesc DD 068H ; std::uninitialized_copy<LT::Entry * *,LT::Entry * *>
	DD	08H
	DQ	FLAT:??$uninitialized_copy@PEAPEAUEntry@LT@@PEAPEAU12@@std@@YAPEAPEAUEntry@LT@@QEAPEAU12@0PEAPEAU12@@Z$rtcName$2
	DD	048H
	DD	08H
	DQ	FLAT:??$uninitialized_copy@PEAPEAUEntry@LT@@PEAPEAU12@@std@@YAPEAPEAUEntry@LT@@QEAPEAU12@0PEAPEAU12@@Z$rtcName$1
	DD	028H
	DD	08H
	DQ	FLAT:??$uninitialized_copy@PEAPEAUEntry@LT@@PEAPEAU12@@std@@YAPEAPEAUEntry@LT@@QEAPEAU12@0PEAPEAU12@@Z$rtcName$0
	ORG $+144
??$uninitialized_copy@PEAPEAUEntry@LT@@PEAPEAU12@@std@@YAPEAPEAUEntry@LT@@QEAPEAU12@0PEAPEAU12@@Z$rtcFrameData DD 03H ; std::uninitialized_copy<LT::Entry * *,LT::Entry * *>
	DD	00H
	DQ	FLAT:??$uninitialized_copy@PEAPEAUEntry@LT@@PEAPEAU12@@std@@YAPEAPEAUEntry@LT@@QEAPEAU12@0PEAPEAU12@@Z$rtcVarDesc
CONST	ENDS
;	COMDAT xdata
xdata	SEGMENT
$ip2state$??$_Construct_in_place@PEAU?$_List_node@UEntry@LT@@PEAX@std@@AEBQEAU12@@std@@YAXAEAPEAU?$_List_node@UEntry@LT@@PEAX@0@AEBQEAU10@@Z DB 02H
	DB	00H
	DB	00H
xdata	ENDS
;	COMDAT xdata
xdata	SEGMENT
$cppxdata$??$_Construct_in_place@PEAU?$_List_node@UEntry@LT@@PEAX@std@@AEBQEAU12@@std@@YAXAEAPEAU?$_List_node@UEntry@LT@@PEAX@0@AEBQEAU10@@Z DB 060H
	DD	imagerel $ip2state$??$_Construct_in_place@PEAU?$_List_node@UEntry@LT@@PEAX@std@@AEBQEAU12@@std@@YAXAEAPEAU?$_List_node@UEntry@LT@@PEAX@0@AEBQEAU10@@Z
xdata	ENDS
;	COMDAT xdata
xdata	SEGMENT
$unwind$??$_Construct_in_place@PEAU?$_List_node@UEntry@LT@@PEAX@std@@AEBQEAU12@@std@@YAXAEAPEAU?$_List_node@UEntry@LT@@PEAX@0@AEBQEAU10@@Z DD 025052f19H
	DD	01132318H
	DD	0700c0021H
	DD	0500bH
	DD	imagerel __CxxFrameHandler4
	DD	imagerel $cppxdata$??$_Construct_in_place@PEAU?$_List_node@UEntry@LT@@PEAX@std@@AEBQEAU12@@std@@YAXAEAPEAU?$_List_node@UEntry@LT@@PEAX@0@AEBQEAU10@@Z
xdata	ENDS
;	COMDAT xdata
xdata	SEGMENT
$unwind$??$_Allocate_manually_vector_aligned@U_Default_allocate_traits@std@@@std@@YAPEAX_K@Z DD 035052a01H
	DD	010e3313H
	DD	07007002bH
	DD	05006H
xdata	ENDS
;	COMDAT xdata
xdata	SEGMENT
$unwind$??$construct@UEntry@LT@@AEBU12@@?$_Default_allocator_traits@V?$allocator@UEntry@LT@@@std@@@std@@SAXAEAV?$allocator@UEntry@LT@@@1@QEAUEntry@LT@@AEBU34@@Z DD 025063501H
	DD	0119231eH
	DD	070120020H
	DD	050106011H
xdata	ENDS
;	COMDAT xdata
xdata	SEGMENT
$unwind$??$destroy@UEntry@LT@@@?$_Default_allocator_traits@V?$allocator@U?$_List_node@UEntry@LT@@PEAX@std@@@std@@@std@@SAXAEAV?$allocator@U?$_List_node@UEntry@LT@@PEAX@std@@@1@QEAUEntry@LT@@@Z DD 025052f01H
	DD	01132318H
	DD	0700c001dH
	DD	0500bH
xdata	ENDS
;	COMDAT xdata
xdata	SEGMENT
$ip2state$??$addressof@UEntry@LT@@@std@@YAPEAUEntry@LT@@AEAU12@@Z DB 02H
	DB	00H
	DB	00H
xdata	ENDS
;	COMDAT xdata
xdata	SEGMENT
$cppxdata$??$addressof@UEntry@LT@@@std@@YAPEAUEntry@LT@@AEAU12@@Z DB 060H
	DD	imagerel $ip2state$??$addressof@UEntry@LT@@@std@@YAPEAUEntry@LT@@AEAU12@@Z
xdata	ENDS
;	COMDAT xdata
xdata	SEGMENT
$unwind$??$addressof@UEntry@LT@@@std@@YAPEAUEntry@LT@@AEAU12@@Z DD 025052a19H
	DD	010e2313H
	DD	07007001dH
	DD	05006H
	DD	imagerel __CxxFrameHandler4
	DD	imagerel $cppxdata$??$addressof@UEntry@LT@@@std@@YAPEAUEntry@LT@@AEAU12@@Z
xdata	ENDS
;	COMDAT xdata
xdata	SEGMENT
$ip2state$??$_Destroy_in_place@PEAU?$_List_node@UEntry@LT@@PEAX@std@@@std@@YAXAEAPEAU?$_List_node@UEntry@LT@@PEAX@0@@Z DB 02H
	DB	00H
	DB	00H
xdata	ENDS
;	COMDAT xdata
xdata	SEGMENT
$cppxdata$??$_Destroy_in_place@PEAU?$_List_node@UEntry@LT@@PEAX@std@@@std@@YAXAEAPEAU?$_List_node@UEntry@LT@@PEAX@0@@Z DB 060H
	DD	imagerel $ip2state$??$_Destroy_in_place@PEAU?$_List_node@UEntry@LT@@PEAX@std@@@std@@YAXAEAPEAU?$_List_node@UEntry@LT@@PEAX@0@@Z
xdata	ENDS
;	COMDAT xdata
xdata	SEGMENT
$unwind$??$_Destroy_in_place@PEAU?$_List_node@UEntry@LT@@PEAX@std@@@std@@YAXAEAPEAU?$_List_node@UEntry@LT@@PEAX@0@@Z DD 025052a19H
	DD	010e2313H
	DD	07007001dH
	DD	05006H
	DD	imagerel __CxxFrameHandler4
	DD	imagerel $cppxdata$??$_Destroy_in_place@PEAU?$_List_node@UEntry@LT@@PEAX@std@@@std@@YAXAEAPEAU?$_List_node@UEntry@LT@@PEAX@0@@Z
xdata	ENDS
;	COMDAT xdata
xdata	SEGMENT
$ip2state$??$forward@AEAPEAU?$_List_node@UEntry@LT@@PEAX@std@@@std@@YAAEAPEAU?$_List_node@UEntry@LT@@PEAX@0@AEAPEAU10@@Z DB 02H
	DB	00H
	DB	00H
xdata	ENDS
;	COMDAT xdata
xdata	SEGMENT
$cppxdata$??$forward@AEAPEAU?$_List_node@UEntry@LT@@PEAX@std@@@std@@YAAEAPEAU?$_List_node@UEntry@LT@@PEAX@0@AEAPEAU10@@Z DB 060H
	DD	imagerel $ip2state$??$forward@AEAPEAU?$_List_node@UEntry@LT@@PEAX@std@@@std@@YAAEAPEAU?$_List_node@UEntry@LT@@PEAX@0@AEAPEAU10@@Z
xdata	ENDS
;	COMDAT xdata
xdata	SEGMENT
$unwind$??$forward@AEAPEAU?$_List_node@UEntry@LT@@PEAX@std@@@std@@YAAEAPEAU?$_List_node@UEntry@LT@@PEAX@0@AEAPEAU10@@Z DD 025052a19H
	DD	010e2313H
	DD	07007001dH
	DD	05006H
	DD	imagerel __CxxFrameHandler4
	DD	imagerel $cppxdata$??$forward@AEAPEAU?$_List_node@UEntry@LT@@PEAX@std@@@std@@YAAEAPEAU?$_List_node@UEntry@LT@@PEAX@0@AEAPEAU10@@Z
xdata	ENDS
;	COMDAT xdata
xdata	SEGMENT
$ip2state$??$addressof@PEAU?$_List_node@UEntry@LT@@PEAX@std@@@std@@YAPEAPEAU?$_List_node@UEntry@LT@@PEAX@0@AEAPEAU10@@Z DB 02H
	DB	00H
	DB	00H
xdata	ENDS
;	COMDAT xdata
xdata	SEGMENT
$cppxdata$??$addressof@PEAU?$_List_node@UEntry@LT@@PEAX@std@@@std@@YAPEAPEAU?$_List_node@UEntry@LT@@PEAX@0@AEAPEAU10@@Z DB 060H
	DD	imagerel $ip2state$??$addressof@PEAU?$_List_node@UEntry@LT@@PEAX@std@@@std@@YAPEAPEAU?$_List_node@UEntry@LT@@PEAX@0@AEAPEAU10@@Z
xdata	ENDS
;	COMDAT xdata
xdata	SEGMENT
$unwind$??$addressof@PEAU?$_List_node@UEntry@LT@@PEAX@std@@@std@@YAPEAPEAU?$_List_node@UEntry@LT@@PEAX@0@AEAPEAU10@@Z DD 025052a19H
	DD	010e2313H
	DD	07007001dH
	DD	05006H
	DD	imagerel __CxxFrameHandler4
	DD	imagerel $cppxdata$??$addressof@PEAU?$_List_node@UEntry@LT@@PEAX@std@@@std@@YAPEAPEAU?$_List_node@UEntry@LT@@PEAX@0@AEAPEAU10@@Z
xdata	ENDS
;	COMDAT xdata
xdata	SEGMENT
$ip2state$??$_Deallocate_plain@V?$allocator@U_Container_proxy@std@@@std@@@std@@YAXAEAV?$allocator@U_Container_proxy@std@@@0@QEAU_Container_proxy@0@@Z DB 02H
	DB	00H
	DB	00H
xdata	ENDS
;	COMDAT xdata
xdata	SEGMENT
$cppxdata$??$_Deallocate_plain@V?$allocator@U_Container_proxy@std@@@std@@@std@@YAXAEAV?$allocator@U_Container_proxy@std@@@0@QEAU_Container_proxy@0@@Z DB 060H
	DD	imagerel $ip2state$??$_Deallocate_plain@V?$allocator@U_Container_proxy@std@@@std@@@std@@YAXAEAV?$allocator@U_Container_proxy@std@@@0@QEAU_Container_proxy@0@@Z
xdata	ENDS
;	COMDAT xdata
xdata	SEGMENT
$unwind$??$_Deallocate_plain@V?$allocator@U_Container_proxy@std@@@std@@@std@@YAXAEAV?$allocator@U_Container_proxy@std@@@0@QEAU_Container_proxy@0@@Z DD 025052f19H
	DD	01132318H
	DD	0700c001dH
	DD	0500bH
	DD	imagerel __CxxFrameHandler4
	DD	imagerel $cppxdata$??$_Deallocate_plain@V?$allocator@U_Container_proxy@std@@@std@@@std@@YAXAEAV?$allocator@U_Container_proxy@std@@@0@QEAU_Container_proxy@0@@Z
xdata	ENDS
;	COMDAT xdata
xdata	SEGMENT
$unwind$?dtor$0@?0???$?0AEBUEntry@LT@@@?$_List_node_emplace_op2@V?$allocator@U?$_List_node@UEntry@LT@@PEAX@std@@@std@@@std@@QEAA@AEAV?$allocator@U?$_List_node@UEntry@LT@@PEAX@std@@@1@AEBUEntry@LT@@@Z@4HA DD 031001H
	DD	0700c4210H
	DD	0500bH
xdata	ENDS
;	COMDAT xdata
xdata	SEGMENT
$ip2state$??$?0AEBUEntry@LT@@@?$_List_node_emplace_op2@V?$allocator@U?$_List_node@UEntry@LT@@PEAX@std@@@std@@@std@@QEAA@AEAV?$allocator@U?$_List_node@UEntry@LT@@PEAX@std@@@1@AEBUEntry@LT@@@Z DB 06H
	DB	00H
	DB	00H
	DB	0a8H
	DB	02H
	DB	0a0H
	DB	00H
xdata	ENDS
;	COMDAT xdata
xdata	SEGMENT
$stateUnwindMap$??$?0AEBUEntry@LT@@@?$_List_node_emplace_op2@V?$allocator@U?$_List_node@UEntry@LT@@PEAX@std@@@std@@@std@@QEAA@AEAV?$allocator@U?$_List_node@UEntry@LT@@PEAX@std@@@1@AEBUEntry@LT@@@Z DB 02H
	DB	0eH
	DD	imagerel ?dtor$0@?0???$?0AEBUEntry@LT@@@?$_List_node_emplace_op2@V?$allocator@U?$_List_node@UEntry@LT@@PEAX@std@@@std@@@std@@QEAA@AEAV?$allocator@U?$_List_node@UEntry@LT@@PEAX@std@@@1@AEBUEntry@LT@@@Z@4HA
xdata	ENDS
;	COMDAT xdata
xdata	SEGMENT
$cppxdata$??$?0AEBUEntry@LT@@@?$_List_node_emplace_op2@V?$allocator@U?$_List_node@UEntry@LT@@PEAX@std@@@std@@@std@@QEAA@AEAV?$allocator@U?$_List_node@UEntry@LT@@PEAX@std@@@1@AEBUEntry@LT@@@Z DB 028H
	DD	imagerel $stateUnwindMap$??$?0AEBUEntry@LT@@@?$_List_node_emplace_op2@V?$allocator@U?$_List_node@UEntry@LT@@PEAX@std@@@std@@@std@@QEAA@AEAV?$allocator@U?$_List_node@UEntry@LT@@PEAX@std@@@1@AEBUEntry@LT@@@Z
	DD	imagerel $ip2state$??$?0AEBUEntry@LT@@@?$_List_node_emplace_op2@V?$allocator@U?$_List_node@UEntry@LT@@PEAX@std@@@std@@@std@@QEAA@AEAV?$allocator@U?$_List_node@UEntry@LT@@PEAX@std@@@1@AEBUEntry@LT@@@Z
xdata	ENDS
;	COMDAT xdata
xdata	SEGMENT
$unwind$??$?0AEBUEntry@LT@@@?$_List_node_emplace_op2@V?$allocator@U?$_List_node@UEntry@LT@@PEAX@std@@@std@@@std@@QEAA@AEAV?$allocator@U?$_List_node@UEntry@LT@@PEAX@std@@@1@AEBUEntry@LT@@@Z DD 025053411H
	DD	0118231dH
	DD	07011001fH
	DD	05010H
	DD	imagerel __CxxFrameHandler4
	DD	imagerel $cppxdata$??$?0AEBUEntry@LT@@@?$_List_node_emplace_op2@V?$allocator@U?$_List_node@UEntry@LT@@PEAX@std@@@std@@@std@@QEAA@AEAV?$allocator@U?$_List_node@UEntry@LT@@PEAX@std@@@1@AEBUEntry@LT@@@Z
xdata	ENDS
;	COMDAT xdata
xdata	SEGMENT
$ip2state$??$forward@AEBUEntry@LT@@@std@@YAAEBUEntry@LT@@AEBU12@@Z DB 02H
	DB	00H
	DB	00H
xdata	ENDS
;	COMDAT xdata
xdata	SEGMENT
$cppxdata$??$forward@AEBUEntry@LT@@@std@@YAAEBUEntry@LT@@AEBU12@@Z DB 060H
	DD	imagerel $ip2state$??$forward@AEBUEntry@LT@@@std@@YAAEBUEntry@LT@@AEBU12@@Z
xdata	ENDS
;	COMDAT xdata
xdata	SEGMENT
$unwind$??$forward@AEBUEntry@LT@@@std@@YAAEBUEntry@LT@@AEBU12@@Z DD 025052a19H
	DD	010e2313H
	DD	07007001dH
	DD	05006H
	DD	imagerel __CxxFrameHandler4
	DD	imagerel $cppxdata$??$forward@AEBUEntry@LT@@@std@@YAAEBUEntry@LT@@AEBU12@@Z
xdata	ENDS
;	COMDAT xdata
xdata	SEGMENT
$ip2state$?_Transfer_before@?$_List_node_emplace_op2@V?$allocator@U?$_List_node@UEntry@LT@@PEAX@std@@@std@@@std@@QEAAPEAU?$_List_node@UEntry@LT@@PEAX@2@QEAU32@@Z DB 02H
	DB	00H
	DB	00H
xdata	ENDS
;	COMDAT xdata
xdata	SEGMENT
$cppxdata$?_Transfer_before@?$_List_node_emplace_op2@V?$allocator@U?$_List_node@UEntry@LT@@PEAX@std@@@std@@@std@@QEAAPEAU?$_List_node@UEntry@LT@@PEAX@2@QEAU32@@Z DB 060H
	DD	imagerel $ip2state$?_Transfer_before@?$_List_node_emplace_op2@V?$allocator@U?$_List_node@UEntry@LT@@PEAX@std@@@std@@@std@@QEAAPEAU?$_List_node@UEntry@LT@@PEAX@2@QEAU32@@Z
xdata	ENDS
;	COMDAT xdata
xdata	SEGMENT
$unwind$?_Transfer_before@?$_List_node_emplace_op2@V?$allocator@U?$_List_node@UEntry@LT@@PEAX@std@@@std@@@std@@QEAAPEAU?$_List_node@UEntry@LT@@PEAX@2@QEAU32@@Z DD 025054019H
	DD	01132318H
	DD	0700c0025H
	DD	0500bH
	DD	imagerel __GSHandlerCheck_EH4
	DD	imagerel $cppxdata$?_Transfer_before@?$_List_node_emplace_op2@V?$allocator@U?$_List_node@UEntry@LT@@PEAX@std@@@std@@@std@@QEAAPEAU?$_List_node@UEntry@LT@@PEAX@2@QEAU32@@Z
	DD	011bH
xdata	ENDS
;	COMDAT CONST
CONST	SEGMENT
?_Transfer_before@?$_List_node_emplace_op2@V?$allocator@U?$_List_node@UEntry@LT@@PEAX@std@@@std@@@std@@QEAAPEAU?$_List_node@UEntry@LT@@PEAX@2@QEAU32@@Z$rtcName$0 DB 05fH ; std::_List_node_emplace_op2<std::allocator<std::_List_node<LT::Entry,void *> > >::_Transfer_before
	DB	049H
	DB	06eH
	DB	073H
	DB	065H
	DB	072H
	DB	074H
	DB	05fH
	DB	061H
	DB	066H
	DB	074H
	DB	065H
	DB	072H
	DB	00H
	ORG $+2
?_Transfer_before@?$_List_node_emplace_op2@V?$allocator@U?$_List_node@UEntry@LT@@PEAX@std@@@std@@@std@@QEAAPEAU?$_List_node@UEntry@LT@@PEAX@2@QEAU32@@Z$rtcVarDesc DD 028H ; std::_List_node_emplace_op2<std::allocator<std::_List_node<LT::Entry,void *> > >::_Transfer_before
	DD	08H
	DQ	FLAT:?_Transfer_before@?$_List_node_emplace_op2@V?$allocator@U?$_List_node@UEntry@LT@@PEAX@std@@@std@@@std@@QEAAPEAU?$_List_node@UEntry@LT@@PEAX@2@QEAU32@@Z$rtcName$0
	ORG $+48
?_Transfer_before@?$_List_node_emplace_op2@V?$allocator@U?$_List_node@UEntry@LT@@PEAX@std@@@std@@@std@@QEAAPEAU?$_List_node@UEntry@LT@@PEAX@2@QEAU32@@Z$rtcFrameData DD 01H ; std::_List_node_emplace_op2<std::allocator<std::_List_node<LT::Entry,void *> > >::_Transfer_before
	DD	00H
	DQ	FLAT:?_Transfer_before@?$_List_node_emplace_op2@V?$allocator@U?$_List_node@UEntry@LT@@PEAX@std@@@std@@@std@@QEAAPEAU?$_List_node@UEntry@LT@@PEAX@2@QEAU32@@Z$rtcVarDesc
CONST	ENDS
;	COMDAT xdata
xdata	SEGMENT
$ip2state$??1?$_List_node_emplace_op2@V?$allocator@U?$_List_node@UEntry@LT@@PEAX@std@@@std@@@std@@QEAA@XZ DB 02H
	DB	00H
	DB	00H
xdata	ENDS
;	COMDAT xdata
xdata	SEGMENT
$cppxdata$??1?$_List_node_emplace_op2@V?$allocator@U?$_List_node@UEntry@LT@@PEAX@std@@@std@@@std@@QEAA@XZ DB 060H
	DD	imagerel $ip2state$??1?$_List_node_emplace_op2@V?$allocator@U?$_List_node@UEntry@LT@@PEAX@std@@@std@@@std@@QEAA@XZ
xdata	ENDS
;	COMDAT xdata
xdata	SEGMENT
$unwind$??1?$_List_node_emplace_op2@V?$allocator@U?$_List_node@UEntry@LT@@PEAX@std@@@std@@@std@@QEAA@XZ DD 025052a19H
	DD	010e2313H
	DD	07007001dH
	DD	05006H
	DD	imagerel __CxxFrameHandler4
	DD	imagerel $cppxdata$??1?$_List_node_emplace_op2@V?$allocator@U?$_List_node@UEntry@LT@@PEAX@std@@@std@@@std@@QEAA@XZ
xdata	ENDS
;	COMDAT xdata
xdata	SEGMENT
$ip2state$??1?$_Alloc_construct_ptr@V?$allocator@U?$_List_node@UEntry@LT@@PEAX@std@@@std@@@std@@QEAA@XZ DB 02H
	DB	00H
	DB	00H
xdata	ENDS
;	COMDAT xdata
xdata	SEGMENT
$cppxdata$??1?$_Alloc_construct_ptr@V?$allocator@U?$_List_node@UEntry@LT@@PEAX@std@@@std@@@std@@QEAA@XZ DB 060H
	DD	imagerel $ip2state$??1?$_Alloc_construct_ptr@V?$allocator@U?$_List_node@UEntry@LT@@PEAX@std@@@std@@@std@@QEAA@XZ
xdata	ENDS
;	COMDAT xdata
xdata	SEGMENT
$unwind$??1?$_Alloc_construct_ptr@V?$allocator@U?$_List_node@UEntry@LT@@PEAX@std@@@std@@@std@@QEAA@XZ DD 025052a19H
	DD	010e2313H
	DD	07007001dH
	DD	05006H
	DD	imagerel __CxxFrameHandler4
	DD	imagerel $cppxdata$??1?$_Alloc_construct_ptr@V?$allocator@U?$_List_node@UEntry@LT@@PEAX@std@@@std@@@std@@QEAA@XZ
xdata	ENDS
;	COMDAT xdata
xdata	SEGMENT
$unwind$?_Allocate@?$_Alloc_construct_ptr@V?$allocator@U?$_List_node@UEntry@LT@@PEAX@std@@@std@@@std@@QEAAXXZ DD 025052a01H
	DD	010e2313H
	DD	07007001dH
	DD	05006H
xdata	ENDS
;	COMDAT xdata
xdata	SEGMENT
$unwind$??0?$_Alloc_construct_ptr@V?$allocator@U?$_List_node@UEntry@LT@@PEAX@std@@@std@@@std@@QEAA@AEAV?$allocator@U?$_List_node@UEntry@LT@@PEAX@std@@@1@@Z DD 025052f01H
	DD	01132318H
	DD	0700c001dH
	DD	0500bH
xdata	ENDS
;	COMDAT xdata
xdata	SEGMENT
$ip2state$??$forward@PEAU_Container_base12@std@@@std@@YA$$QEAPEAU_Container_base12@0@AEAPEAU10@@Z DB 02H
	DB	00H
	DB	00H
xdata	ENDS
;	COMDAT xdata
xdata	SEGMENT
$cppxdata$??$forward@PEAU_Container_base12@std@@@std@@YA$$QEAPEAU_Container_base12@0@AEAPEAU10@@Z DB 060H
	DD	imagerel $ip2state$??$forward@PEAU_Container_base12@std@@@std@@YA$$QEAPEAU_Container_base12@0@AEAPEAU10@@Z
xdata	ENDS
;	COMDAT xdata
xdata	SEGMENT
$unwind$??$forward@PEAU_Container_base12@std@@@std@@YA$$QEAPEAU_Container_base12@0@AEAPEAU10@@Z DD 025052a19H
	DD	010e2313H
	DD	07007001dH
	DD	05006H
	DD	imagerel __CxxFrameHandler4
	DD	imagerel $cppxdata$??$forward@PEAU_Container_base12@std@@@std@@YA$$QEAPEAU_Container_base12@0@AEAPEAU10@@Z
xdata	ENDS
;	COMDAT xdata
xdata	SEGMENT
$ip2state$??$addressof@U_Container_proxy@std@@@std@@YAPEAU_Container_proxy@0@AEAU10@@Z DB 02H
	DB	00H
	DB	00H
xdata	ENDS
;	COMDAT xdata
xdata	SEGMENT
$cppxdata$??$addressof@U_Container_proxy@std@@@std@@YAPEAU_Container_proxy@0@AEAU10@@Z DB 060H
	DD	imagerel $ip2state$??$addressof@U_Container_proxy@std@@@std@@YAPEAU_Container_proxy@0@AEAU10@@Z
xdata	ENDS
;	COMDAT xdata
xdata	SEGMENT
$unwind$??$addressof@U_Container_proxy@std@@@std@@YAPEAU_Container_proxy@0@AEAU10@@Z DD 025052a19H
	DD	010e2313H
	DD	07007001dH
	DD	05006H
	DD	imagerel __CxxFrameHandler4
	DD	imagerel $cppxdata$??$addressof@U_Container_proxy@std@@@std@@YAPEAU_Container_proxy@0@AEAU10@@Z
xdata	ENDS
;	COMDAT xdata
xdata	SEGMENT
$ip2state$??$_Deallocate@$0BA@$0A@@std@@YAXPEAX_K@Z DB 02H
	DB	00H
	DB	00H
xdata	ENDS
;	COMDAT xdata
xdata	SEGMENT
$cppxdata$??$_Deallocate@$0BA@$0A@@std@@YAXPEAX_K@Z DB 060H
	DD	imagerel $ip2state$??$_Deallocate@$0BA@$0A@@std@@YAXPEAX_K@Z
xdata	ENDS
;	COMDAT xdata
xdata	SEGMENT
$unwind$??$_Deallocate@$0BA@$0A@@std@@YAXPEAX_K@Z DD 025052f19H
	DD	01132318H
	DD	0700c001dH
	DD	0500bH
	DD	imagerel __CxxFrameHandler4
	DD	imagerel $cppxdata$??$_Deallocate@$0BA@$0A@@std@@YAXPEAX_K@Z
xdata	ENDS
;	COMDAT xdata
xdata	SEGMENT
$ip2state$??$addressof@V?$_Deque_val@U?$_Deque_simple_types@UEntry@LT@@@std@@@std@@@std@@YAPEAV?$_Deque_val@U?$_Deque_simple_types@UEntry@LT@@@std@@@0@AEAV10@@Z DB 02H
	DB	00H
	DB	00H
xdata	ENDS
;	COMDAT xdata
xdata	SEGMENT
$cppxdata$??$addressof@V?$_Deque_val@U?$_Deque_simple_types@UEntry@LT@@@std@@@std@@@std@@YAPEAV?$_Deque_val@U?$_Deque_simple_types@UEntry@LT@@@std@@@0@AEAV10@@Z DB 060H
	DD	imagerel $ip2state$??$addressof@V?$_Deque_val@U?$_Deque_simple_types@UEntry@LT@@@std@@@std@@@std@@YAPEAV?$_Deque_val@U?$_Deque_simple_types@UEntry@LT@@@std@@@0@AEAV10@@Z
xdata	ENDS
;	COMDAT xdata
xdata	SEGMENT
$unwind$??$addressof@V?$_Deque_val@U?$_Deque_simple_types@UEntry@LT@@@std@@@std@@@std@@YAPEAV?$_Deque_val@U?$_Deque_simple_types@UEntry@LT@@@std@@@0@AEAV10@@Z DD 025052a19H
	DD	010e2313H
	DD	07007001dH
	DD	05006H
	DD	imagerel __CxxFrameHandler4
	DD	imagerel $cppxdata$??$addressof@V?$_Deque_val@U?$_Deque_simple_types@UEntry@LT@@@std@@@std@@@std@@YAPEAV?$_Deque_val@U?$_Deque_simple_types@UEntry@LT@@@std@@@0@AEAV10@@Z
xdata	ENDS
;	COMDAT xdata
xdata	SEGMENT
$unwind$??$_Get_size_of_n@$0CA@@std@@YA_K_K@Z DD 025052a01H
	DD	010e2313H
	DD	070070025H
	DD	05006H
xdata	ENDS
;	COMDAT xdata
xdata	SEGMENT
$unwind$??$_Allocate@$0BA@U_Default_allocate_traits@std@@$0A@@std@@YAPEAX_K@Z DD 025052a01H
	DD	010e2313H
	DD	07007001dH
	DD	05006H
xdata	ENDS
;	COMDAT xdata
xdata	SEGMENT
$unwind$??$_Get_size_of_n@$0BA@@std@@YA_K_K@Z DD 025052a01H
	DD	010e2313H
	DD	070070025H
	DD	05006H
xdata	ENDS
;	COMDAT xdata
xdata	SEGMENT
$unwind$??0?$_Deque_unchecked_iterator@V?$_Deque_val@U?$_Deque_simple_types@UEntry@LT@@@std@@@std@@@std@@QEAA@_KPEBU_Container_base12@1@@Z DD 025053401H
	DD	0118231dH
	DD	07011001dH
	DD	05010H
xdata	ENDS
;	COMDAT xdata
xdata	SEGMENT
$unwind$?__autoclassinit2@?$_Deque_unchecked_iterator@V?$_Deque_val@U?$_Deque_simple_types@UEntry@LT@@@std@@@std@@@std@@QEAAX_K@Z DD 05052d01H
	DD	01130316H
	DD	0700c0019H
	DD	0500bH
xdata	ENDS
;	COMDAT xdata
xdata	SEGMENT
$unwind$??G?$_Deque_unchecked_iterator@V?$_Deque_val@U?$_Deque_simple_types@UEntry@LT@@@std@@@std@@@std@@QEBA?AV01@_J@Z DD 025064619H
	DD	0119231eH
	DD	070120022H
	DD	050106011H
	DD	imagerel __GSHandlerCheck
	DD	0108H
xdata	ENDS
;	COMDAT CONST
CONST	SEGMENT
??G?$_Deque_unchecked_iterator@V?$_Deque_val@U?$_Deque_simple_types@UEntry@LT@@@std@@@std@@@std@@QEBA?AV01@_J@Z$rtcName$0 DB 05fH ; std::_Deque_unchecked_iterator<std::_Deque_val<std::_Deque_simple_types<LT::Entry> > >::operator-
	DB	054H
	DB	06dH
	DB	070H
	DB	00H
	ORG $+11
??G?$_Deque_unchecked_iterator@V?$_Deque_val@U?$_Deque_simple_types@UEntry@LT@@@std@@@std@@@std@@QEBA?AV01@_J@Z$rtcVarDesc DD 028H ; std::_Deque_unchecked_iterator<std::_Deque_val<std::_Deque_simple_types<LT::Entry> > >::operator-
	DD	010H
	DQ	FLAT:??G?$_Deque_unchecked_iterator@V?$_Deque_val@U?$_Deque_simple_types@UEntry@LT@@@std@@@std@@@std@@QEBA?AV01@_J@Z$rtcName$0
	ORG $+48
??G?$_Deque_unchecked_iterator@V?$_Deque_val@U?$_Deque_simple_types@UEntry@LT@@@std@@@std@@@std@@QEBA?AV01@_J@Z$rtcFrameData DD 01H ; std::_Deque_unchecked_iterator<std::_Deque_val<std::_Deque_simple_types<LT::Entry> > >::operator-
	DD	00H
	DQ	FLAT:??G?$_Deque_unchecked_iterator@V?$_Deque_val@U?$_Deque_simple_types@UEntry@LT@@@std@@@std@@@std@@QEBA?AV01@_J@Z$rtcVarDesc
CONST	ENDS
;	COMDAT xdata
xdata	SEGMENT
$unwind$??Z?$_Deque_unchecked_iterator@V?$_Deque_val@U?$_Deque_simple_types@UEntry@LT@@@std@@@std@@@std@@QEAAAEAV01@_J@Z DD 025052f01H
	DD	01132318H
	DD	0700c001dH
	DD	0500bH
xdata	ENDS
;	COMDAT xdata
xdata	SEGMENT
$unwind$??D?$_Deque_unchecked_iterator@V?$_Deque_val@U?$_Deque_simple_types@UEntry@LT@@@std@@@std@@@std@@QEBAAEAUEntry@LT@@XZ DD 025052a01H
	DD	010e2313H
	DD	07007001dH
	DD	05006H
xdata	ENDS
;	COMDAT xdata
xdata	SEGMENT
$unwind$??Z?$_Deque_unchecked_const_iterator@V?$_Deque_val@U?$_Deque_simple_types@UEntry@LT@@@std@@@std@@@std@@QEAAAEAV01@_J@Z DD 025052f01H
	DD	01132318H
	DD	0700c001dH
	DD	0500bH
xdata	ENDS
;	COMDAT xdata
xdata	SEGMENT
$unwind$??D?$_Deque_unchecked_const_iterator@V?$_Deque_val@U?$_Deque_simple_types@UEntry@LT@@@std@@@std@@@std@@QEBAAEBUEntry@LT@@XZ DD 025052a01H
	DD	010e2313H
	DD	070070025H
	DD	05006H
xdata	ENDS
;	COMDAT xdata
xdata	SEGMENT
$ip2state$??0?$_Deque_unchecked_const_iterator@V?$_Deque_val@U?$_Deque_simple_types@UEntry@LT@@@std@@@std@@@std@@QEAA@_KPEBU_Container_base12@1@@Z DB 02H
	DB	00H
	DB	00H
xdata	ENDS
;	COMDAT xdata
xdata	SEGMENT
$cppxdata$??0?$_Deque_unchecked_const_iterator@V?$_Deque_val@U?$_Deque_simple_types@UEntry@LT@@@std@@@std@@@std@@QEAA@_KPEBU_Container_base12@1@@Z DB 060H
	DD	imagerel $ip2state$??0?$_Deque_unchecked_const_iterator@V?$_Deque_val@U?$_Deque_simple_types@UEntry@LT@@@std@@@std@@@std@@QEAA@_KPEBU_Container_base12@1@@Z
xdata	ENDS
;	COMDAT xdata
xdata	SEGMENT
$unwind$??0?$_Deque_unchecked_const_iterator@V?$_Deque_val@U?$_Deque_simple_types@UEntry@LT@@@std@@@std@@@std@@QEAA@_KPEBU_Container_base12@1@@Z DD 025053419H
	DD	0118231dH
	DD	07011001dH
	DD	05010H
	DD	imagerel __CxxFrameHandler4
	DD	imagerel $cppxdata$??0?$_Deque_unchecked_const_iterator@V?$_Deque_val@U?$_Deque_simple_types@UEntry@LT@@@std@@@std@@@std@@QEAA@_KPEBU_Container_base12@1@@Z
xdata	ENDS
;	COMDAT xdata
xdata	SEGMENT
$unwind$??$_Emplace_back_internal@AEBUEntry@LT@@@?$deque@UEntry@LT@@V?$allocator@UEntry@LT@@@std@@@std@@AEAAXAEBUEntry@LT@@@Z DD 025052f01H
	DD	01132318H
	DD	0700c0027H
	DD	0500bH
xdata	ENDS
;	COMDAT xdata
xdata	SEGMENT
$unwind$??$destroy@UEntry@LT@@@?$_Default_allocator_traits@V?$allocator@UEntry@LT@@@std@@@std@@SAXAEAV?$allocator@UEntry@LT@@@1@QEAUEntry@LT@@@Z DD 025052f01H
	DD	01132318H
	DD	0700c001dH
	DD	0500bH
xdata	ENDS
;	COMDAT xdata
xdata	SEGMENT
$ip2state$??$_Unfancy@UEntry@LT@@@std@@YAPEAUEntry@LT@@PEAU12@@Z DB 02H
	DB	00H
	DB	00H
xdata	ENDS
;	COMDAT xdata
xdata	SEGMENT
$cppxdata$??$_Unfancy@UEntry@LT@@@std@@YAPEAUEntry@LT@@PEAU12@@Z DB 060H
	DD	imagerel $ip2state$??$_Unfancy@UEntry@LT@@@std@@YAPEAUEntry@LT@@PEAU12@@Z
xdata	ENDS
;	COMDAT xdata
xdata	SEGMENT
$unwind$??$_Unfancy@UEntry@LT@@@std@@YAPEAUEntry@LT@@PEAU12@@Z DD 025052a19H
	DD	010e2313H
	DD	07007001dH
	DD	05006H
	DD	imagerel __CxxFrameHandler4
	DD	imagerel $cppxdata$??$_Unfancy@UEntry@LT@@@std@@YAPEAUEntry@LT@@PEAU12@@Z
xdata	ENDS
;	COMDAT xdata
xdata	SEGMENT
$ip2state$??$_Destroy_in_place@PEAUEntry@LT@@@std@@YAXAEAPEAUEntry@LT@@@Z DB 02H
	DB	00H
	DB	00H
xdata	ENDS
;	COMDAT xdata
xdata	SEGMENT
$cppxdata$??$_Destroy_in_place@PEAUEntry@LT@@@std@@YAXAEAPEAUEntry@LT@@@Z DB 060H
	DD	imagerel $ip2state$??$_Destroy_in_place@PEAUEntry@LT@@@std@@YAXAEAPEAUEntry@LT@@@Z
xdata	ENDS
;	COMDAT xdata
xdata	SEGMENT
$unwind$??$_Destroy_in_place@PEAUEntry@LT@@@std@@YAXAEAPEAUEntry@LT@@@Z DD 025052a19H
	DD	010e2313H
	DD	07007001dH
	DD	05006H
	DD	imagerel __CxxFrameHandler4
	DD	imagerel $cppxdata$??$_Destroy_in_place@PEAUEntry@LT@@@std@@YAXAEAPEAUEntry@LT@@@Z
xdata	ENDS
;	COMDAT xdata
xdata	SEGMENT
$ip2state$??$?0UEntry@LT@@@?$allocator@PEAUEntry@LT@@@std@@QEAA@AEBV?$allocator@UEntry@LT@@@1@@Z DB 02H
	DB	00H
	DB	00H
xdata	ENDS
;	COMDAT xdata
xdata	SEGMENT
$cppxdata$??$?0UEntry@LT@@@?$allocator@PEAUEntry@LT@@@std@@QEAA@AEBV?$allocator@UEntry@LT@@@1@@Z DB 060H
	DD	imagerel $ip2state$??$?0UEntry@LT@@@?$allocator@PEAUEntry@LT@@@std@@QEAA@AEBV?$allocator@UEntry@LT@@@1@@Z
xdata	ENDS
;	COMDAT xdata
xdata	SEGMENT
$unwind$??$?0UEntry@LT@@@?$allocator@PEAUEntry@LT@@@std@@QEAA@AEBV?$allocator@UEntry@LT@@@1@@Z DD 025052f19H
	DD	01132318H
	DD	0700c001dH
	DD	0500bH
	DD	imagerel __CxxFrameHandler4
	DD	imagerel $cppxdata$??$?0UEntry@LT@@@?$allocator@PEAUEntry@LT@@@std@@QEAA@AEBV?$allocator@UEntry@LT@@@1@@Z
xdata	ENDS
;	COMDAT xdata
xdata	SEGMENT
$ip2state$??$_Freenode@V?$allocator@U?$_List_node@UEntry@LT@@PEAX@std@@@std@@@?$_List_node@UEntry@LT@@PEAX@std@@SAXAEAV?$allocator@U?$_List_node@UEntry@LT@@PEAX@std@@@1@PEAU01@@Z DB 02H
	DB	00H
	DB	00H
xdata	ENDS
;	COMDAT xdata
xdata	SEGMENT
$cppxdata$??$_Freenode@V?$allocator@U?$_List_node@UEntry@LT@@PEAX@std@@@std@@@?$_List_node@UEntry@LT@@PEAX@std@@SAXAEAV?$allocator@U?$_List_node@UEntry@LT@@PEAX@std@@@1@PEAU01@@Z DB 060H
	DD	imagerel $ip2state$??$_Freenode@V?$allocator@U?$_List_node@UEntry@LT@@PEAX@std@@@std@@@?$_List_node@UEntry@LT@@PEAX@std@@SAXAEAV?$allocator@U?$_List_node@UEntry@LT@@PEAX@std@@@1@PEAU01@@Z
xdata	ENDS
;	COMDAT xdata
xdata	SEGMENT
$unwind$??$_Freenode@V?$allocator@U?$_List_node@UEntry@LT@@PEAX@std@@@std@@@?$_List_node@UEntry@LT@@PEAX@std@@SAXAEAV?$allocator@U?$_List_node@UEntry@LT@@PEAX@std@@@1@PEAU01@@Z DD 025052f19H
	DD	01132318H
	DD	0700c001dH
	DD	0500bH
	DD	imagerel __CxxFrameHandler4
	DD	imagerel $cppxdata$??$_Freenode@V?$allocator@U?$_List_node@UEntry@LT@@PEAX@std@@@std@@@?$_List_node@UEntry@LT@@PEAX@std@@SAXAEAV?$allocator@U?$_List_node@UEntry@LT@@PEAX@std@@@1@PEAU01@@Z
xdata	ENDS
;	COMDAT xdata
xdata	SEGMENT
$ip2state$??$_Freenode0@V?$allocator@U?$_List_node@UEntry@LT@@PEAX@std@@@std@@@?$_List_node@UEntry@LT@@PEAX@std@@SAXAEAV?$allocator@U?$_List_node@UEntry@LT@@PEAX@std@@@1@PEAU01@@Z DB 02H
	DB	00H
	DB	00H
xdata	ENDS
;	COMDAT xdata
xdata	SEGMENT
$cppxdata$??$_Freenode0@V?$allocator@U?$_List_node@UEntry@LT@@PEAX@std@@@std@@@?$_List_node@UEntry@LT@@PEAX@std@@SAXAEAV?$allocator@U?$_List_node@UEntry@LT@@PEAX@std@@@1@PEAU01@@Z DB 060H
	DD	imagerel $ip2state$??$_Freenode0@V?$allocator@U?$_List_node@UEntry@LT@@PEAX@std@@@std@@@?$_List_node@UEntry@LT@@PEAX@std@@SAXAEAV?$allocator@U?$_List_node@UEntry@LT@@PEAX@std@@@1@PEAU01@@Z
xdata	ENDS
;	COMDAT xdata
xdata	SEGMENT
$unwind$??$_Freenode0@V?$allocator@U?$_List_node@UEntry@LT@@PEAX@std@@@std@@@?$_List_node@UEntry@LT@@PEAX@std@@SAXAEAV?$allocator@U?$_List_node@UEntry@LT@@PEAX@std@@@1@PEAU01@@Z DD 025052f19H
	DD	01132318H
	DD	0700c001dH
	DD	0500bH
	DD	imagerel __CxxFrameHandler4
	DD	imagerel $cppxdata$??$_Freenode0@V?$allocator@U?$_List_node@UEntry@LT@@PEAX@std@@@std@@@?$_List_node@UEntry@LT@@PEAX@std@@SAXAEAV?$allocator@U?$_List_node@UEntry@LT@@PEAX@std@@@1@PEAU01@@Z
xdata	ENDS
;	COMDAT xdata
xdata	SEGMENT
$ip2state$??$_Free_non_head@V?$allocator@U?$_List_node@UEntry@LT@@PEAX@std@@@std@@@?$_List_node@UEntry@LT@@PEAX@std@@SAXAEAV?$allocator@U?$_List_node@UEntry@LT@@PEAX@std@@@1@PEAU01@@Z DB 02H
	DB	00H
	DB	00H
xdata	ENDS
;	COMDAT xdata
xdata	SEGMENT
$cppxdata$??$_Free_non_head@V?$allocator@U?$_List_node@UEntry@LT@@PEAX@std@@@std@@@?$_List_node@UEntry@LT@@PEAX@std@@SAXAEAV?$allocator@U?$_List_node@UEntry@LT@@PEAX@std@@@1@PEAU01@@Z DB 060H
	DD	imagerel $ip2state$??$_Free_non_head@V?$allocator@U?$_List_node@UEntry@LT@@PEAX@std@@@std@@@?$_List_node@UEntry@LT@@PEAX@std@@SAXAEAV?$allocator@U?$_List_node@UEntry@LT@@PEAX@std@@@1@PEAU01@@Z
xdata	ENDS
;	COMDAT xdata
xdata	SEGMENT
$unwind$??$_Free_non_head@V?$allocator@U?$_List_node@UEntry@LT@@PEAX@std@@@std@@@?$_List_node@UEntry@LT@@PEAX@std@@SAXAEAV?$allocator@U?$_List_node@UEntry@LT@@PEAX@std@@@1@PEAU01@@Z DD 025052f19H
	DD	01132318H
	DD	0700c0025H
	DD	0500bH
	DD	imagerel __CxxFrameHandler4
	DD	imagerel $cppxdata$??$_Free_non_head@V?$allocator@U?$_List_node@UEntry@LT@@PEAX@std@@@std@@@?$_List_node@UEntry@LT@@PEAX@std@@SAXAEAV?$allocator@U?$_List_node@UEntry@LT@@PEAX@std@@@1@PEAU01@@Z
xdata	ENDS
;	COMDAT xdata
xdata	SEGMENT
$ip2state$??$_Construct_in_place@PEAU?$_List_node@UEntry@LT@@PEAX@std@@AEAPEAU12@@std@@YAXAEAPEAU?$_List_node@UEntry@LT@@PEAX@0@0@Z DB 02H
	DB	00H
	DB	00H
xdata	ENDS
;	COMDAT xdata
xdata	SEGMENT
$cppxdata$??$_Construct_in_place@PEAU?$_List_node@UEntry@LT@@PEAX@std@@AEAPEAU12@@std@@YAXAEAPEAU?$_List_node@UEntry@LT@@PEAX@0@0@Z DB 060H
	DD	imagerel $ip2state$??$_Construct_in_place@PEAU?$_List_node@UEntry@LT@@PEAX@std@@AEAPEAU12@@std@@YAXAEAPEAU?$_List_node@UEntry@LT@@PEAX@0@0@Z
xdata	ENDS
;	COMDAT xdata
xdata	SEGMENT
$unwind$??$_Construct_in_place@PEAU?$_List_node@UEntry@LT@@PEAX@std@@AEAPEAU12@@std@@YAXAEAPEAU?$_List_node@UEntry@LT@@PEAX@0@0@Z DD 025052f19H
	DD	01132318H
	DD	0700c0021H
	DD	0500bH
	DD	imagerel __CxxFrameHandler4
	DD	imagerel $cppxdata$??$_Construct_in_place@PEAU?$_List_node@UEntry@LT@@PEAX@std@@AEAPEAU12@@std@@YAXAEAPEAU?$_List_node@UEntry@LT@@PEAX@0@0@Z
xdata	ENDS
;	COMDAT xdata
xdata	SEGMENT
$ip2state$??$_Unfancy@U_Container_proxy@std@@@std@@YAPEAU_Container_proxy@0@PEAU10@@Z DB 02H
	DB	00H
	DB	00H
xdata	ENDS
;	COMDAT xdata
xdata	SEGMENT
$cppxdata$??$_Unfancy@U_Container_proxy@std@@@std@@YAPEAU_Container_proxy@0@PEAU10@@Z DB 060H
	DD	imagerel $ip2state$??$_Unfancy@U_Container_proxy@std@@@std@@YAPEAU_Container_proxy@0@PEAU10@@Z
xdata	ENDS
;	COMDAT xdata
xdata	SEGMENT
$unwind$??$_Unfancy@U_Container_proxy@std@@@std@@YAPEAU_Container_proxy@0@PEAU10@@Z DD 025052a19H
	DD	010e2313H
	DD	07007001dH
	DD	05006H
	DD	imagerel __CxxFrameHandler4
	DD	imagerel $cppxdata$??$_Unfancy@U_Container_proxy@std@@@std@@YAPEAU_Container_proxy@0@PEAU10@@Z
xdata	ENDS
;	COMDAT xdata
xdata	SEGMENT
$ip2state$??1?$_Container_proxy_ptr12@V?$allocator@U_Container_proxy@std@@@std@@@std@@QEAA@XZ DB 02H
	DB	00H
	DB	00H
xdata	ENDS
;	COMDAT xdata
xdata	SEGMENT
$cppxdata$??1?$_Container_proxy_ptr12@V?$allocator@U_Container_proxy@std@@@std@@@std@@QEAA@XZ DB 060H
	DD	imagerel $ip2state$??1?$_Container_proxy_ptr12@V?$allocator@U_Container_proxy@std@@@std@@@std@@QEAA@XZ
xdata	ENDS
;	COMDAT xdata
xdata	SEGMENT
$unwind$??1?$_Container_proxy_ptr12@V?$allocator@U_Container_proxy@std@@@std@@@std@@QEAA@XZ DD 025052a19H
	DD	010e2313H
	DD	07007001dH
	DD	05006H
	DD	imagerel __CxxFrameHandler4
	DD	imagerel $cppxdata$??1?$_Container_proxy_ptr12@V?$allocator@U_Container_proxy@std@@@std@@@std@@QEAA@XZ
xdata	ENDS
;	COMDAT xdata
xdata	SEGMENT
$unwind$??0?$_Container_proxy_ptr12@V?$allocator@U_Container_proxy@std@@@std@@@std@@QEAA@AEAV?$allocator@U_Container_proxy@std@@@1@AEAU_Container_base12@1@@Z DD 025053401H
	DD	0118231dH
	DD	070110021H
	DD	05010H
xdata	ENDS
;	COMDAT xdata
xdata	SEGMENT
$ip2state$??$min@_K@std@@YAAEB_KAEB_K0@Z DB 02H
	DB	00H
	DB	00H
xdata	ENDS
;	COMDAT xdata
xdata	SEGMENT
$cppxdata$??$min@_K@std@@YAAEB_KAEB_K0@Z DB 060H
	DD	imagerel $ip2state$??$min@_K@std@@YAAEB_KAEB_K0@Z
xdata	ENDS
;	COMDAT xdata
xdata	SEGMENT
$unwind$??$min@_K@std@@YAAEB_KAEB_K0@Z DD 025052f19H
	DD	01132318H
	DD	0700c0021H
	DD	0500bH
	DD	imagerel __CxxFrameHandler4
	DD	imagerel $cppxdata$??$min@_K@std@@YAAEB_KAEB_K0@Z
xdata	ENDS
;	COMDAT xdata
xdata	SEGMENT
$unwind$??$_Alloc_proxy@V?$allocator@U_Container_proxy@std@@@std@@@_Container_base12@std@@QEAAX$$QEAV?$allocator@U_Container_proxy@std@@@1@@Z DD 025052f01H
	DD	01132318H
	DD	0700c0025H
	DD	0500bH
xdata	ENDS
;	COMDAT xdata
xdata	SEGMENT
$ip2state$??$?0$$V@?$_Compressed_pair@V?$allocator@UEntry@LT@@@std@@V?$_Deque_val@U?$_Deque_simple_types@UEntry@LT@@@std@@@2@$00@std@@QEAA@U_Zero_then_variadic_args_t@1@@Z DB 02H
	DB	00H
	DB	00H
xdata	ENDS
;	COMDAT xdata
xdata	SEGMENT
$cppxdata$??$?0$$V@?$_Compressed_pair@V?$allocator@UEntry@LT@@@std@@V?$_Deque_val@U?$_Deque_simple_types@UEntry@LT@@@std@@@2@$00@std@@QEAA@U_Zero_then_variadic_args_t@1@@Z DB 060H
	DD	imagerel $ip2state$??$?0$$V@?$_Compressed_pair@V?$allocator@UEntry@LT@@@std@@V?$_Deque_val@U?$_Deque_simple_types@UEntry@LT@@@std@@@2@$00@std@@QEAA@U_Zero_then_variadic_args_t@1@@Z
xdata	ENDS
;	COMDAT xdata
xdata	SEGMENT
$unwind$??$?0$$V@?$_Compressed_pair@V?$allocator@UEntry@LT@@@std@@V?$_Deque_val@U?$_Deque_simple_types@UEntry@LT@@@std@@@2@$00@std@@QEAA@U_Zero_then_variadic_args_t@1@@Z DD 025052e19H
	DD	01122317H
	DD	0700b001dH
	DD	0500aH
	DD	imagerel __CxxFrameHandler4
	DD	imagerel $cppxdata$??$?0$$V@?$_Compressed_pair@V?$allocator@UEntry@LT@@@std@@V?$_Deque_val@U?$_Deque_simple_types@UEntry@LT@@@std@@@2@$00@std@@QEAA@U_Zero_then_variadic_args_t@1@@Z
xdata	ENDS
;	COMDAT xdata
xdata	SEGMENT
$ip2state$??$exchange@PEAU_Container_proxy@std@@$$T@std@@YAPEAU_Container_proxy@0@AEAPEAU10@$$QEA$$T@Z DB 02H
	DB	00H
	DB	00H
xdata	ENDS
;	COMDAT xdata
xdata	SEGMENT
$cppxdata$??$exchange@PEAU_Container_proxy@std@@$$T@std@@YAPEAU_Container_proxy@0@AEAPEAU10@$$QEA$$T@Z DB 060H
	DD	imagerel $ip2state$??$exchange@PEAU_Container_proxy@std@@$$T@std@@YAPEAU_Container_proxy@0@AEAPEAU10@$$QEA$$T@Z
xdata	ENDS
;	COMDAT xdata
xdata	SEGMENT
$unwind$??$exchange@PEAU_Container_proxy@std@@$$T@std@@YAPEAU_Container_proxy@0@AEAPEAU10@$$QEA$$T@Z DD 025052f19H
	DD	01132318H
	DD	0700c0021H
	DD	0500bH
	DD	imagerel __CxxFrameHandler4
	DD	imagerel $cppxdata$??$exchange@PEAU_Container_proxy@std@@$$T@std@@YAPEAU_Container_proxy@0@AEAPEAU10@$$QEA$$T@Z
xdata	ENDS
;	COMDAT xdata
xdata	SEGMENT
$ip2state$??$?0UEntry@LT@@@?$allocator@U_Container_proxy@std@@@std@@QEAA@AEBV?$allocator@UEntry@LT@@@1@@Z DB 02H
	DB	00H
	DB	00H
xdata	ENDS
;	COMDAT xdata
xdata	SEGMENT
$cppxdata$??$?0UEntry@LT@@@?$allocator@U_Container_proxy@std@@@std@@QEAA@AEBV?$allocator@UEntry@LT@@@1@@Z DB 060H
	DD	imagerel $ip2state$??$?0UEntry@LT@@@?$allocator@U_Container_proxy@std@@@std@@QEAA@AEBV?$allocator@UEntry@LT@@@1@@Z
xdata	ENDS
;	COMDAT xdata
xdata	SEGMENT
$unwind$??$?0UEntry@LT@@@?$allocator@U_Container_proxy@std@@@std@@QEAA@AEBV?$allocator@UEntry@LT@@@1@@Z DD 025052f19H
	DD	01132318H
	DD	0700c001dH
	DD	0500bH
	DD	imagerel __CxxFrameHandler4
	DD	imagerel $cppxdata$??$?0UEntry@LT@@@?$allocator@U_Container_proxy@std@@@std@@QEAA@AEBV?$allocator@UEntry@LT@@@1@@Z
xdata	ENDS
;	COMDAT xdata
xdata	SEGMENT
$ip2state$??$?0$$V@?$_Compressed_pair@V?$allocator@U?$_List_node@UEntry@LT@@PEAX@std@@@std@@V?$_List_val@U?$_List_simple_types@UEntry@LT@@@std@@@2@$00@std@@QEAA@U_Zero_then_variadic_args_t@1@@Z DB 02H
	DB	00H
	DB	00H
xdata	ENDS
;	COMDAT xdata
xdata	SEGMENT
$cppxdata$??$?0$$V@?$_Compressed_pair@V?$allocator@U?$_List_node@UEntry@LT@@PEAX@std@@@std@@V?$_List_val@U?$_List_simple_types@UEntry@LT@@@std@@@2@$00@std@@QEAA@U_Zero_then_variadic_args_t@1@@Z DB 060H
	DD	imagerel $ip2state$??$?0$$V@?$_Compressed_pair@V?$allocator@U?$_List_node@UEntry@LT@@PEAX@std@@@std@@V?$_List_val@U?$_List_simple_types@UEntry@LT@@@std@@@2@$00@std@@QEAA@U_Zero_then_variadic_args_t@1@@Z
xdata	ENDS
;	COMDAT xdata
xdata	SEGMENT
$unwind$??$?0$$V@?$_Compressed_pair@V?$allocator@U?$_List_node@UEntry@LT@@PEAX@std@@@std@@V?$_List_val@U?$_List_simple_types@UEntry@LT@@@std@@@2@$00@std@@QEAA@U_Zero_then_variadic_args_t@1@@Z DD 025052e19H
	DD	01122317H
	DD	0700b001dH
	DD	0500aH
	DD	imagerel __CxxFrameHandler4
	DD	imagerel $cppxdata$??$?0$$V@?$_Compressed_pair@V?$allocator@U?$_List_node@UEntry@LT@@PEAX@std@@@std@@V?$_List_val@U?$_List_simple_types@UEntry@LT@@@std@@@2@$00@std@@QEAA@U_Zero_then_variadic_args_t@1@@Z
xdata	ENDS
;	COMDAT xdata
xdata	SEGMENT
$ip2state$??$_Delete_plain_internal@V?$allocator@U_Container_proxy@std@@@std@@@std@@YAXAEAV?$allocator@U_Container_proxy@std@@@0@QEAU_Container_proxy@0@@Z DB 02H
	DB	00H
	DB	00H
xdata	ENDS
;	COMDAT xdata
xdata	SEGMENT
$cppxdata$??$_Delete_plain_internal@V?$allocator@U_Container_proxy@std@@@std@@@std@@YAXAEAV?$allocator@U_Container_proxy@std@@@0@QEAU_Container_proxy@0@@Z DB 060H
	DD	imagerel $ip2state$??$_Delete_plain_internal@V?$allocator@U_Container_proxy@std@@@std@@@std@@YAXAEAV?$allocator@U_Container_proxy@std@@@0@QEAU_Container_proxy@0@@Z
xdata	ENDS
;	COMDAT xdata
xdata	SEGMENT
$unwind$??$_Delete_plain_internal@V?$allocator@U_Container_proxy@std@@@std@@@std@@YAXAEAV?$allocator@U_Container_proxy@std@@@0@QEAU_Container_proxy@0@@Z DD 025052f19H
	DD	01132318H
	DD	0700c001dH
	DD	0500bH
	DD	imagerel __CxxFrameHandler4
	DD	imagerel $cppxdata$??$_Delete_plain_internal@V?$allocator@U_Container_proxy@std@@@std@@@std@@YAXAEAV?$allocator@U_Container_proxy@std@@@0@QEAU_Container_proxy@0@@Z
xdata	ENDS
;	COMDAT xdata
xdata	SEGMENT
$ip2state$??$?0U?$_List_node@UEntry@LT@@PEAX@std@@@?$allocator@U_Container_proxy@std@@@std@@QEAA@AEBV?$allocator@U?$_List_node@UEntry@LT@@PEAX@std@@@1@@Z DB 02H
	DB	00H
	DB	00H
xdata	ENDS
;	COMDAT xdata
xdata	SEGMENT
$cppxdata$??$?0U?$_List_node@UEntry@LT@@PEAX@std@@@?$allocator@U_Container_proxy@std@@@std@@QEAA@AEBV?$allocator@U?$_List_node@UEntry@LT@@PEAX@std@@@1@@Z DB 060H
	DD	imagerel $ip2state$??$?0U?$_List_node@UEntry@LT@@PEAX@std@@@?$allocator@U_Container_proxy@std@@@std@@QEAA@AEBV?$allocator@U?$_List_node@UEntry@LT@@PEAX@std@@@1@@Z
xdata	ENDS
;	COMDAT xdata
xdata	SEGMENT
$unwind$??$?0U?$_List_node@UEntry@LT@@PEAX@std@@@?$allocator@U_Container_proxy@std@@@std@@QEAA@AEBV?$allocator@U?$_List_node@UEntry@LT@@PEAX@std@@@1@@Z DD 025052f19H
	DD	01132318H
	DD	0700c001dH
	DD	0500bH
	DD	imagerel __CxxFrameHandler4
	DD	imagerel $cppxdata$??$?0U?$_List_node@UEntry@LT@@PEAX@std@@@?$allocator@U_Container_proxy@std@@@std@@QEAA@AEBV?$allocator@U?$_List_node@UEntry@LT@@PEAX@std@@@1@@Z
xdata	ENDS
;	COMDAT xdata
xdata	SEGMENT
$unwind$?allocate@?$allocator@U_Container_proxy@std@@@std@@QEAAPEAU_Container_proxy@2@_K@Z DD 025052f01H
	DD	01132318H
	DD	0700c001dH
	DD	0500bH
xdata	ENDS
;	COMDAT xdata
xdata	SEGMENT
$unwind$??$_Emplace@AEBUEntry@LT@@@?$list@UEntry@LT@@V?$allocator@UEntry@LT@@@std@@@std@@QEAAPEAU?$_List_node@UEntry@LT@@PEAX@1@QEAU21@AEBUEntry@LT@@@Z DD 025054519H
	DD	0118231dH
	DD	07011002dH
	DD	05010H
	DD	imagerel __GSHandlerCheck
	DD	0158H
xdata	ENDS
;	COMDAT CONST
CONST	SEGMENT
??$_Emplace@AEBUEntry@LT@@@?$list@UEntry@LT@@V?$allocator@UEntry@LT@@@std@@@std@@QEAAPEAU?$_List_node@UEntry@LT@@PEAX@1@QEAU21@AEBUEntry@LT@@@Z$rtcName$0 DB 05fH ; std::list<LT::Entry,std::allocator<LT::Entry> >::_Emplace<LT::Entry const &>
	DB	04fH
	DB	070H
	DB	00H
	ORG $+12
??$_Emplace@AEBUEntry@LT@@@?$list@UEntry@LT@@V?$allocator@UEntry@LT@@@std@@@std@@QEAAPEAU?$_List_node@UEntry@LT@@PEAX@1@QEAU21@AEBUEntry@LT@@@Z$rtcVarDesc DD 048H ; std::list<LT::Entry,std::allocator<LT::Entry> >::_Emplace<LT::Entry const &>
	DD	010H
	DQ	FLAT:??$_Emplace@AEBUEntry@LT@@@?$list@UEntry@LT@@V?$allocator@UEntry@LT@@@std@@@std@@QEAAPEAU?$_List_node@UEntry@LT@@PEAX@1@QEAU21@AEBUEntry@LT@@@Z$rtcName$0
	ORG $+48
??$_Emplace@AEBUEntry@LT@@@?$list@UEntry@LT@@V?$allocator@UEntry@LT@@@std@@@std@@QEAAPEAU?$_List_node@UEntry@LT@@PEAX@1@QEAU21@AEBUEntry@LT@@@Z$rtcFrameData DD 01H ; std::list<LT::Entry,std::allocator<LT::Entry> >::_Emplace<LT::Entry const &>
	DD	00H
	DQ	FLAT:??$_Emplace@AEBUEntry@LT@@@?$list@UEntry@LT@@V?$allocator@UEntry@LT@@@std@@@std@@QEAAPEAU?$_List_node@UEntry@LT@@PEAX@1@QEAU21@AEBUEntry@LT@@@Z$rtcVarDesc
CONST	ENDS
;	COMDAT xdata
xdata	SEGMENT
$unwind$?__autoclassinit2@?$list@UEntry@LT@@V?$allocator@UEntry@LT@@@std@@@std@@QEAAX_K@Z DD 05052d01H
	DD	01130316H
	DD	0700c0019H
	DD	0500bH
xdata	ENDS
;	COMDAT xdata
xdata	SEGMENT
$ip2state$?_Get_first@?$_Compressed_pair@V?$allocator@U?$_List_node@UEntry@LT@@PEAX@std@@@std@@V?$_List_val@U?$_List_simple_types@UEntry@LT@@@std@@@2@$00@std@@QEBAAEBV?$allocator@U?$_List_node@UEntry@LT@@PEAX@std@@@2@XZ DB 02H
	DB	00H
	DB	00H
xdata	ENDS
;	COMDAT xdata
xdata	SEGMENT
$cppxdata$?_Get_first@?$_Compressed_pair@V?$allocator@U?$_List_node@UEntry@LT@@PEAX@std@@@std@@V?$_List_val@U?$_List_simple_types@UEntry@LT@@@std@@@2@$00@std@@QEBAAEBV?$allocator@U?$_List_node@UEntry@LT@@PEAX@std@@@2@XZ DB 060H
	DD	imagerel $ip2state$?_Get_first@?$_Compressed_pair@V?$allocator@U?$_List_node@UEntry@LT@@PEAX@std@@@std@@V?$_List_val@U?$_List_simple_types@UEntry@LT@@@std@@@2@$00@std@@QEBAAEBV?$allocator@U?$_List_node@UEntry@LT@@PEAX@std@@@2@XZ
xdata	ENDS
;	COMDAT xdata
xdata	SEGMENT
$unwind$?_Get_first@?$_Compressed_pair@V?$allocator@U?$_List_node@UEntry@LT@@PEAX@std@@@std@@V?$_List_val@U?$_List_simple_types@UEntry@LT@@@std@@@2@$00@std@@QEBAAEBV?$allocator@U?$_List_node@UEntry@LT@@PEAX@std@@@2@XZ DD 025052a19H
	DD	010e2313H
	DD	07007001dH
	DD	05006H
	DD	imagerel __CxxFrameHandler4
	DD	imagerel $cppxdata$?_Get_first@?$_Compressed_pair@V?$allocator@U?$_List_node@UEntry@LT@@PEAX@std@@@std@@V?$_List_val@U?$_List_simple_types@UEntry@LT@@@std@@@2@$00@std@@QEBAAEBV?$allocator@U?$_List_node@UEntry@LT@@PEAX@std@@@2@XZ
xdata	ENDS
;	COMDAT xdata
xdata	SEGMENT
$ip2state$?_Get_first@?$_Compressed_pair@V?$allocator@U?$_List_node@UEntry@LT@@PEAX@std@@@std@@V?$_List_val@U?$_List_simple_types@UEntry@LT@@@std@@@2@$00@std@@QEAAAEAV?$allocator@U?$_List_node@UEntry@LT@@PEAX@std@@@2@XZ DB 02H
	DB	00H
	DB	00H
xdata	ENDS
;	COMDAT xdata
xdata	SEGMENT
$cppxdata$?_Get_first@?$_Compressed_pair@V?$allocator@U?$_List_node@UEntry@LT@@PEAX@std@@@std@@V?$_List_val@U?$_List_simple_types@UEntry@LT@@@std@@@2@$00@std@@QEAAAEAV?$allocator@U?$_List_node@UEntry@LT@@PEAX@std@@@2@XZ DB 060H
	DD	imagerel $ip2state$?_Get_first@?$_Compressed_pair@V?$allocator@U?$_List_node@UEntry@LT@@PEAX@std@@@std@@V?$_List_val@U?$_List_simple_types@UEntry@LT@@@std@@@2@$00@std@@QEAAAEAV?$allocator@U?$_List_node@UEntry@LT@@PEAX@std@@@2@XZ
xdata	ENDS
;	COMDAT xdata
xdata	SEGMENT
$unwind$?_Get_first@?$_Compressed_pair@V?$allocator@U?$_List_node@UEntry@LT@@PEAX@std@@@std@@V?$_List_val@U?$_List_simple_types@UEntry@LT@@@std@@@2@$00@std@@QEAAAEAV?$allocator@U?$_List_node@UEntry@LT@@PEAX@std@@@2@XZ DD 025052a19H
	DD	010e2313H
	DD	07007001dH
	DD	05006H
	DD	imagerel __CxxFrameHandler4
	DD	imagerel $cppxdata$?_Get_first@?$_Compressed_pair@V?$allocator@U?$_List_node@UEntry@LT@@PEAX@std@@@std@@V?$_List_val@U?$_List_simple_types@UEntry@LT@@@std@@@2@$00@std@@QEAAAEAV?$allocator@U?$_List_node@UEntry@LT@@PEAX@std@@@2@XZ
xdata	ENDS
;	COMDAT xdata
xdata	SEGMENT
$ip2state$?_Orphan_ptr2@?$_List_val@U?$_List_simple_types@UEntry@LT@@@std@@@std@@QEAAXPEAU?$_List_node@UEntry@LT@@PEAX@2@@Z DB 02H
	DB	00H
	DB	00H
xdata	ENDS
;	COMDAT xdata
xdata	SEGMENT
$cppxdata$?_Orphan_ptr2@?$_List_val@U?$_List_simple_types@UEntry@LT@@@std@@@std@@QEAAXPEAU?$_List_node@UEntry@LT@@PEAX@2@@Z DB 060H
	DD	imagerel $ip2state$?_Orphan_ptr2@?$_List_val@U?$_List_simple_types@UEntry@LT@@@std@@@std@@QEAAXPEAU?$_List_node@UEntry@LT@@PEAX@2@@Z
xdata	ENDS
;	COMDAT xdata
xdata	SEGMENT
$unwind$?_Orphan_ptr2@?$_List_val@U?$_List_simple_types@UEntry@LT@@@std@@@std@@QEAAXPEAU?$_List_node@UEntry@LT@@PEAX@2@@Z DD 025054019H
	DD	01132318H
	DD	0700c0031H
	DD	0500bH
	DD	imagerel __GSHandlerCheck_EH4
	DD	imagerel $cppxdata$?_Orphan_ptr2@?$_List_val@U?$_List_simple_types@UEntry@LT@@@std@@@std@@QEAAXPEAU?$_List_node@UEntry@LT@@PEAX@2@@Z
	DD	017bH
xdata	ENDS
;	COMDAT CONST
CONST	SEGMENT
?_Orphan_ptr2@?$_List_val@U?$_List_simple_types@UEntry@LT@@@std@@@std@@QEAAXPEAU?$_List_node@UEntry@LT@@PEAX@2@@Z$rtcName$0 DB 05fH ; std::_List_val<std::_List_simple_types<LT::Entry> >::_Orphan_ptr2
	DB	04cH
	DB	06fH
	DB	063H
	DB	06bH
	DB	00H
	ORG $+10
?_Orphan_ptr2@?$_List_val@U?$_List_simple_types@UEntry@LT@@@std@@@std@@QEAAXPEAU?$_List_node@UEntry@LT@@PEAX@2@@Z$rtcVarDesc DD 024H ; std::_List_val<std::_List_simple_types<LT::Entry> >::_Orphan_ptr2
	DD	04H
	DQ	FLAT:?_Orphan_ptr2@?$_List_val@U?$_List_simple_types@UEntry@LT@@@std@@@std@@QEAAXPEAU?$_List_node@UEntry@LT@@PEAX@2@@Z$rtcName$0
	ORG $+48
?_Orphan_ptr2@?$_List_val@U?$_List_simple_types@UEntry@LT@@@std@@@std@@QEAAXPEAU?$_List_node@UEntry@LT@@PEAX@2@@Z$rtcFrameData DD 01H ; std::_List_val<std::_List_simple_types<LT::Entry> >::_Orphan_ptr2
	DD	00H
	DQ	FLAT:?_Orphan_ptr2@?$_List_val@U?$_List_simple_types@UEntry@LT@@@std@@@std@@QEAAXPEAU?$_List_node@UEntry@LT@@PEAX@2@@Z$rtcVarDesc
CONST	ENDS
;	COMDAT xdata
xdata	SEGMENT
$ip2state$??0?$_List_val@U?$_List_simple_types@UEntry@LT@@@std@@@std@@QEAA@XZ DB 02H
	DB	00H
	DB	00H
xdata	ENDS
;	COMDAT xdata
xdata	SEGMENT
$cppxdata$??0?$_List_val@U?$_List_simple_types@UEntry@LT@@@std@@@std@@QEAA@XZ DB 060H
	DD	imagerel $ip2state$??0?$_List_val@U?$_List_simple_types@UEntry@LT@@@std@@@std@@QEAA@XZ
xdata	ENDS
;	COMDAT xdata
xdata	SEGMENT
$unwind$??0?$_List_val@U?$_List_simple_types@UEntry@LT@@@std@@@std@@QEAA@XZ DD 025052a19H
	DD	010e2313H
	DD	07007001dH
	DD	05006H
	DD	imagerel __CxxFrameHandler4
	DD	imagerel $cppxdata$??0?$_List_val@U?$_List_simple_types@UEntry@LT@@@std@@@std@@QEAA@XZ
xdata	ENDS
;	COMDAT xdata
xdata	SEGMENT
$ip2state$?_Getal@?$list@UEntry@LT@@V?$allocator@UEntry@LT@@@std@@@std@@AEBAAEBV?$allocator@U?$_List_node@UEntry@LT@@PEAX@std@@@2@XZ DB 02H
	DB	00H
	DB	00H
xdata	ENDS
;	COMDAT xdata
xdata	SEGMENT
$cppxdata$?_Getal@?$list@UEntry@LT@@V?$allocator@UEntry@LT@@@std@@@std@@AEBAAEBV?$allocator@U?$_List_node@UEntry@LT@@PEAX@std@@@2@XZ DB 060H
	DD	imagerel $ip2state$?_Getal@?$list@UEntry@LT@@V?$allocator@UEntry@LT@@@std@@@std@@AEBAAEBV?$allocator@U?$_List_node@UEntry@LT@@PEAX@std@@@2@XZ
xdata	ENDS
;	COMDAT xdata
xdata	SEGMENT
$unwind$?_Getal@?$list@UEntry@LT@@V?$allocator@UEntry@LT@@@std@@@std@@AEBAAEBV?$allocator@U?$_List_node@UEntry@LT@@PEAX@std@@@2@XZ DD 025052a19H
	DD	010e2313H
	DD	07007001dH
	DD	05006H
	DD	imagerel __CxxFrameHandler4
	DD	imagerel $cppxdata$?_Getal@?$list@UEntry@LT@@V?$allocator@UEntry@LT@@@std@@@std@@AEBAAEBV?$allocator@U?$_List_node@UEntry@LT@@PEAX@std@@@2@XZ
xdata	ENDS
;	COMDAT xdata
xdata	SEGMENT
$ip2state$?_Getal@?$list@UEntry@LT@@V?$allocator@UEntry@LT@@@std@@@std@@AEAAAEAV?$allocator@U?$_List_node@UEntry@LT@@PEAX@std@@@2@XZ DB 02H
	DB	00H
	DB	00H
xdata	ENDS
;	COMDAT xdata
xdata	SEGMENT
$cppxdata$?_Getal@?$list@UEntry@LT@@V?$allocator@UEntry@LT@@@std@@@std@@AEAAAEAV?$allocator@U?$_List_node@UEntry@LT@@PEAX@std@@@2@XZ DB 060H
	DD	imagerel $ip2state$?_Getal@?$list@UEntry@LT@@V?$allocator@UEntry@LT@@@std@@@std@@AEAAAEAV?$allocator@U?$_List_node@UEntry@LT@@PEAX@std@@@2@XZ
xdata	ENDS
;	COMDAT xdata
xdata	SEGMENT
$unwind$?_Getal@?$list@UEntry@LT@@V?$allocator@UEntry@LT@@@std@@@std@@AEAAAEAV?$allocator@U?$_List_node@UEntry@LT@@PEAX@std@@@2@XZ DD 025052a19H
	DD	010e2313H
	DD	07007001dH
	DD	05006H
	DD	imagerel __CxxFrameHandler4
	DD	imagerel $cppxdata$?_Getal@?$list@UEntry@LT@@V?$allocator@UEntry@LT@@@std@@@std@@AEAAAEAV?$allocator@U?$_List_node@UEntry@LT@@PEAX@std@@@2@XZ
xdata	ENDS
;	COMDAT xdata
xdata	SEGMENT
$unwind$?dtor$0@?0??_Alloc_sentinel_and_proxy@?$list@UEntry@LT@@V?$allocator@UEntry@LT@@@std@@@std@@AEAAXXZ@4HA DD 031001H
	DD	0700c4210H
	DD	0500bH
xdata	ENDS
;	COMDAT xdata
xdata	SEGMENT
$ip2state$?_Alloc_sentinel_and_proxy@?$list@UEntry@LT@@V?$allocator@UEntry@LT@@@std@@@std@@AEAAXXZ DB 06H
	DB	00H
	DB	00H
	DB	0feH
	DB	02H
	DB	0e2H
	DB	00H
xdata	ENDS
;	COMDAT xdata
xdata	SEGMENT
$stateUnwindMap$?_Alloc_sentinel_and_proxy@?$list@UEntry@LT@@V?$allocator@UEntry@LT@@@std@@@std@@AEAAXXZ DB 02H
	DB	0eH
	DD	imagerel ?dtor$0@?0??_Alloc_sentinel_and_proxy@?$list@UEntry@LT@@V?$allocator@UEntry@LT@@@std@@@std@@AEAAXXZ@4HA
xdata	ENDS
;	COMDAT xdata
xdata	SEGMENT
$cppxdata$?_Alloc_sentinel_and_proxy@?$list@UEntry@LT@@V?$allocator@UEntry@LT@@@std@@@std@@AEAAXXZ DB 028H
	DD	imagerel $stateUnwindMap$?_Alloc_sentinel_and_proxy@?$list@UEntry@LT@@V?$allocator@UEntry@LT@@@std@@@std@@AEAAXXZ
	DD	imagerel $ip2state$?_Alloc_sentinel_and_proxy@?$list@UEntry@LT@@V?$allocator@UEntry@LT@@@std@@@std@@AEAAXXZ
xdata	ENDS
;	COMDAT xdata
xdata	SEGMENT
$unwind$?_Alloc_sentinel_and_proxy@?$list@UEntry@LT@@V?$allocator@UEntry@LT@@@std@@@std@@AEAAXXZ DD 025053b19H
	DD	010e2313H
	DD	070070033H
	DD	05006H
	DD	imagerel __GSHandlerCheck_EH4
	DD	imagerel $cppxdata$?_Alloc_sentinel_and_proxy@?$list@UEntry@LT@@V?$allocator@UEntry@LT@@@std@@@std@@AEAAXXZ
	DD	018aH
xdata	ENDS
;	COMDAT CONST
CONST	SEGMENT
?_Alloc_sentinel_and_proxy@?$list@UEntry@LT@@V?$allocator@UEntry@LT@@@std@@@std@@AEAAXXZ$rtcName$0 DB 024H ; std::list<LT::Entry,std::allocator<LT::Entry> >::_Alloc_sentinel_and_proxy
	DB	053H
	DB	031H
	DB	034H
	DB	00H
	ORG $+3
?_Alloc_sentinel_and_proxy@?$list@UEntry@LT@@V?$allocator@UEntry@LT@@@std@@@std@@AEAAXXZ$rtcName$1 DB 05fH ; std::list<LT::Entry,std::allocator<LT::Entry> >::_Alloc_sentinel_and_proxy
	DB	050H
	DB	072H
	DB	06fH
	DB	078H
	DB	079H
	DB	00H
	ORG $+1
?_Alloc_sentinel_and_proxy@?$list@UEntry@LT@@V?$allocator@UEntry@LT@@@std@@@std@@AEAAXXZ$rtcName$2 DB 05fH ; std::list<LT::Entry,std::allocator<LT::Entry> >::_Alloc_sentinel_and_proxy
	DB	04eH
	DB	065H
	DB	077H
	DB	068H
	DB	065H
	DB	061H
	DB	064H
	DB	00H
	ORG $+7
?_Alloc_sentinel_and_proxy@?$list@UEntry@LT@@V?$allocator@UEntry@LT@@@std@@@std@@AEAAXXZ$rtcVarDesc DD 0b8H ; std::list<LT::Entry,std::allocator<LT::Entry> >::_Alloc_sentinel_and_proxy
	DD	08H
	DQ	FLAT:?_Alloc_sentinel_and_proxy@?$list@UEntry@LT@@V?$allocator@UEntry@LT@@@std@@@std@@AEAAXXZ$rtcName$2
	DD	068H
	DD	010H
	DQ	FLAT:?_Alloc_sentinel_and_proxy@?$list@UEntry@LT@@V?$allocator@UEntry@LT@@@std@@@std@@AEAAXXZ$rtcName$1
	DD	044H
	DD	01H
	DQ	FLAT:?_Alloc_sentinel_and_proxy@?$list@UEntry@LT@@V?$allocator@UEntry@LT@@@std@@@std@@AEAAXXZ$rtcName$0
	ORG $+144
?_Alloc_sentinel_and_proxy@?$list@UEntry@LT@@V?$allocator@UEntry@LT@@@std@@@std@@AEAAXXZ$rtcFrameData DD 03H ; std::list<LT::Entry,std::allocator<LT::Entry> >::_Alloc_sentinel_and_proxy
	DD	00H
	DQ	FLAT:?_Alloc_sentinel_and_proxy@?$list@UEntry@LT@@V?$allocator@UEntry@LT@@@std@@@std@@AEAAXXZ$rtcVarDesc
CONST	ENDS
;	COMDAT xdata
xdata	SEGMENT
$ip2state$?_Tidy@?$list@UEntry@LT@@V?$allocator@UEntry@LT@@@std@@@std@@AEAAXXZ DB 02H
	DB	00H
	DB	00H
xdata	ENDS
;	COMDAT xdata
xdata	SEGMENT
$cppxdata$?_Tidy@?$list@UEntry@LT@@V?$allocator@UEntry@LT@@@std@@@std@@AEAAXXZ DB 060H
	DD	imagerel $ip2state$?_Tidy@?$list@UEntry@LT@@V?$allocator@UEntry@LT@@@std@@@std@@AEAAXXZ
xdata	ENDS
;	COMDAT xdata
xdata	SEGMENT
$unwind$?_Tidy@?$list@UEntry@LT@@V?$allocator@UEntry@LT@@@std@@@std@@AEAAXXZ DD 025052a19H
	DD	010e2313H
	DD	070070025H
	DD	05006H
	DD	imagerel __CxxFrameHandler4
	DD	imagerel $cppxdata$?_Tidy@?$list@UEntry@LT@@V?$allocator@UEntry@LT@@@std@@@std@@AEAAXXZ
xdata	ENDS
;	COMDAT xdata
xdata	SEGMENT
$ip2state$?_Unchecked_erase@?$list@UEntry@LT@@V?$allocator@UEntry@LT@@@std@@@std@@AEAAPEAU?$_List_node@UEntry@LT@@PEAX@2@QEAU32@@Z DB 02H
	DB	00H
	DB	00H
xdata	ENDS
;	COMDAT xdata
xdata	SEGMENT
$cppxdata$?_Unchecked_erase@?$list@UEntry@LT@@V?$allocator@UEntry@LT@@@std@@@std@@AEAAPEAU?$_List_node@UEntry@LT@@PEAX@2@QEAU32@@Z DB 060H
	DD	imagerel $ip2state$?_Unchecked_erase@?$list@UEntry@LT@@V?$allocator@UEntry@LT@@@std@@@std@@AEAAPEAU?$_List_node@UEntry@LT@@PEAX@2@QEAU32@@Z
xdata	ENDS
;	COMDAT xdata
xdata	SEGMENT
$unwind$?_Unchecked_erase@?$list@UEntry@LT@@V?$allocator@UEntry@LT@@@std@@@std@@AEAAPEAU?$_List_node@UEntry@LT@@PEAX@2@QEAU32@@Z DD 025052f19H
	DD	01132318H
	DD	0700c0021H
	DD	0500bH
	DD	imagerel __CxxFrameHandler4
	DD	imagerel $cppxdata$?_Unchecked_erase@?$list@UEntry@LT@@V?$allocator@UEntry@LT@@@std@@@std@@AEAAPEAU?$_List_node@UEntry@LT@@PEAX@2@QEAU32@@Z
xdata	ENDS
;	COMDAT xdata
xdata	SEGMENT
$unwind$?push_back@?$list@UEntry@LT@@V?$allocator@UEntry@LT@@@std@@@std@@QEAAXAEBUEntry@LT@@@Z DD 025052f01H
	DD	01132318H
	DD	0700c001dH
	DD	0500bH
xdata	ENDS
;	COMDAT xdata
xdata	SEGMENT
$ip2state$?pop_front@?$list@UEntry@LT@@V?$allocator@UEntry@LT@@@std@@@std@@QEAAXXZ DB 02H
	DB	00H
	DB	00H
xdata	ENDS
;	COMDAT xdata
xdata	SEGMENT
$cppxdata$?pop_front@?$list@UEntry@LT@@V?$allocator@UEntry@LT@@@std@@@std@@QEAAXXZ DB 060H
	DD	imagerel $ip2state$?pop_front@?$list@UEntry@LT@@V?$allocator@UEntry@LT@@@std@@@std@@QEAAXXZ
xdata	ENDS
;	COMDAT xdata
xdata	SEGMENT
$unwind$?pop_front@?$list@UEntry@LT@@V?$allocator@UEntry@LT@@@std@@@std@@QEAAXXZ DD 035052a19H
	DD	010e3313H
	DD	07007001fH
	DD	05006H
	DD	imagerel __CxxFrameHandler4
	DD	imagerel $cppxdata$?pop_front@?$list@UEntry@LT@@V?$allocator@UEntry@LT@@@std@@@std@@QEAAXXZ
xdata	ENDS
;	COMDAT xdata
xdata	SEGMENT
$ip2state$?front@?$list@UEntry@LT@@V?$allocator@UEntry@LT@@@std@@@std@@QEAAAEAUEntry@LT@@XZ DB 02H
	DB	00H
	DB	00H
xdata	ENDS
;	COMDAT xdata
xdata	SEGMENT
$cppxdata$?front@?$list@UEntry@LT@@V?$allocator@UEntry@LT@@@std@@@std@@QEAAAEAUEntry@LT@@XZ DB 060H
	DD	imagerel $ip2state$?front@?$list@UEntry@LT@@V?$allocator@UEntry@LT@@@std@@@std@@QEAAAEAUEntry@LT@@XZ
xdata	ENDS
;	COMDAT xdata
xdata	SEGMENT
$unwind$?front@?$list@UEntry@LT@@V?$allocator@UEntry@LT@@@std@@@std@@QEAAAEAUEntry@LT@@XZ DD 035052a19H
	DD	010e3313H
	DD	07007001fH
	DD	05006H
	DD	imagerel __CxxFrameHandler4
	DD	imagerel $cppxdata$?front@?$list@UEntry@LT@@V?$allocator@UEntry@LT@@@std@@@std@@QEAAAEAUEntry@LT@@XZ
xdata	ENDS
;	COMDAT xdata
xdata	SEGMENT
$ip2state$?empty@?$list@UEntry@LT@@V?$allocator@UEntry@LT@@@std@@@std@@QEBA_NXZ DB 02H
	DB	00H
	DB	00H
xdata	ENDS
;	COMDAT xdata
xdata	SEGMENT
$cppxdata$?empty@?$list@UEntry@LT@@V?$allocator@UEntry@LT@@@std@@@std@@QEBA_NXZ DB 060H
	DD	imagerel $ip2state$?empty@?$list@UEntry@LT@@V?$allocator@UEntry@LT@@@std@@@std@@QEBA_NXZ
xdata	ENDS
;	COMDAT xdata
xdata	SEGMENT
$unwind$?empty@?$list@UEntry@LT@@V?$allocator@UEntry@LT@@@std@@@std@@QEBA_NXZ DD 025052a19H
	DD	010e2313H
	DD	07007001fH
	DD	05006H
	DD	imagerel __CxxFrameHandler4
	DD	imagerel $cppxdata$?empty@?$list@UEntry@LT@@V?$allocator@UEntry@LT@@@std@@@std@@QEBA_NXZ
xdata	ENDS
;	COMDAT xdata
xdata	SEGMENT
$ip2state$?max_size@?$list@UEntry@LT@@V?$allocator@UEntry@LT@@@std@@@std@@QEBA_KXZ DB 02H
	DB	00H
	DB	00H
xdata	ENDS
;	COMDAT xdata
xdata	SEGMENT
$cppxdata$?max_size@?$list@UEntry@LT@@V?$allocator@UEntry@LT@@@std@@@std@@QEBA_KXZ DB 060H
	DD	imagerel $ip2state$?max_size@?$list@UEntry@LT@@V?$allocator@UEntry@LT@@@std@@@std@@QEBA_KXZ
xdata	ENDS
;	COMDAT xdata
xdata	SEGMENT
$unwind$?max_size@?$list@UEntry@LT@@V?$allocator@UEntry@LT@@@std@@@std@@QEBA_KXZ DD 025052a19H
	DD	010e2313H
	DD	070070025H
	DD	05006H
	DD	imagerel __CxxFrameHandler4
	DD	imagerel $cppxdata$?max_size@?$list@UEntry@LT@@V?$allocator@UEntry@LT@@@std@@@std@@QEBA_KXZ
xdata	ENDS
;	COMDAT xdata
xdata	SEGMENT
$ip2state$??1?$list@UEntry@LT@@V?$allocator@UEntry@LT@@@std@@@std@@QEAA@XZ DB 02H
	DB	00H
	DB	00H
xdata	ENDS
;	COMDAT xdata
xdata	SEGMENT
$cppxdata$??1?$list@UEntry@LT@@V?$allocator@UEntry@LT@@@std@@@std@@QEAA@XZ DB 060H
	DD	imagerel $ip2state$??1?$list@UEntry@LT@@V?$allocator@UEntry@LT@@@std@@@std@@QEAA@XZ
xdata	ENDS
;	COMDAT xdata
xdata	SEGMENT
$unwind$??1?$list@UEntry@LT@@V?$allocator@UEntry@LT@@@std@@@std@@QEAA@XZ DD 025053b19H
	DD	010e2313H
	DD	070070025H
	DD	05006H
	DD	imagerel __GSHandlerCheck_EH4
	DD	imagerel $cppxdata$??1?$list@UEntry@LT@@V?$allocator@UEntry@LT@@@std@@@std@@QEAA@XZ
	DD	011bH
xdata	ENDS
;	COMDAT CONST
CONST	SEGMENT
??1?$list@UEntry@LT@@V?$allocator@UEntry@LT@@@std@@@std@@QEAA@XZ$rtcName$0 DB 024H ; std::list<LT::Entry,std::allocator<LT::Entry> >::~list<LT::Entry,std::allocator<LT::Entry> >
	DB	053H
	DB	031H
	DB	00H
	ORG $+12
??1?$list@UEntry@LT@@V?$allocator@UEntry@LT@@@std@@@std@@QEAA@XZ$rtcVarDesc DD 044H ; std::list<LT::Entry,std::allocator<LT::Entry> >::~list<LT::Entry,std::allocator<LT::Entry> >
	DD	01H
	DQ	FLAT:??1?$list@UEntry@LT@@V?$allocator@UEntry@LT@@@std@@@std@@QEAA@XZ$rtcName$0
	ORG $+48
??1?$list@UEntry@LT@@V?$allocator@UEntry@LT@@@std@@@std@@QEAA@XZ$rtcFrameData DD 01H ; std::list<LT::Entry,std::allocator<LT::Entry> >::~list<LT::Entry,std::allocator<LT::Entry> >
	DD	00H
	DQ	FLAT:??1?$list@UEntry@LT@@V?$allocator@UEntry@LT@@@std@@@std@@QEAA@XZ$rtcVarDesc
CONST	ENDS
;	COMDAT xdata
xdata	SEGMENT
$unwind$??0?$list@UEntry@LT@@V?$allocator@UEntry@LT@@@std@@@std@@QEAA@XZ DD 025052a01H
	DD	010e2313H
	DD	070070021H
	DD	05006H
xdata	ENDS
;	COMDAT xdata
xdata	SEGMENT
$ip2state$?max_size@?$_Default_allocator_traits@V?$allocator@U?$_List_node@UEntry@LT@@PEAX@std@@@std@@@std@@SA_KAEBV?$allocator@U?$_List_node@UEntry@LT@@PEAX@std@@@2@@Z DB 02H
	DB	00H
	DB	00H
xdata	ENDS
;	COMDAT xdata
xdata	SEGMENT
$cppxdata$?max_size@?$_Default_allocator_traits@V?$allocator@U?$_List_node@UEntry@LT@@PEAX@std@@@std@@@std@@SA_KAEBV?$allocator@U?$_List_node@UEntry@LT@@PEAX@std@@@2@@Z DB 060H
	DD	imagerel $ip2state$?max_size@?$_Default_allocator_traits@V?$allocator@U?$_List_node@UEntry@LT@@PEAX@std@@@std@@@std@@SA_KAEBV?$allocator@U?$_List_node@UEntry@LT@@PEAX@std@@@2@@Z
xdata	ENDS
;	COMDAT xdata
xdata	SEGMENT
$unwind$?max_size@?$_Default_allocator_traits@V?$allocator@U?$_List_node@UEntry@LT@@PEAX@std@@@std@@@std@@SA_KAEBV?$allocator@U?$_List_node@UEntry@LT@@PEAX@std@@@2@@Z DD 025052a19H
	DD	010e2313H
	DD	07007001dH
	DD	05006H
	DD	imagerel __CxxFrameHandler4
	DD	imagerel $cppxdata$?max_size@?$_Default_allocator_traits@V?$allocator@U?$_List_node@UEntry@LT@@PEAX@std@@@std@@@std@@SA_KAEBV?$allocator@U?$_List_node@UEntry@LT@@PEAX@std@@@2@@Z
xdata	ENDS
;	COMDAT xdata
xdata	SEGMENT
$unwind$?deallocate@?$_Default_allocator_traits@V?$allocator@U?$_List_node@UEntry@LT@@PEAX@std@@@std@@@std@@SAXAEAV?$allocator@U?$_List_node@UEntry@LT@@PEAX@std@@@2@QEAU?$_List_node@UEntry@LT@@PEAX@2@_K@Z DD 025053401H
	DD	0118231dH
	DD	07011001dH
	DD	05010H
xdata	ENDS
;	COMDAT xdata
xdata	SEGMENT
$unwind$?allocate@?$allocator@U?$_List_node@UEntry@LT@@PEAX@std@@@std@@QEAAPEAU?$_List_node@UEntry@LT@@PEAX@2@_K@Z DD 025052f01H
	DD	01132318H
	DD	0700c001dH
	DD	0500bH
xdata	ENDS
;	COMDAT xdata
xdata	SEGMENT
$unwind$?deallocate@?$allocator@U?$_List_node@UEntry@LT@@PEAX@std@@@std@@QEAAXQEAU?$_List_node@UEntry@LT@@PEAX@2@_K@Z DD 025053401H
	DD	0118231dH
	DD	07011001dH
	DD	05010H
xdata	ENDS
;	COMDAT xdata
xdata	SEGMENT
$ip2state$??0?$allocator@U?$_List_node@UEntry@LT@@PEAX@std@@@std@@QEAA@XZ DB 02H
	DB	00H
	DB	00H
xdata	ENDS
;	COMDAT xdata
xdata	SEGMENT
$cppxdata$??0?$allocator@U?$_List_node@UEntry@LT@@PEAX@std@@@std@@QEAA@XZ DB 060H
	DD	imagerel $ip2state$??0?$allocator@U?$_List_node@UEntry@LT@@PEAX@std@@@std@@QEAA@XZ
xdata	ENDS
;	COMDAT xdata
xdata	SEGMENT
$unwind$??0?$allocator@U?$_List_node@UEntry@LT@@PEAX@std@@@std@@QEAA@XZ DD 025052a19H
	DD	010e2313H
	DD	07007001dH
	DD	05006H
	DD	imagerel __CxxFrameHandler4
	DD	imagerel $cppxdata$??0?$allocator@U?$_List_node@UEntry@LT@@PEAX@std@@@std@@QEAA@XZ
xdata	ENDS
;	COMDAT xdata
xdata	SEGMENT
$unwind$?__autoclassinit2@?$stack@UEntry@LT@@V?$deque@UEntry@LT@@V?$allocator@UEntry@LT@@@std@@@std@@@std@@QEAAX_K@Z DD 05052d01H
	DD	01130316H
	DD	0700c0019H
	DD	0500bH
xdata	ENDS
;	COMDAT xdata
xdata	SEGMENT
$unwind$??1?$stack@UEntry@LT@@V?$deque@UEntry@LT@@V?$allocator@UEntry@LT@@@std@@@std@@@std@@QEAA@XZ DD 025052a01H
	DD	010e2313H
	DD	07007001dH
	DD	05006H
xdata	ENDS
;	COMDAT xdata
xdata	SEGMENT
$ip2state$?pop@?$stack@UEntry@LT@@V?$deque@UEntry@LT@@V?$allocator@UEntry@LT@@@std@@@std@@@std@@QEAAXXZ DB 02H
	DB	00H
	DB	00H
xdata	ENDS
;	COMDAT xdata
xdata	SEGMENT
$cppxdata$?pop@?$stack@UEntry@LT@@V?$deque@UEntry@LT@@V?$allocator@UEntry@LT@@@std@@@std@@@std@@QEAAXXZ DB 060H
	DD	imagerel $ip2state$?pop@?$stack@UEntry@LT@@V?$deque@UEntry@LT@@V?$allocator@UEntry@LT@@@std@@@std@@@std@@QEAAXXZ
xdata	ENDS
;	COMDAT xdata
xdata	SEGMENT
$unwind$?pop@?$stack@UEntry@LT@@V?$deque@UEntry@LT@@V?$allocator@UEntry@LT@@@std@@@std@@@std@@QEAAXXZ DD 025052a19H
	DD	010e2313H
	DD	07007001dH
	DD	05006H
	DD	imagerel __CxxFrameHandler4
	DD	imagerel $cppxdata$?pop@?$stack@UEntry@LT@@V?$deque@UEntry@LT@@V?$allocator@UEntry@LT@@@std@@@std@@@std@@QEAAXXZ
xdata	ENDS
;	COMDAT xdata
xdata	SEGMENT
$unwind$?push@?$stack@UEntry@LT@@V?$deque@UEntry@LT@@V?$allocator@UEntry@LT@@@std@@@std@@@std@@QEAAXAEBUEntry@LT@@@Z DD 025052f01H
	DD	01132318H
	DD	0700c001dH
	DD	0500bH
xdata	ENDS
;	COMDAT xdata
xdata	SEGMENT
$ip2state$?top@?$stack@UEntry@LT@@V?$deque@UEntry@LT@@V?$allocator@UEntry@LT@@@std@@@std@@@std@@QEAAAEAUEntry@LT@@XZ DB 02H
	DB	00H
	DB	00H
xdata	ENDS
;	COMDAT xdata
xdata	SEGMENT
$cppxdata$?top@?$stack@UEntry@LT@@V?$deque@UEntry@LT@@V?$allocator@UEntry@LT@@@std@@@std@@@std@@QEAAAEAUEntry@LT@@XZ DB 060H
	DD	imagerel $ip2state$?top@?$stack@UEntry@LT@@V?$deque@UEntry@LT@@V?$allocator@UEntry@LT@@@std@@@std@@@std@@QEAAAEAUEntry@LT@@XZ
xdata	ENDS
;	COMDAT xdata
xdata	SEGMENT
$unwind$?top@?$stack@UEntry@LT@@V?$deque@UEntry@LT@@V?$allocator@UEntry@LT@@@std@@@std@@@std@@QEAAAEAUEntry@LT@@XZ DD 025052a19H
	DD	010e2313H
	DD	07007001dH
	DD	05006H
	DD	imagerel __CxxFrameHandler4
	DD	imagerel $cppxdata$?top@?$stack@UEntry@LT@@V?$deque@UEntry@LT@@V?$allocator@UEntry@LT@@@std@@@std@@@std@@QEAAAEAUEntry@LT@@XZ
xdata	ENDS
;	COMDAT xdata
xdata	SEGMENT
$ip2state$?empty@?$stack@UEntry@LT@@V?$deque@UEntry@LT@@V?$allocator@UEntry@LT@@@std@@@std@@@std@@QEBA_NXZ DB 02H
	DB	00H
	DB	00H
xdata	ENDS
;	COMDAT xdata
xdata	SEGMENT
$cppxdata$?empty@?$stack@UEntry@LT@@V?$deque@UEntry@LT@@V?$allocator@UEntry@LT@@@std@@@std@@@std@@QEBA_NXZ DB 060H
	DD	imagerel $ip2state$?empty@?$stack@UEntry@LT@@V?$deque@UEntry@LT@@V?$allocator@UEntry@LT@@@std@@@std@@@std@@QEBA_NXZ
xdata	ENDS
;	COMDAT xdata
xdata	SEGMENT
$unwind$?empty@?$stack@UEntry@LT@@V?$deque@UEntry@LT@@V?$allocator@UEntry@LT@@@std@@@std@@@std@@QEBA_NXZ DD 025052a19H
	DD	010e2313H
	DD	07007001dH
	DD	05006H
	DD	imagerel __CxxFrameHandler4
	DD	imagerel $cppxdata$?empty@?$stack@UEntry@LT@@V?$deque@UEntry@LT@@V?$allocator@UEntry@LT@@@std@@@std@@@std@@QEBA_NXZ
xdata	ENDS
;	COMDAT xdata
xdata	SEGMENT
$ip2state$??0?$stack@UEntry@LT@@V?$deque@UEntry@LT@@V?$allocator@UEntry@LT@@@std@@@std@@@std@@QEAA@XZ DB 02H
	DB	00H
	DB	00H
xdata	ENDS
;	COMDAT xdata
xdata	SEGMENT
$cppxdata$??0?$stack@UEntry@LT@@V?$deque@UEntry@LT@@V?$allocator@UEntry@LT@@@std@@@std@@@std@@QEAA@XZ DB 060H
	DD	imagerel $ip2state$??0?$stack@UEntry@LT@@V?$deque@UEntry@LT@@V?$allocator@UEntry@LT@@@std@@@std@@@std@@QEAA@XZ
xdata	ENDS
;	COMDAT xdata
xdata	SEGMENT
$unwind$??0?$stack@UEntry@LT@@V?$deque@UEntry@LT@@V?$allocator@UEntry@LT@@@std@@@std@@@std@@QEAA@XZ DD 025052a19H
	DD	010e2313H
	DD	07007001dH
	DD	05006H
	DD	imagerel __CxxFrameHandler4
	DD	imagerel $cppxdata$??0?$stack@UEntry@LT@@V?$deque@UEntry@LT@@V?$allocator@UEntry@LT@@@std@@@std@@@std@@QEAA@XZ
xdata	ENDS
;	COMDAT xdata
xdata	SEGMENT
$ip2state$?_Get_first@?$_Compressed_pair@V?$allocator@UEntry@LT@@@std@@V?$_Deque_val@U?$_Deque_simple_types@UEntry@LT@@@std@@@2@$00@std@@QEBAAEBV?$allocator@UEntry@LT@@@2@XZ DB 02H
	DB	00H
	DB	00H
xdata	ENDS
;	COMDAT xdata
xdata	SEGMENT
$cppxdata$?_Get_first@?$_Compressed_pair@V?$allocator@UEntry@LT@@@std@@V?$_Deque_val@U?$_Deque_simple_types@UEntry@LT@@@std@@@2@$00@std@@QEBAAEBV?$allocator@UEntry@LT@@@2@XZ DB 060H
	DD	imagerel $ip2state$?_Get_first@?$_Compressed_pair@V?$allocator@UEntry@LT@@@std@@V?$_Deque_val@U?$_Deque_simple_types@UEntry@LT@@@std@@@2@$00@std@@QEBAAEBV?$allocator@UEntry@LT@@@2@XZ
xdata	ENDS
;	COMDAT xdata
xdata	SEGMENT
$unwind$?_Get_first@?$_Compressed_pair@V?$allocator@UEntry@LT@@@std@@V?$_Deque_val@U?$_Deque_simple_types@UEntry@LT@@@std@@@2@$00@std@@QEBAAEBV?$allocator@UEntry@LT@@@2@XZ DD 025052a19H
	DD	010e2313H
	DD	07007001dH
	DD	05006H
	DD	imagerel __CxxFrameHandler4
	DD	imagerel $cppxdata$?_Get_first@?$_Compressed_pair@V?$allocator@UEntry@LT@@@std@@V?$_Deque_val@U?$_Deque_simple_types@UEntry@LT@@@std@@@2@$00@std@@QEBAAEBV?$allocator@UEntry@LT@@@2@XZ
xdata	ENDS
;	COMDAT xdata
xdata	SEGMENT
$ip2state$?_Get_first@?$_Compressed_pair@V?$allocator@UEntry@LT@@@std@@V?$_Deque_val@U?$_Deque_simple_types@UEntry@LT@@@std@@@2@$00@std@@QEAAAEAV?$allocator@UEntry@LT@@@2@XZ DB 02H
	DB	00H
	DB	00H
xdata	ENDS
;	COMDAT xdata
xdata	SEGMENT
$cppxdata$?_Get_first@?$_Compressed_pair@V?$allocator@UEntry@LT@@@std@@V?$_Deque_val@U?$_Deque_simple_types@UEntry@LT@@@std@@@2@$00@std@@QEAAAEAV?$allocator@UEntry@LT@@@2@XZ DB 060H
	DD	imagerel $ip2state$?_Get_first@?$_Compressed_pair@V?$allocator@UEntry@LT@@@std@@V?$_Deque_val@U?$_Deque_simple_types@UEntry@LT@@@std@@@2@$00@std@@QEAAAEAV?$allocator@UEntry@LT@@@2@XZ
xdata	ENDS
;	COMDAT xdata
xdata	SEGMENT
$unwind$?_Get_first@?$_Compressed_pair@V?$allocator@UEntry@LT@@@std@@V?$_Deque_val@U?$_Deque_simple_types@UEntry@LT@@@std@@@2@$00@std@@QEAAAEAV?$allocator@UEntry@LT@@@2@XZ DD 025052a19H
	DD	010e2313H
	DD	07007001dH
	DD	05006H
	DD	imagerel __CxxFrameHandler4
	DD	imagerel $cppxdata$?_Get_first@?$_Compressed_pair@V?$allocator@UEntry@LT@@@std@@V?$_Deque_val@U?$_Deque_simple_types@UEntry@LT@@@std@@@2@$00@std@@QEAAAEAV?$allocator@UEntry@LT@@@2@XZ
xdata	ENDS
;	COMDAT xdata
xdata	SEGMENT
$ip2state$?_Getblock@?$_Deque_val@U?$_Deque_simple_types@UEntry@LT@@@std@@@std@@QEBA_K_K@Z DB 02H
	DB	00H
	DB	00H
xdata	ENDS
;	COMDAT xdata
xdata	SEGMENT
$cppxdata$?_Getblock@?$_Deque_val@U?$_Deque_simple_types@UEntry@LT@@@std@@@std@@QEBA_K_K@Z DB 060H
	DD	imagerel $ip2state$?_Getblock@?$_Deque_val@U?$_Deque_simple_types@UEntry@LT@@@std@@@std@@QEBA_K_K@Z
xdata	ENDS
;	COMDAT xdata
xdata	SEGMENT
$unwind$?_Getblock@?$_Deque_val@U?$_Deque_simple_types@UEntry@LT@@@std@@@std@@QEBA_K_K@Z DD 025052f19H
	DD	01132318H
	DD	0700c001dH
	DD	0500bH
	DD	imagerel __CxxFrameHandler4
	DD	imagerel $cppxdata$?_Getblock@?$_Deque_val@U?$_Deque_simple_types@UEntry@LT@@@std@@@std@@QEBA_K_K@Z
xdata	ENDS
;	COMDAT xdata
xdata	SEGMENT
$ip2state$??0?$_Deque_val@U?$_Deque_simple_types@UEntry@LT@@@std@@@std@@QEAA@XZ DB 02H
	DB	00H
	DB	00H
xdata	ENDS
;	COMDAT xdata
xdata	SEGMENT
$cppxdata$??0?$_Deque_val@U?$_Deque_simple_types@UEntry@LT@@@std@@@std@@QEAA@XZ DB 060H
	DD	imagerel $ip2state$??0?$_Deque_val@U?$_Deque_simple_types@UEntry@LT@@@std@@@std@@QEAA@XZ
xdata	ENDS
;	COMDAT xdata
xdata	SEGMENT
$unwind$??0?$_Deque_val@U?$_Deque_simple_types@UEntry@LT@@@std@@@std@@QEAA@XZ DD 025052a19H
	DD	010e2313H
	DD	07007001dH
	DD	05006H
	DD	imagerel __CxxFrameHandler4
	DD	imagerel $cppxdata$??0?$_Deque_val@U?$_Deque_simple_types@UEntry@LT@@@std@@@std@@QEAA@XZ
xdata	ENDS
;	COMDAT xdata
xdata	SEGMENT
$ip2state$?_Mysize@?$deque@UEntry@LT@@V?$allocator@UEntry@LT@@@std@@@std@@AEBAAEB_KXZ DB 02H
	DB	00H
	DB	00H
xdata	ENDS
;	COMDAT xdata
xdata	SEGMENT
$cppxdata$?_Mysize@?$deque@UEntry@LT@@V?$allocator@UEntry@LT@@@std@@@std@@AEBAAEB_KXZ DB 060H
	DD	imagerel $ip2state$?_Mysize@?$deque@UEntry@LT@@V?$allocator@UEntry@LT@@@std@@@std@@AEBAAEB_KXZ
xdata	ENDS
;	COMDAT xdata
xdata	SEGMENT
$unwind$?_Mysize@?$deque@UEntry@LT@@V?$allocator@UEntry@LT@@@std@@@std@@AEBAAEB_KXZ DD 025052a19H
	DD	010e2313H
	DD	07007001dH
	DD	05006H
	DD	imagerel __CxxFrameHandler4
	DD	imagerel $cppxdata$?_Mysize@?$deque@UEntry@LT@@V?$allocator@UEntry@LT@@@std@@@std@@AEBAAEB_KXZ
xdata	ENDS
;	COMDAT xdata
xdata	SEGMENT
$ip2state$?_Mysize@?$deque@UEntry@LT@@V?$allocator@UEntry@LT@@@std@@@std@@AEAAAEA_KXZ DB 02H
	DB	00H
	DB	00H
xdata	ENDS
;	COMDAT xdata
xdata	SEGMENT
$cppxdata$?_Mysize@?$deque@UEntry@LT@@V?$allocator@UEntry@LT@@@std@@@std@@AEAAAEA_KXZ DB 060H
	DD	imagerel $ip2state$?_Mysize@?$deque@UEntry@LT@@V?$allocator@UEntry@LT@@@std@@@std@@AEAAAEA_KXZ
xdata	ENDS
;	COMDAT xdata
xdata	SEGMENT
$unwind$?_Mysize@?$deque@UEntry@LT@@V?$allocator@UEntry@LT@@@std@@@std@@AEAAAEA_KXZ DD 025052a19H
	DD	010e2313H
	DD	07007001dH
	DD	05006H
	DD	imagerel __CxxFrameHandler4
	DD	imagerel $cppxdata$?_Mysize@?$deque@UEntry@LT@@V?$allocator@UEntry@LT@@@std@@@std@@AEAAAEA_KXZ
xdata	ENDS
;	COMDAT xdata
xdata	SEGMENT
$ip2state$?_Myoff@?$deque@UEntry@LT@@V?$allocator@UEntry@LT@@@std@@@std@@AEBAAEB_KXZ DB 02H
	DB	00H
	DB	00H
xdata	ENDS
;	COMDAT xdata
xdata	SEGMENT
$cppxdata$?_Myoff@?$deque@UEntry@LT@@V?$allocator@UEntry@LT@@@std@@@std@@AEBAAEB_KXZ DB 060H
	DD	imagerel $ip2state$?_Myoff@?$deque@UEntry@LT@@V?$allocator@UEntry@LT@@@std@@@std@@AEBAAEB_KXZ
xdata	ENDS
;	COMDAT xdata
xdata	SEGMENT
$unwind$?_Myoff@?$deque@UEntry@LT@@V?$allocator@UEntry@LT@@@std@@@std@@AEBAAEB_KXZ DD 025052a19H
	DD	010e2313H
	DD	07007001dH
	DD	05006H
	DD	imagerel __CxxFrameHandler4
	DD	imagerel $cppxdata$?_Myoff@?$deque@UEntry@LT@@V?$allocator@UEntry@LT@@@std@@@std@@AEBAAEB_KXZ
xdata	ENDS
;	COMDAT xdata
xdata	SEGMENT
$ip2state$?_Myoff@?$deque@UEntry@LT@@V?$allocator@UEntry@LT@@@std@@@std@@AEAAAEA_KXZ DB 02H
	DB	00H
	DB	00H
xdata	ENDS
;	COMDAT xdata
xdata	SEGMENT
$cppxdata$?_Myoff@?$deque@UEntry@LT@@V?$allocator@UEntry@LT@@@std@@@std@@AEAAAEA_KXZ DB 060H
	DD	imagerel $ip2state$?_Myoff@?$deque@UEntry@LT@@V?$allocator@UEntry@LT@@@std@@@std@@AEAAAEA_KXZ
xdata	ENDS
;	COMDAT xdata
xdata	SEGMENT
$unwind$?_Myoff@?$deque@UEntry@LT@@V?$allocator@UEntry@LT@@@std@@@std@@AEAAAEA_KXZ DD 025052a19H
	DD	010e2313H
	DD	07007001dH
	DD	05006H
	DD	imagerel __CxxFrameHandler4
	DD	imagerel $cppxdata$?_Myoff@?$deque@UEntry@LT@@V?$allocator@UEntry@LT@@@std@@@std@@AEAAAEA_KXZ
xdata	ENDS
;	COMDAT xdata
xdata	SEGMENT
$ip2state$?_Mapsize@?$deque@UEntry@LT@@V?$allocator@UEntry@LT@@@std@@@std@@AEAAAEA_KXZ DB 02H
	DB	00H
	DB	00H
xdata	ENDS
;	COMDAT xdata
xdata	SEGMENT
$cppxdata$?_Mapsize@?$deque@UEntry@LT@@V?$allocator@UEntry@LT@@@std@@@std@@AEAAAEA_KXZ DB 060H
	DD	imagerel $ip2state$?_Mapsize@?$deque@UEntry@LT@@V?$allocator@UEntry@LT@@@std@@@std@@AEAAAEA_KXZ
xdata	ENDS
;	COMDAT xdata
xdata	SEGMENT
$unwind$?_Mapsize@?$deque@UEntry@LT@@V?$allocator@UEntry@LT@@@std@@@std@@AEAAAEA_KXZ DD 025052a19H
	DD	010e2313H
	DD	07007001dH
	DD	05006H
	DD	imagerel __CxxFrameHandler4
	DD	imagerel $cppxdata$?_Mapsize@?$deque@UEntry@LT@@V?$allocator@UEntry@LT@@@std@@@std@@AEAAAEA_KXZ
xdata	ENDS
;	COMDAT xdata
xdata	SEGMENT
$ip2state$?_Map@?$deque@UEntry@LT@@V?$allocator@UEntry@LT@@@std@@@std@@AEAAAEAPEAPEAUEntry@LT@@XZ DB 02H
	DB	00H
	DB	00H
xdata	ENDS
;	COMDAT xdata
xdata	SEGMENT
$cppxdata$?_Map@?$deque@UEntry@LT@@V?$allocator@UEntry@LT@@@std@@@std@@AEAAAEAPEAPEAUEntry@LT@@XZ DB 060H
	DD	imagerel $ip2state$?_Map@?$deque@UEntry@LT@@V?$allocator@UEntry@LT@@@std@@@std@@AEAAAEAPEAPEAUEntry@LT@@XZ
xdata	ENDS
;	COMDAT xdata
xdata	SEGMENT
$unwind$?_Map@?$deque@UEntry@LT@@V?$allocator@UEntry@LT@@@std@@@std@@AEAAAEAPEAPEAUEntry@LT@@XZ DD 025052a19H
	DD	010e2313H
	DD	07007001dH
	DD	05006H
	DD	imagerel __CxxFrameHandler4
	DD	imagerel $cppxdata$?_Map@?$deque@UEntry@LT@@V?$allocator@UEntry@LT@@@std@@@std@@AEAAAEAPEAPEAUEntry@LT@@XZ
xdata	ENDS
;	COMDAT xdata
xdata	SEGMENT
$ip2state$?_Get_data@?$deque@UEntry@LT@@V?$allocator@UEntry@LT@@@std@@@std@@AEBAAEBV?$_Deque_val@U?$_Deque_simple_types@UEntry@LT@@@std@@@2@XZ DB 02H
	DB	00H
	DB	00H
xdata	ENDS
;	COMDAT xdata
xdata	SEGMENT
$cppxdata$?_Get_data@?$deque@UEntry@LT@@V?$allocator@UEntry@LT@@@std@@@std@@AEBAAEBV?$_Deque_val@U?$_Deque_simple_types@UEntry@LT@@@std@@@2@XZ DB 060H
	DD	imagerel $ip2state$?_Get_data@?$deque@UEntry@LT@@V?$allocator@UEntry@LT@@@std@@@std@@AEBAAEBV?$_Deque_val@U?$_Deque_simple_types@UEntry@LT@@@std@@@2@XZ
xdata	ENDS
;	COMDAT xdata
xdata	SEGMENT
$unwind$?_Get_data@?$deque@UEntry@LT@@V?$allocator@UEntry@LT@@@std@@@std@@AEBAAEBV?$_Deque_val@U?$_Deque_simple_types@UEntry@LT@@@std@@@2@XZ DD 025052a19H
	DD	010e2313H
	DD	07007001dH
	DD	05006H
	DD	imagerel __CxxFrameHandler4
	DD	imagerel $cppxdata$?_Get_data@?$deque@UEntry@LT@@V?$allocator@UEntry@LT@@@std@@@std@@AEBAAEBV?$_Deque_val@U?$_Deque_simple_types@UEntry@LT@@@std@@@2@XZ
xdata	ENDS
;	COMDAT xdata
xdata	SEGMENT
$ip2state$?_Get_data@?$deque@UEntry@LT@@V?$allocator@UEntry@LT@@@std@@@std@@AEAAAEAV?$_Deque_val@U?$_Deque_simple_types@UEntry@LT@@@std@@@2@XZ DB 02H
	DB	00H
	DB	00H
xdata	ENDS
;	COMDAT xdata
xdata	SEGMENT
$cppxdata$?_Get_data@?$deque@UEntry@LT@@V?$allocator@UEntry@LT@@@std@@@std@@AEAAAEAV?$_Deque_val@U?$_Deque_simple_types@UEntry@LT@@@std@@@2@XZ DB 060H
	DD	imagerel $ip2state$?_Get_data@?$deque@UEntry@LT@@V?$allocator@UEntry@LT@@@std@@@std@@AEAAAEAV?$_Deque_val@U?$_Deque_simple_types@UEntry@LT@@@std@@@2@XZ
xdata	ENDS
;	COMDAT xdata
xdata	SEGMENT
$unwind$?_Get_data@?$deque@UEntry@LT@@V?$allocator@UEntry@LT@@@std@@@std@@AEAAAEAV?$_Deque_val@U?$_Deque_simple_types@UEntry@LT@@@std@@@2@XZ DD 025052a19H
	DD	010e2313H
	DD	07007001dH
	DD	05006H
	DD	imagerel __CxxFrameHandler4
	DD	imagerel $cppxdata$?_Get_data@?$deque@UEntry@LT@@V?$allocator@UEntry@LT@@@std@@@std@@AEAAAEAV?$_Deque_val@U?$_Deque_simple_types@UEntry@LT@@@std@@@2@XZ
xdata	ENDS
;	COMDAT xdata
xdata	SEGMENT
$ip2state$?_Getal@?$deque@UEntry@LT@@V?$allocator@UEntry@LT@@@std@@@std@@AEBAAEBV?$allocator@UEntry@LT@@@2@XZ DB 02H
	DB	00H
	DB	00H
xdata	ENDS
;	COMDAT xdata
xdata	SEGMENT
$cppxdata$?_Getal@?$deque@UEntry@LT@@V?$allocator@UEntry@LT@@@std@@@std@@AEBAAEBV?$allocator@UEntry@LT@@@2@XZ DB 060H
	DD	imagerel $ip2state$?_Getal@?$deque@UEntry@LT@@V?$allocator@UEntry@LT@@@std@@@std@@AEBAAEBV?$allocator@UEntry@LT@@@2@XZ
xdata	ENDS
;	COMDAT xdata
xdata	SEGMENT
$unwind$?_Getal@?$deque@UEntry@LT@@V?$allocator@UEntry@LT@@@std@@@std@@AEBAAEBV?$allocator@UEntry@LT@@@2@XZ DD 025052a19H
	DD	010e2313H
	DD	07007001dH
	DD	05006H
	DD	imagerel __CxxFrameHandler4
	DD	imagerel $cppxdata$?_Getal@?$deque@UEntry@LT@@V?$allocator@UEntry@LT@@@std@@@std@@AEBAAEBV?$allocator@UEntry@LT@@@2@XZ
xdata	ENDS
;	COMDAT xdata
xdata	SEGMENT
$ip2state$?_Getal@?$deque@UEntry@LT@@V?$allocator@UEntry@LT@@@std@@@std@@AEAAAEAV?$allocator@UEntry@LT@@@2@XZ DB 02H
	DB	00H
	DB	00H
xdata	ENDS
;	COMDAT xdata
xdata	SEGMENT
$cppxdata$?_Getal@?$deque@UEntry@LT@@V?$allocator@UEntry@LT@@@std@@@std@@AEAAAEAV?$allocator@UEntry@LT@@@2@XZ DB 060H
	DD	imagerel $ip2state$?_Getal@?$deque@UEntry@LT@@V?$allocator@UEntry@LT@@@std@@@std@@AEAAAEAV?$allocator@UEntry@LT@@@2@XZ
xdata	ENDS
;	COMDAT xdata
xdata	SEGMENT
$unwind$?_Getal@?$deque@UEntry@LT@@V?$allocator@UEntry@LT@@@std@@@std@@AEAAAEAV?$allocator@UEntry@LT@@@2@XZ DD 025052a19H
	DD	010e2313H
	DD	07007001dH
	DD	05006H
	DD	imagerel __CxxFrameHandler4
	DD	imagerel $cppxdata$?_Getal@?$deque@UEntry@LT@@V?$allocator@UEntry@LT@@@std@@@std@@AEAAAEAV?$allocator@UEntry@LT@@@2@XZ
xdata	ENDS
;	COMDAT xdata
xdata	SEGMENT
$ip2state$?_Orphan_all@?$deque@UEntry@LT@@V?$allocator@UEntry@LT@@@std@@@std@@AEAAXXZ DB 02H
	DB	00H
	DB	00H
xdata	ENDS
;	COMDAT xdata
xdata	SEGMENT
$cppxdata$?_Orphan_all@?$deque@UEntry@LT@@V?$allocator@UEntry@LT@@@std@@@std@@AEAAXXZ DB 060H
	DD	imagerel $ip2state$?_Orphan_all@?$deque@UEntry@LT@@V?$allocator@UEntry@LT@@@std@@@std@@AEAAXXZ
xdata	ENDS
;	COMDAT xdata
xdata	SEGMENT
$unwind$?_Orphan_all@?$deque@UEntry@LT@@V?$allocator@UEntry@LT@@@std@@@std@@AEAAXXZ DD 025052a19H
	DD	010e2313H
	DD	07007001dH
	DD	05006H
	DD	imagerel __CxxFrameHandler4
	DD	imagerel $cppxdata$?_Orphan_all@?$deque@UEntry@LT@@V?$allocator@UEntry@LT@@@std@@@std@@AEAAXXZ
xdata	ENDS
;	COMDAT xdata
xdata	SEGMENT
$ip2state$?_Getblock@?$deque@UEntry@LT@@V?$allocator@UEntry@LT@@@std@@@std@@AEBA_K_K@Z DB 02H
	DB	00H
	DB	00H
xdata	ENDS
;	COMDAT xdata
xdata	SEGMENT
$cppxdata$?_Getblock@?$deque@UEntry@LT@@V?$allocator@UEntry@LT@@@std@@@std@@AEBA_K_K@Z DB 060H
	DD	imagerel $ip2state$?_Getblock@?$deque@UEntry@LT@@V?$allocator@UEntry@LT@@@std@@@std@@AEBA_K_K@Z
xdata	ENDS
;	COMDAT xdata
xdata	SEGMENT
$unwind$?_Getblock@?$deque@UEntry@LT@@V?$allocator@UEntry@LT@@@std@@@std@@AEBA_K_K@Z DD 025052f19H
	DD	01132318H
	DD	0700c001dH
	DD	0500bH
	DD	imagerel __CxxFrameHandler4
	DD	imagerel $cppxdata$?_Getblock@?$deque@UEntry@LT@@V?$allocator@UEntry@LT@@@std@@@std@@AEBA_K_K@Z
xdata	ENDS
;	COMDAT xdata
xdata	SEGMENT
$ip2state$?_Orphan_off@?$deque@UEntry@LT@@V?$allocator@UEntry@LT@@@std@@@std@@AEBAX_K@Z DB 02H
	DB	00H
	DB	00H
xdata	ENDS
;	COMDAT xdata
xdata	SEGMENT
$cppxdata$?_Orphan_off@?$deque@UEntry@LT@@V?$allocator@UEntry@LT@@@std@@@std@@AEBAX_K@Z DB 060H
	DD	imagerel $ip2state$?_Orphan_off@?$deque@UEntry@LT@@V?$allocator@UEntry@LT@@@std@@@std@@AEBAX_K@Z
xdata	ENDS
;	COMDAT xdata
xdata	SEGMENT
$unwind$?_Orphan_off@?$deque@UEntry@LT@@V?$allocator@UEntry@LT@@@std@@@std@@AEBAX_K@Z DD 025054019H
	DD	01132318H
	DD	0700c002fH
	DD	0500bH
	DD	imagerel __GSHandlerCheck_EH4
	DD	imagerel $cppxdata$?_Orphan_off@?$deque@UEntry@LT@@V?$allocator@UEntry@LT@@@std@@@std@@AEBAX_K@Z
	DD	016bH
xdata	ENDS
;	COMDAT CONST
CONST	SEGMENT
?_Orphan_off@?$deque@UEntry@LT@@V?$allocator@UEntry@LT@@@std@@@std@@AEBAX_K@Z$rtcName$0 DB 05fH ; std::deque<LT::Entry,std::allocator<LT::Entry> >::_Orphan_off
	DB	04cH
	DB	06fH
	DB	063H
	DB	06bH
	DB	00H
	ORG $+10
?_Orphan_off@?$deque@UEntry@LT@@V?$allocator@UEntry@LT@@@std@@@std@@AEBAX_K@Z$rtcVarDesc DD 044H ; std::deque<LT::Entry,std::allocator<LT::Entry> >::_Orphan_off
	DD	04H
	DQ	FLAT:?_Orphan_off@?$deque@UEntry@LT@@V?$allocator@UEntry@LT@@@std@@@std@@AEBAX_K@Z$rtcName$0
	ORG $+48
?_Orphan_off@?$deque@UEntry@LT@@V?$allocator@UEntry@LT@@@std@@@std@@AEBAX_K@Z$rtcFrameData DD 01H ; std::deque<LT::Entry,std::allocator<LT::Entry> >::_Orphan_off
	DD	00H
	DQ	FLAT:?_Orphan_off@?$deque@UEntry@LT@@V?$allocator@UEntry@LT@@@std@@@std@@AEBAX_K@Z$rtcVarDesc
CONST	ENDS
;	COMDAT xdata
xdata	SEGMENT
$ip2state$?_Tidy@?$deque@UEntry@LT@@V?$allocator@UEntry@LT@@@std@@@std@@AEAAXXZ DB 02H
	DB	00H
	DB	00H
xdata	ENDS
;	COMDAT xdata
xdata	SEGMENT
$cppxdata$?_Tidy@?$deque@UEntry@LT@@V?$allocator@UEntry@LT@@@std@@@std@@AEAAXXZ DB 060H
	DD	imagerel $ip2state$?_Tidy@?$deque@UEntry@LT@@V?$allocator@UEntry@LT@@@std@@@std@@AEAAXXZ
xdata	ENDS
;	COMDAT xdata
xdata	SEGMENT
$unwind$?_Tidy@?$deque@UEntry@LT@@V?$allocator@UEntry@LT@@@std@@@std@@AEAAXXZ DD 025053b19H
	DD	010e2313H
	DD	070070027H
	DD	05006H
	DD	imagerel __GSHandlerCheck_EH4
	DD	imagerel $cppxdata$?_Tidy@?$deque@UEntry@LT@@V?$allocator@UEntry@LT@@@std@@@std@@AEAAXXZ
	DD	0123H
xdata	ENDS
;	COMDAT CONST
CONST	SEGMENT
?_Tidy@?$deque@UEntry@LT@@V?$allocator@UEntry@LT@@@std@@@std@@AEAAXXZ$rtcName$0 DB 05fH ; std::deque<LT::Entry,std::allocator<LT::Entry> >::_Tidy
	DB	041H
	DB	06cH
	DB	06dH
	DB	061H
	DB	070H
	DB	00H
	ORG $+9
?_Tidy@?$deque@UEntry@LT@@V?$allocator@UEntry@LT@@@std@@@std@@AEAAXXZ$rtcVarDesc DD 024H ; std::deque<LT::Entry,std::allocator<LT::Entry> >::_Tidy
	DD	01H
	DQ	FLAT:?_Tidy@?$deque@UEntry@LT@@V?$allocator@UEntry@LT@@@std@@@std@@AEAAXXZ$rtcName$0
	ORG $+48
?_Tidy@?$deque@UEntry@LT@@V?$allocator@UEntry@LT@@@std@@@std@@AEAAXXZ$rtcFrameData DD 01H ; std::deque<LT::Entry,std::allocator<LT::Entry> >::_Tidy
	DD	00H
	DQ	FLAT:?_Tidy@?$deque@UEntry@LT@@V?$allocator@UEntry@LT@@@std@@@std@@AEAAXXZ$rtcVarDesc
CONST	ENDS
;	COMDAT xdata
xdata	SEGMENT
$unwind$?_Growmap@?$deque@UEntry@LT@@V?$allocator@UEntry@LT@@@std@@@std@@AEAAX_K@Z DD 025054019H
	DD	01132318H
	DD	0700c0033H
	DD	0500bH
	DD	imagerel __GSHandlerCheck
	DD	0188H
xdata	ENDS
;	COMDAT CONST
CONST	SEGMENT
?_Growmap@?$deque@UEntry@LT@@V?$allocator@UEntry@LT@@@std@@@std@@AEAAX_K@Z$rtcName$0 DB 05fH ; std::deque<LT::Entry,std::allocator<LT::Entry> >::_Growmap
	DB	041H
	DB	06cH
	DB	06dH
	DB	061H
	DB	070H
	DB	00H
	ORG $+9
?_Growmap@?$deque@UEntry@LT@@V?$allocator@UEntry@LT@@@std@@@std@@AEAAX_K@Z$rtcVarDesc DD 024H ; std::deque<LT::Entry,std::allocator<LT::Entry> >::_Growmap
	DD	01H
	DQ	FLAT:?_Growmap@?$deque@UEntry@LT@@V?$allocator@UEntry@LT@@@std@@@std@@AEAAX_K@Z$rtcName$0
	ORG $+48
?_Growmap@?$deque@UEntry@LT@@V?$allocator@UEntry@LT@@@std@@@std@@AEAAX_K@Z$rtcFrameData DD 01H ; std::deque<LT::Entry,std::allocator<LT::Entry> >::_Growmap
	DD	00H
	DQ	FLAT:?_Growmap@?$deque@UEntry@LT@@V?$allocator@UEntry@LT@@@std@@@std@@AEAAX_K@Z$rtcVarDesc
CONST	ENDS
;	COMDAT xdata
xdata	SEGMENT
$unwind$?_Xlen@?$deque@UEntry@LT@@V?$allocator@UEntry@LT@@@std@@@std@@AEBAXXZ DD 025052a01H
	DD	010e2313H
	DD	07007001dH
	DD	05006H
xdata	ENDS
;	COMDAT xdata
xdata	SEGMENT
$ip2state$?pop_back@?$deque@UEntry@LT@@V?$allocator@UEntry@LT@@@std@@@std@@QEAAXXZ DB 02H
	DB	00H
	DB	00H
xdata	ENDS
;	COMDAT xdata
xdata	SEGMENT
$cppxdata$?pop_back@?$deque@UEntry@LT@@V?$allocator@UEntry@LT@@@std@@@std@@QEAAXXZ DB 060H
	DD	imagerel $ip2state$?pop_back@?$deque@UEntry@LT@@V?$allocator@UEntry@LT@@@std@@@std@@QEAAXXZ
xdata	ENDS
;	COMDAT xdata
xdata	SEGMENT
$unwind$?pop_back@?$deque@UEntry@LT@@V?$allocator@UEntry@LT@@@std@@@std@@QEAAXXZ DD 035052a19H
	DD	010e3313H
	DD	070070027H
	DD	05006H
	DD	imagerel __CxxFrameHandler4
	DD	imagerel $cppxdata$?pop_back@?$deque@UEntry@LT@@V?$allocator@UEntry@LT@@@std@@@std@@QEAAXXZ
xdata	ENDS
;	COMDAT xdata
xdata	SEGMENT
$unwind$?push_back@?$deque@UEntry@LT@@V?$allocator@UEntry@LT@@@std@@@std@@QEAAXAEBUEntry@LT@@@Z DD 025052f01H
	DD	01132318H
	DD	0700c001dH
	DD	0500bH
xdata	ENDS
;	COMDAT xdata
xdata	SEGMENT
$ip2state$?back@?$deque@UEntry@LT@@V?$allocator@UEntry@LT@@@std@@@std@@QEAAAEAUEntry@LT@@XZ DB 02H
	DB	00H
	DB	00H
xdata	ENDS
;	COMDAT xdata
xdata	SEGMENT
$cppxdata$?back@?$deque@UEntry@LT@@V?$allocator@UEntry@LT@@@std@@@std@@QEAAAEAUEntry@LT@@XZ DB 060H
	DD	imagerel $ip2state$?back@?$deque@UEntry@LT@@V?$allocator@UEntry@LT@@@std@@@std@@QEAAAEAUEntry@LT@@XZ
xdata	ENDS
;	COMDAT xdata
xdata	SEGMENT
$unwind$?back@?$deque@UEntry@LT@@V?$allocator@UEntry@LT@@@std@@@std@@QEAAAEAUEntry@LT@@XZ DD 035052a19H
	DD	010e3313H
	DD	07007002bH
	DD	05006H
	DD	imagerel __CxxFrameHandler4
	DD	imagerel $cppxdata$?back@?$deque@UEntry@LT@@V?$allocator@UEntry@LT@@@std@@@std@@QEAAAEAUEntry@LT@@XZ
xdata	ENDS
;	COMDAT xdata
xdata	SEGMENT
$ip2state$?empty@?$deque@UEntry@LT@@V?$allocator@UEntry@LT@@@std@@@std@@QEBA_NXZ DB 02H
	DB	00H
	DB	00H
xdata	ENDS
;	COMDAT xdata
xdata	SEGMENT
$cppxdata$?empty@?$deque@UEntry@LT@@V?$allocator@UEntry@LT@@@std@@@std@@QEBA_NXZ DB 060H
	DD	imagerel $ip2state$?empty@?$deque@UEntry@LT@@V?$allocator@UEntry@LT@@@std@@@std@@QEBA_NXZ
xdata	ENDS
;	COMDAT xdata
xdata	SEGMENT
$unwind$?empty@?$deque@UEntry@LT@@V?$allocator@UEntry@LT@@@std@@@std@@QEBA_NXZ DD 025052a19H
	DD	010e2313H
	DD	07007001fH
	DD	05006H
	DD	imagerel __CxxFrameHandler4
	DD	imagerel $cppxdata$?empty@?$deque@UEntry@LT@@V?$allocator@UEntry@LT@@@std@@@std@@QEBA_NXZ
xdata	ENDS
;	COMDAT xdata
xdata	SEGMENT
$ip2state$?max_size@?$deque@UEntry@LT@@V?$allocator@UEntry@LT@@@std@@@std@@QEBA_KXZ DB 02H
	DB	00H
	DB	00H
xdata	ENDS
;	COMDAT xdata
xdata	SEGMENT
$cppxdata$?max_size@?$deque@UEntry@LT@@V?$allocator@UEntry@LT@@@std@@@std@@QEBA_KXZ DB 060H
	DD	imagerel $ip2state$?max_size@?$deque@UEntry@LT@@V?$allocator@UEntry@LT@@@std@@@std@@QEBA_KXZ
xdata	ENDS
;	COMDAT xdata
xdata	SEGMENT
$unwind$?max_size@?$deque@UEntry@LT@@V?$allocator@UEntry@LT@@@std@@@std@@QEBA_KXZ DD 025052a19H
	DD	010e2313H
	DD	070070025H
	DD	05006H
	DD	imagerel __CxxFrameHandler4
	DD	imagerel $cppxdata$?max_size@?$deque@UEntry@LT@@V?$allocator@UEntry@LT@@@std@@@std@@QEBA_KXZ
xdata	ENDS
;	COMDAT xdata
xdata	SEGMENT
$ip2state$?_Unchecked_end@?$deque@UEntry@LT@@V?$allocator@UEntry@LT@@@std@@@std@@QEAA?AV?$_Deque_unchecked_iterator@V?$_Deque_val@U?$_Deque_simple_types@UEntry@LT@@@std@@@std@@@2@XZ DB 02H
	DB	00H
	DB	00H
xdata	ENDS
;	COMDAT xdata
xdata	SEGMENT
$cppxdata$?_Unchecked_end@?$deque@UEntry@LT@@V?$allocator@UEntry@LT@@@std@@@std@@QEAA?AV?$_Deque_unchecked_iterator@V?$_Deque_val@U?$_Deque_simple_types@UEntry@LT@@@std@@@std@@@2@XZ DB 060H
	DD	imagerel $ip2state$?_Unchecked_end@?$deque@UEntry@LT@@V?$allocator@UEntry@LT@@@std@@@std@@QEAA?AV?$_Deque_unchecked_iterator@V?$_Deque_val@U?$_Deque_simple_types@UEntry@LT@@@std@@@std@@@2@XZ
xdata	ENDS
;	COMDAT xdata
xdata	SEGMENT
$unwind$?_Unchecked_end@?$deque@UEntry@LT@@V?$allocator@UEntry@LT@@@std@@@std@@QEAA?AV?$_Deque_unchecked_iterator@V?$_Deque_val@U?$_Deque_simple_types@UEntry@LT@@@std@@@std@@@2@XZ DD 025052f19H
	DD	01132318H
	DD	0700c001fH
	DD	0500bH
	DD	imagerel __CxxFrameHandler4
	DD	imagerel $cppxdata$?_Unchecked_end@?$deque@UEntry@LT@@V?$allocator@UEntry@LT@@@std@@@std@@QEAA?AV?$_Deque_unchecked_iterator@V?$_Deque_val@U?$_Deque_simple_types@UEntry@LT@@@std@@@std@@@2@XZ
xdata	ENDS
;	COMDAT xdata
xdata	SEGMENT
$ip2state$??1?$deque@UEntry@LT@@V?$allocator@UEntry@LT@@@std@@@std@@QEAA@XZ DB 02H
	DB	00H
	DB	00H
xdata	ENDS
;	COMDAT xdata
xdata	SEGMENT
$cppxdata$??1?$deque@UEntry@LT@@V?$allocator@UEntry@LT@@@std@@@std@@QEAA@XZ DB 060H
	DD	imagerel $ip2state$??1?$deque@UEntry@LT@@V?$allocator@UEntry@LT@@@std@@@std@@QEAA@XZ
xdata	ENDS
;	COMDAT xdata
xdata	SEGMENT
$unwind$??1?$deque@UEntry@LT@@V?$allocator@UEntry@LT@@@std@@@std@@QEAA@XZ DD 025053b19H
	DD	010e2313H
	DD	070070025H
	DD	05006H
	DD	imagerel __GSHandlerCheck_EH4
	DD	imagerel $cppxdata$??1?$deque@UEntry@LT@@V?$allocator@UEntry@LT@@@std@@@std@@QEAA@XZ
	DD	011bH
xdata	ENDS
;	COMDAT CONST
CONST	SEGMENT
??1?$deque@UEntry@LT@@V?$allocator@UEntry@LT@@@std@@@std@@QEAA@XZ$rtcName$0 DB 05fH ; std::deque<LT::Entry,std::allocator<LT::Entry> >::~deque<LT::Entry,std::allocator<LT::Entry> >
	DB	050H
	DB	072H
	DB	06fH
	DB	078H
	DB	079H
	DB	05fH
	DB	061H
	DB	06cH
	DB	06cH
	DB	06fH
	DB	063H
	DB	061H
	DB	074H
	DB	06fH
	DB	072H
	DB	00H
	ORG $+15
??1?$deque@UEntry@LT@@V?$allocator@UEntry@LT@@@std@@@std@@QEAA@XZ$rtcVarDesc DD 024H ; std::deque<LT::Entry,std::allocator<LT::Entry> >::~deque<LT::Entry,std::allocator<LT::Entry> >
	DD	01H
	DQ	FLAT:??1?$deque@UEntry@LT@@V?$allocator@UEntry@LT@@@std@@@std@@QEAA@XZ$rtcName$0
	ORG $+48
??1?$deque@UEntry@LT@@V?$allocator@UEntry@LT@@@std@@@std@@QEAA@XZ$rtcFrameData DD 01H ; std::deque<LT::Entry,std::allocator<LT::Entry> >::~deque<LT::Entry,std::allocator<LT::Entry> >
	DD	00H
	DQ	FLAT:??1?$deque@UEntry@LT@@V?$allocator@UEntry@LT@@@std@@@std@@QEAA@XZ$rtcVarDesc
CONST	ENDS
;	COMDAT xdata
xdata	SEGMENT
$unwind$??0?$deque@UEntry@LT@@V?$allocator@UEntry@LT@@@std@@@std@@QEAA@XZ DD 025052a01H
	DD	010e2313H
	DD	070070025H
	DD	05006H
xdata	ENDS
;	COMDAT xdata
xdata	SEGMENT
$unwind$?allocate@?$allocator@PEAUEntry@LT@@@std@@QEAAPEAPEAUEntry@LT@@_K@Z DD 025052f01H
	DD	01132318H
	DD	0700c001dH
	DD	0500bH
xdata	ENDS
;	COMDAT xdata
xdata	SEGMENT
$unwind$?deallocate@?$allocator@PEAUEntry@LT@@@std@@QEAAXQEAPEAUEntry@LT@@_K@Z DD 025053401H
	DD	0118231dH
	DD	07011001dH
	DD	05010H
xdata	ENDS
;	COMDAT xdata
xdata	SEGMENT
$ip2state$?max_size@?$_Default_allocator_traits@V?$allocator@UEntry@LT@@@std@@@std@@SA_KAEBV?$allocator@UEntry@LT@@@2@@Z DB 02H
	DB	00H
	DB	00H
xdata	ENDS
;	COMDAT xdata
xdata	SEGMENT
$cppxdata$?max_size@?$_Default_allocator_traits@V?$allocator@UEntry@LT@@@std@@@std@@SA_KAEBV?$allocator@UEntry@LT@@@2@@Z DB 060H
	DD	imagerel $ip2state$?max_size@?$_Default_allocator_traits@V?$allocator@UEntry@LT@@@std@@@std@@SA_KAEBV?$allocator@UEntry@LT@@@2@@Z
xdata	ENDS
;	COMDAT xdata
xdata	SEGMENT
$unwind$?max_size@?$_Default_allocator_traits@V?$allocator@UEntry@LT@@@std@@@std@@SA_KAEBV?$allocator@UEntry@LT@@@2@@Z DD 025052a19H
	DD	010e2313H
	DD	07007001dH
	DD	05006H
	DD	imagerel __CxxFrameHandler4
	DD	imagerel $cppxdata$?max_size@?$_Default_allocator_traits@V?$allocator@UEntry@LT@@@std@@@std@@SA_KAEBV?$allocator@UEntry@LT@@@2@@Z
xdata	ENDS
;	COMDAT xdata
xdata	SEGMENT
$unwind$?allocate@?$allocator@UEntry@LT@@@std@@QEAAPEAUEntry@LT@@_K@Z DD 025052f01H
	DD	01132318H
	DD	0700c001dH
	DD	0500bH
xdata	ENDS
;	COMDAT xdata
xdata	SEGMENT
$unwind$?deallocate@?$allocator@UEntry@LT@@@std@@QEAAXQEAUEntry@LT@@_K@Z DD 025053401H
	DD	0118231dH
	DD	07011001dH
	DD	05010H
xdata	ENDS
;	COMDAT xdata
xdata	SEGMENT
$ip2state$??0?$allocator@UEntry@LT@@@std@@QEAA@XZ DB 02H
	DB	00H
	DB	00H
xdata	ENDS
;	COMDAT xdata
xdata	SEGMENT
$cppxdata$??0?$allocator@UEntry@LT@@@std@@QEAA@XZ DB 060H
	DD	imagerel $ip2state$??0?$allocator@UEntry@LT@@@std@@QEAA@XZ
xdata	ENDS
;	COMDAT xdata
xdata	SEGMENT
$unwind$??0?$allocator@UEntry@LT@@@std@@QEAA@XZ DD 025052a19H
	DD	010e2313H
	DD	07007001dH
	DD	05006H
	DD	imagerel __CxxFrameHandler4
	DD	imagerel $cppxdata$??0?$allocator@UEntry@LT@@@std@@QEAA@XZ
xdata	ENDS
;	COMDAT xdata
xdata	SEGMENT
$unwind$?dtor$1@?0??polishNotation@PN@@YAHHAEAULexTable@LT@@AEAUIdTable@IT@@@Z@4HA DD 031001H
	DD	0700c4210H
	DD	0500bH
xdata	ENDS
;	COMDAT xdata
xdata	SEGMENT
$unwind$?dtor$0@?0??polishNotation@PN@@YAHHAEAULexTable@LT@@AEAUIdTable@IT@@@Z@4HA DD 031001H
	DD	0700c4210H
	DD	0500bH
xdata	ENDS
;	COMDAT xdata
xdata	SEGMENT
$ip2state$?polishNotation@PN@@YAHHAEAULexTable@LT@@AEAUIdTable@IT@@@Z DB 016H
	DB	00H
	DB	00H
	DB	0d0H
	DB	02H
	DB	'0'
	DB	04H
	DB	')', 0dH
	DB	02H
	DB	04H
	DB	04H
	DB	'}', 0fH
	DB	02H
	DB	014H
	DB	00H
	DB	'('
	DB	04H
	DB	'I', 03H
	DB	02H
	DB	014H
	DB	00H
	DB	'~'
	DB	02H
xdata	ENDS
;	COMDAT xdata
xdata	SEGMENT
$stateUnwindMap$?polishNotation@PN@@YAHHAEAULexTable@LT@@AEAUIdTable@IT@@@Z DB 04H
	DB	0eH
	DD	imagerel ?dtor$0@?0??polishNotation@PN@@YAHHAEAULexTable@LT@@AEAUIdTable@IT@@@Z@4HA
	DB	02eH
	DD	imagerel ?dtor$1@?0??polishNotation@PN@@YAHHAEAULexTable@LT@@AEAUIdTable@IT@@@Z@4HA
xdata	ENDS
;	COMDAT xdata
xdata	SEGMENT
$cppxdata$?polishNotation@PN@@YAHHAEAULexTable@LT@@AEAUIdTable@IT@@@Z DB 028H
	DD	imagerel $stateUnwindMap$?polishNotation@PN@@YAHHAEAULexTable@LT@@AEAUIdTable@IT@@@Z
	DD	imagerel $ip2state$?polishNotation@PN@@YAHHAEAULexTable@LT@@AEAUIdTable@IT@@@Z
xdata	ENDS
;	COMDAT xdata
xdata	SEGMENT
$unwind$?polishNotation@PN@@YAHHAEAULexTable@LT@@AEAUIdTable@IT@@@Z DD 025064419H
	DD	0118231dH
	DD	070110078H
	DD	0500f6010H
	DD	imagerel __GSHandlerCheck_EH4
	DD	imagerel $cppxdata$?polishNotation@PN@@YAHHAEAULexTable@LT@@AEAUIdTable@IT@@@Z
	DD	03baH
xdata	ENDS
;	COMDAT CONST
CONST	SEGMENT
?polishNotation@PN@@YAHHAEAULexTable@LT@@AEAUIdTable@IT@@@Z$rtcName$0 DB 073H ; PN::polishNotation
	DB	074H
	DB	061H
	DB	063H
	DB	06bH
	DB	00H
	ORG $+2
?polishNotation@PN@@YAHHAEAULexTable@LT@@AEAUIdTable@IT@@@Z$rtcName$1 DB 06fH ; PN::polishNotation
	DB	070H
	DB	065H
	DB	072H
	DB	061H
	DB	06eH
	DB	064H
	DB	073H
	DB	00H
	ORG $+3
?polishNotation@PN@@YAHHAEAULexTable@LT@@AEAUIdTable@IT@@@Z$rtcName$2 DB 074H ; PN::polishNotation
	DB	065H
	DB	06dH
	DB	070H
	DB	00H
	ORG $+7
?polishNotation@PN@@YAHHAEAULexTable@LT@@AEAUIdTable@IT@@@Z$rtcVarDesc DD 0198H ; PN::polishNotation
	DD	010H
	DQ	FLAT:?polishNotation@PN@@YAHHAEAULexTable@LT@@AEAUIdTable@IT@@@Z$rtcName$2
	DD	068H
	DD	018H
	DQ	FLAT:?polishNotation@PN@@YAHHAEAULexTable@LT@@AEAUIdTable@IT@@@Z$rtcName$1
	DD	028H
	DD	028H
	DQ	FLAT:?polishNotation@PN@@YAHHAEAULexTable@LT@@AEAUIdTable@IT@@@Z$rtcName$0
	ORG $+144
?polishNotation@PN@@YAHHAEAULexTable@LT@@AEAUIdTable@IT@@@Z$rtcFrameData DD 03H ; PN::polishNotation
	DD	00H
	DQ	FLAT:?polishNotation@PN@@YAHHAEAULexTable@LT@@AEAUIdTable@IT@@@Z$rtcVarDesc
CONST	ENDS
;	COMDAT xdata
xdata	SEGMENT
$unwind$?seachingExpressions@PN@@YAXAEAULexTable@LT@@AEAUIdTable@IT@@@Z DD 025052f01H
	DD	01132318H
	DD	0700c0025H
	DD	0500bH
xdata	ENDS
;	COMDAT xdata
xdata	SEGMENT
$unwind$??0Entry@LT@@QEAA@XZ DD 025052a01H
	DD	010e2313H
	DD	07007001dH
	DD	05006H
xdata	ENDS
;	COMDAT xdata
xdata	SEGMENT
$unwind$??$_Getvals@_W@?$time_get@_WV?$istreambuf_iterator@_WU?$char_traits@_W@std@@@std@@@std@@IEAAX_WAEBV_Locinfo@1@@Z DD 025063501H
	DD	0119231eH
	DD	070120026H
	DD	050106011H
xdata	ENDS
;	COMDAT xdata
xdata	SEGMENT
$unwind$??$_Getvals@_W@?$time_get@DV?$istreambuf_iterator@DU?$char_traits@D@std@@@std@@@std@@IEAAX_WAEBV_Locinfo@1@@Z DD 025063501H
	DD	0119231eH
	DD	070120026H
	DD	050106011H
xdata	ENDS
;	COMDAT xdata
xdata	SEGMENT
$unwind$??$_Maklocstr@D@std@@YAPEADPEBDPEADAEBU_Cvtvec@@@Z DD 035053401H
	DD	0118331dH
	DD	07011002bH
	DD	05010H
xdata	ENDS
;	COMDAT xdata
xdata	SEGMENT
$unwind$?_Maklocwcs@std@@YAPEA_WPEB_W@Z DD 035052a01H
	DD	010e3313H
	DD	070070027H
	DD	05006H
xdata	ENDS
;	COMDAT xdata
xdata	SEGMENT
$unwind$??$_Maklocstr@_W@std@@YAPEA_WPEBDPEA_WAEBU_Cvtvec@@@Z DD 035054519H
	DD	0118331dH
	DD	070110047H
	DD	05010H
	DD	imagerel __GSHandlerCheck
	DD	0228H
xdata	ENDS
;	COMDAT CONST
CONST	SEGMENT
??$_Maklocstr@_W@std@@YAPEA_WPEBDPEA_WAEBU_Cvtvec@@@Z$rtcName$0 DB 05fH ; std::_Maklocstr<wchar_t>
	DB	057H
	DB	063H
	DB	00H
??$_Maklocstr@_W@std@@YAPEA_WPEBDPEA_WAEBU_Cvtvec@@@Z$rtcName$1 DB 05fH ; std::_Maklocstr<wchar_t>
	DB	04dH
	DB	062H
	DB	073H
	DB	074H
	DB	031H
	DB	00H
	ORG $+1
??$_Maklocstr@_W@std@@YAPEA_WPEBDPEA_WAEBU_Cvtvec@@@Z$rtcName$2 DB 05fH ; std::_Maklocstr<wchar_t>
	DB	04dH
	DB	062H
	DB	073H
	DB	074H
	DB	032H
	DB	00H
	ORG $+13
??$_Maklocstr@_W@std@@YAPEA_WPEBDPEA_WAEBU_Cvtvec@@@Z$rtcVarDesc DD 0158H ; std::_Maklocstr<wchar_t>
	DD	08H
	DQ	FLAT:??$_Maklocstr@_W@std@@YAPEA_WPEBDPEA_WAEBU_Cvtvec@@@Z$rtcName$2
	DD	0f8H
	DD	08H
	DQ	FLAT:??$_Maklocstr@_W@std@@YAPEA_WPEBDPEA_WAEBU_Cvtvec@@@Z$rtcName$1
	DD	0d4H
	DD	02H
	DQ	FLAT:??$_Maklocstr@_W@std@@YAPEA_WPEBDPEA_WAEBU_Cvtvec@@@Z$rtcName$0
	ORG $+144
??$_Maklocstr@_W@std@@YAPEA_WPEBDPEA_WAEBU_Cvtvec@@@Z$rtcFrameData DD 03H ; std::_Maklocstr<wchar_t>
	DD	00H
	DQ	FLAT:??$_Maklocstr@_W@std@@YAPEA_WPEBDPEA_WAEBU_Cvtvec@@@Z$rtcVarDesc
CONST	ENDS
;	COMDAT xdata
xdata	SEGMENT
$ip2state$??$_Construct_in_place@U_Container_proxy@std@@PEAU_Container_base12@2@@std@@YAXAEAU_Container_proxy@0@$$QEAPEAU_Container_base12@0@@Z DB 02H
	DB	00H
	DB	00H
xdata	ENDS
;	COMDAT xdata
xdata	SEGMENT
$cppxdata$??$_Construct_in_place@U_Container_proxy@std@@PEAU_Container_base12@2@@std@@YAXAEAU_Container_proxy@0@$$QEAPEAU_Container_base12@0@@Z DB 060H
	DD	imagerel $ip2state$??$_Construct_in_place@U_Container_proxy@std@@PEAU_Container_base12@2@@std@@YAXAEAU_Container_proxy@0@$$QEAPEAU_Container_base12@0@@Z
xdata	ENDS
;	COMDAT xdata
xdata	SEGMENT
$unwind$??$_Construct_in_place@U_Container_proxy@std@@PEAU_Container_base12@2@@std@@YAXAEAU_Container_proxy@0@$$QEAPEAU_Container_base12@0@@Z DD 025052f19H
	DD	01132318H
	DD	0700c0021H
	DD	0500bH
	DD	imagerel __CxxFrameHandler4
	DD	imagerel $cppxdata$??$_Construct_in_place@U_Container_proxy@std@@PEAU_Container_base12@2@@std@@YAXAEAU_Container_proxy@0@$$QEAPEAU_Container_base12@0@@Z
xdata	ENDS
;	COMDAT xdata
xdata	SEGMENT
$ip2state$??$addressof@U_Container_base12@std@@@std@@YAPEAU_Container_base12@0@AEAU10@@Z DB 02H
	DB	00H
	DB	00H
xdata	ENDS
;	COMDAT xdata
xdata	SEGMENT
$cppxdata$??$addressof@U_Container_base12@std@@@std@@YAPEAU_Container_base12@0@AEAU10@@Z DB 060H
	DD	imagerel $ip2state$??$addressof@U_Container_base12@std@@@std@@YAPEAU_Container_base12@0@AEAU10@@Z
xdata	ENDS
;	COMDAT xdata
xdata	SEGMENT
$unwind$??$addressof@U_Container_base12@std@@@std@@YAPEAU_Container_base12@0@AEAU10@@Z DD 025052a19H
	DD	010e2313H
	DD	07007001dH
	DD	05006H
	DD	imagerel __CxxFrameHandler4
	DD	imagerel $cppxdata$??$addressof@U_Container_base12@std@@@std@@YAPEAU_Container_base12@0@AEAU10@@Z
xdata	ENDS
;	COMDAT xdata
xdata	SEGMENT
$ip2state$?_Release@_Basic_container_proxy_ptr12@std@@QEAAXXZ DB 02H
	DB	00H
	DB	00H
xdata	ENDS
;	COMDAT xdata
xdata	SEGMENT
$cppxdata$?_Release@_Basic_container_proxy_ptr12@std@@QEAAXXZ DB 060H
	DD	imagerel $ip2state$?_Release@_Basic_container_proxy_ptr12@std@@QEAAXXZ
xdata	ENDS
;	COMDAT xdata
xdata	SEGMENT
$unwind$?_Release@_Basic_container_proxy_ptr12@std@@QEAAXXZ DD 025052a19H
	DD	010e2313H
	DD	07007001dH
	DD	05006H
	DD	imagerel __CxxFrameHandler4
	DD	imagerel $cppxdata$?_Release@_Basic_container_proxy_ptr12@std@@QEAAXXZ
xdata	ENDS
;	COMDAT xdata
xdata	SEGMENT
$ip2state$?_Orphan_all@_Container_base12@std@@QEAAXXZ DB 02H
	DB	00H
	DB	00H
xdata	ENDS
;	COMDAT xdata
xdata	SEGMENT
$cppxdata$?_Orphan_all@_Container_base12@std@@QEAAXXZ DB 060H
	DD	imagerel $ip2state$?_Orphan_all@_Container_base12@std@@QEAAXXZ
xdata	ENDS
;	COMDAT xdata
xdata	SEGMENT
$unwind$?_Orphan_all@_Container_base12@std@@QEAAXXZ DD 025053b19H
	DD	010e2313H
	DD	070070025H
	DD	05006H
	DD	imagerel __GSHandlerCheck_EH4
	DD	imagerel $cppxdata$?_Orphan_all@_Container_base12@std@@QEAAXXZ
	DD	011bH
xdata	ENDS
;	COMDAT CONST
CONST	SEGMENT
?_Orphan_all@_Container_base12@std@@QEAAXXZ$rtcName$0 DB 05fH ; std::_Container_base12::_Orphan_all
	DB	04cH
	DB	06fH
	DB	063H
	DB	06bH
	DB	00H
	ORG $+10
?_Orphan_all@_Container_base12@std@@QEAAXXZ$rtcVarDesc DD 024H ; std::_Container_base12::_Orphan_all
	DD	04H
	DQ	FLAT:?_Orphan_all@_Container_base12@std@@QEAAXXZ$rtcName$0
	ORG $+48
?_Orphan_all@_Container_base12@std@@QEAAXXZ$rtcFrameData DD 01H ; std::_Container_base12::_Orphan_all
	DD	00H
	DQ	FLAT:?_Orphan_all@_Container_base12@std@@QEAAXXZ$rtcVarDesc
CONST	ENDS
;	COMDAT xdata
xdata	SEGMENT
$ip2state$??0_Container_base12@std@@QEAA@XZ DB 02H
	DB	00H
	DB	00H
xdata	ENDS
;	COMDAT xdata
xdata	SEGMENT
$cppxdata$??0_Container_base12@std@@QEAA@XZ DB 060H
	DD	imagerel $ip2state$??0_Container_base12@std@@QEAA@XZ
xdata	ENDS
;	COMDAT xdata
xdata	SEGMENT
$unwind$??0_Container_base12@std@@QEAA@XZ DD 025052a19H
	DD	010e2313H
	DD	07007001dH
	DD	05006H
	DD	imagerel __CxxFrameHandler4
	DD	imagerel $cppxdata$??0_Container_base12@std@@QEAA@XZ
xdata	ENDS
;	COMDAT xdata
xdata	SEGMENT
$ip2state$??0_Container_proxy@std@@QEAA@PEAU_Container_base12@1@@Z DB 02H
	DB	00H
	DB	00H
xdata	ENDS
;	COMDAT xdata
xdata	SEGMENT
$cppxdata$??0_Container_proxy@std@@QEAA@PEAU_Container_base12@1@@Z DB 060H
	DD	imagerel $ip2state$??0_Container_proxy@std@@QEAA@PEAU_Container_base12@1@@Z
xdata	ENDS
;	COMDAT xdata
xdata	SEGMENT
$unwind$??0_Container_proxy@std@@QEAA@PEAU_Container_base12@1@@Z DD 025052f19H
	DD	01132318H
	DD	0700c001dH
	DD	0500bH
	DD	imagerel __CxxFrameHandler4
	DD	imagerel $cppxdata$??0_Container_proxy@std@@QEAA@PEAU_Container_base12@1@@Z
xdata	ENDS
;	COMDAT xdata
xdata	SEGMENT
$unwind$?_Adjust_manually_vector_aligned@std@@YAXAEAPEAXAEA_K@Z DD 035052f01H
	DD	01133318H
	DD	0700c002fH
	DD	0500bH
xdata	ENDS
;	COMDAT xdata
xdata	SEGMENT
$unwind$?_Allocate@_Default_allocate_traits@std@@SAPEAX_K@Z DD 025052a01H
	DD	010e2313H
	DD	07007001dH
	DD	05006H
xdata	ENDS
;	COMDAT xdata
xdata	SEGMENT
$unwind$?_Throw_bad_array_new_length@std@@YAXXZ DD 025051e01H
	DD	010a230fH
	DD	070030023H
	DD	05002H
xdata	ENDS
;	COMDAT xdata
xdata	SEGMENT
$unwind$??_Gbad_array_new_length@std@@UEAAPEAXI@Z DD 025052e01H
	DD	01122317H
	DD	0700b001dH
	DD	0500aH
xdata	ENDS
;	COMDAT xdata
xdata	SEGMENT
$unwind$??0bad_array_new_length@std@@QEAA@AEBV01@@Z DD 025052f01H
	DD	01132318H
	DD	0700c001dH
	DD	0500bH
xdata	ENDS
;	COMDAT xdata
xdata	SEGMENT
$unwind$??1bad_array_new_length@std@@UEAA@XZ DD 025052a01H
	DD	010e2313H
	DD	07007001dH
	DD	05006H
xdata	ENDS
;	COMDAT xdata
xdata	SEGMENT
$ip2state$??0bad_array_new_length@std@@QEAA@XZ DB 02H
	DB	00H
	DB	00H
xdata	ENDS
;	COMDAT xdata
xdata	SEGMENT
$cppxdata$??0bad_array_new_length@std@@QEAA@XZ DB 060H
	DD	imagerel $ip2state$??0bad_array_new_length@std@@QEAA@XZ
xdata	ENDS
;	COMDAT xdata
xdata	SEGMENT
$unwind$??0bad_array_new_length@std@@QEAA@XZ DD 025052a19H
	DD	010e2313H
	DD	07007001dH
	DD	05006H
	DD	imagerel __CxxFrameHandler4
	DD	imagerel $cppxdata$??0bad_array_new_length@std@@QEAA@XZ
xdata	ENDS
;	COMDAT xdata
xdata	SEGMENT
$unwind$??_Gbad_alloc@std@@UEAAPEAXI@Z DD 025052e01H
	DD	01122317H
	DD	0700b001dH
	DD	0500aH
xdata	ENDS
;	COMDAT xdata
xdata	SEGMENT
$unwind$??0bad_alloc@std@@QEAA@AEBV01@@Z DD 025052f01H
	DD	01132318H
	DD	0700c001dH
	DD	0500bH
xdata	ENDS
;	COMDAT xdata
xdata	SEGMENT
$unwind$??1bad_alloc@std@@UEAA@XZ DD 025052a01H
	DD	010e2313H
	DD	07007001dH
	DD	05006H
xdata	ENDS
;	COMDAT xdata
xdata	SEGMENT
$ip2state$??0bad_alloc@std@@AEAA@QEBD@Z DB 02H
	DB	00H
	DB	00H
xdata	ENDS
;	COMDAT xdata
xdata	SEGMENT
$cppxdata$??0bad_alloc@std@@AEAA@QEBD@Z DB 060H
	DD	imagerel $ip2state$??0bad_alloc@std@@AEAA@QEBD@Z
xdata	ENDS
;	COMDAT xdata
xdata	SEGMENT
$unwind$??0bad_alloc@std@@AEAA@QEBD@Z DD 025052f19H
	DD	01132318H
	DD	0700c001dH
	DD	0500bH
	DD	imagerel __CxxFrameHandler4
	DD	imagerel $cppxdata$??0bad_alloc@std@@AEAA@QEBD@Z
xdata	ENDS
;	COMDAT xdata
xdata	SEGMENT
$unwind$??_Gexception@std@@UEAAPEAXI@Z DD 025052e01H
	DD	01122317H
	DD	0700b001dH
	DD	0500aH
xdata	ENDS
;	COMDAT xdata
xdata	SEGMENT
$unwind$?what@exception@std@@UEBAPEBDXZ DD 025052a01H
	DD	010e2313H
	DD	07007001fH
	DD	05006H
xdata	ENDS
;	COMDAT xdata
xdata	SEGMENT
$ip2state$??1exception@std@@UEAA@XZ DB 02H
	DB	00H
	DB	00H
xdata	ENDS
;	COMDAT xdata
xdata	SEGMENT
$cppxdata$??1exception@std@@UEAA@XZ DB 060H
	DD	imagerel $ip2state$??1exception@std@@UEAA@XZ
xdata	ENDS
;	COMDAT xdata
xdata	SEGMENT
$unwind$??1exception@std@@UEAA@XZ DD 025052a19H
	DD	010e2313H
	DD	07007001dH
	DD	05006H
	DD	imagerel __CxxFrameHandler4
	DD	imagerel $cppxdata$??1exception@std@@UEAA@XZ
xdata	ENDS
;	COMDAT xdata
xdata	SEGMENT
$ip2state$??0exception@std@@QEAA@AEBV01@@Z DB 02H
	DB	00H
	DB	00H
xdata	ENDS
;	COMDAT xdata
xdata	SEGMENT
$cppxdata$??0exception@std@@QEAA@AEBV01@@Z DB 060H
	DD	imagerel $ip2state$??0exception@std@@QEAA@AEBV01@@Z
xdata	ENDS
;	COMDAT xdata
xdata	SEGMENT
$unwind$??0exception@std@@QEAA@AEBV01@@Z DD 025052f19H
	DD	01132318H
	DD	0700c001dH
	DD	0500bH
	DD	imagerel __CxxFrameHandler4
	DD	imagerel $cppxdata$??0exception@std@@QEAA@AEBV01@@Z
xdata	ENDS
;	COMDAT xdata
xdata	SEGMENT
$ip2state$??0exception@std@@QEAA@QEBDH@Z DB 02H
	DB	00H
	DB	00H
xdata	ENDS
;	COMDAT xdata
xdata	SEGMENT
$cppxdata$??0exception@std@@QEAA@QEBDH@Z DB 060H
	DD	imagerel $ip2state$??0exception@std@@QEAA@QEBDH@Z
xdata	ENDS
;	COMDAT xdata
xdata	SEGMENT
$unwind$??0exception@std@@QEAA@QEBDH@Z DD 025053419H
	DD	0118231dH
	DD	07011001dH
	DD	05010H
	DD	imagerel __CxxFrameHandler4
	DD	imagerel $cppxdata$??0exception@std@@QEAA@QEBDH@Z
xdata	ENDS
;	COMDAT xdata
xdata	SEGMENT
$ip2state$?max@?$numeric_limits@_J@std@@SA_JXZ DB 02H
	DB	00H
	DB	00H
xdata	ENDS
;	COMDAT xdata
xdata	SEGMENT
$cppxdata$?max@?$numeric_limits@_J@std@@SA_JXZ DB 060H
	DD	imagerel $ip2state$?max@?$numeric_limits@_J@std@@SA_JXZ
xdata	ENDS
;	COMDAT xdata
xdata	SEGMENT
$unwind$?max@?$numeric_limits@_J@std@@SA_JXZ DD 025051e19H
	DD	010a230fH
	DD	07003001dH
	DD	05002H
	DD	imagerel __CxxFrameHandler4
	DD	imagerel $cppxdata$?max@?$numeric_limits@_J@std@@SA_JXZ
xdata	ENDS
;	COMDAT xdata
xdata	SEGMENT
$ip2state$??2@YAPEAX_KPEAX@Z DB 02H
	DB	00H
	DB	00H
xdata	ENDS
;	COMDAT xdata
xdata	SEGMENT
$cppxdata$??2@YAPEAX_KPEAX@Z DB 060H
	DD	imagerel $ip2state$??2@YAPEAX_KPEAX@Z
xdata	ENDS
;	COMDAT xdata
xdata	SEGMENT
$unwind$??2@YAPEAX_KPEAX@Z DD 025052f19H
	DD	01132318H
	DD	0700c001dH
	DD	0500bH
	DD	imagerel __CxxFrameHandler4
	DD	imagerel $cppxdata$??2@YAPEAX_KPEAX@Z
xdata	ENDS
;	COMDAT xdata
xdata	SEGMENT
$unwind$wmemcpy DD 025053401H
	DD	0118231dH
	DD	07011001dH
	DD	05010H
xdata	ENDS
;	COMDAT xdata
xdata	SEGMENT
$unwind$?__empty_global_delete@@YAXPEAX_K@Z DD 025052f01H
	DD	01132318H
	DD	0700c001dH
	DD	0500bH
xdata	ENDS
;	COMDAT xdata
xdata	SEGMENT
$unwind$?__empty_global_delete@@YAXPEAX@Z DD 025052a01H
	DD	010e2313H
	DD	07007001dH
	DD	05006H
xdata	ENDS
; Function compile flags: /Odt
;	COMDAT __JustMyCode_Default
_TEXT	SEGMENT
__JustMyCode_Default PROC				; COMDAT
  00000	c2 00 00	 ret	 0
__JustMyCode_Default ENDP
_TEXT	ENDS
; Function compile flags: /Odtp /RTCsu /ZI
; File C:\Program Files (x86)\Microsoft Visual Studio\2019\Enterprise\VC\Tools\MSVC\14.27.29110\include\xutility
;	COMDAT ??$_Verify_range@PEAUEntry@LT@@@std@@YAXQEBQEAUEntry@LT@@0@Z
_TEXT	SEGMENT
_First$ = 224
_Last$ = 232
??$_Verify_range@PEAUEntry@LT@@@std@@YAXQEBQEAUEntry@LT@@0@Z PROC ; std::_Verify_range<LT::Entry *>, COMDAT

; 1169 : constexpr void _Verify_range(const _Ty* const _First, const _Ty* const _Last) noexcept {

$LN12:
  00000	48 89 54 24 10	 mov	 QWORD PTR [rsp+16], rdx
  00005	48 89 4c 24 08	 mov	 QWORD PTR [rsp+8], rcx
  0000a	55		 push	 rbp
  0000b	57		 push	 rdi
  0000c	48 81 ec f8 00
	00 00		 sub	 rsp, 248		; 000000f8H
  00013	48 8d 6c 24 30	 lea	 rbp, QWORD PTR [rsp+48]
  00018	48 8b fc	 mov	 rdi, rsp
  0001b	b9 3e 00 00 00	 mov	 ecx, 62			; 0000003eH
  00020	b8 cc cc cc cc	 mov	 eax, -858993460		; ccccccccH
  00025	f3 ab		 rep stosd
  00027	48 8b 8c 24 18
	01 00 00	 mov	 rcx, QWORD PTR [rsp+280]
  0002f	48 8d 0d 00 00
	00 00		 lea	 rcx, OFFSET FLAT:__36E77527_xutility
  00036	e8 00 00 00 00	 call	 __CheckForDebuggerJustMyCode
$LN4@Verify_ran:

; 1170 :     // special case range verification for pointers
; 1171 :     _STL_VERIFY(_First <= _Last, "transposed pointer range");

  0003b	48 8b 85 e8 00
	00 00		 mov	 rax, QWORD PTR _Last$[rbp]
  00042	48 39 85 e0 00
	00 00		 cmp	 QWORD PTR _First$[rbp], rax
  00049	77 02		 ja	 SHORT $LN7@Verify_ran
  0004b	eb 6b		 jmp	 SHORT $LN9@Verify_ran
$LN7@Verify_ran:
  0004d	48 8d 05 00 00
	00 00		 lea	 rax, OFFSET FLAT:??_C@_0BJ@HAJGEHKO@transposed?5pointer?5range@
  00054	48 89 44 24 28	 mov	 QWORD PTR [rsp+40], rax
  00059	48 8d 05 00 00
	00 00		 lea	 rax, OFFSET FLAT:??_C@_02DKCKIIND@?$CFs@
  00060	48 89 44 24 20	 mov	 QWORD PTR [rsp+32], rax
  00065	45 33 c9	 xor	 r9d, r9d
  00068	41 b8 93 04 00
	00		 mov	 r8d, 1171		; 00000493H
  0006e	48 8d 15 00 00
	00 00		 lea	 rdx, OFFSET FLAT:??_C@_0GK@OHAIDBEA@C?3?2Program?5Files?5?$CIx86?$CJ?2Microsof@
  00075	b9 02 00 00 00	 mov	 ecx, 2
  0007a	ff 15 00 00 00
	00		 call	 QWORD PTR __imp__CrtDbgReport
  00080	83 f8 01	 cmp	 eax, 1
  00083	75 03		 jne	 SHORT $LN11@Verify_ran
  00085	cc		 int	 3
  00086	33 c0		 xor	 eax, eax
$LN11@Verify_ran:
  00088	48 c7 44 24 20
	00 00 00 00	 mov	 QWORD PTR [rsp+32], 0
  00091	41 b9 93 04 00
	00		 mov	 r9d, 1171		; 00000493H
  00097	4c 8d 05 00 00
	00 00		 lea	 r8, OFFSET FLAT:??_C@_1NE@NLDHILHB@?$AAC?$AA?3?$AA?2?$AAP?$AAr?$AAo?$AAg?$AAr?$AAa?$AAm?$AA?5?$AAF?$AAi?$AAl?$AAe@
  0009e	48 8d 15 00 00
	00 00		 lea	 rdx, OFFSET FLAT:??_C@_1CG@LJCPDKEJ@?$AAs?$AAt?$AAd?$AA?3?$AA?3?$AA_?$AAV?$AAe?$AAr?$AAi?$AAf?$AAy?$AA_?$AAr?$AAa@
  000a5	48 8d 0d 00 00
	00 00		 lea	 rcx, OFFSET FLAT:??_C@_1DG@FJIKMGFD@?$AA?$CC?$AAt?$AAr?$AAa?$AAn?$AAs?$AAp?$AAo?$AAs?$AAe?$AAd?$AA?5?$AAp?$AAo?$AAi@
  000ac	ff 15 00 00 00
	00		 call	 QWORD PTR __imp__invalid_parameter
  000b2	33 c0		 xor	 eax, eax
  000b4	85 c0		 test	 eax, eax
  000b6	75 95		 jne	 SHORT $LN7@Verify_ran
$LN9@Verify_ran:
  000b8	33 c0		 xor	 eax, eax
  000ba	85 c0		 test	 eax, eax
  000bc	0f 85 79 ff ff
	ff		 jne	 $LN4@Verify_ran

; 1172 : }

  000c2	48 8d a5 c8 00
	00 00		 lea	 rsp, QWORD PTR [rbp+200]
  000c9	5f		 pop	 rdi
  000ca	5d		 pop	 rbp
  000cb	c3		 ret	 0
??$_Verify_range@PEAUEntry@LT@@@std@@YAXQEBQEAUEntry@LT@@0@Z ENDP ; std::_Verify_range<LT::Entry *>
_TEXT	ENDS
; Function compile flags: /Odtp /RTCsu /ZI
; File C:\Program Files (x86)\Microsoft Visual Studio\2019\Enterprise\VC\Tools\MSVC\14.27.29110\include\xmemory
;	COMDAT ??$_Zero_range@PEAPEAUEntry@LT@@@std@@YAPEAPEAUEntry@LT@@QEAPEAU12@0@Z
_TEXT	SEGMENT
_First_ch$ = 8
_Last_ch$ = 40
_First$ = 288
_Last$ = 296
??$_Zero_range@PEAPEAUEntry@LT@@@std@@YAPEAPEAUEntry@LT@@QEAPEAU12@0@Z PROC ; std::_Zero_range<LT::Entry * *>, COMDAT

; 1814 : _Ptr _Zero_range(const _Ptr _First, const _Ptr _Last) { // fill [_First, _Last) with zeroes

$LN3:
  00000	48 89 54 24 10	 mov	 QWORD PTR [rsp+16], rdx
  00005	48 89 4c 24 08	 mov	 QWORD PTR [rsp+8], rcx
  0000a	55		 push	 rbp
  0000b	57		 push	 rdi
  0000c	48 81 ec 28 01
	00 00		 sub	 rsp, 296		; 00000128H
  00013	48 8d 6c 24 20	 lea	 rbp, QWORD PTR [rsp+32]
  00018	48 8b fc	 mov	 rdi, rsp
  0001b	b9 4a 00 00 00	 mov	 ecx, 74			; 0000004aH
  00020	b8 cc cc cc cc	 mov	 eax, -858993460		; ccccccccH
  00025	f3 ab		 rep stosd
  00027	48 8b 8c 24 48
	01 00 00	 mov	 rcx, QWORD PTR [rsp+328]
  0002f	48 8d 0d 00 00
	00 00		 lea	 rcx, OFFSET FLAT:__0C99713E_xmemory
  00036	e8 00 00 00 00	 call	 __CheckForDebuggerJustMyCode

; 1815 :     char* const _First_ch = reinterpret_cast<char*>(_First);

  0003b	48 8b 85 20 01
	00 00		 mov	 rax, QWORD PTR _First$[rbp]
  00042	48 89 45 08	 mov	 QWORD PTR _First_ch$[rbp], rax

; 1816 :     char* const _Last_ch  = reinterpret_cast<char*>(_Last);

  00046	48 8b 85 28 01
	00 00		 mov	 rax, QWORD PTR _Last$[rbp]
  0004d	48 89 45 28	 mov	 QWORD PTR _Last_ch$[rbp], rax

; 1817 :     _CSTD memset(_First_ch, 0, static_cast<size_t>(_Last_ch - _First_ch));

  00051	48 8b 45 08	 mov	 rax, QWORD PTR _First_ch$[rbp]
  00055	48 8b 4d 28	 mov	 rcx, QWORD PTR _Last_ch$[rbp]
  00059	48 2b c8	 sub	 rcx, rax
  0005c	48 8b c1	 mov	 rax, rcx
  0005f	4c 8b c0	 mov	 r8, rax
  00062	33 d2		 xor	 edx, edx
  00064	48 8b 4d 08	 mov	 rcx, QWORD PTR _First_ch$[rbp]
  00068	e8 00 00 00 00	 call	 memset

; 1818 :     return _Last;

  0006d	48 8b 85 28 01
	00 00		 mov	 rax, QWORD PTR _Last$[rbp]

; 1819 : }

  00074	48 8d a5 08 01
	00 00		 lea	 rsp, QWORD PTR [rbp+264]
  0007b	5f		 pop	 rdi
  0007c	5d		 pop	 rbp
  0007d	c3		 ret	 0
??$_Zero_range@PEAPEAUEntry@LT@@@std@@YAPEAPEAUEntry@LT@@QEAPEAU12@0@Z ENDP ; std::_Zero_range<LT::Entry * *>
_TEXT	ENDS
; Function compile flags: /Odtp /RTCsu /ZI
; File C:\Program Files (x86)\Microsoft Visual Studio\2019\Enterprise\VC\Tools\MSVC\14.27.29110\include\xutility
;	COMDAT ??$_Seek_wrapped@PEAPEAUEntry@LT@@AEAPEAPEAU12@@std@@YAXAEAPEAPEAUEntry@LT@@0@Z
_TEXT	SEGMENT
_It$ = 224
_UIt$ = 232
??$_Seek_wrapped@PEAPEAUEntry@LT@@AEAPEAPEAU12@@std@@YAXAEAPEAPEAUEntry@LT@@0@Z PROC ; std::_Seek_wrapped<LT::Entry * *,LT::Entry * * &>, COMDAT

; 1417 : constexpr void _Seek_wrapped(_Iter& _It, _UIter&& _UIt) {

$LN3:
  00000	48 89 54 24 10	 mov	 QWORD PTR [rsp+16], rdx
  00005	48 89 4c 24 08	 mov	 QWORD PTR [rsp+8], rcx
  0000a	55		 push	 rbp
  0000b	57		 push	 rdi
  0000c	48 81 ec e8 00
	00 00		 sub	 rsp, 232		; 000000e8H
  00013	48 8d 6c 24 20	 lea	 rbp, QWORD PTR [rsp+32]
  00018	48 8b fc	 mov	 rdi, rsp
  0001b	b9 3a 00 00 00	 mov	 ecx, 58			; 0000003aH
  00020	b8 cc cc cc cc	 mov	 eax, -858993460		; ccccccccH
  00025	f3 ab		 rep stosd
  00027	48 8b 8c 24 08
	01 00 00	 mov	 rcx, QWORD PTR [rsp+264]
  0002f	48 8d 0d 00 00
	00 00		 lea	 rcx, OFFSET FLAT:__36E77527_xutility
  00036	e8 00 00 00 00	 call	 __CheckForDebuggerJustMyCode

; 1418 :     if constexpr (_Wrapped_seekable_v<_Iter, _UIter>) {
; 1419 :         _It._Seek_to(static_cast<_UIter&&>(_UIt));
; 1420 :     } else {
; 1421 :         _It = static_cast<_UIter&&>(_UIt);

  0003b	48 8b 85 e0 00
	00 00		 mov	 rax, QWORD PTR _It$[rbp]
  00042	48 8b 8d e8 00
	00 00		 mov	 rcx, QWORD PTR _UIt$[rbp]
  00049	48 8b 09	 mov	 rcx, QWORD PTR [rcx]
  0004c	48 89 08	 mov	 QWORD PTR [rax], rcx

; 1422 :     }
; 1423 : }

  0004f	48 8d a5 c8 00
	00 00		 lea	 rsp, QWORD PTR [rbp+200]
  00056	5f		 pop	 rdi
  00057	5d		 pop	 rbp
  00058	c3		 ret	 0
??$_Seek_wrapped@PEAPEAUEntry@LT@@AEAPEAPEAU12@@std@@YAXAEAPEAPEAUEntry@LT@@0@Z ENDP ; std::_Seek_wrapped<LT::Entry * *,LT::Entry * * &>
_TEXT	ENDS
; Function compile flags: /Odtp /RTCsu /ZI
; File C:\Program Files (x86)\Microsoft Visual Studio\2019\Enterprise\VC\Tools\MSVC\14.27.29110\include\xutility
;	COMDAT ??$_Copy_memmove@PEAPEAUEntry@LT@@PEAPEAU12@@std@@YAPEAPEAUEntry@LT@@PEAPEAU12@00@Z
_TEXT	SEGMENT
_First_ch$ = 8
_Last_ch$ = 40
_Dest_ch$ = 72
_Count$ = 104
_First$ = 352
_Last$ = 360
_Dest$ = 368
??$_Copy_memmove@PEAPEAUEntry@LT@@PEAPEAU12@@std@@YAPEAPEAUEntry@LT@@PEAPEAU12@00@Z PROC ; std::_Copy_memmove<LT::Entry * *,LT::Entry * *>, COMDAT

; 4113 : _OutIt _Copy_memmove(_InIt _First, _InIt _Last, _OutIt _Dest) {

$LN3:
  00000	4c 89 44 24 18	 mov	 QWORD PTR [rsp+24], r8
  00005	48 89 54 24 10	 mov	 QWORD PTR [rsp+16], rdx
  0000a	48 89 4c 24 08	 mov	 QWORD PTR [rsp+8], rcx
  0000f	55		 push	 rbp
  00010	57		 push	 rdi
  00011	48 81 ec 68 01
	00 00		 sub	 rsp, 360		; 00000168H
  00018	48 8d 6c 24 20	 lea	 rbp, QWORD PTR [rsp+32]
  0001d	48 8b fc	 mov	 rdi, rsp
  00020	b9 5a 00 00 00	 mov	 ecx, 90			; 0000005aH
  00025	b8 cc cc cc cc	 mov	 eax, -858993460		; ccccccccH
  0002a	f3 ab		 rep stosd
  0002c	48 8b 8c 24 88
	01 00 00	 mov	 rcx, QWORD PTR [rsp+392]
  00034	48 8d 0d 00 00
	00 00		 lea	 rcx, OFFSET FLAT:__36E77527_xutility
  0003b	e8 00 00 00 00	 call	 __CheckForDebuggerJustMyCode

; 4114 :     const char* const _First_ch = const_cast<const char*>(reinterpret_cast<const volatile char*>(_First));

  00040	48 8b 85 60 01
	00 00		 mov	 rax, QWORD PTR _First$[rbp]
  00047	48 89 45 08	 mov	 QWORD PTR _First_ch$[rbp], rax

; 4115 :     const char* const _Last_ch  = const_cast<const char*>(reinterpret_cast<const volatile char*>(_Last));

  0004b	48 8b 85 68 01
	00 00		 mov	 rax, QWORD PTR _Last$[rbp]
  00052	48 89 45 28	 mov	 QWORD PTR _Last_ch$[rbp], rax

; 4116 :     char* const _Dest_ch        = const_cast<char*>(reinterpret_cast<volatile char*>(_Dest));

  00056	48 8b 85 70 01
	00 00		 mov	 rax, QWORD PTR _Dest$[rbp]
  0005d	48 89 45 48	 mov	 QWORD PTR _Dest_ch$[rbp], rax

; 4117 :     const auto _Count           = static_cast<size_t>(_Last_ch - _First_ch);

  00061	48 8b 45 08	 mov	 rax, QWORD PTR _First_ch$[rbp]
  00065	48 8b 4d 28	 mov	 rcx, QWORD PTR _Last_ch$[rbp]
  00069	48 2b c8	 sub	 rcx, rax
  0006c	48 8b c1	 mov	 rax, rcx
  0006f	48 89 45 68	 mov	 QWORD PTR _Count$[rbp], rax

; 4118 :     _CSTD memmove(_Dest_ch, _First_ch, _Count);

  00073	4c 8b 45 68	 mov	 r8, QWORD PTR _Count$[rbp]
  00077	48 8b 55 08	 mov	 rdx, QWORD PTR _First_ch$[rbp]
  0007b	48 8b 4d 48	 mov	 rcx, QWORD PTR _Dest_ch$[rbp]
  0007f	e8 00 00 00 00	 call	 memmove

; 4119 :     return reinterpret_cast<_OutIt>(_Dest_ch + _Count);

  00084	48 8b 45 68	 mov	 rax, QWORD PTR _Count$[rbp]
  00088	48 8b 4d 48	 mov	 rcx, QWORD PTR _Dest_ch$[rbp]
  0008c	48 03 c8	 add	 rcx, rax
  0008f	48 8b c1	 mov	 rax, rcx

; 4120 : }

  00092	48 8d a5 48 01
	00 00		 lea	 rsp, QWORD PTR [rbp+328]
  00099	5f		 pop	 rdi
  0009a	5d		 pop	 rbp
  0009b	c3		 ret	 0
??$_Copy_memmove@PEAPEAUEntry@LT@@PEAPEAU12@@std@@YAPEAPEAUEntry@LT@@PEAPEAU12@00@Z ENDP ; std::_Copy_memmove<LT::Entry * *,LT::Entry * *>
_TEXT	ENDS
; Function compile flags: /Odtp /RTCsu /ZI
; File C:\Program Files (x86)\Microsoft Visual Studio\2019\Enterprise\VC\Tools\MSVC\14.27.29110\include\xutility
;	COMDAT ??$_Get_unwrapped_n@AEAPEAPEAUEntry@LT@@_J@std@@YA@AEAPEAPEAUEntry@LT@@_J@Z
_TEXT	SEGMENT
_It$ = 224
_Off$ = 232
??$_Get_unwrapped_n@AEAPEAPEAUEntry@LT@@_J@std@@YA@AEAPEAPEAUEntry@LT@@_J@Z PROC ; std::_Get_unwrapped_n<LT::Entry * * &,__int64>, COMDAT

; 1335 : _NODISCARD constexpr decltype(auto) _Get_unwrapped_n(_Iter&& _It, const _Diff _Off) {

$LN3:
  00000	48 89 54 24 10	 mov	 QWORD PTR [rsp+16], rdx
  00005	48 89 4c 24 08	 mov	 QWORD PTR [rsp+8], rcx
  0000a	55		 push	 rbp
  0000b	57		 push	 rdi
  0000c	48 81 ec e8 00
	00 00		 sub	 rsp, 232		; 000000e8H
  00013	48 8d 6c 24 20	 lea	 rbp, QWORD PTR [rsp+32]
  00018	48 8b fc	 mov	 rdi, rsp
  0001b	b9 3a 00 00 00	 mov	 ecx, 58			; 0000003aH
  00020	b8 cc cc cc cc	 mov	 eax, -858993460		; ccccccccH
  00025	f3 ab		 rep stosd
  00027	48 8b 8c 24 08
	01 00 00	 mov	 rcx, QWORD PTR [rsp+264]
  0002f	48 8d 0d 00 00
	00 00		 lea	 rcx, OFFSET FLAT:__36E77527_xutility
  00036	e8 00 00 00 00	 call	 __CheckForDebuggerJustMyCode

; 1336 :     if constexpr (is_pointer_v<decay_t<_Iter>>) {
; 1337 :         return _It + 0;

  0003b	48 8b 85 e0 00
	00 00		 mov	 rax, QWORD PTR _It$[rbp]
  00042	48 8b 00	 mov	 rax, QWORD PTR [rax]

; 1338 :     } else if constexpr (_Unwrappable_for_offset_v<_Iter> && is_integral_v<_Diff>) {
; 1339 :         // ask an iterator to assert that the iterator moved _Off positions is valid, and unwrap
; 1340 :         using _IDiff     = _Iter_diff_t<_Remove_cvref_t<_Iter>>;
; 1341 :         using _CDiff     = common_type_t<_Diff, _IDiff>;
; 1342 :         const auto _COff = static_cast<_CDiff>(_Off);
; 1343 : 
; 1344 :         _STL_ASSERT(_COff <= static_cast<_CDiff>(_Max_possible_v<_IDiff>)
; 1345 :                         && (is_unsigned_v<_Diff> || static_cast<_CDiff>(_Min_possible_v<_IDiff>) <= _COff),
; 1346 :             "integer overflow");
; 1347 :         (void) _COff;
; 1348 : 
; 1349 :         _It._Verify_offset(static_cast<_IDiff>(_Off));
; 1350 :         return static_cast<_Iter&&>(_It)._Unwrapped();
; 1351 :     } else if constexpr (_Unwrappable_for_unverified_v<_Iter>) {
; 1352 :         // iterator doesn't support offset-based asserts, or offset unknown; defer to unverified unwrap
; 1353 :         return static_cast<_Iter&&>(_It)._Unwrapped();
; 1354 :     } else {
; 1355 :         // pass through iterator that doesn't participate in checking
; 1356 :         return static_cast<_Iter&&>(_It);
; 1357 :     }
; 1358 : }

  00045	48 8d a5 c8 00
	00 00		 lea	 rsp, QWORD PTR [rbp+200]
  0004c	5f		 pop	 rdi
  0004d	5d		 pop	 rbp
  0004e	c3		 ret	 0
??$_Get_unwrapped_n@AEAPEAPEAUEntry@LT@@_J@std@@YA@AEAPEAPEAUEntry@LT@@_J@Z ENDP ; std::_Get_unwrapped_n<LT::Entry * * &,__int64>
_TEXT	ENDS
; Function compile flags: /Odtp /RTCsu /ZI
; File C:\Program Files (x86)\Microsoft Visual Studio\2019\Enterprise\VC\Tools\MSVC\14.27.29110\include\xutility
;	COMDAT ??$_Idl_distance@PEAPEAUEntry@LT@@PEAPEAU12@@std@@YA@AEBQEAPEAUEntry@LT@@0@Z
_TEXT	SEGMENT
_First$ = 224
_Last$ = 232
??$_Idl_distance@PEAPEAUEntry@LT@@PEAPEAU12@@std@@YA@AEBQEAPEAUEntry@LT@@0@Z PROC ; std::_Idl_distance<LT::Entry * *,LT::Entry * *>, COMDAT

; 1483 : _NODISCARD constexpr auto _Idl_distance(const _Iter& _First, const _Iter& _Last) {

$LN3:
  00000	48 89 54 24 10	 mov	 QWORD PTR [rsp+16], rdx
  00005	48 89 4c 24 08	 mov	 QWORD PTR [rsp+8], rcx
  0000a	55		 push	 rbp
  0000b	57		 push	 rdi
  0000c	48 81 ec e8 00
	00 00		 sub	 rsp, 232		; 000000e8H
  00013	48 8d 6c 24 20	 lea	 rbp, QWORD PTR [rsp+32]
  00018	48 8b fc	 mov	 rdi, rsp
  0001b	b9 3a 00 00 00	 mov	 ecx, 58			; 0000003aH
  00020	b8 cc cc cc cc	 mov	 eax, -858993460		; ccccccccH
  00025	f3 ab		 rep stosd
  00027	48 8b 8c 24 08
	01 00 00	 mov	 rcx, QWORD PTR [rsp+264]
  0002f	48 8d 0d 00 00
	00 00		 lea	 rcx, OFFSET FLAT:__36E77527_xutility
  00036	e8 00 00 00 00	 call	 __CheckForDebuggerJustMyCode

; 1484 :     // tries to get the distance between _First and _Last if they are random-access iterators
; 1485 :     if constexpr (_Is_random_iter_v<_Iter>) {
; 1486 :         return static_cast<_Iter_diff_t<_Checked>>(_Last - _First);

  0003b	48 8b 85 e8 00
	00 00		 mov	 rax, QWORD PTR _Last$[rbp]
  00042	48 8b 8d e0 00
	00 00		 mov	 rcx, QWORD PTR _First$[rbp]
  00049	48 8b 09	 mov	 rcx, QWORD PTR [rcx]
  0004c	48 8b 00	 mov	 rax, QWORD PTR [rax]
  0004f	48 2b c1	 sub	 rax, rcx
  00052	48 c1 f8 03	 sar	 rax, 3

; 1487 :     } else {
; 1488 :         return _Distance_unknown{};
; 1489 :     }
; 1490 : }

  00056	48 8d a5 c8 00
	00 00		 lea	 rsp, QWORD PTR [rbp+200]
  0005d	5f		 pop	 rdi
  0005e	5d		 pop	 rbp
  0005f	c3		 ret	 0
??$_Idl_distance@PEAPEAUEntry@LT@@PEAPEAU12@@std@@YA@AEBQEAPEAUEntry@LT@@0@Z ENDP ; std::_Idl_distance<LT::Entry * *,LT::Entry * *>
_TEXT	ENDS
; Function compile flags: /Odtp /RTCsu /ZI
; File C:\Program Files (x86)\Microsoft Visual Studio\2019\Enterprise\VC\Tools\MSVC\14.27.29110\include\xutility
;	COMDAT ??$_Get_unwrapped@AEBQEAPEAUEntry@LT@@@std@@YA@AEBQEAPEAUEntry@LT@@@Z
_TEXT	SEGMENT
_It$ = 224
??$_Get_unwrapped@AEBQEAPEAUEntry@LT@@@std@@YA@AEBQEAPEAUEntry@LT@@@Z PROC ; std::_Get_unwrapped<LT::Entry * * const &>, COMDAT

; 1229 : _NODISCARD constexpr decltype(auto) _Get_unwrapped(_Iter&& _It) {

$LN3:
  00000	48 89 4c 24 08	 mov	 QWORD PTR [rsp+8], rcx
  00005	55		 push	 rbp
  00006	57		 push	 rdi
  00007	48 81 ec e8 00
	00 00		 sub	 rsp, 232		; 000000e8H
  0000e	48 8d 6c 24 20	 lea	 rbp, QWORD PTR [rsp+32]
  00013	48 8b fc	 mov	 rdi, rsp
  00016	b9 3a 00 00 00	 mov	 ecx, 58			; 0000003aH
  0001b	b8 cc cc cc cc	 mov	 eax, -858993460		; ccccccccH
  00020	f3 ab		 rep stosd
  00022	48 8b 8c 24 08
	01 00 00	 mov	 rcx, QWORD PTR [rsp+264]
  0002a	48 8d 0d 00 00
	00 00		 lea	 rcx, OFFSET FLAT:__36E77527_xutility
  00031	e8 00 00 00 00	 call	 __CheckForDebuggerJustMyCode

; 1230 :     // unwrap an iterator previously subjected to _Adl_verify_range or otherwise validated
; 1231 :     if constexpr (is_pointer_v<decay_t<_Iter>>) { // special-case pointers and arrays
; 1232 :         return _It + 0;

  00036	48 8b 85 e0 00
	00 00		 mov	 rax, QWORD PTR _It$[rbp]
  0003d	48 8b 00	 mov	 rax, QWORD PTR [rax]

; 1233 :     } else if constexpr (_Unwrappable_v<_Iter>) {
; 1234 :         return static_cast<_Iter&&>(_It)._Unwrapped();
; 1235 :     } else {
; 1236 :         return static_cast<_Iter&&>(_It);
; 1237 :     }
; 1238 : }

  00040	48 8d a5 c8 00
	00 00		 lea	 rsp, QWORD PTR [rbp+200]
  00047	5f		 pop	 rdi
  00048	5d		 pop	 rbp
  00049	c3		 ret	 0
??$_Get_unwrapped@AEBQEAPEAUEntry@LT@@@std@@YA@AEBQEAPEAUEntry@LT@@@Z ENDP ; std::_Get_unwrapped<LT::Entry * * const &>
_TEXT	ENDS
; Function compile flags: /Odtp /RTCsu /ZI
; File C:\Program Files (x86)\Microsoft Visual Studio\2019\Enterprise\VC\Tools\MSVC\14.27.29110\include\xutility
;	COMDAT ??$_Adl_verify_range@PEAPEAUEntry@LT@@PEAPEAU12@@std@@YAXAEBQEAPEAUEntry@LT@@0@Z
_TEXT	SEGMENT
_First$ = 224
_Last$ = 232
??$_Adl_verify_range@PEAPEAUEntry@LT@@PEAPEAU12@@std@@YAXAEBQEAPEAUEntry@LT@@0@Z PROC ; std::_Adl_verify_range<LT::Entry * *,LT::Entry * *>, COMDAT

; 1192 : constexpr void _Adl_verify_range(const _Iter& _First, const _Sentinel& _Last) {

$LN3:
  00000	48 89 54 24 10	 mov	 QWORD PTR [rsp+16], rdx
  00005	48 89 4c 24 08	 mov	 QWORD PTR [rsp+8], rcx
  0000a	55		 push	 rbp
  0000b	57		 push	 rdi
  0000c	48 81 ec e8 00
	00 00		 sub	 rsp, 232		; 000000e8H
  00013	48 8d 6c 24 20	 lea	 rbp, QWORD PTR [rsp+32]
  00018	48 8b fc	 mov	 rdi, rsp
  0001b	b9 3a 00 00 00	 mov	 ecx, 58			; 0000003aH
  00020	b8 cc cc cc cc	 mov	 eax, -858993460		; ccccccccH
  00025	f3 ab		 rep stosd
  00027	48 8b 8c 24 08
	01 00 00	 mov	 rcx, QWORD PTR [rsp+264]
  0002f	48 8d 0d 00 00
	00 00		 lea	 rcx, OFFSET FLAT:__36E77527_xutility
  00036	e8 00 00 00 00	 call	 __CheckForDebuggerJustMyCode

; 1193 :     // check that [_First, _Last) forms an iterator range
; 1194 :     if constexpr (_Range_verifiable_v<_Iter, _Sentinel>) {
; 1195 :         _Verify_range(_First, _Last);

  0003b	48 8b 85 e8 00
	00 00		 mov	 rax, QWORD PTR _Last$[rbp]
  00042	48 8b 10	 mov	 rdx, QWORD PTR [rax]
  00045	48 8b 85 e0 00
	00 00		 mov	 rax, QWORD PTR _First$[rbp]
  0004c	48 8b 08	 mov	 rcx, QWORD PTR [rax]
  0004f	e8 00 00 00 00	 call	 ??$_Verify_range@PEAUEntry@LT@@@std@@YAXQEBQEAUEntry@LT@@0@Z ; std::_Verify_range<LT::Entry *>

; 1196 :     }
; 1197 : }

  00054	48 8d a5 c8 00
	00 00		 lea	 rsp, QWORD PTR [rbp+200]
  0005b	5f		 pop	 rdi
  0005c	5d		 pop	 rbp
  0005d	c3		 ret	 0
??$_Adl_verify_range@PEAPEAUEntry@LT@@PEAPEAU12@@std@@YAXAEBQEAPEAUEntry@LT@@0@Z ENDP ; std::_Adl_verify_range<LT::Entry * *,LT::Entry * *>
_TEXT	ENDS
; Function compile flags: /Odtp /RTCsu /ZI
; File C:\Program Files (x86)\Microsoft Visual Studio\2019\Enterprise\VC\Tools\MSVC\14.27.29110\include\type_traits
;	COMDAT ??$forward@AEBQEAU?$_List_node@UEntry@LT@@PEAX@std@@@std@@YAAEBQEAU?$_List_node@UEntry@LT@@PEAX@0@AEBQEAU10@@Z
_TEXT	SEGMENT
_Arg$ = 224
??$forward@AEBQEAU?$_List_node@UEntry@LT@@PEAX@std@@@std@@YAAEBQEAU?$_List_node@UEntry@LT@@PEAX@0@AEBQEAU10@@Z PROC ; std::forward<std::_List_node<LT::Entry,void *> * const &>, COMDAT

; 1454 :     remove_reference_t<_Ty>& _Arg) noexcept { // forward an lvalue as either an lvalue or an rvalue

$LN3:
  00000	48 89 4c 24 08	 mov	 QWORD PTR [rsp+8], rcx
  00005	55		 push	 rbp
  00006	57		 push	 rdi
  00007	48 81 ec e8 00
	00 00		 sub	 rsp, 232		; 000000e8H
  0000e	48 8d 6c 24 20	 lea	 rbp, QWORD PTR [rsp+32]
  00013	48 8b fc	 mov	 rdi, rsp
  00016	b9 3a 00 00 00	 mov	 ecx, 58			; 0000003aH
  0001b	b8 cc cc cc cc	 mov	 eax, -858993460		; ccccccccH
  00020	f3 ab		 rep stosd
  00022	48 8b 8c 24 08
	01 00 00	 mov	 rcx, QWORD PTR [rsp+264]
  0002a	48 8d 0d 00 00
	00 00		 lea	 rcx, OFFSET FLAT:__B236D4B0_type_traits
  00031	e8 00 00 00 00	 call	 __CheckForDebuggerJustMyCode

; 1455 :     return static_cast<_Ty&&>(_Arg);

  00036	48 8b 85 e0 00
	00 00		 mov	 rax, QWORD PTR _Arg$[rbp]

; 1456 : }

  0003d	48 8d a5 c8 00
	00 00		 lea	 rsp, QWORD PTR [rbp+200]
  00044	5f		 pop	 rdi
  00045	5d		 pop	 rbp
  00046	c3		 ret	 0
??$forward@AEBQEAU?$_List_node@UEntry@LT@@PEAX@std@@@std@@YAAEBQEAU?$_List_node@UEntry@LT@@PEAX@0@AEBQEAU10@@Z ENDP ; std::forward<std::_List_node<LT::Entry,void *> * const &>
_TEXT	ENDS
; Function compile flags: /Odtp /RTCsu /ZI
; File C:\Program Files (x86)\Microsoft Visual Studio\2019\Enterprise\VC\Tools\MSVC\14.27.29110\include\xmemory
;	COMDAT ?deallocate@?$_Default_allocator_traits@V?$allocator@U_Container_proxy@std@@@std@@@std@@SAXAEAV?$allocator@U_Container_proxy@std@@@2@QEAU_Container_proxy@2@_K@Z
_TEXT	SEGMENT
__formal$ = 224
_Ptr$ = 232
_Count$ = 240
?deallocate@?$_Default_allocator_traits@V?$allocator@U_Container_proxy@std@@@std@@@std@@SAXAEAV?$allocator@U_Container_proxy@std@@@2@QEAU_Container_proxy@2@_K@Z PROC ; std::_Default_allocator_traits<std::allocator<std::_Container_proxy> >::deallocate, COMDAT

; 687  :     static void deallocate(_Alloc&, const pointer _Ptr, const size_type _Count) {

$LN3:
  00000	4c 89 44 24 18	 mov	 QWORD PTR [rsp+24], r8
  00005	48 89 54 24 10	 mov	 QWORD PTR [rsp+16], rdx
  0000a	48 89 4c 24 08	 mov	 QWORD PTR [rsp+8], rcx
  0000f	55		 push	 rbp
  00010	57		 push	 rdi
  00011	48 81 ec e8 00
	00 00		 sub	 rsp, 232		; 000000e8H
  00018	48 8d 6c 24 20	 lea	 rbp, QWORD PTR [rsp+32]
  0001d	48 8b fc	 mov	 rdi, rsp
  00020	b9 3a 00 00 00	 mov	 ecx, 58			; 0000003aH
  00025	b8 cc cc cc cc	 mov	 eax, -858993460		; ccccccccH
  0002a	f3 ab		 rep stosd
  0002c	48 8b 8c 24 08
	01 00 00	 mov	 rcx, QWORD PTR [rsp+264]
  00034	48 8d 0d 00 00
	00 00		 lea	 rcx, OFFSET FLAT:__0C99713E_xmemory
  0003b	e8 00 00 00 00	 call	 __CheckForDebuggerJustMyCode

; 688  :         // no overflow check on the following multiply; we assume _Allocate did that check
; 689  :         _Deallocate<_New_alignof<value_type>>(_Ptr, sizeof(value_type) * _Count);

  00040	48 6b 85 f0 00
	00 00 10	 imul	 rax, QWORD PTR _Count$[rbp], 16
  00048	48 8b d0	 mov	 rdx, rax
  0004b	48 8b 8d e8 00
	00 00		 mov	 rcx, QWORD PTR _Ptr$[rbp]
  00052	e8 00 00 00 00	 call	 ??$_Deallocate@$0BA@$0A@@std@@YAXPEAX_K@Z ; std::_Deallocate<16,0>

; 690  :     }

  00057	48 8d a5 c8 00
	00 00		 lea	 rsp, QWORD PTR [rbp+200]
  0005e	5f		 pop	 rdi
  0005f	5d		 pop	 rbp
  00060	c3		 ret	 0
?deallocate@?$_Default_allocator_traits@V?$allocator@U_Container_proxy@std@@@std@@@std@@SAXAEAV?$allocator@U_Container_proxy@std@@@2@QEAU_Container_proxy@2@_K@Z ENDP ; std::_Default_allocator_traits<std::allocator<std::_Container_proxy> >::deallocate
_TEXT	ENDS
; Function compile flags: /Odtp /RTCsu /ZI
; File C:\Program Files (x86)\Microsoft Visual Studio\2019\Enterprise\VC\Tools\MSVC\14.27.29110\include\xmemory
;	COMDAT ??$construct@UEntry@LT@@AEBU12@@?$_Default_allocator_traits@V?$allocator@U?$_List_node@UEntry@LT@@PEAX@std@@@std@@@std@@SAXAEAV?$allocator@U?$_List_node@UEntry@LT@@PEAX@std@@@1@QEAUEntry@LT@@AEBU34@@Z
_TEXT	SEGMENT
$T1 = 200
__formal$ = 256
_Ptr$ = 264
<_Args_0>$ = 272
??$construct@UEntry@LT@@AEBU12@@?$_Default_allocator_traits@V?$allocator@U?$_List_node@UEntry@LT@@PEAX@std@@@std@@@std@@SAXAEAV?$allocator@U?$_List_node@UEntry@LT@@PEAX@std@@@1@QEAUEntry@LT@@AEBU34@@Z PROC ; std::_Default_allocator_traits<std::allocator<std::_List_node<LT::Entry,void *> > >::construct<LT::Entry,LT::Entry const &>, COMDAT

; 693  :     static void construct(_Alloc&, _Objty* const _Ptr, _Types&&... _Args) {

$LN3:
  00000	4c 89 44 24 18	 mov	 QWORD PTR [rsp+24], r8
  00005	48 89 54 24 10	 mov	 QWORD PTR [rsp+16], rdx
  0000a	48 89 4c 24 08	 mov	 QWORD PTR [rsp+8], rcx
  0000f	55		 push	 rbp
  00010	56		 push	 rsi
  00011	57		 push	 rdi
  00012	48 81 ec 00 01
	00 00		 sub	 rsp, 256		; 00000100H
  00019	48 8d 6c 24 20	 lea	 rbp, QWORD PTR [rsp+32]
  0001e	48 8b fc	 mov	 rdi, rsp
  00021	b9 40 00 00 00	 mov	 ecx, 64			; 00000040H
  00026	b8 cc cc cc cc	 mov	 eax, -858993460		; ccccccccH
  0002b	f3 ab		 rep stosd
  0002d	48 8b 8c 24 28
	01 00 00	 mov	 rcx, QWORD PTR [rsp+296]
  00035	48 8d 0d 00 00
	00 00		 lea	 rcx, OFFSET FLAT:__0C99713E_xmemory
  0003c	e8 00 00 00 00	 call	 __CheckForDebuggerJustMyCode
  00041	48 8b 95 08 01
	00 00		 mov	 rdx, QWORD PTR _Ptr$[rbp]
  00048	b9 10 00 00 00	 mov	 ecx, 16
  0004d	e8 00 00 00 00	 call	 ??2@YAPEAX_KPEAX@Z	; operator new
  00052	48 89 85 c8 00
	00 00		 mov	 QWORD PTR $T1[rbp], rax
  00059	48 8b 8d 10 01
	00 00		 mov	 rcx, QWORD PTR <_Args_0>$[rbp]
  00060	e8 00 00 00 00	 call	 ??$forward@AEBUEntry@LT@@@std@@YAAEBUEntry@LT@@AEBU12@@Z ; std::forward<LT::Entry const &>
  00065	48 8b bd c8 00
	00 00		 mov	 rdi, QWORD PTR $T1[rbp]
  0006c	48 8b f0	 mov	 rsi, rax
  0006f	b9 10 00 00 00	 mov	 ecx, 16
  00074	f3 a4		 rep movsb

; 694  :         ::new (const_cast<void*>(static_cast<const volatile void*>(_Ptr))) _Objty(_STD forward<_Types>(_Args)...);
; 695  :     }

  00076	48 8d a5 e0 00
	00 00		 lea	 rsp, QWORD PTR [rbp+224]
  0007d	5f		 pop	 rdi
  0007e	5e		 pop	 rsi
  0007f	5d		 pop	 rbp
  00080	c3		 ret	 0
??$construct@UEntry@LT@@AEBU12@@?$_Default_allocator_traits@V?$allocator@U?$_List_node@UEntry@LT@@PEAX@std@@@std@@@std@@SAXAEAV?$allocator@U?$_List_node@UEntry@LT@@PEAX@std@@@1@QEAUEntry@LT@@AEBU34@@Z ENDP ; std::_Default_allocator_traits<std::allocator<std::_List_node<LT::Entry,void *> > >::construct<LT::Entry,LT::Entry const &>
_TEXT	ENDS
; Function compile flags: /Odtp /RTCsu /ZI
; File C:\Program Files (x86)\Microsoft Visual Studio\2019\Enterprise\VC\Tools\MSVC\14.27.29110\include\xmemory
;	COMDAT ??$_Get_size_of_n@$07@std@@YA_K_K@Z
_TEXT	SEGMENT
_Overflow_is_possible$ = 4
_Max_possible$1 = 40
_Count$ = 288
??$_Get_size_of_n@$07@std@@YA_K_K@Z PROC		; std::_Get_size_of_n<8>, COMDAT

; 55   : _NODISCARD constexpr size_t _Get_size_of_n(const size_t _Count) {

$LN4:
  00000	48 89 4c 24 08	 mov	 QWORD PTR [rsp+8], rcx
  00005	55		 push	 rbp
  00006	57		 push	 rdi
  00007	48 81 ec 28 01
	00 00		 sub	 rsp, 296		; 00000128H
  0000e	48 8d 6c 24 20	 lea	 rbp, QWORD PTR [rsp+32]
  00013	48 8b fc	 mov	 rdi, rsp
  00016	b9 4a 00 00 00	 mov	 ecx, 74			; 0000004aH
  0001b	b8 cc cc cc cc	 mov	 eax, -858993460		; ccccccccH
  00020	f3 ab		 rep stosd
  00022	48 8b 8c 24 48
	01 00 00	 mov	 rcx, QWORD PTR [rsp+328]
  0002a	48 8d 0d 00 00
	00 00		 lea	 rcx, OFFSET FLAT:__0C99713E_xmemory
  00031	e8 00 00 00 00	 call	 __CheckForDebuggerJustMyCode

; 56   :     constexpr bool _Overflow_is_possible = _Ty_size > 1;

  00036	c6 45 04 01	 mov	 BYTE PTR _Overflow_is_possible$[rbp], 1

; 57   : 
; 58   :     if _CONSTEXPR_IF (_Overflow_is_possible) {
; 59   :         constexpr size_t _Max_possible = static_cast<size_t>(-1) / _Ty_size;

  0003a	48 b8 ff ff ff
	ff ff ff ff 1f	 mov	 rax, 2305843009213693951 ; 1fffffffffffffffH
  00044	48 89 45 28	 mov	 QWORD PTR _Max_possible$1[rbp], rax

; 60   :         if (_Count > _Max_possible) {

  00048	48 b8 ff ff ff
	ff ff ff ff 1f	 mov	 rax, 2305843009213693951 ; 1fffffffffffffffH
  00052	48 39 85 20 01
	00 00		 cmp	 QWORD PTR _Count$[rbp], rax
  00059	76 05		 jbe	 SHORT $LN2@Get_size_o

; 61   :             _Throw_bad_array_new_length(); // multiply overflow

  0005b	e8 00 00 00 00	 call	 ?_Throw_bad_array_new_length@std@@YAXXZ ; std::_Throw_bad_array_new_length
$LN2@Get_size_o:

; 62   :         }
; 63   :     }
; 64   : 
; 65   :     return _Count * _Ty_size;

  00060	48 8b 85 20 01
	00 00		 mov	 rax, QWORD PTR _Count$[rbp]
  00067	48 c1 e0 03	 shl	 rax, 3
$LN3@Get_size_o:

; 66   : }

  0006b	48 8d a5 08 01
	00 00		 lea	 rsp, QWORD PTR [rbp+264]
  00072	5f		 pop	 rdi
  00073	5d		 pop	 rbp
  00074	c3		 ret	 0
??$_Get_size_of_n@$07@std@@YA_K_K@Z ENDP		; std::_Get_size_of_n<8>
_TEXT	ENDS
; Function compile flags: /Odtp /RTCsu /ZI
; File C:\Program Files (x86)\Microsoft Visual Studio\2019\Enterprise\VC\Tools\MSVC\14.27.29110\include\xmemory
;	COMDAT ??$_Destroy_range@PEAPEAUEntry@LT@@@std@@YAXPEAPEAUEntry@LT@@QEAPEAU12@@Z
_TEXT	SEGMENT
_First$ = 224
_Last$ = 232
??$_Destroy_range@PEAPEAUEntry@LT@@@std@@YAXPEAPEAUEntry@LT@@QEAPEAU12@@Z PROC ; std::_Destroy_range<LT::Entry * *>, COMDAT

; 968  : void _Destroy_range(_NoThrowFwdIt _First, const _NoThrowFwdIt _Last) noexcept {

$LN3:
  00000	48 89 54 24 10	 mov	 QWORD PTR [rsp+16], rdx
  00005	48 89 4c 24 08	 mov	 QWORD PTR [rsp+8], rcx
  0000a	55		 push	 rbp
  0000b	57		 push	 rdi
  0000c	48 81 ec e8 00
	00 00		 sub	 rsp, 232		; 000000e8H
  00013	48 8d 6c 24 20	 lea	 rbp, QWORD PTR [rsp+32]
  00018	48 8b fc	 mov	 rdi, rsp
  0001b	b9 3a 00 00 00	 mov	 ecx, 58			; 0000003aH
  00020	b8 cc cc cc cc	 mov	 eax, -858993460		; ccccccccH
  00025	f3 ab		 rep stosd
  00027	48 8b 8c 24 08
	01 00 00	 mov	 rcx, QWORD PTR [rsp+264]
  0002f	48 8d 0d 00 00
	00 00		 lea	 rcx, OFFSET FLAT:__0C99713E_xmemory
  00036	e8 00 00 00 00	 call	 __CheckForDebuggerJustMyCode
  0003b	90		 npad	 1

; 969  :     // note that this is an optimization for debug mode codegen; in release mode the BE removes all of this
; 970  :     if _CONSTEXPR_IF (!is_trivially_destructible_v<_Iter_value_t<_NoThrowFwdIt>>) {
; 971  :         for (; _First != _Last; ++_First) {
; 972  :             _Destroy_in_place(*_First);
; 973  :         }
; 974  :     }
; 975  : }

  0003c	48 8d a5 c8 00
	00 00		 lea	 rsp, QWORD PTR [rbp+200]
  00043	5f		 pop	 rdi
  00044	5d		 pop	 rbp
  00045	c3		 ret	 0
??$_Destroy_range@PEAPEAUEntry@LT@@@std@@YAXPEAPEAUEntry@LT@@QEAPEAU12@@Z ENDP ; std::_Destroy_range<LT::Entry * *>
_TEXT	ENDS
; Function compile flags: /Odtp /RTCsu /ZI
; File C:\Program Files (x86)\Microsoft Visual Studio\2019\Enterprise\VC\Tools\MSVC\14.27.29110\include\xmemory
;	COMDAT ??$_Uninitialized_value_construct_n_unchecked1@PEAPEAUEntry@LT@@_K@std@@YAPEAPEAUEntry@LT@@PEAPEAU12@_K@Z
_TEXT	SEGMENT
_UFirst$ = 224
_Count$ = 232
??$_Uninitialized_value_construct_n_unchecked1@PEAPEAUEntry@LT@@_K@std@@YAPEAPEAUEntry@LT@@PEAPEAU12@_K@Z PROC ; std::_Uninitialized_value_construct_n_unchecked1<LT::Entry * *,unsigned __int64>, COMDAT

; 1874 : _NoThrowFwdIt _Uninitialized_value_construct_n_unchecked1(_NoThrowFwdIt _UFirst, _Diff _Count) {

$LN3:
  00000	48 89 54 24 10	 mov	 QWORD PTR [rsp+16], rdx
  00005	48 89 4c 24 08	 mov	 QWORD PTR [rsp+8], rcx
  0000a	55		 push	 rbp
  0000b	57		 push	 rdi
  0000c	48 81 ec e8 00
	00 00		 sub	 rsp, 232		; 000000e8H
  00013	48 8d 6c 24 20	 lea	 rbp, QWORD PTR [rsp+32]
  00018	48 8b fc	 mov	 rdi, rsp
  0001b	b9 3a 00 00 00	 mov	 ecx, 58			; 0000003aH
  00020	b8 cc cc cc cc	 mov	 eax, -858993460		; ccccccccH
  00025	f3 ab		 rep stosd
  00027	48 8b 8c 24 08
	01 00 00	 mov	 rcx, QWORD PTR [rsp+264]
  0002f	48 8d 0d 00 00
	00 00		 lea	 rcx, OFFSET FLAT:__0C99713E_xmemory
  00036	e8 00 00 00 00	 call	 __CheckForDebuggerJustMyCode

; 1875 :     // value-initialize all elements in [_UFirst, _UFirst + _Count_raw)
; 1876 :     _STL_INTERNAL_CHECK(_Count >= 0);
; 1877 :     if constexpr (_Use_memset_value_construct_v<_NoThrowFwdIt>) {
; 1878 :         return _Zero_range(_UFirst, _UFirst + _Count);

  0003b	48 8b 85 e0 00
	00 00		 mov	 rax, QWORD PTR _UFirst$[rbp]
  00042	48 8b 8d e8 00
	00 00		 mov	 rcx, QWORD PTR _Count$[rbp]
  00049	48 8d 04 c8	 lea	 rax, QWORD PTR [rax+rcx*8]
  0004d	48 8b d0	 mov	 rdx, rax
  00050	48 8b 8d e0 00
	00 00		 mov	 rcx, QWORD PTR _UFirst$[rbp]
  00057	e8 00 00 00 00	 call	 ??$_Zero_range@PEAPEAUEntry@LT@@@std@@YAPEAPEAUEntry@LT@@QEAPEAU12@0@Z ; std::_Zero_range<LT::Entry * *>

; 1879 :     } else {
; 1880 :         _Uninitialized_backout<_NoThrowFwdIt> _Backout{_UFirst};
; 1881 :         for (; 0 < _Count; --_Count) {
; 1882 :             _Backout._Emplace_back();
; 1883 :         }
; 1884 : 
; 1885 :         return _Backout._Release();
; 1886 :     }
; 1887 : }

  0005c	48 8d a5 c8 00
	00 00		 lea	 rsp, QWORD PTR [rbp+200]
  00063	5f		 pop	 rdi
  00064	5d		 pop	 rbp
  00065	c3		 ret	 0
??$_Uninitialized_value_construct_n_unchecked1@PEAPEAUEntry@LT@@_K@std@@YAPEAPEAUEntry@LT@@PEAPEAU12@_K@Z ENDP ; std::_Uninitialized_value_construct_n_unchecked1<LT::Entry * *,unsigned __int64>
_TEXT	ENDS
; Function compile flags: /Odtp /RTCsu /ZI
; File C:\Program Files (x86)\Microsoft Visual Studio\2019\Enterprise\VC\Tools\MSVC\14.27.29110\include\xmemory
;	COMDAT ??$uninitialized_copy@PEAPEAUEntry@LT@@PEAPEAU12@@std@@YAPEAPEAUEntry@LT@@QEAPEAU12@0PEAPEAU12@@Z
_TEXT	SEGMENT
_UFirst$ = 8
_ULast$ = 40
_UDest$ = 72
__$ArrayPad$ = 280
_First$ = 320
_Last$ = 328
_Dest$ = 336
??$uninitialized_copy@PEAPEAUEntry@LT@@PEAPEAU12@@std@@YAPEAPEAUEntry@LT@@QEAPEAU12@0PEAPEAU12@@Z PROC ; std::uninitialized_copy<LT::Entry * *,LT::Entry * *>, COMDAT

; 1591 : _NoThrowFwdIt uninitialized_copy(const _InIt _First, const _InIt _Last, _NoThrowFwdIt _Dest) {

$LN3:
  00000	4c 89 44 24 18	 mov	 QWORD PTR [rsp+24], r8
  00005	48 89 54 24 10	 mov	 QWORD PTR [rsp+16], rdx
  0000a	48 89 4c 24 08	 mov	 QWORD PTR [rsp+8], rcx
  0000f	55		 push	 rbp
  00010	57		 push	 rdi
  00011	48 81 ec 48 01
	00 00		 sub	 rsp, 328		; 00000148H
  00018	48 8d 6c 24 20	 lea	 rbp, QWORD PTR [rsp+32]
  0001d	48 8b fc	 mov	 rdi, rsp
  00020	b9 52 00 00 00	 mov	 ecx, 82			; 00000052H
  00025	b8 cc cc cc cc	 mov	 eax, -858993460		; ccccccccH
  0002a	f3 ab		 rep stosd
  0002c	48 8b 8c 24 68
	01 00 00	 mov	 rcx, QWORD PTR [rsp+360]
  00034	48 8b 05 00 00
	00 00		 mov	 rax, QWORD PTR __security_cookie
  0003b	48 33 c5	 xor	 rax, rbp
  0003e	48 89 85 18 01
	00 00		 mov	 QWORD PTR __$ArrayPad$[rbp], rax
  00045	48 8d 0d 00 00
	00 00		 lea	 rcx, OFFSET FLAT:__0C99713E_xmemory
  0004c	e8 00 00 00 00	 call	 __CheckForDebuggerJustMyCode

; 1592 :     // copy [_First, _Last) to raw [_Dest, ...)
; 1593 :     _Adl_verify_range(_First, _Last);

  00051	48 8d 95 48 01
	00 00		 lea	 rdx, QWORD PTR _Last$[rbp]
  00058	48 8d 8d 40 01
	00 00		 lea	 rcx, QWORD PTR _First$[rbp]
  0005f	e8 00 00 00 00	 call	 ??$_Adl_verify_range@PEAPEAUEntry@LT@@PEAPEAU12@@std@@YAXAEBQEAPEAUEntry@LT@@0@Z ; std::_Adl_verify_range<LT::Entry * *,LT::Entry * *>

; 1594 :     auto _UFirst      = _Get_unwrapped(_First);

  00064	48 8d 8d 40 01
	00 00		 lea	 rcx, QWORD PTR _First$[rbp]
  0006b	e8 00 00 00 00	 call	 ??$_Get_unwrapped@AEBQEAPEAUEntry@LT@@@std@@YA@AEBQEAPEAUEntry@LT@@@Z ; std::_Get_unwrapped<LT::Entry * * const &>
  00070	48 89 45 08	 mov	 QWORD PTR _UFirst$[rbp], rax

; 1595 :     const auto _ULast = _Get_unwrapped(_Last);

  00074	48 8d 8d 48 01
	00 00		 lea	 rcx, QWORD PTR _Last$[rbp]
  0007b	e8 00 00 00 00	 call	 ??$_Get_unwrapped@AEBQEAPEAUEntry@LT@@@std@@YA@AEBQEAPEAUEntry@LT@@@Z ; std::_Get_unwrapped<LT::Entry * * const &>
  00080	48 89 45 28	 mov	 QWORD PTR _ULast$[rbp], rax

; 1596 :     auto _UDest       = _Get_unwrapped_n(_Dest, _Idl_distance<_InIt>(_UFirst, _ULast));

  00084	48 8d 55 28	 lea	 rdx, QWORD PTR _ULast$[rbp]
  00088	48 8d 4d 08	 lea	 rcx, QWORD PTR _UFirst$[rbp]
  0008c	e8 00 00 00 00	 call	 ??$_Idl_distance@PEAPEAUEntry@LT@@PEAPEAU12@@std@@YA@AEBQEAPEAUEntry@LT@@0@Z ; std::_Idl_distance<LT::Entry * *,LT::Entry * *>
  00091	48 8b d0	 mov	 rdx, rax
  00094	48 8d 8d 50 01
	00 00		 lea	 rcx, QWORD PTR _Dest$[rbp]
  0009b	e8 00 00 00 00	 call	 ??$_Get_unwrapped_n@AEAPEAPEAUEntry@LT@@_J@std@@YA@AEAPEAPEAUEntry@LT@@_J@Z ; std::_Get_unwrapped_n<LT::Entry * * &,__int64>
  000a0	48 89 45 48	 mov	 QWORD PTR _UDest$[rbp], rax

; 1597 :     if constexpr (_Ptr_copy_cat<decltype(_UFirst), decltype(_UDest)>::_Really_trivial) {
; 1598 :         _UDest = _Copy_memmove(_UFirst, _ULast, _UDest);

  000a4	4c 8b 45 48	 mov	 r8, QWORD PTR _UDest$[rbp]
  000a8	48 8b 55 28	 mov	 rdx, QWORD PTR _ULast$[rbp]
  000ac	48 8b 4d 08	 mov	 rcx, QWORD PTR _UFirst$[rbp]
  000b0	e8 00 00 00 00	 call	 ??$_Copy_memmove@PEAPEAUEntry@LT@@PEAPEAU12@@std@@YAPEAPEAUEntry@LT@@PEAPEAU12@00@Z ; std::_Copy_memmove<LT::Entry * *,LT::Entry * *>
  000b5	48 89 45 48	 mov	 QWORD PTR _UDest$[rbp], rax

; 1599 :     } else {
; 1600 :         _Uninitialized_backout<decltype(_UDest)> _Backout{_UDest};
; 1601 :         for (; _UFirst != _ULast; ++_UFirst) {
; 1602 :             _Backout._Emplace_back(*_UFirst);
; 1603 :         }
; 1604 : 
; 1605 :         _UDest = _Backout._Release();
; 1606 :     }
; 1607 : 
; 1608 :     _Seek_wrapped(_Dest, _UDest);

  000b9	48 8d 55 48	 lea	 rdx, QWORD PTR _UDest$[rbp]
  000bd	48 8d 8d 50 01
	00 00		 lea	 rcx, QWORD PTR _Dest$[rbp]
  000c4	e8 00 00 00 00	 call	 ??$_Seek_wrapped@PEAPEAUEntry@LT@@AEAPEAPEAU12@@std@@YAXAEAPEAPEAUEntry@LT@@0@Z ; std::_Seek_wrapped<LT::Entry * *,LT::Entry * * &>

; 1609 :     return _Dest;

  000c9	48 8b 85 50 01
	00 00		 mov	 rax, QWORD PTR _Dest$[rbp]

; 1610 : }

  000d0	48 8b f8	 mov	 rdi, rax
  000d3	48 8d 4d e0	 lea	 rcx, QWORD PTR [rbp-32]
  000d7	48 8d 15 00 00
	00 00		 lea	 rdx, OFFSET FLAT:??$uninitialized_copy@PEAPEAUEntry@LT@@PEAPEAU12@@std@@YAPEAPEAUEntry@LT@@QEAPEAU12@0PEAPEAU12@@Z$rtcFrameData
  000de	e8 00 00 00 00	 call	 _RTC_CheckStackVars
  000e3	48 8b c7	 mov	 rax, rdi
  000e6	48 8b 8d 18 01
	00 00		 mov	 rcx, QWORD PTR __$ArrayPad$[rbp]
  000ed	48 33 cd	 xor	 rcx, rbp
  000f0	e8 00 00 00 00	 call	 __security_check_cookie
  000f5	48 8d a5 28 01
	00 00		 lea	 rsp, QWORD PTR [rbp+296]
  000fc	5f		 pop	 rdi
  000fd	5d		 pop	 rbp
  000fe	c3		 ret	 0
??$uninitialized_copy@PEAPEAUEntry@LT@@PEAPEAU12@@std@@YAPEAPEAUEntry@LT@@QEAPEAU12@0PEAPEAU12@@Z ENDP ; std::uninitialized_copy<LT::Entry * *,LT::Entry * *>
_TEXT	ENDS
; Function compile flags: /Odtp /RTCsu /ZI
; File C:\Program Files (x86)\Microsoft Visual Studio\2019\Enterprise\VC\Tools\MSVC\14.27.29110\include\xmemory
;	COMDAT ??$_Construct_in_place@PEAU?$_List_node@UEntry@LT@@PEAX@std@@AEBQEAU12@@std@@YAXAEAPEAU?$_List_node@UEntry@LT@@PEAX@0@AEBQEAU10@@Z
_TEXT	SEGMENT
$T1 = 200
_Obj$ = 256
<_Args_0>$ = 264
??$_Construct_in_place@PEAU?$_List_node@UEntry@LT@@PEAX@std@@AEBQEAU12@@std@@YAXAEAPEAU?$_List_node@UEntry@LT@@PEAX@0@AEBQEAU10@@Z PROC ; std::_Construct_in_place<std::_List_node<LT::Entry,void *> *,std::_List_node<LT::Entry,void *> * const &>, COMDAT

; 228  : void _Construct_in_place(_Ty& _Obj, _Types&&... _Args) noexcept(is_nothrow_constructible_v<_Ty, _Types...>) {

$LN3:
  00000	48 89 54 24 10	 mov	 QWORD PTR [rsp+16], rdx
  00005	48 89 4c 24 08	 mov	 QWORD PTR [rsp+8], rcx
  0000a	55		 push	 rbp
  0000b	57		 push	 rdi
  0000c	48 81 ec 08 01
	00 00		 sub	 rsp, 264		; 00000108H
  00013	48 8d 6c 24 20	 lea	 rbp, QWORD PTR [rsp+32]
  00018	48 8b fc	 mov	 rdi, rsp
  0001b	b9 42 00 00 00	 mov	 ecx, 66			; 00000042H
  00020	b8 cc cc cc cc	 mov	 eax, -858993460		; ccccccccH
  00025	f3 ab		 rep stosd
  00027	48 8b 8c 24 28
	01 00 00	 mov	 rcx, QWORD PTR [rsp+296]
  0002f	48 8d 0d 00 00
	00 00		 lea	 rcx, OFFSET FLAT:__0C99713E_xmemory
  00036	e8 00 00 00 00	 call	 __CheckForDebuggerJustMyCode
  0003b	48 8b 8d 00 01
	00 00		 mov	 rcx, QWORD PTR _Obj$[rbp]
  00042	e8 00 00 00 00	 call	 ??$addressof@PEAU?$_List_node@UEntry@LT@@PEAX@std@@@std@@YAPEAPEAU?$_List_node@UEntry@LT@@PEAX@0@AEAPEAU10@@Z ; std::addressof<std::_List_node<LT::Entry,void *> *>
  00047	48 8b d0	 mov	 rdx, rax
  0004a	b9 08 00 00 00	 mov	 ecx, 8
  0004f	e8 00 00 00 00	 call	 ??2@YAPEAX_KPEAX@Z	; operator new
  00054	48 89 85 c8 00
	00 00		 mov	 QWORD PTR $T1[rbp], rax
  0005b	48 8b 8d 08 01
	00 00		 mov	 rcx, QWORD PTR <_Args_0>$[rbp]
  00062	e8 00 00 00 00	 call	 ??$forward@AEBQEAU?$_List_node@UEntry@LT@@PEAX@std@@@std@@YAAEBQEAU?$_List_node@UEntry@LT@@PEAX@0@AEBQEAU10@@Z ; std::forward<std::_List_node<LT::Entry,void *> * const &>
  00067	48 8b 8d c8 00
	00 00		 mov	 rcx, QWORD PTR $T1[rbp]
  0006e	48 8b 00	 mov	 rax, QWORD PTR [rax]
  00071	48 89 01	 mov	 QWORD PTR [rcx], rax

; 229  :     ::new (const_cast<void*>(static_cast<const volatile void*>(_STD addressof(_Obj))))
; 230  :         _Ty(_STD forward<_Types>(_Args)...);
; 231  : }

  00074	48 8d a5 e8 00
	00 00		 lea	 rsp, QWORD PTR [rbp+232]
  0007b	5f		 pop	 rdi
  0007c	5d		 pop	 rbp
  0007d	c3		 ret	 0
??$_Construct_in_place@PEAU?$_List_node@UEntry@LT@@PEAX@std@@AEBQEAU12@@std@@YAXAEAPEAU?$_List_node@UEntry@LT@@PEAX@0@AEBQEAU10@@Z ENDP ; std::_Construct_in_place<std::_List_node<LT::Entry,void *> *,std::_List_node<LT::Entry,void *> * const &>
_TEXT	ENDS
; Function compile flags: /Odtp /RTCsu /ZI
; File C:\Program Files (x86)\Microsoft Visual Studio\2019\Enterprise\VC\Tools\MSVC\14.27.29110\include\xmemory
;	COMDAT ??$_Allocate_manually_vector_aligned@U_Default_allocate_traits@std@@@std@@YAPEAX_K@Z
_TEXT	SEGMENT
_Block_size$ = 8
_Ptr_container$ = 40
_Ptr$ = 72
_Bytes$ = 320
??$_Allocate_manually_vector_aligned@U_Default_allocate_traits@std@@@std@@YAPEAX_K@Z PROC ; std::_Allocate_manually_vector_aligned<std::_Default_allocate_traits>, COMDAT

; 113  : __declspec(allocator) void* _Allocate_manually_vector_aligned(const size_t _Bytes) {

$LN13:
  00000	48 89 4c 24 08	 mov	 QWORD PTR [rsp+8], rcx
  00005	55		 push	 rbp
  00006	57		 push	 rdi
  00007	48 81 ec 58 01
	00 00		 sub	 rsp, 344		; 00000158H
  0000e	48 8d 6c 24 30	 lea	 rbp, QWORD PTR [rsp+48]
  00013	48 8b fc	 mov	 rdi, rsp
  00016	b9 56 00 00 00	 mov	 ecx, 86			; 00000056H
  0001b	b8 cc cc cc cc	 mov	 eax, -858993460		; ccccccccH
  00020	f3 ab		 rep stosd
  00022	48 8b 8c 24 78
	01 00 00	 mov	 rcx, QWORD PTR [rsp+376]
  0002a	48 8d 0d 00 00
	00 00		 lea	 rcx, OFFSET FLAT:__0C99713E_xmemory
  00031	e8 00 00 00 00	 call	 __CheckForDebuggerJustMyCode

; 114  :     // allocate _Bytes manually aligned to at least _Big_allocation_alignment
; 115  :     const size_t _Block_size = _Non_user_size + _Bytes;

  00036	48 8b 85 40 01
	00 00		 mov	 rax, QWORD PTR _Bytes$[rbp]
  0003d	48 83 c0 2f	 add	 rax, 47			; 0000002fH
  00041	48 89 45 08	 mov	 QWORD PTR _Block_size$[rbp], rax

; 116  :     if (_Block_size <= _Bytes) {

  00045	48 8b 85 40 01
	00 00		 mov	 rax, QWORD PTR _Bytes$[rbp]
  0004c	48 39 45 08	 cmp	 QWORD PTR _Block_size$[rbp], rax
  00050	77 05		 ja	 SHORT $LN8@Allocate_m

; 117  :         _Throw_bad_array_new_length(); // add overflow

  00052	e8 00 00 00 00	 call	 ?_Throw_bad_array_new_length@std@@YAXXZ ; std::_Throw_bad_array_new_length
$LN8@Allocate_m:

; 118  :     }
; 119  : 
; 120  :     const uintptr_t _Ptr_container = reinterpret_cast<uintptr_t>(_Traits::_Allocate(_Block_size));

  00057	48 8b 4d 08	 mov	 rcx, QWORD PTR _Block_size$[rbp]
  0005b	e8 00 00 00 00	 call	 ?_Allocate@_Default_allocate_traits@std@@SAPEAX_K@Z ; std::_Default_allocate_traits::_Allocate
  00060	48 89 45 28	 mov	 QWORD PTR _Ptr_container$[rbp], rax
$LN4@Allocate_m:

; 121  :     _STL_VERIFY(_Ptr_container != 0, "invalid argument"); // validate even in release since we're doing p[-1]

  00064	48 83 7d 28 00	 cmp	 QWORD PTR _Ptr_container$[rbp], 0
  00069	74 02		 je	 SHORT $LN9@Allocate_m
  0006b	eb 6b		 jmp	 SHORT $LN10@Allocate_m
$LN9@Allocate_m:
$LN7@Allocate_m:
  0006d	48 8d 05 00 00
	00 00		 lea	 rax, OFFSET FLAT:??_C@_0BB@FCMFBGOM@invalid?5argument@
  00074	48 89 44 24 28	 mov	 QWORD PTR [rsp+40], rax
  00079	48 8d 05 00 00
	00 00		 lea	 rax, OFFSET FLAT:??_C@_02DKCKIIND@?$CFs@
  00080	48 89 44 24 20	 mov	 QWORD PTR [rsp+32], rax
  00085	45 33 c9	 xor	 r9d, r9d
  00088	41 b8 79 00 00
	00		 mov	 r8d, 121		; 00000079H
  0008e	48 8d 15 00 00
	00 00		 lea	 rdx, OFFSET FLAT:??_C@_0GJ@EHJGLGPD@C?3?2Program?5Files?5?$CIx86?$CJ?2Microsof@
  00095	b9 02 00 00 00	 mov	 ecx, 2
  0009a	ff 15 00 00 00
	00		 call	 QWORD PTR __imp__CrtDbgReport
  000a0	83 f8 01	 cmp	 eax, 1
  000a3	75 03		 jne	 SHORT $LN12@Allocate_m
  000a5	cc		 int	 3
  000a6	33 c0		 xor	 eax, eax
$LN12@Allocate_m:
  000a8	48 c7 44 24 20
	00 00 00 00	 mov	 QWORD PTR [rsp+32], 0
  000b1	41 b9 79 00 00
	00		 mov	 r9d, 121		; 00000079H
  000b7	4c 8d 05 00 00
	00 00		 lea	 r8, OFFSET FLAT:??_C@_1NC@LBGPBFDE@?$AAC?$AA?3?$AA?2?$AAP?$AAr?$AAo?$AAg?$AAr?$AAa?$AAm?$AA?5?$AAF?$AAi?$AAl?$AAe@
  000be	48 8d 15 00 00
	00 00		 lea	 rdx, OFFSET FLAT:??_C@_1EO@GFNCMDLA@?$AAs?$AAt?$AAd?$AA?3?$AA?3?$AA_?$AAA?$AAl?$AAl?$AAo?$AAc?$AAa?$AAt?$AAe?$AA_@
  000c5	48 8d 0d 00 00
	00 00		 lea	 rcx, OFFSET FLAT:??_C@_1CG@JNLFBNGN@?$AA?$CC?$AAi?$AAn?$AAv?$AAa?$AAl?$AAi?$AAd?$AA?5?$AAa?$AAr?$AAg?$AAu?$AAm?$AAe@
  000cc	ff 15 00 00 00
	00		 call	 QWORD PTR __imp__invalid_parameter
  000d2	33 c0		 xor	 eax, eax
  000d4	85 c0		 test	 eax, eax
  000d6	75 95		 jne	 SHORT $LN7@Allocate_m
$LN10@Allocate_m:
  000d8	33 c0		 xor	 eax, eax
  000da	85 c0		 test	 eax, eax
  000dc	75 86		 jne	 SHORT $LN4@Allocate_m

; 122  :     void* const _Ptr = reinterpret_cast<void*>((_Ptr_container + _Non_user_size) & ~(_Big_allocation_alignment - 1));

  000de	48 8b 45 28	 mov	 rax, QWORD PTR _Ptr_container$[rbp]
  000e2	48 83 c0 2f	 add	 rax, 47			; 0000002fH
  000e6	48 83 e0 e0	 and	 rax, -32		; ffffffffffffffe0H
  000ea	48 89 45 48	 mov	 QWORD PTR _Ptr$[rbp], rax

; 123  :     static_cast<uintptr_t*>(_Ptr)[-1] = _Ptr_container;

  000ee	b8 08 00 00 00	 mov	 eax, 8
  000f3	48 6b c0 ff	 imul	 rax, rax, -1
  000f7	48 8b 4d 48	 mov	 rcx, QWORD PTR _Ptr$[rbp]
  000fb	48 8b 55 28	 mov	 rdx, QWORD PTR _Ptr_container$[rbp]
  000ff	48 89 14 01	 mov	 QWORD PTR [rcx+rax], rdx

; 124  : 
; 125  : #ifdef _DEBUG
; 126  :     static_cast<uintptr_t*>(_Ptr)[-2] = _Big_allocation_sentinel;

  00103	b8 08 00 00 00	 mov	 eax, 8
  00108	48 6b c0 fe	 imul	 rax, rax, -2
  0010c	48 8b 4d 48	 mov	 rcx, QWORD PTR _Ptr$[rbp]
  00110	48 ba fa fa fa
	fa fa fa fa fa	 mov	 rdx, -361700864190383366 ; fafafafafafafafaH
  0011a	48 89 14 01	 mov	 QWORD PTR [rcx+rax], rdx

; 127  : #endif // _DEBUG
; 128  :     return _Ptr;

  0011e	48 8b 45 48	 mov	 rax, QWORD PTR _Ptr$[rbp]
$LN11@Allocate_m:

; 129  : }

  00122	48 8d a5 28 01
	00 00		 lea	 rsp, QWORD PTR [rbp+296]
  00129	5f		 pop	 rdi
  0012a	5d		 pop	 rbp
  0012b	c3		 ret	 0
??$_Allocate_manually_vector_aligned@U_Default_allocate_traits@std@@@std@@YAPEAX_K@Z ENDP ; std::_Allocate_manually_vector_aligned<std::_Default_allocate_traits>
_TEXT	ENDS
; Function compile flags: /Odtp /RTCsu /ZI
; File C:\Program Files (x86)\Microsoft Visual Studio\2019\Enterprise\VC\Tools\MSVC\14.27.29110\include\xmemory
;	COMDAT ??$construct@UEntry@LT@@AEBU12@@?$_Default_allocator_traits@V?$allocator@UEntry@LT@@@std@@@std@@SAXAEAV?$allocator@UEntry@LT@@@1@QEAUEntry@LT@@AEBU34@@Z
_TEXT	SEGMENT
$T1 = 200
__formal$ = 256
_Ptr$ = 264
<_Args_0>$ = 272
??$construct@UEntry@LT@@AEBU12@@?$_Default_allocator_traits@V?$allocator@UEntry@LT@@@std@@@std@@SAXAEAV?$allocator@UEntry@LT@@@1@QEAUEntry@LT@@AEBU34@@Z PROC ; std::_Default_allocator_traits<std::allocator<LT::Entry> >::construct<LT::Entry,LT::Entry const &>, COMDAT

; 693  :     static void construct(_Alloc&, _Objty* const _Ptr, _Types&&... _Args) {

$LN3:
  00000	4c 89 44 24 18	 mov	 QWORD PTR [rsp+24], r8
  00005	48 89 54 24 10	 mov	 QWORD PTR [rsp+16], rdx
  0000a	48 89 4c 24 08	 mov	 QWORD PTR [rsp+8], rcx
  0000f	55		 push	 rbp
  00010	56		 push	 rsi
  00011	57		 push	 rdi
  00012	48 81 ec 00 01
	00 00		 sub	 rsp, 256		; 00000100H
  00019	48 8d 6c 24 20	 lea	 rbp, QWORD PTR [rsp+32]
  0001e	48 8b fc	 mov	 rdi, rsp
  00021	b9 40 00 00 00	 mov	 ecx, 64			; 00000040H
  00026	b8 cc cc cc cc	 mov	 eax, -858993460		; ccccccccH
  0002b	f3 ab		 rep stosd
  0002d	48 8b 8c 24 28
	01 00 00	 mov	 rcx, QWORD PTR [rsp+296]
  00035	48 8d 0d 00 00
	00 00		 lea	 rcx, OFFSET FLAT:__0C99713E_xmemory
  0003c	e8 00 00 00 00	 call	 __CheckForDebuggerJustMyCode
  00041	48 8b 95 08 01
	00 00		 mov	 rdx, QWORD PTR _Ptr$[rbp]
  00048	b9 10 00 00 00	 mov	 ecx, 16
  0004d	e8 00 00 00 00	 call	 ??2@YAPEAX_KPEAX@Z	; operator new
  00052	48 89 85 c8 00
	00 00		 mov	 QWORD PTR $T1[rbp], rax
  00059	48 8b 8d 10 01
	00 00		 mov	 rcx, QWORD PTR <_Args_0>$[rbp]
  00060	e8 00 00 00 00	 call	 ??$forward@AEBUEntry@LT@@@std@@YAAEBUEntry@LT@@AEBU12@@Z ; std::forward<LT::Entry const &>
  00065	48 8b bd c8 00
	00 00		 mov	 rdi, QWORD PTR $T1[rbp]
  0006c	48 8b f0	 mov	 rsi, rax
  0006f	b9 10 00 00 00	 mov	 ecx, 16
  00074	f3 a4		 rep movsb

; 694  :         ::new (const_cast<void*>(static_cast<const volatile void*>(_Ptr))) _Objty(_STD forward<_Types>(_Args)...);
; 695  :     }

  00076	48 8d a5 e0 00
	00 00		 lea	 rsp, QWORD PTR [rbp+224]
  0007d	5f		 pop	 rdi
  0007e	5e		 pop	 rsi
  0007f	5d		 pop	 rbp
  00080	c3		 ret	 0
??$construct@UEntry@LT@@AEBU12@@?$_Default_allocator_traits@V?$allocator@UEntry@LT@@@std@@@std@@SAXAEAV?$allocator@UEntry@LT@@@1@QEAUEntry@LT@@AEBU34@@Z ENDP ; std::_Default_allocator_traits<std::allocator<LT::Entry> >::construct<LT::Entry,LT::Entry const &>
_TEXT	ENDS
; Function compile flags: /Odtp /RTCsu /ZI
; File C:\Program Files (x86)\Microsoft Visual Studio\2019\Enterprise\VC\Tools\MSVC\14.27.29110\include\xmemory
;	COMDAT ??$destroy@UEntry@LT@@@?$_Default_allocator_traits@V?$allocator@U?$_List_node@UEntry@LT@@PEAX@std@@@std@@@std@@SAXAEAV?$allocator@U?$_List_node@UEntry@LT@@PEAX@std@@@1@QEAUEntry@LT@@@Z
_TEXT	SEGMENT
__formal$ = 224
_Ptr$ = 232
??$destroy@UEntry@LT@@@?$_Default_allocator_traits@V?$allocator@U?$_List_node@UEntry@LT@@PEAX@std@@@std@@@std@@SAXAEAV?$allocator@U?$_List_node@UEntry@LT@@PEAX@std@@@1@QEAUEntry@LT@@@Z PROC ; std::_Default_allocator_traits<std::allocator<std::_List_node<LT::Entry,void *> > >::destroy<LT::Entry>, COMDAT

; 698  :     static void destroy(_Alloc&, _Uty* const _Ptr) {

$LN3:
  00000	48 89 54 24 10	 mov	 QWORD PTR [rsp+16], rdx
  00005	48 89 4c 24 08	 mov	 QWORD PTR [rsp+8], rcx
  0000a	55		 push	 rbp
  0000b	57		 push	 rdi
  0000c	48 81 ec e8 00
	00 00		 sub	 rsp, 232		; 000000e8H
  00013	48 8d 6c 24 20	 lea	 rbp, QWORD PTR [rsp+32]
  00018	48 8b fc	 mov	 rdi, rsp
  0001b	b9 3a 00 00 00	 mov	 ecx, 58			; 0000003aH
  00020	b8 cc cc cc cc	 mov	 eax, -858993460		; ccccccccH
  00025	f3 ab		 rep stosd
  00027	48 8b 8c 24 08
	01 00 00	 mov	 rcx, QWORD PTR [rsp+264]
  0002f	48 8d 0d 00 00
	00 00		 lea	 rcx, OFFSET FLAT:__0C99713E_xmemory
  00036	e8 00 00 00 00	 call	 __CheckForDebuggerJustMyCode

; 699  :         _Ptr->~_Uty();
; 700  :     }

  0003b	48 8d a5 c8 00
	00 00		 lea	 rsp, QWORD PTR [rbp+200]
  00042	5f		 pop	 rdi
  00043	5d		 pop	 rbp
  00044	c3		 ret	 0
??$destroy@UEntry@LT@@@?$_Default_allocator_traits@V?$allocator@U?$_List_node@UEntry@LT@@PEAX@std@@@std@@@std@@SAXAEAV?$allocator@U?$_List_node@UEntry@LT@@PEAX@std@@@1@QEAUEntry@LT@@@Z ENDP ; std::_Default_allocator_traits<std::allocator<std::_List_node<LT::Entry,void *> > >::destroy<LT::Entry>
_TEXT	ENDS
; Function compile flags: /Odtp /RTCsu /ZI
; File C:\Program Files (x86)\Microsoft Visual Studio\2019\Enterprise\VC\Tools\MSVC\14.27.29110\include\xstddef
;	COMDAT ??$addressof@UEntry@LT@@@std@@YAPEAUEntry@LT@@AEAU12@@Z
_TEXT	SEGMENT
_Val$ = 224
??$addressof@UEntry@LT@@@std@@YAPEAUEntry@LT@@AEAU12@@Z PROC ; std::addressof<LT::Entry>, COMDAT

; 274  : _NODISCARD constexpr _Ty* addressof(_Ty& _Val) noexcept {

$LN3:
  00000	48 89 4c 24 08	 mov	 QWORD PTR [rsp+8], rcx
  00005	55		 push	 rbp
  00006	57		 push	 rdi
  00007	48 81 ec e8 00
	00 00		 sub	 rsp, 232		; 000000e8H
  0000e	48 8d 6c 24 20	 lea	 rbp, QWORD PTR [rsp+32]
  00013	48 8b fc	 mov	 rdi, rsp
  00016	b9 3a 00 00 00	 mov	 ecx, 58			; 0000003aH
  0001b	b8 cc cc cc cc	 mov	 eax, -858993460		; ccccccccH
  00020	f3 ab		 rep stosd
  00022	48 8b 8c 24 08
	01 00 00	 mov	 rcx, QWORD PTR [rsp+264]
  0002a	48 8d 0d 00 00
	00 00		 lea	 rcx, OFFSET FLAT:__911385EF_xstddef
  00031	e8 00 00 00 00	 call	 __CheckForDebuggerJustMyCode

; 275  :     return __builtin_addressof(_Val);

  00036	48 8b 85 e0 00
	00 00		 mov	 rax, QWORD PTR _Val$[rbp]

; 276  : }

  0003d	48 8d a5 c8 00
	00 00		 lea	 rsp, QWORD PTR [rbp+200]
  00044	5f		 pop	 rdi
  00045	5d		 pop	 rbp
  00046	c3		 ret	 0
??$addressof@UEntry@LT@@@std@@YAPEAUEntry@LT@@AEAU12@@Z ENDP ; std::addressof<LT::Entry>
_TEXT	ENDS
; Function compile flags: /Odtp /RTCsu /ZI
; File C:\Program Files (x86)\Microsoft Visual Studio\2019\Enterprise\VC\Tools\MSVC\14.27.29110\include\xmemory
;	COMDAT ??$_Destroy_in_place@PEAU?$_List_node@UEntry@LT@@PEAX@std@@@std@@YAXAEAPEAU?$_List_node@UEntry@LT@@PEAX@0@@Z
_TEXT	SEGMENT
_Obj$ = 224
??$_Destroy_in_place@PEAU?$_List_node@UEntry@LT@@PEAX@std@@@std@@YAXAEAPEAU?$_List_node@UEntry@LT@@PEAX@0@@Z PROC ; std::_Destroy_in_place<std::_List_node<LT::Entry,void *> *>, COMDAT

; 267  : void _Destroy_in_place(_Ty& _Obj) noexcept {

$LN3:
  00000	48 89 4c 24 08	 mov	 QWORD PTR [rsp+8], rcx
  00005	55		 push	 rbp
  00006	57		 push	 rdi
  00007	48 81 ec e8 00
	00 00		 sub	 rsp, 232		; 000000e8H
  0000e	48 8d 6c 24 20	 lea	 rbp, QWORD PTR [rsp+32]
  00013	48 8b fc	 mov	 rdi, rsp
  00016	b9 3a 00 00 00	 mov	 ecx, 58			; 0000003aH
  0001b	b8 cc cc cc cc	 mov	 eax, -858993460		; ccccccccH
  00020	f3 ab		 rep stosd
  00022	48 8b 8c 24 08
	01 00 00	 mov	 rcx, QWORD PTR [rsp+264]
  0002a	48 8d 0d 00 00
	00 00		 lea	 rcx, OFFSET FLAT:__0C99713E_xmemory
  00031	e8 00 00 00 00	 call	 __CheckForDebuggerJustMyCode
  00036	90		 npad	 1

; 268  :     _Obj.~_Ty();
; 269  : }

  00037	48 8d a5 c8 00
	00 00		 lea	 rsp, QWORD PTR [rbp+200]
  0003e	5f		 pop	 rdi
  0003f	5d		 pop	 rbp
  00040	c3		 ret	 0
??$_Destroy_in_place@PEAU?$_List_node@UEntry@LT@@PEAX@std@@@std@@YAXAEAPEAU?$_List_node@UEntry@LT@@PEAX@0@@Z ENDP ; std::_Destroy_in_place<std::_List_node<LT::Entry,void *> *>
_TEXT	ENDS
; Function compile flags: /Odtp /RTCsu /ZI
; File C:\Program Files (x86)\Microsoft Visual Studio\2019\Enterprise\VC\Tools\MSVC\14.27.29110\include\type_traits
;	COMDAT ??$forward@AEAPEAU?$_List_node@UEntry@LT@@PEAX@std@@@std@@YAAEAPEAU?$_List_node@UEntry@LT@@PEAX@0@AEAPEAU10@@Z
_TEXT	SEGMENT
_Arg$ = 224
??$forward@AEAPEAU?$_List_node@UEntry@LT@@PEAX@std@@@std@@YAAEAPEAU?$_List_node@UEntry@LT@@PEAX@0@AEAPEAU10@@Z PROC ; std::forward<std::_List_node<LT::Entry,void *> * &>, COMDAT

; 1454 :     remove_reference_t<_Ty>& _Arg) noexcept { // forward an lvalue as either an lvalue or an rvalue

$LN3:
  00000	48 89 4c 24 08	 mov	 QWORD PTR [rsp+8], rcx
  00005	55		 push	 rbp
  00006	57		 push	 rdi
  00007	48 81 ec e8 00
	00 00		 sub	 rsp, 232		; 000000e8H
  0000e	48 8d 6c 24 20	 lea	 rbp, QWORD PTR [rsp+32]
  00013	48 8b fc	 mov	 rdi, rsp
  00016	b9 3a 00 00 00	 mov	 ecx, 58			; 0000003aH
  0001b	b8 cc cc cc cc	 mov	 eax, -858993460		; ccccccccH
  00020	f3 ab		 rep stosd
  00022	48 8b 8c 24 08
	01 00 00	 mov	 rcx, QWORD PTR [rsp+264]
  0002a	48 8d 0d 00 00
	00 00		 lea	 rcx, OFFSET FLAT:__B236D4B0_type_traits
  00031	e8 00 00 00 00	 call	 __CheckForDebuggerJustMyCode

; 1455 :     return static_cast<_Ty&&>(_Arg);

  00036	48 8b 85 e0 00
	00 00		 mov	 rax, QWORD PTR _Arg$[rbp]

; 1456 : }

  0003d	48 8d a5 c8 00
	00 00		 lea	 rsp, QWORD PTR [rbp+200]
  00044	5f		 pop	 rdi
  00045	5d		 pop	 rbp
  00046	c3		 ret	 0
??$forward@AEAPEAU?$_List_node@UEntry@LT@@PEAX@std@@@std@@YAAEAPEAU?$_List_node@UEntry@LT@@PEAX@0@AEAPEAU10@@Z ENDP ; std::forward<std::_List_node<LT::Entry,void *> * &>
_TEXT	ENDS
; Function compile flags: /Odtp /RTCsu /ZI
; File C:\Program Files (x86)\Microsoft Visual Studio\2019\Enterprise\VC\Tools\MSVC\14.27.29110\include\xstddef
;	COMDAT ??$addressof@PEAU?$_List_node@UEntry@LT@@PEAX@std@@@std@@YAPEAPEAU?$_List_node@UEntry@LT@@PEAX@0@AEAPEAU10@@Z
_TEXT	SEGMENT
_Val$ = 224
??$addressof@PEAU?$_List_node@UEntry@LT@@PEAX@std@@@std@@YAPEAPEAU?$_List_node@UEntry@LT@@PEAX@0@AEAPEAU10@@Z PROC ; std::addressof<std::_List_node<LT::Entry,void *> *>, COMDAT

; 274  : _NODISCARD constexpr _Ty* addressof(_Ty& _Val) noexcept {

$LN3:
  00000	48 89 4c 24 08	 mov	 QWORD PTR [rsp+8], rcx
  00005	55		 push	 rbp
  00006	57		 push	 rdi
  00007	48 81 ec e8 00
	00 00		 sub	 rsp, 232		; 000000e8H
  0000e	48 8d 6c 24 20	 lea	 rbp, QWORD PTR [rsp+32]
  00013	48 8b fc	 mov	 rdi, rsp
  00016	b9 3a 00 00 00	 mov	 ecx, 58			; 0000003aH
  0001b	b8 cc cc cc cc	 mov	 eax, -858993460		; ccccccccH
  00020	f3 ab		 rep stosd
  00022	48 8b 8c 24 08
	01 00 00	 mov	 rcx, QWORD PTR [rsp+264]
  0002a	48 8d 0d 00 00
	00 00		 lea	 rcx, OFFSET FLAT:__911385EF_xstddef
  00031	e8 00 00 00 00	 call	 __CheckForDebuggerJustMyCode

; 275  :     return __builtin_addressof(_Val);

  00036	48 8b 85 e0 00
	00 00		 mov	 rax, QWORD PTR _Val$[rbp]

; 276  : }

  0003d	48 8d a5 c8 00
	00 00		 lea	 rsp, QWORD PTR [rbp+200]
  00044	5f		 pop	 rdi
  00045	5d		 pop	 rbp
  00046	c3		 ret	 0
??$addressof@PEAU?$_List_node@UEntry@LT@@PEAX@std@@@std@@YAPEAPEAU?$_List_node@UEntry@LT@@PEAX@0@AEAPEAU10@@Z ENDP ; std::addressof<std::_List_node<LT::Entry,void *> *>
_TEXT	ENDS
; Function compile flags: /Odtp /RTCsu /ZI
; File C:\Program Files (x86)\Microsoft Visual Studio\2019\Enterprise\VC\Tools\MSVC\14.27.29110\include\xmemory
;	COMDAT ??$_Deallocate_plain@V?$allocator@U_Container_proxy@std@@@std@@@std@@YAXAEAV?$allocator@U_Container_proxy@std@@@0@QEAU_Container_proxy@0@@Z
_TEXT	SEGMENT
_Al$ = 224
_Ptr$ = 232
??$_Deallocate_plain@V?$allocator@U_Container_proxy@std@@@std@@@std@@YAXAEAV?$allocator@U_Container_proxy@std@@@0@QEAU_Container_proxy@0@@Z PROC ; std::_Deallocate_plain<std::allocator<std::_Container_proxy> >, COMDAT

; 998  : void _Deallocate_plain(_Alloc& _Al, typename _Alloc::value_type* const _Ptr) noexcept {

$LN3:
  00000	48 89 54 24 10	 mov	 QWORD PTR [rsp+16], rdx
  00005	48 89 4c 24 08	 mov	 QWORD PTR [rsp+8], rcx
  0000a	55		 push	 rbp
  0000b	57		 push	 rdi
  0000c	48 81 ec e8 00
	00 00		 sub	 rsp, 232		; 000000e8H
  00013	48 8d 6c 24 20	 lea	 rbp, QWORD PTR [rsp+32]
  00018	48 8b fc	 mov	 rdi, rsp
  0001b	b9 3a 00 00 00	 mov	 ecx, 58			; 0000003aH
  00020	b8 cc cc cc cc	 mov	 eax, -858993460		; ccccccccH
  00025	f3 ab		 rep stosd
  00027	48 8b 8c 24 08
	01 00 00	 mov	 rcx, QWORD PTR [rsp+264]
  0002f	48 8d 0d 00 00
	00 00		 lea	 rcx, OFFSET FLAT:__0C99713E_xmemory
  00036	e8 00 00 00 00	 call	 __CheckForDebuggerJustMyCode

; 999  :     // deallocate a plain pointer using an allocator
; 1000 :     using _Alloc_traits = allocator_traits<_Alloc>;
; 1001 :     if constexpr (is_same_v<_Alloc_ptr_t<_Alloc>, typename _Alloc::value_type*>) {
; 1002 :         _Alloc_traits::deallocate(_Al, _Ptr, 1);

  0003b	41 b8 01 00 00
	00		 mov	 r8d, 1
  00041	48 8b 95 e8 00
	00 00		 mov	 rdx, QWORD PTR _Ptr$[rbp]
  00048	48 8b 8d e0 00
	00 00		 mov	 rcx, QWORD PTR _Al$[rbp]
  0004f	e8 00 00 00 00	 call	 ?deallocate@?$_Default_allocator_traits@V?$allocator@U_Container_proxy@std@@@std@@@std@@SAXAEAV?$allocator@U_Container_proxy@std@@@2@QEAU_Container_proxy@2@_K@Z ; std::_Default_allocator_traits<std::allocator<std::_Container_proxy> >::deallocate
  00054	90		 npad	 1

; 1003 :     } else {
; 1004 :         using _Ptr_traits = pointer_traits<_Alloc_ptr_t<_Alloc>>;
; 1005 :         _Alloc_traits::deallocate(_Al, _Ptr_traits::pointer_to(*_Ptr), 1);
; 1006 :     }
; 1007 : }

  00055	48 8d a5 c8 00
	00 00		 lea	 rsp, QWORD PTR [rbp+200]
  0005c	5f		 pop	 rdi
  0005d	5d		 pop	 rbp
  0005e	c3		 ret	 0
??$_Deallocate_plain@V?$allocator@U_Container_proxy@std@@@std@@@std@@YAXAEAV?$allocator@U_Container_proxy@std@@@0@QEAU_Container_proxy@0@@Z ENDP ; std::_Deallocate_plain<std::allocator<std::_Container_proxy> >
_TEXT	ENDS
; Function compile flags: /Odtp /RTCsu /ZI
; File C:\Program Files (x86)\Microsoft Visual Studio\2019\Enterprise\VC\Tools\MSVC\14.27.29110\include\list
;	COMDAT ??$?0AEBUEntry@LT@@@?$_List_node_emplace_op2@V?$allocator@U?$_List_node@UEntry@LT@@PEAX@std@@@std@@@std@@QEAA@AEAV?$allocator@U?$_List_node@UEntry@LT@@PEAX@std@@@1@AEBUEntry@LT@@@Z
_TEXT	SEGMENT
tv81 = 192
this$ = 240
_Al_$ = 248
<_Vals_0>$ = 256
??$?0AEBUEntry@LT@@@?$_List_node_emplace_op2@V?$allocator@U?$_List_node@UEntry@LT@@PEAX@std@@@std@@@std@@QEAA@AEAV?$allocator@U?$_List_node@UEntry@LT@@PEAX@std@@@1@AEBUEntry@LT@@@Z PROC ; std::_List_node_emplace_op2<std::allocator<std::_List_node<LT::Entry,void *> > >::_List_node_emplace_op2<std::allocator<std::_List_node<LT::Entry,void *> > ><LT::Entry const &>, COMDAT

; 585  :     explicit _List_node_emplace_op2(_Alnode& _Al_, _Valtys&&... _Vals) : _Alloc_construct_ptr<_Alnode>(_Al_) {

$LN4:
  00000	4c 89 44 24 18	 mov	 QWORD PTR [rsp+24], r8
  00005	48 89 54 24 10	 mov	 QWORD PTR [rsp+16], rdx
  0000a	48 89 4c 24 08	 mov	 QWORD PTR [rsp+8], rcx
  0000f	55		 push	 rbp
  00010	57		 push	 rdi
  00011	48 81 ec f8 00
	00 00		 sub	 rsp, 248		; 000000f8H
  00018	48 8d 6c 24 20	 lea	 rbp, QWORD PTR [rsp+32]
  0001d	48 8b fc	 mov	 rdi, rsp
  00020	b9 3e 00 00 00	 mov	 ecx, 62			; 0000003eH
  00025	b8 cc cc cc cc	 mov	 eax, -858993460		; ccccccccH
  0002a	f3 ab		 rep stosd
  0002c	48 8b 8c 24 18
	01 00 00	 mov	 rcx, QWORD PTR [rsp+280]
  00034	48 8d 0d 00 00
	00 00		 lea	 rcx, OFFSET FLAT:__DAE328AB_list
  0003b	e8 00 00 00 00	 call	 __CheckForDebuggerJustMyCode
  00040	48 8b 95 f8 00
	00 00		 mov	 rdx, QWORD PTR _Al_$[rbp]
  00047	48 8b 8d f0 00
	00 00		 mov	 rcx, QWORD PTR this$[rbp]
  0004e	e8 00 00 00 00	 call	 ??0?$_Alloc_construct_ptr@V?$allocator@U?$_List_node@UEntry@LT@@PEAX@std@@@std@@@std@@QEAA@AEAV?$allocator@U?$_List_node@UEntry@LT@@PEAX@std@@@1@@Z ; std::_Alloc_construct_ptr<std::allocator<std::_List_node<LT::Entry,void *> > >::_Alloc_construct_ptr<std::allocator<std::_List_node<LT::Entry,void *> > >
  00053	90		 npad	 1

; 586  :         this->_Allocate();

  00054	48 8b 8d f0 00
	00 00		 mov	 rcx, QWORD PTR this$[rbp]
  0005b	e8 00 00 00 00	 call	 ?_Allocate@?$_Alloc_construct_ptr@V?$allocator@U?$_List_node@UEntry@LT@@PEAX@std@@@std@@@std@@QEAAXXZ ; std::_Alloc_construct_ptr<std::allocator<std::_List_node<LT::Entry,void *> > >::_Allocate

; 587  :         _Alnode_traits::construct(this->_Al, _STD addressof(this->_Ptr->_Myval), _STD forward<_Valtys>(_Vals)...);

  00060	48 8b 8d 00 01
	00 00		 mov	 rcx, QWORD PTR <_Vals_0>$[rbp]
  00067	e8 00 00 00 00	 call	 ??$forward@AEBUEntry@LT@@@std@@YAAEBUEntry@LT@@AEBU12@@Z ; std::forward<LT::Entry const &>
  0006c	48 89 85 c0 00
	00 00		 mov	 QWORD PTR tv81[rbp], rax
  00073	48 8b 8d f0 00
	00 00		 mov	 rcx, QWORD PTR this$[rbp]
  0007a	48 8b 49 08	 mov	 rcx, QWORD PTR [rcx+8]
  0007e	48 83 c1 10	 add	 rcx, 16
  00082	e8 00 00 00 00	 call	 ??$addressof@UEntry@LT@@@std@@YAPEAUEntry@LT@@AEAU12@@Z ; std::addressof<LT::Entry>
  00087	48 8b 8d c0 00
	00 00		 mov	 rcx, QWORD PTR tv81[rbp]
  0008e	4c 8b c1	 mov	 r8, rcx
  00091	48 8b d0	 mov	 rdx, rax
  00094	48 8b 85 f0 00
	00 00		 mov	 rax, QWORD PTR this$[rbp]
  0009b	48 8b 08	 mov	 rcx, QWORD PTR [rax]
  0009e	e8 00 00 00 00	 call	 ??$construct@UEntry@LT@@AEBU12@@?$_Default_allocator_traits@V?$allocator@U?$_List_node@UEntry@LT@@PEAX@std@@@std@@@std@@SAXAEAV?$allocator@U?$_List_node@UEntry@LT@@PEAX@std@@@1@QEAUEntry@LT@@AEBU34@@Z ; std::_Default_allocator_traits<std::allocator<std::_List_node<LT::Entry,void *> > >::construct<LT::Entry,LT::Entry const &>
  000a3	90		 npad	 1

; 588  :     }

  000a4	48 8b 85 f0 00
	00 00		 mov	 rax, QWORD PTR this$[rbp]
  000ab	48 8d a5 d8 00
	00 00		 lea	 rsp, QWORD PTR [rbp+216]
  000b2	5f		 pop	 rdi
  000b3	5d		 pop	 rbp
  000b4	c3		 ret	 0
??$?0AEBUEntry@LT@@@?$_List_node_emplace_op2@V?$allocator@U?$_List_node@UEntry@LT@@PEAX@std@@@std@@@std@@QEAA@AEAV?$allocator@U?$_List_node@UEntry@LT@@PEAX@std@@@1@AEBUEntry@LT@@@Z ENDP ; std::_List_node_emplace_op2<std::allocator<std::_List_node<LT::Entry,void *> > >::_List_node_emplace_op2<std::allocator<std::_List_node<LT::Entry,void *> > ><LT::Entry const &>
_TEXT	ENDS
;	COMDAT text$x
text$x	SEGMENT
tv81 = 192
this$ = 240
_Al_$ = 248
<_Vals_0>$ = 256
?dtor$0@?0???$?0AEBUEntry@LT@@@?$_List_node_emplace_op2@V?$allocator@U?$_List_node@UEntry@LT@@PEAX@std@@@std@@@std@@QEAA@AEAV?$allocator@U?$_List_node@UEntry@LT@@PEAX@std@@@1@AEBUEntry@LT@@@Z@4HA PROC ; `std::_List_node_emplace_op2<std::allocator<std::_List_node<LT::Entry,void *> > >::_List_node_emplace_op2<std::allocator<std::_List_node<LT::Entry,void *> > ><LT::Entry const &>'::`1'::dtor$0
  00000	48 89 4c 24 08	 mov	 QWORD PTR [rsp+8], rcx
  00005	48 89 54 24 10	 mov	 QWORD PTR [rsp+16], rdx
  0000a	55		 push	 rbp
  0000b	57		 push	 rdi
  0000c	48 83 ec 28	 sub	 rsp, 40			; 00000028H
  00010	48 8d 6a 20	 lea	 rbp, QWORD PTR [rdx+32]
  00014	48 8b 8d f0 00
	00 00		 mov	 rcx, QWORD PTR this$[rbp]
  0001b	e8 00 00 00 00	 call	 ??1?$_Alloc_construct_ptr@V?$allocator@U?$_List_node@UEntry@LT@@PEAX@std@@@std@@@std@@QEAA@XZ ; std::_Alloc_construct_ptr<std::allocator<std::_List_node<LT::Entry,void *> > >::~_Alloc_construct_ptr<std::allocator<std::_List_node<LT::Entry,void *> > >
  00020	48 83 c4 28	 add	 rsp, 40			; 00000028H
  00024	5f		 pop	 rdi
  00025	5d		 pop	 rbp
  00026	c3		 ret	 0
?dtor$0@?0???$?0AEBUEntry@LT@@@?$_List_node_emplace_op2@V?$allocator@U?$_List_node@UEntry@LT@@PEAX@std@@@std@@@std@@QEAA@AEAV?$allocator@U?$_List_node@UEntry@LT@@PEAX@std@@@1@AEBUEntry@LT@@@Z@4HA ENDP ; `std::_List_node_emplace_op2<std::allocator<std::_List_node<LT::Entry,void *> > >::_List_node_emplace_op2<std::allocator<std::_List_node<LT::Entry,void *> > ><LT::Entry const &>'::`1'::dtor$0
text$x	ENDS
; Function compile flags: /Odtp /RTCsu /ZI
;	COMDAT text$x
text$x	SEGMENT
tv81 = 192
this$ = 240
_Al_$ = 248
<_Vals_0>$ = 256
?dtor$0@?0???$?0AEBUEntry@LT@@@?$_List_node_emplace_op2@V?$allocator@U?$_List_node@UEntry@LT@@PEAX@std@@@std@@@std@@QEAA@AEAV?$allocator@U?$_List_node@UEntry@LT@@PEAX@std@@@1@AEBUEntry@LT@@@Z@4HA PROC ; `std::_List_node_emplace_op2<std::allocator<std::_List_node<LT::Entry,void *> > >::_List_node_emplace_op2<std::allocator<std::_List_node<LT::Entry,void *> > ><LT::Entry const &>'::`1'::dtor$0
  00000	48 89 4c 24 08	 mov	 QWORD PTR [rsp+8], rcx
  00005	48 89 54 24 10	 mov	 QWORD PTR [rsp+16], rdx
  0000a	55		 push	 rbp
  0000b	57		 push	 rdi
  0000c	48 83 ec 28	 sub	 rsp, 40			; 00000028H
  00010	48 8d 6a 20	 lea	 rbp, QWORD PTR [rdx+32]
  00014	48 8b 8d f0 00
	00 00		 mov	 rcx, QWORD PTR this$[rbp]
  0001b	e8 00 00 00 00	 call	 ??1?$_Alloc_construct_ptr@V?$allocator@U?$_List_node@UEntry@LT@@PEAX@std@@@std@@@std@@QEAA@XZ ; std::_Alloc_construct_ptr<std::allocator<std::_List_node<LT::Entry,void *> > >::~_Alloc_construct_ptr<std::allocator<std::_List_node<LT::Entry,void *> > >
  00020	48 83 c4 28	 add	 rsp, 40			; 00000028H
  00024	5f		 pop	 rdi
  00025	5d		 pop	 rbp
  00026	c3		 ret	 0
?dtor$0@?0???$?0AEBUEntry@LT@@@?$_List_node_emplace_op2@V?$allocator@U?$_List_node@UEntry@LT@@PEAX@std@@@std@@@std@@QEAA@AEAV?$allocator@U?$_List_node@UEntry@LT@@PEAX@std@@@1@AEBUEntry@LT@@@Z@4HA ENDP ; `std::_List_node_emplace_op2<std::allocator<std::_List_node<LT::Entry,void *> > >::_List_node_emplace_op2<std::allocator<std::_List_node<LT::Entry,void *> > ><LT::Entry const &>'::`1'::dtor$0
text$x	ENDS
; Function compile flags: /Odtp /RTCsu /ZI
; File C:\Program Files (x86)\Microsoft Visual Studio\2019\Enterprise\VC\Tools\MSVC\14.27.29110\include\type_traits
;	COMDAT ??$forward@AEBUEntry@LT@@@std@@YAAEBUEntry@LT@@AEBU12@@Z
_TEXT	SEGMENT
_Arg$ = 224
??$forward@AEBUEntry@LT@@@std@@YAAEBUEntry@LT@@AEBU12@@Z PROC ; std::forward<LT::Entry const &>, COMDAT

; 1454 :     remove_reference_t<_Ty>& _Arg) noexcept { // forward an lvalue as either an lvalue or an rvalue

$LN3:
  00000	48 89 4c 24 08	 mov	 QWORD PTR [rsp+8], rcx
  00005	55		 push	 rbp
  00006	57		 push	 rdi
  00007	48 81 ec e8 00
	00 00		 sub	 rsp, 232		; 000000e8H
  0000e	48 8d 6c 24 20	 lea	 rbp, QWORD PTR [rsp+32]
  00013	48 8b fc	 mov	 rdi, rsp
  00016	b9 3a 00 00 00	 mov	 ecx, 58			; 0000003aH
  0001b	b8 cc cc cc cc	 mov	 eax, -858993460		; ccccccccH
  00020	f3 ab		 rep stosd
  00022	48 8b 8c 24 08
	01 00 00	 mov	 rcx, QWORD PTR [rsp+264]
  0002a	48 8d 0d 00 00
	00 00		 lea	 rcx, OFFSET FLAT:__B236D4B0_type_traits
  00031	e8 00 00 00 00	 call	 __CheckForDebuggerJustMyCode

; 1455 :     return static_cast<_Ty&&>(_Arg);

  00036	48 8b 85 e0 00
	00 00		 mov	 rax, QWORD PTR _Arg$[rbp]

; 1456 : }

  0003d	48 8d a5 c8 00
	00 00		 lea	 rsp, QWORD PTR [rbp+200]
  00044	5f		 pop	 rdi
  00045	5d		 pop	 rbp
  00046	c3		 ret	 0
??$forward@AEBUEntry@LT@@@std@@YAAEBUEntry@LT@@AEBU12@@Z ENDP ; std::forward<LT::Entry const &>
_TEXT	ENDS
; Function compile flags: /Odtp /RTCsu /ZI
; File C:\Program Files (x86)\Microsoft Visual Studio\2019\Enterprise\VC\Tools\MSVC\14.27.29110\include\list
;	COMDAT ?_Transfer_before@?$_List_node_emplace_op2@V?$allocator@U?$_List_node@UEntry@LT@@PEAX@std@@@std@@@std@@QEAAPEAU?$_List_node@UEntry@LT@@PEAX@2@QEAU32@@Z
_TEXT	SEGMENT
_Insert_after$ = 8
_Result$ = 40
__$ArrayPad$ = 248
this$ = 288
_Insert_before$ = 296
?_Transfer_before@?$_List_node_emplace_op2@V?$allocator@U?$_List_node@UEntry@LT@@PEAX@std@@@std@@@std@@QEAAPEAU?$_List_node@UEntry@LT@@PEAX@2@QEAU32@@Z PROC ; std::_List_node_emplace_op2<std::allocator<std::_List_node<LT::Entry,void *> > >::_Transfer_before, COMDAT

; 599  :     pointer _Transfer_before(const pointer _Insert_before) noexcept {

$LN3:
  00000	48 89 54 24 10	 mov	 QWORD PTR [rsp+16], rdx
  00005	48 89 4c 24 08	 mov	 QWORD PTR [rsp+8], rcx
  0000a	55		 push	 rbp
  0000b	57		 push	 rdi
  0000c	48 81 ec 28 01
	00 00		 sub	 rsp, 296		; 00000128H
  00013	48 8d 6c 24 20	 lea	 rbp, QWORD PTR [rsp+32]
  00018	48 8b fc	 mov	 rdi, rsp
  0001b	b9 4a 00 00 00	 mov	 ecx, 74			; 0000004aH
  00020	b8 cc cc cc cc	 mov	 eax, -858993460		; ccccccccH
  00025	f3 ab		 rep stosd
  00027	48 8b 8c 24 48
	01 00 00	 mov	 rcx, QWORD PTR [rsp+328]
  0002f	48 8b 05 00 00
	00 00		 mov	 rax, QWORD PTR __security_cookie
  00036	48 33 c5	 xor	 rax, rbp
  00039	48 89 85 f8 00
	00 00		 mov	 QWORD PTR __$ArrayPad$[rbp], rax
  00040	48 8d 0d 00 00
	00 00		 lea	 rcx, OFFSET FLAT:__DAE328AB_list
  00047	e8 00 00 00 00	 call	 __CheckForDebuggerJustMyCode

; 600  :         const pointer _Insert_after = _Insert_before->_Prev;

  0004c	48 8b 85 28 01
	00 00		 mov	 rax, QWORD PTR _Insert_before$[rbp]
  00053	48 8b 40 08	 mov	 rax, QWORD PTR [rax+8]
  00057	48 89 45 08	 mov	 QWORD PTR _Insert_after$[rbp], rax

; 601  :         _Construct_in_place(this->_Ptr->_Next, _Insert_before);

  0005b	48 8b 85 20 01
	00 00		 mov	 rax, QWORD PTR this$[rbp]
  00062	48 8b 40 08	 mov	 rax, QWORD PTR [rax+8]
  00066	48 8d 95 28 01
	00 00		 lea	 rdx, QWORD PTR _Insert_before$[rbp]
  0006d	48 8b c8	 mov	 rcx, rax
  00070	e8 00 00 00 00	 call	 ??$_Construct_in_place@PEAU?$_List_node@UEntry@LT@@PEAX@std@@AEBQEAU12@@std@@YAXAEAPEAU?$_List_node@UEntry@LT@@PEAX@0@AEBQEAU10@@Z ; std::_Construct_in_place<std::_List_node<LT::Entry,void *> *,std::_List_node<LT::Entry,void *> * const &>

; 602  :         _Construct_in_place(this->_Ptr->_Prev, _Insert_after);

  00075	48 8b 85 20 01
	00 00		 mov	 rax, QWORD PTR this$[rbp]
  0007c	48 8b 40 08	 mov	 rax, QWORD PTR [rax+8]
  00080	48 83 c0 08	 add	 rax, 8
  00084	48 8d 55 08	 lea	 rdx, QWORD PTR _Insert_after$[rbp]
  00088	48 8b c8	 mov	 rcx, rax
  0008b	e8 00 00 00 00	 call	 ??$_Construct_in_place@PEAU?$_List_node@UEntry@LT@@PEAX@std@@AEBQEAU12@@std@@YAXAEAPEAU?$_List_node@UEntry@LT@@PEAX@0@AEBQEAU10@@Z ; std::_Construct_in_place<std::_List_node<LT::Entry,void *> *,std::_List_node<LT::Entry,void *> * const &>

; 603  :         const auto _Result    = this->_Ptr;

  00090	48 8b 85 20 01
	00 00		 mov	 rax, QWORD PTR this$[rbp]
  00097	48 8b 40 08	 mov	 rax, QWORD PTR [rax+8]
  0009b	48 89 45 28	 mov	 QWORD PTR _Result$[rbp], rax

; 604  :         this->_Ptr            = pointer{};

  0009f	48 8b 85 20 01
	00 00		 mov	 rax, QWORD PTR this$[rbp]
  000a6	48 c7 40 08 00
	00 00 00	 mov	 QWORD PTR [rax+8], 0

; 605  :         _Insert_before->_Prev = _Result;

  000ae	48 8b 85 28 01
	00 00		 mov	 rax, QWORD PTR _Insert_before$[rbp]
  000b5	48 8b 4d 28	 mov	 rcx, QWORD PTR _Result$[rbp]
  000b9	48 89 48 08	 mov	 QWORD PTR [rax+8], rcx

; 606  :         _Insert_after->_Next  = _Result;

  000bd	48 8b 45 08	 mov	 rax, QWORD PTR _Insert_after$[rbp]
  000c1	48 8b 4d 28	 mov	 rcx, QWORD PTR _Result$[rbp]
  000c5	48 89 08	 mov	 QWORD PTR [rax], rcx

; 607  :         return _Result;

  000c8	48 8b 45 28	 mov	 rax, QWORD PTR _Result$[rbp]

; 608  :     }

  000cc	48 8b f8	 mov	 rdi, rax
  000cf	48 8d 4d e0	 lea	 rcx, QWORD PTR [rbp-32]
  000d3	48 8d 15 00 00
	00 00		 lea	 rdx, OFFSET FLAT:?_Transfer_before@?$_List_node_emplace_op2@V?$allocator@U?$_List_node@UEntry@LT@@PEAX@std@@@std@@@std@@QEAAPEAU?$_List_node@UEntry@LT@@PEAX@2@QEAU32@@Z$rtcFrameData
  000da	e8 00 00 00 00	 call	 _RTC_CheckStackVars
  000df	48 8b c7	 mov	 rax, rdi
  000e2	48 8b 8d f8 00
	00 00		 mov	 rcx, QWORD PTR __$ArrayPad$[rbp]
  000e9	48 33 cd	 xor	 rcx, rbp
  000ec	e8 00 00 00 00	 call	 __security_check_cookie
  000f1	48 8d a5 08 01
	00 00		 lea	 rsp, QWORD PTR [rbp+264]
  000f8	5f		 pop	 rdi
  000f9	5d		 pop	 rbp
  000fa	c3		 ret	 0
?_Transfer_before@?$_List_node_emplace_op2@V?$allocator@U?$_List_node@UEntry@LT@@PEAX@std@@@std@@@std@@QEAAPEAU?$_List_node@UEntry@LT@@PEAX@2@QEAU32@@Z ENDP ; std::_List_node_emplace_op2<std::allocator<std::_List_node<LT::Entry,void *> > >::_Transfer_before
_TEXT	ENDS
; Function compile flags: /Odtp /RTCsu /ZI
; File C:\Program Files (x86)\Microsoft Visual Studio\2019\Enterprise\VC\Tools\MSVC\14.27.29110\include\list
;	COMDAT ??1?$_List_node_emplace_op2@V?$allocator@U?$_List_node@UEntry@LT@@PEAX@std@@@std@@@std@@QEAA@XZ
_TEXT	SEGMENT
this$ = 224
??1?$_List_node_emplace_op2@V?$allocator@U?$_List_node@UEntry@LT@@PEAX@std@@@std@@@std@@QEAA@XZ PROC ; std::_List_node_emplace_op2<std::allocator<std::_List_node<LT::Entry,void *> > >::~_List_node_emplace_op2<std::allocator<std::_List_node<LT::Entry,void *> > >, COMDAT

; 590  :     ~_List_node_emplace_op2() {

$LN4:
  00000	48 89 4c 24 08	 mov	 QWORD PTR [rsp+8], rcx
  00005	55		 push	 rbp
  00006	57		 push	 rdi
  00007	48 81 ec e8 00
	00 00		 sub	 rsp, 232		; 000000e8H
  0000e	48 8d 6c 24 20	 lea	 rbp, QWORD PTR [rsp+32]
  00013	48 8b fc	 mov	 rdi, rsp
  00016	b9 3a 00 00 00	 mov	 ecx, 58			; 0000003aH
  0001b	b8 cc cc cc cc	 mov	 eax, -858993460		; ccccccccH
  00020	f3 ab		 rep stosd
  00022	48 8b 8c 24 08
	01 00 00	 mov	 rcx, QWORD PTR [rsp+264]
  0002a	48 8d 0d 00 00
	00 00		 lea	 rcx, OFFSET FLAT:__DAE328AB_list
  00031	e8 00 00 00 00	 call	 __CheckForDebuggerJustMyCode

; 591  :         if (this->_Ptr != pointer{}) {

  00036	48 8b 85 e0 00
	00 00		 mov	 rax, QWORD PTR this$[rbp]
  0003d	48 83 78 08 00	 cmp	 QWORD PTR [rax+8], 0
  00042	74 29		 je	 SHORT $LN2@List_node_

; 592  :             _Alnode_traits::destroy(this->_Al, _STD addressof(this->_Ptr->_Myval));

  00044	48 8b 85 e0 00
	00 00		 mov	 rax, QWORD PTR this$[rbp]
  0004b	48 8b 40 08	 mov	 rax, QWORD PTR [rax+8]
  0004f	48 83 c0 10	 add	 rax, 16
  00053	48 8b c8	 mov	 rcx, rax
  00056	e8 00 00 00 00	 call	 ??$addressof@UEntry@LT@@@std@@YAPEAUEntry@LT@@AEAU12@@Z ; std::addressof<LT::Entry>
  0005b	48 8b d0	 mov	 rdx, rax
  0005e	48 8b 85 e0 00
	00 00		 mov	 rax, QWORD PTR this$[rbp]
  00065	48 8b 08	 mov	 rcx, QWORD PTR [rax]
  00068	e8 00 00 00 00	 call	 ??$destroy@UEntry@LT@@@?$_Default_allocator_traits@V?$allocator@U?$_List_node@UEntry@LT@@PEAX@std@@@std@@@std@@SAXAEAV?$allocator@U?$_List_node@UEntry@LT@@PEAX@std@@@1@QEAUEntry@LT@@@Z ; std::_Default_allocator_traits<std::allocator<std::_List_node<LT::Entry,void *> > >::destroy<LT::Entry>
$LN2@List_node_:

; 593  :         }
; 594  :     }

  0006d	48 8b 8d e0 00
	00 00		 mov	 rcx, QWORD PTR this$[rbp]
  00074	e8 00 00 00 00	 call	 ??1?$_Alloc_construct_ptr@V?$allocator@U?$_List_node@UEntry@LT@@PEAX@std@@@std@@@std@@QEAA@XZ ; std::_Alloc_construct_ptr<std::allocator<std::_List_node<LT::Entry,void *> > >::~_Alloc_construct_ptr<std::allocator<std::_List_node<LT::Entry,void *> > >
  00079	90		 npad	 1
  0007a	48 8d a5 c8 00
	00 00		 lea	 rsp, QWORD PTR [rbp+200]
  00081	5f		 pop	 rdi
  00082	5d		 pop	 rbp
  00083	c3		 ret	 0
??1?$_List_node_emplace_op2@V?$allocator@U?$_List_node@UEntry@LT@@PEAX@std@@@std@@@std@@QEAA@XZ ENDP ; std::_List_node_emplace_op2<std::allocator<std::_List_node<LT::Entry,void *> > >::~_List_node_emplace_op2<std::allocator<std::_List_node<LT::Entry,void *> > >
_TEXT	ENDS
; Function compile flags: /Odtp /RTCsu /ZI
; File C:\Program Files (x86)\Microsoft Visual Studio\2019\Enterprise\VC\Tools\MSVC\14.27.29110\include\xmemory
;	COMDAT ??1?$_Alloc_construct_ptr@V?$allocator@U?$_List_node@UEntry@LT@@PEAX@std@@@std@@@std@@QEAA@XZ
_TEXT	SEGMENT
this$ = 224
??1?$_Alloc_construct_ptr@V?$allocator@U?$_List_node@UEntry@LT@@PEAX@std@@@std@@@std@@QEAA@XZ PROC ; std::_Alloc_construct_ptr<std::allocator<std::_List_node<LT::Entry,void *> > >::~_Alloc_construct_ptr<std::allocator<std::_List_node<LT::Entry,void *> > >, COMDAT

; 1051 :     ~_Alloc_construct_ptr() { // if this instance is engaged, deallocate storage

$LN4:
  00000	48 89 4c 24 08	 mov	 QWORD PTR [rsp+8], rcx
  00005	55		 push	 rbp
  00006	57		 push	 rdi
  00007	48 81 ec e8 00
	00 00		 sub	 rsp, 232		; 000000e8H
  0000e	48 8d 6c 24 20	 lea	 rbp, QWORD PTR [rsp+32]
  00013	48 8b fc	 mov	 rdi, rsp
  00016	b9 3a 00 00 00	 mov	 ecx, 58			; 0000003aH
  0001b	b8 cc cc cc cc	 mov	 eax, -858993460		; ccccccccH
  00020	f3 ab		 rep stosd
  00022	48 8b 8c 24 08
	01 00 00	 mov	 rcx, QWORD PTR [rsp+264]
  0002a	48 8d 0d 00 00
	00 00		 lea	 rcx, OFFSET FLAT:__0C99713E_xmemory
  00031	e8 00 00 00 00	 call	 __CheckForDebuggerJustMyCode

; 1052 :         if (_Ptr) {

  00036	48 8b 85 e0 00
	00 00		 mov	 rax, QWORD PTR this$[rbp]
  0003d	48 83 78 08 00	 cmp	 QWORD PTR [rax+8], 0
  00042	74 21		 je	 SHORT $LN2@Alloc_cons

; 1053 :             _Al.deallocate(_Ptr, 1);

  00044	41 b8 01 00 00
	00		 mov	 r8d, 1
  0004a	48 8b 85 e0 00
	00 00		 mov	 rax, QWORD PTR this$[rbp]
  00051	48 8b 50 08	 mov	 rdx, QWORD PTR [rax+8]
  00055	48 8b 85 e0 00
	00 00		 mov	 rax, QWORD PTR this$[rbp]
  0005c	48 8b 08	 mov	 rcx, QWORD PTR [rax]
  0005f	e8 00 00 00 00	 call	 ?deallocate@?$allocator@U?$_List_node@UEntry@LT@@PEAX@std@@@std@@QEAAXQEAU?$_List_node@UEntry@LT@@PEAX@2@_K@Z ; std::allocator<std::_List_node<LT::Entry,void *> >::deallocate
  00064	90		 npad	 1
$LN2@Alloc_cons:

; 1054 :         }
; 1055 :     }

  00065	48 8d a5 c8 00
	00 00		 lea	 rsp, QWORD PTR [rbp+200]
  0006c	5f		 pop	 rdi
  0006d	5d		 pop	 rbp
  0006e	c3		 ret	 0
??1?$_Alloc_construct_ptr@V?$allocator@U?$_List_node@UEntry@LT@@PEAX@std@@@std@@@std@@QEAA@XZ ENDP ; std::_Alloc_construct_ptr<std::allocator<std::_List_node<LT::Entry,void *> > >::~_Alloc_construct_ptr<std::allocator<std::_List_node<LT::Entry,void *> > >
_TEXT	ENDS
; Function compile flags: /Odtp /RTCsu /ZI
; File C:\Program Files (x86)\Microsoft Visual Studio\2019\Enterprise\VC\Tools\MSVC\14.27.29110\include\xmemory
;	COMDAT ?_Allocate@?$_Alloc_construct_ptr@V?$allocator@U?$_List_node@UEntry@LT@@PEAX@std@@@std@@@std@@QEAAXXZ
_TEXT	SEGMENT
this$ = 224
?_Allocate@?$_Alloc_construct_ptr@V?$allocator@U?$_List_node@UEntry@LT@@PEAX@std@@@std@@@std@@QEAAXXZ PROC ; std::_Alloc_construct_ptr<std::allocator<std::_List_node<LT::Entry,void *> > >::_Allocate, COMDAT

; 1046 :     void _Allocate() { // disengage *this, then allocate a new memory block

$LN3:
  00000	48 89 4c 24 08	 mov	 QWORD PTR [rsp+8], rcx
  00005	55		 push	 rbp
  00006	57		 push	 rdi
  00007	48 81 ec e8 00
	00 00		 sub	 rsp, 232		; 000000e8H
  0000e	48 8d 6c 24 20	 lea	 rbp, QWORD PTR [rsp+32]
  00013	48 8b fc	 mov	 rdi, rsp
  00016	b9 3a 00 00 00	 mov	 ecx, 58			; 0000003aH
  0001b	b8 cc cc cc cc	 mov	 eax, -858993460		; ccccccccH
  00020	f3 ab		 rep stosd
  00022	48 8b 8c 24 08
	01 00 00	 mov	 rcx, QWORD PTR [rsp+264]
  0002a	48 8d 0d 00 00
	00 00		 lea	 rcx, OFFSET FLAT:__0C99713E_xmemory
  00031	e8 00 00 00 00	 call	 __CheckForDebuggerJustMyCode

; 1047 :         _Ptr = nullptr; // if allocate throws, prevents double-free

  00036	48 8b 85 e0 00
	00 00		 mov	 rax, QWORD PTR this$[rbp]
  0003d	48 c7 40 08 00
	00 00 00	 mov	 QWORD PTR [rax+8], 0

; 1048 :         _Ptr = _Al.allocate(1);

  00045	ba 01 00 00 00	 mov	 edx, 1
  0004a	48 8b 85 e0 00
	00 00		 mov	 rax, QWORD PTR this$[rbp]
  00051	48 8b 08	 mov	 rcx, QWORD PTR [rax]
  00054	e8 00 00 00 00	 call	 ?allocate@?$allocator@U?$_List_node@UEntry@LT@@PEAX@std@@@std@@QEAAPEAU?$_List_node@UEntry@LT@@PEAX@2@_K@Z ; std::allocator<std::_List_node<LT::Entry,void *> >::allocate
  00059	48 8b 8d e0 00
	00 00		 mov	 rcx, QWORD PTR this$[rbp]
  00060	48 89 41 08	 mov	 QWORD PTR [rcx+8], rax

; 1049 :     }

  00064	48 8d a5 c8 00
	00 00		 lea	 rsp, QWORD PTR [rbp+200]
  0006b	5f		 pop	 rdi
  0006c	5d		 pop	 rbp
  0006d	c3		 ret	 0
?_Allocate@?$_Alloc_construct_ptr@V?$allocator@U?$_List_node@UEntry@LT@@PEAX@std@@@std@@@std@@QEAAXXZ ENDP ; std::_Alloc_construct_ptr<std::allocator<std::_List_node<LT::Entry,void *> > >::_Allocate
_TEXT	ENDS
; Function compile flags: /Odtp /RTCsu /ZI
; File C:\Program Files (x86)\Microsoft Visual Studio\2019\Enterprise\VC\Tools\MSVC\14.27.29110\include\xmemory
;	COMDAT ??0?$_Alloc_construct_ptr@V?$allocator@U?$_List_node@UEntry@LT@@PEAX@std@@@std@@@std@@QEAA@AEAV?$allocator@U?$_List_node@UEntry@LT@@PEAX@std@@@1@@Z
_TEXT	SEGMENT
this$ = 224
_Al_$ = 232
??0?$_Alloc_construct_ptr@V?$allocator@U?$_List_node@UEntry@LT@@PEAX@std@@@std@@@std@@QEAA@AEAV?$allocator@U?$_List_node@UEntry@LT@@PEAX@std@@@1@@Z PROC ; std::_Alloc_construct_ptr<std::allocator<std::_List_node<LT::Entry,void *> > >::_Alloc_construct_ptr<std::allocator<std::_List_node<LT::Entry,void *> > >, COMDAT

; 1040 :     explicit _Alloc_construct_ptr(_Alloc& _Al_) : _Al(_Al_), _Ptr(nullptr) {}

$LN3:
  00000	48 89 54 24 10	 mov	 QWORD PTR [rsp+16], rdx
  00005	48 89 4c 24 08	 mov	 QWORD PTR [rsp+8], rcx
  0000a	55		 push	 rbp
  0000b	57		 push	 rdi
  0000c	48 81 ec e8 00
	00 00		 sub	 rsp, 232		; 000000e8H
  00013	48 8d 6c 24 20	 lea	 rbp, QWORD PTR [rsp+32]
  00018	48 8b fc	 mov	 rdi, rsp
  0001b	b9 3a 00 00 00	 mov	 ecx, 58			; 0000003aH
  00020	b8 cc cc cc cc	 mov	 eax, -858993460		; ccccccccH
  00025	f3 ab		 rep stosd
  00027	48 8b 8c 24 08
	01 00 00	 mov	 rcx, QWORD PTR [rsp+264]
  0002f	48 8d 0d 00 00
	00 00		 lea	 rcx, OFFSET FLAT:__0C99713E_xmemory
  00036	e8 00 00 00 00	 call	 __CheckForDebuggerJustMyCode
  0003b	48 8b 85 e0 00
	00 00		 mov	 rax, QWORD PTR this$[rbp]
  00042	48 8b 8d e8 00
	00 00		 mov	 rcx, QWORD PTR _Al_$[rbp]
  00049	48 89 08	 mov	 QWORD PTR [rax], rcx
  0004c	48 8b 85 e0 00
	00 00		 mov	 rax, QWORD PTR this$[rbp]
  00053	48 c7 40 08 00
	00 00 00	 mov	 QWORD PTR [rax+8], 0
  0005b	48 8b 85 e0 00
	00 00		 mov	 rax, QWORD PTR this$[rbp]
  00062	48 8d a5 c8 00
	00 00		 lea	 rsp, QWORD PTR [rbp+200]
  00069	5f		 pop	 rdi
  0006a	5d		 pop	 rbp
  0006b	c3		 ret	 0
??0?$_Alloc_construct_ptr@V?$allocator@U?$_List_node@UEntry@LT@@PEAX@std@@@std@@@std@@QEAA@AEAV?$allocator@U?$_List_node@UEntry@LT@@PEAX@std@@@1@@Z ENDP ; std::_Alloc_construct_ptr<std::allocator<std::_List_node<LT::Entry,void *> > >::_Alloc_construct_ptr<std::allocator<std::_List_node<LT::Entry,void *> > >
_TEXT	ENDS
; Function compile flags: /Odtp /RTCsu /ZI
; File C:\Program Files (x86)\Microsoft Visual Studio\2019\Enterprise\VC\Tools\MSVC\14.27.29110\include\type_traits
;	COMDAT ??$forward@PEAU_Container_base12@std@@@std@@YA$$QEAPEAU_Container_base12@0@AEAPEAU10@@Z
_TEXT	SEGMENT
_Arg$ = 224
??$forward@PEAU_Container_base12@std@@@std@@YA$$QEAPEAU_Container_base12@0@AEAPEAU10@@Z PROC ; std::forward<std::_Container_base12 *>, COMDAT

; 1454 :     remove_reference_t<_Ty>& _Arg) noexcept { // forward an lvalue as either an lvalue or an rvalue

$LN3:
  00000	48 89 4c 24 08	 mov	 QWORD PTR [rsp+8], rcx
  00005	55		 push	 rbp
  00006	57		 push	 rdi
  00007	48 81 ec e8 00
	00 00		 sub	 rsp, 232		; 000000e8H
  0000e	48 8d 6c 24 20	 lea	 rbp, QWORD PTR [rsp+32]
  00013	48 8b fc	 mov	 rdi, rsp
  00016	b9 3a 00 00 00	 mov	 ecx, 58			; 0000003aH
  0001b	b8 cc cc cc cc	 mov	 eax, -858993460		; ccccccccH
  00020	f3 ab		 rep stosd
  00022	48 8b 8c 24 08
	01 00 00	 mov	 rcx, QWORD PTR [rsp+264]
  0002a	48 8d 0d 00 00
	00 00		 lea	 rcx, OFFSET FLAT:__B236D4B0_type_traits
  00031	e8 00 00 00 00	 call	 __CheckForDebuggerJustMyCode

; 1455 :     return static_cast<_Ty&&>(_Arg);

  00036	48 8b 85 e0 00
	00 00		 mov	 rax, QWORD PTR _Arg$[rbp]

; 1456 : }

  0003d	48 8d a5 c8 00
	00 00		 lea	 rsp, QWORD PTR [rbp+200]
  00044	5f		 pop	 rdi
  00045	5d		 pop	 rbp
  00046	c3		 ret	 0
??$forward@PEAU_Container_base12@std@@@std@@YA$$QEAPEAU_Container_base12@0@AEAPEAU10@@Z ENDP ; std::forward<std::_Container_base12 *>
_TEXT	ENDS
; Function compile flags: /Odtp /RTCsu /ZI
; File C:\Program Files (x86)\Microsoft Visual Studio\2019\Enterprise\VC\Tools\MSVC\14.27.29110\include\xstddef
;	COMDAT ??$addressof@U_Container_proxy@std@@@std@@YAPEAU_Container_proxy@0@AEAU10@@Z
_TEXT	SEGMENT
_Val$ = 224
??$addressof@U_Container_proxy@std@@@std@@YAPEAU_Container_proxy@0@AEAU10@@Z PROC ; std::addressof<std::_Container_proxy>, COMDAT

; 274  : _NODISCARD constexpr _Ty* addressof(_Ty& _Val) noexcept {

$LN3:
  00000	48 89 4c 24 08	 mov	 QWORD PTR [rsp+8], rcx
  00005	55		 push	 rbp
  00006	57		 push	 rdi
  00007	48 81 ec e8 00
	00 00		 sub	 rsp, 232		; 000000e8H
  0000e	48 8d 6c 24 20	 lea	 rbp, QWORD PTR [rsp+32]
  00013	48 8b fc	 mov	 rdi, rsp
  00016	b9 3a 00 00 00	 mov	 ecx, 58			; 0000003aH
  0001b	b8 cc cc cc cc	 mov	 eax, -858993460		; ccccccccH
  00020	f3 ab		 rep stosd
  00022	48 8b 8c 24 08
	01 00 00	 mov	 rcx, QWORD PTR [rsp+264]
  0002a	48 8d 0d 00 00
	00 00		 lea	 rcx, OFFSET FLAT:__911385EF_xstddef
  00031	e8 00 00 00 00	 call	 __CheckForDebuggerJustMyCode

; 275  :     return __builtin_addressof(_Val);

  00036	48 8b 85 e0 00
	00 00		 mov	 rax, QWORD PTR _Val$[rbp]

; 276  : }

  0003d	48 8d a5 c8 00
	00 00		 lea	 rsp, QWORD PTR [rbp+200]
  00044	5f		 pop	 rdi
  00045	5d		 pop	 rbp
  00046	c3		 ret	 0
??$addressof@U_Container_proxy@std@@@std@@YAPEAU_Container_proxy@0@AEAU10@@Z ENDP ; std::addressof<std::_Container_proxy>
_TEXT	ENDS
; Function compile flags: /Odtp /RTCsu /ZI
; File C:\Program Files (x86)\Microsoft Visual Studio\2019\Enterprise\VC\Tools\MSVC\14.27.29110\include\xmemory
;	COMDAT ??$_Deallocate@$0BA@$0A@@std@@YAXPEAX_K@Z
_TEXT	SEGMENT
_Ptr$ = 224
_Bytes$ = 232
??$_Deallocate@$0BA@$0A@@std@@YAXPEAX_K@Z PROC		; std::_Deallocate<16,0>, COMDAT

; 213  : void _Deallocate(void* _Ptr, size_t _Bytes) noexcept {

$LN4:
  00000	48 89 54 24 10	 mov	 QWORD PTR [rsp+16], rdx
  00005	48 89 4c 24 08	 mov	 QWORD PTR [rsp+8], rcx
  0000a	55		 push	 rbp
  0000b	57		 push	 rdi
  0000c	48 81 ec e8 00
	00 00		 sub	 rsp, 232		; 000000e8H
  00013	48 8d 6c 24 20	 lea	 rbp, QWORD PTR [rsp+32]
  00018	48 8b fc	 mov	 rdi, rsp
  0001b	b9 3a 00 00 00	 mov	 ecx, 58			; 0000003aH
  00020	b8 cc cc cc cc	 mov	 eax, -858993460		; ccccccccH
  00025	f3 ab		 rep stosd
  00027	48 8b 8c 24 08
	01 00 00	 mov	 rcx, QWORD PTR [rsp+264]
  0002f	48 8d 0d 00 00
	00 00		 lea	 rcx, OFFSET FLAT:__0C99713E_xmemory
  00036	e8 00 00 00 00	 call	 __CheckForDebuggerJustMyCode

; 214  :     // deallocate storage allocated by _Allocate when !_HAS_ALIGNED_NEW || _Align <= __STDCPP_DEFAULT_NEW_ALIGNMENT__
; 215  : #if defined(_M_IX86) || defined(_M_X64)
; 216  :     if (_Bytes >= _Big_allocation_threshold) { // boost the alignment of big allocations to help autovectorization

  0003b	48 81 bd e8 00
	00 00 00 10 00
	00		 cmp	 QWORD PTR _Bytes$[rbp], 4096 ; 00001000H
  00046	72 13		 jb	 SHORT $LN2@Deallocate

; 217  :         _Adjust_manually_vector_aligned(_Ptr, _Bytes);

  00048	48 8d 95 e8 00
	00 00		 lea	 rdx, QWORD PTR _Bytes$[rbp]
  0004f	48 8d 8d e0 00
	00 00		 lea	 rcx, QWORD PTR _Ptr$[rbp]
  00056	e8 00 00 00 00	 call	 ?_Adjust_manually_vector_aligned@std@@YAXAEAPEAXAEA_K@Z ; std::_Adjust_manually_vector_aligned
$LN2@Deallocate:

; 218  :     }
; 219  : #endif // defined(_M_IX86) || defined(_M_X64)
; 220  : 
; 221  :     ::operator delete(_Ptr, _Bytes);

  0005b	48 8b 95 e8 00
	00 00		 mov	 rdx, QWORD PTR _Bytes$[rbp]
  00062	48 8b 8d e0 00
	00 00		 mov	 rcx, QWORD PTR _Ptr$[rbp]
  00069	e8 00 00 00 00	 call	 ??3@YAXPEAX_K@Z		; operator delete
  0006e	90		 npad	 1

; 222  : }

  0006f	48 8d a5 c8 00
	00 00		 lea	 rsp, QWORD PTR [rbp+200]
  00076	5f		 pop	 rdi
  00077	5d		 pop	 rbp
  00078	c3		 ret	 0
??$_Deallocate@$0BA@$0A@@std@@YAXPEAX_K@Z ENDP		; std::_Deallocate<16,0>
_TEXT	ENDS
; Function compile flags: /Odtp /RTCsu /ZI
; File C:\Program Files (x86)\Microsoft Visual Studio\2019\Enterprise\VC\Tools\MSVC\14.27.29110\include\xstddef
;	COMDAT ??$addressof@V?$_Deque_val@U?$_Deque_simple_types@UEntry@LT@@@std@@@std@@@std@@YAPEAV?$_Deque_val@U?$_Deque_simple_types@UEntry@LT@@@std@@@0@AEAV10@@Z
_TEXT	SEGMENT
_Val$ = 224
??$addressof@V?$_Deque_val@U?$_Deque_simple_types@UEntry@LT@@@std@@@std@@@std@@YAPEAV?$_Deque_val@U?$_Deque_simple_types@UEntry@LT@@@std@@@0@AEAV10@@Z PROC ; std::addressof<std::_Deque_val<std::_Deque_simple_types<LT::Entry> > >, COMDAT

; 274  : _NODISCARD constexpr _Ty* addressof(_Ty& _Val) noexcept {

$LN3:
  00000	48 89 4c 24 08	 mov	 QWORD PTR [rsp+8], rcx
  00005	55		 push	 rbp
  00006	57		 push	 rdi
  00007	48 81 ec e8 00
	00 00		 sub	 rsp, 232		; 000000e8H
  0000e	48 8d 6c 24 20	 lea	 rbp, QWORD PTR [rsp+32]
  00013	48 8b fc	 mov	 rdi, rsp
  00016	b9 3a 00 00 00	 mov	 ecx, 58			; 0000003aH
  0001b	b8 cc cc cc cc	 mov	 eax, -858993460		; ccccccccH
  00020	f3 ab		 rep stosd
  00022	48 8b 8c 24 08
	01 00 00	 mov	 rcx, QWORD PTR [rsp+264]
  0002a	48 8d 0d 00 00
	00 00		 lea	 rcx, OFFSET FLAT:__911385EF_xstddef
  00031	e8 00 00 00 00	 call	 __CheckForDebuggerJustMyCode

; 275  :     return __builtin_addressof(_Val);

  00036	48 8b 85 e0 00
	00 00		 mov	 rax, QWORD PTR _Val$[rbp]

; 276  : }

  0003d	48 8d a5 c8 00
	00 00		 lea	 rsp, QWORD PTR [rbp+200]
  00044	5f		 pop	 rdi
  00045	5d		 pop	 rbp
  00046	c3		 ret	 0
??$addressof@V?$_Deque_val@U?$_Deque_simple_types@UEntry@LT@@@std@@@std@@@std@@YAPEAV?$_Deque_val@U?$_Deque_simple_types@UEntry@LT@@@std@@@0@AEAV10@@Z ENDP ; std::addressof<std::_Deque_val<std::_Deque_simple_types<LT::Entry> > >
_TEXT	ENDS
; Function compile flags: /Odtp /RTCsu /ZI
; File C:\Program Files (x86)\Microsoft Visual Studio\2019\Enterprise\VC\Tools\MSVC\14.27.29110\include\xmemory
;	COMDAT ??$_Get_size_of_n@$0CA@@std@@YA_K_K@Z
_TEXT	SEGMENT
_Overflow_is_possible$ = 4
_Max_possible$1 = 40
_Count$ = 288
??$_Get_size_of_n@$0CA@@std@@YA_K_K@Z PROC		; std::_Get_size_of_n<32>, COMDAT

; 55   : _NODISCARD constexpr size_t _Get_size_of_n(const size_t _Count) {

$LN4:
  00000	48 89 4c 24 08	 mov	 QWORD PTR [rsp+8], rcx
  00005	55		 push	 rbp
  00006	57		 push	 rdi
  00007	48 81 ec 28 01
	00 00		 sub	 rsp, 296		; 00000128H
  0000e	48 8d 6c 24 20	 lea	 rbp, QWORD PTR [rsp+32]
  00013	48 8b fc	 mov	 rdi, rsp
  00016	b9 4a 00 00 00	 mov	 ecx, 74			; 0000004aH
  0001b	b8 cc cc cc cc	 mov	 eax, -858993460		; ccccccccH
  00020	f3 ab		 rep stosd
  00022	48 8b 8c 24 48
	01 00 00	 mov	 rcx, QWORD PTR [rsp+328]
  0002a	48 8d 0d 00 00
	00 00		 lea	 rcx, OFFSET FLAT:__0C99713E_xmemory
  00031	e8 00 00 00 00	 call	 __CheckForDebuggerJustMyCode

; 56   :     constexpr bool _Overflow_is_possible = _Ty_size > 1;

  00036	c6 45 04 01	 mov	 BYTE PTR _Overflow_is_possible$[rbp], 1

; 57   : 
; 58   :     if _CONSTEXPR_IF (_Overflow_is_possible) {
; 59   :         constexpr size_t _Max_possible = static_cast<size_t>(-1) / _Ty_size;

  0003a	48 b8 ff ff ff
	ff ff ff ff 07	 mov	 rax, 576460752303423487	; 07ffffffffffffffH
  00044	48 89 45 28	 mov	 QWORD PTR _Max_possible$1[rbp], rax

; 60   :         if (_Count > _Max_possible) {

  00048	48 b8 ff ff ff
	ff ff ff ff 07	 mov	 rax, 576460752303423487	; 07ffffffffffffffH
  00052	48 39 85 20 01
	00 00		 cmp	 QWORD PTR _Count$[rbp], rax
  00059	76 05		 jbe	 SHORT $LN2@Get_size_o

; 61   :             _Throw_bad_array_new_length(); // multiply overflow

  0005b	e8 00 00 00 00	 call	 ?_Throw_bad_array_new_length@std@@YAXXZ ; std::_Throw_bad_array_new_length
$LN2@Get_size_o:

; 62   :         }
; 63   :     }
; 64   : 
; 65   :     return _Count * _Ty_size;

  00060	48 6b 85 20 01
	00 00 20	 imul	 rax, QWORD PTR _Count$[rbp], 32 ; 00000020H
$LN3@Get_size_o:

; 66   : }

  00068	48 8d a5 08 01
	00 00		 lea	 rsp, QWORD PTR [rbp+264]
  0006f	5f		 pop	 rdi
  00070	5d		 pop	 rbp
  00071	c3		 ret	 0
??$_Get_size_of_n@$0CA@@std@@YA_K_K@Z ENDP		; std::_Get_size_of_n<32>
_TEXT	ENDS
; Function compile flags: /Odtp /RTCsu /ZI
; File C:\Program Files (x86)\Microsoft Visual Studio\2019\Enterprise\VC\Tools\MSVC\14.27.29110\include\xmemory
;	COMDAT ??$_Allocate@$0BA@U_Default_allocate_traits@std@@$0A@@std@@YAPEAX_K@Z
_TEXT	SEGMENT
_Bytes$ = 224
??$_Allocate@$0BA@U_Default_allocate_traits@std@@$0A@@std@@YAPEAX_K@Z PROC ; std::_Allocate<16,std::_Default_allocate_traits,0>, COMDAT

; 197  : __declspec(allocator) void* _Allocate(const size_t _Bytes) {

$LN5:
  00000	48 89 4c 24 08	 mov	 QWORD PTR [rsp+8], rcx
  00005	55		 push	 rbp
  00006	57		 push	 rdi
  00007	48 81 ec e8 00
	00 00		 sub	 rsp, 232		; 000000e8H
  0000e	48 8d 6c 24 20	 lea	 rbp, QWORD PTR [rsp+32]
  00013	48 8b fc	 mov	 rdi, rsp
  00016	b9 3a 00 00 00	 mov	 ecx, 58			; 0000003aH
  0001b	b8 cc cc cc cc	 mov	 eax, -858993460		; ccccccccH
  00020	f3 ab		 rep stosd
  00022	48 8b 8c 24 08
	01 00 00	 mov	 rcx, QWORD PTR [rsp+264]
  0002a	48 8d 0d 00 00
	00 00		 lea	 rcx, OFFSET FLAT:__0C99713E_xmemory
  00031	e8 00 00 00 00	 call	 __CheckForDebuggerJustMyCode

; 198  :     // allocate _Bytes when !_HAS_ALIGNED_NEW || _Align <= __STDCPP_DEFAULT_NEW_ALIGNMENT__
; 199  : #if defined(_M_IX86) || defined(_M_X64)
; 200  :     if (_Bytes >= _Big_allocation_threshold) { // boost the alignment of big allocations to help autovectorization

  00036	48 81 bd e0 00
	00 00 00 10 00
	00		 cmp	 QWORD PTR _Bytes$[rbp], 4096 ; 00001000H
  00041	72 0e		 jb	 SHORT $LN2@Allocate

; 201  :         return _Allocate_manually_vector_aligned<_Traits>(_Bytes);

  00043	48 8b 8d e0 00
	00 00		 mov	 rcx, QWORD PTR _Bytes$[rbp]
  0004a	e8 00 00 00 00	 call	 ??$_Allocate_manually_vector_aligned@U_Default_allocate_traits@std@@@std@@YAPEAX_K@Z ; std::_Allocate_manually_vector_aligned<std::_Default_allocate_traits>
  0004f	eb 1a		 jmp	 SHORT $LN1@Allocate
$LN2@Allocate:

; 202  :     }
; 203  : #endif // defined(_M_IX86) || defined(_M_X64)
; 204  : 
; 205  :     if (_Bytes != 0) {

  00051	48 83 bd e0 00
	00 00 00	 cmp	 QWORD PTR _Bytes$[rbp], 0
  00059	74 0e		 je	 SHORT $LN3@Allocate

; 206  :         return _Traits::_Allocate(_Bytes);

  0005b	48 8b 8d e0 00
	00 00		 mov	 rcx, QWORD PTR _Bytes$[rbp]
  00062	e8 00 00 00 00	 call	 ?_Allocate@_Default_allocate_traits@std@@SAPEAX_K@Z ; std::_Default_allocate_traits::_Allocate
  00067	eb 02		 jmp	 SHORT $LN1@Allocate
$LN3@Allocate:

; 207  :     }
; 208  : 
; 209  :     return nullptr;

  00069	33 c0		 xor	 eax, eax
$LN1@Allocate:

; 210  : }

  0006b	48 8d a5 c8 00
	00 00		 lea	 rsp, QWORD PTR [rbp+200]
  00072	5f		 pop	 rdi
  00073	5d		 pop	 rbp
  00074	c3		 ret	 0
??$_Allocate@$0BA@U_Default_allocate_traits@std@@$0A@@std@@YAPEAX_K@Z ENDP ; std::_Allocate<16,std::_Default_allocate_traits,0>
_TEXT	ENDS
; Function compile flags: /Odtp /RTCsu /ZI
; File C:\Program Files (x86)\Microsoft Visual Studio\2019\Enterprise\VC\Tools\MSVC\14.27.29110\include\xmemory
;	COMDAT ??$_Get_size_of_n@$0BA@@std@@YA_K_K@Z
_TEXT	SEGMENT
_Overflow_is_possible$ = 4
_Max_possible$1 = 40
_Count$ = 288
??$_Get_size_of_n@$0BA@@std@@YA_K_K@Z PROC		; std::_Get_size_of_n<16>, COMDAT

; 55   : _NODISCARD constexpr size_t _Get_size_of_n(const size_t _Count) {

$LN4:
  00000	48 89 4c 24 08	 mov	 QWORD PTR [rsp+8], rcx
  00005	55		 push	 rbp
  00006	57		 push	 rdi
  00007	48 81 ec 28 01
	00 00		 sub	 rsp, 296		; 00000128H
  0000e	48 8d 6c 24 20	 lea	 rbp, QWORD PTR [rsp+32]
  00013	48 8b fc	 mov	 rdi, rsp
  00016	b9 4a 00 00 00	 mov	 ecx, 74			; 0000004aH
  0001b	b8 cc cc cc cc	 mov	 eax, -858993460		; ccccccccH
  00020	f3 ab		 rep stosd
  00022	48 8b 8c 24 48
	01 00 00	 mov	 rcx, QWORD PTR [rsp+328]
  0002a	48 8d 0d 00 00
	00 00		 lea	 rcx, OFFSET FLAT:__0C99713E_xmemory
  00031	e8 00 00 00 00	 call	 __CheckForDebuggerJustMyCode

; 56   :     constexpr bool _Overflow_is_possible = _Ty_size > 1;

  00036	c6 45 04 01	 mov	 BYTE PTR _Overflow_is_possible$[rbp], 1

; 57   : 
; 58   :     if _CONSTEXPR_IF (_Overflow_is_possible) {
; 59   :         constexpr size_t _Max_possible = static_cast<size_t>(-1) / _Ty_size;

  0003a	48 b8 ff ff ff
	ff ff ff ff 0f	 mov	 rax, 1152921504606846975 ; 0fffffffffffffffH
  00044	48 89 45 28	 mov	 QWORD PTR _Max_possible$1[rbp], rax

; 60   :         if (_Count > _Max_possible) {

  00048	48 b8 ff ff ff
	ff ff ff ff 0f	 mov	 rax, 1152921504606846975 ; 0fffffffffffffffH
  00052	48 39 85 20 01
	00 00		 cmp	 QWORD PTR _Count$[rbp], rax
  00059	76 05		 jbe	 SHORT $LN2@Get_size_o

; 61   :             _Throw_bad_array_new_length(); // multiply overflow

  0005b	e8 00 00 00 00	 call	 ?_Throw_bad_array_new_length@std@@YAXXZ ; std::_Throw_bad_array_new_length
$LN2@Get_size_o:

; 62   :         }
; 63   :     }
; 64   : 
; 65   :     return _Count * _Ty_size;

  00060	48 6b 85 20 01
	00 00 10	 imul	 rax, QWORD PTR _Count$[rbp], 16
$LN3@Get_size_o:

; 66   : }

  00068	48 8d a5 08 01
	00 00		 lea	 rsp, QWORD PTR [rbp+264]
  0006f	5f		 pop	 rdi
  00070	5d		 pop	 rbp
  00071	c3		 ret	 0
??$_Get_size_of_n@$0BA@@std@@YA_K_K@Z ENDP		; std::_Get_size_of_n<16>
_TEXT	ENDS
; Function compile flags: /Odtp /RTCsu /ZI
;	COMDAT ??0?$_Deque_unchecked_iterator@V?$_Deque_val@U?$_Deque_simple_types@UEntry@LT@@@std@@@std@@@std@@QEAA@_KPEBU_Container_base12@1@@Z
_TEXT	SEGMENT
this$ = 224
__param0$ = 232
__param1$ = 240
??0?$_Deque_unchecked_iterator@V?$_Deque_val@U?$_Deque_simple_types@UEntry@LT@@@std@@@std@@@std@@QEAA@_KPEBU_Container_base12@1@@Z PROC ; std::_Deque_unchecked_iterator<std::_Deque_val<std::_Deque_simple_types<LT::Entry> > >::_Deque_unchecked_iterator<std::_Deque_val<std::_Deque_simple_types<LT::Entry> > >, COMDAT
$LN3:
  00000	4c 89 44 24 18	 mov	 QWORD PTR [rsp+24], r8
  00005	48 89 54 24 10	 mov	 QWORD PTR [rsp+16], rdx
  0000a	48 89 4c 24 08	 mov	 QWORD PTR [rsp+8], rcx
  0000f	55		 push	 rbp
  00010	57		 push	 rdi
  00011	48 81 ec e8 00
	00 00		 sub	 rsp, 232		; 000000e8H
  00018	48 8d 6c 24 20	 lea	 rbp, QWORD PTR [rsp+32]
  0001d	48 8b fc	 mov	 rdi, rsp
  00020	b9 3a 00 00 00	 mov	 ecx, 58			; 0000003aH
  00025	b8 cc cc cc cc	 mov	 eax, -858993460		; ccccccccH
  0002a	f3 ab		 rep stosd
  0002c	48 8b 8c 24 08
	01 00 00	 mov	 rcx, QWORD PTR [rsp+264]
  00034	4c 8b 85 f0 00
	00 00		 mov	 r8, QWORD PTR __param1$[rbp]
  0003b	48 8b 95 e8 00
	00 00		 mov	 rdx, QWORD PTR __param0$[rbp]
  00042	48 8b 8d e0 00
	00 00		 mov	 rcx, QWORD PTR this$[rbp]
  00049	e8 00 00 00 00	 call	 ??0?$_Deque_unchecked_const_iterator@V?$_Deque_val@U?$_Deque_simple_types@UEntry@LT@@@std@@@std@@@std@@QEAA@_KPEBU_Container_base12@1@@Z ; std::_Deque_unchecked_const_iterator<std::_Deque_val<std::_Deque_simple_types<LT::Entry> > >::_Deque_unchecked_const_iterator<std::_Deque_val<std::_Deque_simple_types<LT::Entry> > >
  0004e	48 8b 85 e0 00
	00 00		 mov	 rax, QWORD PTR this$[rbp]
  00055	48 8d a5 c8 00
	00 00		 lea	 rsp, QWORD PTR [rbp+200]
  0005c	5f		 pop	 rdi
  0005d	5d		 pop	 rbp
  0005e	c3		 ret	 0
??0?$_Deque_unchecked_iterator@V?$_Deque_val@U?$_Deque_simple_types@UEntry@LT@@@std@@@std@@@std@@QEAA@_KPEBU_Container_base12@1@@Z ENDP ; std::_Deque_unchecked_iterator<std::_Deque_val<std::_Deque_simple_types<LT::Entry> > >::_Deque_unchecked_iterator<std::_Deque_val<std::_Deque_simple_types<LT::Entry> > >
_TEXT	ENDS
; Function compile flags: /Odtp /RTCsu /ZI
;	COMDAT ?__autoclassinit2@?$_Deque_unchecked_iterator@V?$_Deque_val@U?$_Deque_simple_types@UEntry@LT@@@std@@@std@@@std@@QEAAX_K@Z
_TEXT	SEGMENT
this$ = 224
classSize$ = 232
?__autoclassinit2@?$_Deque_unchecked_iterator@V?$_Deque_val@U?$_Deque_simple_types@UEntry@LT@@@std@@@std@@@std@@QEAAX_K@Z PROC ; std::_Deque_unchecked_iterator<std::_Deque_val<std::_Deque_simple_types<LT::Entry> > >::__autoclassinit2, COMDAT
$LN3:
  00000	48 89 54 24 10	 mov	 QWORD PTR [rsp+16], rdx
  00005	48 89 4c 24 08	 mov	 QWORD PTR [rsp+8], rcx
  0000a	55		 push	 rbp
  0000b	57		 push	 rdi
  0000c	48 81 ec c8 00
	00 00		 sub	 rsp, 200		; 000000c8H
  00013	48 8b ec	 mov	 rbp, rsp
  00016	48 8b fc	 mov	 rdi, rsp
  00019	b9 32 00 00 00	 mov	 ecx, 50			; 00000032H
  0001e	b8 cc cc cc cc	 mov	 eax, -858993460		; ccccccccH
  00023	f3 ab		 rep stosd
  00025	48 8b 8c 24 e8
	00 00 00	 mov	 rcx, QWORD PTR [rsp+232]
  0002d	48 8b bd e0 00
	00 00		 mov	 rdi, QWORD PTR this$[rbp]
  00034	33 c0		 xor	 eax, eax
  00036	48 8b 8d e8 00
	00 00		 mov	 rcx, QWORD PTR classSize$[rbp]
  0003d	f3 aa		 rep stosb
  0003f	48 8d a5 c8 00
	00 00		 lea	 rsp, QWORD PTR [rbp+200]
  00046	5f		 pop	 rdi
  00047	5d		 pop	 rbp
  00048	c3		 ret	 0
?__autoclassinit2@?$_Deque_unchecked_iterator@V?$_Deque_val@U?$_Deque_simple_types@UEntry@LT@@@std@@@std@@@std@@QEAAX_K@Z ENDP ; std::_Deque_unchecked_iterator<std::_Deque_val<std::_Deque_simple_types<LT::Entry> > >::__autoclassinit2
_TEXT	ENDS
; Function compile flags: /Odtp /RTCsu /ZI
; File C:\Program Files (x86)\Microsoft Visual Studio\2019\Enterprise\VC\Tools\MSVC\14.27.29110\include\deque
;	COMDAT ??G?$_Deque_unchecked_iterator@V?$_Deque_val@U?$_Deque_simple_types@UEntry@LT@@@std@@@std@@@std@@QEBA?AV01@_J@Z
_TEXT	SEGMENT
_Tmp$ = 8
__$ArrayPad$ = 232
this$ = 272
__$ReturnUdt$ = 280
_Off$ = 288
??G?$_Deque_unchecked_iterator@V?$_Deque_val@U?$_Deque_simple_types@UEntry@LT@@@std@@@std@@@std@@QEBA?AV01@_J@Z PROC ; std::_Deque_unchecked_iterator<std::_Deque_val<std::_Deque_simple_types<LT::Entry> > >::operator-, COMDAT

; 215  :     _NODISCARD _Deque_unchecked_iterator operator-(const difference_type _Off) const {

$LN3:
  00000	4c 89 44 24 18	 mov	 QWORD PTR [rsp+24], r8
  00005	48 89 54 24 10	 mov	 QWORD PTR [rsp+16], rdx
  0000a	48 89 4c 24 08	 mov	 QWORD PTR [rsp+8], rcx
  0000f	55		 push	 rbp
  00010	56		 push	 rsi
  00011	57		 push	 rdi
  00012	48 81 ec 10 01
	00 00		 sub	 rsp, 272		; 00000110H
  00019	48 8d 6c 24 20	 lea	 rbp, QWORD PTR [rsp+32]
  0001e	48 8b fc	 mov	 rdi, rsp
  00021	b9 44 00 00 00	 mov	 ecx, 68			; 00000044H
  00026	b8 cc cc cc cc	 mov	 eax, -858993460		; ccccccccH
  0002b	f3 ab		 rep stosd
  0002d	48 8b 8c 24 38
	01 00 00	 mov	 rcx, QWORD PTR [rsp+312]
  00035	48 8b 05 00 00
	00 00		 mov	 rax, QWORD PTR __security_cookie
  0003c	48 33 c5	 xor	 rax, rbp
  0003f	48 89 85 e8 00
	00 00		 mov	 QWORD PTR __$ArrayPad$[rbp], rax
  00046	48 8d 0d 00 00
	00 00		 lea	 rcx, OFFSET FLAT:__1C3F1DC9_deque
  0004d	e8 00 00 00 00	 call	 __CheckForDebuggerJustMyCode

; 216  :         _Deque_unchecked_iterator _Tmp = *this;

  00052	ba 10 00 00 00	 mov	 edx, 16
  00057	48 8d 4d 08	 lea	 rcx, QWORD PTR _Tmp$[rbp]
  0005b	e8 00 00 00 00	 call	 ?__autoclassinit2@?$_Deque_unchecked_iterator@V?$_Deque_val@U?$_Deque_simple_types@UEntry@LT@@@std@@@std@@@std@@QEAAX_K@Z
  00060	48 8d 45 08	 lea	 rax, QWORD PTR _Tmp$[rbp]
  00064	48 8b f8	 mov	 rdi, rax
  00067	48 8b b5 10 01
	00 00		 mov	 rsi, QWORD PTR this$[rbp]
  0006e	b9 10 00 00 00	 mov	 ecx, 16
  00073	f3 a4		 rep movsb

; 217  :         return _Tmp -= _Off;

  00075	48 8b 95 20 01
	00 00		 mov	 rdx, QWORD PTR _Off$[rbp]
  0007c	48 8d 4d 08	 lea	 rcx, QWORD PTR _Tmp$[rbp]
  00080	e8 00 00 00 00	 call	 ??Z?$_Deque_unchecked_iterator@V?$_Deque_val@U?$_Deque_simple_types@UEntry@LT@@@std@@@std@@@std@@QEAAAEAV01@_J@Z ; std::_Deque_unchecked_iterator<std::_Deque_val<std::_Deque_simple_types<LT::Entry> > >::operator-=
  00085	48 8b bd 18 01
	00 00		 mov	 rdi, QWORD PTR __$ReturnUdt$[rbp]
  0008c	48 8b f0	 mov	 rsi, rax
  0008f	b9 10 00 00 00	 mov	 ecx, 16
  00094	f3 a4		 rep movsb
  00096	48 8b 85 18 01
	00 00		 mov	 rax, QWORD PTR __$ReturnUdt$[rbp]

; 218  :     }

  0009d	48 8b f8	 mov	 rdi, rax
  000a0	48 8d 4d e0	 lea	 rcx, QWORD PTR [rbp-32]
  000a4	48 8d 15 00 00
	00 00		 lea	 rdx, OFFSET FLAT:??G?$_Deque_unchecked_iterator@V?$_Deque_val@U?$_Deque_simple_types@UEntry@LT@@@std@@@std@@@std@@QEBA?AV01@_J@Z$rtcFrameData
  000ab	e8 00 00 00 00	 call	 _RTC_CheckStackVars
  000b0	48 8b c7	 mov	 rax, rdi
  000b3	48 8b 8d e8 00
	00 00		 mov	 rcx, QWORD PTR __$ArrayPad$[rbp]
  000ba	48 33 cd	 xor	 rcx, rbp
  000bd	e8 00 00 00 00	 call	 __security_check_cookie
  000c2	48 8d a5 f0 00
	00 00		 lea	 rsp, QWORD PTR [rbp+240]
  000c9	5f		 pop	 rdi
  000ca	5e		 pop	 rsi
  000cb	5d		 pop	 rbp
  000cc	c3		 ret	 0
??G?$_Deque_unchecked_iterator@V?$_Deque_val@U?$_Deque_simple_types@UEntry@LT@@@std@@@std@@@std@@QEBA?AV01@_J@Z ENDP ; std::_Deque_unchecked_iterator<std::_Deque_val<std::_Deque_simple_types<LT::Entry> > >::operator-
_TEXT	ENDS
; Function compile flags: /Odtp /RTCsu /ZI
; File C:\Program Files (x86)\Microsoft Visual Studio\2019\Enterprise\VC\Tools\MSVC\14.27.29110\include\deque
;	COMDAT ??Z?$_Deque_unchecked_iterator@V?$_Deque_val@U?$_Deque_simple_types@UEntry@LT@@@std@@@std@@@std@@QEAAAEAV01@_J@Z
_TEXT	SEGMENT
this$ = 224
_Off$ = 232
??Z?$_Deque_unchecked_iterator@V?$_Deque_val@U?$_Deque_simple_types@UEntry@LT@@@std@@@std@@@std@@QEAAAEAV01@_J@Z PROC ; std::_Deque_unchecked_iterator<std::_Deque_val<std::_Deque_simple_types<LT::Entry> > >::operator-=, COMDAT

; 210  :     _Deque_unchecked_iterator& operator-=(const difference_type _Off) {

$LN3:
  00000	48 89 54 24 10	 mov	 QWORD PTR [rsp+16], rdx
  00005	48 89 4c 24 08	 mov	 QWORD PTR [rsp+8], rcx
  0000a	55		 push	 rbp
  0000b	57		 push	 rdi
  0000c	48 81 ec e8 00
	00 00		 sub	 rsp, 232		; 000000e8H
  00013	48 8d 6c 24 20	 lea	 rbp, QWORD PTR [rsp+32]
  00018	48 8b fc	 mov	 rdi, rsp
  0001b	b9 3a 00 00 00	 mov	 ecx, 58			; 0000003aH
  00020	b8 cc cc cc cc	 mov	 eax, -858993460		; ccccccccH
  00025	f3 ab		 rep stosd
  00027	48 8b 8c 24 08
	01 00 00	 mov	 rcx, QWORD PTR [rsp+264]
  0002f	48 8d 0d 00 00
	00 00		 lea	 rcx, OFFSET FLAT:__1C3F1DC9_deque
  00036	e8 00 00 00 00	 call	 __CheckForDebuggerJustMyCode

; 211  :         _Mybase::operator-=(_Off);

  0003b	48 8b 95 e8 00
	00 00		 mov	 rdx, QWORD PTR _Off$[rbp]
  00042	48 8b 8d e0 00
	00 00		 mov	 rcx, QWORD PTR this$[rbp]
  00049	e8 00 00 00 00	 call	 ??Z?$_Deque_unchecked_const_iterator@V?$_Deque_val@U?$_Deque_simple_types@UEntry@LT@@@std@@@std@@@std@@QEAAAEAV01@_J@Z ; std::_Deque_unchecked_const_iterator<std::_Deque_val<std::_Deque_simple_types<LT::Entry> > >::operator-=

; 212  :         return *this;

  0004e	48 8b 85 e0 00
	00 00		 mov	 rax, QWORD PTR this$[rbp]

; 213  :     }

  00055	48 8d a5 c8 00
	00 00		 lea	 rsp, QWORD PTR [rbp+200]
  0005c	5f		 pop	 rdi
  0005d	5d		 pop	 rbp
  0005e	c3		 ret	 0
??Z?$_Deque_unchecked_iterator@V?$_Deque_val@U?$_Deque_simple_types@UEntry@LT@@@std@@@std@@@std@@QEAAAEAV01@_J@Z ENDP ; std::_Deque_unchecked_iterator<std::_Deque_val<std::_Deque_simple_types<LT::Entry> > >::operator-=
_TEXT	ENDS
; Function compile flags: /Odtp /RTCsu /ZI
; File C:\Program Files (x86)\Microsoft Visual Studio\2019\Enterprise\VC\Tools\MSVC\14.27.29110\include\deque
;	COMDAT ??D?$_Deque_unchecked_iterator@V?$_Deque_val@U?$_Deque_simple_types@UEntry@LT@@@std@@@std@@@std@@QEBAAEAUEntry@LT@@XZ
_TEXT	SEGMENT
this$ = 224
??D?$_Deque_unchecked_iterator@V?$_Deque_val@U?$_Deque_simple_types@UEntry@LT@@@std@@@std@@@std@@QEBAAEAUEntry@LT@@XZ PROC ; std::_Deque_unchecked_iterator<std::_Deque_val<std::_Deque_simple_types<LT::Entry> > >::operator*, COMDAT

; 170  :     _NODISCARD reference operator*() const {

$LN3:
  00000	48 89 4c 24 08	 mov	 QWORD PTR [rsp+8], rcx
  00005	55		 push	 rbp
  00006	57		 push	 rdi
  00007	48 81 ec e8 00
	00 00		 sub	 rsp, 232		; 000000e8H
  0000e	48 8d 6c 24 20	 lea	 rbp, QWORD PTR [rsp+32]
  00013	48 8b fc	 mov	 rdi, rsp
  00016	b9 3a 00 00 00	 mov	 ecx, 58			; 0000003aH
  0001b	b8 cc cc cc cc	 mov	 eax, -858993460		; ccccccccH
  00020	f3 ab		 rep stosd
  00022	48 8b 8c 24 08
	01 00 00	 mov	 rcx, QWORD PTR [rsp+264]
  0002a	48 8d 0d 00 00
	00 00		 lea	 rcx, OFFSET FLAT:__1C3F1DC9_deque
  00031	e8 00 00 00 00	 call	 __CheckForDebuggerJustMyCode

; 171  :         return const_cast<reference>(_Mybase::operator*());

  00036	48 8b 8d e0 00
	00 00		 mov	 rcx, QWORD PTR this$[rbp]
  0003d	e8 00 00 00 00	 call	 ??D?$_Deque_unchecked_const_iterator@V?$_Deque_val@U?$_Deque_simple_types@UEntry@LT@@@std@@@std@@@std@@QEBAAEBUEntry@LT@@XZ ; std::_Deque_unchecked_const_iterator<std::_Deque_val<std::_Deque_simple_types<LT::Entry> > >::operator*

; 172  :     }

  00042	48 8d a5 c8 00
	00 00		 lea	 rsp, QWORD PTR [rbp+200]
  00049	5f		 pop	 rdi
  0004a	5d		 pop	 rbp
  0004b	c3		 ret	 0
??D?$_Deque_unchecked_iterator@V?$_Deque_val@U?$_Deque_simple_types@UEntry@LT@@@std@@@std@@@std@@QEBAAEAUEntry@LT@@XZ ENDP ; std::_Deque_unchecked_iterator<std::_Deque_val<std::_Deque_simple_types<LT::Entry> > >::operator*
_TEXT	ENDS
; Function compile flags: /Odtp /RTCsu /ZI
; File C:\Program Files (x86)\Microsoft Visual Studio\2019\Enterprise\VC\Tools\MSVC\14.27.29110\include\deque
;	COMDAT ??Z?$_Deque_unchecked_const_iterator@V?$_Deque_val@U?$_Deque_simple_types@UEntry@LT@@@std@@@std@@@std@@QEAAAEAV01@_J@Z
_TEXT	SEGMENT
this$ = 224
_Off$ = 232
??Z?$_Deque_unchecked_const_iterator@V?$_Deque_val@U?$_Deque_simple_types@UEntry@LT@@@std@@@std@@@std@@QEAAAEAV01@_J@Z PROC ; std::_Deque_unchecked_const_iterator<std::_Deque_val<std::_Deque_simple_types<LT::Entry> > >::operator-=, COMDAT

; 96   :     _Deque_unchecked_const_iterator& operator-=(const difference_type _Off) {

$LN3:
  00000	48 89 54 24 10	 mov	 QWORD PTR [rsp+16], rdx
  00005	48 89 4c 24 08	 mov	 QWORD PTR [rsp+8], rcx
  0000a	55		 push	 rbp
  0000b	57		 push	 rdi
  0000c	48 81 ec e8 00
	00 00		 sub	 rsp, 232		; 000000e8H
  00013	48 8d 6c 24 20	 lea	 rbp, QWORD PTR [rsp+32]
  00018	48 8b fc	 mov	 rdi, rsp
  0001b	b9 3a 00 00 00	 mov	 ecx, 58			; 0000003aH
  00020	b8 cc cc cc cc	 mov	 eax, -858993460		; ccccccccH
  00025	f3 ab		 rep stosd
  00027	48 8b 8c 24 08
	01 00 00	 mov	 rcx, QWORD PTR [rsp+264]
  0002f	48 8d 0d 00 00
	00 00		 lea	 rcx, OFFSET FLAT:__1C3F1DC9_deque
  00036	e8 00 00 00 00	 call	 __CheckForDebuggerJustMyCode

; 97   :         _Myoff -= _Off;

  0003b	48 8b 85 e0 00
	00 00		 mov	 rax, QWORD PTR this$[rbp]
  00042	48 8b 8d e8 00
	00 00		 mov	 rcx, QWORD PTR _Off$[rbp]
  00049	48 8b 40 08	 mov	 rax, QWORD PTR [rax+8]
  0004d	48 2b c1	 sub	 rax, rcx
  00050	48 8b 8d e0 00
	00 00		 mov	 rcx, QWORD PTR this$[rbp]
  00057	48 89 41 08	 mov	 QWORD PTR [rcx+8], rax

; 98   :         return *this;

  0005b	48 8b 85 e0 00
	00 00		 mov	 rax, QWORD PTR this$[rbp]

; 99   :     }

  00062	48 8d a5 c8 00
	00 00		 lea	 rsp, QWORD PTR [rbp+200]
  00069	5f		 pop	 rdi
  0006a	5d		 pop	 rbp
  0006b	c3		 ret	 0
??Z?$_Deque_unchecked_const_iterator@V?$_Deque_val@U?$_Deque_simple_types@UEntry@LT@@@std@@@std@@@std@@QEAAAEAV01@_J@Z ENDP ; std::_Deque_unchecked_const_iterator<std::_Deque_val<std::_Deque_simple_types<LT::Entry> > >::operator-=
_TEXT	ENDS
; Function compile flags: /Odtp /RTCsu /ZI
; File C:\Program Files (x86)\Microsoft Visual Studio\2019\Enterprise\VC\Tools\MSVC\14.27.29110\include\deque
;	COMDAT ??D?$_Deque_unchecked_const_iterator@V?$_Deque_val@U?$_Deque_simple_types@UEntry@LT@@@std@@@std@@@std@@QEBAAEBUEntry@LT@@XZ
_TEXT	SEGMENT
_Block$ = 8
_Off$ = 40
this$ = 288
??D?$_Deque_unchecked_const_iterator@V?$_Deque_val@U?$_Deque_simple_types@UEntry@LT@@@std@@@std@@@std@@QEBAAEBUEntry@LT@@XZ PROC ; std::_Deque_unchecked_const_iterator<std::_Deque_val<std::_Deque_simple_types<LT::Entry> > >::operator*, COMDAT

; 54   :     _NODISCARD reference operator*() const {

$LN3:
  00000	48 89 4c 24 08	 mov	 QWORD PTR [rsp+8], rcx
  00005	55		 push	 rbp
  00006	57		 push	 rdi
  00007	48 81 ec 28 01
	00 00		 sub	 rsp, 296		; 00000128H
  0000e	48 8d 6c 24 20	 lea	 rbp, QWORD PTR [rsp+32]
  00013	48 8b fc	 mov	 rdi, rsp
  00016	b9 4a 00 00 00	 mov	 ecx, 74			; 0000004aH
  0001b	b8 cc cc cc cc	 mov	 eax, -858993460		; ccccccccH
  00020	f3 ab		 rep stosd
  00022	48 8b 8c 24 48
	01 00 00	 mov	 rcx, QWORD PTR [rsp+328]
  0002a	48 8d 0d 00 00
	00 00		 lea	 rcx, OFFSET FLAT:__1C3F1DC9_deque
  00031	e8 00 00 00 00	 call	 __CheckForDebuggerJustMyCode

; 55   :         _Size_type _Block = _Mycont->_Getblock(_Myoff);

  00036	48 8b 85 20 01
	00 00		 mov	 rax, QWORD PTR this$[rbp]
  0003d	48 8b 50 08	 mov	 rdx, QWORD PTR [rax+8]
  00041	48 8b 85 20 01
	00 00		 mov	 rax, QWORD PTR this$[rbp]
  00048	48 8b 08	 mov	 rcx, QWORD PTR [rax]
  0004b	e8 00 00 00 00	 call	 ?_Getblock@?$_Deque_val@U?$_Deque_simple_types@UEntry@LT@@@std@@@std@@QEBA_K_K@Z ; std::_Deque_val<std::_Deque_simple_types<LT::Entry> >::_Getblock
  00050	48 89 45 08	 mov	 QWORD PTR _Block$[rbp], rax

; 56   :         _Size_type _Off   = _Myoff % _DEQUESIZ;

  00054	33 c0		 xor	 eax, eax
  00056	48 89 45 28	 mov	 QWORD PTR _Off$[rbp], rax

; 57   :         return _Mycont->_Map[_Block][_Off];

  0005a	48 8b 85 20 01
	00 00		 mov	 rax, QWORD PTR this$[rbp]
  00061	48 8b 00	 mov	 rax, QWORD PTR [rax]
  00064	48 8b 40 08	 mov	 rax, QWORD PTR [rax+8]
  00068	48 6b 4d 28 10	 imul	 rcx, QWORD PTR _Off$[rbp], 16
  0006d	48 8b 55 08	 mov	 rdx, QWORD PTR _Block$[rbp]
  00071	48 03 0c d0	 add	 rcx, QWORD PTR [rax+rdx*8]
  00075	48 8b c1	 mov	 rax, rcx

; 58   :     }

  00078	48 8d a5 08 01
	00 00		 lea	 rsp, QWORD PTR [rbp+264]
  0007f	5f		 pop	 rdi
  00080	5d		 pop	 rbp
  00081	c3		 ret	 0
??D?$_Deque_unchecked_const_iterator@V?$_Deque_val@U?$_Deque_simple_types@UEntry@LT@@@std@@@std@@@std@@QEBAAEBUEntry@LT@@XZ ENDP ; std::_Deque_unchecked_const_iterator<std::_Deque_val<std::_Deque_simple_types<LT::Entry> > >::operator*
_TEXT	ENDS
; Function compile flags: /Odtp /RTCsu /ZI
; File C:\Program Files (x86)\Microsoft Visual Studio\2019\Enterprise\VC\Tools\MSVC\14.27.29110\include\deque
;	COMDAT ??0?$_Deque_unchecked_const_iterator@V?$_Deque_val@U?$_Deque_simple_types@UEntry@LT@@@std@@@std@@@std@@QEAA@_KPEBU_Container_base12@1@@Z
_TEXT	SEGMENT
this$ = 224
_Off$ = 232
_Pdeque$ = 240
??0?$_Deque_unchecked_const_iterator@V?$_Deque_val@U?$_Deque_simple_types@UEntry@LT@@@std@@@std@@@std@@QEAA@_KPEBU_Container_base12@1@@Z PROC ; std::_Deque_unchecked_const_iterator<std::_Deque_val<std::_Deque_simple_types<LT::Entry> > >::_Deque_unchecked_const_iterator<std::_Deque_val<std::_Deque_simple_types<LT::Entry> > >, COMDAT

; 52   :         : _Mycont(static_cast<const _Mydeque*>(_Pdeque)), _Myoff(_Off) {}

$LN3:
  00000	4c 89 44 24 18	 mov	 QWORD PTR [rsp+24], r8
  00005	48 89 54 24 10	 mov	 QWORD PTR [rsp+16], rdx
  0000a	48 89 4c 24 08	 mov	 QWORD PTR [rsp+8], rcx
  0000f	55		 push	 rbp
  00010	57		 push	 rdi
  00011	48 81 ec e8 00
	00 00		 sub	 rsp, 232		; 000000e8H
  00018	48 8d 6c 24 20	 lea	 rbp, QWORD PTR [rsp+32]
  0001d	48 8b fc	 mov	 rdi, rsp
  00020	b9 3a 00 00 00	 mov	 ecx, 58			; 0000003aH
  00025	b8 cc cc cc cc	 mov	 eax, -858993460		; ccccccccH
  0002a	f3 ab		 rep stosd
  0002c	48 8b 8c 24 08
	01 00 00	 mov	 rcx, QWORD PTR [rsp+264]
  00034	48 8d 0d 00 00
	00 00		 lea	 rcx, OFFSET FLAT:__1C3F1DC9_deque
  0003b	e8 00 00 00 00	 call	 __CheckForDebuggerJustMyCode
  00040	48 8b 85 e0 00
	00 00		 mov	 rax, QWORD PTR this$[rbp]
  00047	48 8b 8d f0 00
	00 00		 mov	 rcx, QWORD PTR _Pdeque$[rbp]
  0004e	48 89 08	 mov	 QWORD PTR [rax], rcx
  00051	48 8b 85 e0 00
	00 00		 mov	 rax, QWORD PTR this$[rbp]
  00058	48 8b 8d e8 00
	00 00		 mov	 rcx, QWORD PTR _Off$[rbp]
  0005f	48 89 48 08	 mov	 QWORD PTR [rax+8], rcx
  00063	48 8b 85 e0 00
	00 00		 mov	 rax, QWORD PTR this$[rbp]
  0006a	48 8d a5 c8 00
	00 00		 lea	 rsp, QWORD PTR [rbp+200]
  00071	5f		 pop	 rdi
  00072	5d		 pop	 rbp
  00073	c3		 ret	 0
??0?$_Deque_unchecked_const_iterator@V?$_Deque_val@U?$_Deque_simple_types@UEntry@LT@@@std@@@std@@@std@@QEAA@_KPEBU_Container_base12@1@@Z ENDP ; std::_Deque_unchecked_const_iterator<std::_Deque_val<std::_Deque_simple_types<LT::Entry> > >::_Deque_unchecked_const_iterator<std::_Deque_val<std::_Deque_simple_types<LT::Entry> > >
_TEXT	ENDS
; Function compile flags: /Odtp /RTCsu /ZI
; File C:\Program Files (x86)\Microsoft Visual Studio\2019\Enterprise\VC\Tools\MSVC\14.27.29110\include\deque
;	COMDAT ??$_Emplace_back_internal@AEBUEntry@LT@@@?$deque@UEntry@LT@@V?$allocator@UEntry@LT@@@std@@@std@@AEAAXAEBUEntry@LT@@@Z
_TEXT	SEGMENT
_Newoff$ = 8
_Block$ = 40
tv161 = 248
tv143 = 248
tv135 = 248
tv87 = 248
tv84 = 248
tv72 = 248
tv65 = 248
tv146 = 256
this$ = 304
<_Vals_0>$ = 312
??$_Emplace_back_internal@AEBUEntry@LT@@@?$deque@UEntry@LT@@V?$allocator@UEntry@LT@@@std@@@std@@AEAAXAEBUEntry@LT@@@Z PROC ; std::deque<LT::Entry,std::allocator<LT::Entry> >::_Emplace_back_internal<LT::Entry const &>, COMDAT

; 1113 :     void _Emplace_back_internal(_Tys&&... _Vals) {

$LN5:
  00000	48 89 54 24 10	 mov	 QWORD PTR [rsp+16], rdx
  00005	48 89 4c 24 08	 mov	 QWORD PTR [rsp+8], rcx
  0000a	55		 push	 rbp
  0000b	57		 push	 rdi
  0000c	48 81 ec 38 01
	00 00		 sub	 rsp, 312		; 00000138H
  00013	48 8d 6c 24 20	 lea	 rbp, QWORD PTR [rsp+32]
  00018	48 8b fc	 mov	 rdi, rsp
  0001b	b9 4e 00 00 00	 mov	 ecx, 78			; 0000004eH
  00020	b8 cc cc cc cc	 mov	 eax, -858993460		; ccccccccH
  00025	f3 ab		 rep stosd
  00027	48 8b 8c 24 58
	01 00 00	 mov	 rcx, QWORD PTR [rsp+344]
  0002f	48 8d 0d 00 00
	00 00		 lea	 rcx, OFFSET FLAT:__1C3F1DC9_deque
  00036	e8 00 00 00 00	 call	 __CheckForDebuggerJustMyCode

; 1114 :         _PUSH_BACK_BEGIN;

  0003b	48 8b 8d 30 01
	00 00		 mov	 rcx, QWORD PTR this$[rbp]
  00042	e8 00 00 00 00	 call	 ?_Myoff@?$deque@UEntry@LT@@V?$allocator@UEntry@LT@@@std@@@std@@AEAAAEA_KXZ ; std::deque<LT::Entry,std::allocator<LT::Entry> >::_Myoff
  00047	48 89 85 f8 00
	00 00		 mov	 QWORD PTR tv65[rbp], rax
  0004e	48 8b 8d 30 01
	00 00		 mov	 rcx, QWORD PTR this$[rbp]
  00055	e8 00 00 00 00	 call	 ?_Mysize@?$deque@UEntry@LT@@V?$allocator@UEntry@LT@@@std@@@std@@AEAAAEA_KXZ ; std::deque<LT::Entry,std::allocator<LT::Entry> >::_Mysize
  0005a	48 8b 8d f8 00
	00 00		 mov	 rcx, QWORD PTR tv65[rbp]
  00061	48 8b 09	 mov	 rcx, QWORD PTR [rcx]
  00064	48 03 08	 add	 rcx, QWORD PTR [rax]
  00067	48 8b c1	 mov	 rax, rcx
  0006a	33 c0		 xor	 eax, eax
  0006c	48 85 c0	 test	 rax, rax
  0006f	75 42		 jne	 SHORT $LN2@Emplace_ba
  00071	48 8b 8d 30 01
	00 00		 mov	 rcx, QWORD PTR this$[rbp]
  00078	e8 00 00 00 00	 call	 ?_Mapsize@?$deque@UEntry@LT@@V?$allocator@UEntry@LT@@@std@@@std@@AEAAAEA_KXZ ; std::deque<LT::Entry,std::allocator<LT::Entry> >::_Mapsize
  0007d	48 89 85 f8 00
	00 00		 mov	 QWORD PTR tv72[rbp], rax
  00084	48 8b 8d 30 01
	00 00		 mov	 rcx, QWORD PTR this$[rbp]
  0008b	e8 00 00 00 00	 call	 ?_Mysize@?$deque@UEntry@LT@@V?$allocator@UEntry@LT@@@std@@@std@@AEAAAEA_KXZ ; std::deque<LT::Entry,std::allocator<LT::Entry> >::_Mysize
  00090	48 8b 00	 mov	 rax, QWORD PTR [rax]
  00093	48 ff c0	 inc	 rax
  00096	48 8b 8d f8 00
	00 00		 mov	 rcx, QWORD PTR tv72[rbp]
  0009d	48 39 01	 cmp	 QWORD PTR [rcx], rax
  000a0	77 11		 ja	 SHORT $LN2@Emplace_ba
  000a2	ba 01 00 00 00	 mov	 edx, 1
  000a7	48 8b 8d 30 01
	00 00		 mov	 rcx, QWORD PTR this$[rbp]
  000ae	e8 00 00 00 00	 call	 ?_Growmap@?$deque@UEntry@LT@@V?$allocator@UEntry@LT@@@std@@@std@@AEAAX_K@Z ; std::deque<LT::Entry,std::allocator<LT::Entry> >::_Growmap
$LN2@Emplace_ba:
  000b3	48 8b 8d 30 01
	00 00		 mov	 rcx, QWORD PTR this$[rbp]
  000ba	e8 00 00 00 00	 call	 ?_Myoff@?$deque@UEntry@LT@@V?$allocator@UEntry@LT@@@std@@@std@@AEAAAEA_KXZ ; std::deque<LT::Entry,std::allocator<LT::Entry> >::_Myoff
  000bf	48 89 85 f8 00
	00 00		 mov	 QWORD PTR tv84[rbp], rax
  000c6	48 8b 8d 30 01
	00 00		 mov	 rcx, QWORD PTR this$[rbp]
  000cd	e8 00 00 00 00	 call	 ?_Mapsize@?$deque@UEntry@LT@@V?$allocator@UEntry@LT@@@std@@@std@@AEAAAEA_KXZ ; std::deque<LT::Entry,std::allocator<LT::Entry> >::_Mapsize
  000d2	48 8b 00	 mov	 rax, QWORD PTR [rax]
  000d5	48 ff c8	 dec	 rax
  000d8	48 8b 8d f8 00
	00 00		 mov	 rcx, QWORD PTR tv84[rbp]
  000df	48 8b 09	 mov	 rcx, QWORD PTR [rcx]
  000e2	48 23 c8	 and	 rcx, rax
  000e5	48 8b c1	 mov	 rax, rcx
  000e8	48 8b 8d f8 00
	00 00		 mov	 rcx, QWORD PTR tv84[rbp]
  000ef	48 89 01	 mov	 QWORD PTR [rcx], rax
  000f2	48 8b 8d 30 01
	00 00		 mov	 rcx, QWORD PTR this$[rbp]
  000f9	e8 00 00 00 00	 call	 ?_Myoff@?$deque@UEntry@LT@@V?$allocator@UEntry@LT@@@std@@@std@@AEAAAEA_KXZ ; std::deque<LT::Entry,std::allocator<LT::Entry> >::_Myoff
  000fe	48 89 85 f8 00
	00 00		 mov	 QWORD PTR tv87[rbp], rax
  00105	48 8b 8d 30 01
	00 00		 mov	 rcx, QWORD PTR this$[rbp]
  0010c	e8 00 00 00 00	 call	 ?_Mysize@?$deque@UEntry@LT@@V?$allocator@UEntry@LT@@@std@@@std@@AEAAAEA_KXZ ; std::deque<LT::Entry,std::allocator<LT::Entry> >::_Mysize
  00111	48 8b 8d f8 00
	00 00		 mov	 rcx, QWORD PTR tv87[rbp]
  00118	48 8b 09	 mov	 rcx, QWORD PTR [rcx]
  0011b	48 03 08	 add	 rcx, QWORD PTR [rax]
  0011e	48 8b c1	 mov	 rax, rcx
  00121	48 89 45 08	 mov	 QWORD PTR _Newoff$[rbp], rax
  00125	48 8b 55 08	 mov	 rdx, QWORD PTR _Newoff$[rbp]
  00129	48 8b 8d 30 01
	00 00		 mov	 rcx, QWORD PTR this$[rbp]
  00130	e8 00 00 00 00	 call	 ?_Getblock@?$deque@UEntry@LT@@V?$allocator@UEntry@LT@@@std@@@std@@AEBA_K_K@Z ; std::deque<LT::Entry,std::allocator<LT::Entry> >::_Getblock
  00135	48 89 45 28	 mov	 QWORD PTR _Block$[rbp], rax
  00139	48 8b 8d 30 01
	00 00		 mov	 rcx, QWORD PTR this$[rbp]
  00140	e8 00 00 00 00	 call	 ?_Map@?$deque@UEntry@LT@@V?$allocator@UEntry@LT@@@std@@@std@@AEAAAEAPEAPEAUEntry@LT@@XZ ; std::deque<LT::Entry,std::allocator<LT::Entry> >::_Map
  00145	48 8b 00	 mov	 rax, QWORD PTR [rax]
  00148	48 8b 4d 28	 mov	 rcx, QWORD PTR _Block$[rbp]
  0014c	48 83 3c c8 00	 cmp	 QWORD PTR [rax+rcx*8], 0
  00151	75 3e		 jne	 SHORT $LN3@Emplace_ba
  00153	48 8b 8d 30 01
	00 00		 mov	 rcx, QWORD PTR this$[rbp]
  0015a	e8 00 00 00 00	 call	 ?_Getal@?$deque@UEntry@LT@@V?$allocator@UEntry@LT@@@std@@@std@@AEAAAEAV?$allocator@UEntry@LT@@@2@XZ ; std::deque<LT::Entry,std::allocator<LT::Entry> >::_Getal
  0015f	ba 01 00 00 00	 mov	 edx, 1
  00164	48 8b c8	 mov	 rcx, rax
  00167	e8 00 00 00 00	 call	 ?allocate@?$allocator@UEntry@LT@@@std@@QEAAPEAUEntry@LT@@_K@Z ; std::allocator<LT::Entry>::allocate
  0016c	48 89 85 f8 00
	00 00		 mov	 QWORD PTR tv135[rbp], rax
  00173	48 8b 8d 30 01
	00 00		 mov	 rcx, QWORD PTR this$[rbp]
  0017a	e8 00 00 00 00	 call	 ?_Map@?$deque@UEntry@LT@@V?$allocator@UEntry@LT@@@std@@@std@@AEAAAEAPEAPEAUEntry@LT@@XZ ; std::deque<LT::Entry,std::allocator<LT::Entry> >::_Map
  0017f	48 8b 00	 mov	 rax, QWORD PTR [rax]
  00182	48 8b 4d 28	 mov	 rcx, QWORD PTR _Block$[rbp]
  00186	48 8b 95 f8 00
	00 00		 mov	 rdx, QWORD PTR tv135[rbp]
  0018d	48 89 14 c8	 mov	 QWORD PTR [rax+rcx*8], rdx
$LN3@Emplace_ba:

; 1115 :         _Alty_traits::construct(_Getal(), _Unfancy(_Map()[_Block] + _Newoff % _DEQUESIZ), _STD forward<_Tys>(_Vals)...);

  00191	48 8b 8d 38 01
	00 00		 mov	 rcx, QWORD PTR <_Vals_0>$[rbp]
  00198	e8 00 00 00 00	 call	 ??$forward@AEBUEntry@LT@@@std@@YAAEBUEntry@LT@@AEBU12@@Z ; std::forward<LT::Entry const &>
  0019d	48 89 85 f8 00
	00 00		 mov	 QWORD PTR tv143[rbp], rax
  001a4	48 8b 8d 30 01
	00 00		 mov	 rcx, QWORD PTR this$[rbp]
  001ab	e8 00 00 00 00	 call	 ?_Map@?$deque@UEntry@LT@@V?$allocator@UEntry@LT@@@std@@@std@@AEAAAEAPEAPEAUEntry@LT@@XZ ; std::deque<LT::Entry,std::allocator<LT::Entry> >::_Map
  001b0	48 8b 00	 mov	 rax, QWORD PTR [rax]
  001b3	33 c9		 xor	 ecx, ecx
  001b5	48 6b c9 10	 imul	 rcx, rcx, 16
  001b9	48 8b 55 28	 mov	 rdx, QWORD PTR _Block$[rbp]
  001bd	48 03 0c d0	 add	 rcx, QWORD PTR [rax+rdx*8]
  001c1	48 8b c1	 mov	 rax, rcx
  001c4	48 8b c8	 mov	 rcx, rax
  001c7	e8 00 00 00 00	 call	 ??$_Unfancy@UEntry@LT@@@std@@YAPEAUEntry@LT@@PEAU12@@Z ; std::_Unfancy<LT::Entry>
  001cc	48 89 85 00 01
	00 00		 mov	 QWORD PTR tv146[rbp], rax
  001d3	48 8b 8d 30 01
	00 00		 mov	 rcx, QWORD PTR this$[rbp]
  001da	e8 00 00 00 00	 call	 ?_Getal@?$deque@UEntry@LT@@V?$allocator@UEntry@LT@@@std@@@std@@AEAAAEAV?$allocator@UEntry@LT@@@2@XZ ; std::deque<LT::Entry,std::allocator<LT::Entry> >::_Getal
  001df	48 8b 8d f8 00
	00 00		 mov	 rcx, QWORD PTR tv143[rbp]
  001e6	4c 8b c1	 mov	 r8, rcx
  001e9	48 8b 8d 00 01
	00 00		 mov	 rcx, QWORD PTR tv146[rbp]
  001f0	48 8b d1	 mov	 rdx, rcx
  001f3	48 8b c8	 mov	 rcx, rax
  001f6	e8 00 00 00 00	 call	 ??$construct@UEntry@LT@@AEBU12@@?$_Default_allocator_traits@V?$allocator@UEntry@LT@@@std@@@std@@SAXAEAV?$allocator@UEntry@LT@@@1@QEAUEntry@LT@@AEBU34@@Z ; std::_Default_allocator_traits<std::allocator<LT::Entry> >::construct<LT::Entry,LT::Entry const &>

; 1116 :         _PUSH_BACK_END;

  001fb	48 8b 8d 30 01
	00 00		 mov	 rcx, QWORD PTR this$[rbp]
  00202	e8 00 00 00 00	 call	 ?_Mysize@?$deque@UEntry@LT@@V?$allocator@UEntry@LT@@@std@@@std@@AEAAAEA_KXZ ; std::deque<LT::Entry,std::allocator<LT::Entry> >::_Mysize
  00207	48 89 85 f8 00
	00 00		 mov	 QWORD PTR tv161[rbp], rax
  0020e	48 8b 85 f8 00
	00 00		 mov	 rax, QWORD PTR tv161[rbp]
  00215	48 8b 00	 mov	 rax, QWORD PTR [rax]
  00218	48 ff c0	 inc	 rax
  0021b	48 8b 8d f8 00
	00 00		 mov	 rcx, QWORD PTR tv161[rbp]
  00222	48 89 01	 mov	 QWORD PTR [rcx], rax

; 1117 :     }

  00225	48 8d a5 18 01
	00 00		 lea	 rsp, QWORD PTR [rbp+280]
  0022c	5f		 pop	 rdi
  0022d	5d		 pop	 rbp
  0022e	c3		 ret	 0
??$_Emplace_back_internal@AEBUEntry@LT@@@?$deque@UEntry@LT@@V?$allocator@UEntry@LT@@@std@@@std@@AEAAXAEBUEntry@LT@@@Z ENDP ; std::deque<LT::Entry,std::allocator<LT::Entry> >::_Emplace_back_internal<LT::Entry const &>
_TEXT	ENDS
; Function compile flags: /Odtp /RTCsu /ZI
; File C:\Program Files (x86)\Microsoft Visual Studio\2019\Enterprise\VC\Tools\MSVC\14.27.29110\include\xmemory
;	COMDAT ??$destroy@UEntry@LT@@@?$_Default_allocator_traits@V?$allocator@UEntry@LT@@@std@@@std@@SAXAEAV?$allocator@UEntry@LT@@@1@QEAUEntry@LT@@@Z
_TEXT	SEGMENT
__formal$ = 224
_Ptr$ = 232
??$destroy@UEntry@LT@@@?$_Default_allocator_traits@V?$allocator@UEntry@LT@@@std@@@std@@SAXAEAV?$allocator@UEntry@LT@@@1@QEAUEntry@LT@@@Z PROC ; std::_Default_allocator_traits<std::allocator<LT::Entry> >::destroy<LT::Entry>, COMDAT

; 698  :     static void destroy(_Alloc&, _Uty* const _Ptr) {

$LN3:
  00000	48 89 54 24 10	 mov	 QWORD PTR [rsp+16], rdx
  00005	48 89 4c 24 08	 mov	 QWORD PTR [rsp+8], rcx
  0000a	55		 push	 rbp
  0000b	57		 push	 rdi
  0000c	48 81 ec e8 00
	00 00		 sub	 rsp, 232		; 000000e8H
  00013	48 8d 6c 24 20	 lea	 rbp, QWORD PTR [rsp+32]
  00018	48 8b fc	 mov	 rdi, rsp
  0001b	b9 3a 00 00 00	 mov	 ecx, 58			; 0000003aH
  00020	b8 cc cc cc cc	 mov	 eax, -858993460		; ccccccccH
  00025	f3 ab		 rep stosd
  00027	48 8b 8c 24 08
	01 00 00	 mov	 rcx, QWORD PTR [rsp+264]
  0002f	48 8d 0d 00 00
	00 00		 lea	 rcx, OFFSET FLAT:__0C99713E_xmemory
  00036	e8 00 00 00 00	 call	 __CheckForDebuggerJustMyCode

; 699  :         _Ptr->~_Uty();
; 700  :     }

  0003b	48 8d a5 c8 00
	00 00		 lea	 rsp, QWORD PTR [rbp+200]
  00042	5f		 pop	 rdi
  00043	5d		 pop	 rbp
  00044	c3		 ret	 0
??$destroy@UEntry@LT@@@?$_Default_allocator_traits@V?$allocator@UEntry@LT@@@std@@@std@@SAXAEAV?$allocator@UEntry@LT@@@1@QEAUEntry@LT@@@Z ENDP ; std::_Default_allocator_traits<std::allocator<LT::Entry> >::destroy<LT::Entry>
_TEXT	ENDS
; Function compile flags: /Odtp /RTCsu /ZI
; File C:\Program Files (x86)\Microsoft Visual Studio\2019\Enterprise\VC\Tools\MSVC\14.27.29110\include\xstddef
;	COMDAT ??$_Unfancy@UEntry@LT@@@std@@YAPEAUEntry@LT@@PEAU12@@Z
_TEXT	SEGMENT
_Ptr$ = 224
??$_Unfancy@UEntry@LT@@@std@@YAPEAUEntry@LT@@PEAU12@@Z PROC ; std::_Unfancy<LT::Entry>, COMDAT

; 288  : _NODISCARD constexpr _Ty* _Unfancy(_Ty* _Ptr) noexcept { // do nothing for plain pointers

$LN3:
  00000	48 89 4c 24 08	 mov	 QWORD PTR [rsp+8], rcx
  00005	55		 push	 rbp
  00006	57		 push	 rdi
  00007	48 81 ec e8 00
	00 00		 sub	 rsp, 232		; 000000e8H
  0000e	48 8d 6c 24 20	 lea	 rbp, QWORD PTR [rsp+32]
  00013	48 8b fc	 mov	 rdi, rsp
  00016	b9 3a 00 00 00	 mov	 ecx, 58			; 0000003aH
  0001b	b8 cc cc cc cc	 mov	 eax, -858993460		; ccccccccH
  00020	f3 ab		 rep stosd
  00022	48 8b 8c 24 08
	01 00 00	 mov	 rcx, QWORD PTR [rsp+264]
  0002a	48 8d 0d 00 00
	00 00		 lea	 rcx, OFFSET FLAT:__911385EF_xstddef
  00031	e8 00 00 00 00	 call	 __CheckForDebuggerJustMyCode

; 289  :     return _Ptr;

  00036	48 8b 85 e0 00
	00 00		 mov	 rax, QWORD PTR _Ptr$[rbp]

; 290  : }

  0003d	48 8d a5 c8 00
	00 00		 lea	 rsp, QWORD PTR [rbp+200]
  00044	5f		 pop	 rdi
  00045	5d		 pop	 rbp
  00046	c3		 ret	 0
??$_Unfancy@UEntry@LT@@@std@@YAPEAUEntry@LT@@PEAU12@@Z ENDP ; std::_Unfancy<LT::Entry>
_TEXT	ENDS
; Function compile flags: /Odtp /RTCsu /ZI
; File C:\Program Files (x86)\Microsoft Visual Studio\2019\Enterprise\VC\Tools\MSVC\14.27.29110\include\xmemory
;	COMDAT ??$_Destroy_in_place@PEAUEntry@LT@@@std@@YAXAEAPEAUEntry@LT@@@Z
_TEXT	SEGMENT
_Obj$ = 224
??$_Destroy_in_place@PEAUEntry@LT@@@std@@YAXAEAPEAUEntry@LT@@@Z PROC ; std::_Destroy_in_place<LT::Entry *>, COMDAT

; 267  : void _Destroy_in_place(_Ty& _Obj) noexcept {

$LN3:
  00000	48 89 4c 24 08	 mov	 QWORD PTR [rsp+8], rcx
  00005	55		 push	 rbp
  00006	57		 push	 rdi
  00007	48 81 ec e8 00
	00 00		 sub	 rsp, 232		; 000000e8H
  0000e	48 8d 6c 24 20	 lea	 rbp, QWORD PTR [rsp+32]
  00013	48 8b fc	 mov	 rdi, rsp
  00016	b9 3a 00 00 00	 mov	 ecx, 58			; 0000003aH
  0001b	b8 cc cc cc cc	 mov	 eax, -858993460		; ccccccccH
  00020	f3 ab		 rep stosd
  00022	48 8b 8c 24 08
	01 00 00	 mov	 rcx, QWORD PTR [rsp+264]
  0002a	48 8d 0d 00 00
	00 00		 lea	 rcx, OFFSET FLAT:__0C99713E_xmemory
  00031	e8 00 00 00 00	 call	 __CheckForDebuggerJustMyCode
  00036	90		 npad	 1

; 268  :     _Obj.~_Ty();
; 269  : }

  00037	48 8d a5 c8 00
	00 00		 lea	 rsp, QWORD PTR [rbp+200]
  0003e	5f		 pop	 rdi
  0003f	5d		 pop	 rbp
  00040	c3		 ret	 0
??$_Destroy_in_place@PEAUEntry@LT@@@std@@YAXAEAPEAUEntry@LT@@@Z ENDP ; std::_Destroy_in_place<LT::Entry *>
_TEXT	ENDS
; Function compile flags: /Odtp /RTCsu /ZI
; File C:\Program Files (x86)\Microsoft Visual Studio\2019\Enterprise\VC\Tools\MSVC\14.27.29110\include\xmemory
;	COMDAT ??$?0UEntry@LT@@@?$allocator@PEAUEntry@LT@@@std@@QEAA@AEBV?$allocator@UEntry@LT@@@1@@Z
_TEXT	SEGMENT
this$ = 224
__formal$ = 232
??$?0UEntry@LT@@@?$allocator@PEAUEntry@LT@@@std@@QEAA@AEBV?$allocator@UEntry@LT@@@1@@Z PROC ; std::allocator<LT::Entry *>::allocator<LT::Entry *><LT::Entry>, COMDAT

; 799  :     constexpr allocator(const allocator<_Other>&) noexcept {}

$LN3:
  00000	48 89 54 24 10	 mov	 QWORD PTR [rsp+16], rdx
  00005	48 89 4c 24 08	 mov	 QWORD PTR [rsp+8], rcx
  0000a	55		 push	 rbp
  0000b	57		 push	 rdi
  0000c	48 81 ec e8 00
	00 00		 sub	 rsp, 232		; 000000e8H
  00013	48 8d 6c 24 20	 lea	 rbp, QWORD PTR [rsp+32]
  00018	48 8b fc	 mov	 rdi, rsp
  0001b	b9 3a 00 00 00	 mov	 ecx, 58			; 0000003aH
  00020	b8 cc cc cc cc	 mov	 eax, -858993460		; ccccccccH
  00025	f3 ab		 rep stosd
  00027	48 8b 8c 24 08
	01 00 00	 mov	 rcx, QWORD PTR [rsp+264]
  0002f	48 8d 0d 00 00
	00 00		 lea	 rcx, OFFSET FLAT:__0C99713E_xmemory
  00036	e8 00 00 00 00	 call	 __CheckForDebuggerJustMyCode
  0003b	48 8b 85 e0 00
	00 00		 mov	 rax, QWORD PTR this$[rbp]
  00042	48 8d a5 c8 00
	00 00		 lea	 rsp, QWORD PTR [rbp+200]
  00049	5f		 pop	 rdi
  0004a	5d		 pop	 rbp
  0004b	c3		 ret	 0
??$?0UEntry@LT@@@?$allocator@PEAUEntry@LT@@@std@@QEAA@AEBV?$allocator@UEntry@LT@@@1@@Z ENDP ; std::allocator<LT::Entry *>::allocator<LT::Entry *><LT::Entry>
_TEXT	ENDS
; Function compile flags: /Odtp /RTCsu /ZI
; File C:\Program Files (x86)\Microsoft Visual Studio\2019\Enterprise\VC\Tools\MSVC\14.27.29110\include\list
;	COMDAT ??$_Freenode@V?$allocator@U?$_List_node@UEntry@LT@@PEAX@std@@@std@@@?$_List_node@UEntry@LT@@PEAX@std@@SAXAEAV?$allocator@U?$_List_node@UEntry@LT@@PEAX@std@@@1@PEAU01@@Z
_TEXT	SEGMENT
_Al$ = 224
_Ptr$ = 232
??$_Freenode@V?$allocator@U?$_List_node@UEntry@LT@@PEAX@std@@@std@@@?$_List_node@UEntry@LT@@PEAX@std@@SAXAEAV?$allocator@U?$_List_node@UEntry@LT@@PEAX@std@@@1@PEAU01@@Z PROC ; std::_List_node<LT::Entry,void *>::_Freenode<std::allocator<std::_List_node<LT::Entry,void *> > >, COMDAT

; 316  :     static void _Freenode(_Alnode& _Al, _Nodeptr _Ptr) noexcept { // destroy all members in _Ptr and deallocate with _Al

$LN3:
  00000	48 89 54 24 10	 mov	 QWORD PTR [rsp+16], rdx
  00005	48 89 4c 24 08	 mov	 QWORD PTR [rsp+8], rcx
  0000a	55		 push	 rbp
  0000b	57		 push	 rdi
  0000c	48 81 ec e8 00
	00 00		 sub	 rsp, 232		; 000000e8H
  00013	48 8d 6c 24 20	 lea	 rbp, QWORD PTR [rsp+32]
  00018	48 8b fc	 mov	 rdi, rsp
  0001b	b9 3a 00 00 00	 mov	 ecx, 58			; 0000003aH
  00020	b8 cc cc cc cc	 mov	 eax, -858993460		; ccccccccH
  00025	f3 ab		 rep stosd
  00027	48 8b 8c 24 08
	01 00 00	 mov	 rcx, QWORD PTR [rsp+264]
  0002f	48 8d 0d 00 00
	00 00		 lea	 rcx, OFFSET FLAT:__DAE328AB_list
  00036	e8 00 00 00 00	 call	 __CheckForDebuggerJustMyCode

; 317  :         allocator_traits<_Alnode>::destroy(_Al, _STD addressof(_Ptr->_Myval));

  0003b	48 8b 85 e8 00
	00 00		 mov	 rax, QWORD PTR _Ptr$[rbp]
  00042	48 83 c0 10	 add	 rax, 16
  00046	48 8b c8	 mov	 rcx, rax
  00049	e8 00 00 00 00	 call	 ??$addressof@UEntry@LT@@@std@@YAPEAUEntry@LT@@AEAU12@@Z ; std::addressof<LT::Entry>
  0004e	48 8b d0	 mov	 rdx, rax
  00051	48 8b 8d e0 00
	00 00		 mov	 rcx, QWORD PTR _Al$[rbp]
  00058	e8 00 00 00 00	 call	 ??$destroy@UEntry@LT@@@?$_Default_allocator_traits@V?$allocator@U?$_List_node@UEntry@LT@@PEAX@std@@@std@@@std@@SAXAEAV?$allocator@U?$_List_node@UEntry@LT@@PEAX@std@@@1@QEAUEntry@LT@@@Z ; std::_Default_allocator_traits<std::allocator<std::_List_node<LT::Entry,void *> > >::destroy<LT::Entry>

; 318  :         _Freenode0(_Al, _Ptr);

  0005d	48 8b 95 e8 00
	00 00		 mov	 rdx, QWORD PTR _Ptr$[rbp]
  00064	48 8b 8d e0 00
	00 00		 mov	 rcx, QWORD PTR _Al$[rbp]
  0006b	e8 00 00 00 00	 call	 ??$_Freenode0@V?$allocator@U?$_List_node@UEntry@LT@@PEAX@std@@@std@@@?$_List_node@UEntry@LT@@PEAX@std@@SAXAEAV?$allocator@U?$_List_node@UEntry@LT@@PEAX@std@@@1@PEAU01@@Z ; std::_List_node<LT::Entry,void *>::_Freenode0<std::allocator<std::_List_node<LT::Entry,void *> > >
  00070	90		 npad	 1

; 319  :     }

  00071	48 8d a5 c8 00
	00 00		 lea	 rsp, QWORD PTR [rbp+200]
  00078	5f		 pop	 rdi
  00079	5d		 pop	 rbp
  0007a	c3		 ret	 0
??$_Freenode@V?$allocator@U?$_List_node@UEntry@LT@@PEAX@std@@@std@@@?$_List_node@UEntry@LT@@PEAX@std@@SAXAEAV?$allocator@U?$_List_node@UEntry@LT@@PEAX@std@@@1@PEAU01@@Z ENDP ; std::_List_node<LT::Entry,void *>::_Freenode<std::allocator<std::_List_node<LT::Entry,void *> > >
_TEXT	ENDS
; Function compile flags: /Odtp /RTCsu /ZI
; File C:\Program Files (x86)\Microsoft Visual Studio\2019\Enterprise\VC\Tools\MSVC\14.27.29110\include\list
;	COMDAT ??$_Freenode0@V?$allocator@U?$_List_node@UEntry@LT@@PEAX@std@@@std@@@?$_List_node@UEntry@LT@@PEAX@std@@SAXAEAV?$allocator@U?$_List_node@UEntry@LT@@PEAX@std@@@1@PEAU01@@Z
_TEXT	SEGMENT
_Al$ = 224
_Ptr$ = 232
??$_Freenode0@V?$allocator@U?$_List_node@UEntry@LT@@PEAX@std@@@std@@@?$_List_node@UEntry@LT@@PEAX@std@@SAXAEAV?$allocator@U?$_List_node@UEntry@LT@@PEAX@std@@@1@PEAU01@@Z PROC ; std::_List_node<LT::Entry,void *>::_Freenode0<std::allocator<std::_List_node<LT::Entry,void *> > >, COMDAT

; 307  :     static void _Freenode0(_Alnode& _Al, _Nodeptr _Ptr) noexcept {

$LN3:
  00000	48 89 54 24 10	 mov	 QWORD PTR [rsp+16], rdx
  00005	48 89 4c 24 08	 mov	 QWORD PTR [rsp+8], rcx
  0000a	55		 push	 rbp
  0000b	57		 push	 rdi
  0000c	48 81 ec e8 00
	00 00		 sub	 rsp, 232		; 000000e8H
  00013	48 8d 6c 24 20	 lea	 rbp, QWORD PTR [rsp+32]
  00018	48 8b fc	 mov	 rdi, rsp
  0001b	b9 3a 00 00 00	 mov	 ecx, 58			; 0000003aH
  00020	b8 cc cc cc cc	 mov	 eax, -858993460		; ccccccccH
  00025	f3 ab		 rep stosd
  00027	48 8b 8c 24 08
	01 00 00	 mov	 rcx, QWORD PTR [rsp+264]
  0002f	48 8d 0d 00 00
	00 00		 lea	 rcx, OFFSET FLAT:__DAE328AB_list
  00036	e8 00 00 00 00	 call	 __CheckForDebuggerJustMyCode

; 308  :         // destroy pointer members in _Ptr and deallocate with _Al
; 309  :         static_assert(is_same_v<typename _Alnode::value_type, _List_node>, "Bad _Freenode0 call");
; 310  :         _Destroy_in_place(_Ptr->_Next);

  0003b	48 8b 85 e8 00
	00 00		 mov	 rax, QWORD PTR _Ptr$[rbp]
  00042	48 8b c8	 mov	 rcx, rax
  00045	e8 00 00 00 00	 call	 ??$_Destroy_in_place@PEAU?$_List_node@UEntry@LT@@PEAX@std@@@std@@YAXAEAPEAU?$_List_node@UEntry@LT@@PEAX@0@@Z ; std::_Destroy_in_place<std::_List_node<LT::Entry,void *> *>

; 311  :         _Destroy_in_place(_Ptr->_Prev);

  0004a	48 8b 85 e8 00
	00 00		 mov	 rax, QWORD PTR _Ptr$[rbp]
  00051	48 83 c0 08	 add	 rax, 8
  00055	48 8b c8	 mov	 rcx, rax
  00058	e8 00 00 00 00	 call	 ??$_Destroy_in_place@PEAU?$_List_node@UEntry@LT@@PEAX@std@@@std@@YAXAEAPEAU?$_List_node@UEntry@LT@@PEAX@0@@Z ; std::_Destroy_in_place<std::_List_node<LT::Entry,void *> *>

; 312  :         allocator_traits<_Alnode>::deallocate(_Al, _Ptr, 1);

  0005d	41 b8 01 00 00
	00		 mov	 r8d, 1
  00063	48 8b 95 e8 00
	00 00		 mov	 rdx, QWORD PTR _Ptr$[rbp]
  0006a	48 8b 8d e0 00
	00 00		 mov	 rcx, QWORD PTR _Al$[rbp]
  00071	e8 00 00 00 00	 call	 ?deallocate@?$_Default_allocator_traits@V?$allocator@U?$_List_node@UEntry@LT@@PEAX@std@@@std@@@std@@SAXAEAV?$allocator@U?$_List_node@UEntry@LT@@PEAX@std@@@2@QEAU?$_List_node@UEntry@LT@@PEAX@2@_K@Z ; std::_Default_allocator_traits<std::allocator<std::_List_node<LT::Entry,void *> > >::deallocate
  00076	90		 npad	 1

; 313  :     }

  00077	48 8d a5 c8 00
	00 00		 lea	 rsp, QWORD PTR [rbp+200]
  0007e	5f		 pop	 rdi
  0007f	5d		 pop	 rbp
  00080	c3		 ret	 0
??$_Freenode0@V?$allocator@U?$_List_node@UEntry@LT@@PEAX@std@@@std@@@?$_List_node@UEntry@LT@@PEAX@std@@SAXAEAV?$allocator@U?$_List_node@UEntry@LT@@PEAX@std@@@1@PEAU01@@Z ENDP ; std::_List_node<LT::Entry,void *>::_Freenode0<std::allocator<std::_List_node<LT::Entry,void *> > >
_TEXT	ENDS
; Function compile flags: /Odtp /RTCsu /ZI
; File C:\Program Files (x86)\Microsoft Visual Studio\2019\Enterprise\VC\Tools\MSVC\14.27.29110\include\list
;	COMDAT ??$_Free_non_head@V?$allocator@U?$_List_node@UEntry@LT@@PEAX@std@@@std@@@?$_List_node@UEntry@LT@@PEAX@std@@SAXAEAV?$allocator@U?$_List_node@UEntry@LT@@PEAX@std@@@1@PEAU01@@Z
_TEXT	SEGMENT
_Pnode$ = 8
_Pnext$1 = 40
_Al$ = 288
_Head$ = 296
??$_Free_non_head@V?$allocator@U?$_List_node@UEntry@LT@@PEAX@std@@@std@@@?$_List_node@UEntry@LT@@PEAX@std@@SAXAEAV?$allocator@U?$_List_node@UEntry@LT@@PEAX@std@@@1@PEAU01@@Z PROC ; std::_List_node<LT::Entry,void *>::_Free_non_head<std::allocator<std::_List_node<LT::Entry,void *> > >, COMDAT

; 323  :         _Alnode& _Al, _Nodeptr _Head) noexcept { // free a list starting at _First and terminated at nullptr

$LN6:
  00000	48 89 54 24 10	 mov	 QWORD PTR [rsp+16], rdx
  00005	48 89 4c 24 08	 mov	 QWORD PTR [rsp+8], rcx
  0000a	55		 push	 rbp
  0000b	57		 push	 rdi
  0000c	48 81 ec 28 01
	00 00		 sub	 rsp, 296		; 00000128H
  00013	48 8d 6c 24 20	 lea	 rbp, QWORD PTR [rsp+32]
  00018	48 8b fc	 mov	 rdi, rsp
  0001b	b9 4a 00 00 00	 mov	 ecx, 74			; 0000004aH
  00020	b8 cc cc cc cc	 mov	 eax, -858993460		; ccccccccH
  00025	f3 ab		 rep stosd
  00027	48 8b 8c 24 48
	01 00 00	 mov	 rcx, QWORD PTR [rsp+328]
  0002f	48 8d 0d 00 00
	00 00		 lea	 rcx, OFFSET FLAT:__DAE328AB_list
  00036	e8 00 00 00 00	 call	 __CheckForDebuggerJustMyCode

; 324  :         _Head->_Prev->_Next = nullptr;

  0003b	48 8b 85 28 01
	00 00		 mov	 rax, QWORD PTR _Head$[rbp]
  00042	48 8b 40 08	 mov	 rax, QWORD PTR [rax+8]
  00046	48 c7 00 00 00
	00 00		 mov	 QWORD PTR [rax], 0

; 325  : 
; 326  :         auto _Pnode = _Head->_Next;

  0004d	48 8b 85 28 01
	00 00		 mov	 rax, QWORD PTR _Head$[rbp]
  00054	48 8b 00	 mov	 rax, QWORD PTR [rax]
  00057	48 89 45 08	 mov	 QWORD PTR _Pnode$[rbp], rax

; 327  :         for (_Nodeptr _Pnext; _Pnode; _Pnode = _Pnext) {

  0005b	eb 08		 jmp	 SHORT $LN4@Free_non_h
$LN2@Free_non_h:
  0005d	48 8b 45 28	 mov	 rax, QWORD PTR _Pnext$1[rbp]
  00061	48 89 45 08	 mov	 QWORD PTR _Pnode$[rbp], rax
$LN4@Free_non_h:
  00065	48 83 7d 08 00	 cmp	 QWORD PTR _Pnode$[rbp], 0
  0006a	74 1d		 je	 SHORT $LN3@Free_non_h

; 328  :             _Pnext = _Pnode->_Next;

  0006c	48 8b 45 08	 mov	 rax, QWORD PTR _Pnode$[rbp]
  00070	48 8b 00	 mov	 rax, QWORD PTR [rax]
  00073	48 89 45 28	 mov	 QWORD PTR _Pnext$1[rbp], rax

; 329  :             _Freenode(_Al, _Pnode);

  00077	48 8b 55 08	 mov	 rdx, QWORD PTR _Pnode$[rbp]
  0007b	48 8b 8d 20 01
	00 00		 mov	 rcx, QWORD PTR _Al$[rbp]
  00082	e8 00 00 00 00	 call	 ??$_Freenode@V?$allocator@U?$_List_node@UEntry@LT@@PEAX@std@@@std@@@?$_List_node@UEntry@LT@@PEAX@std@@SAXAEAV?$allocator@U?$_List_node@UEntry@LT@@PEAX@std@@@1@PEAU01@@Z ; std::_List_node<LT::Entry,void *>::_Freenode<std::allocator<std::_List_node<LT::Entry,void *> > >

; 330  :         }

  00087	eb d4		 jmp	 SHORT $LN2@Free_non_h
$LN3@Free_non_h:

; 331  :     }

  00089	48 8d a5 08 01
	00 00		 lea	 rsp, QWORD PTR [rbp+264]
  00090	5f		 pop	 rdi
  00091	5d		 pop	 rbp
  00092	c3		 ret	 0
??$_Free_non_head@V?$allocator@U?$_List_node@UEntry@LT@@PEAX@std@@@std@@@?$_List_node@UEntry@LT@@PEAX@std@@SAXAEAV?$allocator@U?$_List_node@UEntry@LT@@PEAX@std@@@1@PEAU01@@Z ENDP ; std::_List_node<LT::Entry,void *>::_Free_non_head<std::allocator<std::_List_node<LT::Entry,void *> > >
_TEXT	ENDS
; Function compile flags: /Odtp /RTCsu /ZI
; File C:\Program Files (x86)\Microsoft Visual Studio\2019\Enterprise\VC\Tools\MSVC\14.27.29110\include\xmemory
;	COMDAT ??$_Construct_in_place@PEAU?$_List_node@UEntry@LT@@PEAX@std@@AEAPEAU12@@std@@YAXAEAPEAU?$_List_node@UEntry@LT@@PEAX@0@0@Z
_TEXT	SEGMENT
$T1 = 200
_Obj$ = 256
<_Args_0>$ = 264
??$_Construct_in_place@PEAU?$_List_node@UEntry@LT@@PEAX@std@@AEAPEAU12@@std@@YAXAEAPEAU?$_List_node@UEntry@LT@@PEAX@0@0@Z PROC ; std::_Construct_in_place<std::_List_node<LT::Entry,void *> *,std::_List_node<LT::Entry,void *> * &>, COMDAT

; 228  : void _Construct_in_place(_Ty& _Obj, _Types&&... _Args) noexcept(is_nothrow_constructible_v<_Ty, _Types...>) {

$LN3:
  00000	48 89 54 24 10	 mov	 QWORD PTR [rsp+16], rdx
  00005	48 89 4c 24 08	 mov	 QWORD PTR [rsp+8], rcx
  0000a	55		 push	 rbp
  0000b	57		 push	 rdi
  0000c	48 81 ec 08 01
	00 00		 sub	 rsp, 264		; 00000108H
  00013	48 8d 6c 24 20	 lea	 rbp, QWORD PTR [rsp+32]
  00018	48 8b fc	 mov	 rdi, rsp
  0001b	b9 42 00 00 00	 mov	 ecx, 66			; 00000042H
  00020	b8 cc cc cc cc	 mov	 eax, -858993460		; ccccccccH
  00025	f3 ab		 rep stosd
  00027	48 8b 8c 24 28
	01 00 00	 mov	 rcx, QWORD PTR [rsp+296]
  0002f	48 8d 0d 00 00
	00 00		 lea	 rcx, OFFSET FLAT:__0C99713E_xmemory
  00036	e8 00 00 00 00	 call	 __CheckForDebuggerJustMyCode
  0003b	48 8b 8d 00 01
	00 00		 mov	 rcx, QWORD PTR _Obj$[rbp]
  00042	e8 00 00 00 00	 call	 ??$addressof@PEAU?$_List_node@UEntry@LT@@PEAX@std@@@std@@YAPEAPEAU?$_List_node@UEntry@LT@@PEAX@0@AEAPEAU10@@Z ; std::addressof<std::_List_node<LT::Entry,void *> *>
  00047	48 8b d0	 mov	 rdx, rax
  0004a	b9 08 00 00 00	 mov	 ecx, 8
  0004f	e8 00 00 00 00	 call	 ??2@YAPEAX_KPEAX@Z	; operator new
  00054	48 89 85 c8 00
	00 00		 mov	 QWORD PTR $T1[rbp], rax
  0005b	48 8b 8d 08 01
	00 00		 mov	 rcx, QWORD PTR <_Args_0>$[rbp]
  00062	e8 00 00 00 00	 call	 ??$forward@AEAPEAU?$_List_node@UEntry@LT@@PEAX@std@@@std@@YAAEAPEAU?$_List_node@UEntry@LT@@PEAX@0@AEAPEAU10@@Z ; std::forward<std::_List_node<LT::Entry,void *> * &>
  00067	48 8b 8d c8 00
	00 00		 mov	 rcx, QWORD PTR $T1[rbp]
  0006e	48 8b 00	 mov	 rax, QWORD PTR [rax]
  00071	48 89 01	 mov	 QWORD PTR [rcx], rax

; 229  :     ::new (const_cast<void*>(static_cast<const volatile void*>(_STD addressof(_Obj))))
; 230  :         _Ty(_STD forward<_Types>(_Args)...);
; 231  : }

  00074	48 8d a5 e8 00
	00 00		 lea	 rsp, QWORD PTR [rbp+232]
  0007b	5f		 pop	 rdi
  0007c	5d		 pop	 rbp
  0007d	c3		 ret	 0
??$_Construct_in_place@PEAU?$_List_node@UEntry@LT@@PEAX@std@@AEAPEAU12@@std@@YAXAEAPEAU?$_List_node@UEntry@LT@@PEAX@0@0@Z ENDP ; std::_Construct_in_place<std::_List_node<LT::Entry,void *> *,std::_List_node<LT::Entry,void *> * &>
_TEXT	ENDS
; Function compile flags: /Odtp /RTCsu /ZI
; File C:\Program Files (x86)\Microsoft Visual Studio\2019\Enterprise\VC\Tools\MSVC\14.27.29110\include\xstddef
;	COMDAT ??$_Unfancy@U_Container_proxy@std@@@std@@YAPEAU_Container_proxy@0@PEAU10@@Z
_TEXT	SEGMENT
_Ptr$ = 224
??$_Unfancy@U_Container_proxy@std@@@std@@YAPEAU_Container_proxy@0@PEAU10@@Z PROC ; std::_Unfancy<std::_Container_proxy>, COMDAT

; 288  : _NODISCARD constexpr _Ty* _Unfancy(_Ty* _Ptr) noexcept { // do nothing for plain pointers

$LN3:
  00000	48 89 4c 24 08	 mov	 QWORD PTR [rsp+8], rcx
  00005	55		 push	 rbp
  00006	57		 push	 rdi
  00007	48 81 ec e8 00
	00 00		 sub	 rsp, 232		; 000000e8H
  0000e	48 8d 6c 24 20	 lea	 rbp, QWORD PTR [rsp+32]
  00013	48 8b fc	 mov	 rdi, rsp
  00016	b9 3a 00 00 00	 mov	 ecx, 58			; 0000003aH
  0001b	b8 cc cc cc cc	 mov	 eax, -858993460		; ccccccccH
  00020	f3 ab		 rep stosd
  00022	48 8b 8c 24 08
	01 00 00	 mov	 rcx, QWORD PTR [rsp+264]
  0002a	48 8d 0d 00 00
	00 00		 lea	 rcx, OFFSET FLAT:__911385EF_xstddef
  00031	e8 00 00 00 00	 call	 __CheckForDebuggerJustMyCode

; 289  :     return _Ptr;

  00036	48 8b 85 e0 00
	00 00		 mov	 rax, QWORD PTR _Ptr$[rbp]

; 290  : }

  0003d	48 8d a5 c8 00
	00 00		 lea	 rsp, QWORD PTR [rbp+200]
  00044	5f		 pop	 rdi
  00045	5d		 pop	 rbp
  00046	c3		 ret	 0
??$_Unfancy@U_Container_proxy@std@@@std@@YAPEAU_Container_proxy@0@PEAU10@@Z ENDP ; std::_Unfancy<std::_Container_proxy>
_TEXT	ENDS
; Function compile flags: /Odtp /RTCsu /ZI
; File C:\Program Files (x86)\Microsoft Visual Studio\2019\Enterprise\VC\Tools\MSVC\14.27.29110\include\xmemory
;	COMDAT ??1?$_Container_proxy_ptr12@V?$allocator@U_Container_proxy@std@@@std@@@std@@QEAA@XZ
_TEXT	SEGMENT
this$ = 224
??1?$_Container_proxy_ptr12@V?$allocator@U_Container_proxy@std@@@std@@@std@@QEAA@XZ PROC ; std::_Container_proxy_ptr12<std::allocator<std::_Container_proxy> >::~_Container_proxy_ptr12<std::allocator<std::_Container_proxy> >, COMDAT

; 1300 :     ~_Container_proxy_ptr12() {

$LN4:
  00000	48 89 4c 24 08	 mov	 QWORD PTR [rsp+8], rcx
  00005	55		 push	 rbp
  00006	57		 push	 rdi
  00007	48 81 ec e8 00
	00 00		 sub	 rsp, 232		; 000000e8H
  0000e	48 8d 6c 24 20	 lea	 rbp, QWORD PTR [rsp+32]
  00013	48 8b fc	 mov	 rdi, rsp
  00016	b9 3a 00 00 00	 mov	 ecx, 58			; 0000003aH
  0001b	b8 cc cc cc cc	 mov	 eax, -858993460		; ccccccccH
  00020	f3 ab		 rep stosd
  00022	48 8b 8c 24 08
	01 00 00	 mov	 rcx, QWORD PTR [rsp+264]
  0002a	48 8d 0d 00 00
	00 00		 lea	 rcx, OFFSET FLAT:__0C99713E_xmemory
  00031	e8 00 00 00 00	 call	 __CheckForDebuggerJustMyCode

; 1301 :         if (_Ptr) {

  00036	48 8b 85 e0 00
	00 00		 mov	 rax, QWORD PTR this$[rbp]
  0003d	48 83 38 00	 cmp	 QWORD PTR [rax], 0
  00041	74 1b		 je	 SHORT $LN2@Container_

; 1302 :             _Delete_plain_internal(_Al, _Ptr);

  00043	48 8b 85 e0 00
	00 00		 mov	 rax, QWORD PTR this$[rbp]
  0004a	48 8b 10	 mov	 rdx, QWORD PTR [rax]
  0004d	48 8b 85 e0 00
	00 00		 mov	 rax, QWORD PTR this$[rbp]
  00054	48 8b 48 08	 mov	 rcx, QWORD PTR [rax+8]
  00058	e8 00 00 00 00	 call	 ??$_Delete_plain_internal@V?$allocator@U_Container_proxy@std@@@std@@@std@@YAXAEAV?$allocator@U_Container_proxy@std@@@0@QEAU_Container_proxy@0@@Z ; std::_Delete_plain_internal<std::allocator<std::_Container_proxy> >
  0005d	90		 npad	 1
$LN2@Container_:

; 1303 :         }
; 1304 :     }

  0005e	48 8d a5 c8 00
	00 00		 lea	 rsp, QWORD PTR [rbp+200]
  00065	5f		 pop	 rdi
  00066	5d		 pop	 rbp
  00067	c3		 ret	 0
??1?$_Container_proxy_ptr12@V?$allocator@U_Container_proxy@std@@@std@@@std@@QEAA@XZ ENDP ; std::_Container_proxy_ptr12<std::allocator<std::_Container_proxy> >::~_Container_proxy_ptr12<std::allocator<std::_Container_proxy> >
_TEXT	ENDS
; Function compile flags: /Odtp /RTCsu /ZI
; File C:\Program Files (x86)\Microsoft Visual Studio\2019\Enterprise\VC\Tools\MSVC\14.27.29110\include\xmemory
;	COMDAT ??0?$_Container_proxy_ptr12@V?$allocator@U_Container_proxy@std@@@std@@@std@@QEAA@AEAV?$allocator@U_Container_proxy@std@@@1@AEAU_Container_base12@1@@Z
_TEXT	SEGMENT
$T1 = 200
this$ = 256
_Al_$ = 264
_Mycont$ = 272
??0?$_Container_proxy_ptr12@V?$allocator@U_Container_proxy@std@@@std@@@std@@QEAA@AEAV?$allocator@U_Container_proxy@std@@@1@AEAU_Container_base12@1@@Z PROC ; std::_Container_proxy_ptr12<std::allocator<std::_Container_proxy> >::_Container_proxy_ptr12<std::allocator<std::_Container_proxy> >, COMDAT

; 1286 :     _Container_proxy_ptr12(_Alloc& _Al_, _Container_base12& _Mycont)

$LN3:
  00000	4c 89 44 24 18	 mov	 QWORD PTR [rsp+24], r8
  00005	48 89 54 24 10	 mov	 QWORD PTR [rsp+16], rdx
  0000a	48 89 4c 24 08	 mov	 QWORD PTR [rsp+8], rcx
  0000f	55		 push	 rbp
  00010	57		 push	 rdi
  00011	48 81 ec 08 01
	00 00		 sub	 rsp, 264		; 00000108H
  00018	48 8d 6c 24 20	 lea	 rbp, QWORD PTR [rsp+32]
  0001d	48 8b fc	 mov	 rdi, rsp
  00020	b9 42 00 00 00	 mov	 ecx, 66			; 00000042H
  00025	b8 cc cc cc cc	 mov	 eax, -858993460		; ccccccccH
  0002a	f3 ab		 rep stosd
  0002c	48 8b 8c 24 28
	01 00 00	 mov	 rcx, QWORD PTR [rsp+296]
  00034	48 8d 0d 00 00
	00 00		 lea	 rcx, OFFSET FLAT:__0C99713E_xmemory
  0003b	e8 00 00 00 00	 call	 __CheckForDebuggerJustMyCode

; 1287 :         : _Al(_Al_) { // create a new _Container_proxy pointing at _Mycont

  00040	48 8b 85 00 01
	00 00		 mov	 rax, QWORD PTR this$[rbp]
  00047	48 8b 8d 08 01
	00 00		 mov	 rcx, QWORD PTR _Al_$[rbp]
  0004e	48 89 48 08	 mov	 QWORD PTR [rax+8], rcx

; 1288 :         _Ptr = _Unfancy(_Al_.allocate(1));

  00052	ba 01 00 00 00	 mov	 edx, 1
  00057	48 8b 8d 08 01
	00 00		 mov	 rcx, QWORD PTR _Al_$[rbp]
  0005e	e8 00 00 00 00	 call	 ?allocate@?$allocator@U_Container_proxy@std@@@std@@QEAAPEAU_Container_proxy@2@_K@Z ; std::allocator<std::_Container_proxy>::allocate
  00063	48 8b c8	 mov	 rcx, rax
  00066	e8 00 00 00 00	 call	 ??$_Unfancy@U_Container_proxy@std@@@std@@YAPEAU_Container_proxy@0@PEAU10@@Z ; std::_Unfancy<std::_Container_proxy>
  0006b	48 8b 8d 00 01
	00 00		 mov	 rcx, QWORD PTR this$[rbp]
  00072	48 89 01	 mov	 QWORD PTR [rcx], rax

; 1289 :         _Construct_in_place(*_Ptr, _STD addressof(_Mycont));

  00075	48 8b 8d 10 01
	00 00		 mov	 rcx, QWORD PTR _Mycont$[rbp]
  0007c	e8 00 00 00 00	 call	 ??$addressof@U_Container_base12@std@@@std@@YAPEAU_Container_base12@0@AEAU10@@Z ; std::addressof<std::_Container_base12>
  00081	48 89 85 c8 00
	00 00		 mov	 QWORD PTR $T1[rbp], rax
  00088	48 8d 95 c8 00
	00 00		 lea	 rdx, QWORD PTR $T1[rbp]
  0008f	48 8b 85 00 01
	00 00		 mov	 rax, QWORD PTR this$[rbp]
  00096	48 8b 08	 mov	 rcx, QWORD PTR [rax]
  00099	e8 00 00 00 00	 call	 ??$_Construct_in_place@U_Container_proxy@std@@PEAU_Container_base12@2@@std@@YAXAEAU_Container_proxy@0@$$QEAPEAU_Container_base12@0@@Z ; std::_Construct_in_place<std::_Container_proxy,std::_Container_base12 *>

; 1290 :         _Mycont._Myproxy = _Ptr;

  0009e	48 8b 85 10 01
	00 00		 mov	 rax, QWORD PTR _Mycont$[rbp]
  000a5	48 8b 8d 00 01
	00 00		 mov	 rcx, QWORD PTR this$[rbp]
  000ac	48 8b 09	 mov	 rcx, QWORD PTR [rcx]
  000af	48 89 08	 mov	 QWORD PTR [rax], rcx

; 1291 :     }

  000b2	48 8b 85 00 01
	00 00		 mov	 rax, QWORD PTR this$[rbp]
  000b9	48 8d a5 e8 00
	00 00		 lea	 rsp, QWORD PTR [rbp+232]
  000c0	5f		 pop	 rdi
  000c1	5d		 pop	 rbp
  000c2	c3		 ret	 0
??0?$_Container_proxy_ptr12@V?$allocator@U_Container_proxy@std@@@std@@@std@@QEAA@AEAV?$allocator@U_Container_proxy@std@@@1@AEAU_Container_base12@1@@Z ENDP ; std::_Container_proxy_ptr12<std::allocator<std::_Container_proxy> >::_Container_proxy_ptr12<std::allocator<std::_Container_proxy> >
_TEXT	ENDS
; Function compile flags: /Odtp /RTCsu /ZI
; File C:\Program Files (x86)\Microsoft Visual Studio\2019\Enterprise\VC\Tools\MSVC\14.27.29110\include\utility
;	COMDAT ??$min@_K@std@@YAAEB_KAEB_K0@Z
_TEXT	SEGMENT
$T1 = 200
tv65 = 216
_Left$ = 256
_Right$ = 264
??$min@_K@std@@YAAEB_KAEB_K0@Z PROC			; std::min<unsigned __int64>, COMDAT

; 67   :     const _Ty& _Left, const _Ty& _Right) noexcept(noexcept(_Right < _Left)) /* strengthened */ {

$LN5:
  00000	48 89 54 24 10	 mov	 QWORD PTR [rsp+16], rdx
  00005	48 89 4c 24 08	 mov	 QWORD PTR [rsp+8], rcx
  0000a	55		 push	 rbp
  0000b	57		 push	 rdi
  0000c	48 81 ec 08 01
	00 00		 sub	 rsp, 264		; 00000108H
  00013	48 8d 6c 24 20	 lea	 rbp, QWORD PTR [rsp+32]
  00018	48 8b fc	 mov	 rdi, rsp
  0001b	b9 42 00 00 00	 mov	 ecx, 66			; 00000042H
  00020	b8 cc cc cc cc	 mov	 eax, -858993460		; ccccccccH
  00025	f3 ab		 rep stosd
  00027	48 8b 8c 24 28
	01 00 00	 mov	 rcx, QWORD PTR [rsp+296]
  0002f	48 8d 0d 00 00
	00 00		 lea	 rcx, OFFSET FLAT:__660C12FD_utility
  00036	e8 00 00 00 00	 call	 __CheckForDebuggerJustMyCode

; 68   :     // return smaller of _Left and _Right
; 69   :     return _Right < _Left ? _Right : _Left;

  0003b	48 8b 85 08 01
	00 00		 mov	 rax, QWORD PTR _Right$[rbp]
  00042	48 8b 8d 00 01
	00 00		 mov	 rcx, QWORD PTR _Left$[rbp]
  00049	48 8b 09	 mov	 rcx, QWORD PTR [rcx]
  0004c	48 39 08	 cmp	 QWORD PTR [rax], rcx
  0004f	73 10		 jae	 SHORT $LN3@min
  00051	48 8b 85 08 01
	00 00		 mov	 rax, QWORD PTR _Right$[rbp]
  00058	48 89 85 d8 00
	00 00		 mov	 QWORD PTR tv65[rbp], rax
  0005f	eb 0e		 jmp	 SHORT $LN4@min
$LN3@min:
  00061	48 8b 85 00 01
	00 00		 mov	 rax, QWORD PTR _Left$[rbp]
  00068	48 89 85 d8 00
	00 00		 mov	 QWORD PTR tv65[rbp], rax
$LN4@min:
  0006f	48 8b 85 d8 00
	00 00		 mov	 rax, QWORD PTR tv65[rbp]
  00076	48 89 85 c8 00
	00 00		 mov	 QWORD PTR $T1[rbp], rax
  0007d	48 8b 85 c8 00
	00 00		 mov	 rax, QWORD PTR $T1[rbp]

; 70   : }

  00084	48 8d a5 e8 00
	00 00		 lea	 rsp, QWORD PTR [rbp+232]
  0008b	5f		 pop	 rdi
  0008c	5d		 pop	 rbp
  0008d	c3		 ret	 0
??$min@_K@std@@YAAEB_KAEB_K0@Z ENDP			; std::min<unsigned __int64>
_TEXT	ENDS
; Function compile flags: /Odtp /RTCsu /ZI
; File C:\Program Files (x86)\Microsoft Visual Studio\2019\Enterprise\VC\Tools\MSVC\14.27.29110\include\xmemory
;	COMDAT ??$_Alloc_proxy@V?$allocator@U_Container_proxy@std@@@std@@@_Container_base12@std@@QEAAX$$QEAV?$allocator@U_Container_proxy@std@@@1@@Z
_TEXT	SEGMENT
_New_proxy$ = 8
$T1 = 232
this$ = 288
_Al$ = 296
??$_Alloc_proxy@V?$allocator@U_Container_proxy@std@@@std@@@_Container_base12@std@@QEAAX$$QEAV?$allocator@U_Container_proxy@std@@@1@@Z PROC ; std::_Container_base12::_Alloc_proxy<std::allocator<std::_Container_proxy> >, COMDAT

; 1101 :     void _Alloc_proxy(_Alloc&& _Al) {

$LN3:
  00000	48 89 54 24 10	 mov	 QWORD PTR [rsp+16], rdx
  00005	48 89 4c 24 08	 mov	 QWORD PTR [rsp+8], rcx
  0000a	55		 push	 rbp
  0000b	57		 push	 rdi
  0000c	48 81 ec 28 01
	00 00		 sub	 rsp, 296		; 00000128H
  00013	48 8d 6c 24 20	 lea	 rbp, QWORD PTR [rsp+32]
  00018	48 8b fc	 mov	 rdi, rsp
  0001b	b9 4a 00 00 00	 mov	 ecx, 74			; 0000004aH
  00020	b8 cc cc cc cc	 mov	 eax, -858993460		; ccccccccH
  00025	f3 ab		 rep stosd
  00027	48 8b 8c 24 48
	01 00 00	 mov	 rcx, QWORD PTR [rsp+328]
  0002f	48 8d 0d 00 00
	00 00		 lea	 rcx, OFFSET FLAT:__0C99713E_xmemory
  00036	e8 00 00 00 00	 call	 __CheckForDebuggerJustMyCode

; 1102 :         _Container_proxy* const _New_proxy = _Unfancy(_Al.allocate(1));

  0003b	ba 01 00 00 00	 mov	 edx, 1
  00040	48 8b 8d 28 01
	00 00		 mov	 rcx, QWORD PTR _Al$[rbp]
  00047	e8 00 00 00 00	 call	 ?allocate@?$allocator@U_Container_proxy@std@@@std@@QEAAPEAU_Container_proxy@2@_K@Z ; std::allocator<std::_Container_proxy>::allocate
  0004c	48 8b c8	 mov	 rcx, rax
  0004f	e8 00 00 00 00	 call	 ??$_Unfancy@U_Container_proxy@std@@@std@@YAPEAU_Container_proxy@0@PEAU10@@Z ; std::_Unfancy<std::_Container_proxy>
  00054	48 89 45 08	 mov	 QWORD PTR _New_proxy$[rbp], rax

; 1103 :         _Construct_in_place(*_New_proxy, this);

  00058	48 8b 85 20 01
	00 00		 mov	 rax, QWORD PTR this$[rbp]
  0005f	48 89 85 e8 00
	00 00		 mov	 QWORD PTR $T1[rbp], rax
  00066	48 8d 95 e8 00
	00 00		 lea	 rdx, QWORD PTR $T1[rbp]
  0006d	48 8b 4d 08	 mov	 rcx, QWORD PTR _New_proxy$[rbp]
  00071	e8 00 00 00 00	 call	 ??$_Construct_in_place@U_Container_proxy@std@@PEAU_Container_base12@2@@std@@YAXAEAU_Container_proxy@0@$$QEAPEAU_Container_base12@0@@Z ; std::_Construct_in_place<std::_Container_proxy,std::_Container_base12 *>

; 1104 :         _Myproxy            = _New_proxy;

  00076	48 8b 85 20 01
	00 00		 mov	 rax, QWORD PTR this$[rbp]
  0007d	48 8b 4d 08	 mov	 rcx, QWORD PTR _New_proxy$[rbp]
  00081	48 89 08	 mov	 QWORD PTR [rax], rcx

; 1105 :         _New_proxy->_Mycont = this;

  00084	48 8b 45 08	 mov	 rax, QWORD PTR _New_proxy$[rbp]
  00088	48 8b 8d 20 01
	00 00		 mov	 rcx, QWORD PTR this$[rbp]
  0008f	48 89 08	 mov	 QWORD PTR [rax], rcx

; 1106 :     }

  00092	48 8d a5 08 01
	00 00		 lea	 rsp, QWORD PTR [rbp+264]
  00099	5f		 pop	 rdi
  0009a	5d		 pop	 rbp
  0009b	c3		 ret	 0
??$_Alloc_proxy@V?$allocator@U_Container_proxy@std@@@std@@@_Container_base12@std@@QEAAX$$QEAV?$allocator@U_Container_proxy@std@@@1@@Z ENDP ; std::_Container_base12::_Alloc_proxy<std::allocator<std::_Container_proxy> >
_TEXT	ENDS
; Function compile flags: /Odtp /RTCsu /ZI
; File C:\Program Files (x86)\Microsoft Visual Studio\2019\Enterprise\VC\Tools\MSVC\14.27.29110\include\xmemory
;	COMDAT ??$?0$$V@?$_Compressed_pair@V?$allocator@UEntry@LT@@@std@@V?$_Deque_val@U?$_Deque_simple_types@UEntry@LT@@@std@@@2@$00@std@@QEAA@U_Zero_then_variadic_args_t@1@@Z
_TEXT	SEGMENT
this$ = 224
__formal$ = 232
??$?0$$V@?$_Compressed_pair@V?$allocator@UEntry@LT@@@std@@V?$_Deque_val@U?$_Deque_simple_types@UEntry@LT@@@std@@@2@$00@std@@QEAA@U_Zero_then_variadic_args_t@1@@Z PROC ; std::_Compressed_pair<std::allocator<LT::Entry>,std::_Deque_val<std::_Deque_simple_types<LT::Entry> >,1>::_Compressed_pair<std::allocator<LT::Entry>,std::_Deque_val<std::_Deque_simple_types<LT::Entry> >,1><>, COMDAT

; 1336 :         : _Ty1(), _Myval2(_STD forward<_Other2>(_Val2)...) {}

$LN3:
  00000	88 54 24 10	 mov	 BYTE PTR [rsp+16], dl
  00004	48 89 4c 24 08	 mov	 QWORD PTR [rsp+8], rcx
  00009	55		 push	 rbp
  0000a	57		 push	 rdi
  0000b	48 81 ec e8 00
	00 00		 sub	 rsp, 232		; 000000e8H
  00012	48 8d 6c 24 20	 lea	 rbp, QWORD PTR [rsp+32]
  00017	48 8b fc	 mov	 rdi, rsp
  0001a	b9 3a 00 00 00	 mov	 ecx, 58			; 0000003aH
  0001f	b8 cc cc cc cc	 mov	 eax, -858993460		; ccccccccH
  00024	f3 ab		 rep stosd
  00026	48 8b 8c 24 08
	01 00 00	 mov	 rcx, QWORD PTR [rsp+264]
  0002e	48 8d 0d 00 00
	00 00		 lea	 rcx, OFFSET FLAT:__0C99713E_xmemory
  00035	e8 00 00 00 00	 call	 __CheckForDebuggerJustMyCode
  0003a	48 8b 8d e0 00
	00 00		 mov	 rcx, QWORD PTR this$[rbp]
  00041	e8 00 00 00 00	 call	 ??0?$allocator@UEntry@LT@@@std@@QEAA@XZ ; std::allocator<LT::Entry>::allocator<LT::Entry>
  00046	48 8b 85 e0 00
	00 00		 mov	 rax, QWORD PTR this$[rbp]
  0004d	48 8b c8	 mov	 rcx, rax
  00050	e8 00 00 00 00	 call	 ??0?$_Deque_val@U?$_Deque_simple_types@UEntry@LT@@@std@@@std@@QEAA@XZ ; std::_Deque_val<std::_Deque_simple_types<LT::Entry> >::_Deque_val<std::_Deque_simple_types<LT::Entry> >
  00055	48 8b 85 e0 00
	00 00		 mov	 rax, QWORD PTR this$[rbp]
  0005c	48 8d a5 c8 00
	00 00		 lea	 rsp, QWORD PTR [rbp+200]
  00063	5f		 pop	 rdi
  00064	5d		 pop	 rbp
  00065	c3		 ret	 0
??$?0$$V@?$_Compressed_pair@V?$allocator@UEntry@LT@@@std@@V?$_Deque_val@U?$_Deque_simple_types@UEntry@LT@@@std@@@2@$00@std@@QEAA@U_Zero_then_variadic_args_t@1@@Z ENDP ; std::_Compressed_pair<std::allocator<LT::Entry>,std::_Deque_val<std::_Deque_simple_types<LT::Entry> >,1>::_Compressed_pair<std::allocator<LT::Entry>,std::_Deque_val<std::_Deque_simple_types<LT::Entry> >,1><>
_TEXT	ENDS
; Function compile flags: /Odtp /RTCsu /ZI
; File C:\Program Files (x86)\Microsoft Visual Studio\2019\Enterprise\VC\Tools\MSVC\14.27.29110\include\utility
;	COMDAT ??$exchange@PEAU_Container_proxy@std@@$$T@std@@YAPEAU_Container_proxy@0@AEAPEAU10@$$QEA$$T@Z
_TEXT	SEGMENT
_Old_val$ = 8
_Val$ = 256
_New_val$ = 264
??$exchange@PEAU_Container_proxy@std@@$$T@std@@YAPEAU_Container_proxy@0@AEAPEAU10@$$QEA$$T@Z PROC ; std::exchange<std::_Container_proxy *,std::nullptr_t>, COMDAT

; 597  :     conjunction_v<is_nothrow_move_constructible<_Ty>, is_nothrow_assignable<_Ty&, _Other>>) /* strengthened */ {

$LN3:
  00000	48 89 54 24 10	 mov	 QWORD PTR [rsp+16], rdx
  00005	48 89 4c 24 08	 mov	 QWORD PTR [rsp+8], rcx
  0000a	55		 push	 rbp
  0000b	57		 push	 rdi
  0000c	48 81 ec 08 01
	00 00		 sub	 rsp, 264		; 00000108H
  00013	48 8d 6c 24 20	 lea	 rbp, QWORD PTR [rsp+32]
  00018	48 8b fc	 mov	 rdi, rsp
  0001b	b9 42 00 00 00	 mov	 ecx, 66			; 00000042H
  00020	b8 cc cc cc cc	 mov	 eax, -858993460		; ccccccccH
  00025	f3 ab		 rep stosd
  00027	48 8b 8c 24 28
	01 00 00	 mov	 rcx, QWORD PTR [rsp+296]
  0002f	48 8d 0d 00 00
	00 00		 lea	 rcx, OFFSET FLAT:__660C12FD_utility
  00036	e8 00 00 00 00	 call	 __CheckForDebuggerJustMyCode

; 598  :     // assign _New_val to _Val, return previous _Val
; 599  :     _Ty _Old_val = static_cast<_Ty&&>(_Val);

  0003b	48 8b 85 00 01
	00 00		 mov	 rax, QWORD PTR _Val$[rbp]
  00042	48 8b 00	 mov	 rax, QWORD PTR [rax]
  00045	48 89 45 08	 mov	 QWORD PTR _Old_val$[rbp], rax

; 600  :     _Val         = static_cast<_Other&&>(_New_val);

  00049	48 8b 85 00 01
	00 00		 mov	 rax, QWORD PTR _Val$[rbp]
  00050	48 8b 8d 08 01
	00 00		 mov	 rcx, QWORD PTR _New_val$[rbp]
  00057	48 8b 09	 mov	 rcx, QWORD PTR [rcx]
  0005a	48 89 08	 mov	 QWORD PTR [rax], rcx

; 601  :     return _Old_val;

  0005d	48 8b 45 08	 mov	 rax, QWORD PTR _Old_val$[rbp]

; 602  : }

  00061	48 8d a5 e8 00
	00 00		 lea	 rsp, QWORD PTR [rbp+232]
  00068	5f		 pop	 rdi
  00069	5d		 pop	 rbp
  0006a	c3		 ret	 0
??$exchange@PEAU_Container_proxy@std@@$$T@std@@YAPEAU_Container_proxy@0@AEAPEAU10@$$QEA$$T@Z ENDP ; std::exchange<std::_Container_proxy *,std::nullptr_t>
_TEXT	ENDS
; Function compile flags: /Odtp /RTCsu /ZI
; File C:\Program Files (x86)\Microsoft Visual Studio\2019\Enterprise\VC\Tools\MSVC\14.27.29110\include\xmemory
;	COMDAT ??$?0UEntry@LT@@@?$allocator@U_Container_proxy@std@@@std@@QEAA@AEBV?$allocator@UEntry@LT@@@1@@Z
_TEXT	SEGMENT
this$ = 224
__formal$ = 232
??$?0UEntry@LT@@@?$allocator@U_Container_proxy@std@@@std@@QEAA@AEBV?$allocator@UEntry@LT@@@1@@Z PROC ; std::allocator<std::_Container_proxy>::allocator<std::_Container_proxy><LT::Entry>, COMDAT

; 799  :     constexpr allocator(const allocator<_Other>&) noexcept {}

$LN3:
  00000	48 89 54 24 10	 mov	 QWORD PTR [rsp+16], rdx
  00005	48 89 4c 24 08	 mov	 QWORD PTR [rsp+8], rcx
  0000a	55		 push	 rbp
  0000b	57		 push	 rdi
  0000c	48 81 ec e8 00
	00 00		 sub	 rsp, 232		; 000000e8H
  00013	48 8d 6c 24 20	 lea	 rbp, QWORD PTR [rsp+32]
  00018	48 8b fc	 mov	 rdi, rsp
  0001b	b9 3a 00 00 00	 mov	 ecx, 58			; 0000003aH
  00020	b8 cc cc cc cc	 mov	 eax, -858993460		; ccccccccH
  00025	f3 ab		 rep stosd
  00027	48 8b 8c 24 08
	01 00 00	 mov	 rcx, QWORD PTR [rsp+264]
  0002f	48 8d 0d 00 00
	00 00		 lea	 rcx, OFFSET FLAT:__0C99713E_xmemory
  00036	e8 00 00 00 00	 call	 __CheckForDebuggerJustMyCode
  0003b	48 8b 85 e0 00
	00 00		 mov	 rax, QWORD PTR this$[rbp]
  00042	48 8d a5 c8 00
	00 00		 lea	 rsp, QWORD PTR [rbp+200]
  00049	5f		 pop	 rdi
  0004a	5d		 pop	 rbp
  0004b	c3		 ret	 0
??$?0UEntry@LT@@@?$allocator@U_Container_proxy@std@@@std@@QEAA@AEBV?$allocator@UEntry@LT@@@1@@Z ENDP ; std::allocator<std::_Container_proxy>::allocator<std::_Container_proxy><LT::Entry>
_TEXT	ENDS
; Function compile flags: /Odtp /RTCsu /ZI
; File C:\Program Files (x86)\Microsoft Visual Studio\2019\Enterprise\VC\Tools\MSVC\14.27.29110\include\xmemory
;	COMDAT ??$?0$$V@?$_Compressed_pair@V?$allocator@U?$_List_node@UEntry@LT@@PEAX@std@@@std@@V?$_List_val@U?$_List_simple_types@UEntry@LT@@@std@@@2@$00@std@@QEAA@U_Zero_then_variadic_args_t@1@@Z
_TEXT	SEGMENT
this$ = 224
__formal$ = 232
??$?0$$V@?$_Compressed_pair@V?$allocator@U?$_List_node@UEntry@LT@@PEAX@std@@@std@@V?$_List_val@U?$_List_simple_types@UEntry@LT@@@std@@@2@$00@std@@QEAA@U_Zero_then_variadic_args_t@1@@Z PROC ; std::_Compressed_pair<std::allocator<std::_List_node<LT::Entry,void *> >,std::_List_val<std::_List_simple_types<LT::Entry> >,1>::_Compressed_pair<std::allocator<std::_List_node<LT::Entry,void *> >,std::_List_val<std::_List_simple_types<LT::Entry> >,1><>, COMDAT

; 1336 :         : _Ty1(), _Myval2(_STD forward<_Other2>(_Val2)...) {}

$LN3:
  00000	88 54 24 10	 mov	 BYTE PTR [rsp+16], dl
  00004	48 89 4c 24 08	 mov	 QWORD PTR [rsp+8], rcx
  00009	55		 push	 rbp
  0000a	57		 push	 rdi
  0000b	48 81 ec e8 00
	00 00		 sub	 rsp, 232		; 000000e8H
  00012	48 8d 6c 24 20	 lea	 rbp, QWORD PTR [rsp+32]
  00017	48 8b fc	 mov	 rdi, rsp
  0001a	b9 3a 00 00 00	 mov	 ecx, 58			; 0000003aH
  0001f	b8 cc cc cc cc	 mov	 eax, -858993460		; ccccccccH
  00024	f3 ab		 rep stosd
  00026	48 8b 8c 24 08
	01 00 00	 mov	 rcx, QWORD PTR [rsp+264]
  0002e	48 8d 0d 00 00
	00 00		 lea	 rcx, OFFSET FLAT:__0C99713E_xmemory
  00035	e8 00 00 00 00	 call	 __CheckForDebuggerJustMyCode
  0003a	48 8b 8d e0 00
	00 00		 mov	 rcx, QWORD PTR this$[rbp]
  00041	e8 00 00 00 00	 call	 ??0?$allocator@U?$_List_node@UEntry@LT@@PEAX@std@@@std@@QEAA@XZ ; std::allocator<std::_List_node<LT::Entry,void *> >::allocator<std::_List_node<LT::Entry,void *> >
  00046	48 8b 85 e0 00
	00 00		 mov	 rax, QWORD PTR this$[rbp]
  0004d	48 8b c8	 mov	 rcx, rax
  00050	e8 00 00 00 00	 call	 ??0?$_List_val@U?$_List_simple_types@UEntry@LT@@@std@@@std@@QEAA@XZ ; std::_List_val<std::_List_simple_types<LT::Entry> >::_List_val<std::_List_simple_types<LT::Entry> >
  00055	48 8b 85 e0 00
	00 00		 mov	 rax, QWORD PTR this$[rbp]
  0005c	48 8d a5 c8 00
	00 00		 lea	 rsp, QWORD PTR [rbp+200]
  00063	5f		 pop	 rdi
  00064	5d		 pop	 rbp
  00065	c3		 ret	 0
??$?0$$V@?$_Compressed_pair@V?$allocator@U?$_List_node@UEntry@LT@@PEAX@std@@@std@@V?$_List_val@U?$_List_simple_types@UEntry@LT@@@std@@@2@$00@std@@QEAA@U_Zero_then_variadic_args_t@1@@Z ENDP ; std::_Compressed_pair<std::allocator<std::_List_node<LT::Entry,void *> >,std::_List_val<std::_List_simple_types<LT::Entry> >,1>::_Compressed_pair<std::allocator<std::_List_node<LT::Entry,void *> >,std::_List_val<std::_List_simple_types<LT::Entry> >,1><>
_TEXT	ENDS
; Function compile flags: /Odtp /RTCsu /ZI
; File C:\Program Files (x86)\Microsoft Visual Studio\2019\Enterprise\VC\Tools\MSVC\14.27.29110\include\xmemory
;	COMDAT ??$_Delete_plain_internal@V?$allocator@U_Container_proxy@std@@@std@@@std@@YAXAEAV?$allocator@U_Container_proxy@std@@@0@QEAU_Container_proxy@0@@Z
_TEXT	SEGMENT
_Al$ = 224
_Ptr$ = 232
??$_Delete_plain_internal@V?$allocator@U_Container_proxy@std@@@std@@@std@@YAXAEAV?$allocator@U_Container_proxy@std@@@0@QEAU_Container_proxy@0@@Z PROC ; std::_Delete_plain_internal<std::allocator<std::_Container_proxy> >, COMDAT

; 1026 : void _Delete_plain_internal(_Alloc& _Al, typename _Alloc::value_type* const _Ptr) noexcept {

$LN3:
  00000	48 89 54 24 10	 mov	 QWORD PTR [rsp+16], rdx
  00005	48 89 4c 24 08	 mov	 QWORD PTR [rsp+8], rcx
  0000a	55		 push	 rbp
  0000b	57		 push	 rdi
  0000c	48 81 ec e8 00
	00 00		 sub	 rsp, 232		; 000000e8H
  00013	48 8d 6c 24 20	 lea	 rbp, QWORD PTR [rsp+32]
  00018	48 8b fc	 mov	 rdi, rsp
  0001b	b9 3a 00 00 00	 mov	 ecx, 58			; 0000003aH
  00020	b8 cc cc cc cc	 mov	 eax, -858993460		; ccccccccH
  00025	f3 ab		 rep stosd
  00027	48 8b 8c 24 08
	01 00 00	 mov	 rcx, QWORD PTR [rsp+264]
  0002f	48 8d 0d 00 00
	00 00		 lea	 rcx, OFFSET FLAT:__0C99713E_xmemory
  00036	e8 00 00 00 00	 call	 __CheckForDebuggerJustMyCode

; 1027 :     // destroy *_Ptr in place, then deallocate _Ptr using _Al; used for internal container types the user didn't name
; 1028 :     using _Ty = typename _Alloc::value_type;
; 1029 :     _Ptr->~_Ty();
; 1030 :     _Deallocate_plain(_Al, _Ptr);

  0003b	48 8b 95 e8 00
	00 00		 mov	 rdx, QWORD PTR _Ptr$[rbp]
  00042	48 8b 8d e0 00
	00 00		 mov	 rcx, QWORD PTR _Al$[rbp]
  00049	e8 00 00 00 00	 call	 ??$_Deallocate_plain@V?$allocator@U_Container_proxy@std@@@std@@@std@@YAXAEAV?$allocator@U_Container_proxy@std@@@0@QEAU_Container_proxy@0@@Z ; std::_Deallocate_plain<std::allocator<std::_Container_proxy> >
  0004e	90		 npad	 1

; 1031 : }

  0004f	48 8d a5 c8 00
	00 00		 lea	 rsp, QWORD PTR [rbp+200]
  00056	5f		 pop	 rdi
  00057	5d		 pop	 rbp
  00058	c3		 ret	 0
??$_Delete_plain_internal@V?$allocator@U_Container_proxy@std@@@std@@@std@@YAXAEAV?$allocator@U_Container_proxy@std@@@0@QEAU_Container_proxy@0@@Z ENDP ; std::_Delete_plain_internal<std::allocator<std::_Container_proxy> >
_TEXT	ENDS
; Function compile flags: /Odtp /RTCsu /ZI
; File C:\Program Files (x86)\Microsoft Visual Studio\2019\Enterprise\VC\Tools\MSVC\14.27.29110\include\xmemory
;	COMDAT ??$?0U?$_List_node@UEntry@LT@@PEAX@std@@@?$allocator@U_Container_proxy@std@@@std@@QEAA@AEBV?$allocator@U?$_List_node@UEntry@LT@@PEAX@std@@@1@@Z
_TEXT	SEGMENT
this$ = 224
__formal$ = 232
??$?0U?$_List_node@UEntry@LT@@PEAX@std@@@?$allocator@U_Container_proxy@std@@@std@@QEAA@AEBV?$allocator@U?$_List_node@UEntry@LT@@PEAX@std@@@1@@Z PROC ; std::allocator<std::_Container_proxy>::allocator<std::_Container_proxy><std::_List_node<LT::Entry,void *> >, COMDAT

; 799  :     constexpr allocator(const allocator<_Other>&) noexcept {}

$LN3:
  00000	48 89 54 24 10	 mov	 QWORD PTR [rsp+16], rdx
  00005	48 89 4c 24 08	 mov	 QWORD PTR [rsp+8], rcx
  0000a	55		 push	 rbp
  0000b	57		 push	 rdi
  0000c	48 81 ec e8 00
	00 00		 sub	 rsp, 232		; 000000e8H
  00013	48 8d 6c 24 20	 lea	 rbp, QWORD PTR [rsp+32]
  00018	48 8b fc	 mov	 rdi, rsp
  0001b	b9 3a 00 00 00	 mov	 ecx, 58			; 0000003aH
  00020	b8 cc cc cc cc	 mov	 eax, -858993460		; ccccccccH
  00025	f3 ab		 rep stosd
  00027	48 8b 8c 24 08
	01 00 00	 mov	 rcx, QWORD PTR [rsp+264]
  0002f	48 8d 0d 00 00
	00 00		 lea	 rcx, OFFSET FLAT:__0C99713E_xmemory
  00036	e8 00 00 00 00	 call	 __CheckForDebuggerJustMyCode
  0003b	48 8b 85 e0 00
	00 00		 mov	 rax, QWORD PTR this$[rbp]
  00042	48 8d a5 c8 00
	00 00		 lea	 rsp, QWORD PTR [rbp+200]
  00049	5f		 pop	 rdi
  0004a	5d		 pop	 rbp
  0004b	c3		 ret	 0
??$?0U?$_List_node@UEntry@LT@@PEAX@std@@@?$allocator@U_Container_proxy@std@@@std@@QEAA@AEBV?$allocator@U?$_List_node@UEntry@LT@@PEAX@std@@@1@@Z ENDP ; std::allocator<std::_Container_proxy>::allocator<std::_Container_proxy><std::_List_node<LT::Entry,void *> >
_TEXT	ENDS
; Function compile flags: /Odtp /RTCsu /ZI
; File C:\Program Files (x86)\Microsoft Visual Studio\2019\Enterprise\VC\Tools\MSVC\14.27.29110\include\xmemory
;	COMDAT ?allocate@?$allocator@U_Container_proxy@std@@@std@@QEAAPEAU_Container_proxy@2@_K@Z
_TEXT	SEGMENT
this$ = 224
_Count$ = 232
?allocate@?$allocator@U_Container_proxy@std@@@std@@QEAAPEAU_Container_proxy@2@_K@Z PROC ; std::allocator<std::_Container_proxy>::allocate, COMDAT

; 806  :     _NODISCARD __declspec(allocator) _Ty* allocate(_CRT_GUARDOVERFLOW const size_t _Count) {

$LN3:
  00000	48 89 54 24 10	 mov	 QWORD PTR [rsp+16], rdx
  00005	48 89 4c 24 08	 mov	 QWORD PTR [rsp+8], rcx
  0000a	55		 push	 rbp
  0000b	57		 push	 rdi
  0000c	48 81 ec e8 00
	00 00		 sub	 rsp, 232		; 000000e8H
  00013	48 8d 6c 24 20	 lea	 rbp, QWORD PTR [rsp+32]
  00018	48 8b fc	 mov	 rdi, rsp
  0001b	b9 3a 00 00 00	 mov	 ecx, 58			; 0000003aH
  00020	b8 cc cc cc cc	 mov	 eax, -858993460		; ccccccccH
  00025	f3 ab		 rep stosd
  00027	48 8b 8c 24 08
	01 00 00	 mov	 rcx, QWORD PTR [rsp+264]
  0002f	48 8d 0d 00 00
	00 00		 lea	 rcx, OFFSET FLAT:__0C99713E_xmemory
  00036	e8 00 00 00 00	 call	 __CheckForDebuggerJustMyCode

; 807  :         return static_cast<_Ty*>(_Allocate<_New_alignof<_Ty>>(_Get_size_of_n<sizeof(_Ty)>(_Count)));

  0003b	48 8b 8d e8 00
	00 00		 mov	 rcx, QWORD PTR _Count$[rbp]
  00042	e8 00 00 00 00	 call	 ??$_Get_size_of_n@$0BA@@std@@YA_K_K@Z ; std::_Get_size_of_n<16>
  00047	48 8b c8	 mov	 rcx, rax
  0004a	e8 00 00 00 00	 call	 ??$_Allocate@$0BA@U_Default_allocate_traits@std@@$0A@@std@@YAPEAX_K@Z ; std::_Allocate<16,std::_Default_allocate_traits,0>

; 808  :     }

  0004f	48 8d a5 c8 00
	00 00		 lea	 rsp, QWORD PTR [rbp+200]
  00056	5f		 pop	 rdi
  00057	5d		 pop	 rbp
  00058	c3		 ret	 0
?allocate@?$allocator@U_Container_proxy@std@@@std@@QEAAPEAU_Container_proxy@2@_K@Z ENDP ; std::allocator<std::_Container_proxy>::allocate
_TEXT	ENDS
; Function compile flags: /Odtp /RTCsu /ZI
; File C:\Program Files (x86)\Microsoft Visual Studio\2019\Enterprise\VC\Tools\MSVC\14.27.29110\include\list
;	COMDAT ??$_Emplace@AEBUEntry@LT@@@?$list@UEntry@LT@@V?$allocator@UEntry@LT@@@std@@@std@@QEAAPEAU?$_List_node@UEntry@LT@@PEAX@1@QEAU21@AEBUEntry@LT@@@Z
_TEXT	SEGMENT
_Mysize$ = 8
_Op$ = 40
$T4 = 280
tv80 = 296
tv82 = 304
__$ArrayPad$ = 312
this$ = 352
_Where$ = 360
<_Val_0>$ = 368
??$_Emplace@AEBUEntry@LT@@@?$list@UEntry@LT@@V?$allocator@UEntry@LT@@@std@@@std@@QEAAPEAU?$_List_node@UEntry@LT@@PEAX@1@QEAU21@AEBUEntry@LT@@@Z PROC ; std::list<LT::Entry,std::allocator<LT::Entry> >::_Emplace<LT::Entry const &>, COMDAT

; 1012 :     _Nodeptr _Emplace(const _Nodeptr _Where, _Valty&&... _Val) { // insert element at _Where

$LN5:
  00000	4c 89 44 24 18	 mov	 QWORD PTR [rsp+24], r8
  00005	48 89 54 24 10	 mov	 QWORD PTR [rsp+16], rdx
  0000a	48 89 4c 24 08	 mov	 QWORD PTR [rsp+8], rcx
  0000f	55		 push	 rbp
  00010	57		 push	 rdi
  00011	48 81 ec 68 01
	00 00		 sub	 rsp, 360		; 00000168H
  00018	48 8d 6c 24 20	 lea	 rbp, QWORD PTR [rsp+32]
  0001d	48 8b fc	 mov	 rdi, rsp
  00020	b9 5a 00 00 00	 mov	 ecx, 90			; 0000005aH
  00025	b8 cc cc cc cc	 mov	 eax, -858993460		; ccccccccH
  0002a	f3 ab		 rep stosd
  0002c	48 8b 8c 24 88
	01 00 00	 mov	 rcx, QWORD PTR [rsp+392]
  00034	48 8b 05 00 00
	00 00		 mov	 rax, QWORD PTR __security_cookie
  0003b	48 33 c5	 xor	 rax, rbp
  0003e	48 89 85 38 01
	00 00		 mov	 QWORD PTR __$ArrayPad$[rbp], rax
  00045	48 8d 0d 00 00
	00 00		 lea	 rcx, OFFSET FLAT:__DAE328AB_list
  0004c	e8 00 00 00 00	 call	 __CheckForDebuggerJustMyCode

; 1013 :         size_type& _Mysize = _Mypair._Myval2._Mysize;

  00051	48 8b 85 60 01
	00 00		 mov	 rax, QWORD PTR this$[rbp]
  00058	48 83 c0 10	 add	 rax, 16
  0005c	48 89 45 08	 mov	 QWORD PTR _Mysize$[rbp], rax

; 1014 :         if (_Mysize == max_size()) {

  00060	48 8b 8d 60 01
	00 00		 mov	 rcx, QWORD PTR this$[rbp]
  00067	e8 00 00 00 00	 call	 ?max_size@?$list@UEntry@LT@@V?$allocator@UEntry@LT@@@std@@@std@@QEBA_KXZ ; std::list<LT::Entry,std::allocator<LT::Entry> >::max_size
  0006c	48 8b 4d 08	 mov	 rcx, QWORD PTR _Mysize$[rbp]
  00070	48 39 01	 cmp	 QWORD PTR [rcx], rax
  00073	75 0c		 jne	 SHORT $LN2@Emplace

; 1015 :             _Xlength_error("list too long");

  00075	48 8d 0d 00 00
	00 00		 lea	 rcx, OFFSET FLAT:??_C@_0O@NKNMEGII@list?5too?5long@
  0007c	e8 00 00 00 00	 call	 ?_Xlength_error@std@@YAXPEBD@Z ; std::_Xlength_error
$LN2@Emplace:

; 1016 :         }
; 1017 : 
; 1018 :         _List_node_emplace_op2<_Alnode> _Op{_Getal(), _STD forward<_Valty>(_Val)...};

  00081	48 8b 8d 60 01
	00 00		 mov	 rcx, QWORD PTR this$[rbp]
  00088	e8 00 00 00 00	 call	 ?_Getal@?$list@UEntry@LT@@V?$allocator@UEntry@LT@@@std@@@std@@AEAAAEAV?$allocator@U?$_List_node@UEntry@LT@@PEAX@std@@@2@XZ ; std::list<LT::Entry,std::allocator<LT::Entry> >::_Getal
  0008d	48 89 85 28 01
	00 00		 mov	 QWORD PTR tv80[rbp], rax
  00094	48 8b 8d 70 01
	00 00		 mov	 rcx, QWORD PTR <_Val_0>$[rbp]
  0009b	e8 00 00 00 00	 call	 ??$forward@AEBUEntry@LT@@@std@@YAAEBUEntry@LT@@AEBU12@@Z ; std::forward<LT::Entry const &>
  000a0	48 89 85 30 01
	00 00		 mov	 QWORD PTR tv82[rbp], rax
  000a7	4c 8b 85 30 01
	00 00		 mov	 r8, QWORD PTR tv82[rbp]
  000ae	48 8b 95 28 01
	00 00		 mov	 rdx, QWORD PTR tv80[rbp]
  000b5	48 8d 4d 28	 lea	 rcx, QWORD PTR _Op$[rbp]
  000b9	e8 00 00 00 00	 call	 ??$?0AEBUEntry@LT@@@?$_List_node_emplace_op2@V?$allocator@U?$_List_node@UEntry@LT@@PEAX@std@@@std@@@std@@QEAA@AEAV?$allocator@U?$_List_node@UEntry@LT@@PEAX@std@@@1@AEBUEntry@LT@@@Z ; std::_List_node_emplace_op2<std::allocator<std::_List_node<LT::Entry,void *> > >::_List_node_emplace_op2<std::allocator<std::_List_node<LT::Entry,void *> > ><LT::Entry const &>

; 1019 :         ++_Mysize;

  000be	48 8b 45 08	 mov	 rax, QWORD PTR _Mysize$[rbp]
  000c2	48 8b 00	 mov	 rax, QWORD PTR [rax]
  000c5	48 ff c0	 inc	 rax
  000c8	48 8b 4d 08	 mov	 rcx, QWORD PTR _Mysize$[rbp]
  000cc	48 89 01	 mov	 QWORD PTR [rcx], rax

; 1020 :         return _Op._Transfer_before(_Where);

  000cf	48 8b 95 68 01
	00 00		 mov	 rdx, QWORD PTR _Where$[rbp]
  000d6	48 8d 4d 28	 lea	 rcx, QWORD PTR _Op$[rbp]
  000da	e8 00 00 00 00	 call	 ?_Transfer_before@?$_List_node_emplace_op2@V?$allocator@U?$_List_node@UEntry@LT@@PEAX@std@@@std@@@std@@QEAAPEAU?$_List_node@UEntry@LT@@PEAX@2@QEAU32@@Z ; std::_List_node_emplace_op2<std::allocator<std::_List_node<LT::Entry,void *> > >::_Transfer_before
  000df	48 89 85 18 01
	00 00		 mov	 QWORD PTR $T4[rbp], rax
  000e6	48 8d 4d 28	 lea	 rcx, QWORD PTR _Op$[rbp]
  000ea	e8 00 00 00 00	 call	 ??1?$_List_node_emplace_op2@V?$allocator@U?$_List_node@UEntry@LT@@PEAX@std@@@std@@@std@@QEAA@XZ ; std::_List_node_emplace_op2<std::allocator<std::_List_node<LT::Entry,void *> > >::~_List_node_emplace_op2<std::allocator<std::_List_node<LT::Entry,void *> > >
  000ef	48 8b 85 18 01
	00 00		 mov	 rax, QWORD PTR $T4[rbp]

; 1021 :     }

  000f6	48 8b f8	 mov	 rdi, rax
  000f9	48 8d 4d e0	 lea	 rcx, QWORD PTR [rbp-32]
  000fd	48 8d 15 00 00
	00 00		 lea	 rdx, OFFSET FLAT:??$_Emplace@AEBUEntry@LT@@@?$list@UEntry@LT@@V?$allocator@UEntry@LT@@@std@@@std@@QEAAPEAU?$_List_node@UEntry@LT@@PEAX@1@QEAU21@AEBUEntry@LT@@@Z$rtcFrameData
  00104	e8 00 00 00 00	 call	 _RTC_CheckStackVars
  00109	48 8b c7	 mov	 rax, rdi
  0010c	48 8b 8d 38 01
	00 00		 mov	 rcx, QWORD PTR __$ArrayPad$[rbp]
  00113	48 33 cd	 xor	 rcx, rbp
  00116	e8 00 00 00 00	 call	 __security_check_cookie
  0011b	48 8d a5 48 01
	00 00		 lea	 rsp, QWORD PTR [rbp+328]
  00122	5f		 pop	 rdi
  00123	5d		 pop	 rbp
  00124	c3		 ret	 0
??$_Emplace@AEBUEntry@LT@@@?$list@UEntry@LT@@V?$allocator@UEntry@LT@@@std@@@std@@QEAAPEAU?$_List_node@UEntry@LT@@PEAX@1@QEAU21@AEBUEntry@LT@@@Z ENDP ; std::list<LT::Entry,std::allocator<LT::Entry> >::_Emplace<LT::Entry const &>
_TEXT	ENDS
; Function compile flags: /Odtp /RTCsu /ZI
;	COMDAT ?__autoclassinit2@?$list@UEntry@LT@@V?$allocator@UEntry@LT@@@std@@@std@@QEAAX_K@Z
_TEXT	SEGMENT
this$ = 224
classSize$ = 232
?__autoclassinit2@?$list@UEntry@LT@@V?$allocator@UEntry@LT@@@std@@@std@@QEAAX_K@Z PROC ; std::list<LT::Entry,std::allocator<LT::Entry> >::__autoclassinit2, COMDAT
$LN3:
  00000	48 89 54 24 10	 mov	 QWORD PTR [rsp+16], rdx
  00005	48 89 4c 24 08	 mov	 QWORD PTR [rsp+8], rcx
  0000a	55		 push	 rbp
  0000b	57		 push	 rdi
  0000c	48 81 ec c8 00
	00 00		 sub	 rsp, 200		; 000000c8H
  00013	48 8b ec	 mov	 rbp, rsp
  00016	48 8b fc	 mov	 rdi, rsp
  00019	b9 32 00 00 00	 mov	 ecx, 50			; 00000032H
  0001e	b8 cc cc cc cc	 mov	 eax, -858993460		; ccccccccH
  00023	f3 ab		 rep stosd
  00025	48 8b 8c 24 e8
	00 00 00	 mov	 rcx, QWORD PTR [rsp+232]
  0002d	48 8b bd e0 00
	00 00		 mov	 rdi, QWORD PTR this$[rbp]
  00034	33 c0		 xor	 eax, eax
  00036	48 8b 8d e8 00
	00 00		 mov	 rcx, QWORD PTR classSize$[rbp]
  0003d	f3 aa		 rep stosb
  0003f	48 8d a5 c8 00
	00 00		 lea	 rsp, QWORD PTR [rbp+200]
  00046	5f		 pop	 rdi
  00047	5d		 pop	 rbp
  00048	c3		 ret	 0
?__autoclassinit2@?$list@UEntry@LT@@V?$allocator@UEntry@LT@@@std@@@std@@QEAAX_K@Z ENDP ; std::list<LT::Entry,std::allocator<LT::Entry> >::__autoclassinit2
_TEXT	ENDS
; Function compile flags: /Odtp /RTCsu /ZI
; File C:\Program Files (x86)\Microsoft Visual Studio\2019\Enterprise\VC\Tools\MSVC\14.27.29110\include\xmemory
;	COMDAT ?_Get_first@?$_Compressed_pair@V?$allocator@U?$_List_node@UEntry@LT@@PEAX@std@@@std@@V?$_List_val@U?$_List_simple_types@UEntry@LT@@@std@@@2@$00@std@@QEBAAEBV?$allocator@U?$_List_node@UEntry@LT@@PEAX@std@@@2@XZ
_TEXT	SEGMENT
this$ = 224
?_Get_first@?$_Compressed_pair@V?$allocator@U?$_List_node@UEntry@LT@@PEAX@std@@@std@@V?$_List_val@U?$_List_simple_types@UEntry@LT@@@std@@@2@$00@std@@QEBAAEBV?$allocator@U?$_List_node@UEntry@LT@@PEAX@std@@@2@XZ PROC ; std::_Compressed_pair<std::allocator<std::_List_node<LT::Entry,void *> >,std::_List_val<std::_List_simple_types<LT::Entry> >,1>::_Get_first, COMDAT

; 1347 :     constexpr const _Ty1& _Get_first() const noexcept {

$LN3:
  00000	48 89 4c 24 08	 mov	 QWORD PTR [rsp+8], rcx
  00005	55		 push	 rbp
  00006	57		 push	 rdi
  00007	48 81 ec e8 00
	00 00		 sub	 rsp, 232		; 000000e8H
  0000e	48 8d 6c 24 20	 lea	 rbp, QWORD PTR [rsp+32]
  00013	48 8b fc	 mov	 rdi, rsp
  00016	b9 3a 00 00 00	 mov	 ecx, 58			; 0000003aH
  0001b	b8 cc cc cc cc	 mov	 eax, -858993460		; ccccccccH
  00020	f3 ab		 rep stosd
  00022	48 8b 8c 24 08
	01 00 00	 mov	 rcx, QWORD PTR [rsp+264]
  0002a	48 8d 0d 00 00
	00 00		 lea	 rcx, OFFSET FLAT:__0C99713E_xmemory
  00031	e8 00 00 00 00	 call	 __CheckForDebuggerJustMyCode

; 1348 :         return *this;

  00036	48 8b 85 e0 00
	00 00		 mov	 rax, QWORD PTR this$[rbp]

; 1349 :     }

  0003d	48 8d a5 c8 00
	00 00		 lea	 rsp, QWORD PTR [rbp+200]
  00044	5f		 pop	 rdi
  00045	5d		 pop	 rbp
  00046	c3		 ret	 0
?_Get_first@?$_Compressed_pair@V?$allocator@U?$_List_node@UEntry@LT@@PEAX@std@@@std@@V?$_List_val@U?$_List_simple_types@UEntry@LT@@@std@@@2@$00@std@@QEBAAEBV?$allocator@U?$_List_node@UEntry@LT@@PEAX@std@@@2@XZ ENDP ; std::_Compressed_pair<std::allocator<std::_List_node<LT::Entry,void *> >,std::_List_val<std::_List_simple_types<LT::Entry> >,1>::_Get_first
_TEXT	ENDS
; Function compile flags: /Odtp /RTCsu /ZI
; File C:\Program Files (x86)\Microsoft Visual Studio\2019\Enterprise\VC\Tools\MSVC\14.27.29110\include\xmemory
;	COMDAT ?_Get_first@?$_Compressed_pair@V?$allocator@U?$_List_node@UEntry@LT@@PEAX@std@@@std@@V?$_List_val@U?$_List_simple_types@UEntry@LT@@@std@@@2@$00@std@@QEAAAEAV?$allocator@U?$_List_node@UEntry@LT@@PEAX@std@@@2@XZ
_TEXT	SEGMENT
this$ = 224
?_Get_first@?$_Compressed_pair@V?$allocator@U?$_List_node@UEntry@LT@@PEAX@std@@@std@@V?$_List_val@U?$_List_simple_types@UEntry@LT@@@std@@@2@$00@std@@QEAAAEAV?$allocator@U?$_List_node@UEntry@LT@@PEAX@std@@@2@XZ PROC ; std::_Compressed_pair<std::allocator<std::_List_node<LT::Entry,void *> >,std::_List_val<std::_List_simple_types<LT::Entry> >,1>::_Get_first, COMDAT

; 1343 :     constexpr _Ty1& _Get_first() noexcept {

$LN3:
  00000	48 89 4c 24 08	 mov	 QWORD PTR [rsp+8], rcx
  00005	55		 push	 rbp
  00006	57		 push	 rdi
  00007	48 81 ec e8 00
	00 00		 sub	 rsp, 232		; 000000e8H
  0000e	48 8d 6c 24 20	 lea	 rbp, QWORD PTR [rsp+32]
  00013	48 8b fc	 mov	 rdi, rsp
  00016	b9 3a 00 00 00	 mov	 ecx, 58			; 0000003aH
  0001b	b8 cc cc cc cc	 mov	 eax, -858993460		; ccccccccH
  00020	f3 ab		 rep stosd
  00022	48 8b 8c 24 08
	01 00 00	 mov	 rcx, QWORD PTR [rsp+264]
  0002a	48 8d 0d 00 00
	00 00		 lea	 rcx, OFFSET FLAT:__0C99713E_xmemory
  00031	e8 00 00 00 00	 call	 __CheckForDebuggerJustMyCode

; 1344 :         return *this;

  00036	48 8b 85 e0 00
	00 00		 mov	 rax, QWORD PTR this$[rbp]

; 1345 :     }

  0003d	48 8d a5 c8 00
	00 00		 lea	 rsp, QWORD PTR [rbp+200]
  00044	5f		 pop	 rdi
  00045	5d		 pop	 rbp
  00046	c3		 ret	 0
?_Get_first@?$_Compressed_pair@V?$allocator@U?$_List_node@UEntry@LT@@PEAX@std@@@std@@V?$_List_val@U?$_List_simple_types@UEntry@LT@@@std@@@2@$00@std@@QEAAAEAV?$allocator@U?$_List_node@UEntry@LT@@PEAX@std@@@2@XZ ENDP ; std::_Compressed_pair<std::allocator<std::_List_node<LT::Entry,void *> >,std::_List_val<std::_List_simple_types<LT::Entry> >,1>::_Get_first
_TEXT	ENDS
; Function compile flags: /Odtp /RTCsu /ZI
; File C:\Program Files (x86)\Microsoft Visual Studio\2019\Enterprise\VC\Tools\MSVC\14.27.29110\include\list
;	COMDAT ?_Orphan_ptr2@?$_List_val@U?$_List_simple_types@UEntry@LT@@@std@@@std@@QEAAXPEAU?$_List_node@UEntry@LT@@PEAX@2@@Z
_TEXT	SEGMENT
_Lock$ = 4
_Pnext$ = 40
_Head$ = 72
_Pnextnext$4 = 104
_Pnextptr$5 = 136
__$ArrayPad$ = 344
this$ = 384
_Ptr$ = 392
?_Orphan_ptr2@?$_List_val@U?$_List_simple_types@UEntry@LT@@@std@@@std@@QEAAXPEAU?$_List_node@UEntry@LT@@PEAX@2@@Z PROC ; std::_List_val<std::_List_simple_types<LT::Entry> >::_Orphan_ptr2, COMDAT

; 356  :     void _Orphan_ptr2(_Nodeptr _Ptr) noexcept { // orphan iterators with specified node pointers

$LN8:
  00000	48 89 54 24 10	 mov	 QWORD PTR [rsp+16], rdx
  00005	48 89 4c 24 08	 mov	 QWORD PTR [rsp+8], rcx
  0000a	55		 push	 rbp
  0000b	57		 push	 rdi
  0000c	48 81 ec 88 01
	00 00		 sub	 rsp, 392		; 00000188H
  00013	48 8d 6c 24 20	 lea	 rbp, QWORD PTR [rsp+32]
  00018	48 8b fc	 mov	 rdi, rsp
  0001b	b9 62 00 00 00	 mov	 ecx, 98			; 00000062H
  00020	b8 cc cc cc cc	 mov	 eax, -858993460		; ccccccccH
  00025	f3 ab		 rep stosd
  00027	48 8b 8c 24 a8
	01 00 00	 mov	 rcx, QWORD PTR [rsp+424]
  0002f	48 8b 05 00 00
	00 00		 mov	 rax, QWORD PTR __security_cookie
  00036	48 33 c5	 xor	 rax, rbp
  00039	48 89 85 58 01
	00 00		 mov	 QWORD PTR __$ArrayPad$[rbp], rax
  00040	48 8d 0d 00 00
	00 00		 lea	 rcx, OFFSET FLAT:__DAE328AB_list
  00047	e8 00 00 00 00	 call	 __CheckForDebuggerJustMyCode

; 357  : #if _ITERATOR_DEBUG_LEVEL == 2
; 358  :         _Lockit _Lock(_LOCK_DEBUG);

  0004c	ba 03 00 00 00	 mov	 edx, 3
  00051	48 8d 4d 04	 lea	 rcx, QWORD PTR _Lock$[rbp]
  00055	ff 15 00 00 00
	00		 call	 QWORD PTR __imp_??0_Lockit@std@@QEAA@H@Z

; 359  :         _Iterator_base12** _Pnext = &this->_Myproxy->_Myfirstiter;

  0005b	48 8b 85 80 01
	00 00		 mov	 rax, QWORD PTR this$[rbp]
  00062	48 8b 00	 mov	 rax, QWORD PTR [rax]
  00065	48 83 c0 08	 add	 rax, 8
  00069	48 89 45 28	 mov	 QWORD PTR _Pnext$[rbp], rax

; 360  :         const auto _Head          = _Myhead;

  0006d	48 8b 85 80 01
	00 00		 mov	 rax, QWORD PTR this$[rbp]
  00074	48 8b 40 08	 mov	 rax, QWORD PTR [rax+8]
  00078	48 89 45 48	 mov	 QWORD PTR _Head$[rbp], rax
$LN2@Orphan_ptr:

; 361  :         while (*_Pnext) {

  0007c	48 8b 45 28	 mov	 rax, QWORD PTR _Pnext$[rbp]
  00080	48 83 38 00	 cmp	 QWORD PTR [rax], 0
  00084	74 66		 je	 SHORT $LN3@Orphan_ptr

; 362  :             _Iterator_base12** _Pnextnext = &(*_Pnext)->_Mynextiter;

  00086	48 8b 45 28	 mov	 rax, QWORD PTR _Pnext$[rbp]
  0008a	48 8b 00	 mov	 rax, QWORD PTR [rax]
  0008d	48 83 c0 08	 add	 rax, 8
  00091	48 89 45 68	 mov	 QWORD PTR _Pnextnext$4[rbp], rax

; 363  :             const auto _Pnextptr          = static_cast<_List_const_iterator<_List_val>&>(**_Pnext)._Ptr;

  00095	48 8b 45 28	 mov	 rax, QWORD PTR _Pnext$[rbp]
  00099	48 8b 00	 mov	 rax, QWORD PTR [rax]
  0009c	48 8b 40 10	 mov	 rax, QWORD PTR [rax+16]
  000a0	48 89 85 88 00
	00 00		 mov	 QWORD PTR _Pnextptr$5[rbp], rax

; 364  :             if (_Pnextptr == _Head || _Pnextptr != _Ptr) {

  000a7	48 8b 45 48	 mov	 rax, QWORD PTR _Head$[rbp]
  000ab	48 39 85 88 00
	00 00		 cmp	 QWORD PTR _Pnextptr$5[rbp], rax
  000b2	74 10		 je	 SHORT $LN6@Orphan_ptr
  000b4	48 8b 85 88 01
	00 00		 mov	 rax, QWORD PTR _Ptr$[rbp]
  000bb	48 39 85 88 00
	00 00		 cmp	 QWORD PTR _Pnextptr$5[rbp], rax
  000c2	74 0a		 je	 SHORT $LN4@Orphan_ptr
$LN6@Orphan_ptr:

; 365  :                 // iterator is end() or doesn't point at the one we are orphaning, move on
; 366  :                 _Pnext = _Pnextnext;

  000c4	48 8b 45 68	 mov	 rax, QWORD PTR _Pnextnext$4[rbp]
  000c8	48 89 45 28	 mov	 QWORD PTR _Pnext$[rbp], rax

; 367  :             } else { // orphan the iterator

  000cc	eb 1c		 jmp	 SHORT $LN5@Orphan_ptr
$LN4@Orphan_ptr:

; 368  :                 (*_Pnext)->_Myproxy = nullptr;

  000ce	48 8b 45 28	 mov	 rax, QWORD PTR _Pnext$[rbp]
  000d2	48 8b 00	 mov	 rax, QWORD PTR [rax]
  000d5	48 c7 00 00 00
	00 00		 mov	 QWORD PTR [rax], 0

; 369  :                 *_Pnext             = *_Pnextnext;

  000dc	48 8b 45 28	 mov	 rax, QWORD PTR _Pnext$[rbp]
  000e0	48 8b 4d 68	 mov	 rcx, QWORD PTR _Pnextnext$4[rbp]
  000e4	48 8b 09	 mov	 rcx, QWORD PTR [rcx]
  000e7	48 89 08	 mov	 QWORD PTR [rax], rcx
$LN5@Orphan_ptr:

; 370  :             }
; 371  :         }

  000ea	eb 90		 jmp	 SHORT $LN2@Orphan_ptr
$LN3@Orphan_ptr:

; 372  : #else // ^^^ _ITERATOR_DEBUG_LEVEL == 2 ^^^ // vvv _ITERATOR_DEBUG_LEVEL != 2 vvv
; 373  :         (void) _Ptr;
; 374  : #endif // _ITERATOR_DEBUG_LEVEL == 2
; 375  :     }

  000ec	48 8d 4d 04	 lea	 rcx, QWORD PTR _Lock$[rbp]
  000f0	ff 15 00 00 00
	00		 call	 QWORD PTR __imp_??1_Lockit@std@@QEAA@XZ
  000f6	48 8d 4d e0	 lea	 rcx, QWORD PTR [rbp-32]
  000fa	48 8d 15 00 00
	00 00		 lea	 rdx, OFFSET FLAT:?_Orphan_ptr2@?$_List_val@U?$_List_simple_types@UEntry@LT@@@std@@@std@@QEAAXPEAU?$_List_node@UEntry@LT@@PEAX@2@@Z$rtcFrameData
  00101	e8 00 00 00 00	 call	 _RTC_CheckStackVars
  00106	90		 npad	 1
  00107	48 8b 8d 58 01
	00 00		 mov	 rcx, QWORD PTR __$ArrayPad$[rbp]
  0010e	48 33 cd	 xor	 rcx, rbp
  00111	e8 00 00 00 00	 call	 __security_check_cookie
  00116	48 8d a5 68 01
	00 00		 lea	 rsp, QWORD PTR [rbp+360]
  0011d	5f		 pop	 rdi
  0011e	5d		 pop	 rbp
  0011f	c3		 ret	 0
?_Orphan_ptr2@?$_List_val@U?$_List_simple_types@UEntry@LT@@@std@@@std@@QEAAXPEAU?$_List_node@UEntry@LT@@PEAX@2@@Z ENDP ; std::_List_val<std::_List_simple_types<LT::Entry> >::_Orphan_ptr2
_TEXT	ENDS
; Function compile flags: /Odtp /RTCsu /ZI
; File C:\Program Files (x86)\Microsoft Visual Studio\2019\Enterprise\VC\Tools\MSVC\14.27.29110\include\list
;	COMDAT ??0?$_List_val@U?$_List_simple_types@UEntry@LT@@@std@@@std@@QEAA@XZ
_TEXT	SEGMENT
this$ = 224
??0?$_List_val@U?$_List_simple_types@UEntry@LT@@@std@@@std@@QEAA@XZ PROC ; std::_List_val<std::_List_simple_types<LT::Entry> >::_List_val<std::_List_simple_types<LT::Entry> >, COMDAT

; 354  :     _List_val() noexcept : _Myhead(), _Mysize(0) {} // initialize data

$LN3:
  00000	48 89 4c 24 08	 mov	 QWORD PTR [rsp+8], rcx
  00005	55		 push	 rbp
  00006	57		 push	 rdi
  00007	48 81 ec e8 00
	00 00		 sub	 rsp, 232		; 000000e8H
  0000e	48 8d 6c 24 20	 lea	 rbp, QWORD PTR [rsp+32]
  00013	48 8b fc	 mov	 rdi, rsp
  00016	b9 3a 00 00 00	 mov	 ecx, 58			; 0000003aH
  0001b	b8 cc cc cc cc	 mov	 eax, -858993460		; ccccccccH
  00020	f3 ab		 rep stosd
  00022	48 8b 8c 24 08
	01 00 00	 mov	 rcx, QWORD PTR [rsp+264]
  0002a	48 8d 0d 00 00
	00 00		 lea	 rcx, OFFSET FLAT:__DAE328AB_list
  00031	e8 00 00 00 00	 call	 __CheckForDebuggerJustMyCode
  00036	48 8b 8d e0 00
	00 00		 mov	 rcx, QWORD PTR this$[rbp]
  0003d	e8 00 00 00 00	 call	 ??0_Container_base12@std@@QEAA@XZ ; std::_Container_base12::_Container_base12
  00042	48 8b 85 e0 00
	00 00		 mov	 rax, QWORD PTR this$[rbp]
  00049	48 c7 40 08 00
	00 00 00	 mov	 QWORD PTR [rax+8], 0
  00051	48 8b 85 e0 00
	00 00		 mov	 rax, QWORD PTR this$[rbp]
  00058	48 c7 40 10 00
	00 00 00	 mov	 QWORD PTR [rax+16], 0
  00060	48 8b 85 e0 00
	00 00		 mov	 rax, QWORD PTR this$[rbp]
  00067	48 8d a5 c8 00
	00 00		 lea	 rsp, QWORD PTR [rbp+200]
  0006e	5f		 pop	 rdi
  0006f	5d		 pop	 rbp
  00070	c3		 ret	 0
??0?$_List_val@U?$_List_simple_types@UEntry@LT@@@std@@@std@@QEAA@XZ ENDP ; std::_List_val<std::_List_simple_types<LT::Entry> >::_List_val<std::_List_simple_types<LT::Entry> >
_TEXT	ENDS
; Function compile flags: /Odtp /RTCsu /ZI
; File C:\Program Files (x86)\Microsoft Visual Studio\2019\Enterprise\VC\Tools\MSVC\14.27.29110\include\list
;	COMDAT ?_Getal@?$list@UEntry@LT@@V?$allocator@UEntry@LT@@@std@@@std@@AEBAAEBV?$allocator@U?$_List_node@UEntry@LT@@PEAX@std@@@2@XZ
_TEXT	SEGMENT
this$ = 224
?_Getal@?$list@UEntry@LT@@V?$allocator@UEntry@LT@@@std@@@std@@AEBAAEBV?$allocator@U?$_List_node@UEntry@LT@@PEAX@std@@@2@XZ PROC ; std::list<LT::Entry,std::allocator<LT::Entry> >::_Getal, COMDAT

; 1790 :     const _Alnode& _Getal() const noexcept {

$LN3:
  00000	48 89 4c 24 08	 mov	 QWORD PTR [rsp+8], rcx
  00005	55		 push	 rbp
  00006	57		 push	 rdi
  00007	48 81 ec e8 00
	00 00		 sub	 rsp, 232		; 000000e8H
  0000e	48 8d 6c 24 20	 lea	 rbp, QWORD PTR [rsp+32]
  00013	48 8b fc	 mov	 rdi, rsp
  00016	b9 3a 00 00 00	 mov	 ecx, 58			; 0000003aH
  0001b	b8 cc cc cc cc	 mov	 eax, -858993460		; ccccccccH
  00020	f3 ab		 rep stosd
  00022	48 8b 8c 24 08
	01 00 00	 mov	 rcx, QWORD PTR [rsp+264]
  0002a	48 8d 0d 00 00
	00 00		 lea	 rcx, OFFSET FLAT:__DAE328AB_list
  00031	e8 00 00 00 00	 call	 __CheckForDebuggerJustMyCode

; 1791 :         return _Mypair._Get_first();

  00036	48 8b 85 e0 00
	00 00		 mov	 rax, QWORD PTR this$[rbp]
  0003d	48 8b c8	 mov	 rcx, rax
  00040	e8 00 00 00 00	 call	 ?_Get_first@?$_Compressed_pair@V?$allocator@U?$_List_node@UEntry@LT@@PEAX@std@@@std@@V?$_List_val@U?$_List_simple_types@UEntry@LT@@@std@@@2@$00@std@@QEBAAEBV?$allocator@U?$_List_node@UEntry@LT@@PEAX@std@@@2@XZ ; std::_Compressed_pair<std::allocator<std::_List_node<LT::Entry,void *> >,std::_List_val<std::_List_simple_types<LT::Entry> >,1>::_Get_first
  00045	90		 npad	 1

; 1792 :     }

  00046	48 8d a5 c8 00
	00 00		 lea	 rsp, QWORD PTR [rbp+200]
  0004d	5f		 pop	 rdi
  0004e	5d		 pop	 rbp
  0004f	c3		 ret	 0
?_Getal@?$list@UEntry@LT@@V?$allocator@UEntry@LT@@@std@@@std@@AEBAAEBV?$allocator@U?$_List_node@UEntry@LT@@PEAX@std@@@2@XZ ENDP ; std::list<LT::Entry,std::allocator<LT::Entry> >::_Getal
_TEXT	ENDS
; Function compile flags: /Odtp /RTCsu /ZI
; File C:\Program Files (x86)\Microsoft Visual Studio\2019\Enterprise\VC\Tools\MSVC\14.27.29110\include\list
;	COMDAT ?_Getal@?$list@UEntry@LT@@V?$allocator@UEntry@LT@@@std@@@std@@AEAAAEAV?$allocator@U?$_List_node@UEntry@LT@@PEAX@std@@@2@XZ
_TEXT	SEGMENT
this$ = 224
?_Getal@?$list@UEntry@LT@@V?$allocator@UEntry@LT@@@std@@@std@@AEAAAEAV?$allocator@U?$_List_node@UEntry@LT@@PEAX@std@@@2@XZ PROC ; std::list<LT::Entry,std::allocator<LT::Entry> >::_Getal, COMDAT

; 1786 :     _Alnode& _Getal() noexcept {

$LN3:
  00000	48 89 4c 24 08	 mov	 QWORD PTR [rsp+8], rcx
  00005	55		 push	 rbp
  00006	57		 push	 rdi
  00007	48 81 ec e8 00
	00 00		 sub	 rsp, 232		; 000000e8H
  0000e	48 8d 6c 24 20	 lea	 rbp, QWORD PTR [rsp+32]
  00013	48 8b fc	 mov	 rdi, rsp
  00016	b9 3a 00 00 00	 mov	 ecx, 58			; 0000003aH
  0001b	b8 cc cc cc cc	 mov	 eax, -858993460		; ccccccccH
  00020	f3 ab		 rep stosd
  00022	48 8b 8c 24 08
	01 00 00	 mov	 rcx, QWORD PTR [rsp+264]
  0002a	48 8d 0d 00 00
	00 00		 lea	 rcx, OFFSET FLAT:__DAE328AB_list
  00031	e8 00 00 00 00	 call	 __CheckForDebuggerJustMyCode

; 1787 :         return _Mypair._Get_first();

  00036	48 8b 85 e0 00
	00 00		 mov	 rax, QWORD PTR this$[rbp]
  0003d	48 8b c8	 mov	 rcx, rax
  00040	e8 00 00 00 00	 call	 ?_Get_first@?$_Compressed_pair@V?$allocator@U?$_List_node@UEntry@LT@@PEAX@std@@@std@@V?$_List_val@U?$_List_simple_types@UEntry@LT@@@std@@@2@$00@std@@QEAAAEAV?$allocator@U?$_List_node@UEntry@LT@@PEAX@std@@@2@XZ ; std::_Compressed_pair<std::allocator<std::_List_node<LT::Entry,void *> >,std::_List_val<std::_List_simple_types<LT::Entry> >,1>::_Get_first
  00045	90		 npad	 1

; 1788 :     }

  00046	48 8d a5 c8 00
	00 00		 lea	 rsp, QWORD PTR [rbp+200]
  0004d	5f		 pop	 rdi
  0004e	5d		 pop	 rbp
  0004f	c3		 ret	 0
?_Getal@?$list@UEntry@LT@@V?$allocator@UEntry@LT@@@std@@@std@@AEAAAEAV?$allocator@U?$_List_node@UEntry@LT@@PEAX@std@@@2@XZ ENDP ; std::list<LT::Entry,std::allocator<LT::Entry> >::_Getal
_TEXT	ENDS
; Function compile flags: /Odtp /RTCsu /ZI
; File C:\Program Files (x86)\Microsoft Visual Studio\2019\Enterprise\VC\Tools\MSVC\14.27.29110\include\list
;	COMDAT ?_Alloc_sentinel_and_proxy@?$list@UEntry@LT@@V?$allocator@UEntry@LT@@@std@@@std@@AEAAXXZ
_TEXT	SEGMENT
_Alproxy$ = 8
$S14$ = 36
_Proxy$ = 72
_Al$ = 120
_Newhead$ = 152
__$ArrayPad$ = 360
this$ = 400
?_Alloc_sentinel_and_proxy@?$list@UEntry@LT@@V?$allocator@UEntry@LT@@@std@@@std@@AEAAXXZ PROC ; std::list<LT::Entry,std::allocator<LT::Entry> >::_Alloc_sentinel_and_proxy, COMDAT

; 1771 :     void _Alloc_sentinel_and_proxy() {

$LN4:
  00000	48 89 4c 24 08	 mov	 QWORD PTR [rsp+8], rcx
  00005	55		 push	 rbp
  00006	57		 push	 rdi
  00007	48 81 ec 98 01
	00 00		 sub	 rsp, 408		; 00000198H
  0000e	48 8d 6c 24 20	 lea	 rbp, QWORD PTR [rsp+32]
  00013	48 8b fc	 mov	 rdi, rsp
  00016	b9 66 00 00 00	 mov	 ecx, 102		; 00000066H
  0001b	b8 cc cc cc cc	 mov	 eax, -858993460		; ccccccccH
  00020	f3 ab		 rep stosd
  00022	48 8b 8c 24 b8
	01 00 00	 mov	 rcx, QWORD PTR [rsp+440]
  0002a	48 8b 05 00 00
	00 00		 mov	 rax, QWORD PTR __security_cookie
  00031	48 33 c5	 xor	 rax, rbp
  00034	48 89 85 68 01
	00 00		 mov	 QWORD PTR __$ArrayPad$[rbp], rax
  0003b	48 8d 0d 00 00
	00 00		 lea	 rcx, OFFSET FLAT:__DAE328AB_list
  00042	e8 00 00 00 00	 call	 __CheckForDebuggerJustMyCode

; 1772 :         auto&& _Alproxy = _GET_PROXY_ALLOCATOR(_Alnode, _Getal());

  00047	48 8b 8d 90 01
	00 00		 mov	 rcx, QWORD PTR this$[rbp]
  0004e	e8 00 00 00 00	 call	 ?_Getal@?$list@UEntry@LT@@V?$allocator@UEntry@LT@@@std@@@std@@AEAAAEAV?$allocator@U?$_List_node@UEntry@LT@@PEAX@std@@@2@XZ ; std::list<LT::Entry,std::allocator<LT::Entry> >::_Getal
  00053	48 8b d0	 mov	 rdx, rax
  00056	48 8d 4d 24	 lea	 rcx, QWORD PTR $S14$[rbp]
  0005a	e8 00 00 00 00	 call	 ??$?0U?$_List_node@UEntry@LT@@PEAX@std@@@?$allocator@U_Container_proxy@std@@@std@@QEAA@AEBV?$allocator@U?$_List_node@UEntry@LT@@PEAX@std@@@1@@Z ; std::allocator<std::_Container_proxy>::allocator<std::_Container_proxy><std::_List_node<LT::Entry,void *> >
  0005f	48 8d 45 24	 lea	 rax, QWORD PTR $S14$[rbp]
  00063	48 89 45 08	 mov	 QWORD PTR _Alproxy$[rbp], rax

; 1773 :         _Container_proxy_ptr<_Alty> _Proxy(_Alproxy, _Mypair._Myval2);

  00067	48 8b 85 90 01
	00 00		 mov	 rax, QWORD PTR this$[rbp]
  0006e	4c 8b c0	 mov	 r8, rax
  00071	48 8b 55 08	 mov	 rdx, QWORD PTR _Alproxy$[rbp]
  00075	48 8d 4d 48	 lea	 rcx, QWORD PTR _Proxy$[rbp]
  00079	e8 00 00 00 00	 call	 ??0?$_Container_proxy_ptr12@V?$allocator@U_Container_proxy@std@@@std@@@std@@QEAA@AEAV?$allocator@U_Container_proxy@std@@@1@AEAU_Container_base12@1@@Z ; std::_Container_proxy_ptr12<std::allocator<std::_Container_proxy> >::_Container_proxy_ptr12<std::allocator<std::_Container_proxy> >
  0007e	90		 npad	 1

; 1774 :         auto& _Al     = _Getal();

  0007f	48 8b 8d 90 01
	00 00		 mov	 rcx, QWORD PTR this$[rbp]
  00086	e8 00 00 00 00	 call	 ?_Getal@?$list@UEntry@LT@@V?$allocator@UEntry@LT@@@std@@@std@@AEAAAEAV?$allocator@U?$_List_node@UEntry@LT@@PEAX@std@@@2@XZ ; std::list<LT::Entry,std::allocator<LT::Entry> >::_Getal
  0008b	48 89 45 78	 mov	 QWORD PTR _Al$[rbp], rax

; 1775 :         auto _Newhead = _Al.allocate(1);

  0008f	ba 01 00 00 00	 mov	 edx, 1
  00094	48 8b 4d 78	 mov	 rcx, QWORD PTR _Al$[rbp]
  00098	e8 00 00 00 00	 call	 ?allocate@?$allocator@U?$_List_node@UEntry@LT@@PEAX@std@@@std@@QEAAPEAU?$_List_node@UEntry@LT@@PEAX@2@_K@Z ; std::allocator<std::_List_node<LT::Entry,void *> >::allocate
  0009d	48 89 85 98 00
	00 00		 mov	 QWORD PTR _Newhead$[rbp], rax

; 1776 :         _Construct_in_place(_Newhead->_Next, _Newhead);

  000a4	48 8b 85 98 00
	00 00		 mov	 rax, QWORD PTR _Newhead$[rbp]
  000ab	48 8d 95 98 00
	00 00		 lea	 rdx, QWORD PTR _Newhead$[rbp]
  000b2	48 8b c8	 mov	 rcx, rax
  000b5	e8 00 00 00 00	 call	 ??$_Construct_in_place@PEAU?$_List_node@UEntry@LT@@PEAX@std@@AEAPEAU12@@std@@YAXAEAPEAU?$_List_node@UEntry@LT@@PEAX@0@0@Z ; std::_Construct_in_place<std::_List_node<LT::Entry,void *> *,std::_List_node<LT::Entry,void *> * &>

; 1777 :         _Construct_in_place(_Newhead->_Prev, _Newhead);

  000ba	48 8b 85 98 00
	00 00		 mov	 rax, QWORD PTR _Newhead$[rbp]
  000c1	48 83 c0 08	 add	 rax, 8
  000c5	48 8d 95 98 00
	00 00		 lea	 rdx, QWORD PTR _Newhead$[rbp]
  000cc	48 8b c8	 mov	 rcx, rax
  000cf	e8 00 00 00 00	 call	 ??$_Construct_in_place@PEAU?$_List_node@UEntry@LT@@PEAX@std@@AEAPEAU12@@std@@YAXAEAPEAU?$_List_node@UEntry@LT@@PEAX@0@0@Z ; std::_Construct_in_place<std::_List_node<LT::Entry,void *> *,std::_List_node<LT::Entry,void *> * &>

; 1778 :         _Mypair._Myval2._Myhead = _Newhead;

  000d4	48 8b 85 90 01
	00 00		 mov	 rax, QWORD PTR this$[rbp]
  000db	48 8b 8d 98 00
	00 00		 mov	 rcx, QWORD PTR _Newhead$[rbp]
  000e2	48 89 48 08	 mov	 QWORD PTR [rax+8], rcx

; 1779 :         _Proxy._Release();

  000e6	48 8d 4d 48	 lea	 rcx, QWORD PTR _Proxy$[rbp]
  000ea	e8 00 00 00 00	 call	 ?_Release@_Basic_container_proxy_ptr12@std@@QEAAXXZ ; std::_Basic_container_proxy_ptr12::_Release
  000ef	90		 npad	 1

; 1780 :     }

  000f0	48 8d 4d 48	 lea	 rcx, QWORD PTR _Proxy$[rbp]
  000f4	e8 00 00 00 00	 call	 ??1?$_Container_proxy_ptr12@V?$allocator@U_Container_proxy@std@@@std@@@std@@QEAA@XZ ; std::_Container_proxy_ptr12<std::allocator<std::_Container_proxy> >::~_Container_proxy_ptr12<std::allocator<std::_Container_proxy> >
  000f9	48 8d 4d e0	 lea	 rcx, QWORD PTR [rbp-32]
  000fd	48 8d 15 00 00
	00 00		 lea	 rdx, OFFSET FLAT:?_Alloc_sentinel_and_proxy@?$list@UEntry@LT@@V?$allocator@UEntry@LT@@@std@@@std@@AEAAXXZ$rtcFrameData
  00104	e8 00 00 00 00	 call	 _RTC_CheckStackVars
  00109	48 8b 8d 68 01
	00 00		 mov	 rcx, QWORD PTR __$ArrayPad$[rbp]
  00110	48 33 cd	 xor	 rcx, rbp
  00113	e8 00 00 00 00	 call	 __security_check_cookie
  00118	48 8d a5 78 01
	00 00		 lea	 rsp, QWORD PTR [rbp+376]
  0011f	5f		 pop	 rdi
  00120	5d		 pop	 rbp
  00121	c3		 ret	 0
?_Alloc_sentinel_and_proxy@?$list@UEntry@LT@@V?$allocator@UEntry@LT@@@std@@@std@@AEAAXXZ ENDP ; std::list<LT::Entry,std::allocator<LT::Entry> >::_Alloc_sentinel_and_proxy
_TEXT	ENDS
;	COMDAT text$x
text$x	SEGMENT
_Alproxy$ = 8
$S14$ = 36
_Proxy$ = 72
_Al$ = 120
_Newhead$ = 152
__$ArrayPad$ = 360
this$ = 400
?dtor$0@?0??_Alloc_sentinel_and_proxy@?$list@UEntry@LT@@V?$allocator@UEntry@LT@@@std@@@std@@AEAAXXZ@4HA PROC ; `std::list<LT::Entry,std::allocator<LT::Entry> >::_Alloc_sentinel_and_proxy'::`1'::dtor$0
  00000	48 89 4c 24 08	 mov	 QWORD PTR [rsp+8], rcx
  00005	48 89 54 24 10	 mov	 QWORD PTR [rsp+16], rdx
  0000a	55		 push	 rbp
  0000b	57		 push	 rdi
  0000c	48 83 ec 28	 sub	 rsp, 40			; 00000028H
  00010	48 8d 6a 20	 lea	 rbp, QWORD PTR [rdx+32]
  00014	48 8d 4d 48	 lea	 rcx, QWORD PTR _Proxy$[rbp]
  00018	e8 00 00 00 00	 call	 ??1?$_Container_proxy_ptr12@V?$allocator@U_Container_proxy@std@@@std@@@std@@QEAA@XZ ; std::_Container_proxy_ptr12<std::allocator<std::_Container_proxy> >::~_Container_proxy_ptr12<std::allocator<std::_Container_proxy> >
  0001d	48 83 c4 28	 add	 rsp, 40			; 00000028H
  00021	5f		 pop	 rdi
  00022	5d		 pop	 rbp
  00023	c3		 ret	 0
?dtor$0@?0??_Alloc_sentinel_and_proxy@?$list@UEntry@LT@@V?$allocator@UEntry@LT@@@std@@@std@@AEAAXXZ@4HA ENDP ; `std::list<LT::Entry,std::allocator<LT::Entry> >::_Alloc_sentinel_and_proxy'::`1'::dtor$0
text$x	ENDS
; Function compile flags: /Odtp /RTCsu /ZI
;	COMDAT text$x
text$x	SEGMENT
_Alproxy$ = 8
$S14$ = 36
_Proxy$ = 72
_Al$ = 120
_Newhead$ = 152
__$ArrayPad$ = 360
this$ = 400
?dtor$0@?0??_Alloc_sentinel_and_proxy@?$list@UEntry@LT@@V?$allocator@UEntry@LT@@@std@@@std@@AEAAXXZ@4HA PROC ; `std::list<LT::Entry,std::allocator<LT::Entry> >::_Alloc_sentinel_and_proxy'::`1'::dtor$0
  00000	48 89 4c 24 08	 mov	 QWORD PTR [rsp+8], rcx
  00005	48 89 54 24 10	 mov	 QWORD PTR [rsp+16], rdx
  0000a	55		 push	 rbp
  0000b	57		 push	 rdi
  0000c	48 83 ec 28	 sub	 rsp, 40			; 00000028H
  00010	48 8d 6a 20	 lea	 rbp, QWORD PTR [rdx+32]
  00014	48 8d 4d 48	 lea	 rcx, QWORD PTR _Proxy$[rbp]
  00018	e8 00 00 00 00	 call	 ??1?$_Container_proxy_ptr12@V?$allocator@U_Container_proxy@std@@@std@@@std@@QEAA@XZ ; std::_Container_proxy_ptr12<std::allocator<std::_Container_proxy> >::~_Container_proxy_ptr12<std::allocator<std::_Container_proxy> >
  0001d	48 83 c4 28	 add	 rsp, 40			; 00000028H
  00021	5f		 pop	 rdi
  00022	5d		 pop	 rbp
  00023	c3		 ret	 0
?dtor$0@?0??_Alloc_sentinel_and_proxy@?$list@UEntry@LT@@V?$allocator@UEntry@LT@@@std@@@std@@AEAAXXZ@4HA ENDP ; `std::list<LT::Entry,std::allocator<LT::Entry> >::_Alloc_sentinel_and_proxy'::`1'::dtor$0
text$x	ENDS
; Function compile flags: /Odtp /RTCsu /ZI
; File C:\Program Files (x86)\Microsoft Visual Studio\2019\Enterprise\VC\Tools\MSVC\14.27.29110\include\list
;	COMDAT ?_Tidy@?$list@UEntry@LT@@V?$allocator@UEntry@LT@@@std@@@std@@AEAAXXZ
_TEXT	SEGMENT
_Al$ = 8
_My_data$ = 40
this$ = 288
?_Tidy@?$list@UEntry@LT@@V?$allocator@UEntry@LT@@@std@@@std@@AEAAXXZ PROC ; std::list<LT::Entry,std::allocator<LT::Entry> >::_Tidy, COMDAT

; 1436 :     void _Tidy() noexcept {

$LN3:
  00000	48 89 4c 24 08	 mov	 QWORD PTR [rsp+8], rcx
  00005	55		 push	 rbp
  00006	57		 push	 rdi
  00007	48 81 ec 28 01
	00 00		 sub	 rsp, 296		; 00000128H
  0000e	48 8d 6c 24 20	 lea	 rbp, QWORD PTR [rsp+32]
  00013	48 8b fc	 mov	 rdi, rsp
  00016	b9 4a 00 00 00	 mov	 ecx, 74			; 0000004aH
  0001b	b8 cc cc cc cc	 mov	 eax, -858993460		; ccccccccH
  00020	f3 ab		 rep stosd
  00022	48 8b 8c 24 48
	01 00 00	 mov	 rcx, QWORD PTR [rsp+328]
  0002a	48 8d 0d 00 00
	00 00		 lea	 rcx, OFFSET FLAT:__DAE328AB_list
  00031	e8 00 00 00 00	 call	 __CheckForDebuggerJustMyCode

; 1437 :         auto& _Al      = _Getal();

  00036	48 8b 8d 20 01
	00 00		 mov	 rcx, QWORD PTR this$[rbp]
  0003d	e8 00 00 00 00	 call	 ?_Getal@?$list@UEntry@LT@@V?$allocator@UEntry@LT@@@std@@@std@@AEAAAEAV?$allocator@U?$_List_node@UEntry@LT@@PEAX@std@@@2@XZ ; std::list<LT::Entry,std::allocator<LT::Entry> >::_Getal
  00042	48 89 45 08	 mov	 QWORD PTR _Al$[rbp], rax

; 1438 :         auto& _My_data = _Mypair._Myval2;

  00046	48 8b 85 20 01
	00 00		 mov	 rax, QWORD PTR this$[rbp]
  0004d	48 89 45 28	 mov	 QWORD PTR _My_data$[rbp], rax

; 1439 :         _My_data._Orphan_all();

  00051	48 8b 4d 28	 mov	 rcx, QWORD PTR _My_data$[rbp]
  00055	e8 00 00 00 00	 call	 ?_Orphan_all@_Container_base12@std@@QEAAXXZ ; std::_Container_base12::_Orphan_all

; 1440 :         _Node::_Free_non_head(_Al, _My_data._Myhead);

  0005a	48 8b 45 28	 mov	 rax, QWORD PTR _My_data$[rbp]
  0005e	48 8b 50 08	 mov	 rdx, QWORD PTR [rax+8]
  00062	48 8b 4d 08	 mov	 rcx, QWORD PTR _Al$[rbp]
  00066	e8 00 00 00 00	 call	 ??$_Free_non_head@V?$allocator@U?$_List_node@UEntry@LT@@PEAX@std@@@std@@@?$_List_node@UEntry@LT@@PEAX@std@@SAXAEAV?$allocator@U?$_List_node@UEntry@LT@@PEAX@std@@@1@PEAU01@@Z ; std::_List_node<LT::Entry,void *>::_Free_non_head<std::allocator<std::_List_node<LT::Entry,void *> > >

; 1441 :         _Node::_Freenode0(_Al, _My_data._Myhead);

  0006b	48 8b 45 28	 mov	 rax, QWORD PTR _My_data$[rbp]
  0006f	48 8b 50 08	 mov	 rdx, QWORD PTR [rax+8]
  00073	48 8b 4d 08	 mov	 rcx, QWORD PTR _Al$[rbp]
  00077	e8 00 00 00 00	 call	 ??$_Freenode0@V?$allocator@U?$_List_node@UEntry@LT@@PEAX@std@@@std@@@?$_List_node@UEntry@LT@@PEAX@std@@SAXAEAV?$allocator@U?$_List_node@UEntry@LT@@PEAX@std@@@1@PEAU01@@Z ; std::_List_node<LT::Entry,void *>::_Freenode0<std::allocator<std::_List_node<LT::Entry,void *> > >
  0007c	90		 npad	 1

; 1442 :     }

  0007d	48 8d a5 08 01
	00 00		 lea	 rsp, QWORD PTR [rbp+264]
  00084	5f		 pop	 rdi
  00085	5d		 pop	 rbp
  00086	c3		 ret	 0
?_Tidy@?$list@UEntry@LT@@V?$allocator@UEntry@LT@@@std@@@std@@AEAAXXZ ENDP ; std::list<LT::Entry,std::allocator<LT::Entry> >::_Tidy
_TEXT	ENDS
; Function compile flags: /Odtp /RTCsu /ZI
; File C:\Program Files (x86)\Microsoft Visual Studio\2019\Enterprise\VC\Tools\MSVC\14.27.29110\include\list
;	COMDAT ?_Unchecked_erase@?$list@UEntry@LT@@V?$allocator@UEntry@LT@@@std@@@std@@AEAAPEAU?$_List_node@UEntry@LT@@PEAX@2@QEAU32@@Z
_TEXT	SEGMENT
_Result$ = 8
this$ = 256
_Pnode$ = 264
?_Unchecked_erase@?$list@UEntry@LT@@V?$allocator@UEntry@LT@@@std@@@std@@AEAAPEAU?$_List_node@UEntry@LT@@PEAX@2@QEAU32@@Z PROC ; std::list<LT::Entry,std::allocator<LT::Entry> >::_Unchecked_erase, COMDAT

; 1359 :     _Nodeptr _Unchecked_erase(const _Nodeptr _Pnode) noexcept { // erase element at _Pnode

$LN3:
  00000	48 89 54 24 10	 mov	 QWORD PTR [rsp+16], rdx
  00005	48 89 4c 24 08	 mov	 QWORD PTR [rsp+8], rcx
  0000a	55		 push	 rbp
  0000b	57		 push	 rdi
  0000c	48 81 ec 08 01
	00 00		 sub	 rsp, 264		; 00000108H
  00013	48 8d 6c 24 20	 lea	 rbp, QWORD PTR [rsp+32]
  00018	48 8b fc	 mov	 rdi, rsp
  0001b	b9 42 00 00 00	 mov	 ecx, 66			; 00000042H
  00020	b8 cc cc cc cc	 mov	 eax, -858993460		; ccccccccH
  00025	f3 ab		 rep stosd
  00027	48 8b 8c 24 28
	01 00 00	 mov	 rcx, QWORD PTR [rsp+296]
  0002f	48 8d 0d 00 00
	00 00		 lea	 rcx, OFFSET FLAT:__DAE328AB_list
  00036	e8 00 00 00 00	 call	 __CheckForDebuggerJustMyCode

; 1360 :         const auto _Result = _Pnode->_Next;

  0003b	48 8b 85 08 01
	00 00		 mov	 rax, QWORD PTR _Pnode$[rbp]
  00042	48 8b 00	 mov	 rax, QWORD PTR [rax]
  00045	48 89 45 08	 mov	 QWORD PTR _Result$[rbp], rax

; 1361 :         _Mypair._Myval2._Orphan_ptr2(_Pnode);

  00049	48 8b 85 00 01
	00 00		 mov	 rax, QWORD PTR this$[rbp]
  00050	48 8b 95 08 01
	00 00		 mov	 rdx, QWORD PTR _Pnode$[rbp]
  00057	48 8b c8	 mov	 rcx, rax
  0005a	e8 00 00 00 00	 call	 ?_Orphan_ptr2@?$_List_val@U?$_List_simple_types@UEntry@LT@@@std@@@std@@QEAAXPEAU?$_List_node@UEntry@LT@@PEAX@2@@Z ; std::_List_val<std::_List_simple_types<LT::Entry> >::_Orphan_ptr2

; 1362 :         --_Mypair._Myval2._Mysize;

  0005f	48 8b 85 00 01
	00 00		 mov	 rax, QWORD PTR this$[rbp]
  00066	48 8b 40 10	 mov	 rax, QWORD PTR [rax+16]
  0006a	48 ff c8	 dec	 rax
  0006d	48 8b 8d 00 01
	00 00		 mov	 rcx, QWORD PTR this$[rbp]
  00074	48 89 41 10	 mov	 QWORD PTR [rcx+16], rax

; 1363 :         _Pnode->_Prev->_Next = _Result;

  00078	48 8b 85 08 01
	00 00		 mov	 rax, QWORD PTR _Pnode$[rbp]
  0007f	48 8b 40 08	 mov	 rax, QWORD PTR [rax+8]
  00083	48 8b 4d 08	 mov	 rcx, QWORD PTR _Result$[rbp]
  00087	48 89 08	 mov	 QWORD PTR [rax], rcx

; 1364 :         _Result->_Prev       = _Pnode->_Prev;

  0008a	48 8b 45 08	 mov	 rax, QWORD PTR _Result$[rbp]
  0008e	48 8b 8d 08 01
	00 00		 mov	 rcx, QWORD PTR _Pnode$[rbp]
  00095	48 8b 49 08	 mov	 rcx, QWORD PTR [rcx+8]
  00099	48 89 48 08	 mov	 QWORD PTR [rax+8], rcx

; 1365 :         _Node::_Freenode(_Getal(), _Pnode);

  0009d	48 8b 8d 00 01
	00 00		 mov	 rcx, QWORD PTR this$[rbp]
  000a4	e8 00 00 00 00	 call	 ?_Getal@?$list@UEntry@LT@@V?$allocator@UEntry@LT@@@std@@@std@@AEAAAEAV?$allocator@U?$_List_node@UEntry@LT@@PEAX@std@@@2@XZ ; std::list<LT::Entry,std::allocator<LT::Entry> >::_Getal
  000a9	48 8b 95 08 01
	00 00		 mov	 rdx, QWORD PTR _Pnode$[rbp]
  000b0	48 8b c8	 mov	 rcx, rax
  000b3	e8 00 00 00 00	 call	 ??$_Freenode@V?$allocator@U?$_List_node@UEntry@LT@@PEAX@std@@@std@@@?$_List_node@UEntry@LT@@PEAX@std@@SAXAEAV?$allocator@U?$_List_node@UEntry@LT@@PEAX@std@@@1@PEAU01@@Z ; std::_List_node<LT::Entry,void *>::_Freenode<std::allocator<std::_List_node<LT::Entry,void *> > >

; 1366 :         return _Result;

  000b8	48 8b 45 08	 mov	 rax, QWORD PTR _Result$[rbp]

; 1367 :     }

  000bc	48 8d a5 e8 00
	00 00		 lea	 rsp, QWORD PTR [rbp+232]
  000c3	5f		 pop	 rdi
  000c4	5d		 pop	 rbp
  000c5	c3		 ret	 0
?_Unchecked_erase@?$list@UEntry@LT@@V?$allocator@UEntry@LT@@@std@@@std@@AEAAPEAU?$_List_node@UEntry@LT@@PEAX@2@QEAU32@@Z ENDP ; std::list<LT::Entry,std::allocator<LT::Entry> >::_Unchecked_erase
_TEXT	ENDS
; Function compile flags: /Odtp /RTCsu /ZI
; File C:\Program Files (x86)\Microsoft Visual Studio\2019\Enterprise\VC\Tools\MSVC\14.27.29110\include\list
;	COMDAT ?push_back@?$list@UEntry@LT@@V?$allocator@UEntry@LT@@@std@@@std@@QEAAXAEBUEntry@LT@@@Z
_TEXT	SEGMENT
this$ = 224
_Val$ = 232
?push_back@?$list@UEntry@LT@@V?$allocator@UEntry@LT@@@std@@@std@@QEAAXAEBUEntry@LT@@@Z PROC ; std::list<LT::Entry,std::allocator<LT::Entry> >::push_back, COMDAT

; 1251 :     void push_back(const _Ty& _Val) {

$LN3:
  00000	48 89 54 24 10	 mov	 QWORD PTR [rsp+16], rdx
  00005	48 89 4c 24 08	 mov	 QWORD PTR [rsp+8], rcx
  0000a	55		 push	 rbp
  0000b	57		 push	 rdi
  0000c	48 81 ec e8 00
	00 00		 sub	 rsp, 232		; 000000e8H
  00013	48 8d 6c 24 20	 lea	 rbp, QWORD PTR [rsp+32]
  00018	48 8b fc	 mov	 rdi, rsp
  0001b	b9 3a 00 00 00	 mov	 ecx, 58			; 0000003aH
  00020	b8 cc cc cc cc	 mov	 eax, -858993460		; ccccccccH
  00025	f3 ab		 rep stosd
  00027	48 8b 8c 24 08
	01 00 00	 mov	 rcx, QWORD PTR [rsp+264]
  0002f	48 8d 0d 00 00
	00 00		 lea	 rcx, OFFSET FLAT:__DAE328AB_list
  00036	e8 00 00 00 00	 call	 __CheckForDebuggerJustMyCode

; 1252 :         _Emplace(_Mypair._Myval2._Myhead, _Val);

  0003b	4c 8b 85 e8 00
	00 00		 mov	 r8, QWORD PTR _Val$[rbp]
  00042	48 8b 85 e0 00
	00 00		 mov	 rax, QWORD PTR this$[rbp]
  00049	48 8b 50 08	 mov	 rdx, QWORD PTR [rax+8]
  0004d	48 8b 8d e0 00
	00 00		 mov	 rcx, QWORD PTR this$[rbp]
  00054	e8 00 00 00 00	 call	 ??$_Emplace@AEBUEntry@LT@@@?$list@UEntry@LT@@V?$allocator@UEntry@LT@@@std@@@std@@QEAAPEAU?$_List_node@UEntry@LT@@PEAX@1@QEAU21@AEBUEntry@LT@@@Z ; std::list<LT::Entry,std::allocator<LT::Entry> >::_Emplace<LT::Entry const &>

; 1253 :     }

  00059	48 8d a5 c8 00
	00 00		 lea	 rsp, QWORD PTR [rbp+200]
  00060	5f		 pop	 rdi
  00061	5d		 pop	 rbp
  00062	c3		 ret	 0
?push_back@?$list@UEntry@LT@@V?$allocator@UEntry@LT@@@std@@@std@@QEAAXAEBUEntry@LT@@@Z ENDP ; std::list<LT::Entry,std::allocator<LT::Entry> >::push_back
_TEXT	ENDS
; Function compile flags: /Odtp /RTCsu /ZI
; File C:\Program Files (x86)\Microsoft Visual Studio\2019\Enterprise\VC\Tools\MSVC\14.27.29110\include\list
;	COMDAT ?pop_front@?$list@UEntry@LT@@V?$allocator@UEntry@LT@@@std@@@std@@QEAAXXZ
_TEXT	SEGMENT
this$ = 224
?pop_front@?$list@UEntry@LT@@V?$allocator@UEntry@LT@@@std@@@std@@QEAAXXZ PROC ; std::list<LT::Entry,std::allocator<LT::Entry> >::pop_front, COMDAT

; 1243 :     void pop_front() noexcept /* strengthened */ {

$LN12:
  00000	48 89 4c 24 08	 mov	 QWORD PTR [rsp+8], rcx
  00005	55		 push	 rbp
  00006	57		 push	 rdi
  00007	48 81 ec f8 00
	00 00		 sub	 rsp, 248		; 000000f8H
  0000e	48 8d 6c 24 30	 lea	 rbp, QWORD PTR [rsp+48]
  00013	48 8b fc	 mov	 rdi, rsp
  00016	b9 3e 00 00 00	 mov	 ecx, 62			; 0000003eH
  0001b	b8 cc cc cc cc	 mov	 eax, -858993460		; ccccccccH
  00020	f3 ab		 rep stosd
  00022	48 8b 8c 24 18
	01 00 00	 mov	 rcx, QWORD PTR [rsp+280]
  0002a	48 8d 0d 00 00
	00 00		 lea	 rcx, OFFSET FLAT:__DAE328AB_list
  00031	e8 00 00 00 00	 call	 __CheckForDebuggerJustMyCode
$LN4@pop_front:

; 1244 : #if _CONTAINER_DEBUG_LEVEL > 0
; 1245 :         _STL_VERIFY(_Mypair._Myval2._Mysize != 0, "pop_front called on empty list");

  00036	48 8b 85 e0 00
	00 00		 mov	 rax, QWORD PTR this$[rbp]
  0003d	48 83 78 10 00	 cmp	 QWORD PTR [rax+16], 0
  00042	74 02		 je	 SHORT $LN7@pop_front
  00044	eb 6b		 jmp	 SHORT $LN9@pop_front
$LN7@pop_front:
  00046	48 8d 05 00 00
	00 00		 lea	 rax, OFFSET FLAT:??_C@_0BP@IEHBKPNI@pop_front?5called?5on?5empty?5list@
  0004d	48 89 44 24 28	 mov	 QWORD PTR [rsp+40], rax
  00052	48 8d 05 00 00
	00 00		 lea	 rax, OFFSET FLAT:??_C@_02DKCKIIND@?$CFs@
  00059	48 89 44 24 20	 mov	 QWORD PTR [rsp+32], rax
  0005e	45 33 c9	 xor	 r9d, r9d
  00061	41 b8 dd 04 00
	00		 mov	 r8d, 1245		; 000004ddH
  00067	48 8d 15 00 00
	00 00		 lea	 rdx, OFFSET FLAT:??_C@_0GG@LMOKLFIB@C?3?2Program?5Files?5?$CIx86?$CJ?2Microsof@
  0006e	b9 02 00 00 00	 mov	 ecx, 2
  00073	ff 15 00 00 00
	00		 call	 QWORD PTR __imp__CrtDbgReport
  00079	83 f8 01	 cmp	 eax, 1
  0007c	75 03		 jne	 SHORT $LN11@pop_front
  0007e	cc		 int	 3
  0007f	33 c0		 xor	 eax, eax
$LN11@pop_front:
  00081	48 c7 44 24 20
	00 00 00 00	 mov	 QWORD PTR [rsp+32], 0
  0008a	41 b9 dd 04 00
	00		 mov	 r9d, 1245		; 000004ddH
  00090	4c 8d 05 00 00
	00 00		 lea	 r8, OFFSET FLAT:??_C@_1MM@MBGLLEPM@?$AAC?$AA?3?$AA?2?$AAP?$AAr?$AAo?$AAg?$AAr?$AAa?$AAm?$AA?5?$AAF?$AAi?$AAl?$AAe@
  00097	48 8d 15 00 00
	00 00		 lea	 rdx, OFFSET FLAT:??_C@_1JO@OELGKGEE@?$AAs?$AAt?$AAd?$AA?3?$AA?3?$AAl?$AAi?$AAs?$AAt?$AA?$DM?$AAs?$AAt?$AAr?$AAu?$AAc@
  0009e	48 8d 0d 00 00
	00 00		 lea	 rcx, OFFSET FLAT:??_C@_1EC@POEKFLJM@?$AA?$CC?$AAp?$AAo?$AAp?$AA_?$AAf?$AAr?$AAo?$AAn?$AAt?$AA?5?$AAc?$AAa?$AAl?$AAl@
  000a5	ff 15 00 00 00
	00		 call	 QWORD PTR __imp__invalid_parameter
  000ab	33 c0		 xor	 eax, eax
  000ad	85 c0		 test	 eax, eax
  000af	75 95		 jne	 SHORT $LN7@pop_front
$LN9@pop_front:
  000b1	33 c0		 xor	 eax, eax
  000b3	85 c0		 test	 eax, eax
  000b5	0f 85 7b ff ff
	ff		 jne	 $LN4@pop_front

; 1246 : #endif // _CONTAINER_DEBUG_LEVEL > 0
; 1247 : 
; 1248 :         _Unchecked_erase(_Mypair._Myval2._Myhead->_Next);

  000bb	48 8b 85 e0 00
	00 00		 mov	 rax, QWORD PTR this$[rbp]
  000c2	48 8b 40 08	 mov	 rax, QWORD PTR [rax+8]
  000c6	48 8b 10	 mov	 rdx, QWORD PTR [rax]
  000c9	48 8b 8d e0 00
	00 00		 mov	 rcx, QWORD PTR this$[rbp]
  000d0	e8 00 00 00 00	 call	 ?_Unchecked_erase@?$list@UEntry@LT@@V?$allocator@UEntry@LT@@@std@@@std@@AEAAPEAU?$_List_node@UEntry@LT@@PEAX@2@QEAU32@@Z ; std::list<LT::Entry,std::allocator<LT::Entry> >::_Unchecked_erase
  000d5	90		 npad	 1

; 1249 :     }

  000d6	48 8d a5 c8 00
	00 00		 lea	 rsp, QWORD PTR [rbp+200]
  000dd	5f		 pop	 rdi
  000de	5d		 pop	 rbp
  000df	c3		 ret	 0
?pop_front@?$list@UEntry@LT@@V?$allocator@UEntry@LT@@@std@@@std@@QEAAXXZ ENDP ; std::list<LT::Entry,std::allocator<LT::Entry> >::pop_front
_TEXT	ENDS
; Function compile flags: /Odtp /RTCsu /ZI
; File C:\Program Files (x86)\Microsoft Visual Studio\2019\Enterprise\VC\Tools\MSVC\14.27.29110\include\list
;	COMDAT ?front@?$list@UEntry@LT@@V?$allocator@UEntry@LT@@@std@@@std@@QEAAAEAUEntry@LT@@XZ
_TEXT	SEGMENT
this$ = 224
?front@?$list@UEntry@LT@@V?$allocator@UEntry@LT@@@std@@@std@@QEAAAEAUEntry@LT@@XZ PROC ; std::list<LT::Entry,std::allocator<LT::Entry> >::front, COMDAT

; 1207 :     _NODISCARD reference front() noexcept /* strengthened */ {

$LN12:
  00000	48 89 4c 24 08	 mov	 QWORD PTR [rsp+8], rcx
  00005	55		 push	 rbp
  00006	57		 push	 rdi
  00007	48 81 ec f8 00
	00 00		 sub	 rsp, 248		; 000000f8H
  0000e	48 8d 6c 24 30	 lea	 rbp, QWORD PTR [rsp+48]
  00013	48 8b fc	 mov	 rdi, rsp
  00016	b9 3e 00 00 00	 mov	 ecx, 62			; 0000003eH
  0001b	b8 cc cc cc cc	 mov	 eax, -858993460		; ccccccccH
  00020	f3 ab		 rep stosd
  00022	48 8b 8c 24 18
	01 00 00	 mov	 rcx, QWORD PTR [rsp+280]
  0002a	48 8d 0d 00 00
	00 00		 lea	 rcx, OFFSET FLAT:__DAE328AB_list
  00031	e8 00 00 00 00	 call	 __CheckForDebuggerJustMyCode
$LN4@front:

; 1208 : #if _CONTAINER_DEBUG_LEVEL > 0
; 1209 :         _STL_VERIFY(_Mypair._Myval2._Mysize != 0, "front() called on empty list");

  00036	48 8b 85 e0 00
	00 00		 mov	 rax, QWORD PTR this$[rbp]
  0003d	48 83 78 10 00	 cmp	 QWORD PTR [rax+16], 0
  00042	74 02		 je	 SHORT $LN7@front
  00044	eb 6b		 jmp	 SHORT $LN9@front
$LN7@front:
  00046	48 8d 05 00 00
	00 00		 lea	 rax, OFFSET FLAT:??_C@_0BN@GOIPFJJH@front?$CI?$CJ?5called?5on?5empty?5list@
  0004d	48 89 44 24 28	 mov	 QWORD PTR [rsp+40], rax
  00052	48 8d 05 00 00
	00 00		 lea	 rax, OFFSET FLAT:??_C@_02DKCKIIND@?$CFs@
  00059	48 89 44 24 20	 mov	 QWORD PTR [rsp+32], rax
  0005e	45 33 c9	 xor	 r9d, r9d
  00061	41 b8 b9 04 00
	00		 mov	 r8d, 1209		; 000004b9H
  00067	48 8d 15 00 00
	00 00		 lea	 rdx, OFFSET FLAT:??_C@_0GG@LMOKLFIB@C?3?2Program?5Files?5?$CIx86?$CJ?2Microsof@
  0006e	b9 02 00 00 00	 mov	 ecx, 2
  00073	ff 15 00 00 00
	00		 call	 QWORD PTR __imp__CrtDbgReport
  00079	83 f8 01	 cmp	 eax, 1
  0007c	75 03		 jne	 SHORT $LN11@front
  0007e	cc		 int	 3
  0007f	33 c0		 xor	 eax, eax
$LN11@front:
  00081	48 c7 44 24 20
	00 00 00 00	 mov	 QWORD PTR [rsp+32], 0
  0008a	41 b9 b9 04 00
	00		 mov	 r9d, 1209		; 000004b9H
  00090	4c 8d 05 00 00
	00 00		 lea	 r8, OFFSET FLAT:??_C@_1MM@MBGLLEPM@?$AAC?$AA?3?$AA?2?$AAP?$AAr?$AAo?$AAg?$AAr?$AAa?$AAm?$AA?5?$AAF?$AAi?$AAl?$AAe@
  00097	48 8d 15 00 00
	00 00		 lea	 rdx, OFFSET FLAT:??_C@_1JG@CLHEJMNG@?$AAs?$AAt?$AAd?$AA?3?$AA?3?$AAl?$AAi?$AAs?$AAt?$AA?$DM?$AAs?$AAt?$AAr?$AAu?$AAc@
  0009e	48 8d 0d 00 00
	00 00		 lea	 rcx, OFFSET FLAT:??_C@_1DO@HIOMABHK@?$AA?$CC?$AAf?$AAr?$AAo?$AAn?$AAt?$AA?$CI?$AA?$CJ?$AA?5?$AAc?$AAa?$AAl?$AAl?$AAe?$AAd@
  000a5	ff 15 00 00 00
	00		 call	 QWORD PTR __imp__invalid_parameter
  000ab	33 c0		 xor	 eax, eax
  000ad	85 c0		 test	 eax, eax
  000af	75 95		 jne	 SHORT $LN7@front
$LN9@front:
  000b1	33 c0		 xor	 eax, eax
  000b3	85 c0		 test	 eax, eax
  000b5	0f 85 7b ff ff
	ff		 jne	 $LN4@front

; 1210 : #endif // _CONTAINER_DEBUG_LEVEL > 0
; 1211 : 
; 1212 :         return _Mypair._Myval2._Myhead->_Next->_Myval;

  000bb	48 8b 85 e0 00
	00 00		 mov	 rax, QWORD PTR this$[rbp]
  000c2	48 8b 40 08	 mov	 rax, QWORD PTR [rax+8]
  000c6	48 8b 00	 mov	 rax, QWORD PTR [rax]
  000c9	48 83 c0 10	 add	 rax, 16

; 1213 :     }

  000cd	48 8d a5 c8 00
	00 00		 lea	 rsp, QWORD PTR [rbp+200]
  000d4	5f		 pop	 rdi
  000d5	5d		 pop	 rbp
  000d6	c3		 ret	 0
?front@?$list@UEntry@LT@@V?$allocator@UEntry@LT@@@std@@@std@@QEAAAEAUEntry@LT@@XZ ENDP ; std::list<LT::Entry,std::allocator<LT::Entry> >::front
_TEXT	ENDS
; Function compile flags: /Odtp /RTCsu /ZI
; File C:\Program Files (x86)\Microsoft Visual Studio\2019\Enterprise\VC\Tools\MSVC\14.27.29110\include\list
;	COMDAT ?empty@?$list@UEntry@LT@@V?$allocator@UEntry@LT@@@std@@@std@@QEBA_NXZ
_TEXT	SEGMENT
tv68 = 192
this$ = 240
?empty@?$list@UEntry@LT@@V?$allocator@UEntry@LT@@@std@@@std@@QEBA_NXZ PROC ; std::list<LT::Entry,std::allocator<LT::Entry> >::empty, COMDAT

; 1199 :     _NODISCARD bool empty() const noexcept {

$LN5:
  00000	48 89 4c 24 08	 mov	 QWORD PTR [rsp+8], rcx
  00005	55		 push	 rbp
  00006	57		 push	 rdi
  00007	48 81 ec f8 00
	00 00		 sub	 rsp, 248		; 000000f8H
  0000e	48 8d 6c 24 20	 lea	 rbp, QWORD PTR [rsp+32]
  00013	48 8b fc	 mov	 rdi, rsp
  00016	b9 3e 00 00 00	 mov	 ecx, 62			; 0000003eH
  0001b	b8 cc cc cc cc	 mov	 eax, -858993460		; ccccccccH
  00020	f3 ab		 rep stosd
  00022	48 8b 8c 24 18
	01 00 00	 mov	 rcx, QWORD PTR [rsp+280]
  0002a	48 8d 0d 00 00
	00 00		 lea	 rcx, OFFSET FLAT:__DAE328AB_list
  00031	e8 00 00 00 00	 call	 __CheckForDebuggerJustMyCode

; 1200 :         return _Mypair._Myval2._Mysize == 0;

  00036	48 8b 85 f0 00
	00 00		 mov	 rax, QWORD PTR this$[rbp]
  0003d	48 83 78 10 00	 cmp	 QWORD PTR [rax+16], 0
  00042	75 0c		 jne	 SHORT $LN3@empty
  00044	c7 85 c0 00 00
	00 01 00 00 00	 mov	 DWORD PTR tv68[rbp], 1
  0004e	eb 0a		 jmp	 SHORT $LN4@empty
$LN3@empty:
  00050	c7 85 c0 00 00
	00 00 00 00 00	 mov	 DWORD PTR tv68[rbp], 0
$LN4@empty:
  0005a	0f b6 85 c0 00
	00 00		 movzx	 eax, BYTE PTR tv68[rbp]

; 1201 :     }

  00061	48 8d a5 d8 00
	00 00		 lea	 rsp, QWORD PTR [rbp+216]
  00068	5f		 pop	 rdi
  00069	5d		 pop	 rbp
  0006a	c3		 ret	 0
?empty@?$list@UEntry@LT@@V?$allocator@UEntry@LT@@@std@@@std@@QEBA_NXZ ENDP ; std::list<LT::Entry,std::allocator<LT::Entry> >::empty
_TEXT	ENDS
; Function compile flags: /Odtp /RTCsu /ZI
; File C:\Program Files (x86)\Microsoft Visual Studio\2019\Enterprise\VC\Tools\MSVC\14.27.29110\include\list
;	COMDAT ?max_size@?$list@UEntry@LT@@V?$allocator@UEntry@LT@@@std@@@std@@QEBA_KXZ
_TEXT	SEGMENT
$T1 = 200
$T2 = 232
this$ = 288
?max_size@?$list@UEntry@LT@@V?$allocator@UEntry@LT@@@std@@@std@@QEBA_KXZ PROC ; std::list<LT::Entry,std::allocator<LT::Entry> >::max_size, COMDAT

; 1194 :     _NODISCARD size_type max_size() const noexcept {

$LN3:
  00000	48 89 4c 24 08	 mov	 QWORD PTR [rsp+8], rcx
  00005	55		 push	 rbp
  00006	57		 push	 rdi
  00007	48 81 ec 28 01
	00 00		 sub	 rsp, 296		; 00000128H
  0000e	48 8d 6c 24 20	 lea	 rbp, QWORD PTR [rsp+32]
  00013	48 8b fc	 mov	 rdi, rsp
  00016	b9 4a 00 00 00	 mov	 ecx, 74			; 0000004aH
  0001b	b8 cc cc cc cc	 mov	 eax, -858993460		; ccccccccH
  00020	f3 ab		 rep stosd
  00022	48 8b 8c 24 48
	01 00 00	 mov	 rcx, QWORD PTR [rsp+328]
  0002a	48 8d 0d 00 00
	00 00		 lea	 rcx, OFFSET FLAT:__DAE328AB_list
  00031	e8 00 00 00 00	 call	 __CheckForDebuggerJustMyCode

; 1195 :         return (_STD min)(

  00036	48 8b 8d 20 01
	00 00		 mov	 rcx, QWORD PTR this$[rbp]
  0003d	e8 00 00 00 00	 call	 ?_Getal@?$list@UEntry@LT@@V?$allocator@UEntry@LT@@@std@@@std@@AEBAAEBV?$allocator@U?$_List_node@UEntry@LT@@PEAX@std@@@2@XZ ; std::list<LT::Entry,std::allocator<LT::Entry> >::_Getal
  00042	48 8b c8	 mov	 rcx, rax
  00045	e8 00 00 00 00	 call	 ?max_size@?$_Default_allocator_traits@V?$allocator@U?$_List_node@UEntry@LT@@PEAX@std@@@std@@@std@@SA_KAEBV?$allocator@U?$_List_node@UEntry@LT@@PEAX@std@@@2@@Z ; std::_Default_allocator_traits<std::allocator<std::_List_node<LT::Entry,void *> > >::max_size
  0004a	48 89 85 c8 00
	00 00		 mov	 QWORD PTR $T1[rbp], rax
  00051	e8 00 00 00 00	 call	 ?max@?$numeric_limits@_J@std@@SA_JXZ ; std::numeric_limits<__int64>::max
  00056	48 89 85 e8 00
	00 00		 mov	 QWORD PTR $T2[rbp], rax
  0005d	48 8d 95 c8 00
	00 00		 lea	 rdx, QWORD PTR $T1[rbp]
  00064	48 8d 8d e8 00
	00 00		 lea	 rcx, QWORD PTR $T2[rbp]
  0006b	e8 00 00 00 00	 call	 ??$min@_K@std@@YAAEB_KAEB_K0@Z ; std::min<unsigned __int64>
  00070	48 8b 00	 mov	 rax, QWORD PTR [rax]

; 1196 :             static_cast<size_type>((numeric_limits<difference_type>::max)()), _Alnode_traits::max_size(_Getal()));
; 1197 :     }

  00073	48 8d a5 08 01
	00 00		 lea	 rsp, QWORD PTR [rbp+264]
  0007a	5f		 pop	 rdi
  0007b	5d		 pop	 rbp
  0007c	c3		 ret	 0
?max_size@?$list@UEntry@LT@@V?$allocator@UEntry@LT@@@std@@@std@@QEBA_KXZ ENDP ; std::list<LT::Entry,std::allocator<LT::Entry> >::max_size
_TEXT	ENDS
; Function compile flags: /Odtp /RTCsu /ZI
; File C:\Program Files (x86)\Microsoft Visual Studio\2019\Enterprise\VC\Tools\MSVC\14.27.29110\include\list
;	COMDAT ??1?$list@UEntry@LT@@V?$allocator@UEntry@LT@@@std@@@std@@QEAA@XZ
_TEXT	SEGMENT
_Alproxy$ = 8
$S1$ = 36
__$ArrayPad$ = 248
this$ = 288
??1?$list@UEntry@LT@@V?$allocator@UEntry@LT@@@std@@@std@@QEAA@XZ PROC ; std::list<LT::Entry,std::allocator<LT::Entry> >::~list<LT::Entry,std::allocator<LT::Entry> >, COMDAT

; 1045 :     ~list() noexcept {

$LN3:
  00000	48 89 4c 24 08	 mov	 QWORD PTR [rsp+8], rcx
  00005	55		 push	 rbp
  00006	57		 push	 rdi
  00007	48 81 ec 28 01
	00 00		 sub	 rsp, 296		; 00000128H
  0000e	48 8d 6c 24 20	 lea	 rbp, QWORD PTR [rsp+32]
  00013	48 8b fc	 mov	 rdi, rsp
  00016	b9 4a 00 00 00	 mov	 ecx, 74			; 0000004aH
  0001b	b8 cc cc cc cc	 mov	 eax, -858993460		; ccccccccH
  00020	f3 ab		 rep stosd
  00022	48 8b 8c 24 48
	01 00 00	 mov	 rcx, QWORD PTR [rsp+328]
  0002a	48 8b 05 00 00
	00 00		 mov	 rax, QWORD PTR __security_cookie
  00031	48 33 c5	 xor	 rax, rbp
  00034	48 89 85 f8 00
	00 00		 mov	 QWORD PTR __$ArrayPad$[rbp], rax
  0003b	48 8d 0d 00 00
	00 00		 lea	 rcx, OFFSET FLAT:__DAE328AB_list
  00042	e8 00 00 00 00	 call	 __CheckForDebuggerJustMyCode

; 1046 :         _Tidy();

  00047	48 8b 8d 20 01
	00 00		 mov	 rcx, QWORD PTR this$[rbp]
  0004e	e8 00 00 00 00	 call	 ?_Tidy@?$list@UEntry@LT@@V?$allocator@UEntry@LT@@@std@@@std@@AEAAXXZ ; std::list<LT::Entry,std::allocator<LT::Entry> >::_Tidy

; 1047 : #if _ITERATOR_DEBUG_LEVEL != 0 // TRANSITION, ABI
; 1048 :         auto&& _Alproxy = _GET_PROXY_ALLOCATOR(_Alnode, _Getal());

  00053	48 8b 8d 20 01
	00 00		 mov	 rcx, QWORD PTR this$[rbp]
  0005a	e8 00 00 00 00	 call	 ?_Getal@?$list@UEntry@LT@@V?$allocator@UEntry@LT@@@std@@@std@@AEAAAEAV?$allocator@U?$_List_node@UEntry@LT@@PEAX@std@@@2@XZ ; std::list<LT::Entry,std::allocator<LT::Entry> >::_Getal
  0005f	48 8b d0	 mov	 rdx, rax
  00062	48 8d 4d 24	 lea	 rcx, QWORD PTR $S1$[rbp]
  00066	e8 00 00 00 00	 call	 ??$?0U?$_List_node@UEntry@LT@@PEAX@std@@@?$allocator@U_Container_proxy@std@@@std@@QEAA@AEBV?$allocator@U?$_List_node@UEntry@LT@@PEAX@std@@@1@@Z ; std::allocator<std::_Container_proxy>::allocator<std::_Container_proxy><std::_List_node<LT::Entry,void *> >
  0006b	48 8d 45 24	 lea	 rax, QWORD PTR $S1$[rbp]
  0006f	48 89 45 08	 mov	 QWORD PTR _Alproxy$[rbp], rax

; 1049 :         _Delete_plain_internal(_Alproxy, _Mypair._Myval2._Myproxy);

  00073	48 8b 85 20 01
	00 00		 mov	 rax, QWORD PTR this$[rbp]
  0007a	48 8b 10	 mov	 rdx, QWORD PTR [rax]
  0007d	48 8b 4d 08	 mov	 rcx, QWORD PTR _Alproxy$[rbp]
  00081	e8 00 00 00 00	 call	 ??$_Delete_plain_internal@V?$allocator@U_Container_proxy@std@@@std@@@std@@YAXAEAV?$allocator@U_Container_proxy@std@@@0@QEAU_Container_proxy@0@@Z ; std::_Delete_plain_internal<std::allocator<std::_Container_proxy> >

; 1050 : #endif // _ITERATOR_DEBUG_LEVEL != 0
; 1051 :     }

  00086	48 8d 4d e0	 lea	 rcx, QWORD PTR [rbp-32]
  0008a	48 8d 15 00 00
	00 00		 lea	 rdx, OFFSET FLAT:??1?$list@UEntry@LT@@V?$allocator@UEntry@LT@@@std@@@std@@QEAA@XZ$rtcFrameData
  00091	e8 00 00 00 00	 call	 _RTC_CheckStackVars
  00096	90		 npad	 1
  00097	48 8b 8d f8 00
	00 00		 mov	 rcx, QWORD PTR __$ArrayPad$[rbp]
  0009e	48 33 cd	 xor	 rcx, rbp
  000a1	e8 00 00 00 00	 call	 __security_check_cookie
  000a6	48 8d a5 08 01
	00 00		 lea	 rsp, QWORD PTR [rbp+264]
  000ad	5f		 pop	 rdi
  000ae	5d		 pop	 rbp
  000af	c3		 ret	 0
??1?$list@UEntry@LT@@V?$allocator@UEntry@LT@@@std@@@std@@QEAA@XZ ENDP ; std::list<LT::Entry,std::allocator<LT::Entry> >::~list<LT::Entry,std::allocator<LT::Entry> >
_TEXT	ENDS
; Function compile flags: /Odtp /RTCsu /ZI
; File C:\Program Files (x86)\Microsoft Visual Studio\2019\Enterprise\VC\Tools\MSVC\14.27.29110\include\list
;	COMDAT ??0?$list@UEntry@LT@@V?$allocator@UEntry@LT@@@std@@@std@@QEAA@XZ
_TEXT	SEGMENT
$T1 = 196
this$ = 256
??0?$list@UEntry@LT@@V?$allocator@UEntry@LT@@@std@@@std@@QEAA@XZ PROC ; std::list<LT::Entry,std::allocator<LT::Entry> >::list<LT::Entry,std::allocator<LT::Entry> >, COMDAT

; 804  :     list() : _Mypair(_Zero_then_variadic_args_t{}) {

$LN3:
  00000	48 89 4c 24 08	 mov	 QWORD PTR [rsp+8], rcx
  00005	55		 push	 rbp
  00006	57		 push	 rdi
  00007	48 81 ec 08 01
	00 00		 sub	 rsp, 264		; 00000108H
  0000e	48 8d 6c 24 20	 lea	 rbp, QWORD PTR [rsp+32]
  00013	48 8b fc	 mov	 rdi, rsp
  00016	b9 42 00 00 00	 mov	 ecx, 66			; 00000042H
  0001b	b8 cc cc cc cc	 mov	 eax, -858993460		; ccccccccH
  00020	f3 ab		 rep stosd
  00022	48 8b 8c 24 28
	01 00 00	 mov	 rcx, QWORD PTR [rsp+296]
  0002a	48 8d 0d 00 00
	00 00		 lea	 rcx, OFFSET FLAT:__DAE328AB_list
  00031	e8 00 00 00 00	 call	 __CheckForDebuggerJustMyCode
  00036	48 8b 85 00 01
	00 00		 mov	 rax, QWORD PTR this$[rbp]
  0003d	0f b6 95 c4 00
	00 00		 movzx	 edx, BYTE PTR $T1[rbp]
  00044	48 8b c8	 mov	 rcx, rax
  00047	e8 00 00 00 00	 call	 ??$?0$$V@?$_Compressed_pair@V?$allocator@U?$_List_node@UEntry@LT@@PEAX@std@@@std@@V?$_List_val@U?$_List_simple_types@UEntry@LT@@@std@@@2@$00@std@@QEAA@U_Zero_then_variadic_args_t@1@@Z ; std::_Compressed_pair<std::allocator<std::_List_node<LT::Entry,void *> >,std::_List_val<std::_List_simple_types<LT::Entry> >,1>::_Compressed_pair<std::allocator<std::_List_node<LT::Entry,void *> >,std::_List_val<std::_List_simple_types<LT::Entry> >,1><>

; 805  :         _Alloc_sentinel_and_proxy();

  0004c	48 8b 8d 00 01
	00 00		 mov	 rcx, QWORD PTR this$[rbp]
  00053	e8 00 00 00 00	 call	 ?_Alloc_sentinel_and_proxy@?$list@UEntry@LT@@V?$allocator@UEntry@LT@@@std@@@std@@AEAAXXZ ; std::list<LT::Entry,std::allocator<LT::Entry> >::_Alloc_sentinel_and_proxy

; 806  :     }

  00058	48 8b 85 00 01
	00 00		 mov	 rax, QWORD PTR this$[rbp]
  0005f	48 8d a5 e8 00
	00 00		 lea	 rsp, QWORD PTR [rbp+232]
  00066	5f		 pop	 rdi
  00067	5d		 pop	 rbp
  00068	c3		 ret	 0
??0?$list@UEntry@LT@@V?$allocator@UEntry@LT@@@std@@@std@@QEAA@XZ ENDP ; std::list<LT::Entry,std::allocator<LT::Entry> >::list<LT::Entry,std::allocator<LT::Entry> >
_TEXT	ENDS
; Function compile flags: /Odtp /RTCsu /ZI
; File C:\Program Files (x86)\Microsoft Visual Studio\2019\Enterprise\VC\Tools\MSVC\14.27.29110\include\xmemory
;	COMDAT ?max_size@?$_Default_allocator_traits@V?$allocator@U?$_List_node@UEntry@LT@@PEAX@std@@@std@@@std@@SA_KAEBV?$allocator@U?$_List_node@UEntry@LT@@PEAX@std@@@2@@Z
_TEXT	SEGMENT
__formal$ = 224
?max_size@?$_Default_allocator_traits@V?$allocator@U?$_List_node@UEntry@LT@@PEAX@std@@@std@@@std@@SA_KAEBV?$allocator@U?$_List_node@UEntry@LT@@PEAX@std@@@2@@Z PROC ; std::_Default_allocator_traits<std::allocator<std::_List_node<LT::Entry,void *> > >::max_size, COMDAT

; 702  :     _NODISCARD static size_type max_size(const _Alloc&) noexcept {

$LN3:
  00000	48 89 4c 24 08	 mov	 QWORD PTR [rsp+8], rcx
  00005	55		 push	 rbp
  00006	57		 push	 rdi
  00007	48 81 ec e8 00
	00 00		 sub	 rsp, 232		; 000000e8H
  0000e	48 8d 6c 24 20	 lea	 rbp, QWORD PTR [rsp+32]
  00013	48 8b fc	 mov	 rdi, rsp
  00016	b9 3a 00 00 00	 mov	 ecx, 58			; 0000003aH
  0001b	b8 cc cc cc cc	 mov	 eax, -858993460		; ccccccccH
  00020	f3 ab		 rep stosd
  00022	48 8b 8c 24 08
	01 00 00	 mov	 rcx, QWORD PTR [rsp+264]
  0002a	48 8d 0d 00 00
	00 00		 lea	 rcx, OFFSET FLAT:__0C99713E_xmemory
  00031	e8 00 00 00 00	 call	 __CheckForDebuggerJustMyCode

; 703  :         return static_cast<size_t>(-1) / sizeof(value_type);

  00036	48 b8 ff ff ff
	ff ff ff ff 07	 mov	 rax, 576460752303423487	; 07ffffffffffffffH

; 704  :     }

  00040	48 8d a5 c8 00
	00 00		 lea	 rsp, QWORD PTR [rbp+200]
  00047	5f		 pop	 rdi
  00048	5d		 pop	 rbp
  00049	c3		 ret	 0
?max_size@?$_Default_allocator_traits@V?$allocator@U?$_List_node@UEntry@LT@@PEAX@std@@@std@@@std@@SA_KAEBV?$allocator@U?$_List_node@UEntry@LT@@PEAX@std@@@2@@Z ENDP ; std::_Default_allocator_traits<std::allocator<std::_List_node<LT::Entry,void *> > >::max_size
_TEXT	ENDS
; Function compile flags: /Odtp /RTCsu /ZI
; File C:\Program Files (x86)\Microsoft Visual Studio\2019\Enterprise\VC\Tools\MSVC\14.27.29110\include\xmemory
;	COMDAT ?deallocate@?$_Default_allocator_traits@V?$allocator@U?$_List_node@UEntry@LT@@PEAX@std@@@std@@@std@@SAXAEAV?$allocator@U?$_List_node@UEntry@LT@@PEAX@std@@@2@QEAU?$_List_node@UEntry@LT@@PEAX@2@_K@Z
_TEXT	SEGMENT
__formal$ = 224
_Ptr$ = 232
_Count$ = 240
?deallocate@?$_Default_allocator_traits@V?$allocator@U?$_List_node@UEntry@LT@@PEAX@std@@@std@@@std@@SAXAEAV?$allocator@U?$_List_node@UEntry@LT@@PEAX@std@@@2@QEAU?$_List_node@UEntry@LT@@PEAX@2@_K@Z PROC ; std::_Default_allocator_traits<std::allocator<std::_List_node<LT::Entry,void *> > >::deallocate, COMDAT

; 687  :     static void deallocate(_Alloc&, const pointer _Ptr, const size_type _Count) {

$LN3:
  00000	4c 89 44 24 18	 mov	 QWORD PTR [rsp+24], r8
  00005	48 89 54 24 10	 mov	 QWORD PTR [rsp+16], rdx
  0000a	48 89 4c 24 08	 mov	 QWORD PTR [rsp+8], rcx
  0000f	55		 push	 rbp
  00010	57		 push	 rdi
  00011	48 81 ec e8 00
	00 00		 sub	 rsp, 232		; 000000e8H
  00018	48 8d 6c 24 20	 lea	 rbp, QWORD PTR [rsp+32]
  0001d	48 8b fc	 mov	 rdi, rsp
  00020	b9 3a 00 00 00	 mov	 ecx, 58			; 0000003aH
  00025	b8 cc cc cc cc	 mov	 eax, -858993460		; ccccccccH
  0002a	f3 ab		 rep stosd
  0002c	48 8b 8c 24 08
	01 00 00	 mov	 rcx, QWORD PTR [rsp+264]
  00034	48 8d 0d 00 00
	00 00		 lea	 rcx, OFFSET FLAT:__0C99713E_xmemory
  0003b	e8 00 00 00 00	 call	 __CheckForDebuggerJustMyCode

; 688  :         // no overflow check on the following multiply; we assume _Allocate did that check
; 689  :         _Deallocate<_New_alignof<value_type>>(_Ptr, sizeof(value_type) * _Count);

  00040	48 6b 85 f0 00
	00 00 20	 imul	 rax, QWORD PTR _Count$[rbp], 32 ; 00000020H
  00048	48 8b d0	 mov	 rdx, rax
  0004b	48 8b 8d e8 00
	00 00		 mov	 rcx, QWORD PTR _Ptr$[rbp]
  00052	e8 00 00 00 00	 call	 ??$_Deallocate@$0BA@$0A@@std@@YAXPEAX_K@Z ; std::_Deallocate<16,0>

; 690  :     }

  00057	48 8d a5 c8 00
	00 00		 lea	 rsp, QWORD PTR [rbp+200]
  0005e	5f		 pop	 rdi
  0005f	5d		 pop	 rbp
  00060	c3		 ret	 0
?deallocate@?$_Default_allocator_traits@V?$allocator@U?$_List_node@UEntry@LT@@PEAX@std@@@std@@@std@@SAXAEAV?$allocator@U?$_List_node@UEntry@LT@@PEAX@std@@@2@QEAU?$_List_node@UEntry@LT@@PEAX@2@_K@Z ENDP ; std::_Default_allocator_traits<std::allocator<std::_List_node<LT::Entry,void *> > >::deallocate
_TEXT	ENDS
; Function compile flags: /Odtp /RTCsu /ZI
; File C:\Program Files (x86)\Microsoft Visual Studio\2019\Enterprise\VC\Tools\MSVC\14.27.29110\include\xmemory
;	COMDAT ?allocate@?$allocator@U?$_List_node@UEntry@LT@@PEAX@std@@@std@@QEAAPEAU?$_List_node@UEntry@LT@@PEAX@2@_K@Z
_TEXT	SEGMENT
this$ = 224
_Count$ = 232
?allocate@?$allocator@U?$_List_node@UEntry@LT@@PEAX@std@@@std@@QEAAPEAU?$_List_node@UEntry@LT@@PEAX@2@_K@Z PROC ; std::allocator<std::_List_node<LT::Entry,void *> >::allocate, COMDAT

; 806  :     _NODISCARD __declspec(allocator) _Ty* allocate(_CRT_GUARDOVERFLOW const size_t _Count) {

$LN3:
  00000	48 89 54 24 10	 mov	 QWORD PTR [rsp+16], rdx
  00005	48 89 4c 24 08	 mov	 QWORD PTR [rsp+8], rcx
  0000a	55		 push	 rbp
  0000b	57		 push	 rdi
  0000c	48 81 ec e8 00
	00 00		 sub	 rsp, 232		; 000000e8H
  00013	48 8d 6c 24 20	 lea	 rbp, QWORD PTR [rsp+32]
  00018	48 8b fc	 mov	 rdi, rsp
  0001b	b9 3a 00 00 00	 mov	 ecx, 58			; 0000003aH
  00020	b8 cc cc cc cc	 mov	 eax, -858993460		; ccccccccH
  00025	f3 ab		 rep stosd
  00027	48 8b 8c 24 08
	01 00 00	 mov	 rcx, QWORD PTR [rsp+264]
  0002f	48 8d 0d 00 00
	00 00		 lea	 rcx, OFFSET FLAT:__0C99713E_xmemory
  00036	e8 00 00 00 00	 call	 __CheckForDebuggerJustMyCode

; 807  :         return static_cast<_Ty*>(_Allocate<_New_alignof<_Ty>>(_Get_size_of_n<sizeof(_Ty)>(_Count)));

  0003b	48 8b 8d e8 00
	00 00		 mov	 rcx, QWORD PTR _Count$[rbp]
  00042	e8 00 00 00 00	 call	 ??$_Get_size_of_n@$0CA@@std@@YA_K_K@Z ; std::_Get_size_of_n<32>
  00047	48 8b c8	 mov	 rcx, rax
  0004a	e8 00 00 00 00	 call	 ??$_Allocate@$0BA@U_Default_allocate_traits@std@@$0A@@std@@YAPEAX_K@Z ; std::_Allocate<16,std::_Default_allocate_traits,0>

; 808  :     }

  0004f	48 8d a5 c8 00
	00 00		 lea	 rsp, QWORD PTR [rbp+200]
  00056	5f		 pop	 rdi
  00057	5d		 pop	 rbp
  00058	c3		 ret	 0
?allocate@?$allocator@U?$_List_node@UEntry@LT@@PEAX@std@@@std@@QEAAPEAU?$_List_node@UEntry@LT@@PEAX@2@_K@Z ENDP ; std::allocator<std::_List_node<LT::Entry,void *> >::allocate
_TEXT	ENDS
; Function compile flags: /Odtp /RTCsu /ZI
; File C:\Program Files (x86)\Microsoft Visual Studio\2019\Enterprise\VC\Tools\MSVC\14.27.29110\include\xmemory
;	COMDAT ?deallocate@?$allocator@U?$_List_node@UEntry@LT@@PEAX@std@@@std@@QEAAXQEAU?$_List_node@UEntry@LT@@PEAX@2@_K@Z
_TEXT	SEGMENT
this$ = 224
_Ptr$ = 232
_Count$ = 240
?deallocate@?$allocator@U?$_List_node@UEntry@LT@@PEAX@std@@@std@@QEAAXQEAU?$_List_node@UEntry@LT@@PEAX@2@_K@Z PROC ; std::allocator<std::_List_node<LT::Entry,void *> >::deallocate, COMDAT

; 801  :     void deallocate(_Ty* const _Ptr, const size_t _Count) {

$LN3:
  00000	4c 89 44 24 18	 mov	 QWORD PTR [rsp+24], r8
  00005	48 89 54 24 10	 mov	 QWORD PTR [rsp+16], rdx
  0000a	48 89 4c 24 08	 mov	 QWORD PTR [rsp+8], rcx
  0000f	55		 push	 rbp
  00010	57		 push	 rdi
  00011	48 81 ec e8 00
	00 00		 sub	 rsp, 232		; 000000e8H
  00018	48 8d 6c 24 20	 lea	 rbp, QWORD PTR [rsp+32]
  0001d	48 8b fc	 mov	 rdi, rsp
  00020	b9 3a 00 00 00	 mov	 ecx, 58			; 0000003aH
  00025	b8 cc cc cc cc	 mov	 eax, -858993460		; ccccccccH
  0002a	f3 ab		 rep stosd
  0002c	48 8b 8c 24 08
	01 00 00	 mov	 rcx, QWORD PTR [rsp+264]
  00034	48 8d 0d 00 00
	00 00		 lea	 rcx, OFFSET FLAT:__0C99713E_xmemory
  0003b	e8 00 00 00 00	 call	 __CheckForDebuggerJustMyCode

; 802  :         // no overflow check on the following multiply; we assume _Allocate did that check
; 803  :         _Deallocate<_New_alignof<_Ty>>(_Ptr, sizeof(_Ty) * _Count);

  00040	48 6b 85 f0 00
	00 00 20	 imul	 rax, QWORD PTR _Count$[rbp], 32 ; 00000020H
  00048	48 8b d0	 mov	 rdx, rax
  0004b	48 8b 8d e8 00
	00 00		 mov	 rcx, QWORD PTR _Ptr$[rbp]
  00052	e8 00 00 00 00	 call	 ??$_Deallocate@$0BA@$0A@@std@@YAXPEAX_K@Z ; std::_Deallocate<16,0>

; 804  :     }

  00057	48 8d a5 c8 00
	00 00		 lea	 rsp, QWORD PTR [rbp+200]
  0005e	5f		 pop	 rdi
  0005f	5d		 pop	 rbp
  00060	c3		 ret	 0
?deallocate@?$allocator@U?$_List_node@UEntry@LT@@PEAX@std@@@std@@QEAAXQEAU?$_List_node@UEntry@LT@@PEAX@2@_K@Z ENDP ; std::allocator<std::_List_node<LT::Entry,void *> >::deallocate
_TEXT	ENDS
; Function compile flags: /Odtp /RTCsu /ZI
; File C:\Program Files (x86)\Microsoft Visual Studio\2019\Enterprise\VC\Tools\MSVC\14.27.29110\include\xmemory
;	COMDAT ??0?$allocator@U?$_List_node@UEntry@LT@@PEAX@std@@@std@@QEAA@XZ
_TEXT	SEGMENT
this$ = 224
??0?$allocator@U?$_List_node@UEntry@LT@@PEAX@std@@@std@@QEAA@XZ PROC ; std::allocator<std::_List_node<LT::Entry,void *> >::allocator<std::_List_node<LT::Entry,void *> >, COMDAT

; 795  :     constexpr allocator() noexcept {}

$LN3:
  00000	48 89 4c 24 08	 mov	 QWORD PTR [rsp+8], rcx
  00005	55		 push	 rbp
  00006	57		 push	 rdi
  00007	48 81 ec e8 00
	00 00		 sub	 rsp, 232		; 000000e8H
  0000e	48 8d 6c 24 20	 lea	 rbp, QWORD PTR [rsp+32]
  00013	48 8b fc	 mov	 rdi, rsp
  00016	b9 3a 00 00 00	 mov	 ecx, 58			; 0000003aH
  0001b	b8 cc cc cc cc	 mov	 eax, -858993460		; ccccccccH
  00020	f3 ab		 rep stosd
  00022	48 8b 8c 24 08
	01 00 00	 mov	 rcx, QWORD PTR [rsp+264]
  0002a	48 8d 0d 00 00
	00 00		 lea	 rcx, OFFSET FLAT:__0C99713E_xmemory
  00031	e8 00 00 00 00	 call	 __CheckForDebuggerJustMyCode
  00036	48 8b 85 e0 00
	00 00		 mov	 rax, QWORD PTR this$[rbp]
  0003d	48 8d a5 c8 00
	00 00		 lea	 rsp, QWORD PTR [rbp+200]
  00044	5f		 pop	 rdi
  00045	5d		 pop	 rbp
  00046	c3		 ret	 0
??0?$allocator@U?$_List_node@UEntry@LT@@PEAX@std@@@std@@QEAA@XZ ENDP ; std::allocator<std::_List_node<LT::Entry,void *> >::allocator<std::_List_node<LT::Entry,void *> >
_TEXT	ENDS
; Function compile flags: /Odtp /RTCsu /ZI
;	COMDAT ?__autoclassinit2@?$stack@UEntry@LT@@V?$deque@UEntry@LT@@V?$allocator@UEntry@LT@@@std@@@std@@@std@@QEAAX_K@Z
_TEXT	SEGMENT
this$ = 224
classSize$ = 232
?__autoclassinit2@?$stack@UEntry@LT@@V?$deque@UEntry@LT@@V?$allocator@UEntry@LT@@@std@@@std@@@std@@QEAAX_K@Z PROC ; std::stack<LT::Entry,std::deque<LT::Entry,std::allocator<LT::Entry> > >::__autoclassinit2, COMDAT
$LN3:
  00000	48 89 54 24 10	 mov	 QWORD PTR [rsp+16], rdx
  00005	48 89 4c 24 08	 mov	 QWORD PTR [rsp+8], rcx
  0000a	55		 push	 rbp
  0000b	57		 push	 rdi
  0000c	48 81 ec c8 00
	00 00		 sub	 rsp, 200		; 000000c8H
  00013	48 8b ec	 mov	 rbp, rsp
  00016	48 8b fc	 mov	 rdi, rsp
  00019	b9 32 00 00 00	 mov	 ecx, 50			; 00000032H
  0001e	b8 cc cc cc cc	 mov	 eax, -858993460		; ccccccccH
  00023	f3 ab		 rep stosd
  00025	48 8b 8c 24 e8
	00 00 00	 mov	 rcx, QWORD PTR [rsp+232]
  0002d	48 8b bd e0 00
	00 00		 mov	 rdi, QWORD PTR this$[rbp]
  00034	33 c0		 xor	 eax, eax
  00036	48 8b 8d e8 00
	00 00		 mov	 rcx, QWORD PTR classSize$[rbp]
  0003d	f3 aa		 rep stosb
  0003f	48 8d a5 c8 00
	00 00		 lea	 rsp, QWORD PTR [rbp+200]
  00046	5f		 pop	 rdi
  00047	5d		 pop	 rbp
  00048	c3		 ret	 0
?__autoclassinit2@?$stack@UEntry@LT@@V?$deque@UEntry@LT@@V?$allocator@UEntry@LT@@@std@@@std@@@std@@QEAAX_K@Z ENDP ; std::stack<LT::Entry,std::deque<LT::Entry,std::allocator<LT::Entry> > >::__autoclassinit2
_TEXT	ENDS
; Function compile flags: /Odtp /RTCsu /ZI
;	COMDAT ??1?$stack@UEntry@LT@@V?$deque@UEntry@LT@@V?$allocator@UEntry@LT@@@std@@@std@@@std@@QEAA@XZ
_TEXT	SEGMENT
this$ = 224
??1?$stack@UEntry@LT@@V?$deque@UEntry@LT@@V?$allocator@UEntry@LT@@@std@@@std@@@std@@QEAA@XZ PROC ; std::stack<LT::Entry,std::deque<LT::Entry,std::allocator<LT::Entry> > >::~stack<LT::Entry,std::deque<LT::Entry,std::allocator<LT::Entry> > >, COMDAT
$LN3:
  00000	48 89 4c 24 08	 mov	 QWORD PTR [rsp+8], rcx
  00005	55		 push	 rbp
  00006	57		 push	 rdi
  00007	48 81 ec e8 00
	00 00		 sub	 rsp, 232		; 000000e8H
  0000e	48 8d 6c 24 20	 lea	 rbp, QWORD PTR [rsp+32]
  00013	48 8b fc	 mov	 rdi, rsp
  00016	b9 3a 00 00 00	 mov	 ecx, 58			; 0000003aH
  0001b	b8 cc cc cc cc	 mov	 eax, -858993460		; ccccccccH
  00020	f3 ab		 rep stosd
  00022	48 8b 8c 24 08
	01 00 00	 mov	 rcx, QWORD PTR [rsp+264]
  0002a	48 8b 85 e0 00
	00 00		 mov	 rax, QWORD PTR this$[rbp]
  00031	48 8b c8	 mov	 rcx, rax
  00034	e8 00 00 00 00	 call	 ??1?$deque@UEntry@LT@@V?$allocator@UEntry@LT@@@std@@@std@@QEAA@XZ ; std::deque<LT::Entry,std::allocator<LT::Entry> >::~deque<LT::Entry,std::allocator<LT::Entry> >
  00039	48 8d a5 c8 00
	00 00		 lea	 rsp, QWORD PTR [rbp+200]
  00040	5f		 pop	 rdi
  00041	5d		 pop	 rbp
  00042	c3		 ret	 0
??1?$stack@UEntry@LT@@V?$deque@UEntry@LT@@V?$allocator@UEntry@LT@@@std@@@std@@@std@@QEAA@XZ ENDP ; std::stack<LT::Entry,std::deque<LT::Entry,std::allocator<LT::Entry> > >::~stack<LT::Entry,std::deque<LT::Entry,std::allocator<LT::Entry> > >
_TEXT	ENDS
; Function compile flags: /Odtp /RTCsu /ZI
; File C:\Program Files (x86)\Microsoft Visual Studio\2019\Enterprise\VC\Tools\MSVC\14.27.29110\include\stack
;	COMDAT ?pop@?$stack@UEntry@LT@@V?$deque@UEntry@LT@@V?$allocator@UEntry@LT@@@std@@@std@@@std@@QEAAXXZ
_TEXT	SEGMENT
this$ = 224
?pop@?$stack@UEntry@LT@@V?$deque@UEntry@LT@@V?$allocator@UEntry@LT@@@std@@@std@@@std@@QEAAXXZ PROC ; std::stack<LT::Entry,std::deque<LT::Entry,std::allocator<LT::Entry> > >::pop, COMDAT

; 126  :     void pop() noexcept(noexcept(c.pop_back())) /* strengthened */ {

$LN3:
  00000	48 89 4c 24 08	 mov	 QWORD PTR [rsp+8], rcx
  00005	55		 push	 rbp
  00006	57		 push	 rdi
  00007	48 81 ec e8 00
	00 00		 sub	 rsp, 232		; 000000e8H
  0000e	48 8d 6c 24 20	 lea	 rbp, QWORD PTR [rsp+32]
  00013	48 8b fc	 mov	 rdi, rsp
  00016	b9 3a 00 00 00	 mov	 ecx, 58			; 0000003aH
  0001b	b8 cc cc cc cc	 mov	 eax, -858993460		; ccccccccH
  00020	f3 ab		 rep stosd
  00022	48 8b 8c 24 08
	01 00 00	 mov	 rcx, QWORD PTR [rsp+264]
  0002a	48 8d 0d 00 00
	00 00		 lea	 rcx, OFFSET FLAT:__C15C5D01_stack
  00031	e8 00 00 00 00	 call	 __CheckForDebuggerJustMyCode

; 127  :         c.pop_back();

  00036	48 8b 85 e0 00
	00 00		 mov	 rax, QWORD PTR this$[rbp]
  0003d	48 8b c8	 mov	 rcx, rax
  00040	e8 00 00 00 00	 call	 ?pop_back@?$deque@UEntry@LT@@V?$allocator@UEntry@LT@@@std@@@std@@QEAAXXZ ; std::deque<LT::Entry,std::allocator<LT::Entry> >::pop_back
  00045	90		 npad	 1

; 128  :     }

  00046	48 8d a5 c8 00
	00 00		 lea	 rsp, QWORD PTR [rbp+200]
  0004d	5f		 pop	 rdi
  0004e	5d		 pop	 rbp
  0004f	c3		 ret	 0
?pop@?$stack@UEntry@LT@@V?$deque@UEntry@LT@@V?$allocator@UEntry@LT@@@std@@@std@@@std@@QEAAXXZ ENDP ; std::stack<LT::Entry,std::deque<LT::Entry,std::allocator<LT::Entry> > >::pop
_TEXT	ENDS
; Function compile flags: /Odtp /RTCsu /ZI
; File C:\Program Files (x86)\Microsoft Visual Studio\2019\Enterprise\VC\Tools\MSVC\14.27.29110\include\stack
;	COMDAT ?push@?$stack@UEntry@LT@@V?$deque@UEntry@LT@@V?$allocator@UEntry@LT@@@std@@@std@@@std@@QEAAXAEBUEntry@LT@@@Z
_TEXT	SEGMENT
this$ = 224
_Val$ = 232
?push@?$stack@UEntry@LT@@V?$deque@UEntry@LT@@V?$allocator@UEntry@LT@@@std@@@std@@@std@@QEAAXAEBUEntry@LT@@@Z PROC ; std::stack<LT::Entry,std::deque<LT::Entry,std::allocator<LT::Entry> > >::push, COMDAT

; 109  :     void push(const value_type& _Val) {

$LN3:
  00000	48 89 54 24 10	 mov	 QWORD PTR [rsp+16], rdx
  00005	48 89 4c 24 08	 mov	 QWORD PTR [rsp+8], rcx
  0000a	55		 push	 rbp
  0000b	57		 push	 rdi
  0000c	48 81 ec e8 00
	00 00		 sub	 rsp, 232		; 000000e8H
  00013	48 8d 6c 24 20	 lea	 rbp, QWORD PTR [rsp+32]
  00018	48 8b fc	 mov	 rdi, rsp
  0001b	b9 3a 00 00 00	 mov	 ecx, 58			; 0000003aH
  00020	b8 cc cc cc cc	 mov	 eax, -858993460		; ccccccccH
  00025	f3 ab		 rep stosd
  00027	48 8b 8c 24 08
	01 00 00	 mov	 rcx, QWORD PTR [rsp+264]
  0002f	48 8d 0d 00 00
	00 00		 lea	 rcx, OFFSET FLAT:__C15C5D01_stack
  00036	e8 00 00 00 00	 call	 __CheckForDebuggerJustMyCode

; 110  :         c.push_back(_Val);

  0003b	48 8b 85 e0 00
	00 00		 mov	 rax, QWORD PTR this$[rbp]
  00042	48 8b 95 e8 00
	00 00		 mov	 rdx, QWORD PTR _Val$[rbp]
  00049	48 8b c8	 mov	 rcx, rax
  0004c	e8 00 00 00 00	 call	 ?push_back@?$deque@UEntry@LT@@V?$allocator@UEntry@LT@@@std@@@std@@QEAAXAEBUEntry@LT@@@Z ; std::deque<LT::Entry,std::allocator<LT::Entry> >::push_back

; 111  :     }

  00051	48 8d a5 c8 00
	00 00		 lea	 rsp, QWORD PTR [rbp+200]
  00058	5f		 pop	 rdi
  00059	5d		 pop	 rbp
  0005a	c3		 ret	 0
?push@?$stack@UEntry@LT@@V?$deque@UEntry@LT@@V?$allocator@UEntry@LT@@@std@@@std@@@std@@QEAAXAEBUEntry@LT@@@Z ENDP ; std::stack<LT::Entry,std::deque<LT::Entry,std::allocator<LT::Entry> > >::push
_TEXT	ENDS
; Function compile flags: /Odtp /RTCsu /ZI
; File C:\Program Files (x86)\Microsoft Visual Studio\2019\Enterprise\VC\Tools\MSVC\14.27.29110\include\stack
;	COMDAT ?top@?$stack@UEntry@LT@@V?$deque@UEntry@LT@@V?$allocator@UEntry@LT@@@std@@@std@@@std@@QEAAAEAUEntry@LT@@XZ
_TEXT	SEGMENT
this$ = 224
?top@?$stack@UEntry@LT@@V?$deque@UEntry@LT@@V?$allocator@UEntry@LT@@@std@@@std@@@std@@QEAAAEAUEntry@LT@@XZ PROC ; std::stack<LT::Entry,std::deque<LT::Entry,std::allocator<LT::Entry> > >::top, COMDAT

; 101  :     _NODISCARD reference top() noexcept(noexcept(c.back())) /* strengthened */ {

$LN3:
  00000	48 89 4c 24 08	 mov	 QWORD PTR [rsp+8], rcx
  00005	55		 push	 rbp
  00006	57		 push	 rdi
  00007	48 81 ec e8 00
	00 00		 sub	 rsp, 232		; 000000e8H
  0000e	48 8d 6c 24 20	 lea	 rbp, QWORD PTR [rsp+32]
  00013	48 8b fc	 mov	 rdi, rsp
  00016	b9 3a 00 00 00	 mov	 ecx, 58			; 0000003aH
  0001b	b8 cc cc cc cc	 mov	 eax, -858993460		; ccccccccH
  00020	f3 ab		 rep stosd
  00022	48 8b 8c 24 08
	01 00 00	 mov	 rcx, QWORD PTR [rsp+264]
  0002a	48 8d 0d 00 00
	00 00		 lea	 rcx, OFFSET FLAT:__C15C5D01_stack
  00031	e8 00 00 00 00	 call	 __CheckForDebuggerJustMyCode

; 102  :         return c.back();

  00036	48 8b 85 e0 00
	00 00		 mov	 rax, QWORD PTR this$[rbp]
  0003d	48 8b c8	 mov	 rcx, rax
  00040	e8 00 00 00 00	 call	 ?back@?$deque@UEntry@LT@@V?$allocator@UEntry@LT@@@std@@@std@@QEAAAEAUEntry@LT@@XZ ; std::deque<LT::Entry,std::allocator<LT::Entry> >::back
  00045	90		 npad	 1

; 103  :     }

  00046	48 8d a5 c8 00
	00 00		 lea	 rsp, QWORD PTR [rbp+200]
  0004d	5f		 pop	 rdi
  0004e	5d		 pop	 rbp
  0004f	c3		 ret	 0
?top@?$stack@UEntry@LT@@V?$deque@UEntry@LT@@V?$allocator@UEntry@LT@@@std@@@std@@@std@@QEAAAEAUEntry@LT@@XZ ENDP ; std::stack<LT::Entry,std::deque<LT::Entry,std::allocator<LT::Entry> > >::top
_TEXT	ENDS
; Function compile flags: /Odtp /RTCsu /ZI
; File C:\Program Files (x86)\Microsoft Visual Studio\2019\Enterprise\VC\Tools\MSVC\14.27.29110\include\stack
;	COMDAT ?empty@?$stack@UEntry@LT@@V?$deque@UEntry@LT@@V?$allocator@UEntry@LT@@@std@@@std@@@std@@QEBA_NXZ
_TEXT	SEGMENT
this$ = 224
?empty@?$stack@UEntry@LT@@V?$deque@UEntry@LT@@V?$allocator@UEntry@LT@@@std@@@std@@@std@@QEBA_NXZ PROC ; std::stack<LT::Entry,std::deque<LT::Entry,std::allocator<LT::Entry> > >::empty, COMDAT

; 93   :     _NODISCARD bool empty() const noexcept(noexcept(c.empty())) /* strengthened */ {

$LN3:
  00000	48 89 4c 24 08	 mov	 QWORD PTR [rsp+8], rcx
  00005	55		 push	 rbp
  00006	57		 push	 rdi
  00007	48 81 ec e8 00
	00 00		 sub	 rsp, 232		; 000000e8H
  0000e	48 8d 6c 24 20	 lea	 rbp, QWORD PTR [rsp+32]
  00013	48 8b fc	 mov	 rdi, rsp
  00016	b9 3a 00 00 00	 mov	 ecx, 58			; 0000003aH
  0001b	b8 cc cc cc cc	 mov	 eax, -858993460		; ccccccccH
  00020	f3 ab		 rep stosd
  00022	48 8b 8c 24 08
	01 00 00	 mov	 rcx, QWORD PTR [rsp+264]
  0002a	48 8d 0d 00 00
	00 00		 lea	 rcx, OFFSET FLAT:__C15C5D01_stack
  00031	e8 00 00 00 00	 call	 __CheckForDebuggerJustMyCode

; 94   :         return c.empty();

  00036	48 8b 85 e0 00
	00 00		 mov	 rax, QWORD PTR this$[rbp]
  0003d	48 8b c8	 mov	 rcx, rax
  00040	e8 00 00 00 00	 call	 ?empty@?$deque@UEntry@LT@@V?$allocator@UEntry@LT@@@std@@@std@@QEBA_NXZ ; std::deque<LT::Entry,std::allocator<LT::Entry> >::empty
  00045	90		 npad	 1

; 95   :     }

  00046	48 8d a5 c8 00
	00 00		 lea	 rsp, QWORD PTR [rbp+200]
  0004d	5f		 pop	 rdi
  0004e	5d		 pop	 rbp
  0004f	c3		 ret	 0
?empty@?$stack@UEntry@LT@@V?$deque@UEntry@LT@@V?$allocator@UEntry@LT@@@std@@@std@@@std@@QEBA_NXZ ENDP ; std::stack<LT::Entry,std::deque<LT::Entry,std::allocator<LT::Entry> > >::empty
_TEXT	ENDS
; Function compile flags: /Odtp /RTCsu /ZI
; File C:\Users\Skvortsoff\OneDrive\\GitHub\course_LP\course_LP\PN.cpp
; File C:\Program Files (x86)\Microsoft Visual Studio\2019\Enterprise\VC\Tools\MSVC\14.27.29110\include\stack
; File C:\Users\Skvortsoff\OneDrive\\GitHub\course_LP\course_LP\PN.cpp
;	COMDAT ??0?$stack@UEntry@LT@@V?$deque@UEntry@LT@@V?$allocator@UEntry@LT@@@std@@@std@@@std@@QEAA@XZ
_TEXT	SEGMENT
this$ = 224
??0?$stack@UEntry@LT@@V?$deque@UEntry@LT@@V?$allocator@UEntry@LT@@@std@@@std@@@std@@QEAA@XZ PROC ; std::stack<LT::Entry,std::deque<LT::Entry,std::allocator<LT::Entry> > >::stack<LT::Entry,std::deque<LT::Entry,std::allocator<LT::Entry> > >, COMDAT

; 199  : 	}

$LN3:
  00000	48 89 4c 24 08	 mov	 QWORD PTR [rsp+8], rcx
  00005	55		 push	 rbp
  00006	57		 push	 rdi
  00007	48 81 ec e8 00
	00 00		 sub	 rsp, 232		; 000000e8H
  0000e	48 8d 6c 24 20	 lea	 rbp, QWORD PTR [rsp+32]
  00013	48 8b fc	 mov	 rdi, rsp
  00016	b9 3a 00 00 00	 mov	 ecx, 58			; 0000003aH
  0001b	b8 cc cc cc cc	 mov	 eax, -858993460		; ccccccccH
  00020	f3 ab		 rep stosd
  00022	48 8b 8c 24 08
	01 00 00	 mov	 rcx, QWORD PTR [rsp+264]
  0002a	48 8d 0d 00 00
	00 00		 lea	 rcx, OFFSET FLAT:__22FDF990_PN@cpp
  00031	e8 00 00 00 00	 call	 __CheckForDebuggerJustMyCode
; File C:\Program Files (x86)\Microsoft Visual Studio\2019\Enterprise\VC\Tools\MSVC\14.27.29110\include\stack

; 144  :     _Container c{};

  00036	48 8b 85 e0 00
	00 00		 mov	 rax, QWORD PTR this$[rbp]
  0003d	48 8b c8	 mov	 rcx, rax
  00040	e8 00 00 00 00	 call	 ??0?$deque@UEntry@LT@@V?$allocator@UEntry@LT@@@std@@@std@@QEAA@XZ ; std::deque<LT::Entry,std::allocator<LT::Entry> >::deque<LT::Entry,std::allocator<LT::Entry> >
; File C:\Users\Skvortsoff\OneDrive\\GitHub\course_LP\course_LP\PN.cpp

; 199  : 	}

  00045	48 8b 85 e0 00
	00 00		 mov	 rax, QWORD PTR this$[rbp]
  0004c	48 8d a5 c8 00
	00 00		 lea	 rsp, QWORD PTR [rbp+200]
  00053	5f		 pop	 rdi
  00054	5d		 pop	 rbp
  00055	c3		 ret	 0
??0?$stack@UEntry@LT@@V?$deque@UEntry@LT@@V?$allocator@UEntry@LT@@@std@@@std@@@std@@QEAA@XZ ENDP ; std::stack<LT::Entry,std::deque<LT::Entry,std::allocator<LT::Entry> > >::stack<LT::Entry,std::deque<LT::Entry,std::allocator<LT::Entry> > >
_TEXT	ENDS
; Function compile flags: /Odtp /RTCsu /ZI
; File C:\Program Files (x86)\Microsoft Visual Studio\2019\Enterprise\VC\Tools\MSVC\14.27.29110\include\xmemory
;	COMDAT ?_Get_first@?$_Compressed_pair@V?$allocator@UEntry@LT@@@std@@V?$_Deque_val@U?$_Deque_simple_types@UEntry@LT@@@std@@@2@$00@std@@QEBAAEBV?$allocator@UEntry@LT@@@2@XZ
_TEXT	SEGMENT
this$ = 224
?_Get_first@?$_Compressed_pair@V?$allocator@UEntry@LT@@@std@@V?$_Deque_val@U?$_Deque_simple_types@UEntry@LT@@@std@@@2@$00@std@@QEBAAEBV?$allocator@UEntry@LT@@@2@XZ PROC ; std::_Compressed_pair<std::allocator<LT::Entry>,std::_Deque_val<std::_Deque_simple_types<LT::Entry> >,1>::_Get_first, COMDAT

; 1347 :     constexpr const _Ty1& _Get_first() const noexcept {

$LN3:
  00000	48 89 4c 24 08	 mov	 QWORD PTR [rsp+8], rcx
  00005	55		 push	 rbp
  00006	57		 push	 rdi
  00007	48 81 ec e8 00
	00 00		 sub	 rsp, 232		; 000000e8H
  0000e	48 8d 6c 24 20	 lea	 rbp, QWORD PTR [rsp+32]
  00013	48 8b fc	 mov	 rdi, rsp
  00016	b9 3a 00 00 00	 mov	 ecx, 58			; 0000003aH
  0001b	b8 cc cc cc cc	 mov	 eax, -858993460		; ccccccccH
  00020	f3 ab		 rep stosd
  00022	48 8b 8c 24 08
	01 00 00	 mov	 rcx, QWORD PTR [rsp+264]
  0002a	48 8d 0d 00 00
	00 00		 lea	 rcx, OFFSET FLAT:__0C99713E_xmemory
  00031	e8 00 00 00 00	 call	 __CheckForDebuggerJustMyCode

; 1348 :         return *this;

  00036	48 8b 85 e0 00
	00 00		 mov	 rax, QWORD PTR this$[rbp]

; 1349 :     }

  0003d	48 8d a5 c8 00
	00 00		 lea	 rsp, QWORD PTR [rbp+200]
  00044	5f		 pop	 rdi
  00045	5d		 pop	 rbp
  00046	c3		 ret	 0
?_Get_first@?$_Compressed_pair@V?$allocator@UEntry@LT@@@std@@V?$_Deque_val@U?$_Deque_simple_types@UEntry@LT@@@std@@@2@$00@std@@QEBAAEBV?$allocator@UEntry@LT@@@2@XZ ENDP ; std::_Compressed_pair<std::allocator<LT::Entry>,std::_Deque_val<std::_Deque_simple_types<LT::Entry> >,1>::_Get_first
_TEXT	ENDS
; Function compile flags: /Odtp /RTCsu /ZI
; File C:\Program Files (x86)\Microsoft Visual Studio\2019\Enterprise\VC\Tools\MSVC\14.27.29110\include\xmemory
;	COMDAT ?_Get_first@?$_Compressed_pair@V?$allocator@UEntry@LT@@@std@@V?$_Deque_val@U?$_Deque_simple_types@UEntry@LT@@@std@@@2@$00@std@@QEAAAEAV?$allocator@UEntry@LT@@@2@XZ
_TEXT	SEGMENT
this$ = 224
?_Get_first@?$_Compressed_pair@V?$allocator@UEntry@LT@@@std@@V?$_Deque_val@U?$_Deque_simple_types@UEntry@LT@@@std@@@2@$00@std@@QEAAAEAV?$allocator@UEntry@LT@@@2@XZ PROC ; std::_Compressed_pair<std::allocator<LT::Entry>,std::_Deque_val<std::_Deque_simple_types<LT::Entry> >,1>::_Get_first, COMDAT

; 1343 :     constexpr _Ty1& _Get_first() noexcept {

$LN3:
  00000	48 89 4c 24 08	 mov	 QWORD PTR [rsp+8], rcx
  00005	55		 push	 rbp
  00006	57		 push	 rdi
  00007	48 81 ec e8 00
	00 00		 sub	 rsp, 232		; 000000e8H
  0000e	48 8d 6c 24 20	 lea	 rbp, QWORD PTR [rsp+32]
  00013	48 8b fc	 mov	 rdi, rsp
  00016	b9 3a 00 00 00	 mov	 ecx, 58			; 0000003aH
  0001b	b8 cc cc cc cc	 mov	 eax, -858993460		; ccccccccH
  00020	f3 ab		 rep stosd
  00022	48 8b 8c 24 08
	01 00 00	 mov	 rcx, QWORD PTR [rsp+264]
  0002a	48 8d 0d 00 00
	00 00		 lea	 rcx, OFFSET FLAT:__0C99713E_xmemory
  00031	e8 00 00 00 00	 call	 __CheckForDebuggerJustMyCode

; 1344 :         return *this;

  00036	48 8b 85 e0 00
	00 00		 mov	 rax, QWORD PTR this$[rbp]

; 1345 :     }

  0003d	48 8d a5 c8 00
	00 00		 lea	 rsp, QWORD PTR [rbp+200]
  00044	5f		 pop	 rdi
  00045	5d		 pop	 rbp
  00046	c3		 ret	 0
?_Get_first@?$_Compressed_pair@V?$allocator@UEntry@LT@@@std@@V?$_Deque_val@U?$_Deque_simple_types@UEntry@LT@@@std@@@2@$00@std@@QEAAAEAV?$allocator@UEntry@LT@@@2@XZ ENDP ; std::_Compressed_pair<std::allocator<LT::Entry>,std::_Deque_val<std::_Deque_simple_types<LT::Entry> >,1>::_Get_first
_TEXT	ENDS
; Function compile flags: /Odtp /RTCsu /ZI
; File C:\Program Files (x86)\Microsoft Visual Studio\2019\Enterprise\VC\Tools\MSVC\14.27.29110\include\deque
;	COMDAT ?_Getblock@?$_Deque_val@U?$_Deque_simple_types@UEntry@LT@@@std@@@std@@QEBA_K_K@Z
_TEXT	SEGMENT
this$ = 224
_Off$ = 232
?_Getblock@?$_Deque_val@U?$_Deque_simple_types@UEntry@LT@@@std@@@std@@QEBA_K_K@Z PROC ; std::_Deque_val<std::_Deque_simple_types<LT::Entry> >::_Getblock, COMDAT

; 545  :     size_type _Getblock(size_type _Off) const noexcept {

$LN3:
  00000	48 89 54 24 10	 mov	 QWORD PTR [rsp+16], rdx
  00005	48 89 4c 24 08	 mov	 QWORD PTR [rsp+8], rcx
  0000a	55		 push	 rbp
  0000b	57		 push	 rdi
  0000c	48 81 ec e8 00
	00 00		 sub	 rsp, 232		; 000000e8H
  00013	48 8d 6c 24 20	 lea	 rbp, QWORD PTR [rsp+32]
  00018	48 8b fc	 mov	 rdi, rsp
  0001b	b9 3a 00 00 00	 mov	 ecx, 58			; 0000003aH
  00020	b8 cc cc cc cc	 mov	 eax, -858993460		; ccccccccH
  00025	f3 ab		 rep stosd
  00027	48 8b 8c 24 08
	01 00 00	 mov	 rcx, QWORD PTR [rsp+264]
  0002f	48 8d 0d 00 00
	00 00		 lea	 rcx, OFFSET FLAT:__1C3F1DC9_deque
  00036	e8 00 00 00 00	 call	 __CheckForDebuggerJustMyCode

; 546  :         // NB: _Mapsize and _DEQUESIZ are guaranteed to be powers of 2
; 547  :         return (_Off / _DEQUESIZ) & (_Mapsize - 1);

  0003b	48 8b 85 e0 00
	00 00		 mov	 rax, QWORD PTR this$[rbp]
  00042	48 8b 40 10	 mov	 rax, QWORD PTR [rax+16]
  00046	48 ff c8	 dec	 rax
  00049	48 8b 8d e8 00
	00 00		 mov	 rcx, QWORD PTR _Off$[rbp]
  00050	48 23 c8	 and	 rcx, rax
  00053	48 8b c1	 mov	 rax, rcx

; 548  :     }

  00056	48 8d a5 c8 00
	00 00		 lea	 rsp, QWORD PTR [rbp+200]
  0005d	5f		 pop	 rdi
  0005e	5d		 pop	 rbp
  0005f	c3		 ret	 0
?_Getblock@?$_Deque_val@U?$_Deque_simple_types@UEntry@LT@@@std@@@std@@QEBA_K_K@Z ENDP ; std::_Deque_val<std::_Deque_simple_types<LT::Entry> >::_Getblock
_TEXT	ENDS
; Function compile flags: /Odtp /RTCsu /ZI
; File C:\Program Files (x86)\Microsoft Visual Studio\2019\Enterprise\VC\Tools\MSVC\14.27.29110\include\deque
;	COMDAT ??0?$_Deque_val@U?$_Deque_simple_types@UEntry@LT@@@std@@@std@@QEAA@XZ
_TEXT	SEGMENT
this$ = 224
??0?$_Deque_val@U?$_Deque_simple_types@UEntry@LT@@@std@@@std@@QEAA@XZ PROC ; std::_Deque_val<std::_Deque_simple_types<LT::Entry> >::_Deque_val<std::_Deque_simple_types<LT::Entry> >, COMDAT

; 543  :     _Deque_val() noexcept : _Map(), _Mapsize(0), _Myoff(0), _Mysize(0) {}

$LN3:
  00000	48 89 4c 24 08	 mov	 QWORD PTR [rsp+8], rcx
  00005	55		 push	 rbp
  00006	57		 push	 rdi
  00007	48 81 ec e8 00
	00 00		 sub	 rsp, 232		; 000000e8H
  0000e	48 8d 6c 24 20	 lea	 rbp, QWORD PTR [rsp+32]
  00013	48 8b fc	 mov	 rdi, rsp
  00016	b9 3a 00 00 00	 mov	 ecx, 58			; 0000003aH
  0001b	b8 cc cc cc cc	 mov	 eax, -858993460		; ccccccccH
  00020	f3 ab		 rep stosd
  00022	48 8b 8c 24 08
	01 00 00	 mov	 rcx, QWORD PTR [rsp+264]
  0002a	48 8d 0d 00 00
	00 00		 lea	 rcx, OFFSET FLAT:__1C3F1DC9_deque
  00031	e8 00 00 00 00	 call	 __CheckForDebuggerJustMyCode
  00036	48 8b 8d e0 00
	00 00		 mov	 rcx, QWORD PTR this$[rbp]
  0003d	e8 00 00 00 00	 call	 ??0_Container_base12@std@@QEAA@XZ ; std::_Container_base12::_Container_base12
  00042	48 8b 85 e0 00
	00 00		 mov	 rax, QWORD PTR this$[rbp]
  00049	48 c7 40 08 00
	00 00 00	 mov	 QWORD PTR [rax+8], 0
  00051	48 8b 85 e0 00
	00 00		 mov	 rax, QWORD PTR this$[rbp]
  00058	48 c7 40 10 00
	00 00 00	 mov	 QWORD PTR [rax+16], 0
  00060	48 8b 85 e0 00
	00 00		 mov	 rax, QWORD PTR this$[rbp]
  00067	48 c7 40 18 00
	00 00 00	 mov	 QWORD PTR [rax+24], 0
  0006f	48 8b 85 e0 00
	00 00		 mov	 rax, QWORD PTR this$[rbp]
  00076	48 c7 40 20 00
	00 00 00	 mov	 QWORD PTR [rax+32], 0
  0007e	48 8b 85 e0 00
	00 00		 mov	 rax, QWORD PTR this$[rbp]
  00085	48 8d a5 c8 00
	00 00		 lea	 rsp, QWORD PTR [rbp+200]
  0008c	5f		 pop	 rdi
  0008d	5d		 pop	 rbp
  0008e	c3		 ret	 0
??0?$_Deque_val@U?$_Deque_simple_types@UEntry@LT@@@std@@@std@@QEAA@XZ ENDP ; std::_Deque_val<std::_Deque_simple_types<LT::Entry> >::_Deque_val<std::_Deque_simple_types<LT::Entry> >
_TEXT	ENDS
; Function compile flags: /Odtp /RTCsu /ZI
; File C:\Program Files (x86)\Microsoft Visual Studio\2019\Enterprise\VC\Tools\MSVC\14.27.29110\include\deque
;	COMDAT ?_Mysize@?$deque@UEntry@LT@@V?$allocator@UEntry@LT@@@std@@@std@@AEBAAEB_KXZ
_TEXT	SEGMENT
this$ = 224
?_Mysize@?$deque@UEntry@LT@@V?$allocator@UEntry@LT@@@std@@@std@@AEBAAEB_KXZ PROC ; std::deque<LT::Entry,std::allocator<LT::Entry> >::_Mysize, COMDAT

; 1560 :     const size_type& _Mysize() const noexcept {

$LN3:
  00000	48 89 4c 24 08	 mov	 QWORD PTR [rsp+8], rcx
  00005	55		 push	 rbp
  00006	57		 push	 rdi
  00007	48 81 ec e8 00
	00 00		 sub	 rsp, 232		; 000000e8H
  0000e	48 8d 6c 24 20	 lea	 rbp, QWORD PTR [rsp+32]
  00013	48 8b fc	 mov	 rdi, rsp
  00016	b9 3a 00 00 00	 mov	 ecx, 58			; 0000003aH
  0001b	b8 cc cc cc cc	 mov	 eax, -858993460		; ccccccccH
  00020	f3 ab		 rep stosd
  00022	48 8b 8c 24 08
	01 00 00	 mov	 rcx, QWORD PTR [rsp+264]
  0002a	48 8d 0d 00 00
	00 00		 lea	 rcx, OFFSET FLAT:__1C3F1DC9_deque
  00031	e8 00 00 00 00	 call	 __CheckForDebuggerJustMyCode

; 1561 :         return _Get_data()._Mysize;

  00036	48 8b 8d e0 00
	00 00		 mov	 rcx, QWORD PTR this$[rbp]
  0003d	e8 00 00 00 00	 call	 ?_Get_data@?$deque@UEntry@LT@@V?$allocator@UEntry@LT@@@std@@@std@@AEBAAEBV?$_Deque_val@U?$_Deque_simple_types@UEntry@LT@@@std@@@2@XZ ; std::deque<LT::Entry,std::allocator<LT::Entry> >::_Get_data
  00042	48 83 c0 20	 add	 rax, 32			; 00000020H

; 1562 :     }

  00046	48 8d a5 c8 00
	00 00		 lea	 rsp, QWORD PTR [rbp+200]
  0004d	5f		 pop	 rdi
  0004e	5d		 pop	 rbp
  0004f	c3		 ret	 0
?_Mysize@?$deque@UEntry@LT@@V?$allocator@UEntry@LT@@@std@@@std@@AEBAAEB_KXZ ENDP ; std::deque<LT::Entry,std::allocator<LT::Entry> >::_Mysize
_TEXT	ENDS
; Function compile flags: /Odtp /RTCsu /ZI
; File C:\Program Files (x86)\Microsoft Visual Studio\2019\Enterprise\VC\Tools\MSVC\14.27.29110\include\deque
;	COMDAT ?_Mysize@?$deque@UEntry@LT@@V?$allocator@UEntry@LT@@@std@@@std@@AEAAAEA_KXZ
_TEXT	SEGMENT
this$ = 224
?_Mysize@?$deque@UEntry@LT@@V?$allocator@UEntry@LT@@@std@@@std@@AEAAAEA_KXZ PROC ; std::deque<LT::Entry,std::allocator<LT::Entry> >::_Mysize, COMDAT

; 1556 :     size_type& _Mysize() noexcept {

$LN3:
  00000	48 89 4c 24 08	 mov	 QWORD PTR [rsp+8], rcx
  00005	55		 push	 rbp
  00006	57		 push	 rdi
  00007	48 81 ec e8 00
	00 00		 sub	 rsp, 232		; 000000e8H
  0000e	48 8d 6c 24 20	 lea	 rbp, QWORD PTR [rsp+32]
  00013	48 8b fc	 mov	 rdi, rsp
  00016	b9 3a 00 00 00	 mov	 ecx, 58			; 0000003aH
  0001b	b8 cc cc cc cc	 mov	 eax, -858993460		; ccccccccH
  00020	f3 ab		 rep stosd
  00022	48 8b 8c 24 08
	01 00 00	 mov	 rcx, QWORD PTR [rsp+264]
  0002a	48 8d 0d 00 00
	00 00		 lea	 rcx, OFFSET FLAT:__1C3F1DC9_deque
  00031	e8 00 00 00 00	 call	 __CheckForDebuggerJustMyCode

; 1557 :         return _Get_data()._Mysize;

  00036	48 8b 8d e0 00
	00 00		 mov	 rcx, QWORD PTR this$[rbp]
  0003d	e8 00 00 00 00	 call	 ?_Get_data@?$deque@UEntry@LT@@V?$allocator@UEntry@LT@@@std@@@std@@AEAAAEAV?$_Deque_val@U?$_Deque_simple_types@UEntry@LT@@@std@@@2@XZ ; std::deque<LT::Entry,std::allocator<LT::Entry> >::_Get_data
  00042	48 83 c0 20	 add	 rax, 32			; 00000020H

; 1558 :     }

  00046	48 8d a5 c8 00
	00 00		 lea	 rsp, QWORD PTR [rbp+200]
  0004d	5f		 pop	 rdi
  0004e	5d		 pop	 rbp
  0004f	c3		 ret	 0
?_Mysize@?$deque@UEntry@LT@@V?$allocator@UEntry@LT@@@std@@@std@@AEAAAEA_KXZ ENDP ; std::deque<LT::Entry,std::allocator<LT::Entry> >::_Mysize
_TEXT	ENDS
; Function compile flags: /Odtp /RTCsu /ZI
; File C:\Program Files (x86)\Microsoft Visual Studio\2019\Enterprise\VC\Tools\MSVC\14.27.29110\include\deque
;	COMDAT ?_Myoff@?$deque@UEntry@LT@@V?$allocator@UEntry@LT@@@std@@@std@@AEBAAEB_KXZ
_TEXT	SEGMENT
this$ = 224
?_Myoff@?$deque@UEntry@LT@@V?$allocator@UEntry@LT@@@std@@@std@@AEBAAEB_KXZ PROC ; std::deque<LT::Entry,std::allocator<LT::Entry> >::_Myoff, COMDAT

; 1552 :     const size_type& _Myoff() const noexcept {

$LN3:
  00000	48 89 4c 24 08	 mov	 QWORD PTR [rsp+8], rcx
  00005	55		 push	 rbp
  00006	57		 push	 rdi
  00007	48 81 ec e8 00
	00 00		 sub	 rsp, 232		; 000000e8H
  0000e	48 8d 6c 24 20	 lea	 rbp, QWORD PTR [rsp+32]
  00013	48 8b fc	 mov	 rdi, rsp
  00016	b9 3a 00 00 00	 mov	 ecx, 58			; 0000003aH
  0001b	b8 cc cc cc cc	 mov	 eax, -858993460		; ccccccccH
  00020	f3 ab		 rep stosd
  00022	48 8b 8c 24 08
	01 00 00	 mov	 rcx, QWORD PTR [rsp+264]
  0002a	48 8d 0d 00 00
	00 00		 lea	 rcx, OFFSET FLAT:__1C3F1DC9_deque
  00031	e8 00 00 00 00	 call	 __CheckForDebuggerJustMyCode

; 1553 :         return _Get_data()._Myoff;

  00036	48 8b 8d e0 00
	00 00		 mov	 rcx, QWORD PTR this$[rbp]
  0003d	e8 00 00 00 00	 call	 ?_Get_data@?$deque@UEntry@LT@@V?$allocator@UEntry@LT@@@std@@@std@@AEBAAEBV?$_Deque_val@U?$_Deque_simple_types@UEntry@LT@@@std@@@2@XZ ; std::deque<LT::Entry,std::allocator<LT::Entry> >::_Get_data
  00042	48 83 c0 18	 add	 rax, 24

; 1554 :     }

  00046	48 8d a5 c8 00
	00 00		 lea	 rsp, QWORD PTR [rbp+200]
  0004d	5f		 pop	 rdi
  0004e	5d		 pop	 rbp
  0004f	c3		 ret	 0
?_Myoff@?$deque@UEntry@LT@@V?$allocator@UEntry@LT@@@std@@@std@@AEBAAEB_KXZ ENDP ; std::deque<LT::Entry,std::allocator<LT::Entry> >::_Myoff
_TEXT	ENDS
; Function compile flags: /Odtp /RTCsu /ZI
; File C:\Program Files (x86)\Microsoft Visual Studio\2019\Enterprise\VC\Tools\MSVC\14.27.29110\include\deque
;	COMDAT ?_Myoff@?$deque@UEntry@LT@@V?$allocator@UEntry@LT@@@std@@@std@@AEAAAEA_KXZ
_TEXT	SEGMENT
this$ = 224
?_Myoff@?$deque@UEntry@LT@@V?$allocator@UEntry@LT@@@std@@@std@@AEAAAEA_KXZ PROC ; std::deque<LT::Entry,std::allocator<LT::Entry> >::_Myoff, COMDAT

; 1548 :     size_type& _Myoff() noexcept {

$LN3:
  00000	48 89 4c 24 08	 mov	 QWORD PTR [rsp+8], rcx
  00005	55		 push	 rbp
  00006	57		 push	 rdi
  00007	48 81 ec e8 00
	00 00		 sub	 rsp, 232		; 000000e8H
  0000e	48 8d 6c 24 20	 lea	 rbp, QWORD PTR [rsp+32]
  00013	48 8b fc	 mov	 rdi, rsp
  00016	b9 3a 00 00 00	 mov	 ecx, 58			; 0000003aH
  0001b	b8 cc cc cc cc	 mov	 eax, -858993460		; ccccccccH
  00020	f3 ab		 rep stosd
  00022	48 8b 8c 24 08
	01 00 00	 mov	 rcx, QWORD PTR [rsp+264]
  0002a	48 8d 0d 00 00
	00 00		 lea	 rcx, OFFSET FLAT:__1C3F1DC9_deque
  00031	e8 00 00 00 00	 call	 __CheckForDebuggerJustMyCode

; 1549 :         return _Get_data()._Myoff;

  00036	48 8b 8d e0 00
	00 00		 mov	 rcx, QWORD PTR this$[rbp]
  0003d	e8 00 00 00 00	 call	 ?_Get_data@?$deque@UEntry@LT@@V?$allocator@UEntry@LT@@@std@@@std@@AEAAAEAV?$_Deque_val@U?$_Deque_simple_types@UEntry@LT@@@std@@@2@XZ ; std::deque<LT::Entry,std::allocator<LT::Entry> >::_Get_data
  00042	48 83 c0 18	 add	 rax, 24

; 1550 :     }

  00046	48 8d a5 c8 00
	00 00		 lea	 rsp, QWORD PTR [rbp+200]
  0004d	5f		 pop	 rdi
  0004e	5d		 pop	 rbp
  0004f	c3		 ret	 0
?_Myoff@?$deque@UEntry@LT@@V?$allocator@UEntry@LT@@@std@@@std@@AEAAAEA_KXZ ENDP ; std::deque<LT::Entry,std::allocator<LT::Entry> >::_Myoff
_TEXT	ENDS
; Function compile flags: /Odtp /RTCsu /ZI
; File C:\Program Files (x86)\Microsoft Visual Studio\2019\Enterprise\VC\Tools\MSVC\14.27.29110\include\deque
;	COMDAT ?_Mapsize@?$deque@UEntry@LT@@V?$allocator@UEntry@LT@@@std@@@std@@AEAAAEA_KXZ
_TEXT	SEGMENT
this$ = 224
?_Mapsize@?$deque@UEntry@LT@@V?$allocator@UEntry@LT@@@std@@@std@@AEAAAEA_KXZ PROC ; std::deque<LT::Entry,std::allocator<LT::Entry> >::_Mapsize, COMDAT

; 1540 :     size_type& _Mapsize() noexcept {

$LN3:
  00000	48 89 4c 24 08	 mov	 QWORD PTR [rsp+8], rcx
  00005	55		 push	 rbp
  00006	57		 push	 rdi
  00007	48 81 ec e8 00
	00 00		 sub	 rsp, 232		; 000000e8H
  0000e	48 8d 6c 24 20	 lea	 rbp, QWORD PTR [rsp+32]
  00013	48 8b fc	 mov	 rdi, rsp
  00016	b9 3a 00 00 00	 mov	 ecx, 58			; 0000003aH
  0001b	b8 cc cc cc cc	 mov	 eax, -858993460		; ccccccccH
  00020	f3 ab		 rep stosd
  00022	48 8b 8c 24 08
	01 00 00	 mov	 rcx, QWORD PTR [rsp+264]
  0002a	48 8d 0d 00 00
	00 00		 lea	 rcx, OFFSET FLAT:__1C3F1DC9_deque
  00031	e8 00 00 00 00	 call	 __CheckForDebuggerJustMyCode

; 1541 :         return _Get_data()._Mapsize;

  00036	48 8b 8d e0 00
	00 00		 mov	 rcx, QWORD PTR this$[rbp]
  0003d	e8 00 00 00 00	 call	 ?_Get_data@?$deque@UEntry@LT@@V?$allocator@UEntry@LT@@@std@@@std@@AEAAAEAV?$_Deque_val@U?$_Deque_simple_types@UEntry@LT@@@std@@@2@XZ ; std::deque<LT::Entry,std::allocator<LT::Entry> >::_Get_data
  00042	48 83 c0 10	 add	 rax, 16

; 1542 :     }

  00046	48 8d a5 c8 00
	00 00		 lea	 rsp, QWORD PTR [rbp+200]
  0004d	5f		 pop	 rdi
  0004e	5d		 pop	 rbp
  0004f	c3		 ret	 0
?_Mapsize@?$deque@UEntry@LT@@V?$allocator@UEntry@LT@@@std@@@std@@AEAAAEA_KXZ ENDP ; std::deque<LT::Entry,std::allocator<LT::Entry> >::_Mapsize
_TEXT	ENDS
; Function compile flags: /Odtp /RTCsu /ZI
; File C:\Program Files (x86)\Microsoft Visual Studio\2019\Enterprise\VC\Tools\MSVC\14.27.29110\include\deque
;	COMDAT ?_Map@?$deque@UEntry@LT@@V?$allocator@UEntry@LT@@@std@@@std@@AEAAAEAPEAPEAUEntry@LT@@XZ
_TEXT	SEGMENT
this$ = 224
?_Map@?$deque@UEntry@LT@@V?$allocator@UEntry@LT@@@std@@@std@@AEAAAEAPEAPEAUEntry@LT@@XZ PROC ; std::deque<LT::Entry,std::allocator<LT::Entry> >::_Map, COMDAT

; 1532 :     _Mapptr& _Map() noexcept {

$LN3:
  00000	48 89 4c 24 08	 mov	 QWORD PTR [rsp+8], rcx
  00005	55		 push	 rbp
  00006	57		 push	 rdi
  00007	48 81 ec e8 00
	00 00		 sub	 rsp, 232		; 000000e8H
  0000e	48 8d 6c 24 20	 lea	 rbp, QWORD PTR [rsp+32]
  00013	48 8b fc	 mov	 rdi, rsp
  00016	b9 3a 00 00 00	 mov	 ecx, 58			; 0000003aH
  0001b	b8 cc cc cc cc	 mov	 eax, -858993460		; ccccccccH
  00020	f3 ab		 rep stosd
  00022	48 8b 8c 24 08
	01 00 00	 mov	 rcx, QWORD PTR [rsp+264]
  0002a	48 8d 0d 00 00
	00 00		 lea	 rcx, OFFSET FLAT:__1C3F1DC9_deque
  00031	e8 00 00 00 00	 call	 __CheckForDebuggerJustMyCode

; 1533 :         return _Get_data()._Map;

  00036	48 8b 8d e0 00
	00 00		 mov	 rcx, QWORD PTR this$[rbp]
  0003d	e8 00 00 00 00	 call	 ?_Get_data@?$deque@UEntry@LT@@V?$allocator@UEntry@LT@@@std@@@std@@AEAAAEAV?$_Deque_val@U?$_Deque_simple_types@UEntry@LT@@@std@@@2@XZ ; std::deque<LT::Entry,std::allocator<LT::Entry> >::_Get_data
  00042	48 83 c0 08	 add	 rax, 8

; 1534 :     }

  00046	48 8d a5 c8 00
	00 00		 lea	 rsp, QWORD PTR [rbp+200]
  0004d	5f		 pop	 rdi
  0004e	5d		 pop	 rbp
  0004f	c3		 ret	 0
?_Map@?$deque@UEntry@LT@@V?$allocator@UEntry@LT@@@std@@@std@@AEAAAEAPEAPEAUEntry@LT@@XZ ENDP ; std::deque<LT::Entry,std::allocator<LT::Entry> >::_Map
_TEXT	ENDS
; Function compile flags: /Odtp /RTCsu /ZI
; File C:\Program Files (x86)\Microsoft Visual Studio\2019\Enterprise\VC\Tools\MSVC\14.27.29110\include\deque
;	COMDAT ?_Get_data@?$deque@UEntry@LT@@V?$allocator@UEntry@LT@@@std@@@std@@AEBAAEBV?$_Deque_val@U?$_Deque_simple_types@UEntry@LT@@@std@@@2@XZ
_TEXT	SEGMENT
this$ = 224
?_Get_data@?$deque@UEntry@LT@@V?$allocator@UEntry@LT@@@std@@@std@@AEBAAEBV?$_Deque_val@U?$_Deque_simple_types@UEntry@LT@@@std@@@2@XZ PROC ; std::deque<LT::Entry,std::allocator<LT::Entry> >::_Get_data, COMDAT

; 1528 :     const _Scary_val& _Get_data() const noexcept {

$LN3:
  00000	48 89 4c 24 08	 mov	 QWORD PTR [rsp+8], rcx
  00005	55		 push	 rbp
  00006	57		 push	 rdi
  00007	48 81 ec e8 00
	00 00		 sub	 rsp, 232		; 000000e8H
  0000e	48 8d 6c 24 20	 lea	 rbp, QWORD PTR [rsp+32]
  00013	48 8b fc	 mov	 rdi, rsp
  00016	b9 3a 00 00 00	 mov	 ecx, 58			; 0000003aH
  0001b	b8 cc cc cc cc	 mov	 eax, -858993460		; ccccccccH
  00020	f3 ab		 rep stosd
  00022	48 8b 8c 24 08
	01 00 00	 mov	 rcx, QWORD PTR [rsp+264]
  0002a	48 8d 0d 00 00
	00 00		 lea	 rcx, OFFSET FLAT:__1C3F1DC9_deque
  00031	e8 00 00 00 00	 call	 __CheckForDebuggerJustMyCode

; 1529 :         return _Mypair._Myval2;

  00036	48 8b 85 e0 00
	00 00		 mov	 rax, QWORD PTR this$[rbp]

; 1530 :     }

  0003d	48 8d a5 c8 00
	00 00		 lea	 rsp, QWORD PTR [rbp+200]
  00044	5f		 pop	 rdi
  00045	5d		 pop	 rbp
  00046	c3		 ret	 0
?_Get_data@?$deque@UEntry@LT@@V?$allocator@UEntry@LT@@@std@@@std@@AEBAAEBV?$_Deque_val@U?$_Deque_simple_types@UEntry@LT@@@std@@@2@XZ ENDP ; std::deque<LT::Entry,std::allocator<LT::Entry> >::_Get_data
_TEXT	ENDS
; Function compile flags: /Odtp /RTCsu /ZI
; File C:\Program Files (x86)\Microsoft Visual Studio\2019\Enterprise\VC\Tools\MSVC\14.27.29110\include\deque
;	COMDAT ?_Get_data@?$deque@UEntry@LT@@V?$allocator@UEntry@LT@@@std@@@std@@AEAAAEAV?$_Deque_val@U?$_Deque_simple_types@UEntry@LT@@@std@@@2@XZ
_TEXT	SEGMENT
this$ = 224
?_Get_data@?$deque@UEntry@LT@@V?$allocator@UEntry@LT@@@std@@@std@@AEAAAEAV?$_Deque_val@U?$_Deque_simple_types@UEntry@LT@@@std@@@2@XZ PROC ; std::deque<LT::Entry,std::allocator<LT::Entry> >::_Get_data, COMDAT

; 1524 :     _Scary_val& _Get_data() noexcept {

$LN3:
  00000	48 89 4c 24 08	 mov	 QWORD PTR [rsp+8], rcx
  00005	55		 push	 rbp
  00006	57		 push	 rdi
  00007	48 81 ec e8 00
	00 00		 sub	 rsp, 232		; 000000e8H
  0000e	48 8d 6c 24 20	 lea	 rbp, QWORD PTR [rsp+32]
  00013	48 8b fc	 mov	 rdi, rsp
  00016	b9 3a 00 00 00	 mov	 ecx, 58			; 0000003aH
  0001b	b8 cc cc cc cc	 mov	 eax, -858993460		; ccccccccH
  00020	f3 ab		 rep stosd
  00022	48 8b 8c 24 08
	01 00 00	 mov	 rcx, QWORD PTR [rsp+264]
  0002a	48 8d 0d 00 00
	00 00		 lea	 rcx, OFFSET FLAT:__1C3F1DC9_deque
  00031	e8 00 00 00 00	 call	 __CheckForDebuggerJustMyCode

; 1525 :         return _Mypair._Myval2;

  00036	48 8b 85 e0 00
	00 00		 mov	 rax, QWORD PTR this$[rbp]

; 1526 :     }

  0003d	48 8d a5 c8 00
	00 00		 lea	 rsp, QWORD PTR [rbp+200]
  00044	5f		 pop	 rdi
  00045	5d		 pop	 rbp
  00046	c3		 ret	 0
?_Get_data@?$deque@UEntry@LT@@V?$allocator@UEntry@LT@@@std@@@std@@AEAAAEAV?$_Deque_val@U?$_Deque_simple_types@UEntry@LT@@@std@@@2@XZ ENDP ; std::deque<LT::Entry,std::allocator<LT::Entry> >::_Get_data
_TEXT	ENDS
; Function compile flags: /Odtp /RTCsu /ZI
; File C:\Program Files (x86)\Microsoft Visual Studio\2019\Enterprise\VC\Tools\MSVC\14.27.29110\include\deque
;	COMDAT ?_Getal@?$deque@UEntry@LT@@V?$allocator@UEntry@LT@@@std@@@std@@AEBAAEBV?$allocator@UEntry@LT@@@2@XZ
_TEXT	SEGMENT
this$ = 224
?_Getal@?$deque@UEntry@LT@@V?$allocator@UEntry@LT@@@std@@@std@@AEBAAEBV?$allocator@UEntry@LT@@@2@XZ PROC ; std::deque<LT::Entry,std::allocator<LT::Entry> >::_Getal, COMDAT

; 1520 :     const _Alty& _Getal() const noexcept {

$LN3:
  00000	48 89 4c 24 08	 mov	 QWORD PTR [rsp+8], rcx
  00005	55		 push	 rbp
  00006	57		 push	 rdi
  00007	48 81 ec e8 00
	00 00		 sub	 rsp, 232		; 000000e8H
  0000e	48 8d 6c 24 20	 lea	 rbp, QWORD PTR [rsp+32]
  00013	48 8b fc	 mov	 rdi, rsp
  00016	b9 3a 00 00 00	 mov	 ecx, 58			; 0000003aH
  0001b	b8 cc cc cc cc	 mov	 eax, -858993460		; ccccccccH
  00020	f3 ab		 rep stosd
  00022	48 8b 8c 24 08
	01 00 00	 mov	 rcx, QWORD PTR [rsp+264]
  0002a	48 8d 0d 00 00
	00 00		 lea	 rcx, OFFSET FLAT:__1C3F1DC9_deque
  00031	e8 00 00 00 00	 call	 __CheckForDebuggerJustMyCode

; 1521 :         return _Mypair._Get_first();

  00036	48 8b 85 e0 00
	00 00		 mov	 rax, QWORD PTR this$[rbp]
  0003d	48 8b c8	 mov	 rcx, rax
  00040	e8 00 00 00 00	 call	 ?_Get_first@?$_Compressed_pair@V?$allocator@UEntry@LT@@@std@@V?$_Deque_val@U?$_Deque_simple_types@UEntry@LT@@@std@@@2@$00@std@@QEBAAEBV?$allocator@UEntry@LT@@@2@XZ ; std::_Compressed_pair<std::allocator<LT::Entry>,std::_Deque_val<std::_Deque_simple_types<LT::Entry> >,1>::_Get_first
  00045	90		 npad	 1

; 1522 :     }

  00046	48 8d a5 c8 00
	00 00		 lea	 rsp, QWORD PTR [rbp+200]
  0004d	5f		 pop	 rdi
  0004e	5d		 pop	 rbp
  0004f	c3		 ret	 0
?_Getal@?$deque@UEntry@LT@@V?$allocator@UEntry@LT@@@std@@@std@@AEBAAEBV?$allocator@UEntry@LT@@@2@XZ ENDP ; std::deque<LT::Entry,std::allocator<LT::Entry> >::_Getal
_TEXT	ENDS
; Function compile flags: /Odtp /RTCsu /ZI
; File C:\Program Files (x86)\Microsoft Visual Studio\2019\Enterprise\VC\Tools\MSVC\14.27.29110\include\deque
;	COMDAT ?_Getal@?$deque@UEntry@LT@@V?$allocator@UEntry@LT@@@std@@@std@@AEAAAEAV?$allocator@UEntry@LT@@@2@XZ
_TEXT	SEGMENT
this$ = 224
?_Getal@?$deque@UEntry@LT@@V?$allocator@UEntry@LT@@@std@@@std@@AEAAAEAV?$allocator@UEntry@LT@@@2@XZ PROC ; std::deque<LT::Entry,std::allocator<LT::Entry> >::_Getal, COMDAT

; 1516 :     _Alty& _Getal() noexcept {

$LN3:
  00000	48 89 4c 24 08	 mov	 QWORD PTR [rsp+8], rcx
  00005	55		 push	 rbp
  00006	57		 push	 rdi
  00007	48 81 ec e8 00
	00 00		 sub	 rsp, 232		; 000000e8H
  0000e	48 8d 6c 24 20	 lea	 rbp, QWORD PTR [rsp+32]
  00013	48 8b fc	 mov	 rdi, rsp
  00016	b9 3a 00 00 00	 mov	 ecx, 58			; 0000003aH
  0001b	b8 cc cc cc cc	 mov	 eax, -858993460		; ccccccccH
  00020	f3 ab		 rep stosd
  00022	48 8b 8c 24 08
	01 00 00	 mov	 rcx, QWORD PTR [rsp+264]
  0002a	48 8d 0d 00 00
	00 00		 lea	 rcx, OFFSET FLAT:__1C3F1DC9_deque
  00031	e8 00 00 00 00	 call	 __CheckForDebuggerJustMyCode

; 1517 :         return _Mypair._Get_first();

  00036	48 8b 85 e0 00
	00 00		 mov	 rax, QWORD PTR this$[rbp]
  0003d	48 8b c8	 mov	 rcx, rax
  00040	e8 00 00 00 00	 call	 ?_Get_first@?$_Compressed_pair@V?$allocator@UEntry@LT@@@std@@V?$_Deque_val@U?$_Deque_simple_types@UEntry@LT@@@std@@@2@$00@std@@QEAAAEAV?$allocator@UEntry@LT@@@2@XZ ; std::_Compressed_pair<std::allocator<LT::Entry>,std::_Deque_val<std::_Deque_simple_types<LT::Entry> >,1>::_Get_first
  00045	90		 npad	 1

; 1518 :     }

  00046	48 8d a5 c8 00
	00 00		 lea	 rsp, QWORD PTR [rbp+200]
  0004d	5f		 pop	 rdi
  0004e	5d		 pop	 rbp
  0004f	c3		 ret	 0
?_Getal@?$deque@UEntry@LT@@V?$allocator@UEntry@LT@@@std@@@std@@AEAAAEAV?$allocator@UEntry@LT@@@2@XZ ENDP ; std::deque<LT::Entry,std::allocator<LT::Entry> >::_Getal
_TEXT	ENDS
; Function compile flags: /Odtp /RTCsu /ZI
; File C:\Program Files (x86)\Microsoft Visual Studio\2019\Enterprise\VC\Tools\MSVC\14.27.29110\include\deque
;	COMDAT ?_Orphan_all@?$deque@UEntry@LT@@V?$allocator@UEntry@LT@@@std@@@std@@AEAAXXZ
_TEXT	SEGMENT
this$ = 224
?_Orphan_all@?$deque@UEntry@LT@@V?$allocator@UEntry@LT@@@std@@@std@@AEAAXXZ PROC ; std::deque<LT::Entry,std::allocator<LT::Entry> >::_Orphan_all, COMDAT

; 1512 :     void _Orphan_all() noexcept {

$LN3:
  00000	48 89 4c 24 08	 mov	 QWORD PTR [rsp+8], rcx
  00005	55		 push	 rbp
  00006	57		 push	 rdi
  00007	48 81 ec e8 00
	00 00		 sub	 rsp, 232		; 000000e8H
  0000e	48 8d 6c 24 20	 lea	 rbp, QWORD PTR [rsp+32]
  00013	48 8b fc	 mov	 rdi, rsp
  00016	b9 3a 00 00 00	 mov	 ecx, 58			; 0000003aH
  0001b	b8 cc cc cc cc	 mov	 eax, -858993460		; ccccccccH
  00020	f3 ab		 rep stosd
  00022	48 8b 8c 24 08
	01 00 00	 mov	 rcx, QWORD PTR [rsp+264]
  0002a	48 8d 0d 00 00
	00 00		 lea	 rcx, OFFSET FLAT:__1C3F1DC9_deque
  00031	e8 00 00 00 00	 call	 __CheckForDebuggerJustMyCode

; 1513 :         _Get_data()._Orphan_all();

  00036	48 8b 8d e0 00
	00 00		 mov	 rcx, QWORD PTR this$[rbp]
  0003d	e8 00 00 00 00	 call	 ?_Get_data@?$deque@UEntry@LT@@V?$allocator@UEntry@LT@@@std@@@std@@AEAAAEAV?$_Deque_val@U?$_Deque_simple_types@UEntry@LT@@@std@@@2@XZ ; std::deque<LT::Entry,std::allocator<LT::Entry> >::_Get_data
  00042	48 8b c8	 mov	 rcx, rax
  00045	e8 00 00 00 00	 call	 ?_Orphan_all@_Container_base12@std@@QEAAXXZ ; std::_Container_base12::_Orphan_all
  0004a	90		 npad	 1

; 1514 :     }

  0004b	48 8d a5 c8 00
	00 00		 lea	 rsp, QWORD PTR [rbp+200]
  00052	5f		 pop	 rdi
  00053	5d		 pop	 rbp
  00054	c3		 ret	 0
?_Orphan_all@?$deque@UEntry@LT@@V?$allocator@UEntry@LT@@@std@@@std@@AEAAXXZ ENDP ; std::deque<LT::Entry,std::allocator<LT::Entry> >::_Orphan_all
_TEXT	ENDS
; Function compile flags: /Odtp /RTCsu /ZI
; File C:\Program Files (x86)\Microsoft Visual Studio\2019\Enterprise\VC\Tools\MSVC\14.27.29110\include\deque
;	COMDAT ?_Getblock@?$deque@UEntry@LT@@V?$allocator@UEntry@LT@@@std@@@std@@AEBA_K_K@Z
_TEXT	SEGMENT
this$ = 224
_Off$ = 232
?_Getblock@?$deque@UEntry@LT@@V?$allocator@UEntry@LT@@@std@@@std@@AEBA_K_K@Z PROC ; std::deque<LT::Entry,std::allocator<LT::Entry> >::_Getblock, COMDAT

; 1508 :     size_type _Getblock(size_type _Off) const noexcept {

$LN3:
  00000	48 89 54 24 10	 mov	 QWORD PTR [rsp+16], rdx
  00005	48 89 4c 24 08	 mov	 QWORD PTR [rsp+8], rcx
  0000a	55		 push	 rbp
  0000b	57		 push	 rdi
  0000c	48 81 ec e8 00
	00 00		 sub	 rsp, 232		; 000000e8H
  00013	48 8d 6c 24 20	 lea	 rbp, QWORD PTR [rsp+32]
  00018	48 8b fc	 mov	 rdi, rsp
  0001b	b9 3a 00 00 00	 mov	 ecx, 58			; 0000003aH
  00020	b8 cc cc cc cc	 mov	 eax, -858993460		; ccccccccH
  00025	f3 ab		 rep stosd
  00027	48 8b 8c 24 08
	01 00 00	 mov	 rcx, QWORD PTR [rsp+264]
  0002f	48 8d 0d 00 00
	00 00		 lea	 rcx, OFFSET FLAT:__1C3F1DC9_deque
  00036	e8 00 00 00 00	 call	 __CheckForDebuggerJustMyCode

; 1509 :         return _Get_data()._Getblock(_Off);

  0003b	48 8b 8d e0 00
	00 00		 mov	 rcx, QWORD PTR this$[rbp]
  00042	e8 00 00 00 00	 call	 ?_Get_data@?$deque@UEntry@LT@@V?$allocator@UEntry@LT@@@std@@@std@@AEBAAEBV?$_Deque_val@U?$_Deque_simple_types@UEntry@LT@@@std@@@2@XZ ; std::deque<LT::Entry,std::allocator<LT::Entry> >::_Get_data
  00047	48 8b 95 e8 00
	00 00		 mov	 rdx, QWORD PTR _Off$[rbp]
  0004e	48 8b c8	 mov	 rcx, rax
  00051	e8 00 00 00 00	 call	 ?_Getblock@?$_Deque_val@U?$_Deque_simple_types@UEntry@LT@@@std@@@std@@QEBA_K_K@Z ; std::_Deque_val<std::_Deque_simple_types<LT::Entry> >::_Getblock
  00056	90		 npad	 1

; 1510 :     }

  00057	48 8d a5 c8 00
	00 00		 lea	 rsp, QWORD PTR [rbp+200]
  0005e	5f		 pop	 rdi
  0005f	5d		 pop	 rbp
  00060	c3		 ret	 0
?_Getblock@?$deque@UEntry@LT@@V?$allocator@UEntry@LT@@@std@@@std@@AEBA_K_K@Z ENDP ; std::deque<LT::Entry,std::allocator<LT::Entry> >::_Getblock
_TEXT	ENDS
; Function compile flags: /Odtp /RTCsu /ZI
; File C:\Program Files (x86)\Microsoft Visual Studio\2019\Enterprise\VC\Tools\MSVC\14.27.29110\include\deque
;	COMDAT ?_Orphan_off@?$deque@UEntry@LT@@V?$allocator@UEntry@LT@@@std@@@std@@AEBAX_K@Z
_TEXT	SEGMENT
_Offhigh$ = 8
_Lock$ = 36
_Pnext$ = 72
_Pnextoff$4 = 104
tv65 = 312
tv71 = 320
__$ArrayPad$ = 328
this$ = 368
_Offlo$ = 376
?_Orphan_off@?$deque@UEntry@LT@@V?$allocator@UEntry@LT@@@std@@@std@@AEBAX_K@Z PROC ; std::deque<LT::Entry,std::allocator<LT::Entry> >::_Orphan_off, COMDAT

; 1488 :     void _Orphan_off(size_type _Offlo) const noexcept { // orphan iterators with specified offset(s)

$LN11:
  00000	48 89 54 24 10	 mov	 QWORD PTR [rsp+16], rdx
  00005	48 89 4c 24 08	 mov	 QWORD PTR [rsp+8], rcx
  0000a	55		 push	 rbp
  0000b	57		 push	 rdi
  0000c	48 81 ec 78 01
	00 00		 sub	 rsp, 376		; 00000178H
  00013	48 8d 6c 24 20	 lea	 rbp, QWORD PTR [rsp+32]
  00018	48 8b fc	 mov	 rdi, rsp
  0001b	b9 5e 00 00 00	 mov	 ecx, 94			; 0000005eH
  00020	b8 cc cc cc cc	 mov	 eax, -858993460		; ccccccccH
  00025	f3 ab		 rep stosd
  00027	48 8b 8c 24 98
	01 00 00	 mov	 rcx, QWORD PTR [rsp+408]
  0002f	48 8b 05 00 00
	00 00		 mov	 rax, QWORD PTR __security_cookie
  00036	48 33 c5	 xor	 rax, rbp
  00039	48 89 85 48 01
	00 00		 mov	 QWORD PTR __$ArrayPad$[rbp], rax
  00040	48 8d 0d 00 00
	00 00		 lea	 rcx, OFFSET FLAT:__1C3F1DC9_deque
  00047	e8 00 00 00 00	 call	 __CheckForDebuggerJustMyCode

; 1489 :         size_type _Offhigh = _Myoff() + _Mysize() <= _Offlo + 1 ? static_cast<size_type>(-1) : _Offlo;

  0004c	48 8b 8d 70 01
	00 00		 mov	 rcx, QWORD PTR this$[rbp]
  00053	e8 00 00 00 00	 call	 ?_Myoff@?$deque@UEntry@LT@@V?$allocator@UEntry@LT@@@std@@@std@@AEBAAEB_KXZ ; std::deque<LT::Entry,std::allocator<LT::Entry> >::_Myoff
  00058	48 89 85 38 01
	00 00		 mov	 QWORD PTR tv65[rbp], rax
  0005f	48 8b 8d 70 01
	00 00		 mov	 rcx, QWORD PTR this$[rbp]
  00066	e8 00 00 00 00	 call	 ?_Mysize@?$deque@UEntry@LT@@V?$allocator@UEntry@LT@@@std@@@std@@AEBAAEB_KXZ ; std::deque<LT::Entry,std::allocator<LT::Entry> >::_Mysize
  0006b	48 8b 8d 38 01
	00 00		 mov	 rcx, QWORD PTR tv65[rbp]
  00072	48 8b 09	 mov	 rcx, QWORD PTR [rcx]
  00075	48 03 08	 add	 rcx, QWORD PTR [rax]
  00078	48 8b c1	 mov	 rax, rcx
  0007b	48 8b 8d 78 01
	00 00		 mov	 rcx, QWORD PTR _Offlo$[rbp]
  00082	48 ff c1	 inc	 rcx
  00085	48 3b c1	 cmp	 rax, rcx
  00088	77 0d		 ja	 SHORT $LN9@Orphan_off
  0008a	48 c7 85 40 01
	00 00 ff ff ff
	ff		 mov	 QWORD PTR tv71[rbp], -1
  00095	eb 0e		 jmp	 SHORT $LN10@Orphan_off
$LN9@Orphan_off:
  00097	48 8b 85 78 01
	00 00		 mov	 rax, QWORD PTR _Offlo$[rbp]
  0009e	48 89 85 40 01
	00 00		 mov	 QWORD PTR tv71[rbp], rax
$LN10@Orphan_off:
  000a5	48 8b 85 40 01
	00 00		 mov	 rax, QWORD PTR tv71[rbp]
  000ac	48 89 45 08	 mov	 QWORD PTR _Offhigh$[rbp], rax

; 1490 :         if (_Offlo == _Myoff()) {

  000b0	48 8b 8d 70 01
	00 00		 mov	 rcx, QWORD PTR this$[rbp]
  000b7	e8 00 00 00 00	 call	 ?_Myoff@?$deque@UEntry@LT@@V?$allocator@UEntry@LT@@@std@@@std@@AEBAAEB_KXZ ; std::deque<LT::Entry,std::allocator<LT::Entry> >::_Myoff
  000bc	48 8b 00	 mov	 rax, QWORD PTR [rax]
  000bf	48 39 85 78 01
	00 00		 cmp	 QWORD PTR _Offlo$[rbp], rax
  000c6	75 0b		 jne	 SHORT $LN4@Orphan_off

; 1491 :             _Offlo = 0;

  000c8	48 c7 85 78 01
	00 00 00 00 00
	00		 mov	 QWORD PTR _Offlo$[rbp], 0
$LN4@Orphan_off:

; 1492 :         }
; 1493 : 
; 1494 :         _Lockit _Lock(_LOCK_DEBUG);

  000d3	ba 03 00 00 00	 mov	 edx, 3
  000d8	48 8d 4d 24	 lea	 rcx, QWORD PTR _Lock$[rbp]
  000dc	ff 15 00 00 00
	00		 call	 QWORD PTR __imp_??0_Lockit@std@@QEAA@H@Z

; 1495 :         _Iterator_base12** _Pnext = &_Get_data()._Myproxy->_Myfirstiter;

  000e2	48 8b 8d 70 01
	00 00		 mov	 rcx, QWORD PTR this$[rbp]
  000e9	e8 00 00 00 00	 call	 ?_Get_data@?$deque@UEntry@LT@@V?$allocator@UEntry@LT@@@std@@@std@@AEBAAEBV?$_Deque_val@U?$_Deque_simple_types@UEntry@LT@@@std@@@2@XZ ; std::deque<LT::Entry,std::allocator<LT::Entry> >::_Get_data
  000ee	48 8b 00	 mov	 rax, QWORD PTR [rax]
  000f1	48 83 c0 08	 add	 rax, 8
  000f5	48 89 45 48	 mov	 QWORD PTR _Pnext$[rbp], rax
$LN2@Orphan_off:

; 1496 :         while (*_Pnext) {

  000f9	48 8b 45 48	 mov	 rax, QWORD PTR _Pnext$[rbp]
  000fd	48 83 38 00	 cmp	 QWORD PTR [rax], 0
  00101	74 59		 je	 SHORT $LN3@Orphan_off

; 1497 :             const auto _Pnextoff = static_cast<const_iterator&>(**_Pnext)._Myoff;

  00103	48 8b 45 48	 mov	 rax, QWORD PTR _Pnext$[rbp]
  00107	48 8b 00	 mov	 rax, QWORD PTR [rax]
  0010a	48 8b 40 10	 mov	 rax, QWORD PTR [rax+16]
  0010e	48 89 45 68	 mov	 QWORD PTR _Pnextoff$4[rbp], rax

; 1498 :             if (_Pnextoff < _Offlo || _Offhigh < _Pnextoff) {

  00112	48 8b 85 78 01
	00 00		 mov	 rax, QWORD PTR _Offlo$[rbp]
  00119	48 39 45 68	 cmp	 QWORD PTR _Pnextoff$4[rbp], rax
  0011d	72 0a		 jb	 SHORT $LN7@Orphan_off
  0011f	48 8b 45 68	 mov	 rax, QWORD PTR _Pnextoff$4[rbp]
  00123	48 39 45 08	 cmp	 QWORD PTR _Offhigh$[rbp], rax
  00127	73 11		 jae	 SHORT $LN5@Orphan_off
$LN7@Orphan_off:

; 1499 :                 _Pnext = &(*_Pnext)->_Mynextiter;

  00129	48 8b 45 48	 mov	 rax, QWORD PTR _Pnext$[rbp]
  0012d	48 8b 00	 mov	 rax, QWORD PTR [rax]
  00130	48 83 c0 08	 add	 rax, 8
  00134	48 89 45 48	 mov	 QWORD PTR _Pnext$[rbp], rax

; 1500 :             } else { // orphan the iterator

  00138	eb 20		 jmp	 SHORT $LN6@Orphan_off
$LN5@Orphan_off:

; 1501 :                 (*_Pnext)->_Myproxy = nullptr;

  0013a	48 8b 45 48	 mov	 rax, QWORD PTR _Pnext$[rbp]
  0013e	48 8b 00	 mov	 rax, QWORD PTR [rax]
  00141	48 c7 00 00 00
	00 00		 mov	 QWORD PTR [rax], 0

; 1502 :                 *_Pnext             = (*_Pnext)->_Mynextiter;

  00148	48 8b 45 48	 mov	 rax, QWORD PTR _Pnext$[rbp]
  0014c	48 8b 00	 mov	 rax, QWORD PTR [rax]
  0014f	48 8b 4d 48	 mov	 rcx, QWORD PTR _Pnext$[rbp]
  00153	48 8b 40 08	 mov	 rax, QWORD PTR [rax+8]
  00157	48 89 01	 mov	 QWORD PTR [rcx], rax
$LN6@Orphan_off:

; 1503 :             }
; 1504 :         }

  0015a	eb 9d		 jmp	 SHORT $LN2@Orphan_off
$LN3@Orphan_off:

; 1505 :     }

  0015c	48 8d 4d 24	 lea	 rcx, QWORD PTR _Lock$[rbp]
  00160	ff 15 00 00 00
	00		 call	 QWORD PTR __imp_??1_Lockit@std@@QEAA@XZ
  00166	48 8d 4d e0	 lea	 rcx, QWORD PTR [rbp-32]
  0016a	48 8d 15 00 00
	00 00		 lea	 rdx, OFFSET FLAT:?_Orphan_off@?$deque@UEntry@LT@@V?$allocator@UEntry@LT@@@std@@@std@@AEBAX_K@Z$rtcFrameData
  00171	e8 00 00 00 00	 call	 _RTC_CheckStackVars
  00176	90		 npad	 1
  00177	48 8b 8d 48 01
	00 00		 mov	 rcx, QWORD PTR __$ArrayPad$[rbp]
  0017e	48 33 cd	 xor	 rcx, rbp
  00181	e8 00 00 00 00	 call	 __security_check_cookie
  00186	48 8d a5 58 01
	00 00		 lea	 rsp, QWORD PTR [rbp+344]
  0018d	5f		 pop	 rdi
  0018e	5d		 pop	 rbp
  0018f	c3		 ret	 0
?_Orphan_off@?$deque@UEntry@LT@@V?$allocator@UEntry@LT@@@std@@@std@@AEBAX_K@Z ENDP ; std::deque<LT::Entry,std::allocator<LT::Entry> >::_Orphan_off
_TEXT	ENDS
; Function compile flags: /Odtp /RTCsu /ZI
; File C:\Program Files (x86)\Microsoft Visual Studio\2019\Enterprise\VC\Tools\MSVC\14.27.29110\include\deque
;	COMDAT ?_Tidy@?$deque@UEntry@LT@@V?$allocator@UEntry@LT@@@std@@@std@@AEAAXXZ
_TEXT	SEGMENT
_Almap$ = 4
_Block$4 = 40
tv145 = 248
tv134 = 248
__$ArrayPad$ = 256
this$ = 304
?_Tidy@?$deque@UEntry@LT@@V?$allocator@UEntry@LT@@@std@@@std@@AEAAXXZ PROC ; std::deque<LT::Entry,std::allocator<LT::Entry> >::_Tidy, COMDAT

; 1464 :     void _Tidy() noexcept { // free all storage

$LN10:
  00000	48 89 4c 24 08	 mov	 QWORD PTR [rsp+8], rcx
  00005	55		 push	 rbp
  00006	57		 push	 rdi
  00007	48 81 ec 38 01
	00 00		 sub	 rsp, 312		; 00000138H
  0000e	48 8d 6c 24 20	 lea	 rbp, QWORD PTR [rsp+32]
  00013	48 8b fc	 mov	 rdi, rsp
  00016	b9 4e 00 00 00	 mov	 ecx, 78			; 0000004eH
  0001b	b8 cc cc cc cc	 mov	 eax, -858993460		; ccccccccH
  00020	f3 ab		 rep stosd
  00022	48 8b 8c 24 58
	01 00 00	 mov	 rcx, QWORD PTR [rsp+344]
  0002a	48 8b 05 00 00
	00 00		 mov	 rax, QWORD PTR __security_cookie
  00031	48 33 c5	 xor	 rax, rbp
  00034	48 89 85 00 01
	00 00		 mov	 QWORD PTR __$ArrayPad$[rbp], rax
  0003b	48 8d 0d 00 00
	00 00		 lea	 rcx, OFFSET FLAT:__1C3F1DC9_deque
  00042	e8 00 00 00 00	 call	 __CheckForDebuggerJustMyCode

; 1465 :         _Orphan_all();

  00047	48 8b 8d 30 01
	00 00		 mov	 rcx, QWORD PTR this$[rbp]
  0004e	e8 00 00 00 00	 call	 ?_Orphan_all@?$deque@UEntry@LT@@V?$allocator@UEntry@LT@@@std@@@std@@AEAAXXZ ; std::deque<LT::Entry,std::allocator<LT::Entry> >::_Orphan_all

; 1466 : 
; 1467 :         _Alpty _Almap(_Getal());

  00053	48 8b 8d 30 01
	00 00		 mov	 rcx, QWORD PTR this$[rbp]
  0005a	e8 00 00 00 00	 call	 ?_Getal@?$deque@UEntry@LT@@V?$allocator@UEntry@LT@@@std@@@std@@AEAAAEAV?$allocator@UEntry@LT@@@2@XZ ; std::deque<LT::Entry,std::allocator<LT::Entry> >::_Getal
  0005f	48 8b d0	 mov	 rdx, rax
  00062	48 8d 4d 04	 lea	 rcx, QWORD PTR _Almap$[rbp]
  00066	e8 00 00 00 00	 call	 ??$?0UEntry@LT@@@?$allocator@PEAUEntry@LT@@@std@@QEAA@AEBV?$allocator@UEntry@LT@@@1@@Z ; std::allocator<LT::Entry *>::allocator<LT::Entry *><LT::Entry>
$LN2@Tidy:

; 1468 :         while (!empty()) {

  0006b	48 8b 8d 30 01
	00 00		 mov	 rcx, QWORD PTR this$[rbp]
  00072	e8 00 00 00 00	 call	 ?empty@?$deque@UEntry@LT@@V?$allocator@UEntry@LT@@@std@@@std@@QEBA_NXZ ; std::deque<LT::Entry,std::allocator<LT::Entry> >::empty
  00077	0f b6 c0	 movzx	 eax, al
  0007a	85 c0		 test	 eax, eax
  0007c	75 0e		 jne	 SHORT $LN3@Tidy

; 1469 :             pop_back();

  0007e	48 8b 8d 30 01
	00 00		 mov	 rcx, QWORD PTR this$[rbp]
  00085	e8 00 00 00 00	 call	 ?pop_back@?$deque@UEntry@LT@@V?$allocator@UEntry@LT@@@std@@@std@@QEAAXXZ ; std::deque<LT::Entry,std::allocator<LT::Entry> >::pop_back

; 1470 :         }

  0008a	eb df		 jmp	 SHORT $LN2@Tidy
$LN3@Tidy:

; 1471 : 
; 1472 :         for (size_type _Block = _Mapsize(); 0 < _Block;) { // free storage for a block and destroy pointer

  0008c	48 8b 8d 30 01
	00 00		 mov	 rcx, QWORD PTR this$[rbp]
  00093	e8 00 00 00 00	 call	 ?_Mapsize@?$deque@UEntry@LT@@V?$allocator@UEntry@LT@@@std@@@std@@AEAAAEA_KXZ ; std::deque<LT::Entry,std::allocator<LT::Entry> >::_Mapsize
  00098	48 8b 00	 mov	 rax, QWORD PTR [rax]
  0009b	48 89 45 28	 mov	 QWORD PTR _Block$4[rbp], rax
$LN4@Tidy:
  0009f	48 83 7d 28 00	 cmp	 QWORD PTR _Block$4[rbp], 0
  000a4	0f 86 88 00 00
	00		 jbe	 $LN5@Tidy

; 1473 :             if (_Map()[--_Block]) { // free block and destroy its pointer

  000aa	48 8b 45 28	 mov	 rax, QWORD PTR _Block$4[rbp]
  000ae	48 ff c8	 dec	 rax
  000b1	48 89 45 28	 mov	 QWORD PTR _Block$4[rbp], rax
  000b5	48 8b 8d 30 01
	00 00		 mov	 rcx, QWORD PTR this$[rbp]
  000bc	e8 00 00 00 00	 call	 ?_Map@?$deque@UEntry@LT@@V?$allocator@UEntry@LT@@@std@@@std@@AEAAAEAPEAPEAUEntry@LT@@XZ ; std::deque<LT::Entry,std::allocator<LT::Entry> >::_Map
  000c1	48 8b 00	 mov	 rax, QWORD PTR [rax]
  000c4	48 8b 4d 28	 mov	 rcx, QWORD PTR _Block$4[rbp]
  000c8	48 83 3c c8 00	 cmp	 QWORD PTR [rax+rcx*8], 0
  000cd	74 5e		 je	 SHORT $LN7@Tidy

; 1474 :                 _Getal().deallocate(_Map()[_Block], _DEQUESIZ);

  000cf	48 8b 8d 30 01
	00 00		 mov	 rcx, QWORD PTR this$[rbp]
  000d6	e8 00 00 00 00	 call	 ?_Map@?$deque@UEntry@LT@@V?$allocator@UEntry@LT@@@std@@@std@@AEAAAEAPEAPEAUEntry@LT@@XZ ; std::deque<LT::Entry,std::allocator<LT::Entry> >::_Map
  000db	48 8b 00	 mov	 rax, QWORD PTR [rax]
  000de	48 89 85 f8 00
	00 00		 mov	 QWORD PTR tv145[rbp], rax
  000e5	48 8b 8d 30 01
	00 00		 mov	 rcx, QWORD PTR this$[rbp]
  000ec	e8 00 00 00 00	 call	 ?_Getal@?$deque@UEntry@LT@@V?$allocator@UEntry@LT@@@std@@@std@@AEAAAEAV?$allocator@UEntry@LT@@@2@XZ ; std::deque<LT::Entry,std::allocator<LT::Entry> >::_Getal
  000f1	41 b8 01 00 00
	00		 mov	 r8d, 1
  000f7	48 8b 4d 28	 mov	 rcx, QWORD PTR _Block$4[rbp]
  000fb	48 8b 95 f8 00
	00 00		 mov	 rdx, QWORD PTR tv145[rbp]
  00102	48 8b 14 ca	 mov	 rdx, QWORD PTR [rdx+rcx*8]
  00106	48 8b c8	 mov	 rcx, rax
  00109	e8 00 00 00 00	 call	 ?deallocate@?$allocator@UEntry@LT@@@std@@QEAAXQEAUEntry@LT@@_K@Z ; std::allocator<LT::Entry>::deallocate

; 1475 :                 _Destroy_in_place(_Map()[_Block]);

  0010e	48 8b 8d 30 01
	00 00		 mov	 rcx, QWORD PTR this$[rbp]
  00115	e8 00 00 00 00	 call	 ?_Map@?$deque@UEntry@LT@@V?$allocator@UEntry@LT@@@std@@@std@@AEAAAEAPEAPEAUEntry@LT@@XZ ; std::deque<LT::Entry,std::allocator<LT::Entry> >::_Map
  0011a	48 8b 00	 mov	 rax, QWORD PTR [rax]
  0011d	48 8b 4d 28	 mov	 rcx, QWORD PTR _Block$4[rbp]
  00121	48 8d 04 c8	 lea	 rax, QWORD PTR [rax+rcx*8]
  00125	48 8b c8	 mov	 rcx, rax
  00128	e8 00 00 00 00	 call	 ??$_Destroy_in_place@PEAUEntry@LT@@@std@@YAXAEAPEAUEntry@LT@@@Z ; std::_Destroy_in_place<LT::Entry *>
$LN7@Tidy:

; 1476 :             }
; 1477 :         }

  0012d	e9 6d ff ff ff	 jmp	 $LN4@Tidy
$LN5@Tidy:

; 1478 : 
; 1479 :         if (_Map() != _Mapptr()) {

  00132	48 8b 8d 30 01
	00 00		 mov	 rcx, QWORD PTR this$[rbp]
  00139	e8 00 00 00 00	 call	 ?_Map@?$deque@UEntry@LT@@V?$allocator@UEntry@LT@@@std@@@std@@AEAAAEAPEAPEAUEntry@LT@@XZ ; std::deque<LT::Entry,std::allocator<LT::Entry> >::_Map
  0013e	48 83 38 00	 cmp	 QWORD PTR [rax], 0
  00142	74 35		 je	 SHORT $LN8@Tidy

; 1480 :             _Almap.deallocate(_Map(), _Mapsize()); // free storage for map

  00144	48 8b 8d 30 01
	00 00		 mov	 rcx, QWORD PTR this$[rbp]
  0014b	e8 00 00 00 00	 call	 ?_Mapsize@?$deque@UEntry@LT@@V?$allocator@UEntry@LT@@@std@@@std@@AEAAAEA_KXZ ; std::deque<LT::Entry,std::allocator<LT::Entry> >::_Mapsize
  00150	48 89 85 f8 00
	00 00		 mov	 QWORD PTR tv134[rbp], rax
  00157	48 8b 8d 30 01
	00 00		 mov	 rcx, QWORD PTR this$[rbp]
  0015e	e8 00 00 00 00	 call	 ?_Map@?$deque@UEntry@LT@@V?$allocator@UEntry@LT@@@std@@@std@@AEAAAEAPEAPEAUEntry@LT@@XZ ; std::deque<LT::Entry,std::allocator<LT::Entry> >::_Map
  00163	48 8b 8d f8 00
	00 00		 mov	 rcx, QWORD PTR tv134[rbp]
  0016a	4c 8b 01	 mov	 r8, QWORD PTR [rcx]
  0016d	48 8b 10	 mov	 rdx, QWORD PTR [rax]
  00170	48 8d 4d 04	 lea	 rcx, QWORD PTR _Almap$[rbp]
  00174	e8 00 00 00 00	 call	 ?deallocate@?$allocator@PEAUEntry@LT@@@std@@QEAAXQEAPEAUEntry@LT@@_K@Z ; std::allocator<LT::Entry *>::deallocate
$LN8@Tidy:

; 1481 :         }
; 1482 : 
; 1483 :         _Mapsize() = 0;

  00179	48 8b 8d 30 01
	00 00		 mov	 rcx, QWORD PTR this$[rbp]
  00180	e8 00 00 00 00	 call	 ?_Mapsize@?$deque@UEntry@LT@@V?$allocator@UEntry@LT@@@std@@@std@@AEAAAEA_KXZ ; std::deque<LT::Entry,std::allocator<LT::Entry> >::_Mapsize
  00185	48 c7 00 00 00
	00 00		 mov	 QWORD PTR [rax], 0

; 1484 :         _Map()     = _Mapptr();

  0018c	48 8b 8d 30 01
	00 00		 mov	 rcx, QWORD PTR this$[rbp]
  00193	e8 00 00 00 00	 call	 ?_Map@?$deque@UEntry@LT@@V?$allocator@UEntry@LT@@@std@@@std@@AEAAAEAPEAPEAUEntry@LT@@XZ ; std::deque<LT::Entry,std::allocator<LT::Entry> >::_Map
  00198	48 c7 00 00 00
	00 00		 mov	 QWORD PTR [rax], 0

; 1485 :     }

  0019f	48 8d 4d e0	 lea	 rcx, QWORD PTR [rbp-32]
  001a3	48 8d 15 00 00
	00 00		 lea	 rdx, OFFSET FLAT:?_Tidy@?$deque@UEntry@LT@@V?$allocator@UEntry@LT@@@std@@@std@@AEAAXXZ$rtcFrameData
  001aa	e8 00 00 00 00	 call	 _RTC_CheckStackVars
  001af	90		 npad	 1
  001b0	48 8b 8d 00 01
	00 00		 mov	 rcx, QWORD PTR __$ArrayPad$[rbp]
  001b7	48 33 cd	 xor	 rcx, rbp
  001ba	e8 00 00 00 00	 call	 __security_check_cookie
  001bf	48 8d a5 18 01
	00 00		 lea	 rsp, QWORD PTR [rbp+280]
  001c6	5f		 pop	 rdi
  001c7	5d		 pop	 rbp
  001c8	c3		 ret	 0
?_Tidy@?$deque@UEntry@LT@@V?$allocator@UEntry@LT@@@std@@@std@@AEAAXXZ ENDP ; std::deque<LT::Entry,std::allocator<LT::Entry> >::_Tidy
_TEXT	ENDS
; Function compile flags: /Odtp /RTCsu /ZI
; File C:\Program Files (x86)\Microsoft Visual Studio\2019\Enterprise\VC\Tools\MSVC\14.27.29110\include\deque
;	COMDAT ?_Growmap@?$deque@UEntry@LT@@V?$allocator@UEntry@LT@@@std@@@std@@AEAAX_K@Z
_TEXT	SEGMENT
_Almap$ = 4
_Newsize$ = 40
_Myboff$ = 72
_Newmap$ = 104
_Myptr$ = 136
tv212 = 344
tv203 = 344
tv187 = 344
tv177 = 344
tv168 = 344
tv153 = 344
tv136 = 344
tv73 = 344
tv191 = 352
tv140 = 352
__$ArrayPad$ = 360
this$ = 400
_Count$ = 408
?_Growmap@?$deque@UEntry@LT@@V?$allocator@UEntry@LT@@@std@@@std@@AEAAX_K@Z PROC ; std::deque<LT::Entry,std::allocator<LT::Entry> >::_Growmap, COMDAT

; 1425 :     void _Growmap(size_type _Count) { // grow map by at least _Count pointers, _Mapsize() a power of 2

$LN12:
  00000	48 89 54 24 10	 mov	 QWORD PTR [rsp+16], rdx
  00005	48 89 4c 24 08	 mov	 QWORD PTR [rsp+8], rcx
  0000a	55		 push	 rbp
  0000b	57		 push	 rdi
  0000c	48 81 ec 98 01
	00 00		 sub	 rsp, 408		; 00000198H
  00013	48 8d 6c 24 20	 lea	 rbp, QWORD PTR [rsp+32]
  00018	48 8b fc	 mov	 rdi, rsp
  0001b	b9 66 00 00 00	 mov	 ecx, 102		; 00000066H
  00020	b8 cc cc cc cc	 mov	 eax, -858993460		; ccccccccH
  00025	f3 ab		 rep stosd
  00027	48 8b 8c 24 b8
	01 00 00	 mov	 rcx, QWORD PTR [rsp+440]
  0002f	48 8b 05 00 00
	00 00		 mov	 rax, QWORD PTR __security_cookie
  00036	48 33 c5	 xor	 rax, rbp
  00039	48 89 85 68 01
	00 00		 mov	 QWORD PTR __$ArrayPad$[rbp], rax
  00040	48 8d 0d 00 00
	00 00		 lea	 rcx, OFFSET FLAT:__1C3F1DC9_deque
  00047	e8 00 00 00 00	 call	 __CheckForDebuggerJustMyCode

; 1426 :         static_assert(1 < _DEQUEMAPSIZ, "The _Xlen() test should always be performed.");
; 1427 : 
; 1428 :         _Alpty _Almap(_Getal());

  0004c	48 8b 8d 90 01
	00 00		 mov	 rcx, QWORD PTR this$[rbp]
  00053	e8 00 00 00 00	 call	 ?_Getal@?$deque@UEntry@LT@@V?$allocator@UEntry@LT@@@std@@@std@@AEAAAEAV?$allocator@UEntry@LT@@@2@XZ ; std::deque<LT::Entry,std::allocator<LT::Entry> >::_Getal
  00058	48 8b d0	 mov	 rdx, rax
  0005b	48 8d 4d 04	 lea	 rcx, QWORD PTR _Almap$[rbp]
  0005f	e8 00 00 00 00	 call	 ??$?0UEntry@LT@@@?$allocator@PEAUEntry@LT@@@std@@QEAA@AEBV?$allocator@UEntry@LT@@@1@@Z ; std::allocator<LT::Entry *>::allocator<LT::Entry *><LT::Entry>

; 1429 :         size_type _Newsize = 0 < _Mapsize() ? _Mapsize() : 1;

  00064	48 8b 8d 90 01
	00 00		 mov	 rcx, QWORD PTR this$[rbp]
  0006b	e8 00 00 00 00	 call	 ?_Mapsize@?$deque@UEntry@LT@@V?$allocator@UEntry@LT@@@std@@@std@@AEAAAEA_KXZ ; std::deque<LT::Entry,std::allocator<LT::Entry> >::_Mapsize
  00070	48 83 38 00	 cmp	 QWORD PTR [rax], 0
  00074	76 18		 jbe	 SHORT $LN10@Growmap
  00076	48 8b 8d 90 01
	00 00		 mov	 rcx, QWORD PTR this$[rbp]
  0007d	e8 00 00 00 00	 call	 ?_Mapsize@?$deque@UEntry@LT@@V?$allocator@UEntry@LT@@@std@@@std@@AEAAAEA_KXZ ; std::deque<LT::Entry,std::allocator<LT::Entry> >::_Mapsize
  00082	48 8b 00	 mov	 rax, QWORD PTR [rax]
  00085	48 89 85 58 01
	00 00		 mov	 QWORD PTR tv73[rbp], rax
  0008c	eb 0b		 jmp	 SHORT $LN11@Growmap
$LN10@Growmap:
  0008e	48 c7 85 58 01
	00 00 01 00 00
	00		 mov	 QWORD PTR tv73[rbp], 1
$LN11@Growmap:
  00099	48 8b 85 58 01
	00 00		 mov	 rax, QWORD PTR tv73[rbp]
  000a0	48 89 45 28	 mov	 QWORD PTR _Newsize$[rbp], rax
$LN2@Growmap:

; 1430 :         while (_Newsize - _Mapsize() < _Count || _Newsize < _DEQUEMAPSIZ) {

  000a4	48 8b 8d 90 01
	00 00		 mov	 rcx, QWORD PTR this$[rbp]
  000ab	e8 00 00 00 00	 call	 ?_Mapsize@?$deque@UEntry@LT@@V?$allocator@UEntry@LT@@@std@@@std@@AEAAAEA_KXZ ; std::deque<LT::Entry,std::allocator<LT::Entry> >::_Mapsize
  000b0	48 8b 00	 mov	 rax, QWORD PTR [rax]
  000b3	48 8b 4d 28	 mov	 rcx, QWORD PTR _Newsize$[rbp]
  000b7	48 2b c8	 sub	 rcx, rax
  000ba	48 8b c1	 mov	 rax, rcx
  000bd	48 3b 85 98 01
	00 00		 cmp	 rax, QWORD PTR _Count$[rbp]
  000c4	72 07		 jb	 SHORT $LN4@Growmap
  000c6	48 83 7d 28 08	 cmp	 QWORD PTR _Newsize$[rbp], 8
  000cb	73 2f		 jae	 SHORT $LN3@Growmap
$LN4@Growmap:

; 1431 :             // scale _Newsize to 2^N >= _Mapsize() + _Count
; 1432 :             if (max_size() / _DEQUESIZ - _Newsize < _Newsize) {

  000cd	48 8b 8d 90 01
	00 00		 mov	 rcx, QWORD PTR this$[rbp]
  000d4	e8 00 00 00 00	 call	 ?max_size@?$deque@UEntry@LT@@V?$allocator@UEntry@LT@@@std@@@std@@QEBA_KXZ ; std::deque<LT::Entry,std::allocator<LT::Entry> >::max_size
  000d9	48 2b 45 28	 sub	 rax, QWORD PTR _Newsize$[rbp]
  000dd	48 3b 45 28	 cmp	 rax, QWORD PTR _Newsize$[rbp]
  000e1	73 0c		 jae	 SHORT $LN5@Growmap

; 1433 :                 _Xlen(); // result too long

  000e3	48 8b 8d 90 01
	00 00		 mov	 rcx, QWORD PTR this$[rbp]
  000ea	e8 00 00 00 00	 call	 ?_Xlen@?$deque@UEntry@LT@@V?$allocator@UEntry@LT@@@std@@@std@@AEBAXXZ ; std::deque<LT::Entry,std::allocator<LT::Entry> >::_Xlen
$LN5@Growmap:

; 1434 :             }
; 1435 : 
; 1436 :             _Newsize *= 2;

  000ef	48 8b 45 28	 mov	 rax, QWORD PTR _Newsize$[rbp]
  000f3	48 d1 e0	 shl	 rax, 1
  000f6	48 89 45 28	 mov	 QWORD PTR _Newsize$[rbp], rax

; 1437 :         }

  000fa	eb a8		 jmp	 SHORT $LN2@Growmap
$LN3@Growmap:

; 1438 :         _Count = _Newsize - _Mapsize();

  000fc	48 8b 8d 90 01
	00 00		 mov	 rcx, QWORD PTR this$[rbp]
  00103	e8 00 00 00 00	 call	 ?_Mapsize@?$deque@UEntry@LT@@V?$allocator@UEntry@LT@@@std@@@std@@AEAAAEA_KXZ ; std::deque<LT::Entry,std::allocator<LT::Entry> >::_Mapsize
  00108	48 8b 00	 mov	 rax, QWORD PTR [rax]
  0010b	48 8b 4d 28	 mov	 rcx, QWORD PTR _Newsize$[rbp]
  0010f	48 2b c8	 sub	 rcx, rax
  00112	48 8b c1	 mov	 rax, rcx
  00115	48 89 85 98 01
	00 00		 mov	 QWORD PTR _Count$[rbp], rax

; 1439 : 
; 1440 :         size_type _Myboff = _Myoff() / _DEQUESIZ;

  0011c	48 8b 8d 90 01
	00 00		 mov	 rcx, QWORD PTR this$[rbp]
  00123	e8 00 00 00 00	 call	 ?_Myoff@?$deque@UEntry@LT@@V?$allocator@UEntry@LT@@@std@@@std@@AEAAAEA_KXZ ; std::deque<LT::Entry,std::allocator<LT::Entry> >::_Myoff
  00128	48 8b 00	 mov	 rax, QWORD PTR [rax]
  0012b	48 89 45 48	 mov	 QWORD PTR _Myboff$[rbp], rax

; 1441 :         _Mapptr _Newmap   = _Almap.allocate(_Mapsize() + _Count);

  0012f	48 8b 8d 90 01
	00 00		 mov	 rcx, QWORD PTR this$[rbp]
  00136	e8 00 00 00 00	 call	 ?_Mapsize@?$deque@UEntry@LT@@V?$allocator@UEntry@LT@@@std@@@std@@AEAAAEA_KXZ ; std::deque<LT::Entry,std::allocator<LT::Entry> >::_Mapsize
  0013b	48 8b 00	 mov	 rax, QWORD PTR [rax]
  0013e	48 03 85 98 01
	00 00		 add	 rax, QWORD PTR _Count$[rbp]
  00145	48 8b d0	 mov	 rdx, rax
  00148	48 8d 4d 04	 lea	 rcx, QWORD PTR _Almap$[rbp]
  0014c	e8 00 00 00 00	 call	 ?allocate@?$allocator@PEAUEntry@LT@@@std@@QEAAPEAPEAUEntry@LT@@_K@Z ; std::allocator<LT::Entry *>::allocate
  00151	48 89 45 68	 mov	 QWORD PTR _Newmap$[rbp], rax

; 1442 :         _Mapptr _Myptr    = _Newmap + _Myboff;

  00155	48 8b 45 68	 mov	 rax, QWORD PTR _Newmap$[rbp]
  00159	48 8b 4d 48	 mov	 rcx, QWORD PTR _Myboff$[rbp]
  0015d	48 8d 04 c8	 lea	 rax, QWORD PTR [rax+rcx*8]
  00161	48 89 85 88 00
	00 00		 mov	 QWORD PTR _Myptr$[rbp], rax

; 1443 : 
; 1444 :         _Myptr = _STD uninitialized_copy(_Map() + _Myboff, _Map() + _Mapsize(), _Myptr); // copy initial to end

  00168	48 8b 8d 90 01
	00 00		 mov	 rcx, QWORD PTR this$[rbp]
  0016f	e8 00 00 00 00	 call	 ?_Map@?$deque@UEntry@LT@@V?$allocator@UEntry@LT@@@std@@@std@@AEAAAEAPEAPEAUEntry@LT@@XZ ; std::deque<LT::Entry,std::allocator<LT::Entry> >::_Map
  00174	48 89 85 58 01
	00 00		 mov	 QWORD PTR tv136[rbp], rax
  0017b	48 8b 8d 90 01
	00 00		 mov	 rcx, QWORD PTR this$[rbp]
  00182	e8 00 00 00 00	 call	 ?_Mapsize@?$deque@UEntry@LT@@V?$allocator@UEntry@LT@@@std@@@std@@AEAAAEA_KXZ ; std::deque<LT::Entry,std::allocator<LT::Entry> >::_Mapsize
  00187	48 8b 00	 mov	 rax, QWORD PTR [rax]
  0018a	48 8b 8d 58 01
	00 00		 mov	 rcx, QWORD PTR tv136[rbp]
  00191	48 8b 09	 mov	 rcx, QWORD PTR [rcx]
  00194	48 8d 04 c1	 lea	 rax, QWORD PTR [rcx+rax*8]
  00198	48 89 85 60 01
	00 00		 mov	 QWORD PTR tv140[rbp], rax
  0019f	48 8b 8d 90 01
	00 00		 mov	 rcx, QWORD PTR this$[rbp]
  001a6	e8 00 00 00 00	 call	 ?_Map@?$deque@UEntry@LT@@V?$allocator@UEntry@LT@@@std@@@std@@AEAAAEAPEAPEAUEntry@LT@@XZ ; std::deque<LT::Entry,std::allocator<LT::Entry> >::_Map
  001ab	48 8b 00	 mov	 rax, QWORD PTR [rax]
  001ae	48 8b 4d 48	 mov	 rcx, QWORD PTR _Myboff$[rbp]
  001b2	48 8d 04 c8	 lea	 rax, QWORD PTR [rax+rcx*8]
  001b6	4c 8b 85 88 00
	00 00		 mov	 r8, QWORD PTR _Myptr$[rbp]
  001bd	48 8b 8d 60 01
	00 00		 mov	 rcx, QWORD PTR tv140[rbp]
  001c4	48 8b d1	 mov	 rdx, rcx
  001c7	48 8b c8	 mov	 rcx, rax
  001ca	e8 00 00 00 00	 call	 ??$uninitialized_copy@PEAPEAUEntry@LT@@PEAPEAU12@@std@@YAPEAPEAUEntry@LT@@QEAPEAU12@0PEAPEAU12@@Z ; std::uninitialized_copy<LT::Entry * *,LT::Entry * *>
  001cf	48 89 85 88 00
	00 00		 mov	 QWORD PTR _Myptr$[rbp], rax

; 1445 :         if (_Myboff <= _Count) { // increment greater than offset of initial block

  001d6	48 8b 85 98 01
	00 00		 mov	 rax, QWORD PTR _Count$[rbp]
  001dd	48 39 45 48	 cmp	 QWORD PTR _Myboff$[rbp], rax
  001e1	77 7c		 ja	 SHORT $LN6@Growmap

; 1446 :             _Myptr = _STD uninitialized_copy(_Map(), _Map() + _Myboff, _Myptr); // copy rest of old

  001e3	48 8b 8d 90 01
	00 00		 mov	 rcx, QWORD PTR this$[rbp]
  001ea	e8 00 00 00 00	 call	 ?_Map@?$deque@UEntry@LT@@V?$allocator@UEntry@LT@@@std@@@std@@AEAAAEAPEAPEAUEntry@LT@@XZ ; std::deque<LT::Entry,std::allocator<LT::Entry> >::_Map
  001ef	48 8b 00	 mov	 rax, QWORD PTR [rax]
  001f2	48 8b 4d 48	 mov	 rcx, QWORD PTR _Myboff$[rbp]
  001f6	48 8d 04 c8	 lea	 rax, QWORD PTR [rax+rcx*8]
  001fa	48 89 85 58 01
	00 00		 mov	 QWORD PTR tv153[rbp], rax
  00201	48 8b 8d 90 01
	00 00		 mov	 rcx, QWORD PTR this$[rbp]
  00208	e8 00 00 00 00	 call	 ?_Map@?$deque@UEntry@LT@@V?$allocator@UEntry@LT@@@std@@@std@@AEAAAEAPEAPEAUEntry@LT@@XZ ; std::deque<LT::Entry,std::allocator<LT::Entry> >::_Map
  0020d	4c 8b 85 88 00
	00 00		 mov	 r8, QWORD PTR _Myptr$[rbp]
  00214	48 8b 8d 58 01
	00 00		 mov	 rcx, QWORD PTR tv153[rbp]
  0021b	48 8b d1	 mov	 rdx, rcx
  0021e	48 8b 08	 mov	 rcx, QWORD PTR [rax]
  00221	e8 00 00 00 00	 call	 ??$uninitialized_copy@PEAPEAUEntry@LT@@PEAPEAU12@@std@@YAPEAPEAUEntry@LT@@QEAPEAU12@0PEAPEAU12@@Z ; std::uninitialized_copy<LT::Entry * *,LT::Entry * *>
  00226	48 89 85 88 00
	00 00		 mov	 QWORD PTR _Myptr$[rbp], rax

; 1447 :             _Uninitialized_value_construct_n_unchecked1(_Myptr, _Count - _Myboff); // clear suffix of new

  0022d	48 8b 45 48	 mov	 rax, QWORD PTR _Myboff$[rbp]
  00231	48 8b 8d 98 01
	00 00		 mov	 rcx, QWORD PTR _Count$[rbp]
  00238	48 2b c8	 sub	 rcx, rax
  0023b	48 8b c1	 mov	 rax, rcx
  0023e	48 8b d0	 mov	 rdx, rax
  00241	48 8b 8d 88 00
	00 00		 mov	 rcx, QWORD PTR _Myptr$[rbp]
  00248	e8 00 00 00 00	 call	 ??$_Uninitialized_value_construct_n_unchecked1@PEAPEAUEntry@LT@@_K@std@@YAPEAPEAUEntry@LT@@PEAPEAU12@_K@Z ; std::_Uninitialized_value_construct_n_unchecked1<LT::Entry * *,unsigned __int64>

; 1448 :             _Uninitialized_value_construct_n_unchecked1(_Newmap, _Myboff); // clear prefix of new

  0024d	48 8b 55 48	 mov	 rdx, QWORD PTR _Myboff$[rbp]
  00251	48 8b 4d 68	 mov	 rcx, QWORD PTR _Newmap$[rbp]
  00255	e8 00 00 00 00	 call	 ??$_Uninitialized_value_construct_n_unchecked1@PEAPEAUEntry@LT@@_K@std@@YAPEAPEAUEntry@LT@@PEAPEAU12@_K@Z ; std::_Uninitialized_value_construct_n_unchecked1<LT::Entry * *,unsigned __int64>

; 1449 :         } else { // increment not greater than offset of initial block

  0025a	e9 ae 00 00 00	 jmp	 $LN7@Growmap
$LN6@Growmap:

; 1450 :             _STD uninitialized_copy(_Map(), _Map() + _Count, _Myptr); // copy more old

  0025f	48 8b 8d 90 01
	00 00		 mov	 rcx, QWORD PTR this$[rbp]
  00266	e8 00 00 00 00	 call	 ?_Map@?$deque@UEntry@LT@@V?$allocator@UEntry@LT@@@std@@@std@@AEAAAEAPEAPEAUEntry@LT@@XZ ; std::deque<LT::Entry,std::allocator<LT::Entry> >::_Map
  0026b	48 8b 00	 mov	 rax, QWORD PTR [rax]
  0026e	48 8b 8d 98 01
	00 00		 mov	 rcx, QWORD PTR _Count$[rbp]
  00275	48 8d 04 c8	 lea	 rax, QWORD PTR [rax+rcx*8]
  00279	48 89 85 58 01
	00 00		 mov	 QWORD PTR tv168[rbp], rax
  00280	48 8b 8d 90 01
	00 00		 mov	 rcx, QWORD PTR this$[rbp]
  00287	e8 00 00 00 00	 call	 ?_Map@?$deque@UEntry@LT@@V?$allocator@UEntry@LT@@@std@@@std@@AEAAAEAPEAPEAUEntry@LT@@XZ ; std::deque<LT::Entry,std::allocator<LT::Entry> >::_Map
  0028c	4c 8b 85 88 00
	00 00		 mov	 r8, QWORD PTR _Myptr$[rbp]
  00293	48 8b 8d 58 01
	00 00		 mov	 rcx, QWORD PTR tv168[rbp]
  0029a	48 8b d1	 mov	 rdx, rcx
  0029d	48 8b 08	 mov	 rcx, QWORD PTR [rax]
  002a0	e8 00 00 00 00	 call	 ??$uninitialized_copy@PEAPEAUEntry@LT@@PEAPEAU12@@std@@YAPEAPEAUEntry@LT@@QEAPEAU12@0PEAPEAU12@@Z ; std::uninitialized_copy<LT::Entry * *,LT::Entry * *>

; 1451 :             _Myptr = _STD uninitialized_copy(_Map() + _Count, _Map() + _Myboff, _Newmap); // copy rest of old

  002a5	48 8b 8d 90 01
	00 00		 mov	 rcx, QWORD PTR this$[rbp]
  002ac	e8 00 00 00 00	 call	 ?_Map@?$deque@UEntry@LT@@V?$allocator@UEntry@LT@@@std@@@std@@AEAAAEAPEAPEAUEntry@LT@@XZ ; std::deque<LT::Entry,std::allocator<LT::Entry> >::_Map
  002b1	48 8b 00	 mov	 rax, QWORD PTR [rax]
  002b4	48 8b 4d 48	 mov	 rcx, QWORD PTR _Myboff$[rbp]
  002b8	48 8d 04 c8	 lea	 rax, QWORD PTR [rax+rcx*8]
  002bc	48 89 85 58 01
	00 00		 mov	 QWORD PTR tv177[rbp], rax
  002c3	48 8b 8d 90 01
	00 00		 mov	 rcx, QWORD PTR this$[rbp]
  002ca	e8 00 00 00 00	 call	 ?_Map@?$deque@UEntry@LT@@V?$allocator@UEntry@LT@@@std@@@std@@AEAAAEAPEAPEAUEntry@LT@@XZ ; std::deque<LT::Entry,std::allocator<LT::Entry> >::_Map
  002cf	48 8b 00	 mov	 rax, QWORD PTR [rax]
  002d2	48 8b 8d 98 01
	00 00		 mov	 rcx, QWORD PTR _Count$[rbp]
  002d9	48 8d 04 c8	 lea	 rax, QWORD PTR [rax+rcx*8]
  002dd	4c 8b 45 68	 mov	 r8, QWORD PTR _Newmap$[rbp]
  002e1	48 8b 8d 58 01
	00 00		 mov	 rcx, QWORD PTR tv177[rbp]
  002e8	48 8b d1	 mov	 rdx, rcx
  002eb	48 8b c8	 mov	 rcx, rax
  002ee	e8 00 00 00 00	 call	 ??$uninitialized_copy@PEAPEAUEntry@LT@@PEAPEAU12@@std@@YAPEAPEAUEntry@LT@@QEAPEAU12@0PEAPEAU12@@Z ; std::uninitialized_copy<LT::Entry * *,LT::Entry * *>
  002f3	48 89 85 88 00
	00 00		 mov	 QWORD PTR _Myptr$[rbp], rax

; 1452 :             _Uninitialized_value_construct_n_unchecked1(_Myptr, _Count); // clear rest to initial block

  002fa	48 8b 95 98 01
	00 00		 mov	 rdx, QWORD PTR _Count$[rbp]
  00301	48 8b 8d 88 00
	00 00		 mov	 rcx, QWORD PTR _Myptr$[rbp]
  00308	e8 00 00 00 00	 call	 ??$_Uninitialized_value_construct_n_unchecked1@PEAPEAUEntry@LT@@_K@std@@YAPEAPEAUEntry@LT@@PEAPEAU12@_K@Z ; std::_Uninitialized_value_construct_n_unchecked1<LT::Entry * *,unsigned __int64>
$LN7@Growmap:

; 1453 :         }
; 1454 : 
; 1455 :         _Destroy_range(_Map() + _Myboff, _Map() + _Mapsize());

  0030d	48 8b 8d 90 01
	00 00		 mov	 rcx, QWORD PTR this$[rbp]
  00314	e8 00 00 00 00	 call	 ?_Map@?$deque@UEntry@LT@@V?$allocator@UEntry@LT@@@std@@@std@@AEAAAEAPEAPEAUEntry@LT@@XZ ; std::deque<LT::Entry,std::allocator<LT::Entry> >::_Map
  00319	48 89 85 58 01
	00 00		 mov	 QWORD PTR tv187[rbp], rax
  00320	48 8b 8d 90 01
	00 00		 mov	 rcx, QWORD PTR this$[rbp]
  00327	e8 00 00 00 00	 call	 ?_Mapsize@?$deque@UEntry@LT@@V?$allocator@UEntry@LT@@@std@@@std@@AEAAAEA_KXZ ; std::deque<LT::Entry,std::allocator<LT::Entry> >::_Mapsize
  0032c	48 8b 00	 mov	 rax, QWORD PTR [rax]
  0032f	48 8b 8d 58 01
	00 00		 mov	 rcx, QWORD PTR tv187[rbp]
  00336	48 8b 09	 mov	 rcx, QWORD PTR [rcx]
  00339	48 8d 04 c1	 lea	 rax, QWORD PTR [rcx+rax*8]
  0033d	48 89 85 60 01
	00 00		 mov	 QWORD PTR tv191[rbp], rax
  00344	48 8b 8d 90 01
	00 00		 mov	 rcx, QWORD PTR this$[rbp]
  0034b	e8 00 00 00 00	 call	 ?_Map@?$deque@UEntry@LT@@V?$allocator@UEntry@LT@@@std@@@std@@AEAAAEAPEAPEAUEntry@LT@@XZ ; std::deque<LT::Entry,std::allocator<LT::Entry> >::_Map
  00350	48 8b 00	 mov	 rax, QWORD PTR [rax]
  00353	48 8b 4d 48	 mov	 rcx, QWORD PTR _Myboff$[rbp]
  00357	48 8d 04 c8	 lea	 rax, QWORD PTR [rax+rcx*8]
  0035b	48 8b 8d 60 01
	00 00		 mov	 rcx, QWORD PTR tv191[rbp]
  00362	48 8b d1	 mov	 rdx, rcx
  00365	48 8b c8	 mov	 rcx, rax
  00368	e8 00 00 00 00	 call	 ??$_Destroy_range@PEAPEAUEntry@LT@@@std@@YAXPEAPEAUEntry@LT@@QEAPEAU12@@Z ; std::_Destroy_range<LT::Entry * *>

; 1456 :         if (_Map() != _Mapptr()) {

  0036d	48 8b 8d 90 01
	00 00		 mov	 rcx, QWORD PTR this$[rbp]
  00374	e8 00 00 00 00	 call	 ?_Map@?$deque@UEntry@LT@@V?$allocator@UEntry@LT@@@std@@@std@@AEAAAEAPEAPEAUEntry@LT@@XZ ; std::deque<LT::Entry,std::allocator<LT::Entry> >::_Map
  00379	48 83 38 00	 cmp	 QWORD PTR [rax], 0
  0037d	74 35		 je	 SHORT $LN8@Growmap

; 1457 :             _Almap.deallocate(_Map(), _Mapsize()); // free storage for old

  0037f	48 8b 8d 90 01
	00 00		 mov	 rcx, QWORD PTR this$[rbp]
  00386	e8 00 00 00 00	 call	 ?_Mapsize@?$deque@UEntry@LT@@V?$allocator@UEntry@LT@@@std@@@std@@AEAAAEA_KXZ ; std::deque<LT::Entry,std::allocator<LT::Entry> >::_Mapsize
  0038b	48 89 85 58 01
	00 00		 mov	 QWORD PTR tv203[rbp], rax
  00392	48 8b 8d 90 01
	00 00		 mov	 rcx, QWORD PTR this$[rbp]
  00399	e8 00 00 00 00	 call	 ?_Map@?$deque@UEntry@LT@@V?$allocator@UEntry@LT@@@std@@@std@@AEAAAEAPEAPEAUEntry@LT@@XZ ; std::deque<LT::Entry,std::allocator<LT::Entry> >::_Map
  0039e	48 8b 8d 58 01
	00 00		 mov	 rcx, QWORD PTR tv203[rbp]
  003a5	4c 8b 01	 mov	 r8, QWORD PTR [rcx]
  003a8	48 8b 10	 mov	 rdx, QWORD PTR [rax]
  003ab	48 8d 4d 04	 lea	 rcx, QWORD PTR _Almap$[rbp]
  003af	e8 00 00 00 00	 call	 ?deallocate@?$allocator@PEAUEntry@LT@@@std@@QEAAXQEAPEAUEntry@LT@@_K@Z ; std::allocator<LT::Entry *>::deallocate
$LN8@Growmap:

; 1458 :         }
; 1459 : 
; 1460 :         _Map() = _Newmap; // point at new

  003b4	48 8b 8d 90 01
	00 00		 mov	 rcx, QWORD PTR this$[rbp]
  003bb	e8 00 00 00 00	 call	 ?_Map@?$deque@UEntry@LT@@V?$allocator@UEntry@LT@@@std@@@std@@AEAAAEAPEAPEAUEntry@LT@@XZ ; std::deque<LT::Entry,std::allocator<LT::Entry> >::_Map
  003c0	48 8b 4d 68	 mov	 rcx, QWORD PTR _Newmap$[rbp]
  003c4	48 89 08	 mov	 QWORD PTR [rax], rcx

; 1461 :         _Mapsize() += _Count;

  003c7	48 8b 8d 90 01
	00 00		 mov	 rcx, QWORD PTR this$[rbp]
  003ce	e8 00 00 00 00	 call	 ?_Mapsize@?$deque@UEntry@LT@@V?$allocator@UEntry@LT@@@std@@@std@@AEAAAEA_KXZ ; std::deque<LT::Entry,std::allocator<LT::Entry> >::_Mapsize
  003d3	48 89 85 58 01
	00 00		 mov	 QWORD PTR tv212[rbp], rax
  003da	48 8b 85 58 01
	00 00		 mov	 rax, QWORD PTR tv212[rbp]
  003e1	48 8b 00	 mov	 rax, QWORD PTR [rax]
  003e4	48 03 85 98 01
	00 00		 add	 rax, QWORD PTR _Count$[rbp]
  003eb	48 8b 8d 58 01
	00 00		 mov	 rcx, QWORD PTR tv212[rbp]
  003f2	48 89 01	 mov	 QWORD PTR [rcx], rax
$LN9@Growmap:

; 1462 :     }

  003f5	48 8d 4d e0	 lea	 rcx, QWORD PTR [rbp-32]
  003f9	48 8d 15 00 00
	00 00		 lea	 rdx, OFFSET FLAT:?_Growmap@?$deque@UEntry@LT@@V?$allocator@UEntry@LT@@@std@@@std@@AEAAX_K@Z$rtcFrameData
  00400	e8 00 00 00 00	 call	 _RTC_CheckStackVars
  00405	48 8b 8d 68 01
	00 00		 mov	 rcx, QWORD PTR __$ArrayPad$[rbp]
  0040c	48 33 cd	 xor	 rcx, rbp
  0040f	e8 00 00 00 00	 call	 __security_check_cookie
  00414	48 8d a5 78 01
	00 00		 lea	 rsp, QWORD PTR [rbp+376]
  0041b	5f		 pop	 rdi
  0041c	5d		 pop	 rbp
  0041d	c3		 ret	 0
?_Growmap@?$deque@UEntry@LT@@V?$allocator@UEntry@LT@@@std@@@std@@AEAAX_K@Z ENDP ; std::deque<LT::Entry,std::allocator<LT::Entry> >::_Growmap
_TEXT	ENDS
; Function compile flags: /Odtp /RTCsu /ZI
; File C:\Program Files (x86)\Microsoft Visual Studio\2019\Enterprise\VC\Tools\MSVC\14.27.29110\include\deque
;	COMDAT ?_Xlen@?$deque@UEntry@LT@@V?$allocator@UEntry@LT@@@std@@@std@@AEBAXXZ
_TEXT	SEGMENT
this$ = 224
?_Xlen@?$deque@UEntry@LT@@V?$allocator@UEntry@LT@@@std@@@std@@AEBAXXZ PROC ; std::deque<LT::Entry,std::allocator<LT::Entry> >::_Xlen, COMDAT

; 1417 :     [[noreturn]] void _Xlen() const {

$LN3:
  00000	48 89 4c 24 08	 mov	 QWORD PTR [rsp+8], rcx
  00005	55		 push	 rbp
  00006	57		 push	 rdi
  00007	48 81 ec e8 00
	00 00		 sub	 rsp, 232		; 000000e8H
  0000e	48 8d 6c 24 20	 lea	 rbp, QWORD PTR [rsp+32]
  00013	48 8b fc	 mov	 rdi, rsp
  00016	b9 3a 00 00 00	 mov	 ecx, 58			; 0000003aH
  0001b	b8 cc cc cc cc	 mov	 eax, -858993460		; ccccccccH
  00020	f3 ab		 rep stosd
  00022	48 8b 8c 24 08
	01 00 00	 mov	 rcx, QWORD PTR [rsp+264]
  0002a	48 8d 0d 00 00
	00 00		 lea	 rcx, OFFSET FLAT:__1C3F1DC9_deque
  00031	e8 00 00 00 00	 call	 __CheckForDebuggerJustMyCode

; 1418 :         _Xlength_error("deque<T> too long");

  00036	48 8d 0d 00 00
	00 00		 lea	 rcx, OFFSET FLAT:??_C@_0BC@KBDMBKEH@deque?$DMT?$DO?5too?5long@
  0003d	e8 00 00 00 00	 call	 ?_Xlength_error@std@@YAXPEBD@Z ; std::_Xlength_error
$LN2@Xlen:

; 1419 :     }

  00042	48 8d a5 c8 00
	00 00		 lea	 rsp, QWORD PTR [rbp+200]
  00049	5f		 pop	 rdi
  0004a	5d		 pop	 rbp
  0004b	c3		 ret	 0
?_Xlen@?$deque@UEntry@LT@@V?$allocator@UEntry@LT@@@std@@@std@@AEBAXXZ ENDP ; std::deque<LT::Entry,std::allocator<LT::Entry> >::_Xlen
_TEXT	ENDS
; Function compile flags: /Odtp /RTCsu /ZI
; File C:\Program Files (x86)\Microsoft Visual Studio\2019\Enterprise\VC\Tools\MSVC\14.27.29110\include\deque
;	COMDAT ?pop_back@?$deque@UEntry@LT@@V?$allocator@UEntry@LT@@@std@@@std@@QEAAXXZ
_TEXT	SEGMENT
_Newoff$1 = 8
_Block$2 = 40
tv141 = 248
tv94 = 248
tv84 = 248
this$ = 288
?pop_back@?$deque@UEntry@LT@@V?$allocator@UEntry@LT@@@std@@@std@@QEAAXXZ PROC ; std::deque<LT::Entry,std::allocator<LT::Entry> >::pop_back, COMDAT

; 1125 :     void pop_back() noexcept /* strengthened */ {

$LN10:
  00000	48 89 4c 24 08	 mov	 QWORD PTR [rsp+8], rcx
  00005	55		 push	 rbp
  00006	57		 push	 rdi
  00007	48 81 ec 38 01
	00 00		 sub	 rsp, 312		; 00000138H
  0000e	48 8d 6c 24 30	 lea	 rbp, QWORD PTR [rsp+48]
  00013	48 8b fc	 mov	 rdi, rsp
  00016	b9 4e 00 00 00	 mov	 ecx, 78			; 0000004eH
  0001b	b8 cc cc cc cc	 mov	 eax, -858993460		; ccccccccH
  00020	f3 ab		 rep stosd
  00022	48 8b 8c 24 58
	01 00 00	 mov	 rcx, QWORD PTR [rsp+344]
  0002a	48 8d 0d 00 00
	00 00		 lea	 rcx, OFFSET FLAT:__1C3F1DC9_deque
  00031	e8 00 00 00 00	 call	 __CheckForDebuggerJustMyCode

; 1126 : #if _ITERATOR_DEBUG_LEVEL == 2
; 1127 :         if (empty()) {

  00036	48 8b 8d 20 01
	00 00		 mov	 rcx, QWORD PTR this$[rbp]
  0003d	e8 00 00 00 00	 call	 ?empty@?$deque@UEntry@LT@@V?$allocator@UEntry@LT@@@std@@@std@@QEBA_NXZ ; std::deque<LT::Entry,std::allocator<LT::Entry> >::empty
  00042	0f b6 c0	 movzx	 eax, al
  00045	85 c0		 test	 eax, eax
  00047	74 70		 je	 SHORT $LN5@pop_back
$LN4@pop_back:

; 1128 :             _STL_REPORT_ERROR("deque empty before pop");

  00049	48 8d 05 00 00
	00 00		 lea	 rax, OFFSET FLAT:??_C@_0BH@EDKEEENI@deque?5empty?5before?5pop@
  00050	48 89 44 24 28	 mov	 QWORD PTR [rsp+40], rax
  00055	48 8d 05 00 00
	00 00		 lea	 rax, OFFSET FLAT:??_C@_02DKCKIIND@?$CFs@
  0005c	48 89 44 24 20	 mov	 QWORD PTR [rsp+32], rax
  00061	45 33 c9	 xor	 r9d, r9d
  00064	41 b8 68 04 00
	00		 mov	 r8d, 1128		; 00000468H
  0006a	48 8d 15 00 00
	00 00		 lea	 rdx, OFFSET FLAT:??_C@_0GH@OBALDB@C?3?2Program?5Files?5?$CIx86?$CJ?2Microsof@
  00071	b9 02 00 00 00	 mov	 ecx, 2
  00076	ff 15 00 00 00
	00		 call	 QWORD PTR __imp__CrtDbgReport
  0007c	83 f8 01	 cmp	 eax, 1
  0007f	75 03		 jne	 SHORT $LN9@pop_back
  00081	cc		 int	 3
  00082	33 c0		 xor	 eax, eax
$LN9@pop_back:
  00084	48 c7 44 24 20
	00 00 00 00	 mov	 QWORD PTR [rsp+32], 0
  0008d	41 b9 68 04 00
	00		 mov	 r9d, 1128		; 00000468H
  00093	4c 8d 05 00 00
	00 00		 lea	 r8, OFFSET FLAT:??_C@_1MO@ONLEFNNG@?$AAC?$AA?3?$AA?2?$AAP?$AAr?$AAo?$AAg?$AAr?$AAa?$AAm?$AA?5?$AAF?$AAi?$AAl?$AAe@
  0009a	48 8d 15 00 00
	00 00		 lea	 rdx, OFFSET FLAT:??_C@_1JO@MJALCHE@?$AAs?$AAt?$AAd?$AA?3?$AA?3?$AAd?$AAe?$AAq?$AAu?$AAe?$AA?$DM?$AAs?$AAt?$AAr?$AAu@
  000a1	48 8d 0d 00 00
	00 00		 lea	 rcx, OFFSET FLAT:??_C@_1DC@NJAACHCD@?$AA?$CC?$AAd?$AAe?$AAq?$AAu?$AAe?$AA?5?$AAe?$AAm?$AAp?$AAt?$AAy?$AA?5?$AAb?$AAe@
  000a8	ff 15 00 00 00
	00		 call	 QWORD PTR __imp__invalid_parameter
  000ae	33 c0		 xor	 eax, eax
  000b0	85 c0		 test	 eax, eax
  000b2	75 95		 jne	 SHORT $LN4@pop_back

; 1129 :         } else { // something to erase, do it

  000b4	e9 f0 00 00 00	 jmp	 $LN6@pop_back
$LN5@pop_back:

; 1130 :             size_type _Newoff = _Myoff() + _Mysize() - 1;

  000b9	48 8b 8d 20 01
	00 00		 mov	 rcx, QWORD PTR this$[rbp]
  000c0	e8 00 00 00 00	 call	 ?_Myoff@?$deque@UEntry@LT@@V?$allocator@UEntry@LT@@@std@@@std@@AEAAAEA_KXZ ; std::deque<LT::Entry,std::allocator<LT::Entry> >::_Myoff
  000c5	48 89 85 f8 00
	00 00		 mov	 QWORD PTR tv84[rbp], rax
  000cc	48 8b 8d 20 01
	00 00		 mov	 rcx, QWORD PTR this$[rbp]
  000d3	e8 00 00 00 00	 call	 ?_Mysize@?$deque@UEntry@LT@@V?$allocator@UEntry@LT@@@std@@@std@@AEAAAEA_KXZ ; std::deque<LT::Entry,std::allocator<LT::Entry> >::_Mysize
  000d8	48 8b 8d f8 00
	00 00		 mov	 rcx, QWORD PTR tv84[rbp]
  000df	48 8b 09	 mov	 rcx, QWORD PTR [rcx]
  000e2	48 8b 00	 mov	 rax, QWORD PTR [rax]
  000e5	48 8d 44 01 ff	 lea	 rax, QWORD PTR [rcx+rax-1]
  000ea	48 89 45 08	 mov	 QWORD PTR _Newoff$1[rbp], rax

; 1131 :             _Orphan_off(_Newoff);

  000ee	48 8b 55 08	 mov	 rdx, QWORD PTR _Newoff$1[rbp]
  000f2	48 8b 8d 20 01
	00 00		 mov	 rcx, QWORD PTR this$[rbp]
  000f9	e8 00 00 00 00	 call	 ?_Orphan_off@?$deque@UEntry@LT@@V?$allocator@UEntry@LT@@@std@@@std@@AEBAX_K@Z ; std::deque<LT::Entry,std::allocator<LT::Entry> >::_Orphan_off

; 1132 :             size_type _Block = _Getblock(_Newoff);

  000fe	48 8b 55 08	 mov	 rdx, QWORD PTR _Newoff$1[rbp]
  00102	48 8b 8d 20 01
	00 00		 mov	 rcx, QWORD PTR this$[rbp]
  00109	e8 00 00 00 00	 call	 ?_Getblock@?$deque@UEntry@LT@@V?$allocator@UEntry@LT@@@std@@@std@@AEBA_K_K@Z ; std::deque<LT::Entry,std::allocator<LT::Entry> >::_Getblock
  0010e	48 89 45 28	 mov	 QWORD PTR _Block$2[rbp], rax

; 1133 :             _Alty_traits::destroy(_Getal(), _Unfancy(_Map()[_Block] + _Newoff % _DEQUESIZ));

  00112	48 8b 8d 20 01
	00 00		 mov	 rcx, QWORD PTR this$[rbp]
  00119	e8 00 00 00 00	 call	 ?_Map@?$deque@UEntry@LT@@V?$allocator@UEntry@LT@@@std@@@std@@AEAAAEAPEAPEAUEntry@LT@@XZ ; std::deque<LT::Entry,std::allocator<LT::Entry> >::_Map
  0011e	48 8b 00	 mov	 rax, QWORD PTR [rax]
  00121	33 c9		 xor	 ecx, ecx
  00123	48 6b c9 10	 imul	 rcx, rcx, 16
  00127	48 8b 55 28	 mov	 rdx, QWORD PTR _Block$2[rbp]
  0012b	48 03 0c d0	 add	 rcx, QWORD PTR [rax+rdx*8]
  0012f	48 8b c1	 mov	 rax, rcx
  00132	48 8b c8	 mov	 rcx, rax
  00135	e8 00 00 00 00	 call	 ??$_Unfancy@UEntry@LT@@@std@@YAPEAUEntry@LT@@PEAU12@@Z ; std::_Unfancy<LT::Entry>
  0013a	48 89 85 f8 00
	00 00		 mov	 QWORD PTR tv94[rbp], rax
  00141	48 8b 8d 20 01
	00 00		 mov	 rcx, QWORD PTR this$[rbp]
  00148	e8 00 00 00 00	 call	 ?_Getal@?$deque@UEntry@LT@@V?$allocator@UEntry@LT@@@std@@@std@@AEAAAEAV?$allocator@UEntry@LT@@@2@XZ ; std::deque<LT::Entry,std::allocator<LT::Entry> >::_Getal
  0014d	48 8b 8d f8 00
	00 00		 mov	 rcx, QWORD PTR tv94[rbp]
  00154	48 8b d1	 mov	 rdx, rcx
  00157	48 8b c8	 mov	 rcx, rax
  0015a	e8 00 00 00 00	 call	 ??$destroy@UEntry@LT@@@?$_Default_allocator_traits@V?$allocator@UEntry@LT@@@std@@@std@@SAXAEAV?$allocator@UEntry@LT@@@1@QEAUEntry@LT@@@Z ; std::_Default_allocator_traits<std::allocator<LT::Entry> >::destroy<LT::Entry>

; 1134 :             if (--_Mysize() == 0) {

  0015f	48 8b 8d 20 01
	00 00		 mov	 rcx, QWORD PTR this$[rbp]
  00166	e8 00 00 00 00	 call	 ?_Mysize@?$deque@UEntry@LT@@V?$allocator@UEntry@LT@@@std@@@std@@AEAAAEA_KXZ ; std::deque<LT::Entry,std::allocator<LT::Entry> >::_Mysize
  0016b	48 89 85 f8 00
	00 00		 mov	 QWORD PTR tv141[rbp], rax
  00172	48 8b 85 f8 00
	00 00		 mov	 rax, QWORD PTR tv141[rbp]
  00179	48 8b 00	 mov	 rax, QWORD PTR [rax]
  0017c	48 ff c8	 dec	 rax
  0017f	48 8b 8d f8 00
	00 00		 mov	 rcx, QWORD PTR tv141[rbp]
  00186	48 89 01	 mov	 QWORD PTR [rcx], rax
  00189	48 8b 85 f8 00
	00 00		 mov	 rax, QWORD PTR tv141[rbp]
  00190	48 83 38 00	 cmp	 QWORD PTR [rax], 0
  00194	75 13		 jne	 SHORT $LN6@pop_back

; 1135 :                 _Myoff() = 0;

  00196	48 8b 8d 20 01
	00 00		 mov	 rcx, QWORD PTR this$[rbp]
  0019d	e8 00 00 00 00	 call	 ?_Myoff@?$deque@UEntry@LT@@V?$allocator@UEntry@LT@@@std@@@std@@AEAAAEA_KXZ ; std::deque<LT::Entry,std::allocator<LT::Entry> >::_Myoff
  001a2	48 c7 00 00 00
	00 00		 mov	 QWORD PTR [rax], 0
$LN6@pop_back:

; 1136 :             }
; 1137 :         }
; 1138 : 
; 1139 : #else // _ITERATOR_DEBUG_LEVEL == 2
; 1140 :         size_type _Newoff = _Myoff() + _Mysize() - 1;
; 1141 :         size_type _Block  = _Getblock(_Newoff);
; 1142 :         _Alty_traits::destroy(_Getal(), _Unfancy(_Map()[_Block] + _Newoff % _DEQUESIZ));
; 1143 :         if (--_Mysize() == 0) {
; 1144 :             _Myoff() = 0;
; 1145 :         }
; 1146 : #endif // _ITERATOR_DEBUG_LEVEL == 2
; 1147 :     }

  001a9	48 8d a5 08 01
	00 00		 lea	 rsp, QWORD PTR [rbp+264]
  001b0	5f		 pop	 rdi
  001b1	5d		 pop	 rbp
  001b2	c3		 ret	 0
?pop_back@?$deque@UEntry@LT@@V?$allocator@UEntry@LT@@@std@@@std@@QEAAXXZ ENDP ; std::deque<LT::Entry,std::allocator<LT::Entry> >::pop_back
_TEXT	ENDS
; Function compile flags: /Odtp /RTCsu /ZI
; File C:\Program Files (x86)\Microsoft Visual Studio\2019\Enterprise\VC\Tools\MSVC\14.27.29110\include\deque
;	COMDAT ?push_back@?$deque@UEntry@LT@@V?$allocator@UEntry@LT@@@std@@@std@@QEAAXAEBUEntry@LT@@@Z
_TEXT	SEGMENT
this$ = 224
_Val$ = 232
?push_back@?$deque@UEntry@LT@@V?$allocator@UEntry@LT@@@std@@@std@@QEAAXAEBUEntry@LT@@@Z PROC ; std::deque<LT::Entry,std::allocator<LT::Entry> >::push_back, COMDAT

; 1120 :     void push_back(const _Ty& _Val) {

$LN3:
  00000	48 89 54 24 10	 mov	 QWORD PTR [rsp+16], rdx
  00005	48 89 4c 24 08	 mov	 QWORD PTR [rsp+8], rcx
  0000a	55		 push	 rbp
  0000b	57		 push	 rdi
  0000c	48 81 ec e8 00
	00 00		 sub	 rsp, 232		; 000000e8H
  00013	48 8d 6c 24 20	 lea	 rbp, QWORD PTR [rsp+32]
  00018	48 8b fc	 mov	 rdi, rsp
  0001b	b9 3a 00 00 00	 mov	 ecx, 58			; 0000003aH
  00020	b8 cc cc cc cc	 mov	 eax, -858993460		; ccccccccH
  00025	f3 ab		 rep stosd
  00027	48 8b 8c 24 08
	01 00 00	 mov	 rcx, QWORD PTR [rsp+264]
  0002f	48 8d 0d 00 00
	00 00		 lea	 rcx, OFFSET FLAT:__1C3F1DC9_deque
  00036	e8 00 00 00 00	 call	 __CheckForDebuggerJustMyCode

; 1121 :         _Orphan_all();

  0003b	48 8b 8d e0 00
	00 00		 mov	 rcx, QWORD PTR this$[rbp]
  00042	e8 00 00 00 00	 call	 ?_Orphan_all@?$deque@UEntry@LT@@V?$allocator@UEntry@LT@@@std@@@std@@AEAAXXZ ; std::deque<LT::Entry,std::allocator<LT::Entry> >::_Orphan_all

; 1122 :         _Emplace_back_internal(_Val);

  00047	48 8b 95 e8 00
	00 00		 mov	 rdx, QWORD PTR _Val$[rbp]
  0004e	48 8b 8d e0 00
	00 00		 mov	 rcx, QWORD PTR this$[rbp]
  00055	e8 00 00 00 00	 call	 ??$_Emplace_back_internal@AEBUEntry@LT@@@?$deque@UEntry@LT@@V?$allocator@UEntry@LT@@@std@@@std@@AEAAXAEBUEntry@LT@@@Z ; std::deque<LT::Entry,std::allocator<LT::Entry> >::_Emplace_back_internal<LT::Entry const &>

; 1123 :     }

  0005a	48 8d a5 c8 00
	00 00		 lea	 rsp, QWORD PTR [rbp+200]
  00061	5f		 pop	 rdi
  00062	5d		 pop	 rbp
  00063	c3		 ret	 0
?push_back@?$deque@UEntry@LT@@V?$allocator@UEntry@LT@@@std@@@std@@QEAAXAEBUEntry@LT@@@Z ENDP ; std::deque<LT::Entry,std::allocator<LT::Entry> >::push_back
_TEXT	ENDS
; Function compile flags: /Odtp /RTCsu /ZI
; File C:\Program Files (x86)\Microsoft Visual Studio\2019\Enterprise\VC\Tools\MSVC\14.27.29110\include\deque
;	COMDAT ?back@?$deque@UEntry@LT@@V?$allocator@UEntry@LT@@@std@@@std@@QEAAAEAUEntry@LT@@XZ
_TEXT	SEGMENT
$T1 = 200
$T2 = 248
this$ = 320
?back@?$deque@UEntry@LT@@V?$allocator@UEntry@LT@@@std@@@std@@QEAAAEAUEntry@LT@@XZ PROC ; std::deque<LT::Entry,std::allocator<LT::Entry> >::back, COMDAT

; 1062 :     _NODISCARD reference back() noexcept /* strengthened */ {

$LN12:
  00000	48 89 4c 24 08	 mov	 QWORD PTR [rsp+8], rcx
  00005	55		 push	 rbp
  00006	57		 push	 rdi
  00007	48 81 ec 58 01
	00 00		 sub	 rsp, 344		; 00000158H
  0000e	48 8d 6c 24 30	 lea	 rbp, QWORD PTR [rsp+48]
  00013	48 8b fc	 mov	 rdi, rsp
  00016	b9 56 00 00 00	 mov	 ecx, 86			; 00000056H
  0001b	b8 cc cc cc cc	 mov	 eax, -858993460		; ccccccccH
  00020	f3 ab		 rep stosd
  00022	48 8b 8c 24 78
	01 00 00	 mov	 rcx, QWORD PTR [rsp+376]
  0002a	48 8d 0d 00 00
	00 00		 lea	 rcx, OFFSET FLAT:__1C3F1DC9_deque
  00031	e8 00 00 00 00	 call	 __CheckForDebuggerJustMyCode
$LN4@back:

; 1063 : #if _CONTAINER_DEBUG_LEVEL > 0
; 1064 :         _STL_VERIFY(!empty(), "back() called on empty deque");

  00036	48 8b 8d 40 01
	00 00		 mov	 rcx, QWORD PTR this$[rbp]
  0003d	e8 00 00 00 00	 call	 ?empty@?$deque@UEntry@LT@@V?$allocator@UEntry@LT@@@std@@@std@@QEBA_NXZ ; std::deque<LT::Entry,std::allocator<LT::Entry> >::empty
  00042	0f b6 c0	 movzx	 eax, al
  00045	85 c0		 test	 eax, eax
  00047	75 02		 jne	 SHORT $LN7@back
  00049	eb 6b		 jmp	 SHORT $LN9@back
$LN7@back:
  0004b	48 8d 05 00 00
	00 00		 lea	 rax, OFFSET FLAT:??_C@_0BN@OLMACEKN@back?$CI?$CJ?5called?5on?5empty?5deque@
  00052	48 89 44 24 28	 mov	 QWORD PTR [rsp+40], rax
  00057	48 8d 05 00 00
	00 00		 lea	 rax, OFFSET FLAT:??_C@_02DKCKIIND@?$CFs@
  0005e	48 89 44 24 20	 mov	 QWORD PTR [rsp+32], rax
  00063	45 33 c9	 xor	 r9d, r9d
  00066	41 b8 28 04 00
	00		 mov	 r8d, 1064		; 00000428H
  0006c	48 8d 15 00 00
	00 00		 lea	 rdx, OFFSET FLAT:??_C@_0GH@OBALDB@C?3?2Program?5Files?5?$CIx86?$CJ?2Microsof@
  00073	b9 02 00 00 00	 mov	 ecx, 2
  00078	ff 15 00 00 00
	00		 call	 QWORD PTR __imp__CrtDbgReport
  0007e	83 f8 01	 cmp	 eax, 1
  00081	75 03		 jne	 SHORT $LN11@back
  00083	cc		 int	 3
  00084	33 c0		 xor	 eax, eax
$LN11@back:
  00086	48 c7 44 24 20
	00 00 00 00	 mov	 QWORD PTR [rsp+32], 0
  0008f	41 b9 28 04 00
	00		 mov	 r9d, 1064		; 00000428H
  00095	4c 8d 05 00 00
	00 00		 lea	 r8, OFFSET FLAT:??_C@_1MO@ONLEFNNG@?$AAC?$AA?3?$AA?2?$AAP?$AAr?$AAo?$AAg?$AAr?$AAa?$AAm?$AA?5?$AAF?$AAi?$AAl?$AAe@
  0009c	48 8d 15 00 00
	00 00		 lea	 rdx, OFFSET FLAT:??_C@_1JG@JOJHPKLP@?$AAs?$AAt?$AAd?$AA?3?$AA?3?$AAd?$AAe?$AAq?$AAu?$AAe?$AA?$DM?$AAs?$AAt?$AAr?$AAu@
  000a3	48 8d 0d 00 00
	00 00		 lea	 rcx, OFFSET FLAT:??_C@_1DO@OOAHKDGC@?$AA?$CC?$AAb?$AAa?$AAc?$AAk?$AA?$CI?$AA?$CJ?$AA?5?$AAc?$AAa?$AAl?$AAl?$AAe?$AAd?$AA?5@
  000aa	ff 15 00 00 00
	00		 call	 QWORD PTR __imp__invalid_parameter
  000b0	33 c0		 xor	 eax, eax
  000b2	85 c0		 test	 eax, eax
  000b4	75 95		 jne	 SHORT $LN7@back
$LN9@back:
  000b6	33 c0		 xor	 eax, eax
  000b8	85 c0		 test	 eax, eax
  000ba	0f 85 76 ff ff
	ff		 jne	 $LN4@back

; 1065 : #endif // _CONTAINER_DEBUG_LEVEL > 0
; 1066 : 
; 1067 :         return *(_Unchecked_end() - 1);

  000c0	48 8d 95 c8 00
	00 00		 lea	 rdx, QWORD PTR $T1[rbp]
  000c7	48 8b 8d 40 01
	00 00		 mov	 rcx, QWORD PTR this$[rbp]
  000ce	e8 00 00 00 00	 call	 ?_Unchecked_end@?$deque@UEntry@LT@@V?$allocator@UEntry@LT@@@std@@@std@@QEAA?AV?$_Deque_unchecked_iterator@V?$_Deque_val@U?$_Deque_simple_types@UEntry@LT@@@std@@@std@@@2@XZ ; std::deque<LT::Entry,std::allocator<LT::Entry> >::_Unchecked_end
  000d3	41 b8 01 00 00
	00		 mov	 r8d, 1
  000d9	48 8d 95 f8 00
	00 00		 lea	 rdx, QWORD PTR $T2[rbp]
  000e0	48 8b c8	 mov	 rcx, rax
  000e3	e8 00 00 00 00	 call	 ??G?$_Deque_unchecked_iterator@V?$_Deque_val@U?$_Deque_simple_types@UEntry@LT@@@std@@@std@@@std@@QEBA?AV01@_J@Z ; std::_Deque_unchecked_iterator<std::_Deque_val<std::_Deque_simple_types<LT::Entry> > >::operator-
  000e8	48 8b c8	 mov	 rcx, rax
  000eb	e8 00 00 00 00	 call	 ??D?$_Deque_unchecked_iterator@V?$_Deque_val@U?$_Deque_simple_types@UEntry@LT@@@std@@@std@@@std@@QEBAAEAUEntry@LT@@XZ ; std::_Deque_unchecked_iterator<std::_Deque_val<std::_Deque_simple_types<LT::Entry> > >::operator*
  000f0	90		 npad	 1

; 1068 :     }

  000f1	48 8d a5 28 01
	00 00		 lea	 rsp, QWORD PTR [rbp+296]
  000f8	5f		 pop	 rdi
  000f9	5d		 pop	 rbp
  000fa	c3		 ret	 0
?back@?$deque@UEntry@LT@@V?$allocator@UEntry@LT@@@std@@@std@@QEAAAEAUEntry@LT@@XZ ENDP ; std::deque<LT::Entry,std::allocator<LT::Entry> >::back
_TEXT	ENDS
; Function compile flags: /Odtp /RTCsu /ZI
; File C:\Program Files (x86)\Microsoft Visual Studio\2019\Enterprise\VC\Tools\MSVC\14.27.29110\include\deque
;	COMDAT ?empty@?$deque@UEntry@LT@@V?$allocator@UEntry@LT@@@std@@@std@@QEBA_NXZ
_TEXT	SEGMENT
tv67 = 192
this$ = 240
?empty@?$deque@UEntry@LT@@V?$allocator@UEntry@LT@@@std@@@std@@QEBA_NXZ PROC ; std::deque<LT::Entry,std::allocator<LT::Entry> >::empty, COMDAT

; 1008 :     _NODISCARD bool empty() const noexcept {

$LN5:
  00000	48 89 4c 24 08	 mov	 QWORD PTR [rsp+8], rcx
  00005	55		 push	 rbp
  00006	57		 push	 rdi
  00007	48 81 ec f8 00
	00 00		 sub	 rsp, 248		; 000000f8H
  0000e	48 8d 6c 24 20	 lea	 rbp, QWORD PTR [rsp+32]
  00013	48 8b fc	 mov	 rdi, rsp
  00016	b9 3e 00 00 00	 mov	 ecx, 62			; 0000003eH
  0001b	b8 cc cc cc cc	 mov	 eax, -858993460		; ccccccccH
  00020	f3 ab		 rep stosd
  00022	48 8b 8c 24 18
	01 00 00	 mov	 rcx, QWORD PTR [rsp+280]
  0002a	48 8d 0d 00 00
	00 00		 lea	 rcx, OFFSET FLAT:__1C3F1DC9_deque
  00031	e8 00 00 00 00	 call	 __CheckForDebuggerJustMyCode

; 1009 :         return _Mysize() == 0;

  00036	48 8b 8d f0 00
	00 00		 mov	 rcx, QWORD PTR this$[rbp]
  0003d	e8 00 00 00 00	 call	 ?_Mysize@?$deque@UEntry@LT@@V?$allocator@UEntry@LT@@@std@@@std@@AEBAAEB_KXZ ; std::deque<LT::Entry,std::allocator<LT::Entry> >::_Mysize
  00042	48 83 38 00	 cmp	 QWORD PTR [rax], 0
  00046	75 0c		 jne	 SHORT $LN3@empty
  00048	c7 85 c0 00 00
	00 01 00 00 00	 mov	 DWORD PTR tv67[rbp], 1
  00052	eb 0a		 jmp	 SHORT $LN4@empty
$LN3@empty:
  00054	c7 85 c0 00 00
	00 00 00 00 00	 mov	 DWORD PTR tv67[rbp], 0
$LN4@empty:
  0005e	0f b6 85 c0 00
	00 00		 movzx	 eax, BYTE PTR tv67[rbp]

; 1010 :     }

  00065	48 8d a5 d8 00
	00 00		 lea	 rsp, QWORD PTR [rbp+216]
  0006c	5f		 pop	 rdi
  0006d	5d		 pop	 rbp
  0006e	c3		 ret	 0
?empty@?$deque@UEntry@LT@@V?$allocator@UEntry@LT@@@std@@@std@@QEBA_NXZ ENDP ; std::deque<LT::Entry,std::allocator<LT::Entry> >::empty
_TEXT	ENDS
; Function compile flags: /Odtp /RTCsu /ZI
; File C:\Program Files (x86)\Microsoft Visual Studio\2019\Enterprise\VC\Tools\MSVC\14.27.29110\include\deque
;	COMDAT ?max_size@?$deque@UEntry@LT@@V?$allocator@UEntry@LT@@@std@@@std@@QEBA_KXZ
_TEXT	SEGMENT
$T1 = 200
$T2 = 232
this$ = 288
?max_size@?$deque@UEntry@LT@@V?$allocator@UEntry@LT@@@std@@@std@@QEBA_KXZ PROC ; std::deque<LT::Entry,std::allocator<LT::Entry> >::max_size, COMDAT

; 1003 :     _NODISCARD size_type max_size() const noexcept {

$LN3:
  00000	48 89 4c 24 08	 mov	 QWORD PTR [rsp+8], rcx
  00005	55		 push	 rbp
  00006	57		 push	 rdi
  00007	48 81 ec 28 01
	00 00		 sub	 rsp, 296		; 00000128H
  0000e	48 8d 6c 24 20	 lea	 rbp, QWORD PTR [rsp+32]
  00013	48 8b fc	 mov	 rdi, rsp
  00016	b9 4a 00 00 00	 mov	 ecx, 74			; 0000004aH
  0001b	b8 cc cc cc cc	 mov	 eax, -858993460		; ccccccccH
  00020	f3 ab		 rep stosd
  00022	48 8b 8c 24 48
	01 00 00	 mov	 rcx, QWORD PTR [rsp+328]
  0002a	48 8d 0d 00 00
	00 00		 lea	 rcx, OFFSET FLAT:__1C3F1DC9_deque
  00031	e8 00 00 00 00	 call	 __CheckForDebuggerJustMyCode

; 1004 :         return (_STD min)(

  00036	48 8b 8d 20 01
	00 00		 mov	 rcx, QWORD PTR this$[rbp]
  0003d	e8 00 00 00 00	 call	 ?_Getal@?$deque@UEntry@LT@@V?$allocator@UEntry@LT@@@std@@@std@@AEBAAEBV?$allocator@UEntry@LT@@@2@XZ ; std::deque<LT::Entry,std::allocator<LT::Entry> >::_Getal
  00042	48 8b c8	 mov	 rcx, rax
  00045	e8 00 00 00 00	 call	 ?max_size@?$_Default_allocator_traits@V?$allocator@UEntry@LT@@@std@@@std@@SA_KAEBV?$allocator@UEntry@LT@@@2@@Z ; std::_Default_allocator_traits<std::allocator<LT::Entry> >::max_size
  0004a	48 89 85 c8 00
	00 00		 mov	 QWORD PTR $T1[rbp], rax
  00051	e8 00 00 00 00	 call	 ?max@?$numeric_limits@_J@std@@SA_JXZ ; std::numeric_limits<__int64>::max
  00056	48 89 85 e8 00
	00 00		 mov	 QWORD PTR $T2[rbp], rax
  0005d	48 8d 95 c8 00
	00 00		 lea	 rdx, QWORD PTR $T1[rbp]
  00064	48 8d 8d e8 00
	00 00		 lea	 rcx, QWORD PTR $T2[rbp]
  0006b	e8 00 00 00 00	 call	 ??$min@_K@std@@YAAEB_KAEB_K0@Z ; std::min<unsigned __int64>
  00070	48 8b 00	 mov	 rax, QWORD PTR [rax]

; 1005 :             static_cast<size_type>((numeric_limits<difference_type>::max)()), _Alty_traits::max_size(_Getal()));
; 1006 :     }

  00073	48 8d a5 08 01
	00 00		 lea	 rsp, QWORD PTR [rbp+264]
  0007a	5f		 pop	 rdi
  0007b	5d		 pop	 rbp
  0007c	c3		 ret	 0
?max_size@?$deque@UEntry@LT@@V?$allocator@UEntry@LT@@@std@@@std@@QEBA_KXZ ENDP ; std::deque<LT::Entry,std::allocator<LT::Entry> >::max_size
_TEXT	ENDS
; Function compile flags: /Odtp /RTCsu /ZI
; File C:\Program Files (x86)\Microsoft Visual Studio\2019\Enterprise\VC\Tools\MSVC\14.27.29110\include\deque
;	COMDAT ?_Unchecked_end@?$deque@UEntry@LT@@V?$allocator@UEntry@LT@@@std@@@std@@QEAA?AV?$_Deque_unchecked_iterator@V?$_Deque_val@U?$_Deque_simple_types@UEntry@LT@@@std@@@std@@@2@XZ
_TEXT	SEGMENT
tv69 = 192
tv76 = 200
this$ = 240
__$ReturnUdt$ = 248
?_Unchecked_end@?$deque@UEntry@LT@@V?$allocator@UEntry@LT@@@std@@@std@@QEAA?AV?$_Deque_unchecked_iterator@V?$_Deque_val@U?$_Deque_simple_types@UEntry@LT@@@std@@@std@@@2@XZ PROC ; std::deque<LT::Entry,std::allocator<LT::Entry> >::_Unchecked_end, COMDAT

; 920  :     _Unchecked_iterator _Unchecked_end() noexcept {

$LN3:
  00000	48 89 54 24 10	 mov	 QWORD PTR [rsp+16], rdx
  00005	48 89 4c 24 08	 mov	 QWORD PTR [rsp+8], rcx
  0000a	55		 push	 rbp
  0000b	57		 push	 rdi
  0000c	48 81 ec f8 00
	00 00		 sub	 rsp, 248		; 000000f8H
  00013	48 8d 6c 24 20	 lea	 rbp, QWORD PTR [rsp+32]
  00018	48 8b fc	 mov	 rdi, rsp
  0001b	b9 3e 00 00 00	 mov	 ecx, 62			; 0000003eH
  00020	b8 cc cc cc cc	 mov	 eax, -858993460		; ccccccccH
  00025	f3 ab		 rep stosd
  00027	48 8b 8c 24 18
	01 00 00	 mov	 rcx, QWORD PTR [rsp+280]
  0002f	48 8d 0d 00 00
	00 00		 lea	 rcx, OFFSET FLAT:__1C3F1DC9_deque
  00036	e8 00 00 00 00	 call	 __CheckForDebuggerJustMyCode

; 921  :         return _Unchecked_iterator(_Myoff() + _Mysize(), _STD addressof(_Get_data()));

  0003b	48 8b 8d f0 00
	00 00		 mov	 rcx, QWORD PTR this$[rbp]
  00042	e8 00 00 00 00	 call	 ?_Get_data@?$deque@UEntry@LT@@V?$allocator@UEntry@LT@@@std@@@std@@AEAAAEAV?$_Deque_val@U?$_Deque_simple_types@UEntry@LT@@@std@@@2@XZ ; std::deque<LT::Entry,std::allocator<LT::Entry> >::_Get_data
  00047	48 8b c8	 mov	 rcx, rax
  0004a	e8 00 00 00 00	 call	 ??$addressof@V?$_Deque_val@U?$_Deque_simple_types@UEntry@LT@@@std@@@std@@@std@@YAPEAV?$_Deque_val@U?$_Deque_simple_types@UEntry@LT@@@std@@@0@AEAV10@@Z ; std::addressof<std::_Deque_val<std::_Deque_simple_types<LT::Entry> > >
  0004f	48 89 85 c0 00
	00 00		 mov	 QWORD PTR tv69[rbp], rax
  00056	48 8b 8d f0 00
	00 00		 mov	 rcx, QWORD PTR this$[rbp]
  0005d	e8 00 00 00 00	 call	 ?_Myoff@?$deque@UEntry@LT@@V?$allocator@UEntry@LT@@@std@@@std@@AEAAAEA_KXZ ; std::deque<LT::Entry,std::allocator<LT::Entry> >::_Myoff
  00062	48 89 85 c8 00
	00 00		 mov	 QWORD PTR tv76[rbp], rax
  00069	48 8b 8d f0 00
	00 00		 mov	 rcx, QWORD PTR this$[rbp]
  00070	e8 00 00 00 00	 call	 ?_Mysize@?$deque@UEntry@LT@@V?$allocator@UEntry@LT@@@std@@@std@@AEAAAEA_KXZ ; std::deque<LT::Entry,std::allocator<LT::Entry> >::_Mysize
  00075	48 8b 8d c8 00
	00 00		 mov	 rcx, QWORD PTR tv76[rbp]
  0007c	48 8b 09	 mov	 rcx, QWORD PTR [rcx]
  0007f	48 03 08	 add	 rcx, QWORD PTR [rax]
  00082	48 8b c1	 mov	 rax, rcx
  00085	48 8b 8d c0 00
	00 00		 mov	 rcx, QWORD PTR tv69[rbp]
  0008c	4c 8b c1	 mov	 r8, rcx
  0008f	48 8b d0	 mov	 rdx, rax
  00092	48 8b 8d f8 00
	00 00		 mov	 rcx, QWORD PTR __$ReturnUdt$[rbp]
  00099	e8 00 00 00 00	 call	 ??0?$_Deque_unchecked_iterator@V?$_Deque_val@U?$_Deque_simple_types@UEntry@LT@@@std@@@std@@@std@@QEAA@_KPEBU_Container_base12@1@@Z
  0009e	48 8b 85 f8 00
	00 00		 mov	 rax, QWORD PTR __$ReturnUdt$[rbp]

; 922  :     }

  000a5	48 8d a5 d8 00
	00 00		 lea	 rsp, QWORD PTR [rbp+216]
  000ac	5f		 pop	 rdi
  000ad	5d		 pop	 rbp
  000ae	c3		 ret	 0
?_Unchecked_end@?$deque@UEntry@LT@@V?$allocator@UEntry@LT@@@std@@@std@@QEAA?AV?$_Deque_unchecked_iterator@V?$_Deque_val@U?$_Deque_simple_types@UEntry@LT@@@std@@@std@@@2@XZ ENDP ; std::deque<LT::Entry,std::allocator<LT::Entry> >::_Unchecked_end
_TEXT	ENDS
; Function compile flags: /Odtp /RTCsu /ZI
; File C:\Program Files (x86)\Microsoft Visual Studio\2019\Enterprise\VC\Tools\MSVC\14.27.29110\include\deque
;	COMDAT ??1?$deque@UEntry@LT@@V?$allocator@UEntry@LT@@@std@@@std@@QEAA@XZ
_TEXT	SEGMENT
_Proxy_allocator$ = 4
$T4 = 228
__$ArrayPad$ = 248
this$ = 288
??1?$deque@UEntry@LT@@V?$allocator@UEntry@LT@@@std@@@std@@QEAA@XZ PROC ; std::deque<LT::Entry,std::allocator<LT::Entry> >::~deque<LT::Entry,std::allocator<LT::Entry> >, COMDAT

; 868  :     ~deque() noexcept {

$LN3:
  00000	48 89 4c 24 08	 mov	 QWORD PTR [rsp+8], rcx
  00005	55		 push	 rbp
  00006	57		 push	 rdi
  00007	48 81 ec 28 01
	00 00		 sub	 rsp, 296		; 00000128H
  0000e	48 8d 6c 24 20	 lea	 rbp, QWORD PTR [rsp+32]
  00013	48 8b fc	 mov	 rdi, rsp
  00016	b9 4a 00 00 00	 mov	 ecx, 74			; 0000004aH
  0001b	b8 cc cc cc cc	 mov	 eax, -858993460		; ccccccccH
  00020	f3 ab		 rep stosd
  00022	48 8b 8c 24 48
	01 00 00	 mov	 rcx, QWORD PTR [rsp+328]
  0002a	48 8b 05 00 00
	00 00		 mov	 rax, QWORD PTR __security_cookie
  00031	48 33 c5	 xor	 rax, rbp
  00034	48 89 85 f8 00
	00 00		 mov	 QWORD PTR __$ArrayPad$[rbp], rax
  0003b	48 8d 0d 00 00
	00 00		 lea	 rcx, OFFSET FLAT:__1C3F1DC9_deque
  00042	e8 00 00 00 00	 call	 __CheckForDebuggerJustMyCode

; 869  :         _Tidy();

  00047	48 8b 8d 20 01
	00 00		 mov	 rcx, QWORD PTR this$[rbp]
  0004e	e8 00 00 00 00	 call	 ?_Tidy@?$deque@UEntry@LT@@V?$allocator@UEntry@LT@@@std@@@std@@AEAAXXZ ; std::deque<LT::Entry,std::allocator<LT::Entry> >::_Tidy

; 870  :         _Alproxy_ty _Proxy_allocator(_Getal());

  00053	48 8b 8d 20 01
	00 00		 mov	 rcx, QWORD PTR this$[rbp]
  0005a	e8 00 00 00 00	 call	 ?_Getal@?$deque@UEntry@LT@@V?$allocator@UEntry@LT@@@std@@@std@@AEAAAEAV?$allocator@UEntry@LT@@@2@XZ ; std::deque<LT::Entry,std::allocator<LT::Entry> >::_Getal
  0005f	48 8b d0	 mov	 rdx, rax
  00062	48 8d 4d 04	 lea	 rcx, QWORD PTR _Proxy_allocator$[rbp]
  00066	e8 00 00 00 00	 call	 ??$?0UEntry@LT@@@?$allocator@U_Container_proxy@std@@@std@@QEAA@AEBV?$allocator@UEntry@LT@@@1@@Z ; std::allocator<std::_Container_proxy>::allocator<std::_Container_proxy><LT::Entry>

; 871  :         _Delete_plain_internal(_Proxy_allocator, _STD exchange(_Get_data()._Myproxy, nullptr));

  0006b	48 c7 85 e4 00
	00 00 00 00 00
	00		 mov	 QWORD PTR $T4[rbp], 0
  00076	48 8b 8d 20 01
	00 00		 mov	 rcx, QWORD PTR this$[rbp]
  0007d	e8 00 00 00 00	 call	 ?_Get_data@?$deque@UEntry@LT@@V?$allocator@UEntry@LT@@@std@@@std@@AEAAAEAV?$_Deque_val@U?$_Deque_simple_types@UEntry@LT@@@std@@@2@XZ ; std::deque<LT::Entry,std::allocator<LT::Entry> >::_Get_data
  00082	48 8d 95 e4 00
	00 00		 lea	 rdx, QWORD PTR $T4[rbp]
  00089	48 8b c8	 mov	 rcx, rax
  0008c	e8 00 00 00 00	 call	 ??$exchange@PEAU_Container_proxy@std@@$$T@std@@YAPEAU_Container_proxy@0@AEAPEAU10@$$QEA$$T@Z ; std::exchange<std::_Container_proxy *,std::nullptr_t>
  00091	48 8b d0	 mov	 rdx, rax
  00094	48 8d 4d 04	 lea	 rcx, QWORD PTR _Proxy_allocator$[rbp]
  00098	e8 00 00 00 00	 call	 ??$_Delete_plain_internal@V?$allocator@U_Container_proxy@std@@@std@@@std@@YAXAEAV?$allocator@U_Container_proxy@std@@@0@QEAU_Container_proxy@0@@Z ; std::_Delete_plain_internal<std::allocator<std::_Container_proxy> >

; 872  :     }

  0009d	48 8d 4d e0	 lea	 rcx, QWORD PTR [rbp-32]
  000a1	48 8d 15 00 00
	00 00		 lea	 rdx, OFFSET FLAT:??1?$deque@UEntry@LT@@V?$allocator@UEntry@LT@@@std@@@std@@QEAA@XZ$rtcFrameData
  000a8	e8 00 00 00 00	 call	 _RTC_CheckStackVars
  000ad	90		 npad	 1
  000ae	48 8b 8d f8 00
	00 00		 mov	 rcx, QWORD PTR __$ArrayPad$[rbp]
  000b5	48 33 cd	 xor	 rcx, rbp
  000b8	e8 00 00 00 00	 call	 __security_check_cookie
  000bd	48 8d a5 08 01
	00 00		 lea	 rsp, QWORD PTR [rbp+264]
  000c4	5f		 pop	 rdi
  000c5	5d		 pop	 rbp
  000c6	c3		 ret	 0
??1?$deque@UEntry@LT@@V?$allocator@UEntry@LT@@@std@@@std@@QEAA@XZ ENDP ; std::deque<LT::Entry,std::allocator<LT::Entry> >::~deque<LT::Entry,std::allocator<LT::Entry> >
_TEXT	ENDS
; Function compile flags: /Odtp /RTCsu /ZI
; File C:\Program Files (x86)\Microsoft Visual Studio\2019\Enterprise\VC\Tools\MSVC\14.27.29110\include\deque
;	COMDAT ??0?$deque@UEntry@LT@@V?$allocator@UEntry@LT@@@std@@@std@@QEAA@XZ
_TEXT	SEGMENT
$T1 = 196
$T2 = 228
tv75 = 248
this$ = 288
??0?$deque@UEntry@LT@@V?$allocator@UEntry@LT@@@std@@@std@@QEAA@XZ PROC ; std::deque<LT::Entry,std::allocator<LT::Entry> >::deque<LT::Entry,std::allocator<LT::Entry> >, COMDAT

; 595  :     deque() : _Mypair(_Zero_then_variadic_args_t{}) {

$LN3:
  00000	48 89 4c 24 08	 mov	 QWORD PTR [rsp+8], rcx
  00005	55		 push	 rbp
  00006	57		 push	 rdi
  00007	48 81 ec 28 01
	00 00		 sub	 rsp, 296		; 00000128H
  0000e	48 8d 6c 24 20	 lea	 rbp, QWORD PTR [rsp+32]
  00013	48 8b fc	 mov	 rdi, rsp
  00016	b9 4a 00 00 00	 mov	 ecx, 74			; 0000004aH
  0001b	b8 cc cc cc cc	 mov	 eax, -858993460		; ccccccccH
  00020	f3 ab		 rep stosd
  00022	48 8b 8c 24 48
	01 00 00	 mov	 rcx, QWORD PTR [rsp+328]
  0002a	48 8d 0d 00 00
	00 00		 lea	 rcx, OFFSET FLAT:__1C3F1DC9_deque
  00031	e8 00 00 00 00	 call	 __CheckForDebuggerJustMyCode
  00036	48 8b 85 20 01
	00 00		 mov	 rax, QWORD PTR this$[rbp]
  0003d	0f b6 95 c4 00
	00 00		 movzx	 edx, BYTE PTR $T1[rbp]
  00044	48 8b c8	 mov	 rcx, rax
  00047	e8 00 00 00 00	 call	 ??$?0$$V@?$_Compressed_pair@V?$allocator@UEntry@LT@@@std@@V?$_Deque_val@U?$_Deque_simple_types@UEntry@LT@@@std@@@2@$00@std@@QEAA@U_Zero_then_variadic_args_t@1@@Z ; std::_Compressed_pair<std::allocator<LT::Entry>,std::_Deque_val<std::_Deque_simple_types<LT::Entry> >,1>::_Compressed_pair<std::allocator<LT::Entry>,std::_Deque_val<std::_Deque_simple_types<LT::Entry> >,1><>

; 596  :         _Get_data()._Alloc_proxy(static_cast<_Alproxy_ty>(_Getal()));

  0004c	48 8b 8d 20 01
	00 00		 mov	 rcx, QWORD PTR this$[rbp]
  00053	e8 00 00 00 00	 call	 ?_Getal@?$deque@UEntry@LT@@V?$allocator@UEntry@LT@@@std@@@std@@AEAAAEAV?$allocator@UEntry@LT@@@2@XZ ; std::deque<LT::Entry,std::allocator<LT::Entry> >::_Getal
  00058	48 8b d0	 mov	 rdx, rax
  0005b	48 8d 8d e4 00
	00 00		 lea	 rcx, QWORD PTR $T2[rbp]
  00062	e8 00 00 00 00	 call	 ??$?0UEntry@LT@@@?$allocator@U_Container_proxy@std@@@std@@QEAA@AEBV?$allocator@UEntry@LT@@@1@@Z ; std::allocator<std::_Container_proxy>::allocator<std::_Container_proxy><LT::Entry>
  00067	48 89 85 f8 00
	00 00		 mov	 QWORD PTR tv75[rbp], rax
  0006e	48 8b 8d 20 01
	00 00		 mov	 rcx, QWORD PTR this$[rbp]
  00075	e8 00 00 00 00	 call	 ?_Get_data@?$deque@UEntry@LT@@V?$allocator@UEntry@LT@@@std@@@std@@AEAAAEAV?$_Deque_val@U?$_Deque_simple_types@UEntry@LT@@@std@@@2@XZ ; std::deque<LT::Entry,std::allocator<LT::Entry> >::_Get_data
  0007a	48 8b 8d f8 00
	00 00		 mov	 rcx, QWORD PTR tv75[rbp]
  00081	48 8b d1	 mov	 rdx, rcx
  00084	48 8b c8	 mov	 rcx, rax
  00087	e8 00 00 00 00	 call	 ??$_Alloc_proxy@V?$allocator@U_Container_proxy@std@@@std@@@_Container_base12@std@@QEAAX$$QEAV?$allocator@U_Container_proxy@std@@@1@@Z ; std::_Container_base12::_Alloc_proxy<std::allocator<std::_Container_proxy> >

; 597  :     }

  0008c	48 8b 85 20 01
	00 00		 mov	 rax, QWORD PTR this$[rbp]
  00093	48 8d a5 08 01
	00 00		 lea	 rsp, QWORD PTR [rbp+264]
  0009a	5f		 pop	 rdi
  0009b	5d		 pop	 rbp
  0009c	c3		 ret	 0
??0?$deque@UEntry@LT@@V?$allocator@UEntry@LT@@@std@@@std@@QEAA@XZ ENDP ; std::deque<LT::Entry,std::allocator<LT::Entry> >::deque<LT::Entry,std::allocator<LT::Entry> >
_TEXT	ENDS
; Function compile flags: /Odtp /RTCsu /ZI
; File C:\Program Files (x86)\Microsoft Visual Studio\2019\Enterprise\VC\Tools\MSVC\14.27.29110\include\xmemory
;	COMDAT ?allocate@?$allocator@PEAUEntry@LT@@@std@@QEAAPEAPEAUEntry@LT@@_K@Z
_TEXT	SEGMENT
this$ = 224
_Count$ = 232
?allocate@?$allocator@PEAUEntry@LT@@@std@@QEAAPEAPEAUEntry@LT@@_K@Z PROC ; std::allocator<LT::Entry *>::allocate, COMDAT

; 806  :     _NODISCARD __declspec(allocator) _Ty* allocate(_CRT_GUARDOVERFLOW const size_t _Count) {

$LN3:
  00000	48 89 54 24 10	 mov	 QWORD PTR [rsp+16], rdx
  00005	48 89 4c 24 08	 mov	 QWORD PTR [rsp+8], rcx
  0000a	55		 push	 rbp
  0000b	57		 push	 rdi
  0000c	48 81 ec e8 00
	00 00		 sub	 rsp, 232		; 000000e8H
  00013	48 8d 6c 24 20	 lea	 rbp, QWORD PTR [rsp+32]
  00018	48 8b fc	 mov	 rdi, rsp
  0001b	b9 3a 00 00 00	 mov	 ecx, 58			; 0000003aH
  00020	b8 cc cc cc cc	 mov	 eax, -858993460		; ccccccccH
  00025	f3 ab		 rep stosd
  00027	48 8b 8c 24 08
	01 00 00	 mov	 rcx, QWORD PTR [rsp+264]
  0002f	48 8d 0d 00 00
	00 00		 lea	 rcx, OFFSET FLAT:__0C99713E_xmemory
  00036	e8 00 00 00 00	 call	 __CheckForDebuggerJustMyCode

; 807  :         return static_cast<_Ty*>(_Allocate<_New_alignof<_Ty>>(_Get_size_of_n<sizeof(_Ty)>(_Count)));

  0003b	48 8b 8d e8 00
	00 00		 mov	 rcx, QWORD PTR _Count$[rbp]
  00042	e8 00 00 00 00	 call	 ??$_Get_size_of_n@$07@std@@YA_K_K@Z ; std::_Get_size_of_n<8>
  00047	48 8b c8	 mov	 rcx, rax
  0004a	e8 00 00 00 00	 call	 ??$_Allocate@$0BA@U_Default_allocate_traits@std@@$0A@@std@@YAPEAX_K@Z ; std::_Allocate<16,std::_Default_allocate_traits,0>

; 808  :     }

  0004f	48 8d a5 c8 00
	00 00		 lea	 rsp, QWORD PTR [rbp+200]
  00056	5f		 pop	 rdi
  00057	5d		 pop	 rbp
  00058	c3		 ret	 0
?allocate@?$allocator@PEAUEntry@LT@@@std@@QEAAPEAPEAUEntry@LT@@_K@Z ENDP ; std::allocator<LT::Entry *>::allocate
_TEXT	ENDS
; Function compile flags: /Odtp /RTCsu /ZI
; File C:\Program Files (x86)\Microsoft Visual Studio\2019\Enterprise\VC\Tools\MSVC\14.27.29110\include\xmemory
;	COMDAT ?deallocate@?$allocator@PEAUEntry@LT@@@std@@QEAAXQEAPEAUEntry@LT@@_K@Z
_TEXT	SEGMENT
this$ = 224
_Ptr$ = 232
_Count$ = 240
?deallocate@?$allocator@PEAUEntry@LT@@@std@@QEAAXQEAPEAUEntry@LT@@_K@Z PROC ; std::allocator<LT::Entry *>::deallocate, COMDAT

; 801  :     void deallocate(_Ty* const _Ptr, const size_t _Count) {

$LN3:
  00000	4c 89 44 24 18	 mov	 QWORD PTR [rsp+24], r8
  00005	48 89 54 24 10	 mov	 QWORD PTR [rsp+16], rdx
  0000a	48 89 4c 24 08	 mov	 QWORD PTR [rsp+8], rcx
  0000f	55		 push	 rbp
  00010	57		 push	 rdi
  00011	48 81 ec e8 00
	00 00		 sub	 rsp, 232		; 000000e8H
  00018	48 8d 6c 24 20	 lea	 rbp, QWORD PTR [rsp+32]
  0001d	48 8b fc	 mov	 rdi, rsp
  00020	b9 3a 00 00 00	 mov	 ecx, 58			; 0000003aH
  00025	b8 cc cc cc cc	 mov	 eax, -858993460		; ccccccccH
  0002a	f3 ab		 rep stosd
  0002c	48 8b 8c 24 08
	01 00 00	 mov	 rcx, QWORD PTR [rsp+264]
  00034	48 8d 0d 00 00
	00 00		 lea	 rcx, OFFSET FLAT:__0C99713E_xmemory
  0003b	e8 00 00 00 00	 call	 __CheckForDebuggerJustMyCode

; 802  :         // no overflow check on the following multiply; we assume _Allocate did that check
; 803  :         _Deallocate<_New_alignof<_Ty>>(_Ptr, sizeof(_Ty) * _Count);

  00040	48 8b 85 f0 00
	00 00		 mov	 rax, QWORD PTR _Count$[rbp]
  00047	48 c1 e0 03	 shl	 rax, 3
  0004b	48 8b d0	 mov	 rdx, rax
  0004e	48 8b 8d e8 00
	00 00		 mov	 rcx, QWORD PTR _Ptr$[rbp]
  00055	e8 00 00 00 00	 call	 ??$_Deallocate@$0BA@$0A@@std@@YAXPEAX_K@Z ; std::_Deallocate<16,0>

; 804  :     }

  0005a	48 8d a5 c8 00
	00 00		 lea	 rsp, QWORD PTR [rbp+200]
  00061	5f		 pop	 rdi
  00062	5d		 pop	 rbp
  00063	c3		 ret	 0
?deallocate@?$allocator@PEAUEntry@LT@@@std@@QEAAXQEAPEAUEntry@LT@@_K@Z ENDP ; std::allocator<LT::Entry *>::deallocate
_TEXT	ENDS
; Function compile flags: /Odtp /RTCsu /ZI
; File C:\Program Files (x86)\Microsoft Visual Studio\2019\Enterprise\VC\Tools\MSVC\14.27.29110\include\xmemory
;	COMDAT ?max_size@?$_Default_allocator_traits@V?$allocator@UEntry@LT@@@std@@@std@@SA_KAEBV?$allocator@UEntry@LT@@@2@@Z
_TEXT	SEGMENT
__formal$ = 224
?max_size@?$_Default_allocator_traits@V?$allocator@UEntry@LT@@@std@@@std@@SA_KAEBV?$allocator@UEntry@LT@@@2@@Z PROC ; std::_Default_allocator_traits<std::allocator<LT::Entry> >::max_size, COMDAT

; 702  :     _NODISCARD static size_type max_size(const _Alloc&) noexcept {

$LN3:
  00000	48 89 4c 24 08	 mov	 QWORD PTR [rsp+8], rcx
  00005	55		 push	 rbp
  00006	57		 push	 rdi
  00007	48 81 ec e8 00
	00 00		 sub	 rsp, 232		; 000000e8H
  0000e	48 8d 6c 24 20	 lea	 rbp, QWORD PTR [rsp+32]
  00013	48 8b fc	 mov	 rdi, rsp
  00016	b9 3a 00 00 00	 mov	 ecx, 58			; 0000003aH
  0001b	b8 cc cc cc cc	 mov	 eax, -858993460		; ccccccccH
  00020	f3 ab		 rep stosd
  00022	48 8b 8c 24 08
	01 00 00	 mov	 rcx, QWORD PTR [rsp+264]
  0002a	48 8d 0d 00 00
	00 00		 lea	 rcx, OFFSET FLAT:__0C99713E_xmemory
  00031	e8 00 00 00 00	 call	 __CheckForDebuggerJustMyCode

; 703  :         return static_cast<size_t>(-1) / sizeof(value_type);

  00036	48 b8 ff ff ff
	ff ff ff ff 0f	 mov	 rax, 1152921504606846975 ; 0fffffffffffffffH

; 704  :     }

  00040	48 8d a5 c8 00
	00 00		 lea	 rsp, QWORD PTR [rbp+200]
  00047	5f		 pop	 rdi
  00048	5d		 pop	 rbp
  00049	c3		 ret	 0
?max_size@?$_Default_allocator_traits@V?$allocator@UEntry@LT@@@std@@@std@@SA_KAEBV?$allocator@UEntry@LT@@@2@@Z ENDP ; std::_Default_allocator_traits<std::allocator<LT::Entry> >::max_size
_TEXT	ENDS
; Function compile flags: /Odtp /RTCsu /ZI
; File C:\Program Files (x86)\Microsoft Visual Studio\2019\Enterprise\VC\Tools\MSVC\14.27.29110\include\xmemory
;	COMDAT ?allocate@?$allocator@UEntry@LT@@@std@@QEAAPEAUEntry@LT@@_K@Z
_TEXT	SEGMENT
this$ = 224
_Count$ = 232
?allocate@?$allocator@UEntry@LT@@@std@@QEAAPEAUEntry@LT@@_K@Z PROC ; std::allocator<LT::Entry>::allocate, COMDAT

; 806  :     _NODISCARD __declspec(allocator) _Ty* allocate(_CRT_GUARDOVERFLOW const size_t _Count) {

$LN3:
  00000	48 89 54 24 10	 mov	 QWORD PTR [rsp+16], rdx
  00005	48 89 4c 24 08	 mov	 QWORD PTR [rsp+8], rcx
  0000a	55		 push	 rbp
  0000b	57		 push	 rdi
  0000c	48 81 ec e8 00
	00 00		 sub	 rsp, 232		; 000000e8H
  00013	48 8d 6c 24 20	 lea	 rbp, QWORD PTR [rsp+32]
  00018	48 8b fc	 mov	 rdi, rsp
  0001b	b9 3a 00 00 00	 mov	 ecx, 58			; 0000003aH
  00020	b8 cc cc cc cc	 mov	 eax, -858993460		; ccccccccH
  00025	f3 ab		 rep stosd
  00027	48 8b 8c 24 08
	01 00 00	 mov	 rcx, QWORD PTR [rsp+264]
  0002f	48 8d 0d 00 00
	00 00		 lea	 rcx, OFFSET FLAT:__0C99713E_xmemory
  00036	e8 00 00 00 00	 call	 __CheckForDebuggerJustMyCode

; 807  :         return static_cast<_Ty*>(_Allocate<_New_alignof<_Ty>>(_Get_size_of_n<sizeof(_Ty)>(_Count)));

  0003b	48 8b 8d e8 00
	00 00		 mov	 rcx, QWORD PTR _Count$[rbp]
  00042	e8 00 00 00 00	 call	 ??$_Get_size_of_n@$0BA@@std@@YA_K_K@Z ; std::_Get_size_of_n<16>
  00047	48 8b c8	 mov	 rcx, rax
  0004a	e8 00 00 00 00	 call	 ??$_Allocate@$0BA@U_Default_allocate_traits@std@@$0A@@std@@YAPEAX_K@Z ; std::_Allocate<16,std::_Default_allocate_traits,0>

; 808  :     }

  0004f	48 8d a5 c8 00
	00 00		 lea	 rsp, QWORD PTR [rbp+200]
  00056	5f		 pop	 rdi
  00057	5d		 pop	 rbp
  00058	c3		 ret	 0
?allocate@?$allocator@UEntry@LT@@@std@@QEAAPEAUEntry@LT@@_K@Z ENDP ; std::allocator<LT::Entry>::allocate
_TEXT	ENDS
; Function compile flags: /Odtp /RTCsu /ZI
; File C:\Program Files (x86)\Microsoft Visual Studio\2019\Enterprise\VC\Tools\MSVC\14.27.29110\include\xmemory
;	COMDAT ?deallocate@?$allocator@UEntry@LT@@@std@@QEAAXQEAUEntry@LT@@_K@Z
_TEXT	SEGMENT
this$ = 224
_Ptr$ = 232
_Count$ = 240
?deallocate@?$allocator@UEntry@LT@@@std@@QEAAXQEAUEntry@LT@@_K@Z PROC ; std::allocator<LT::Entry>::deallocate, COMDAT

; 801  :     void deallocate(_Ty* const _Ptr, const size_t _Count) {

$LN3:
  00000	4c 89 44 24 18	 mov	 QWORD PTR [rsp+24], r8
  00005	48 89 54 24 10	 mov	 QWORD PTR [rsp+16], rdx
  0000a	48 89 4c 24 08	 mov	 QWORD PTR [rsp+8], rcx
  0000f	55		 push	 rbp
  00010	57		 push	 rdi
  00011	48 81 ec e8 00
	00 00		 sub	 rsp, 232		; 000000e8H
  00018	48 8d 6c 24 20	 lea	 rbp, QWORD PTR [rsp+32]
  0001d	48 8b fc	 mov	 rdi, rsp
  00020	b9 3a 00 00 00	 mov	 ecx, 58			; 0000003aH
  00025	b8 cc cc cc cc	 mov	 eax, -858993460		; ccccccccH
  0002a	f3 ab		 rep stosd
  0002c	48 8b 8c 24 08
	01 00 00	 mov	 rcx, QWORD PTR [rsp+264]
  00034	48 8d 0d 00 00
	00 00		 lea	 rcx, OFFSET FLAT:__0C99713E_xmemory
  0003b	e8 00 00 00 00	 call	 __CheckForDebuggerJustMyCode

; 802  :         // no overflow check on the following multiply; we assume _Allocate did that check
; 803  :         _Deallocate<_New_alignof<_Ty>>(_Ptr, sizeof(_Ty) * _Count);

  00040	48 6b 85 f0 00
	00 00 10	 imul	 rax, QWORD PTR _Count$[rbp], 16
  00048	48 8b d0	 mov	 rdx, rax
  0004b	48 8b 8d e8 00
	00 00		 mov	 rcx, QWORD PTR _Ptr$[rbp]
  00052	e8 00 00 00 00	 call	 ??$_Deallocate@$0BA@$0A@@std@@YAXPEAX_K@Z ; std::_Deallocate<16,0>

; 804  :     }

  00057	48 8d a5 c8 00
	00 00		 lea	 rsp, QWORD PTR [rbp+200]
  0005e	5f		 pop	 rdi
  0005f	5d		 pop	 rbp
  00060	c3		 ret	 0
?deallocate@?$allocator@UEntry@LT@@@std@@QEAAXQEAUEntry@LT@@_K@Z ENDP ; std::allocator<LT::Entry>::deallocate
_TEXT	ENDS
; Function compile flags: /Odtp /RTCsu /ZI
; File C:\Program Files (x86)\Microsoft Visual Studio\2019\Enterprise\VC\Tools\MSVC\14.27.29110\include\xmemory
;	COMDAT ??0?$allocator@UEntry@LT@@@std@@QEAA@XZ
_TEXT	SEGMENT
this$ = 224
??0?$allocator@UEntry@LT@@@std@@QEAA@XZ PROC		; std::allocator<LT::Entry>::allocator<LT::Entry>, COMDAT

; 795  :     constexpr allocator() noexcept {}

$LN3:
  00000	48 89 4c 24 08	 mov	 QWORD PTR [rsp+8], rcx
  00005	55		 push	 rbp
  00006	57		 push	 rdi
  00007	48 81 ec e8 00
	00 00		 sub	 rsp, 232		; 000000e8H
  0000e	48 8d 6c 24 20	 lea	 rbp, QWORD PTR [rsp+32]
  00013	48 8b fc	 mov	 rdi, rsp
  00016	b9 3a 00 00 00	 mov	 ecx, 58			; 0000003aH
  0001b	b8 cc cc cc cc	 mov	 eax, -858993460		; ccccccccH
  00020	f3 ab		 rep stosd
  00022	48 8b 8c 24 08
	01 00 00	 mov	 rcx, QWORD PTR [rsp+264]
  0002a	48 8d 0d 00 00
	00 00		 lea	 rcx, OFFSET FLAT:__0C99713E_xmemory
  00031	e8 00 00 00 00	 call	 __CheckForDebuggerJustMyCode
  00036	48 8b 85 e0 00
	00 00		 mov	 rax, QWORD PTR this$[rbp]
  0003d	48 8d a5 c8 00
	00 00		 lea	 rsp, QWORD PTR [rbp+200]
  00044	5f		 pop	 rdi
  00045	5d		 pop	 rbp
  00046	c3		 ret	 0
??0?$allocator@UEntry@LT@@@std@@QEAA@XZ ENDP		; std::allocator<LT::Entry>::allocator<LT::Entry>
_TEXT	ENDS
; Function compile flags: /Odtp /RTCsu /ZI
; File C:\Users\Skvortsoff\OneDrive\\GitHub\course_LP\course_LP\PN.cpp
;	COMDAT ?polishNotation@PN@@YAHHAEAULexTable@LT@@AEAUIdTable@IT@@@Z
_TEXT	SEGMENT
stack$ = 8
operands$ = 72
exp$ = 116
opndsindex$ = 148
exit$ = 180
foundfunc$ = 212
foundarr$ = 244
position$ = 276
position2$ = 308
count$ = 340
temp$ = 376
i$6 = 420
i$7 = 452
$T8 = 868
$T9 = 900
tv213 = 916
tv165 = 916
tv142 = 916
__$ArrayPad$ = 920
lextable_pos$ = 960
lextable$ = 968
idtable$ = 976
?polishNotation@PN@@YAHHAEAULexTable@LT@@AEAUIdTable@IT@@@Z PROC ; PN::polishNotation, COMDAT

; 36   : 	{

$LN95:
  00000	4c 89 44 24 18	 mov	 QWORD PTR [rsp+24], r8
  00005	48 89 54 24 10	 mov	 QWORD PTR [rsp+16], rdx
  0000a	89 4c 24 08	 mov	 DWORD PTR [rsp+8], ecx
  0000e	55		 push	 rbp
  0000f	56		 push	 rsi
  00010	57		 push	 rdi
  00011	48 81 ec c0 03
	00 00		 sub	 rsp, 960		; 000003c0H
  00018	48 8d 6c 24 20	 lea	 rbp, QWORD PTR [rsp+32]
  0001d	48 8b fc	 mov	 rdi, rsp
  00020	b9 f0 00 00 00	 mov	 ecx, 240		; 000000f0H
  00025	b8 cc cc cc cc	 mov	 eax, -858993460		; ccccccccH
  0002a	f3 ab		 rep stosd
  0002c	8b 8c 24 e8 03
	00 00		 mov	 ecx, DWORD PTR [rsp+1000]
  00033	48 8b 05 00 00
	00 00		 mov	 rax, QWORD PTR __security_cookie
  0003a	48 33 c5	 xor	 rax, rbp
  0003d	48 89 85 98 03
	00 00		 mov	 QWORD PTR __$ArrayPad$[rbp], rax
  00044	48 8d 0d 00 00
	00 00		 lea	 rcx, OFFSET FLAT:__22FDF990_PN@cpp
  0004b	e8 00 00 00 00	 call	 __CheckForDebuggerJustMyCode

; 37   : 		stack <LT::Entry> stack;

  00050	ba 28 00 00 00	 mov	 edx, 40			; 00000028H
  00055	48 8d 4d 08	 lea	 rcx, QWORD PTR stack$[rbp]
  00059	e8 00 00 00 00	 call	 ?__autoclassinit2@?$stack@UEntry@LT@@V?$deque@UEntry@LT@@V?$allocator@UEntry@LT@@@std@@@std@@@std@@QEAAX_K@Z
  0005e	48 8d 4d 08	 lea	 rcx, QWORD PTR stack$[rbp]
  00062	e8 00 00 00 00	 call	 ??0?$stack@UEntry@LT@@V?$deque@UEntry@LT@@V?$allocator@UEntry@LT@@@std@@@std@@@std@@QEAA@XZ ; std::stack<LT::Entry,std::deque<LT::Entry,std::allocator<LT::Entry> > >::stack<LT::Entry,std::deque<LT::Entry,std::allocator<LT::Entry> > >
  00067	90		 npad	 1

; 38   : 		list <LT::Entry> operands;

  00068	ba 18 00 00 00	 mov	 edx, 24
  0006d	48 8d 4d 48	 lea	 rcx, QWORD PTR operands$[rbp]
  00071	e8 00 00 00 00	 call	 ?__autoclassinit2@?$list@UEntry@LT@@V?$allocator@UEntry@LT@@@std@@@std@@QEAAX_K@Z
  00076	48 8d 4d 48	 lea	 rcx, QWORD PTR operands$[rbp]
  0007a	e8 00 00 00 00	 call	 ??0?$list@UEntry@LT@@V?$allocator@UEntry@LT@@@std@@@std@@QEAA@XZ ; std::list<LT::Entry,std::allocator<LT::Entry> >::list<LT::Entry,std::allocator<LT::Entry> >
  0007f	90		 npad	 1

; 39   : 		char exp;
; 40   : 		int opndsindex = 0;

  00080	c7 85 94 00 00
	00 00 00 00 00	 mov	 DWORD PTR opndsindex$[rbp], 0

; 41   : 		bool exit= true;

  0008a	c6 85 b4 00 00
	00 01		 mov	 BYTE PTR exit$[rbp], 1

; 42   : 		bool foundfunc = false;

  00091	c6 85 d4 00 00
	00 00		 mov	 BYTE PTR foundfunc$[rbp], 0

; 43   : 		bool foundarr  = false;

  00098	c6 85 f4 00 00
	00 00		 mov	 BYTE PTR foundarr$[rbp], 0

; 44   : 		int position = lextable_pos;

  0009f	8b 85 c0 03 00
	00		 mov	 eax, DWORD PTR lextable_pos$[rbp]
  000a5	89 85 14 01 00
	00		 mov	 DWORD PTR position$[rbp], eax

; 45   : 		int position2 = lextable_pos;

  000ab	8b 85 c0 03 00
	00		 mov	 eax, DWORD PTR lextable_pos$[rbp]
  000b1	89 85 34 01 00
	00		 mov	 DWORD PTR position2$[rbp], eax

; 46   : 		int count = lextable_pos;

  000b7	8b 85 c0 03 00
	00		 mov	 eax, DWORD PTR lextable_pos$[rbp]
  000bd	89 85 54 01 00
	00		 mov	 DWORD PTR count$[rbp], eax

; 47   : 		LT::Entry temp = LT::Entry();

  000c3	48 8d 8d 78 01
	00 00		 lea	 rcx, QWORD PTR temp$[rbp]
  000ca	e8 00 00 00 00	 call	 ??0Entry@LT@@QEAA@XZ	; LT::Entry::Entry

; 48   : 
; 49   : 		for (int i = lextable_pos; exit; i++)

  000cf	8b 85 c0 03 00
	00		 mov	 eax, DWORD PTR lextable_pos$[rbp]
  000d5	89 85 a4 01 00
	00		 mov	 DWORD PTR i$6[rbp], eax
  000db	eb 0e		 jmp	 SHORT $LN4@polishNota
$LN2@polishNota:
  000dd	8b 85 a4 01 00
	00		 mov	 eax, DWORD PTR i$6[rbp]
  000e3	ff c0		 inc	 eax
  000e5	89 85 a4 01 00
	00		 mov	 DWORD PTR i$6[rbp], eax
$LN4@polishNota:
  000eb	0f b6 85 b4 00
	00 00		 movzx	 eax, BYTE PTR exit$[rbp]
  000f2	85 c0		 test	 eax, eax
  000f4	0f 84 e0 06 00
	00		 je	 $LN3@polishNota

; 50   : 		{
; 51   : 			if (lextable.table[i].lexema[0] == EXPRESSIONS)

  000fa	48 63 85 a4 01
	00 00		 movsxd	 rax, DWORD PTR i$6[rbp]
  00101	48 6b c0 10	 imul	 rax, rax, 16
  00105	48 8b 8d c8 03
	00 00		 mov	 rcx, QWORD PTR lextable$[rbp]
  0010c	48 8b 49 08	 mov	 rcx, QWORD PTR [rcx+8]
  00110	48 03 c8	 add	 rcx, rax
  00113	48 8b c1	 mov	 rax, rcx
  00116	b9 01 00 00 00	 mov	 ecx, 1
  0011b	48 6b c9 00	 imul	 rcx, rcx, 0
  0011f	0f be 04 08	 movsx	 eax, BYTE PTR [rax+rcx]
  00123	83 f8 76	 cmp	 eax, 118		; 00000076H
  00126	75 2c		 jne	 SHORT $LN22@polishNota

; 52   : 			{
; 53   : 				exp = lextable.table[i].expression[0];

  00128	48 63 85 a4 01
	00 00		 movsxd	 rax, DWORD PTR i$6[rbp]
  0012f	48 6b c0 10	 imul	 rax, rax, 16
  00133	48 8b 8d c8 03
	00 00		 mov	 rcx, QWORD PTR lextable$[rbp]
  0013a	48 03 41 08	 add	 rax, QWORD PTR [rcx+8]
  0013e	b9 01 00 00 00	 mov	 ecx, 1
  00143	48 6b c9 00	 imul	 rcx, rcx, 0
  00147	0f b6 44 08 02	 movzx	 eax, BYTE PTR [rax+rcx+2]
  0014c	88 45 74	 mov	 BYTE PTR exp$[rbp], al

; 54   : 			}

  0014f	e9 a7 00 00 00	 jmp	 $LN23@polishNota
$LN22@polishNota:

; 55   : 			else
; 56   : 			{
; 57   : 				if (lextable.table[i].idxTI != TI_NULLIDX)

  00154	48 63 85 a4 01
	00 00		 movsxd	 rax, DWORD PTR i$6[rbp]
  0015b	48 6b c0 10	 imul	 rax, rax, 16
  0015f	48 8b 8d c8 03
	00 00		 mov	 rcx, QWORD PTR lextable$[rbp]
  00166	48 8b 49 08	 mov	 rcx, QWORD PTR [rcx+8]
  0016a	83 7c 01 0c ff	 cmp	 DWORD PTR [rcx+rax+12], -1 ; ffffffffH
  0016f	74 64		 je	 SHORT $LN24@polishNota

; 58   : 					switch (idtable.table[lextable.table[i].idxTI].idtype) {

  00171	48 63 85 a4 01
	00 00		 movsxd	 rax, DWORD PTR i$6[rbp]
  00178	48 6b c0 10	 imul	 rax, rax, 16
  0017c	48 8b 8d c8 03
	00 00		 mov	 rcx, QWORD PTR lextable$[rbp]
  00183	48 8b 49 08	 mov	 rcx, QWORD PTR [rcx+8]
  00187	48 63 44 01 0c	 movsxd	 rax, DWORD PTR [rcx+rax+12]
  0018c	48 69 c0 50 fe
	00 00		 imul	 rax, rax, 65104		; 0000fe50H
  00193	48 8b 8d d0 03
	00 00		 mov	 rcx, QWORD PTR idtable$[rbp]
  0019a	48 8b 49 08	 mov	 rcx, QWORD PTR [rcx+8]
  0019e	8b 44 01 44	 mov	 eax, DWORD PTR [rcx+rax+68]
  001a2	89 85 94 03 00
	00		 mov	 DWORD PTR tv142[rbp], eax
  001a8	83 bd 94 03 00
	00 02		 cmp	 DWORD PTR tv142[rbp], 2
  001af	74 14		 je	 SHORT $LN25@polishNota
  001b1	83 bd 94 03 00
	00 06		 cmp	 DWORD PTR tv142[rbp], 6
  001b8	74 0b		 je	 SHORT $LN25@polishNota
  001ba	83 bd 94 03 00
	00 0b		 cmp	 DWORD PTR tv142[rbp], 11
  001c1	74 0b		 je	 SHORT $LN26@polishNota
  001c3	eb 10		 jmp	 SHORT $LN24@polishNota
$LN25@polishNota:

; 59   : 					case IT::F:
; 60   : 					case IT::E:
; 61   : 						foundfunc = true;

  001c5	c6 85 d4 00 00
	00 01		 mov	 BYTE PTR foundfunc$[rbp], 1

; 62   : 						break;

  001cc	eb 07		 jmp	 SHORT $LN24@polishNota
$LN26@polishNota:

; 63   : 					case IT::PA:
; 64   : 							foundarr = true;

  001ce	c6 85 f4 00 00
	00 01		 mov	 BYTE PTR foundarr$[rbp], 1
$LN24@polishNota:

; 65   : 						break;
; 66   : 					}
; 67   : 				exp = lextable.table[i].lexema[0];

  001d5	48 63 85 a4 01
	00 00		 movsxd	 rax, DWORD PTR i$6[rbp]
  001dc	48 6b c0 10	 imul	 rax, rax, 16
  001e0	48 8b 8d c8 03
	00 00		 mov	 rcx, QWORD PTR lextable$[rbp]
  001e7	48 03 41 08	 add	 rax, QWORD PTR [rcx+8]
  001eb	b9 01 00 00 00	 mov	 ecx, 1
  001f0	48 6b c9 00	 imul	 rcx, rcx, 0
  001f4	0f b6 04 08	 movzx	 eax, BYTE PTR [rax+rcx]
  001f8	88 45 74	 mov	 BYTE PTR exp$[rbp], al
$LN23@polishNota:

; 68   : 			}
; 69   : 			if (foundarr) {

  001fb	0f b6 85 f4 00
	00 00		 movzx	 eax, BYTE PTR foundarr$[rbp]
  00202	85 c0		 test	 eax, eax
  00204	0f 84 13 01 00
	00		 je	 $LN27@polishNota

; 70   : 				if (lextable.table[i].lexema[0] == RIGHTSQUARE)

  0020a	48 63 85 a4 01
	00 00		 movsxd	 rax, DWORD PTR i$6[rbp]
  00211	48 6b c0 10	 imul	 rax, rax, 16
  00215	48 8b 8d c8 03
	00 00		 mov	 rcx, QWORD PTR lextable$[rbp]
  0021c	48 8b 49 08	 mov	 rcx, QWORD PTR [rcx+8]
  00220	48 03 c8	 add	 rcx, rax
  00223	48 8b c1	 mov	 rax, rcx
  00226	b9 01 00 00 00	 mov	 ecx, 1
  0022b	48 6b c9 00	 imul	 rcx, rcx, 0
  0022f	0f be 04 08	 movsx	 eax, BYTE PTR [rax+rcx]
  00233	83 f8 5d	 cmp	 eax, 93			; 0000005dH
  00236	0f 85 82 00 00
	00		 jne	 $LN28@polishNota
$LN7@polishNota:

; 71   : 				{
; 72   : 					while ((bool)opndsindex)

  0023c	83 bd 94 00 00
	00 00		 cmp	 DWORD PTR opndsindex$[rbp], 0
  00243	74 09		 je	 SHORT $LN55@polishNota
  00245	c6 85 94 03 00
	00 01		 mov	 BYTE PTR tv165[rbp], 1
  0024c	eb 07		 jmp	 SHORT $LN56@polishNota
$LN55@polishNota:
  0024e	c6 85 94 03 00
	00 00		 mov	 BYTE PTR tv165[rbp], 0
$LN56@polishNota:
  00255	0f b6 85 94 03
	00 00		 movzx	 eax, BYTE PTR tv165[rbp]
  0025c	85 c0		 test	 eax, eax
  0025e	74 2e		 je	 SHORT $LN8@polishNota

; 73   : 					{
; 74   : 						operands.push_back(stack.top());

  00260	48 8d 4d 08	 lea	 rcx, QWORD PTR stack$[rbp]
  00264	e8 00 00 00 00	 call	 ?top@?$stack@UEntry@LT@@V?$deque@UEntry@LT@@V?$allocator@UEntry@LT@@@std@@@std@@@std@@QEAAAEAUEntry@LT@@XZ ; std::stack<LT::Entry,std::deque<LT::Entry,std::allocator<LT::Entry> > >::top
  00269	48 8b d0	 mov	 rdx, rax
  0026c	48 8d 4d 48	 lea	 rcx, QWORD PTR operands$[rbp]
  00270	e8 00 00 00 00	 call	 ?push_back@?$list@UEntry@LT@@V?$allocator@UEntry@LT@@@std@@@std@@QEAAXAEBUEntry@LT@@@Z ; std::list<LT::Entry,std::allocator<LT::Entry> >::push_back

; 75   : 						stack.pop();

  00275	48 8d 4d 08	 lea	 rcx, QWORD PTR stack$[rbp]
  00279	e8 00 00 00 00	 call	 ?pop@?$stack@UEntry@LT@@V?$deque@UEntry@LT@@V?$allocator@UEntry@LT@@@std@@@std@@@std@@QEAAXXZ ; std::stack<LT::Entry,std::deque<LT::Entry,std::allocator<LT::Entry> > >::pop

; 76   : 						opndsindex--;

  0027e	8b 85 94 00 00
	00		 mov	 eax, DWORD PTR opndsindex$[rbp]
  00284	ff c8		 dec	 eax
  00286	89 85 94 00 00
	00		 mov	 DWORD PTR opndsindex$[rbp], eax

; 77   : 					}

  0028c	eb ae		 jmp	 SHORT $LN7@polishNota
$LN8@polishNota:

; 78   : 					operands.push_back(lextable.table[i]);

  0028e	48 63 85 a4 01
	00 00		 movsxd	 rax, DWORD PTR i$6[rbp]
  00295	48 6b c0 10	 imul	 rax, rax, 16
  00299	48 8b 8d c8 03
	00 00		 mov	 rcx, QWORD PTR lextable$[rbp]
  002a0	48 03 41 08	 add	 rax, QWORD PTR [rcx+8]
  002a4	48 8b d0	 mov	 rdx, rax
  002a7	48 8d 4d 48	 lea	 rcx, QWORD PTR operands$[rbp]
  002ab	e8 00 00 00 00	 call	 ?push_back@?$list@UEntry@LT@@V?$allocator@UEntry@LT@@@std@@@std@@QEAAXAEBUEntry@LT@@@Z ; std::list<LT::Entry,std::allocator<LT::Entry> >::push_back

; 79   : 					foundarr = false;

  002b0	c6 85 f4 00 00
	00 00		 mov	 BYTE PTR foundarr$[rbp], 0

; 80   : 					continue;

  002b7	e9 21 fe ff ff	 jmp	 $LN2@polishNota

; 81   : 				}

  002bc	eb 5f		 jmp	 SHORT $LN27@polishNota
$LN28@polishNota:

; 82   : 				else if (lextable.table[i].lexema[0] == LEFTSQUARE)

  002be	48 63 85 a4 01
	00 00		 movsxd	 rax, DWORD PTR i$6[rbp]
  002c5	48 6b c0 10	 imul	 rax, rax, 16
  002c9	48 8b 8d c8 03
	00 00		 mov	 rcx, QWORD PTR lextable$[rbp]
  002d0	48 8b 49 08	 mov	 rcx, QWORD PTR [rcx+8]
  002d4	48 03 c8	 add	 rcx, rax
  002d7	48 8b c1	 mov	 rax, rcx
  002da	b9 01 00 00 00	 mov	 ecx, 1
  002df	48 6b c9 00	 imul	 rcx, rcx, 0
  002e3	0f be 04 08	 movsx	 eax, BYTE PTR [rax+rcx]
  002e7	83 f8 5b	 cmp	 eax, 91			; 0000005bH
  002ea	75 31		 jne	 SHORT $LN27@polishNota

; 83   : 				{
; 84   : 					opndsindex = 0;

  002ec	c7 85 94 00 00
	00 00 00 00 00	 mov	 DWORD PTR opndsindex$[rbp], 0

; 85   : 					operands.push_back(lextable.table[i]);

  002f6	48 63 85 a4 01
	00 00		 movsxd	 rax, DWORD PTR i$6[rbp]
  002fd	48 6b c0 10	 imul	 rax, rax, 16
  00301	48 8b 8d c8 03
	00 00		 mov	 rcx, QWORD PTR lextable$[rbp]
  00308	48 03 41 08	 add	 rax, QWORD PTR [rcx+8]
  0030c	48 8b d0	 mov	 rdx, rax
  0030f	48 8d 4d 48	 lea	 rcx, QWORD PTR operands$[rbp]
  00313	e8 00 00 00 00	 call	 ?push_back@?$list@UEntry@LT@@V?$allocator@UEntry@LT@@@std@@@std@@QEAAXAEBUEntry@LT@@@Z ; std::list<LT::Entry,std::allocator<LT::Entry> >::push_back

; 86   : 					continue;

  00318	e9 c0 fd ff ff	 jmp	 $LN2@polishNota
$LN27@polishNota:

; 87   : 				}
; 88   : 			}
; 89   : 			if (foundfunc)

  0031d	0f b6 85 d4 00
	00 00		 movzx	 eax, BYTE PTR foundfunc$[rbp]
  00324	85 c0		 test	 eax, eax
  00326	74 5c		 je	 SHORT $LN31@polishNota

; 90   : 			{
; 91   : 				operands.push_back(lextable.table[i]);

  00328	48 63 85 a4 01
	00 00		 movsxd	 rax, DWORD PTR i$6[rbp]
  0032f	48 6b c0 10	 imul	 rax, rax, 16
  00333	48 8b 8d c8 03
	00 00		 mov	 rcx, QWORD PTR lextable$[rbp]
  0033a	48 03 41 08	 add	 rax, QWORD PTR [rcx+8]
  0033e	48 8b d0	 mov	 rdx, rax
  00341	48 8d 4d 48	 lea	 rcx, QWORD PTR operands$[rbp]
  00345	e8 00 00 00 00	 call	 ?push_back@?$list@UEntry@LT@@V?$allocator@UEntry@LT@@@std@@@std@@QEAAXAEBUEntry@LT@@@Z ; std::list<LT::Entry,std::allocator<LT::Entry> >::push_back

; 92   : 				if (lextable.table[i].lexema[0] == RIGHTESIS)

  0034a	48 63 85 a4 01
	00 00		 movsxd	 rax, DWORD PTR i$6[rbp]
  00351	48 6b c0 10	 imul	 rax, rax, 16
  00355	48 8b 8d c8 03
	00 00		 mov	 rcx, QWORD PTR lextable$[rbp]
  0035c	48 8b 49 08	 mov	 rcx, QWORD PTR [rcx+8]
  00360	48 03 c8	 add	 rcx, rax
  00363	48 8b c1	 mov	 rax, rcx
  00366	b9 01 00 00 00	 mov	 ecx, 1
  0036b	48 6b c9 00	 imul	 rcx, rcx, 0
  0036f	0f be 04 08	 movsx	 eax, BYTE PTR [rax+rcx]
  00373	83 f8 29	 cmp	 eax, 41			; 00000029H
  00376	75 07		 jne	 SHORT $LN33@polishNota

; 93   : 					foundfunc = false;

  00378	c6 85 d4 00 00
	00 00		 mov	 BYTE PTR foundfunc$[rbp], 0
$LN33@polishNota:

; 94   : 			}

  0037f	e9 51 04 00 00	 jmp	 $LN32@polishNota
$LN31@polishNota:

; 95   : 			else
; 96   : 			{
; 97   : 				switch (exp)

  00384	0f be 45 74	 movsx	 eax, BYTE PTR exp$[rbp]
  00388	89 85 94 03 00
	00		 mov	 DWORD PTR tv213[rbp], eax
  0038e	8b 85 94 03 00
	00		 mov	 eax, DWORD PTR tv213[rbp]
  00394	83 e8 28	 sub	 eax, 40			; 00000028H
  00397	89 85 94 03 00
	00		 mov	 DWORD PTR tv213[rbp], eax
  0039d	83 bd 94 03 00
	00 35		 cmp	 DWORD PTR tv213[rbp], 53 ; 00000035H
  003a4	0f 87 13 03 00
	00		 ja	 $LN50@polishNota
  003aa	48 63 85 94 03
	00 00		 movsxd	 rax, DWORD PTR tv213[rbp]
  003b1	48 8d 0d 00 00
	00 00		 lea	 rcx, OFFSET FLAT:__ImageBase
  003b8	0f b6 84 01 00
	00 00 00	 movzx	 eax, BYTE PTR $LN93@polishNota[rcx+rax]
  003c0	8b 84 81 00 00
	00 00		 mov	 eax, DWORD PTR $LN94@polishNota[rcx+rax*4]
  003c7	48 03 c1	 add	 rax, rcx
  003ca	ff e0		 jmp	 rax
$LN34@polishNota:

; 98   : 				{
; 99   : 				case LEFTHESIS:
; 100  : 					stack.push(lextable.table[i]);

  003cc	48 63 85 a4 01
	00 00		 movsxd	 rax, DWORD PTR i$6[rbp]
  003d3	48 6b c0 10	 imul	 rax, rax, 16
  003d7	48 8b 8d c8 03
	00 00		 mov	 rcx, QWORD PTR lextable$[rbp]
  003de	48 03 41 08	 add	 rax, QWORD PTR [rcx+8]
  003e2	48 8b d0	 mov	 rdx, rax
  003e5	48 8d 4d 08	 lea	 rcx, QWORD PTR stack$[rbp]
  003e9	e8 00 00 00 00	 call	 ?push@?$stack@UEntry@LT@@V?$deque@UEntry@LT@@V?$allocator@UEntry@LT@@@std@@@std@@@std@@QEAAXAEBUEntry@LT@@@Z ; std::stack<LT::Entry,std::deque<LT::Entry,std::allocator<LT::Entry> > >::push

; 101  : 					break;

  003ee	e9 d6 03 00 00	 jmp	 $LN9@polishNota
$LN11@polishNota:

; 102  : 				case RIGHTESIS:
; 103  : 					while (stack.top().lexema[0] != LEFTHESIS)

  003f3	48 8d 4d 08	 lea	 rcx, QWORD PTR stack$[rbp]
  003f7	e8 00 00 00 00	 call	 ?top@?$stack@UEntry@LT@@V?$deque@UEntry@LT@@V?$allocator@UEntry@LT@@@std@@@std@@@std@@QEAAAEAUEntry@LT@@XZ ; std::stack<LT::Entry,std::deque<LT::Entry,std::allocator<LT::Entry> > >::top
  003fc	b9 01 00 00 00	 mov	 ecx, 1
  00401	48 6b c9 00	 imul	 rcx, rcx, 0
  00405	0f be 04 08	 movsx	 eax, BYTE PTR [rax+rcx]
  00409	83 f8 28	 cmp	 eax, 40			; 00000028H
  0040c	74 20		 je	 SHORT $LN12@polishNota

; 104  : 					{
; 105  : 						operands.push_back(stack.top());

  0040e	48 8d 4d 08	 lea	 rcx, QWORD PTR stack$[rbp]
  00412	e8 00 00 00 00	 call	 ?top@?$stack@UEntry@LT@@V?$deque@UEntry@LT@@V?$allocator@UEntry@LT@@@std@@@std@@@std@@QEAAAEAUEntry@LT@@XZ ; std::stack<LT::Entry,std::deque<LT::Entry,std::allocator<LT::Entry> > >::top
  00417	48 8b d0	 mov	 rdx, rax
  0041a	48 8d 4d 48	 lea	 rcx, QWORD PTR operands$[rbp]
  0041e	e8 00 00 00 00	 call	 ?push_back@?$list@UEntry@LT@@V?$allocator@UEntry@LT@@@std@@@std@@QEAAXAEBUEntry@LT@@@Z ; std::list<LT::Entry,std::allocator<LT::Entry> >::push_back

; 106  : 						stack.pop();

  00423	48 8d 4d 08	 lea	 rcx, QWORD PTR stack$[rbp]
  00427	e8 00 00 00 00	 call	 ?pop@?$stack@UEntry@LT@@V?$deque@UEntry@LT@@V?$allocator@UEntry@LT@@@std@@@std@@@std@@QEAAXXZ ; std::stack<LT::Entry,std::deque<LT::Entry,std::allocator<LT::Entry> > >::pop

; 107  : 					}

  0042c	eb c5		 jmp	 SHORT $LN11@polishNota
$LN12@polishNota:

; 108  : 					stack.pop();

  0042e	48 8d 4d 08	 lea	 rcx, QWORD PTR stack$[rbp]
  00432	e8 00 00 00 00	 call	 ?pop@?$stack@UEntry@LT@@V?$deque@UEntry@LT@@V?$allocator@UEntry@LT@@@std@@@std@@@std@@QEAAXXZ ; std::stack<LT::Entry,std::deque<LT::Entry,std::allocator<LT::Entry> > >::pop

; 109  : 					break;

  00437	e9 8d 03 00 00	 jmp	 $LN9@polishNota
$LN13@polishNota:

; 110  : 				case COMMA:
; 111  : 					while (stack.top().expression[0] != LEFTHESIS)

  0043c	48 8d 4d 08	 lea	 rcx, QWORD PTR stack$[rbp]
  00440	e8 00 00 00 00	 call	 ?top@?$stack@UEntry@LT@@V?$deque@UEntry@LT@@V?$allocator@UEntry@LT@@@std@@@std@@@std@@QEAAAEAUEntry@LT@@XZ ; std::stack<LT::Entry,std::deque<LT::Entry,std::allocator<LT::Entry> > >::top
  00445	b9 01 00 00 00	 mov	 ecx, 1
  0044a	48 6b c9 00	 imul	 rcx, rcx, 0
  0044e	0f be 44 08 02	 movsx	 eax, BYTE PTR [rax+rcx+2]
  00453	83 f8 28	 cmp	 eax, 40			; 00000028H
  00456	74 20		 je	 SHORT $LN14@polishNota

; 112  : 					{
; 113  : 						operands.push_back(stack.top());

  00458	48 8d 4d 08	 lea	 rcx, QWORD PTR stack$[rbp]
  0045c	e8 00 00 00 00	 call	 ?top@?$stack@UEntry@LT@@V?$deque@UEntry@LT@@V?$allocator@UEntry@LT@@@std@@@std@@@std@@QEAAAEAUEntry@LT@@XZ ; std::stack<LT::Entry,std::deque<LT::Entry,std::allocator<LT::Entry> > >::top
  00461	48 8b d0	 mov	 rdx, rax
  00464	48 8d 4d 48	 lea	 rcx, QWORD PTR operands$[rbp]
  00468	e8 00 00 00 00	 call	 ?push_back@?$list@UEntry@LT@@V?$allocator@UEntry@LT@@@std@@@std@@QEAAXAEBUEntry@LT@@@Z ; std::list<LT::Entry,std::allocator<LT::Entry> >::push_back

; 114  : 						stack.pop();

  0046d	48 8d 4d 08	 lea	 rcx, QWORD PTR stack$[rbp]
  00471	e8 00 00 00 00	 call	 ?pop@?$stack@UEntry@LT@@V?$deque@UEntry@LT@@V?$allocator@UEntry@LT@@@std@@@std@@@std@@QEAAXXZ ; std::stack<LT::Entry,std::deque<LT::Entry,std::allocator<LT::Entry> > >::pop

; 115  : 					}

  00476	eb c4		 jmp	 SHORT $LN13@polishNota
$LN14@polishNota:

; 116  : 					break;

  00478	e9 4c 03 00 00	 jmp	 $LN9@polishNota
$LN37@polishNota:

; 117  : 				case ADD:
; 118  : 				case SUB:
; 119  : 					opndsindex++;

  0047d	8b 85 94 00 00
	00		 mov	 eax, DWORD PTR opndsindex$[rbp]
  00483	ff c0		 inc	 eax
  00485	89 85 94 00 00
	00		 mov	 DWORD PTR opndsindex$[rbp], eax

; 120  : 					if (stack.empty())

  0048b	48 8d 4d 08	 lea	 rcx, QWORD PTR stack$[rbp]
  0048f	e8 00 00 00 00	 call	 ?empty@?$stack@UEntry@LT@@V?$deque@UEntry@LT@@V?$allocator@UEntry@LT@@@std@@@std@@@std@@QEBA_NXZ ; std::stack<LT::Entry,std::deque<LT::Entry,std::allocator<LT::Entry> > >::empty
  00494	0f b6 c0	 movzx	 eax, al
  00497	85 c0		 test	 eax, eax
  00499	74 27		 je	 SHORT $LN38@polishNota

; 121  : 					{
; 122  : 						stack.push(lextable.table[i]);

  0049b	48 63 85 a4 01
	00 00		 movsxd	 rax, DWORD PTR i$6[rbp]
  004a2	48 6b c0 10	 imul	 rax, rax, 16
  004a6	48 8b 8d c8 03
	00 00		 mov	 rcx, QWORD PTR lextable$[rbp]
  004ad	48 03 41 08	 add	 rax, QWORD PTR [rcx+8]
  004b1	48 8b d0	 mov	 rdx, rax
  004b4	48 8d 4d 08	 lea	 rcx, QWORD PTR stack$[rbp]
  004b8	e8 00 00 00 00	 call	 ?push@?$stack@UEntry@LT@@V?$deque@UEntry@LT@@V?$allocator@UEntry@LT@@@std@@@std@@@std@@QEAAXAEBUEntry@LT@@@Z ; std::stack<LT::Entry,std::deque<LT::Entry,std::allocator<LT::Entry> > >::push

; 123  : 					}

  004bd	e9 d4 00 00 00	 jmp	 $LN39@polishNota
$LN38@polishNota:

; 124  : 					else if (
; 125  : 						stack.top().expression[0] == MUL ||
; 126  : 						stack.top().expression[0] == DIV ||
; 127  : 						stack.top().expression[0] == ADD ||

  004c2	48 8d 4d 08	 lea	 rcx, QWORD PTR stack$[rbp]
  004c6	e8 00 00 00 00	 call	 ?top@?$stack@UEntry@LT@@V?$deque@UEntry@LT@@V?$allocator@UEntry@LT@@@std@@@std@@@std@@QEAAAEAUEntry@LT@@XZ ; std::stack<LT::Entry,std::deque<LT::Entry,std::allocator<LT::Entry> > >::top
  004cb	b9 01 00 00 00	 mov	 ecx, 1
  004d0	48 6b c9 00	 imul	 rcx, rcx, 0
  004d4	0f be 44 08 02	 movsx	 eax, BYTE PTR [rax+rcx+2]
  004d9	83 f8 2a	 cmp	 eax, 42			; 0000002aH
  004dc	74 54		 je	 SHORT $LN42@polishNota
  004de	48 8d 4d 08	 lea	 rcx, QWORD PTR stack$[rbp]
  004e2	e8 00 00 00 00	 call	 ?top@?$stack@UEntry@LT@@V?$deque@UEntry@LT@@V?$allocator@UEntry@LT@@@std@@@std@@@std@@QEAAAEAUEntry@LT@@XZ ; std::stack<LT::Entry,std::deque<LT::Entry,std::allocator<LT::Entry> > >::top
  004e7	b9 01 00 00 00	 mov	 ecx, 1
  004ec	48 6b c9 00	 imul	 rcx, rcx, 0
  004f0	0f be 44 08 02	 movsx	 eax, BYTE PTR [rax+rcx+2]
  004f5	83 f8 2f	 cmp	 eax, 47			; 0000002fH
  004f8	74 38		 je	 SHORT $LN42@polishNota
  004fa	48 8d 4d 08	 lea	 rcx, QWORD PTR stack$[rbp]
  004fe	e8 00 00 00 00	 call	 ?top@?$stack@UEntry@LT@@V?$deque@UEntry@LT@@V?$allocator@UEntry@LT@@@std@@@std@@@std@@QEAAAEAUEntry@LT@@XZ ; std::stack<LT::Entry,std::deque<LT::Entry,std::allocator<LT::Entry> > >::top
  00503	b9 01 00 00 00	 mov	 ecx, 1
  00508	48 6b c9 00	 imul	 rcx, rcx, 0
  0050c	0f be 44 08 02	 movsx	 eax, BYTE PTR [rax+rcx+2]
  00511	83 f8 2b	 cmp	 eax, 43			; 0000002bH
  00514	74 1c		 je	 SHORT $LN42@polishNota
  00516	48 8d 4d 08	 lea	 rcx, QWORD PTR stack$[rbp]
  0051a	e8 00 00 00 00	 call	 ?top@?$stack@UEntry@LT@@V?$deque@UEntry@LT@@V?$allocator@UEntry@LT@@@std@@@std@@@std@@QEAAAEAUEntry@LT@@XZ ; std::stack<LT::Entry,std::deque<LT::Entry,std::allocator<LT::Entry> > >::top
  0051f	b9 01 00 00 00	 mov	 ecx, 1
  00524	48 6b c9 00	 imul	 rcx, rcx, 0
  00528	0f be 44 08 02	 movsx	 eax, BYTE PTR [rax+rcx+2]
  0052d	83 f8 2d	 cmp	 eax, 45			; 0000002dH
  00530	75 42		 jne	 SHORT $LN40@polishNota
$LN42@polishNota:

; 128  : 						stack.top().expression[0] == SUB)
; 129  : 					{
; 130  : 						operands.push_back(stack.top());

  00532	48 8d 4d 08	 lea	 rcx, QWORD PTR stack$[rbp]
  00536	e8 00 00 00 00	 call	 ?top@?$stack@UEntry@LT@@V?$deque@UEntry@LT@@V?$allocator@UEntry@LT@@@std@@@std@@@std@@QEAAAEAUEntry@LT@@XZ ; std::stack<LT::Entry,std::deque<LT::Entry,std::allocator<LT::Entry> > >::top
  0053b	48 8b d0	 mov	 rdx, rax
  0053e	48 8d 4d 48	 lea	 rcx, QWORD PTR operands$[rbp]
  00542	e8 00 00 00 00	 call	 ?push_back@?$list@UEntry@LT@@V?$allocator@UEntry@LT@@@std@@@std@@QEAAXAEBUEntry@LT@@@Z ; std::list<LT::Entry,std::allocator<LT::Entry> >::push_back

; 131  : 						stack.pop();

  00547	48 8d 4d 08	 lea	 rcx, QWORD PTR stack$[rbp]
  0054b	e8 00 00 00 00	 call	 ?pop@?$stack@UEntry@LT@@V?$deque@UEntry@LT@@V?$allocator@UEntry@LT@@@std@@@std@@@std@@QEAAXXZ ; std::stack<LT::Entry,std::deque<LT::Entry,std::allocator<LT::Entry> > >::pop

; 132  : 						stack.push(lextable.table[i]);

  00550	48 63 85 a4 01
	00 00		 movsxd	 rax, DWORD PTR i$6[rbp]
  00557	48 6b c0 10	 imul	 rax, rax, 16
  0055b	48 8b 8d c8 03
	00 00		 mov	 rcx, QWORD PTR lextable$[rbp]
  00562	48 03 41 08	 add	 rax, QWORD PTR [rcx+8]
  00566	48 8b d0	 mov	 rdx, rax
  00569	48 8d 4d 08	 lea	 rcx, QWORD PTR stack$[rbp]
  0056d	e8 00 00 00 00	 call	 ?push@?$stack@UEntry@LT@@V?$deque@UEntry@LT@@V?$allocator@UEntry@LT@@@std@@@std@@@std@@QEAAXAEBUEntry@LT@@@Z ; std::stack<LT::Entry,std::deque<LT::Entry,std::allocator<LT::Entry> > >::push

; 133  : 
; 134  : 					}

  00572	eb 22		 jmp	 SHORT $LN39@polishNota
$LN40@polishNota:

; 135  : 					else
; 136  : 						stack.push(lextable.table[i]);

  00574	48 63 85 a4 01
	00 00		 movsxd	 rax, DWORD PTR i$6[rbp]
  0057b	48 6b c0 10	 imul	 rax, rax, 16
  0057f	48 8b 8d c8 03
	00 00		 mov	 rcx, QWORD PTR lextable$[rbp]
  00586	48 03 41 08	 add	 rax, QWORD PTR [rcx+8]
  0058a	48 8b d0	 mov	 rdx, rax
  0058d	48 8d 4d 08	 lea	 rcx, QWORD PTR stack$[rbp]
  00591	e8 00 00 00 00	 call	 ?push@?$stack@UEntry@LT@@V?$deque@UEntry@LT@@V?$allocator@UEntry@LT@@@std@@@std@@@std@@QEAAXAEBUEntry@LT@@@Z ; std::stack<LT::Entry,std::deque<LT::Entry,std::allocator<LT::Entry> > >::push
$LN39@polishNota:

; 137  : 					break;

  00596	e9 2e 02 00 00	 jmp	 $LN9@polishNota
$LN43@polishNota:

; 138  : 				case MUL:
; 139  : 				case DIV:
; 140  : 					opndsindex++;

  0059b	8b 85 94 00 00
	00		 mov	 eax, DWORD PTR opndsindex$[rbp]
  005a1	ff c0		 inc	 eax
  005a3	89 85 94 00 00
	00		 mov	 DWORD PTR opndsindex$[rbp], eax

; 141  : 					if (stack.empty())

  005a9	48 8d 4d 08	 lea	 rcx, QWORD PTR stack$[rbp]
  005ad	e8 00 00 00 00	 call	 ?empty@?$stack@UEntry@LT@@V?$deque@UEntry@LT@@V?$allocator@UEntry@LT@@@std@@@std@@@std@@QEBA_NXZ ; std::stack<LT::Entry,std::deque<LT::Entry,std::allocator<LT::Entry> > >::empty
  005b2	0f b6 c0	 movzx	 eax, al
  005b5	85 c0		 test	 eax, eax
  005b7	74 27		 je	 SHORT $LN44@polishNota

; 142  : 					{
; 143  : 						stack.push(lextable.table[i]);

  005b9	48 63 85 a4 01
	00 00		 movsxd	 rax, DWORD PTR i$6[rbp]
  005c0	48 6b c0 10	 imul	 rax, rax, 16
  005c4	48 8b 8d c8 03
	00 00		 mov	 rcx, QWORD PTR lextable$[rbp]
  005cb	48 03 41 08	 add	 rax, QWORD PTR [rcx+8]
  005cf	48 8b d0	 mov	 rdx, rax
  005d2	48 8d 4d 08	 lea	 rcx, QWORD PTR stack$[rbp]
  005d6	e8 00 00 00 00	 call	 ?push@?$stack@UEntry@LT@@V?$deque@UEntry@LT@@V?$allocator@UEntry@LT@@@std@@@std@@@std@@QEAAXAEBUEntry@LT@@@Z ; std::stack<LT::Entry,std::deque<LT::Entry,std::allocator<LT::Entry> > >::push

; 144  : 					}

  005db	e9 9c 00 00 00	 jmp	 $LN45@polishNota
$LN44@polishNota:

; 145  : 					else if
; 146  : 						(
; 147  : 							stack.top().expression[0] == MUL ||

  005e0	48 8d 4d 08	 lea	 rcx, QWORD PTR stack$[rbp]
  005e4	e8 00 00 00 00	 call	 ?top@?$stack@UEntry@LT@@V?$deque@UEntry@LT@@V?$allocator@UEntry@LT@@@std@@@std@@@std@@QEAAAEAUEntry@LT@@XZ ; std::stack<LT::Entry,std::deque<LT::Entry,std::allocator<LT::Entry> > >::top
  005e9	b9 01 00 00 00	 mov	 ecx, 1
  005ee	48 6b c9 00	 imul	 rcx, rcx, 0
  005f2	0f be 44 08 02	 movsx	 eax, BYTE PTR [rax+rcx+2]
  005f7	83 f8 2a	 cmp	 eax, 42			; 0000002aH
  005fa	74 1c		 je	 SHORT $LN48@polishNota
  005fc	48 8d 4d 08	 lea	 rcx, QWORD PTR stack$[rbp]
  00600	e8 00 00 00 00	 call	 ?top@?$stack@UEntry@LT@@V?$deque@UEntry@LT@@V?$allocator@UEntry@LT@@@std@@@std@@@std@@QEAAAEAUEntry@LT@@XZ ; std::stack<LT::Entry,std::deque<LT::Entry,std::allocator<LT::Entry> > >::top
  00605	b9 01 00 00 00	 mov	 ecx, 1
  0060a	48 6b c9 00	 imul	 rcx, rcx, 0
  0060e	0f be 44 08 02	 movsx	 eax, BYTE PTR [rax+rcx+2]
  00613	83 f8 2f	 cmp	 eax, 47			; 0000002fH
  00616	75 42		 jne	 SHORT $LN46@polishNota
$LN48@polishNota:

; 148  : 							stack.top().expression[0] == DIV
; 149  : 							)
; 150  : 					{
; 151  : 						operands.push_back(stack.top());

  00618	48 8d 4d 08	 lea	 rcx, QWORD PTR stack$[rbp]
  0061c	e8 00 00 00 00	 call	 ?top@?$stack@UEntry@LT@@V?$deque@UEntry@LT@@V?$allocator@UEntry@LT@@@std@@@std@@@std@@QEAAAEAUEntry@LT@@XZ ; std::stack<LT::Entry,std::deque<LT::Entry,std::allocator<LT::Entry> > >::top
  00621	48 8b d0	 mov	 rdx, rax
  00624	48 8d 4d 48	 lea	 rcx, QWORD PTR operands$[rbp]
  00628	e8 00 00 00 00	 call	 ?push_back@?$list@UEntry@LT@@V?$allocator@UEntry@LT@@@std@@@std@@QEAAXAEBUEntry@LT@@@Z ; std::list<LT::Entry,std::allocator<LT::Entry> >::push_back

; 152  : 						stack.pop();

  0062d	48 8d 4d 08	 lea	 rcx, QWORD PTR stack$[rbp]
  00631	e8 00 00 00 00	 call	 ?pop@?$stack@UEntry@LT@@V?$deque@UEntry@LT@@V?$allocator@UEntry@LT@@@std@@@std@@@std@@QEAAXXZ ; std::stack<LT::Entry,std::deque<LT::Entry,std::allocator<LT::Entry> > >::pop

; 153  : 						stack.push(lextable.table[i]);

  00636	48 63 85 a4 01
	00 00		 movsxd	 rax, DWORD PTR i$6[rbp]
  0063d	48 6b c0 10	 imul	 rax, rax, 16
  00641	48 8b 8d c8 03
	00 00		 mov	 rcx, QWORD PTR lextable$[rbp]
  00648	48 03 41 08	 add	 rax, QWORD PTR [rcx+8]
  0064c	48 8b d0	 mov	 rdx, rax
  0064f	48 8d 4d 08	 lea	 rcx, QWORD PTR stack$[rbp]
  00653	e8 00 00 00 00	 call	 ?push@?$stack@UEntry@LT@@V?$deque@UEntry@LT@@V?$allocator@UEntry@LT@@@std@@@std@@@std@@QEAAXAEBUEntry@LT@@@Z ; std::stack<LT::Entry,std::deque<LT::Entry,std::allocator<LT::Entry> > >::push

; 154  : 					}

  00658	eb 22		 jmp	 SHORT $LN45@polishNota
$LN46@polishNota:

; 155  : 					else
; 156  : 						stack.push(lextable.table[i]);

  0065a	48 63 85 a4 01
	00 00		 movsxd	 rax, DWORD PTR i$6[rbp]
  00661	48 6b c0 10	 imul	 rax, rax, 16
  00665	48 8b 8d c8 03
	00 00		 mov	 rcx, QWORD PTR lextable$[rbp]
  0066c	48 03 41 08	 add	 rax, QWORD PTR [rcx+8]
  00670	48 8b d0	 mov	 rdx, rax
  00673	48 8d 4d 08	 lea	 rcx, QWORD PTR stack$[rbp]
  00677	e8 00 00 00 00	 call	 ?push@?$stack@UEntry@LT@@V?$deque@UEntry@LT@@V?$allocator@UEntry@LT@@@std@@@std@@@std@@QEAAXAEBUEntry@LT@@@Z ; std::stack<LT::Entry,std::deque<LT::Entry,std::allocator<LT::Entry> > >::push
$LN45@polishNota:

; 157  : 					break;

  0067c	e9 48 01 00 00	 jmp	 $LN9@polishNota
$LN15@polishNota:

; 158  : 				case SEMICOLON:
; 159  : 				case LEX_SQUARE_RIGHT:
; 160  : 					while (!stack.empty())

  00681	48 8d 4d 08	 lea	 rcx, QWORD PTR stack$[rbp]
  00685	e8 00 00 00 00	 call	 ?empty@?$stack@UEntry@LT@@V?$deque@UEntry@LT@@V?$allocator@UEntry@LT@@@std@@@std@@@std@@QEBA_NXZ ; std::stack<LT::Entry,std::deque<LT::Entry,std::allocator<LT::Entry> > >::empty
  0068a	0f b6 c0	 movzx	 eax, al
  0068d	85 c0		 test	 eax, eax
  0068f	75 20		 jne	 SHORT $LN16@polishNota

; 161  : 					{
; 162  : 						operands.push_back(stack.top());

  00691	48 8d 4d 08	 lea	 rcx, QWORD PTR stack$[rbp]
  00695	e8 00 00 00 00	 call	 ?top@?$stack@UEntry@LT@@V?$deque@UEntry@LT@@V?$allocator@UEntry@LT@@@std@@@std@@@std@@QEAAAEAUEntry@LT@@XZ ; std::stack<LT::Entry,std::deque<LT::Entry,std::allocator<LT::Entry> > >::top
  0069a	48 8b d0	 mov	 rdx, rax
  0069d	48 8d 4d 48	 lea	 rcx, QWORD PTR operands$[rbp]
  006a1	e8 00 00 00 00	 call	 ?push_back@?$list@UEntry@LT@@V?$allocator@UEntry@LT@@@std@@@std@@QEAAXAEBUEntry@LT@@@Z ; std::list<LT::Entry,std::allocator<LT::Entry> >::push_back

; 163  : 						stack.pop();

  006a6	48 8d 4d 08	 lea	 rcx, QWORD PTR stack$[rbp]
  006aa	e8 00 00 00 00	 call	 ?pop@?$stack@UEntry@LT@@V?$deque@UEntry@LT@@V?$allocator@UEntry@LT@@@std@@@std@@@std@@QEAAXXZ ; std::stack<LT::Entry,std::deque<LT::Entry,std::allocator<LT::Entry> > >::pop

; 164  : 					}

  006af	eb d0		 jmp	 SHORT $LN15@polishNota
$LN16@polishNota:

; 165  : 					exit = false;

  006b1	c6 85 b4 00 00
	00 00		 mov	 BYTE PTR exit$[rbp], 0

; 166  : 					break;

  006b8	e9 0c 01 00 00	 jmp	 $LN9@polishNota
$LN50@polishNota:

; 167  : 				default:
; 168  : 				{
; 169  : 					if (
; 170  : 						lextable.table[i].lexema[0] == LEX_ID ||
; 171  : 						lextable.table[i].lexema[0] == LEX_LITERAL ||
; 172  : 						lextable.table[i].lexema[0] == LEFTHESIS ||

  006bd	48 63 85 a4 01
	00 00		 movsxd	 rax, DWORD PTR i$6[rbp]
  006c4	48 6b c0 10	 imul	 rax, rax, 16
  006c8	48 8b 8d c8 03
	00 00		 mov	 rcx, QWORD PTR lextable$[rbp]
  006cf	48 8b 49 08	 mov	 rcx, QWORD PTR [rcx+8]
  006d3	48 03 c8	 add	 rcx, rax
  006d6	48 8b c1	 mov	 rax, rcx
  006d9	b9 01 00 00 00	 mov	 ecx, 1
  006de	48 6b c9 00	 imul	 rcx, rcx, 0
  006e2	0f be 04 08	 movsx	 eax, BYTE PTR [rax+rcx]
  006e6	83 f8 69	 cmp	 eax, 105		; 00000069H
  006e9	0f 84 8a 00 00
	00		 je	 $LN53@polishNota
  006ef	48 63 85 a4 01
	00 00		 movsxd	 rax, DWORD PTR i$6[rbp]
  006f6	48 6b c0 10	 imul	 rax, rax, 16
  006fa	48 8b 8d c8 03
	00 00		 mov	 rcx, QWORD PTR lextable$[rbp]
  00701	48 8b 49 08	 mov	 rcx, QWORD PTR [rcx+8]
  00705	48 03 c8	 add	 rcx, rax
  00708	48 8b c1	 mov	 rax, rcx
  0070b	b9 01 00 00 00	 mov	 ecx, 1
  00710	48 6b c9 00	 imul	 rcx, rcx, 0
  00714	0f be 04 08	 movsx	 eax, BYTE PTR [rax+rcx]
  00718	83 f8 6c	 cmp	 eax, 108		; 0000006cH
  0071b	74 5c		 je	 SHORT $LN53@polishNota
  0071d	48 63 85 a4 01
	00 00		 movsxd	 rax, DWORD PTR i$6[rbp]
  00724	48 6b c0 10	 imul	 rax, rax, 16
  00728	48 8b 8d c8 03
	00 00		 mov	 rcx, QWORD PTR lextable$[rbp]
  0072f	48 8b 49 08	 mov	 rcx, QWORD PTR [rcx+8]
  00733	48 03 c8	 add	 rcx, rax
  00736	48 8b c1	 mov	 rax, rcx
  00739	b9 01 00 00 00	 mov	 ecx, 1
  0073e	48 6b c9 00	 imul	 rcx, rcx, 0
  00742	0f be 04 08	 movsx	 eax, BYTE PTR [rax+rcx]
  00746	83 f8 28	 cmp	 eax, 40			; 00000028H
  00749	74 2e		 je	 SHORT $LN53@polishNota
  0074b	48 63 85 a4 01
	00 00		 movsxd	 rax, DWORD PTR i$6[rbp]
  00752	48 6b c0 10	 imul	 rax, rax, 16
  00756	48 8b 8d c8 03
	00 00		 mov	 rcx, QWORD PTR lextable$[rbp]
  0075d	48 8b 49 08	 mov	 rcx, QWORD PTR [rcx+8]
  00761	48 03 c8	 add	 rcx, rax
  00764	48 8b c1	 mov	 rax, rcx
  00767	b9 01 00 00 00	 mov	 ecx, 1
  0076c	48 6b c9 00	 imul	 rcx, rcx, 0
  00770	0f be 04 08	 movsx	 eax, BYTE PTR [rax+rcx]
  00774	83 f8 29	 cmp	 eax, 41			; 00000029H
  00777	75 24		 jne	 SHORT $LN51@polishNota
$LN53@polishNota:

; 173  : 						lextable.table[i].lexema[0] == RIGHTESIS
; 174  : 						) 
; 175  : 					{
; 176  : 						operands.push_back(lextable.table[i]);

  00779	48 63 85 a4 01
	00 00		 movsxd	 rax, DWORD PTR i$6[rbp]
  00780	48 6b c0 10	 imul	 rax, rax, 16
  00784	48 8b 8d c8 03
	00 00		 mov	 rcx, QWORD PTR lextable$[rbp]
  0078b	48 03 41 08	 add	 rax, QWORD PTR [rcx+8]
  0078f	48 8b d0	 mov	 rdx, rax
  00792	48 8d 4d 48	 lea	 rcx, QWORD PTR operands$[rbp]
  00796	e8 00 00 00 00	 call	 ?push_back@?$list@UEntry@LT@@V?$allocator@UEntry@LT@@@std@@@std@@QEAAXAEBUEntry@LT@@@Z ; std::list<LT::Entry,std::allocator<LT::Entry> >::push_back

; 177  : 					}

  0079b	eb 2c		 jmp	 SHORT $LN9@polishNota
$LN51@polishNota:

; 178  : 					else
; 179  : 						return position + 1;

  0079d	8b 85 14 01 00
	00		 mov	 eax, DWORD PTR position$[rbp]
  007a3	ff c0		 inc	 eax
  007a5	89 85 64 03 00
	00		 mov	 DWORD PTR $T8[rbp], eax
  007ab	48 8d 4d 48	 lea	 rcx, QWORD PTR operands$[rbp]
  007af	e8 00 00 00 00	 call	 ??1?$list@UEntry@LT@@V?$allocator@UEntry@LT@@@std@@@std@@QEAA@XZ ; std::list<LT::Entry,std::allocator<LT::Entry> >::~list<LT::Entry,std::allocator<LT::Entry> >
  007b4	90		 npad	 1
  007b5	48 8d 4d 08	 lea	 rcx, QWORD PTR stack$[rbp]
  007b9	e8 00 00 00 00	 call	 ??1?$stack@UEntry@LT@@V?$deque@UEntry@LT@@V?$allocator@UEntry@LT@@@std@@@std@@@std@@QEAA@XZ
  007be	8b 85 64 03 00
	00		 mov	 eax, DWORD PTR $T8[rbp]
  007c4	e9 eb 00 00 00	 jmp	 $LN1@polishNota
$LN9@polishNota:

; 180  : 					break;
; 181  : 				}
; 182  : 
; 183  : 				}
; 184  : 				position = i;

  007c9	8b 85 a4 01 00
	00		 mov	 eax, DWORD PTR i$6[rbp]
  007cf	89 85 14 01 00
	00		 mov	 DWORD PTR position$[rbp], eax
$LN32@polishNota:

; 185  : 			}
; 186  : 		}

  007d5	e9 03 f9 ff ff	 jmp	 $LN2@polishNota
$LN3@polishNota:

; 187  : 		
; 188  : 		for (int i = position2; !operands.empty(); i++) 

  007da	8b 85 34 01 00
	00		 mov	 eax, DWORD PTR position2$[rbp]
  007e0	89 85 c4 01 00
	00		 mov	 DWORD PTR i$7[rbp], eax
  007e6	eb 0e		 jmp	 SHORT $LN19@polishNota
$LN17@polishNota:
  007e8	8b 85 c4 01 00
	00		 mov	 eax, DWORD PTR i$7[rbp]
  007ee	ff c0		 inc	 eax
  007f0	89 85 c4 01 00
	00		 mov	 DWORD PTR i$7[rbp], eax
$LN19@polishNota:
  007f6	48 8d 4d 48	 lea	 rcx, QWORD PTR operands$[rbp]
  007fa	e8 00 00 00 00	 call	 ?empty@?$list@UEntry@LT@@V?$allocator@UEntry@LT@@@std@@@std@@QEBA_NXZ ; std::list<LT::Entry,std::allocator<LT::Entry> >::empty
  007ff	0f b6 c0	 movzx	 eax, al
  00802	85 c0		 test	 eax, eax
  00804	75 46		 jne	 SHORT $LN20@polishNota

; 189  : 		{			
; 190  : 			lextable.table[i] = operands.front();

  00806	48 8d 4d 48	 lea	 rcx, QWORD PTR operands$[rbp]
  0080a	e8 00 00 00 00	 call	 ?front@?$list@UEntry@LT@@V?$allocator@UEntry@LT@@@std@@@std@@QEAAAEAUEntry@LT@@XZ ; std::list<LT::Entry,std::allocator<LT::Entry> >::front
  0080f	48 63 8d c4 01
	00 00		 movsxd	 rcx, DWORD PTR i$7[rbp]
  00816	48 6b c9 10	 imul	 rcx, rcx, 16
  0081a	48 8b 95 c8 03
	00 00		 mov	 rdx, QWORD PTR lextable$[rbp]
  00821	48 8b 52 08	 mov	 rdx, QWORD PTR [rdx+8]
  00825	48 8d 3c 0a	 lea	 rdi, QWORD PTR [rdx+rcx]
  00829	48 8b f0	 mov	 rsi, rax
  0082c	b9 10 00 00 00	 mov	 ecx, 16
  00831	f3 a4		 rep movsb

; 191  : 			operands.pop_front();		

  00833	48 8d 4d 48	 lea	 rcx, QWORD PTR operands$[rbp]
  00837	e8 00 00 00 00	 call	 ?pop_front@?$list@UEntry@LT@@V?$allocator@UEntry@LT@@@std@@@std@@QEAAXXZ ; std::list<LT::Entry,std::allocator<LT::Entry> >::pop_front

; 192  : 			count++;

  0083c	8b 85 54 01 00
	00		 mov	 eax, DWORD PTR count$[rbp]
  00842	ff c0		 inc	 eax
  00844	89 85 54 01 00
	00		 mov	 DWORD PTR count$[rbp], eax

; 193  : 		}

  0084a	eb 9c		 jmp	 SHORT $LN17@polishNota
$LN20@polishNota:

; 194  : 		while (count != position)

  0084c	8b 85 14 01 00
	00		 mov	 eax, DWORD PTR position$[rbp]
  00852	39 85 54 01 00
	00		 cmp	 DWORD PTR count$[rbp], eax
  00858	74 33		 je	 SHORT $LN21@polishNota

; 195  : 		{
; 196  : 			lextable.table[count++].lexema[0] = '';

  0085a	48 63 85 54 01
	00 00		 movsxd	 rax, DWORD PTR count$[rbp]
  00861	48 6b c0 10	 imul	 rax, rax, 16
  00865	48 8b 8d c8 03
	00 00		 mov	 rcx, QWORD PTR lextable$[rbp]
  0086c	48 03 41 08	 add	 rax, QWORD PTR [rcx+8]
  00870	b9 01 00 00 00	 mov	 ecx, 1
  00875	48 6b c9 00	 imul	 rcx, rcx, 0
  00879	c6 04 08 a9	 mov	 BYTE PTR [rax+rcx], -87	; ffffffffffffffa9H
  0087d	8b 85 54 01 00
	00		 mov	 eax, DWORD PTR count$[rbp]
  00883	ff c0		 inc	 eax
  00885	89 85 54 01 00
	00		 mov	 DWORD PTR count$[rbp], eax

; 197  : 		}

  0088b	eb bf		 jmp	 SHORT $LN20@polishNota
$LN21@polishNota:

; 198  : 		return position + 1;

  0088d	8b 85 14 01 00
	00		 mov	 eax, DWORD PTR position$[rbp]
  00893	ff c0		 inc	 eax
  00895	89 85 84 03 00
	00		 mov	 DWORD PTR $T9[rbp], eax
  0089b	48 8d 4d 48	 lea	 rcx, QWORD PTR operands$[rbp]
  0089f	e8 00 00 00 00	 call	 ??1?$list@UEntry@LT@@V?$allocator@UEntry@LT@@@std@@@std@@QEAA@XZ ; std::list<LT::Entry,std::allocator<LT::Entry> >::~list<LT::Entry,std::allocator<LT::Entry> >
  008a4	90		 npad	 1
  008a5	48 8d 4d 08	 lea	 rcx, QWORD PTR stack$[rbp]
  008a9	e8 00 00 00 00	 call	 ??1?$stack@UEntry@LT@@V?$deque@UEntry@LT@@V?$allocator@UEntry@LT@@@std@@@std@@@std@@QEAA@XZ
  008ae	8b 85 84 03 00
	00		 mov	 eax, DWORD PTR $T9[rbp]
$LN1@polishNota:

; 199  : 	}

  008b4	48 8b f8	 mov	 rdi, rax
  008b7	48 8d 4d e0	 lea	 rcx, QWORD PTR [rbp-32]
  008bb	48 8d 15 00 00
	00 00		 lea	 rdx, OFFSET FLAT:?polishNotation@PN@@YAHHAEAULexTable@LT@@AEAUIdTable@IT@@@Z$rtcFrameData
  008c2	e8 00 00 00 00	 call	 _RTC_CheckStackVars
  008c7	48 8b c7	 mov	 rax, rdi
  008ca	48 8b 8d 98 03
	00 00		 mov	 rcx, QWORD PTR __$ArrayPad$[rbp]
  008d1	48 33 cd	 xor	 rcx, rbp
  008d4	e8 00 00 00 00	 call	 __security_check_cookie
  008d9	48 8d a5 a0 03
	00 00		 lea	 rsp, QWORD PTR [rbp+928]
  008e0	5f		 pop	 rdi
  008e1	5e		 pop	 rsi
  008e2	5d		 pop	 rbp
  008e3	c3		 ret	 0
$LN94@polishNota:
  008e4	00 00 00 00	 DD	 $LN34@polishNota
  008e8	00 00 00 00	 DD	 $LN11@polishNota
  008ec	00 00 00 00	 DD	 $LN43@polishNota
  008f0	00 00 00 00	 DD	 $LN37@polishNota
  008f4	00 00 00 00	 DD	 $LN13@polishNota
  008f8	00 00 00 00	 DD	 $LN15@polishNota
  008fc	00 00 00 00	 DD	 $LN50@polishNota
$LN93@polishNota:
  00900	00		 DB	 0
  00901	01		 DB	 1
  00902	02		 DB	 2
  00903	03		 DB	 3
  00904	04		 DB	 4
  00905	03		 DB	 3
  00906	06		 DB	 6
  00907	02		 DB	 2
  00908	06		 DB	 6
  00909	06		 DB	 6
  0090a	06		 DB	 6
  0090b	06		 DB	 6
  0090c	06		 DB	 6
  0090d	06		 DB	 6
  0090e	06		 DB	 6
  0090f	06		 DB	 6
  00910	06		 DB	 6
  00911	06		 DB	 6
  00912	06		 DB	 6
  00913	05		 DB	 5
  00914	06		 DB	 6
  00915	06		 DB	 6
  00916	06		 DB	 6
  00917	06		 DB	 6
  00918	06		 DB	 6
  00919	06		 DB	 6
  0091a	06		 DB	 6
  0091b	06		 DB	 6
  0091c	06		 DB	 6
  0091d	06		 DB	 6
  0091e	06		 DB	 6
  0091f	06		 DB	 6
  00920	06		 DB	 6
  00921	06		 DB	 6
  00922	06		 DB	 6
  00923	06		 DB	 6
  00924	06		 DB	 6
  00925	06		 DB	 6
  00926	06		 DB	 6
  00927	06		 DB	 6
  00928	06		 DB	 6
  00929	06		 DB	 6
  0092a	06		 DB	 6
  0092b	06		 DB	 6
  0092c	06		 DB	 6
  0092d	06		 DB	 6
  0092e	06		 DB	 6
  0092f	06		 DB	 6
  00930	06		 DB	 6
  00931	06		 DB	 6
  00932	06		 DB	 6
  00933	06		 DB	 6
  00934	06		 DB	 6
  00935	05		 DB	 5
?polishNotation@PN@@YAHHAEAULexTable@LT@@AEAUIdTable@IT@@@Z ENDP ; PN::polishNotation
_TEXT	ENDS
;	COMDAT text$x
text$x	SEGMENT
stack$ = 8
operands$ = 72
exp$ = 116
opndsindex$ = 148
exit$ = 180
foundfunc$ = 212
foundarr$ = 244
position$ = 276
position2$ = 308
count$ = 340
temp$ = 376
i$6 = 420
i$7 = 452
$T8 = 868
$T9 = 900
tv213 = 916
tv165 = 916
tv142 = 916
__$ArrayPad$ = 920
lextable_pos$ = 960
lextable$ = 968
idtable$ = 976
?dtor$0@?0??polishNotation@PN@@YAHHAEAULexTable@LT@@AEAUIdTable@IT@@@Z@4HA PROC ; `PN::polishNotation'::`1'::dtor$0
  00000	48 89 4c 24 08	 mov	 QWORD PTR [rsp+8], rcx
  00005	48 89 54 24 10	 mov	 QWORD PTR [rsp+16], rdx
  0000a	55		 push	 rbp
  0000b	57		 push	 rdi
  0000c	48 83 ec 28	 sub	 rsp, 40			; 00000028H
  00010	48 8d 6a 20	 lea	 rbp, QWORD PTR [rdx+32]
  00014	48 8d 4d 08	 lea	 rcx, QWORD PTR stack$[rbp]
  00018	e8 00 00 00 00	 call	 ??1?$stack@UEntry@LT@@V?$deque@UEntry@LT@@V?$allocator@UEntry@LT@@@std@@@std@@@std@@QEAA@XZ
  0001d	48 83 c4 28	 add	 rsp, 40			; 00000028H
  00021	5f		 pop	 rdi
  00022	5d		 pop	 rbp
  00023	c3		 ret	 0
?dtor$0@?0??polishNotation@PN@@YAHHAEAULexTable@LT@@AEAUIdTable@IT@@@Z@4HA ENDP ; `PN::polishNotation'::`1'::dtor$0
text$x	ENDS
;	COMDAT text$x
text$x	SEGMENT
stack$ = 8
operands$ = 72
exp$ = 116
opndsindex$ = 148
exit$ = 180
foundfunc$ = 212
foundarr$ = 244
position$ = 276
position2$ = 308
count$ = 340
temp$ = 376
i$6 = 420
i$7 = 452
$T8 = 868
$T9 = 900
tv213 = 916
tv165 = 916
tv142 = 916
__$ArrayPad$ = 920
lextable_pos$ = 960
lextable$ = 968
idtable$ = 976
?dtor$1@?0??polishNotation@PN@@YAHHAEAULexTable@LT@@AEAUIdTable@IT@@@Z@4HA PROC ; `PN::polishNotation'::`1'::dtor$1
  00000	48 89 4c 24 08	 mov	 QWORD PTR [rsp+8], rcx
  00005	48 89 54 24 10	 mov	 QWORD PTR [rsp+16], rdx
  0000a	55		 push	 rbp
  0000b	57		 push	 rdi
  0000c	48 83 ec 28	 sub	 rsp, 40			; 00000028H
  00010	48 8d 6a 20	 lea	 rbp, QWORD PTR [rdx+32]
  00014	48 8d 4d 48	 lea	 rcx, QWORD PTR operands$[rbp]
  00018	e8 00 00 00 00	 call	 ??1?$list@UEntry@LT@@V?$allocator@UEntry@LT@@@std@@@std@@QEAA@XZ ; std::list<LT::Entry,std::allocator<LT::Entry> >::~list<LT::Entry,std::allocator<LT::Entry> >
  0001d	48 83 c4 28	 add	 rsp, 40			; 00000028H
  00021	5f		 pop	 rdi
  00022	5d		 pop	 rbp
  00023	c3		 ret	 0
?dtor$1@?0??polishNotation@PN@@YAHHAEAULexTable@LT@@AEAUIdTable@IT@@@Z@4HA ENDP ; `PN::polishNotation'::`1'::dtor$1
text$x	ENDS
; Function compile flags: /Odtp /RTCsu /ZI
;	COMDAT text$x
text$x	SEGMENT
stack$ = 8
operands$ = 72
exp$ = 116
opndsindex$ = 148
exit$ = 180
foundfunc$ = 212
foundarr$ = 244
position$ = 276
position2$ = 308
count$ = 340
temp$ = 376
i$6 = 420
i$7 = 452
$T8 = 868
$T9 = 900
tv213 = 916
tv165 = 916
tv142 = 916
__$ArrayPad$ = 920
lextable_pos$ = 960
lextable$ = 968
idtable$ = 976
?dtor$0@?0??polishNotation@PN@@YAHHAEAULexTable@LT@@AEAUIdTable@IT@@@Z@4HA PROC ; `PN::polishNotation'::`1'::dtor$0
  00000	48 89 4c 24 08	 mov	 QWORD PTR [rsp+8], rcx
  00005	48 89 54 24 10	 mov	 QWORD PTR [rsp+16], rdx
  0000a	55		 push	 rbp
  0000b	57		 push	 rdi
  0000c	48 83 ec 28	 sub	 rsp, 40			; 00000028H
  00010	48 8d 6a 20	 lea	 rbp, QWORD PTR [rdx+32]
  00014	48 8d 4d 08	 lea	 rcx, QWORD PTR stack$[rbp]
  00018	e8 00 00 00 00	 call	 ??1?$stack@UEntry@LT@@V?$deque@UEntry@LT@@V?$allocator@UEntry@LT@@@std@@@std@@@std@@QEAA@XZ
  0001d	48 83 c4 28	 add	 rsp, 40			; 00000028H
  00021	5f		 pop	 rdi
  00022	5d		 pop	 rbp
  00023	c3		 ret	 0
?dtor$0@?0??polishNotation@PN@@YAHHAEAULexTable@LT@@AEAUIdTable@IT@@@Z@4HA ENDP ; `PN::polishNotation'::`1'::dtor$0
text$x	ENDS
; Function compile flags: /Odtp /RTCsu /ZI
;	COMDAT text$x
text$x	SEGMENT
stack$ = 8
operands$ = 72
exp$ = 116
opndsindex$ = 148
exit$ = 180
foundfunc$ = 212
foundarr$ = 244
position$ = 276
position2$ = 308
count$ = 340
temp$ = 376
i$6 = 420
i$7 = 452
$T8 = 868
$T9 = 900
tv213 = 916
tv165 = 916
tv142 = 916
__$ArrayPad$ = 920
lextable_pos$ = 960
lextable$ = 968
idtable$ = 976
?dtor$1@?0??polishNotation@PN@@YAHHAEAULexTable@LT@@AEAUIdTable@IT@@@Z@4HA PROC ; `PN::polishNotation'::`1'::dtor$1
  00000	48 89 4c 24 08	 mov	 QWORD PTR [rsp+8], rcx
  00005	48 89 54 24 10	 mov	 QWORD PTR [rsp+16], rdx
  0000a	55		 push	 rbp
  0000b	57		 push	 rdi
  0000c	48 83 ec 28	 sub	 rsp, 40			; 00000028H
  00010	48 8d 6a 20	 lea	 rbp, QWORD PTR [rdx+32]
  00014	48 8d 4d 48	 lea	 rcx, QWORD PTR operands$[rbp]
  00018	e8 00 00 00 00	 call	 ??1?$list@UEntry@LT@@V?$allocator@UEntry@LT@@@std@@@std@@QEAA@XZ ; std::list<LT::Entry,std::allocator<LT::Entry> >::~list<LT::Entry,std::allocator<LT::Entry> >
  0001d	48 83 c4 28	 add	 rsp, 40			; 00000028H
  00021	5f		 pop	 rdi
  00022	5d		 pop	 rbp
  00023	c3		 ret	 0
?dtor$1@?0??polishNotation@PN@@YAHHAEAULexTable@LT@@AEAUIdTable@IT@@@Z@4HA ENDP ; `PN::polishNotation'::`1'::dtor$1
text$x	ENDS
; Function compile flags: /Odtp /RTCsu /ZI
; File C:\Users\Skvortsoff\OneDrive\\GitHub\course_LP\course_LP\PN.cpp
;	COMDAT ?seachingExpressions@PN@@YAXAEAULexTable@LT@@AEAUIdTable@IT@@@Z
_TEXT	SEGMENT
position$ = 4
i$1 = 36
lextable$ = 288
idtable$ = 296
?seachingExpressions@PN@@YAXAEAULexTable@LT@@AEAUIdTable@IT@@@Z PROC ; PN::seachingExpressions, COMDAT

; 12   : 	{

$LN13:
  00000	48 89 54 24 10	 mov	 QWORD PTR [rsp+16], rdx
  00005	48 89 4c 24 08	 mov	 QWORD PTR [rsp+8], rcx
  0000a	55		 push	 rbp
  0000b	57		 push	 rdi
  0000c	48 81 ec 28 01
	00 00		 sub	 rsp, 296		; 00000128H
  00013	48 8d 6c 24 20	 lea	 rbp, QWORD PTR [rsp+32]
  00018	48 8b fc	 mov	 rdi, rsp
  0001b	b9 4a 00 00 00	 mov	 ecx, 74			; 0000004aH
  00020	b8 cc cc cc cc	 mov	 eax, -858993460		; ccccccccH
  00025	f3 ab		 rep stosd
  00027	48 8b 8c 24 48
	01 00 00	 mov	 rcx, QWORD PTR [rsp+328]
  0002f	48 8d 0d 00 00
	00 00		 lea	 rcx, OFFSET FLAT:__22FDF990_PN@cpp
  00036	e8 00 00 00 00	 call	 __CheckForDebuggerJustMyCode

; 13   : 		int position = 0;

  0003b	c7 45 04 00 00
	00 00		 mov	 DWORD PTR position$[rbp], 0

; 14   : 		for (int i = 0; i < lextable.size; i++)

  00042	c7 45 24 00 00
	00 00		 mov	 DWORD PTR i$1[rbp], 0
  00049	eb 08		 jmp	 SHORT $LN4@seachingEx
$LN2@seachingEx:
  0004b	8b 45 24	 mov	 eax, DWORD PTR i$1[rbp]
  0004e	ff c0		 inc	 eax
  00050	89 45 24	 mov	 DWORD PTR i$1[rbp], eax
$LN4@seachingEx:
  00053	48 8b 85 20 01
	00 00		 mov	 rax, QWORD PTR lextable$[rbp]
  0005a	8b 40 04	 mov	 eax, DWORD PTR [rax+4]
  0005d	39 45 24	 cmp	 DWORD PTR i$1[rbp], eax
  00060	0f 8d a3 00 00
	00		 jge	 $LN3@seachingEx

; 15   : 		{
; 16   : 			if (lextable.table[i].lexema[0] == EXPRESSIONS) 

  00066	48 63 45 24	 movsxd	 rax, DWORD PTR i$1[rbp]
  0006a	48 6b c0 10	 imul	 rax, rax, 16
  0006e	48 8b 8d 20 01
	00 00		 mov	 rcx, QWORD PTR lextable$[rbp]
  00075	48 8b 49 08	 mov	 rcx, QWORD PTR [rcx+8]
  00079	48 03 c8	 add	 rcx, rax
  0007c	48 8b c1	 mov	 rax, rcx
  0007f	b9 01 00 00 00	 mov	 ecx, 1
  00084	48 6b c9 00	 imul	 rcx, rcx, 0
  00088	0f be 04 08	 movsx	 eax, BYTE PTR [rax+rcx]
  0008c	83 f8 76	 cmp	 eax, 118		; 00000076H
  0008f	75 25		 jne	 SHORT $LN5@seachingEx

; 17   : 			{
; 18   : 				position = polishNotation((i - 1), lextable, idtable);

  00091	8b 45 24	 mov	 eax, DWORD PTR i$1[rbp]
  00094	ff c8		 dec	 eax
  00096	4c 8b 85 28 01
	00 00		 mov	 r8, QWORD PTR idtable$[rbp]
  0009d	48 8b 95 20 01
	00 00		 mov	 rdx, QWORD PTR lextable$[rbp]
  000a4	8b c8		 mov	 ecx, eax
  000a6	e8 00 00 00 00	 call	 ?polishNotation@PN@@YAHHAEAULexTable@LT@@AEAUIdTable@IT@@@Z ; PN::polishNotation
  000ab	89 45 04	 mov	 DWORD PTR position$[rbp], eax

; 19   : 				i = position;

  000ae	8b 45 04	 mov	 eax, DWORD PTR position$[rbp]
  000b1	89 45 24	 mov	 DWORD PTR i$1[rbp], eax

; 20   : 			}

  000b4	eb 4e		 jmp	 SHORT $LN6@seachingEx
$LN5@seachingEx:

; 21   : 			else if (lextable.table[i].lexema[0] == LEX_ASSIGN)

  000b6	48 63 45 24	 movsxd	 rax, DWORD PTR i$1[rbp]
  000ba	48 6b c0 10	 imul	 rax, rax, 16
  000be	48 8b 8d 20 01
	00 00		 mov	 rcx, QWORD PTR lextable$[rbp]
  000c5	48 8b 49 08	 mov	 rcx, QWORD PTR [rcx+8]
  000c9	48 03 c8	 add	 rcx, rax
  000cc	48 8b c1	 mov	 rax, rcx
  000cf	b9 01 00 00 00	 mov	 ecx, 1
  000d4	48 6b c9 00	 imul	 rcx, rcx, 0
  000d8	0f be 04 08	 movsx	 eax, BYTE PTR [rax+rcx]
  000dc	83 f8 3d	 cmp	 eax, 61			; 0000003dH
  000df	75 23		 jne	 SHORT $LN7@seachingEx

; 22   : 			{
; 23   : 				//if(lextable.table[i].idxTI != TI_NULLIDX)
; 24   : 				//	if (idtable.table[lextable.table[i].idxTI].idtype != IT::PA)
; 25   : 				//	{
; 26   : 						position = polishNotation((i + 1), lextable, idtable);

  000e1	8b 45 24	 mov	 eax, DWORD PTR i$1[rbp]
  000e4	ff c0		 inc	 eax
  000e6	4c 8b 85 28 01
	00 00		 mov	 r8, QWORD PTR idtable$[rbp]
  000ed	48 8b 95 20 01
	00 00		 mov	 rdx, QWORD PTR lextable$[rbp]
  000f4	8b c8		 mov	 ecx, eax
  000f6	e8 00 00 00 00	 call	 ?polishNotation@PN@@YAHHAEAULexTable@LT@@AEAUIdTable@IT@@@Z ; PN::polishNotation
  000fb	89 45 04	 mov	 DWORD PTR position$[rbp], eax

; 27   : 						i = position;

  000fe	8b 45 04	 mov	 eax, DWORD PTR position$[rbp]
  00101	89 45 24	 mov	 DWORD PTR i$1[rbp], eax
$LN7@seachingEx:
$LN6@seachingEx:

; 28   : 				  //}
; 29   : 			}
; 30   : 			
; 31   : 		}

  00104	e9 42 ff ff ff	 jmp	 $LN2@seachingEx
$LN3@seachingEx:

; 32   : 
; 33   : 	}

  00109	48 8d a5 08 01
	00 00		 lea	 rsp, QWORD PTR [rbp+264]
  00110	5f		 pop	 rdi
  00111	5d		 pop	 rbp
  00112	c3		 ret	 0
?seachingExpressions@PN@@YAXAEAULexTable@LT@@AEAUIdTable@IT@@@Z ENDP ; PN::seachingExpressions
_TEXT	ENDS
; Function compile flags: /Odtp /RTCsu /ZI
; File C:\Users\Skvortsoff\OneDrive\\GitHub\course_LP\course_LP\LT.h
;	COMDAT ??0Entry@LT@@QEAA@XZ
_TEXT	SEGMENT
this$ = 224
??0Entry@LT@@QEAA@XZ PROC				; LT::Entry::Entry, COMDAT

; 60   : 		Entry()

$LN4:
  00000	48 89 4c 24 08	 mov	 QWORD PTR [rsp+8], rcx
  00005	55		 push	 rbp
  00006	57		 push	 rdi
  00007	48 81 ec e8 00
	00 00		 sub	 rsp, 232		; 000000e8H
  0000e	48 8d 6c 24 20	 lea	 rbp, QWORD PTR [rsp+32]
  00013	48 8b fc	 mov	 rdi, rsp
  00016	b9 3a 00 00 00	 mov	 ecx, 58			; 0000003aH
  0001b	b8 cc cc cc cc	 mov	 eax, -858993460		; ccccccccH
  00020	f3 ab		 rep stosd
  00022	48 8b 8c 24 08
	01 00 00	 mov	 rcx, QWORD PTR [rsp+264]
  0002a	48 8d 0d 00 00
	00 00		 lea	 rcx, OFFSET FLAT:__7CEFA1A0_LT@h
  00031	e8 00 00 00 00	 call	 __CheckForDebuggerJustMyCode

; 61   : 		{
; 62   : 			memset(lexema, 0x00, LEXEMA_FIXSIZE + 1);

  00036	48 8b 85 e0 00
	00 00		 mov	 rax, QWORD PTR this$[rbp]
  0003d	41 b8 02 00 00
	00		 mov	 r8d, 2
  00043	33 d2		 xor	 edx, edx
  00045	48 8b c8	 mov	 rcx, rax
  00048	e8 00 00 00 00	 call	 memset

; 63   : 			memset(expression, 0x00, LEXEMA_FIXSIZE + 2);

  0004d	48 8b 85 e0 00
	00 00		 mov	 rax, QWORD PTR this$[rbp]
  00054	48 83 c0 02	 add	 rax, 2
  00058	41 b8 03 00 00
	00		 mov	 r8d, 3
  0005e	33 d2		 xor	 edx, edx
  00060	48 8b c8	 mov	 rcx, rax
  00063	e8 00 00 00 00	 call	 memset

; 64   : 			sn = 0;

  00068	48 8b 85 e0 00
	00 00		 mov	 rax, QWORD PTR this$[rbp]
  0006f	c7 40 08 00 00
	00 00		 mov	 DWORD PTR [rax+8], 0

; 65   : 			idxTI = LT_TI_NULLXDX;

  00076	48 8b 85 e0 00
	00 00		 mov	 rax, QWORD PTR this$[rbp]
  0007d	c7 40 0c ff ff
	ff ff		 mov	 DWORD PTR [rax+12], -1

; 66   : 		}

  00084	48 8b 85 e0 00
	00 00		 mov	 rax, QWORD PTR this$[rbp]
  0008b	48 8d a5 c8 00
	00 00		 lea	 rsp, QWORD PTR [rbp+200]
  00092	5f		 pop	 rdi
  00093	5d		 pop	 rbp
  00094	c3		 ret	 0
??0Entry@LT@@QEAA@XZ ENDP				; LT::Entry::Entry
_TEXT	ENDS
; Function compile flags: /Odtp /RTCsu /ZI
; File C:\Program Files (x86)\Microsoft Visual Studio\2019\Enterprise\VC\Tools\MSVC\14.27.29110\include\xloctime
;	COMDAT ??$_Getvals@_W@?$time_get@_WV?$istreambuf_iterator@_WU?$char_traits@_W@std@@@std@@@std@@IEAAX_WAEBV_Locinfo@1@@Z
_TEXT	SEGMENT
$T1 = 200
tv93 = 264
tv85 = 264
this$ = 304
__formal$ = 312
_Lobj$ = 320
??$_Getvals@_W@?$time_get@_WV?$istreambuf_iterator@_WU?$char_traits@_W@std@@@std@@@std@@IEAAX_WAEBV_Locinfo@1@@Z PROC ; std::time_get<wchar_t,std::istreambuf_iterator<wchar_t,std::char_traits<wchar_t> > >::_Getvals<wchar_t>, COMDAT

; 176  :     void __CLR_OR_THIS_CALL _Getvals(_Elem2, const _Locinfo& _Lobj) { // get values

$LN5:
  00000	4c 89 44 24 18	 mov	 QWORD PTR [rsp+24], r8
  00005	66 89 54 24 10	 mov	 WORD PTR [rsp+16], dx
  0000a	48 89 4c 24 08	 mov	 QWORD PTR [rsp+8], rcx
  0000f	55		 push	 rbp
  00010	56		 push	 rsi
  00011	57		 push	 rdi
  00012	48 81 ec 30 01
	00 00		 sub	 rsp, 304		; 00000130H
  00019	48 8d 6c 24 20	 lea	 rbp, QWORD PTR [rsp+32]
  0001e	48 8b fc	 mov	 rdi, rsp
  00021	b9 4c 00 00 00	 mov	 ecx, 76			; 0000004cH
  00026	b8 cc cc cc cc	 mov	 eax, -858993460		; ccccccccH
  0002b	f3 ab		 rep stosd
  0002d	48 8b 8c 24 58
	01 00 00	 mov	 rcx, QWORD PTR [rsp+344]
  00035	48 8d 0d 00 00
	00 00		 lea	 rcx, OFFSET FLAT:__FDACCCE4_xloctime
  0003c	e8 00 00 00 00	 call	 __CheckForDebuggerJustMyCode

; 177  :         _Cvt = _Lobj._Getcvt();

  00041	48 8d 95 c8 00
	00 00		 lea	 rdx, QWORD PTR $T1[rbp]
  00048	48 8b 8d 40 01
	00 00		 mov	 rcx, QWORD PTR _Lobj$[rbp]
  0004f	ff 15 00 00 00
	00		 call	 QWORD PTR __imp_?_Getcvt@_Locinfo@std@@QEBA?AU_Cvtvec@@XZ
  00055	48 8b 8d 30 01
	00 00		 mov	 rcx, QWORD PTR this$[rbp]
  0005c	48 8d 79 2c	 lea	 rdi, QWORD PTR [rcx+44]
  00060	48 8b f0	 mov	 rsi, rax
  00063	b9 2c 00 00 00	 mov	 ecx, 44			; 0000002cH
  00068	f3 a4		 rep movsb

; 178  : 
; 179  :         if (is_same_v<_Elem2, wchar_t>) {

  0006a	33 c0		 xor	 eax, eax
  0006c	83 f8 01	 cmp	 eax, 1
  0006f	74 5c		 je	 SHORT $LN2@Getvals

; 180  :             _Days = reinterpret_cast<const _Elem*>(_Maklocwcs(reinterpret_cast<const wchar_t*>(_Lobj._W_Getdays())));

  00071	48 8b 8d 40 01
	00 00		 mov	 rcx, QWORD PTR _Lobj$[rbp]
  00078	ff 15 00 00 00
	00		 call	 QWORD PTR __imp_?_W_Getdays@_Locinfo@std@@QEBAPEBGXZ
  0007e	48 8b c8	 mov	 rcx, rax
  00081	e8 00 00 00 00	 call	 ?_Maklocwcs@std@@YAPEA_WPEB_W@Z ; std::_Maklocwcs
  00086	48 8b 8d 30 01
	00 00		 mov	 rcx, QWORD PTR this$[rbp]
  0008d	48 89 41 10	 mov	 QWORD PTR [rcx+16], rax

; 181  :             _Months =

  00091	48 8b 8d 40 01
	00 00		 mov	 rcx, QWORD PTR _Lobj$[rbp]
  00098	ff 15 00 00 00
	00		 call	 QWORD PTR __imp_?_W_Getmonths@_Locinfo@std@@QEBAPEBGXZ
  0009e	48 8b c8	 mov	 rcx, rax
  000a1	e8 00 00 00 00	 call	 ?_Maklocwcs@std@@YAPEA_WPEB_W@Z ; std::_Maklocwcs
  000a6	48 8b 8d 30 01
	00 00		 mov	 rcx, QWORD PTR this$[rbp]
  000ad	48 89 41 18	 mov	 QWORD PTR [rcx+24], rax

; 182  :                 reinterpret_cast<const _Elem*>(_Maklocwcs(reinterpret_cast<const wchar_t*>(_Lobj._W_Getmonths())));
; 183  :             _Ampm = reinterpret_cast<const _Elem*>(_Maklocwcs(L":AM:am:PM:pm"));

  000b1	48 8d 0d 00 00
	00 00		 lea	 rcx, OFFSET FLAT:??_C@_1BK@MHIKGOKE@?$AA?3?$AAA?$AAM?$AA?3?$AAa?$AAm?$AA?3?$AAP?$AAM?$AA?3?$AAp?$AAm@
  000b8	e8 00 00 00 00	 call	 ?_Maklocwcs@std@@YAPEA_WPEB_W@Z ; std::_Maklocwcs
  000bd	48 8b 8d 30 01
	00 00		 mov	 rcx, QWORD PTR this$[rbp]
  000c4	48 89 41 20	 mov	 QWORD PTR [rcx+32], rax

; 184  :         } else {

  000c8	e9 a3 00 00 00	 jmp	 $LN3@Getvals
$LN2@Getvals:

; 185  :             _Days   = _Maklocstr(_Lobj._Getdays(), static_cast<_Elem*>(nullptr), _Cvt);

  000cd	48 8b 85 30 01
	00 00		 mov	 rax, QWORD PTR this$[rbp]
  000d4	48 83 c0 2c	 add	 rax, 44			; 0000002cH
  000d8	48 89 85 08 01
	00 00		 mov	 QWORD PTR tv85[rbp], rax
  000df	48 8b 8d 40 01
	00 00		 mov	 rcx, QWORD PTR _Lobj$[rbp]
  000e6	ff 15 00 00 00
	00		 call	 QWORD PTR __imp_?_Getdays@_Locinfo@std@@QEBAPEBDXZ
  000ec	48 8b 8d 08 01
	00 00		 mov	 rcx, QWORD PTR tv85[rbp]
  000f3	4c 8b c1	 mov	 r8, rcx
  000f6	33 d2		 xor	 edx, edx
  000f8	48 8b c8	 mov	 rcx, rax
  000fb	e8 00 00 00 00	 call	 ??$_Maklocstr@_W@std@@YAPEA_WPEBDPEA_WAEBU_Cvtvec@@@Z ; std::_Maklocstr<wchar_t>
  00100	48 8b 8d 30 01
	00 00		 mov	 rcx, QWORD PTR this$[rbp]
  00107	48 89 41 10	 mov	 QWORD PTR [rcx+16], rax

; 186  :             _Months = _Maklocstr(_Lobj._Getmonths(), static_cast<_Elem*>(nullptr), _Cvt);

  0010b	48 8b 85 30 01
	00 00		 mov	 rax, QWORD PTR this$[rbp]
  00112	48 83 c0 2c	 add	 rax, 44			; 0000002cH
  00116	48 89 85 08 01
	00 00		 mov	 QWORD PTR tv93[rbp], rax
  0011d	48 8b 8d 40 01
	00 00		 mov	 rcx, QWORD PTR _Lobj$[rbp]
  00124	ff 15 00 00 00
	00		 call	 QWORD PTR __imp_?_Getmonths@_Locinfo@std@@QEBAPEBDXZ
  0012a	48 8b 8d 08 01
	00 00		 mov	 rcx, QWORD PTR tv93[rbp]
  00131	4c 8b c1	 mov	 r8, rcx
  00134	33 d2		 xor	 edx, edx
  00136	48 8b c8	 mov	 rcx, rax
  00139	e8 00 00 00 00	 call	 ??$_Maklocstr@_W@std@@YAPEA_WPEBDPEA_WAEBU_Cvtvec@@@Z ; std::_Maklocstr<wchar_t>
  0013e	48 8b 8d 30 01
	00 00		 mov	 rcx, QWORD PTR this$[rbp]
  00145	48 89 41 18	 mov	 QWORD PTR [rcx+24], rax

; 187  :             _Ampm   = _Maklocstr(":AM:am:PM:pm", static_cast<_Elem*>(nullptr), _Cvt);

  00149	48 8b 85 30 01
	00 00		 mov	 rax, QWORD PTR this$[rbp]
  00150	48 83 c0 2c	 add	 rax, 44			; 0000002cH
  00154	4c 8b c0	 mov	 r8, rax
  00157	33 d2		 xor	 edx, edx
  00159	48 8d 0d 00 00
	00 00		 lea	 rcx, OFFSET FLAT:??_C@_0N@LPFKKEBD@?3AM?3am?3PM?3pm@
  00160	e8 00 00 00 00	 call	 ??$_Maklocstr@_W@std@@YAPEA_WPEBDPEA_WAEBU_Cvtvec@@@Z ; std::_Maklocstr<wchar_t>
  00165	48 8b 8d 30 01
	00 00		 mov	 rcx, QWORD PTR this$[rbp]
  0016c	48 89 41 20	 mov	 QWORD PTR [rcx+32], rax
$LN3@Getvals:

; 188  :         }
; 189  :     }

  00170	48 8d a5 10 01
	00 00		 lea	 rsp, QWORD PTR [rbp+272]
  00177	5f		 pop	 rdi
  00178	5e		 pop	 rsi
  00179	5d		 pop	 rbp
  0017a	c3		 ret	 0
??$_Getvals@_W@?$time_get@_WV?$istreambuf_iterator@_WU?$char_traits@_W@std@@@std@@@std@@IEAAX_WAEBV_Locinfo@1@@Z ENDP ; std::time_get<wchar_t,std::istreambuf_iterator<wchar_t,std::char_traits<wchar_t> > >::_Getvals<wchar_t>
_TEXT	ENDS
; Function compile flags: /Odtp /RTCsu /ZI
; File C:\Program Files (x86)\Microsoft Visual Studio\2019\Enterprise\VC\Tools\MSVC\14.27.29110\include\xloctime
;	COMDAT ??$_Getvals@_W@?$time_get@DV?$istreambuf_iterator@DU?$char_traits@D@std@@@std@@@std@@IEAAX_WAEBV_Locinfo@1@@Z
_TEXT	SEGMENT
$T1 = 200
tv93 = 264
tv85 = 264
this$ = 304
__formal$ = 312
_Lobj$ = 320
??$_Getvals@_W@?$time_get@DV?$istreambuf_iterator@DU?$char_traits@D@std@@@std@@@std@@IEAAX_WAEBV_Locinfo@1@@Z PROC ; std::time_get<char,std::istreambuf_iterator<char,std::char_traits<char> > >::_Getvals<wchar_t>, COMDAT

; 176  :     void __CLR_OR_THIS_CALL _Getvals(_Elem2, const _Locinfo& _Lobj) { // get values

$LN5:
  00000	4c 89 44 24 18	 mov	 QWORD PTR [rsp+24], r8
  00005	66 89 54 24 10	 mov	 WORD PTR [rsp+16], dx
  0000a	48 89 4c 24 08	 mov	 QWORD PTR [rsp+8], rcx
  0000f	55		 push	 rbp
  00010	56		 push	 rsi
  00011	57		 push	 rdi
  00012	48 81 ec 30 01
	00 00		 sub	 rsp, 304		; 00000130H
  00019	48 8d 6c 24 20	 lea	 rbp, QWORD PTR [rsp+32]
  0001e	48 8b fc	 mov	 rdi, rsp
  00021	b9 4c 00 00 00	 mov	 ecx, 76			; 0000004cH
  00026	b8 cc cc cc cc	 mov	 eax, -858993460		; ccccccccH
  0002b	f3 ab		 rep stosd
  0002d	48 8b 8c 24 58
	01 00 00	 mov	 rcx, QWORD PTR [rsp+344]
  00035	48 8d 0d 00 00
	00 00		 lea	 rcx, OFFSET FLAT:__FDACCCE4_xloctime
  0003c	e8 00 00 00 00	 call	 __CheckForDebuggerJustMyCode

; 177  :         _Cvt = _Lobj._Getcvt();

  00041	48 8d 95 c8 00
	00 00		 lea	 rdx, QWORD PTR $T1[rbp]
  00048	48 8b 8d 40 01
	00 00		 mov	 rcx, QWORD PTR _Lobj$[rbp]
  0004f	ff 15 00 00 00
	00		 call	 QWORD PTR __imp_?_Getcvt@_Locinfo@std@@QEBA?AU_Cvtvec@@XZ
  00055	48 8b 8d 30 01
	00 00		 mov	 rcx, QWORD PTR this$[rbp]
  0005c	48 8d 79 2c	 lea	 rdi, QWORD PTR [rcx+44]
  00060	48 8b f0	 mov	 rsi, rax
  00063	b9 2c 00 00 00	 mov	 ecx, 44			; 0000002cH
  00068	f3 a4		 rep movsb

; 178  : 
; 179  :         if (is_same_v<_Elem2, wchar_t>) {

  0006a	33 c0		 xor	 eax, eax
  0006c	83 f8 01	 cmp	 eax, 1
  0006f	74 5c		 je	 SHORT $LN2@Getvals

; 180  :             _Days = reinterpret_cast<const _Elem*>(_Maklocwcs(reinterpret_cast<const wchar_t*>(_Lobj._W_Getdays())));

  00071	48 8b 8d 40 01
	00 00		 mov	 rcx, QWORD PTR _Lobj$[rbp]
  00078	ff 15 00 00 00
	00		 call	 QWORD PTR __imp_?_W_Getdays@_Locinfo@std@@QEBAPEBGXZ
  0007e	48 8b c8	 mov	 rcx, rax
  00081	e8 00 00 00 00	 call	 ?_Maklocwcs@std@@YAPEA_WPEB_W@Z ; std::_Maklocwcs
  00086	48 8b 8d 30 01
	00 00		 mov	 rcx, QWORD PTR this$[rbp]
  0008d	48 89 41 10	 mov	 QWORD PTR [rcx+16], rax

; 181  :             _Months =

  00091	48 8b 8d 40 01
	00 00		 mov	 rcx, QWORD PTR _Lobj$[rbp]
  00098	ff 15 00 00 00
	00		 call	 QWORD PTR __imp_?_W_Getmonths@_Locinfo@std@@QEBAPEBGXZ
  0009e	48 8b c8	 mov	 rcx, rax
  000a1	e8 00 00 00 00	 call	 ?_Maklocwcs@std@@YAPEA_WPEB_W@Z ; std::_Maklocwcs
  000a6	48 8b 8d 30 01
	00 00		 mov	 rcx, QWORD PTR this$[rbp]
  000ad	48 89 41 18	 mov	 QWORD PTR [rcx+24], rax

; 182  :                 reinterpret_cast<const _Elem*>(_Maklocwcs(reinterpret_cast<const wchar_t*>(_Lobj._W_Getmonths())));
; 183  :             _Ampm = reinterpret_cast<const _Elem*>(_Maklocwcs(L":AM:am:PM:pm"));

  000b1	48 8d 0d 00 00
	00 00		 lea	 rcx, OFFSET FLAT:??_C@_1BK@MHIKGOKE@?$AA?3?$AAA?$AAM?$AA?3?$AAa?$AAm?$AA?3?$AAP?$AAM?$AA?3?$AAp?$AAm@
  000b8	e8 00 00 00 00	 call	 ?_Maklocwcs@std@@YAPEA_WPEB_W@Z ; std::_Maklocwcs
  000bd	48 8b 8d 30 01
	00 00		 mov	 rcx, QWORD PTR this$[rbp]
  000c4	48 89 41 20	 mov	 QWORD PTR [rcx+32], rax

; 184  :         } else {

  000c8	e9 a3 00 00 00	 jmp	 $LN3@Getvals
$LN2@Getvals:

; 185  :             _Days   = _Maklocstr(_Lobj._Getdays(), static_cast<_Elem*>(nullptr), _Cvt);

  000cd	48 8b 85 30 01
	00 00		 mov	 rax, QWORD PTR this$[rbp]
  000d4	48 83 c0 2c	 add	 rax, 44			; 0000002cH
  000d8	48 89 85 08 01
	00 00		 mov	 QWORD PTR tv85[rbp], rax
  000df	48 8b 8d 40 01
	00 00		 mov	 rcx, QWORD PTR _Lobj$[rbp]
  000e6	ff 15 00 00 00
	00		 call	 QWORD PTR __imp_?_Getdays@_Locinfo@std@@QEBAPEBDXZ
  000ec	48 8b 8d 08 01
	00 00		 mov	 rcx, QWORD PTR tv85[rbp]
  000f3	4c 8b c1	 mov	 r8, rcx
  000f6	33 d2		 xor	 edx, edx
  000f8	48 8b c8	 mov	 rcx, rax
  000fb	e8 00 00 00 00	 call	 ??$_Maklocstr@D@std@@YAPEADPEBDPEADAEBU_Cvtvec@@@Z ; std::_Maklocstr<char>
  00100	48 8b 8d 30 01
	00 00		 mov	 rcx, QWORD PTR this$[rbp]
  00107	48 89 41 10	 mov	 QWORD PTR [rcx+16], rax

; 186  :             _Months = _Maklocstr(_Lobj._Getmonths(), static_cast<_Elem*>(nullptr), _Cvt);

  0010b	48 8b 85 30 01
	00 00		 mov	 rax, QWORD PTR this$[rbp]
  00112	48 83 c0 2c	 add	 rax, 44			; 0000002cH
  00116	48 89 85 08 01
	00 00		 mov	 QWORD PTR tv93[rbp], rax
  0011d	48 8b 8d 40 01
	00 00		 mov	 rcx, QWORD PTR _Lobj$[rbp]
  00124	ff 15 00 00 00
	00		 call	 QWORD PTR __imp_?_Getmonths@_Locinfo@std@@QEBAPEBDXZ
  0012a	48 8b 8d 08 01
	00 00		 mov	 rcx, QWORD PTR tv93[rbp]
  00131	4c 8b c1	 mov	 r8, rcx
  00134	33 d2		 xor	 edx, edx
  00136	48 8b c8	 mov	 rcx, rax
  00139	e8 00 00 00 00	 call	 ??$_Maklocstr@D@std@@YAPEADPEBDPEADAEBU_Cvtvec@@@Z ; std::_Maklocstr<char>
  0013e	48 8b 8d 30 01
	00 00		 mov	 rcx, QWORD PTR this$[rbp]
  00145	48 89 41 18	 mov	 QWORD PTR [rcx+24], rax

; 187  :             _Ampm   = _Maklocstr(":AM:am:PM:pm", static_cast<_Elem*>(nullptr), _Cvt);

  00149	48 8b 85 30 01
	00 00		 mov	 rax, QWORD PTR this$[rbp]
  00150	48 83 c0 2c	 add	 rax, 44			; 0000002cH
  00154	4c 8b c0	 mov	 r8, rax
  00157	33 d2		 xor	 edx, edx
  00159	48 8d 0d 00 00
	00 00		 lea	 rcx, OFFSET FLAT:??_C@_0N@LPFKKEBD@?3AM?3am?3PM?3pm@
  00160	e8 00 00 00 00	 call	 ??$_Maklocstr@D@std@@YAPEADPEBDPEADAEBU_Cvtvec@@@Z ; std::_Maklocstr<char>
  00165	48 8b 8d 30 01
	00 00		 mov	 rcx, QWORD PTR this$[rbp]
  0016c	48 89 41 20	 mov	 QWORD PTR [rcx+32], rax
$LN3@Getvals:

; 188  :         }
; 189  :     }

  00170	48 8d a5 10 01
	00 00		 lea	 rsp, QWORD PTR [rbp+272]
  00177	5f		 pop	 rdi
  00178	5e		 pop	 rsi
  00179	5d		 pop	 rbp
  0017a	c3		 ret	 0
??$_Getvals@_W@?$time_get@DV?$istreambuf_iterator@DU?$char_traits@D@std@@@std@@@std@@IEAAX_WAEBV_Locinfo@1@@Z ENDP ; std::time_get<char,std::istreambuf_iterator<char,std::char_traits<char> > >::_Getvals<wchar_t>
_TEXT	ENDS
; Function compile flags: /Odtp /RTCsu /ZI
; File C:\Program Files (x86)\Microsoft Visual Studio\2019\Enterprise\VC\Tools\MSVC\14.27.29110\include\xlocale
;	COMDAT ??$_Maklocstr@D@std@@YAPEADPEBDPEADAEBU_Cvtvec@@@Z
_TEXT	SEGMENT
_Count$ = 8
_Ptrdest$ = 40
_Ptrnext$1 = 72
_Ptr$ = 320
__formal$ = 328
__formal$ = 336
??$_Maklocstr@D@std@@YAPEADPEBDPEADAEBU_Cvtvec@@@Z PROC	; std::_Maklocstr<char>, COMDAT

; 563  : _Elem* __CRTDECL _Maklocstr(const char* _Ptr, _Elem*, const _Locinfo::_Cvtvec&) {

$LN7:
  00000	4c 89 44 24 18	 mov	 QWORD PTR [rsp+24], r8
  00005	48 89 54 24 10	 mov	 QWORD PTR [rsp+16], rdx
  0000a	48 89 4c 24 08	 mov	 QWORD PTR [rsp+8], rcx
  0000f	55		 push	 rbp
  00010	57		 push	 rdi
  00011	48 81 ec 58 01
	00 00		 sub	 rsp, 344		; 00000158H
  00018	48 8d 6c 24 30	 lea	 rbp, QWORD PTR [rsp+48]
  0001d	48 8b fc	 mov	 rdi, rsp
  00020	b9 56 00 00 00	 mov	 ecx, 86			; 00000056H
  00025	b8 cc cc cc cc	 mov	 eax, -858993460		; ccccccccH
  0002a	f3 ab		 rep stosd
  0002c	48 8b 8c 24 78
	01 00 00	 mov	 rcx, QWORD PTR [rsp+376]
  00034	48 8d 0d 00 00
	00 00		 lea	 rcx, OFFSET FLAT:__A7748393_xlocale
  0003b	e8 00 00 00 00	 call	 __CheckForDebuggerJustMyCode

; 564  :     // convert C string to _Elem sequence using _Cvtvec
; 565  :     size_t _Count = _CSTD strlen(_Ptr) + 1;

  00040	48 8b 8d 40 01
	00 00		 mov	 rcx, QWORD PTR _Ptr$[rbp]
  00047	e8 00 00 00 00	 call	 strlen
  0004c	48 ff c0	 inc	 rax
  0004f	48 89 45 08	 mov	 QWORD PTR _Count$[rbp], rax

; 566  : 
; 567  :     _Elem* _Ptrdest = static_cast<_Elem*>(_calloc_dbg(_Count, sizeof(_Elem), _CRT_BLOCK, __FILE__, __LINE__));

  00053	c7 44 24 20 37
	02 00 00	 mov	 DWORD PTR [rsp+32], 567	; 00000237H
  0005b	4c 8d 0d 00 00
	00 00		 lea	 r9, OFFSET FLAT:??_C@_0GJ@OPFKIEFE@C?3?2Program?5Files?5?$CIx86?$CJ?2Microsof@
  00062	41 b8 02 00 00
	00		 mov	 r8d, 2
  00068	ba 01 00 00 00	 mov	 edx, 1
  0006d	48 8b 4d 08	 mov	 rcx, QWORD PTR _Count$[rbp]
  00071	ff 15 00 00 00
	00		 call	 QWORD PTR __imp__calloc_dbg
  00077	48 89 45 28	 mov	 QWORD PTR _Ptrdest$[rbp], rax

; 568  : 
; 569  :     if (!_Ptrdest) {

  0007b	48 83 7d 28 00	 cmp	 QWORD PTR _Ptrdest$[rbp], 0
  00080	75 05		 jne	 SHORT $LN5@Maklocstr

; 570  :         _Xbad_alloc();

  00082	e8 00 00 00 00	 call	 ?_Xbad_alloc@std@@YAXXZ	; std::_Xbad_alloc
$LN5@Maklocstr:

; 571  :     }
; 572  : 
; 573  :     for (_Elem* _Ptrnext = _Ptrdest; 0 < _Count; --_Count, ++_Ptrnext, ++_Ptr) {

  00087	48 8b 45 28	 mov	 rax, QWORD PTR _Ptrdest$[rbp]
  0008b	48 89 45 48	 mov	 QWORD PTR _Ptrnext$1[rbp], rax
  0008f	eb 27		 jmp	 SHORT $LN4@Maklocstr
$LN2@Maklocstr:
  00091	48 8b 45 08	 mov	 rax, QWORD PTR _Count$[rbp]
  00095	48 ff c8	 dec	 rax
  00098	48 89 45 08	 mov	 QWORD PTR _Count$[rbp], rax
  0009c	48 8b 45 48	 mov	 rax, QWORD PTR _Ptrnext$1[rbp]
  000a0	48 ff c0	 inc	 rax
  000a3	48 89 45 48	 mov	 QWORD PTR _Ptrnext$1[rbp], rax
  000a7	48 8b 85 40 01
	00 00		 mov	 rax, QWORD PTR _Ptr$[rbp]
  000ae	48 ff c0	 inc	 rax
  000b1	48 89 85 40 01
	00 00		 mov	 QWORD PTR _Ptr$[rbp], rax
$LN4@Maklocstr:
  000b8	48 83 7d 08 00	 cmp	 QWORD PTR _Count$[rbp], 0
  000bd	76 12		 jbe	 SHORT $LN3@Maklocstr

; 574  :         *_Ptrnext = static_cast<_Elem>(static_cast<unsigned char>(*_Ptr));

  000bf	48 8b 45 48	 mov	 rax, QWORD PTR _Ptrnext$1[rbp]
  000c3	48 8b 8d 40 01
	00 00		 mov	 rcx, QWORD PTR _Ptr$[rbp]
  000ca	0f b6 09	 movzx	 ecx, BYTE PTR [rcx]
  000cd	88 08		 mov	 BYTE PTR [rax], cl

; 575  :     }

  000cf	eb c0		 jmp	 SHORT $LN2@Maklocstr
$LN3@Maklocstr:

; 576  : 
; 577  :     return _Ptrdest;

  000d1	48 8b 45 28	 mov	 rax, QWORD PTR _Ptrdest$[rbp]
$LN6@Maklocstr:

; 578  : }

  000d5	48 8d a5 28 01
	00 00		 lea	 rsp, QWORD PTR [rbp+296]
  000dc	5f		 pop	 rdi
  000dd	5d		 pop	 rbp
  000de	c3		 ret	 0
??$_Maklocstr@D@std@@YAPEADPEBDPEADAEBU_Cvtvec@@@Z ENDP	; std::_Maklocstr<char>
_TEXT	ENDS
; Function compile flags: /Odtp /RTCsu /ZI
; File C:\Program Files (x86)\Microsoft Visual Studio\2019\Enterprise\VC\Tools\MSVC\14.27.29110\include\xlocnum
;	COMDAT ?_Maklocwcs@std@@YAPEA_WPEB_W@Z
_TEXT	SEGMENT
_Count$ = 8
_Ptrdest$ = 40
_Ptr$ = 288
?_Maklocwcs@std@@YAPEA_WPEB_W@Z PROC			; std::_Maklocwcs, COMDAT

; 90   : inline wchar_t* _Maklocwcs(const wchar_t* _Ptr) { // copy NTWCS to allocated storage

$LN4:
  00000	48 89 4c 24 08	 mov	 QWORD PTR [rsp+8], rcx
  00005	55		 push	 rbp
  00006	57		 push	 rdi
  00007	48 81 ec 38 01
	00 00		 sub	 rsp, 312		; 00000138H
  0000e	48 8d 6c 24 30	 lea	 rbp, QWORD PTR [rsp+48]
  00013	48 8b fc	 mov	 rdi, rsp
  00016	b9 4e 00 00 00	 mov	 ecx, 78			; 0000004eH
  0001b	b8 cc cc cc cc	 mov	 eax, -858993460		; ccccccccH
  00020	f3 ab		 rep stosd
  00022	48 8b 8c 24 58
	01 00 00	 mov	 rcx, QWORD PTR [rsp+344]
  0002a	48 8d 0d 00 00
	00 00		 lea	 rcx, OFFSET FLAT:__39F3E584_xlocnum
  00031	e8 00 00 00 00	 call	 __CheckForDebuggerJustMyCode

; 91   :     const size_t _Count = _CSTD wcslen(_Ptr) + 1;

  00036	48 8b 8d 20 01
	00 00		 mov	 rcx, QWORD PTR _Ptr$[rbp]
  0003d	ff 15 00 00 00
	00		 call	 QWORD PTR __imp_wcslen
  00043	48 ff c0	 inc	 rax
  00046	48 89 45 08	 mov	 QWORD PTR _Count$[rbp], rax

; 92   : 
; 93   :     wchar_t* _Ptrdest = static_cast<wchar_t*>(_calloc_dbg(_Count, sizeof(wchar_t), _CRT_BLOCK, __FILE__, __LINE__));

  0004a	8b 05 00 00 00
	00		 mov	 eax, DWORD PTR ?__LINE__Var@?0??_Maklocwcs@std@@YAPEA_WPEB_W@Z@4JA
  00050	83 c0 03	 add	 eax, 3
  00053	89 44 24 20	 mov	 DWORD PTR [rsp+32], eax
  00057	4c 8d 0d 00 00
	00 00		 lea	 r9, OFFSET FLAT:??_C@_0GJ@GMBHIGPF@C?3?2Program?5Files?5?$CIx86?$CJ?2Microsof@
  0005e	41 b8 02 00 00
	00		 mov	 r8d, 2
  00064	ba 02 00 00 00	 mov	 edx, 2
  00069	48 8b 4d 08	 mov	 rcx, QWORD PTR _Count$[rbp]
  0006d	ff 15 00 00 00
	00		 call	 QWORD PTR __imp__calloc_dbg
  00073	48 89 45 28	 mov	 QWORD PTR _Ptrdest$[rbp], rax

; 94   : 
; 95   :     if (!_Ptrdest) {

  00077	48 83 7d 28 00	 cmp	 QWORD PTR _Ptrdest$[rbp], 0
  0007c	75 05		 jne	 SHORT $LN2@Maklocwcs

; 96   :         _Xbad_alloc();

  0007e	e8 00 00 00 00	 call	 ?_Xbad_alloc@std@@YAXXZ	; std::_Xbad_alloc
$LN2@Maklocwcs:

; 97   :     }
; 98   : 
; 99   :     _CSTD wmemcpy(_Ptrdest, _Ptr, _Count);

  00083	4c 8b 45 08	 mov	 r8, QWORD PTR _Count$[rbp]
  00087	48 8b 95 20 01
	00 00		 mov	 rdx, QWORD PTR _Ptr$[rbp]
  0008e	48 8b 4d 28	 mov	 rcx, QWORD PTR _Ptrdest$[rbp]
  00092	e8 00 00 00 00	 call	 wmemcpy

; 100  :     return _Ptrdest;

  00097	48 8b 45 28	 mov	 rax, QWORD PTR _Ptrdest$[rbp]
$LN3@Maklocwcs:

; 101  : }

  0009b	48 8d a5 08 01
	00 00		 lea	 rsp, QWORD PTR [rbp+264]
  000a2	5f		 pop	 rdi
  000a3	5d		 pop	 rbp
  000a4	c3		 ret	 0
?_Maklocwcs@std@@YAPEA_WPEB_W@Z ENDP			; std::_Maklocwcs
_TEXT	ENDS
; Function compile flags: /Odtp /RTCsu /ZI
; File C:\Program Files (x86)\Microsoft Visual Studio\2019\Enterprise\VC\Tools\MSVC\14.27.29110\include\xlocale
;	COMDAT ??$_Maklocstr@_W@std@@YAPEA_WPEBDPEA_WAEBU_Cvtvec@@@Z
_TEXT	SEGMENT
_Count$ = 8
_Count1$ = 40
_Wchars$ = 72
_Ptr1$ = 104
_Bytes$ = 132
_Wc$ = 164
_Mbst1$ = 200
_Ptrdest$ = 232
_Ptrnext$ = 264
_Mbst2$ = 296
__$ArrayPad$ = 504
_Ptr$ = 544
__formal$ = 552
_Cvt$ = 560
??$_Maklocstr@_W@std@@YAPEA_WPEBDPEA_WAEBU_Cvtvec@@@Z PROC ; std::_Maklocstr<wchar_t>, COMDAT

; 581  : inline wchar_t* __CRTDECL _Maklocstr(const char* _Ptr, wchar_t*, const _Locinfo::_Cvtvec& _Cvt) {

$LN12:
  00000	4c 89 44 24 18	 mov	 QWORD PTR [rsp+24], r8
  00005	48 89 54 24 10	 mov	 QWORD PTR [rsp+16], rdx
  0000a	48 89 4c 24 08	 mov	 QWORD PTR [rsp+8], rcx
  0000f	55		 push	 rbp
  00010	57		 push	 rdi
  00011	48 81 ec 38 02
	00 00		 sub	 rsp, 568		; 00000238H
  00018	48 8d 6c 24 30	 lea	 rbp, QWORD PTR [rsp+48]
  0001d	48 8b fc	 mov	 rdi, rsp
  00020	b9 8e 00 00 00	 mov	 ecx, 142		; 0000008eH
  00025	b8 cc cc cc cc	 mov	 eax, -858993460		; ccccccccH
  0002a	f3 ab		 rep stosd
  0002c	48 8b 8c 24 58
	02 00 00	 mov	 rcx, QWORD PTR [rsp+600]
  00034	48 8b 05 00 00
	00 00		 mov	 rax, QWORD PTR __security_cookie
  0003b	48 33 c5	 xor	 rax, rbp
  0003e	48 89 85 f8 01
	00 00		 mov	 QWORD PTR __$ArrayPad$[rbp], rax
  00045	48 8d 0d 00 00
	00 00		 lea	 rcx, OFFSET FLAT:__A7748393_xlocale
  0004c	e8 00 00 00 00	 call	 __CheckForDebuggerJustMyCode

; 582  :     // convert C string to wchar_t sequence using _Cvtvec
; 583  :     size_t _Count;
; 584  :     size_t _Count1;
; 585  :     size_t _Wchars;
; 586  :     const char* _Ptr1;
; 587  :     int _Bytes;
; 588  :     wchar_t _Wc;
; 589  :     mbstate_t _Mbst1 = {};

  00051	48 8d 85 c8 00
	00 00		 lea	 rax, QWORD PTR _Mbst1$[rbp]
  00058	48 8b f8	 mov	 rdi, rax
  0005b	33 c0		 xor	 eax, eax
  0005d	b9 08 00 00 00	 mov	 ecx, 8
  00062	f3 aa		 rep stosb

; 590  : 
; 591  :     _Count1 = _CSTD strlen(_Ptr) + 1;

  00064	48 8b 8d 20 02
	00 00		 mov	 rcx, QWORD PTR _Ptr$[rbp]
  0006b	e8 00 00 00 00	 call	 strlen
  00070	48 ff c0	 inc	 rax
  00073	48 89 45 28	 mov	 QWORD PTR _Count1$[rbp], rax

; 592  :     for (_Count = _Count1, _Wchars = 0, _Ptr1 = _Ptr; 0 < _Count; _Count -= _Bytes, _Ptr1 += _Bytes, ++_Wchars) {

  00077	48 8b 45 28	 mov	 rax, QWORD PTR _Count1$[rbp]
  0007b	48 89 45 08	 mov	 QWORD PTR _Count$[rbp], rax
  0007f	48 c7 45 48 00
	00 00 00	 mov	 QWORD PTR _Wchars$[rbp], 0
  00087	48 8b 85 20 02
	00 00		 mov	 rax, QWORD PTR _Ptr$[rbp]
  0008e	48 89 45 68	 mov	 QWORD PTR _Ptr1$[rbp], rax
  00092	eb 35		 jmp	 SHORT $LN4@Maklocstr
$LN2@Maklocstr:
  00094	48 63 85 84 00
	00 00		 movsxd	 rax, DWORD PTR _Bytes$[rbp]
  0009b	48 8b 4d 08	 mov	 rcx, QWORD PTR _Count$[rbp]
  0009f	48 2b c8	 sub	 rcx, rax
  000a2	48 8b c1	 mov	 rax, rcx
  000a5	48 89 45 08	 mov	 QWORD PTR _Count$[rbp], rax
  000a9	48 63 85 84 00
	00 00		 movsxd	 rax, DWORD PTR _Bytes$[rbp]
  000b0	48 8b 4d 68	 mov	 rcx, QWORD PTR _Ptr1$[rbp]
  000b4	48 03 c8	 add	 rcx, rax
  000b7	48 8b c1	 mov	 rax, rcx
  000ba	48 89 45 68	 mov	 QWORD PTR _Ptr1$[rbp], rax
  000be	48 8b 45 48	 mov	 rax, QWORD PTR _Wchars$[rbp]
  000c2	48 ff c0	 inc	 rax
  000c5	48 89 45 48	 mov	 QWORD PTR _Wchars$[rbp], rax
$LN4@Maklocstr:
  000c9	48 83 7d 08 00	 cmp	 QWORD PTR _Count$[rbp], 0
  000ce	76 3a		 jbe	 SHORT $LN3@Maklocstr

; 593  :         if ((_Bytes = _Mbrtowc(&_Wc, _Ptr1, _Count, &_Mbst1, &_Cvt)) <= 0) {

  000d0	48 8b 85 30 02
	00 00		 mov	 rax, QWORD PTR _Cvt$[rbp]
  000d7	48 89 44 24 20	 mov	 QWORD PTR [rsp+32], rax
  000dc	4c 8d 8d c8 00
	00 00		 lea	 r9, QWORD PTR _Mbst1$[rbp]
  000e3	4c 8b 45 08	 mov	 r8, QWORD PTR _Count$[rbp]
  000e7	48 8b 55 68	 mov	 rdx, QWORD PTR _Ptr1$[rbp]
  000eb	48 8d 8d a4 00
	00 00		 lea	 rcx, QWORD PTR _Wc$[rbp]
  000f2	e8 00 00 00 00	 call	 _Mbrtowc
  000f7	89 85 84 00 00
	00		 mov	 DWORD PTR _Bytes$[rbp], eax
  000fd	83 bd 84 00 00
	00 00		 cmp	 DWORD PTR _Bytes$[rbp], 0
  00104	7f 02		 jg	 SHORT $LN8@Maklocstr

; 594  :             break;

  00106	eb 02		 jmp	 SHORT $LN3@Maklocstr
$LN8@Maklocstr:

; 595  :         }
; 596  :     }

  00108	eb 8a		 jmp	 SHORT $LN2@Maklocstr
$LN3@Maklocstr:

; 597  : 
; 598  :     ++_Wchars; // count terminating nul

  0010a	48 8b 45 48	 mov	 rax, QWORD PTR _Wchars$[rbp]
  0010e	48 ff c0	 inc	 rax
  00111	48 89 45 48	 mov	 QWORD PTR _Wchars$[rbp], rax

; 599  : 
; 600  :     wchar_t* _Ptrdest = static_cast<wchar_t*>(_calloc_dbg(_Wchars, sizeof(wchar_t), _CRT_BLOCK, __FILE__, __LINE__));

  00115	c7 44 24 20 58
	02 00 00	 mov	 DWORD PTR [rsp+32], 600	; 00000258H
  0011d	4c 8d 0d 00 00
	00 00		 lea	 r9, OFFSET FLAT:??_C@_0GJ@OPFKIEFE@C?3?2Program?5Files?5?$CIx86?$CJ?2Microsof@
  00124	41 b8 02 00 00
	00		 mov	 r8d, 2
  0012a	ba 02 00 00 00	 mov	 edx, 2
  0012f	48 8b 4d 48	 mov	 rcx, QWORD PTR _Wchars$[rbp]
  00133	ff 15 00 00 00
	00		 call	 QWORD PTR __imp__calloc_dbg
  00139	48 89 85 e8 00
	00 00		 mov	 QWORD PTR _Ptrdest$[rbp], rax

; 601  : 
; 602  :     if (!_Ptrdest) {

  00140	48 83 bd e8 00
	00 00 00	 cmp	 QWORD PTR _Ptrdest$[rbp], 0
  00148	75 05		 jne	 SHORT $LN9@Maklocstr

; 603  :         _Xbad_alloc();

  0014a	e8 00 00 00 00	 call	 ?_Xbad_alloc@std@@YAXXZ	; std::_Xbad_alloc
$LN9@Maklocstr:

; 604  :     }
; 605  : 
; 606  :     wchar_t* _Ptrnext = _Ptrdest;

  0014f	48 8b 85 e8 00
	00 00		 mov	 rax, QWORD PTR _Ptrdest$[rbp]
  00156	48 89 85 08 01
	00 00		 mov	 QWORD PTR _Ptrnext$[rbp], rax

; 607  :     mbstate_t _Mbst2  = {};

  0015d	48 8d 85 28 01
	00 00		 lea	 rax, QWORD PTR _Mbst2$[rbp]
  00164	48 8b f8	 mov	 rdi, rax
  00167	33 c0		 xor	 eax, eax
  00169	b9 08 00 00 00	 mov	 ecx, 8
  0016e	f3 aa		 rep stosb

; 608  : 
; 609  :     for (; 0 < _Wchars; _Count -= _Bytes, _Ptr += _Bytes, --_Wchars, ++_Ptrnext) {

  00170	eb 4d		 jmp	 SHORT $LN7@Maklocstr
$LN5@Maklocstr:
  00172	48 63 85 84 00
	00 00		 movsxd	 rax, DWORD PTR _Bytes$[rbp]
  00179	48 8b 4d 08	 mov	 rcx, QWORD PTR _Count$[rbp]
  0017d	48 2b c8	 sub	 rcx, rax
  00180	48 8b c1	 mov	 rax, rcx
  00183	48 89 45 08	 mov	 QWORD PTR _Count$[rbp], rax
  00187	48 63 85 84 00
	00 00		 movsxd	 rax, DWORD PTR _Bytes$[rbp]
  0018e	48 8b 8d 20 02
	00 00		 mov	 rcx, QWORD PTR _Ptr$[rbp]
  00195	48 03 c8	 add	 rcx, rax
  00198	48 8b c1	 mov	 rax, rcx
  0019b	48 89 85 20 02
	00 00		 mov	 QWORD PTR _Ptr$[rbp], rax
  001a2	48 8b 45 48	 mov	 rax, QWORD PTR _Wchars$[rbp]
  001a6	48 ff c8	 dec	 rax
  001a9	48 89 45 48	 mov	 QWORD PTR _Wchars$[rbp], rax
  001ad	48 8b 85 08 01
	00 00		 mov	 rax, QWORD PTR _Ptrnext$[rbp]
  001b4	48 83 c0 02	 add	 rax, 2
  001b8	48 89 85 08 01
	00 00		 mov	 QWORD PTR _Ptrnext$[rbp], rax
$LN7@Maklocstr:
  001bf	48 83 7d 48 00	 cmp	 QWORD PTR _Wchars$[rbp], 0
  001c4	76 40		 jbe	 SHORT $LN6@Maklocstr

; 610  :         if ((_Bytes = _Mbrtowc(_Ptrnext, _Ptr, _Count1, &_Mbst2, &_Cvt)) <= 0) {

  001c6	48 8b 85 30 02
	00 00		 mov	 rax, QWORD PTR _Cvt$[rbp]
  001cd	48 89 44 24 20	 mov	 QWORD PTR [rsp+32], rax
  001d2	4c 8d 8d 28 01
	00 00		 lea	 r9, QWORD PTR _Mbst2$[rbp]
  001d9	4c 8b 45 28	 mov	 r8, QWORD PTR _Count1$[rbp]
  001dd	48 8b 95 20 02
	00 00		 mov	 rdx, QWORD PTR _Ptr$[rbp]
  001e4	48 8b 8d 08 01
	00 00		 mov	 rcx, QWORD PTR _Ptrnext$[rbp]
  001eb	e8 00 00 00 00	 call	 _Mbrtowc
  001f0	89 85 84 00 00
	00		 mov	 DWORD PTR _Bytes$[rbp], eax
  001f6	83 bd 84 00 00
	00 00		 cmp	 DWORD PTR _Bytes$[rbp], 0
  001fd	7f 02		 jg	 SHORT $LN10@Maklocstr

; 611  :             break;

  001ff	eb 05		 jmp	 SHORT $LN6@Maklocstr
$LN10@Maklocstr:

; 612  :         }
; 613  :     }

  00201	e9 6c ff ff ff	 jmp	 $LN5@Maklocstr
$LN6@Maklocstr:

; 614  : 
; 615  :     *_Ptrnext = L'\0';

  00206	33 c0		 xor	 eax, eax
  00208	48 8b 8d 08 01
	00 00		 mov	 rcx, QWORD PTR _Ptrnext$[rbp]
  0020f	66 89 01	 mov	 WORD PTR [rcx], ax

; 616  : 
; 617  :     return _Ptrdest;

  00212	48 8b 85 e8 00
	00 00		 mov	 rax, QWORD PTR _Ptrdest$[rbp]
$LN11@Maklocstr:

; 618  : }

  00219	48 8b f8	 mov	 rdi, rax
  0021c	48 8d 4d d0	 lea	 rcx, QWORD PTR [rbp-48]
  00220	48 8d 15 00 00
	00 00		 lea	 rdx, OFFSET FLAT:??$_Maklocstr@_W@std@@YAPEA_WPEBDPEA_WAEBU_Cvtvec@@@Z$rtcFrameData
  00227	e8 00 00 00 00	 call	 _RTC_CheckStackVars
  0022c	48 8b c7	 mov	 rax, rdi
  0022f	48 8b 8d f8 01
	00 00		 mov	 rcx, QWORD PTR __$ArrayPad$[rbp]
  00236	48 33 cd	 xor	 rcx, rbp
  00239	e8 00 00 00 00	 call	 __security_check_cookie
  0023e	48 8d a5 08 02
	00 00		 lea	 rsp, QWORD PTR [rbp+520]
  00245	5f		 pop	 rdi
  00246	5d		 pop	 rbp
  00247	c3		 ret	 0
??$_Maklocstr@_W@std@@YAPEA_WPEBDPEA_WAEBU_Cvtvec@@@Z ENDP ; std::_Maklocstr<wchar_t>
_TEXT	ENDS
; Function compile flags: /Odtp /RTCsu /ZI
; File C:\Program Files (x86)\Microsoft Visual Studio\2019\Enterprise\VC\Tools\MSVC\14.27.29110\include\xmemory
;	COMDAT ??$_Construct_in_place@U_Container_proxy@std@@PEAU_Container_base12@2@@std@@YAXAEAU_Container_proxy@0@$$QEAPEAU_Container_base12@0@@Z
_TEXT	SEGMENT
$T1 = 200
_Obj$ = 256
<_Args_0>$ = 264
??$_Construct_in_place@U_Container_proxy@std@@PEAU_Container_base12@2@@std@@YAXAEAU_Container_proxy@0@$$QEAPEAU_Container_base12@0@@Z PROC ; std::_Construct_in_place<std::_Container_proxy,std::_Container_base12 *>, COMDAT

; 228  : void _Construct_in_place(_Ty& _Obj, _Types&&... _Args) noexcept(is_nothrow_constructible_v<_Ty, _Types...>) {

$LN3:
  00000	48 89 54 24 10	 mov	 QWORD PTR [rsp+16], rdx
  00005	48 89 4c 24 08	 mov	 QWORD PTR [rsp+8], rcx
  0000a	55		 push	 rbp
  0000b	57		 push	 rdi
  0000c	48 81 ec 08 01
	00 00		 sub	 rsp, 264		; 00000108H
  00013	48 8d 6c 24 20	 lea	 rbp, QWORD PTR [rsp+32]
  00018	48 8b fc	 mov	 rdi, rsp
  0001b	b9 42 00 00 00	 mov	 ecx, 66			; 00000042H
  00020	b8 cc cc cc cc	 mov	 eax, -858993460		; ccccccccH
  00025	f3 ab		 rep stosd
  00027	48 8b 8c 24 28
	01 00 00	 mov	 rcx, QWORD PTR [rsp+296]
  0002f	48 8d 0d 00 00
	00 00		 lea	 rcx, OFFSET FLAT:__0C99713E_xmemory
  00036	e8 00 00 00 00	 call	 __CheckForDebuggerJustMyCode
  0003b	48 8b 8d 00 01
	00 00		 mov	 rcx, QWORD PTR _Obj$[rbp]
  00042	e8 00 00 00 00	 call	 ??$addressof@U_Container_proxy@std@@@std@@YAPEAU_Container_proxy@0@AEAU10@@Z ; std::addressof<std::_Container_proxy>
  00047	48 8b d0	 mov	 rdx, rax
  0004a	b9 10 00 00 00	 mov	 ecx, 16
  0004f	e8 00 00 00 00	 call	 ??2@YAPEAX_KPEAX@Z	; operator new
  00054	48 89 85 c8 00
	00 00		 mov	 QWORD PTR $T1[rbp], rax
  0005b	48 8b 8d 08 01
	00 00		 mov	 rcx, QWORD PTR <_Args_0>$[rbp]
  00062	e8 00 00 00 00	 call	 ??$forward@PEAU_Container_base12@std@@@std@@YA$$QEAPEAU_Container_base12@0@AEAPEAU10@@Z ; std::forward<std::_Container_base12 *>
  00067	48 8b 10	 mov	 rdx, QWORD PTR [rax]
  0006a	48 8b 8d c8 00
	00 00		 mov	 rcx, QWORD PTR $T1[rbp]
  00071	e8 00 00 00 00	 call	 ??0_Container_proxy@std@@QEAA@PEAU_Container_base12@1@@Z ; std::_Container_proxy::_Container_proxy
  00076	90		 npad	 1

; 229  :     ::new (const_cast<void*>(static_cast<const volatile void*>(_STD addressof(_Obj))))
; 230  :         _Ty(_STD forward<_Types>(_Args)...);
; 231  : }

  00077	48 8d a5 e8 00
	00 00		 lea	 rsp, QWORD PTR [rbp+232]
  0007e	5f		 pop	 rdi
  0007f	5d		 pop	 rbp
  00080	c3		 ret	 0
??$_Construct_in_place@U_Container_proxy@std@@PEAU_Container_base12@2@@std@@YAXAEAU_Container_proxy@0@$$QEAPEAU_Container_base12@0@@Z ENDP ; std::_Construct_in_place<std::_Container_proxy,std::_Container_base12 *>
_TEXT	ENDS
; Function compile flags: /Odtp /RTCsu /ZI
; File C:\Program Files (x86)\Microsoft Visual Studio\2019\Enterprise\VC\Tools\MSVC\14.27.29110\include\xstddef
;	COMDAT ??$addressof@U_Container_base12@std@@@std@@YAPEAU_Container_base12@0@AEAU10@@Z
_TEXT	SEGMENT
_Val$ = 224
??$addressof@U_Container_base12@std@@@std@@YAPEAU_Container_base12@0@AEAU10@@Z PROC ; std::addressof<std::_Container_base12>, COMDAT

; 274  : _NODISCARD constexpr _Ty* addressof(_Ty& _Val) noexcept {

$LN3:
  00000	48 89 4c 24 08	 mov	 QWORD PTR [rsp+8], rcx
  00005	55		 push	 rbp
  00006	57		 push	 rdi
  00007	48 81 ec e8 00
	00 00		 sub	 rsp, 232		; 000000e8H
  0000e	48 8d 6c 24 20	 lea	 rbp, QWORD PTR [rsp+32]
  00013	48 8b fc	 mov	 rdi, rsp
  00016	b9 3a 00 00 00	 mov	 ecx, 58			; 0000003aH
  0001b	b8 cc cc cc cc	 mov	 eax, -858993460		; ccccccccH
  00020	f3 ab		 rep stosd
  00022	48 8b 8c 24 08
	01 00 00	 mov	 rcx, QWORD PTR [rsp+264]
  0002a	48 8d 0d 00 00
	00 00		 lea	 rcx, OFFSET FLAT:__911385EF_xstddef
  00031	e8 00 00 00 00	 call	 __CheckForDebuggerJustMyCode

; 275  :     return __builtin_addressof(_Val);

  00036	48 8b 85 e0 00
	00 00		 mov	 rax, QWORD PTR _Val$[rbp]

; 276  : }

  0003d	48 8d a5 c8 00
	00 00		 lea	 rsp, QWORD PTR [rbp+200]
  00044	5f		 pop	 rdi
  00045	5d		 pop	 rbp
  00046	c3		 ret	 0
??$addressof@U_Container_base12@std@@@std@@YAPEAU_Container_base12@0@AEAU10@@Z ENDP ; std::addressof<std::_Container_base12>
_TEXT	ENDS
; Function compile flags: /Odtp /RTCsu /ZI
; File C:\Program Files (x86)\Microsoft Visual Studio\2019\Enterprise\VC\Tools\MSVC\14.27.29110\include\xmemory
;	COMDAT ?_Release@_Basic_container_proxy_ptr12@std@@QEAAXXZ
_TEXT	SEGMENT
this$ = 224
?_Release@_Basic_container_proxy_ptr12@std@@QEAAXXZ PROC ; std::_Basic_container_proxy_ptr12::_Release, COMDAT

; 1266 :     void _Release() noexcept { // disengage this _Basic_container_proxy_ptr12

$LN3:
  00000	48 89 4c 24 08	 mov	 QWORD PTR [rsp+8], rcx
  00005	55		 push	 rbp
  00006	57		 push	 rdi
  00007	48 81 ec e8 00
	00 00		 sub	 rsp, 232		; 000000e8H
  0000e	48 8d 6c 24 20	 lea	 rbp, QWORD PTR [rsp+32]
  00013	48 8b fc	 mov	 rdi, rsp
  00016	b9 3a 00 00 00	 mov	 ecx, 58			; 0000003aH
  0001b	b8 cc cc cc cc	 mov	 eax, -858993460		; ccccccccH
  00020	f3 ab		 rep stosd
  00022	48 8b 8c 24 08
	01 00 00	 mov	 rcx, QWORD PTR [rsp+264]
  0002a	48 8d 0d 00 00
	00 00		 lea	 rcx, OFFSET FLAT:__0C99713E_xmemory
  00031	e8 00 00 00 00	 call	 __CheckForDebuggerJustMyCode

; 1267 :         _Ptr = nullptr;

  00036	48 8b 85 e0 00
	00 00		 mov	 rax, QWORD PTR this$[rbp]
  0003d	48 c7 00 00 00
	00 00		 mov	 QWORD PTR [rax], 0

; 1268 :     }

  00044	48 8d a5 c8 00
	00 00		 lea	 rsp, QWORD PTR [rbp+200]
  0004b	5f		 pop	 rdi
  0004c	5d		 pop	 rbp
  0004d	c3		 ret	 0
?_Release@_Basic_container_proxy_ptr12@std@@QEAAXXZ ENDP ; std::_Basic_container_proxy_ptr12::_Release
_TEXT	ENDS
; Function compile flags: /Odtp /RTCsu /ZI
; File C:\Program Files (x86)\Microsoft Visual Studio\2019\Enterprise\VC\Tools\MSVC\14.27.29110\include\xmemory
;	COMDAT ?_Orphan_all@_Container_base12@std@@QEAAXXZ
_TEXT	SEGMENT
_Lock$4 = 4
_Pnext$5 = 40
__$ArrayPad$ = 248
this$ = 288
?_Orphan_all@_Container_base12@std@@QEAAXXZ PROC	; std::_Container_base12::_Orphan_all, COMDAT

; 1205 : inline void _Container_base12::_Orphan_all() noexcept {

$LN7:
  00000	48 89 4c 24 08	 mov	 QWORD PTR [rsp+8], rcx
  00005	55		 push	 rbp
  00006	57		 push	 rdi
  00007	48 81 ec 28 01
	00 00		 sub	 rsp, 296		; 00000128H
  0000e	48 8d 6c 24 20	 lea	 rbp, QWORD PTR [rsp+32]
  00013	48 8b fc	 mov	 rdi, rsp
  00016	b9 4a 00 00 00	 mov	 ecx, 74			; 0000004aH
  0001b	b8 cc cc cc cc	 mov	 eax, -858993460		; ccccccccH
  00020	f3 ab		 rep stosd
  00022	48 8b 8c 24 48
	01 00 00	 mov	 rcx, QWORD PTR [rsp+328]
  0002a	48 8b 05 00 00
	00 00		 mov	 rax, QWORD PTR __security_cookie
  00031	48 33 c5	 xor	 rax, rbp
  00034	48 89 85 f8 00
	00 00		 mov	 QWORD PTR __$ArrayPad$[rbp], rax
  0003b	48 8d 0d 00 00
	00 00		 lea	 rcx, OFFSET FLAT:__0C99713E_xmemory
  00042	e8 00 00 00 00	 call	 __CheckForDebuggerJustMyCode

; 1206 : #if _ITERATOR_DEBUG_LEVEL == 2
; 1207 :     if (_Myproxy) { // proxy allocated, drain it

  00047	48 8b 85 20 01
	00 00		 mov	 rax, QWORD PTR this$[rbp]
  0004e	48 83 38 00	 cmp	 QWORD PTR [rax], 0
  00052	74 6b		 je	 SHORT $LN5@Orphan_all

; 1208 :         _Lockit _Lock(_LOCK_DEBUG);

  00054	ba 03 00 00 00	 mov	 edx, 3
  00059	48 8d 4d 04	 lea	 rcx, QWORD PTR _Lock$4[rbp]
  0005d	ff 15 00 00 00
	00		 call	 QWORD PTR __imp_??0_Lockit@std@@QEAA@H@Z

; 1209 : 
; 1210 :         for (auto _Pnext = &_Myproxy->_Myfirstiter; *_Pnext; *_Pnext = (*_Pnext)->_Mynextiter) {

  00063	48 8b 85 20 01
	00 00		 mov	 rax, QWORD PTR this$[rbp]
  0006a	48 8b 00	 mov	 rax, QWORD PTR [rax]
  0006d	48 83 c0 08	 add	 rax, 8
  00071	48 89 45 28	 mov	 QWORD PTR _Pnext$5[rbp], rax
  00075	eb 12		 jmp	 SHORT $LN4@Orphan_all
$LN2@Orphan_all:
  00077	48 8b 45 28	 mov	 rax, QWORD PTR _Pnext$5[rbp]
  0007b	48 8b 00	 mov	 rax, QWORD PTR [rax]
  0007e	48 8b 4d 28	 mov	 rcx, QWORD PTR _Pnext$5[rbp]
  00082	48 8b 40 08	 mov	 rax, QWORD PTR [rax+8]
  00086	48 89 01	 mov	 QWORD PTR [rcx], rax
$LN4@Orphan_all:
  00089	48 8b 45 28	 mov	 rax, QWORD PTR _Pnext$5[rbp]
  0008d	48 83 38 00	 cmp	 QWORD PTR [rax], 0
  00091	74 10		 je	 SHORT $LN3@Orphan_all

; 1211 :             (*_Pnext)->_Myproxy = nullptr;

  00093	48 8b 45 28	 mov	 rax, QWORD PTR _Pnext$5[rbp]
  00097	48 8b 00	 mov	 rax, QWORD PTR [rax]
  0009a	48 c7 00 00 00
	00 00		 mov	 QWORD PTR [rax], 0

; 1212 :         }

  000a1	eb d4		 jmp	 SHORT $LN2@Orphan_all
$LN3@Orphan_all:

; 1213 : 
; 1214 :         _Myproxy->_Myfirstiter = nullptr;

  000a3	48 8b 85 20 01
	00 00		 mov	 rax, QWORD PTR this$[rbp]
  000aa	48 8b 00	 mov	 rax, QWORD PTR [rax]
  000ad	48 c7 40 08 00
	00 00 00	 mov	 QWORD PTR [rax+8], 0

; 1215 :     }

  000b5	48 8d 4d 04	 lea	 rcx, QWORD PTR _Lock$4[rbp]
  000b9	ff 15 00 00 00
	00		 call	 QWORD PTR __imp_??1_Lockit@std@@QEAA@XZ
$LN5@Orphan_all:

; 1216 : #endif // _ITERATOR_DEBUG_LEVEL == 2
; 1217 : }

  000bf	48 8d 4d e0	 lea	 rcx, QWORD PTR [rbp-32]
  000c3	48 8d 15 00 00
	00 00		 lea	 rdx, OFFSET FLAT:?_Orphan_all@_Container_base12@std@@QEAAXXZ$rtcFrameData
  000ca	e8 00 00 00 00	 call	 _RTC_CheckStackVars
  000cf	90		 npad	 1
  000d0	48 8b 8d f8 00
	00 00		 mov	 rcx, QWORD PTR __$ArrayPad$[rbp]
  000d7	48 33 cd	 xor	 rcx, rbp
  000da	e8 00 00 00 00	 call	 __security_check_cookie
  000df	48 8d a5 08 01
	00 00		 lea	 rsp, QWORD PTR [rbp+264]
  000e6	5f		 pop	 rdi
  000e7	5d		 pop	 rbp
  000e8	c3		 ret	 0
?_Orphan_all@_Container_base12@std@@QEAAXXZ ENDP	; std::_Container_base12::_Orphan_all
_TEXT	ENDS
; Function compile flags: /Odtp /RTCsu /ZI
; File C:\Program Files (x86)\Microsoft Visual Studio\2019\Enterprise\VC\Tools\MSVC\14.27.29110\include\xmemory
;	COMDAT ??0_Container_base12@std@@QEAA@XZ
_TEXT	SEGMENT
this$ = 224
??0_Container_base12@std@@QEAA@XZ PROC			; std::_Container_base12::_Container_base12, COMDAT

; 1092 :     _Container_base12() noexcept : _Myproxy(nullptr) {}

$LN3:
  00000	48 89 4c 24 08	 mov	 QWORD PTR [rsp+8], rcx
  00005	55		 push	 rbp
  00006	57		 push	 rdi
  00007	48 81 ec e8 00
	00 00		 sub	 rsp, 232		; 000000e8H
  0000e	48 8d 6c 24 20	 lea	 rbp, QWORD PTR [rsp+32]
  00013	48 8b fc	 mov	 rdi, rsp
  00016	b9 3a 00 00 00	 mov	 ecx, 58			; 0000003aH
  0001b	b8 cc cc cc cc	 mov	 eax, -858993460		; ccccccccH
  00020	f3 ab		 rep stosd
  00022	48 8b 8c 24 08
	01 00 00	 mov	 rcx, QWORD PTR [rsp+264]
  0002a	48 8d 0d 00 00
	00 00		 lea	 rcx, OFFSET FLAT:__0C99713E_xmemory
  00031	e8 00 00 00 00	 call	 __CheckForDebuggerJustMyCode
  00036	48 8b 85 e0 00
	00 00		 mov	 rax, QWORD PTR this$[rbp]
  0003d	48 c7 00 00 00
	00 00		 mov	 QWORD PTR [rax], 0
  00044	48 8b 85 e0 00
	00 00		 mov	 rax, QWORD PTR this$[rbp]
  0004b	48 8d a5 c8 00
	00 00		 lea	 rsp, QWORD PTR [rbp+200]
  00052	5f		 pop	 rdi
  00053	5d		 pop	 rbp
  00054	c3		 ret	 0
??0_Container_base12@std@@QEAA@XZ ENDP			; std::_Container_base12::_Container_base12
_TEXT	ENDS
; Function compile flags: /Odtp /RTCsu /ZI
; File C:\Program Files (x86)\Microsoft Visual Studio\2019\Enterprise\VC\Tools\MSVC\14.27.29110\include\xmemory
;	COMDAT ??0_Container_proxy@std@@QEAA@PEAU_Container_base12@1@@Z
_TEXT	SEGMENT
this$ = 224
_Mycont_$ = 232
??0_Container_proxy@std@@QEAA@PEAU_Container_base12@1@@Z PROC ; std::_Container_proxy::_Container_proxy, COMDAT

; 1084 :     _Container_proxy(_Container_base12* _Mycont_) noexcept : _Mycont(_Mycont_), _Myfirstiter(nullptr) {}

$LN3:
  00000	48 89 54 24 10	 mov	 QWORD PTR [rsp+16], rdx
  00005	48 89 4c 24 08	 mov	 QWORD PTR [rsp+8], rcx
  0000a	55		 push	 rbp
  0000b	57		 push	 rdi
  0000c	48 81 ec e8 00
	00 00		 sub	 rsp, 232		; 000000e8H
  00013	48 8d 6c 24 20	 lea	 rbp, QWORD PTR [rsp+32]
  00018	48 8b fc	 mov	 rdi, rsp
  0001b	b9 3a 00 00 00	 mov	 ecx, 58			; 0000003aH
  00020	b8 cc cc cc cc	 mov	 eax, -858993460		; ccccccccH
  00025	f3 ab		 rep stosd
  00027	48 8b 8c 24 08
	01 00 00	 mov	 rcx, QWORD PTR [rsp+264]
  0002f	48 8d 0d 00 00
	00 00		 lea	 rcx, OFFSET FLAT:__0C99713E_xmemory
  00036	e8 00 00 00 00	 call	 __CheckForDebuggerJustMyCode
  0003b	48 8b 85 e0 00
	00 00		 mov	 rax, QWORD PTR this$[rbp]
  00042	48 8b 8d e8 00
	00 00		 mov	 rcx, QWORD PTR _Mycont_$[rbp]
  00049	48 89 08	 mov	 QWORD PTR [rax], rcx
  0004c	48 8b 85 e0 00
	00 00		 mov	 rax, QWORD PTR this$[rbp]
  00053	48 c7 40 08 00
	00 00 00	 mov	 QWORD PTR [rax+8], 0
  0005b	48 8b 85 e0 00
	00 00		 mov	 rax, QWORD PTR this$[rbp]
  00062	48 8d a5 c8 00
	00 00		 lea	 rsp, QWORD PTR [rbp+200]
  00069	5f		 pop	 rdi
  0006a	5d		 pop	 rbp
  0006b	c3		 ret	 0
??0_Container_proxy@std@@QEAA@PEAU_Container_base12@1@@Z ENDP ; std::_Container_proxy::_Container_proxy
_TEXT	ENDS
; Function compile flags: /Odtp /RTCsu /ZI
; File C:\Program Files (x86)\Microsoft Visual Studio\2019\Enterprise\VC\Tools\MSVC\14.27.29110\include\xmemory
;	COMDAT ?_Adjust_manually_vector_aligned@std@@YAXAEAPEAXAEA_K@Z
_TEXT	SEGMENT
_Ptr_user$ = 8
_Ptr_container$ = 40
_Min_back_shift$ = 72
_Back_shift$ = 104
_Ptr$ = 352
_Bytes$ = 360
?_Adjust_manually_vector_aligned@std@@YAXAEAPEAXAEA_K@Z PROC ; std::_Adjust_manually_vector_aligned, COMDAT

; 132  : inline void _Adjust_manually_vector_aligned(void*& _Ptr, size_t& _Bytes) {

$LN21:
  00000	48 89 54 24 10	 mov	 QWORD PTR [rsp+16], rdx
  00005	48 89 4c 24 08	 mov	 QWORD PTR [rsp+8], rcx
  0000a	55		 push	 rbp
  0000b	57		 push	 rdi
  0000c	48 81 ec 78 01
	00 00		 sub	 rsp, 376		; 00000178H
  00013	48 8d 6c 24 30	 lea	 rbp, QWORD PTR [rsp+48]
  00018	48 8b fc	 mov	 rdi, rsp
  0001b	b9 5e 00 00 00	 mov	 ecx, 94			; 0000005eH
  00020	b8 cc cc cc cc	 mov	 eax, -858993460		; ccccccccH
  00025	f3 ab		 rep stosd
  00027	48 8b 8c 24 98
	01 00 00	 mov	 rcx, QWORD PTR [rsp+408]
  0002f	48 8d 0d 00 00
	00 00		 lea	 rcx, OFFSET FLAT:__0C99713E_xmemory
  00036	e8 00 00 00 00	 call	 __CheckForDebuggerJustMyCode

; 133  :     // adjust parameters from _Allocate_manually_vector_aligned to pass to operator delete
; 134  :     _Bytes += _Non_user_size;

  0003b	48 8b 85 68 01
	00 00		 mov	 rax, QWORD PTR _Bytes$[rbp]
  00042	48 8b 00	 mov	 rax, QWORD PTR [rax]
  00045	48 83 c0 2f	 add	 rax, 47			; 0000002fH
  00049	48 8b 8d 68 01
	00 00		 mov	 rcx, QWORD PTR _Bytes$[rbp]
  00050	48 89 01	 mov	 QWORD PTR [rcx], rax

; 135  : 
; 136  :     const uintptr_t* const _Ptr_user = reinterpret_cast<uintptr_t*>(_Ptr);

  00053	48 8b 85 60 01
	00 00		 mov	 rax, QWORD PTR _Ptr$[rbp]
  0005a	48 8b 00	 mov	 rax, QWORD PTR [rax]
  0005d	48 89 45 08	 mov	 QWORD PTR _Ptr_user$[rbp], rax

; 137  :     const uintptr_t _Ptr_container   = _Ptr_user[-1];

  00061	b8 08 00 00 00	 mov	 eax, 8
  00066	48 6b c0 ff	 imul	 rax, rax, -1
  0006a	48 8b 4d 08	 mov	 rcx, QWORD PTR _Ptr_user$[rbp]
  0006e	48 8b 04 01	 mov	 rax, QWORD PTR [rcx+rax]
  00072	48 89 45 28	 mov	 QWORD PTR _Ptr_container$[rbp], rax
$LN4@Adjust_man:

; 138  : 
; 139  :     // If the following asserts, it likely means that we are performing
; 140  :     // an aligned delete on memory coming from an unaligned allocation.
; 141  :     _STL_ASSERT(_Ptr_user[-2] == _Big_allocation_sentinel, "invalid argument");

  00076	b8 08 00 00 00	 mov	 eax, 8
  0007b	48 6b c0 fe	 imul	 rax, rax, -2
  0007f	48 8b 4d 08	 mov	 rcx, QWORD PTR _Ptr_user$[rbp]
  00083	48 ba fa fa fa
	fa fa fa fa fa	 mov	 rdx, -361700864190383366 ; fafafafafafafafaH
  0008d	48 39 14 01	 cmp	 QWORD PTR [rcx+rax], rdx
  00091	75 02		 jne	 SHORT $LN14@Adjust_man
  00093	eb 77		 jmp	 SHORT $LN15@Adjust_man
$LN14@Adjust_man:
$LN7@Adjust_man:
  00095	8b 05 00 00 00
	00		 mov	 eax, DWORD PTR ?__LINE__Var@?0??_Adjust_manually_vector_aligned@std@@YAXAEAPEAXAEA_K@Z@4JA
  0009b	83 c0 09	 add	 eax, 9
  0009e	48 8d 0d 00 00
	00 00		 lea	 rcx, OFFSET FLAT:??_C@_0BB@FCMFBGOM@invalid?5argument@
  000a5	48 89 4c 24 28	 mov	 QWORD PTR [rsp+40], rcx
  000aa	48 8d 0d 00 00
	00 00		 lea	 rcx, OFFSET FLAT:??_C@_02DKCKIIND@?$CFs@
  000b1	48 89 4c 24 20	 mov	 QWORD PTR [rsp+32], rcx
  000b6	45 33 c9	 xor	 r9d, r9d
  000b9	44 8b c0	 mov	 r8d, eax
  000bc	48 8d 15 00 00
	00 00		 lea	 rdx, OFFSET FLAT:??_C@_0GJ@EHJGLGPD@C?3?2Program?5Files?5?$CIx86?$CJ?2Microsof@
  000c3	b9 02 00 00 00	 mov	 ecx, 2
  000c8	ff 15 00 00 00
	00		 call	 QWORD PTR __imp__CrtDbgReport
  000ce	83 f8 01	 cmp	 eax, 1
  000d1	75 03		 jne	 SHORT $LN19@Adjust_man
  000d3	cc		 int	 3
  000d4	33 c0		 xor	 eax, eax
$LN19@Adjust_man:
  000d6	8b 05 00 00 00
	00		 mov	 eax, DWORD PTR ?__LINE__Var@?0??_Adjust_manually_vector_aligned@std@@YAXAEAPEAXAEA_K@Z@4JA
  000dc	83 c0 09	 add	 eax, 9
  000df	48 c7 44 24 20
	00 00 00 00	 mov	 QWORD PTR [rsp+32], 0
  000e8	44 8b c8	 mov	 r9d, eax
  000eb	4c 8d 05 00 00
	00 00		 lea	 r8, OFFSET FLAT:??_C@_1NC@LBGPBFDE@?$AAC?$AA?3?$AA?2?$AAP?$AAr?$AAo?$AAg?$AAr?$AAa?$AAm?$AA?5?$AAF?$AAi?$AAl?$AAe@
  000f2	48 8d 15 00 00
	00 00		 lea	 rdx, OFFSET FLAT:??_C@_1EK@NIFDJFDG@?$AAs?$AAt?$AAd?$AA?3?$AA?3?$AA_?$AAA?$AAd?$AAj?$AAu?$AAs?$AAt?$AA_?$AAm?$AAa@
  000f9	48 8d 0d 00 00
	00 00		 lea	 rcx, OFFSET FLAT:??_C@_1CG@JNLFBNGN@?$AA?$CC?$AAi?$AAn?$AAv?$AAa?$AAl?$AAi?$AAd?$AA?5?$AAa?$AAr?$AAg?$AAu?$AAm?$AAe@
  00100	ff 15 00 00 00
	00		 call	 QWORD PTR __imp__invalid_parameter
  00106	33 c0		 xor	 eax, eax
  00108	85 c0		 test	 eax, eax
  0010a	75 89		 jne	 SHORT $LN7@Adjust_man
$LN15@Adjust_man:
  0010c	33 c0		 xor	 eax, eax
  0010e	85 c0		 test	 eax, eax
  00110	0f 85 60 ff ff
	ff		 jne	 $LN4@Adjust_man

; 142  : 
; 143  :     // Extra paranoia on aligned allocation/deallocation; ensure _Ptr_container is
; 144  :     // in range [_Min_back_shift, _Non_user_size]
; 145  : #ifdef _DEBUG
; 146  :     constexpr uintptr_t _Min_back_shift = 2 * sizeof(void*);

  00116	48 c7 45 48 10
	00 00 00	 mov	 QWORD PTR _Min_back_shift$[rbp], 16

; 147  : #else // ^^^ _DEBUG ^^^ // vvv !_DEBUG vvv
; 148  :     constexpr uintptr_t _Min_back_shift = sizeof(void*);
; 149  : #endif // _DEBUG
; 150  :     const uintptr_t _Back_shift = reinterpret_cast<uintptr_t>(_Ptr) - _Ptr_container;

  0011e	48 8b 85 60 01
	00 00		 mov	 rax, QWORD PTR _Ptr$[rbp]
  00125	48 8b 4d 28	 mov	 rcx, QWORD PTR _Ptr_container$[rbp]
  00129	48 8b 00	 mov	 rax, QWORD PTR [rax]
  0012c	48 2b c1	 sub	 rax, rcx
  0012f	48 89 45 68	 mov	 QWORD PTR _Back_shift$[rbp], rax
$LN10@Adjust_man:

; 151  :     _STL_VERIFY(_Back_shift >= _Min_back_shift && _Back_shift <= _Non_user_size, "invalid argument");

  00133	48 83 7d 68 10	 cmp	 QWORD PTR _Back_shift$[rbp], 16
  00138	72 09		 jb	 SHORT $LN16@Adjust_man
  0013a	48 83 7d 68 2f	 cmp	 QWORD PTR _Back_shift$[rbp], 47 ; 0000002fH
  0013f	77 02		 ja	 SHORT $LN16@Adjust_man
  00141	eb 77		 jmp	 SHORT $LN17@Adjust_man
$LN16@Adjust_man:
$LN13@Adjust_man:
  00143	8b 05 00 00 00
	00		 mov	 eax, DWORD PTR ?__LINE__Var@?0??_Adjust_manually_vector_aligned@std@@YAXAEAPEAXAEA_K@Z@4JA
  00149	83 c0 13	 add	 eax, 19
  0014c	48 8d 0d 00 00
	00 00		 lea	 rcx, OFFSET FLAT:??_C@_0BB@FCMFBGOM@invalid?5argument@
  00153	48 89 4c 24 28	 mov	 QWORD PTR [rsp+40], rcx
  00158	48 8d 0d 00 00
	00 00		 lea	 rcx, OFFSET FLAT:??_C@_02DKCKIIND@?$CFs@
  0015f	48 89 4c 24 20	 mov	 QWORD PTR [rsp+32], rcx
  00164	45 33 c9	 xor	 r9d, r9d
  00167	44 8b c0	 mov	 r8d, eax
  0016a	48 8d 15 00 00
	00 00		 lea	 rdx, OFFSET FLAT:??_C@_0GJ@EHJGLGPD@C?3?2Program?5Files?5?$CIx86?$CJ?2Microsof@
  00171	b9 02 00 00 00	 mov	 ecx, 2
  00176	ff 15 00 00 00
	00		 call	 QWORD PTR __imp__CrtDbgReport
  0017c	83 f8 01	 cmp	 eax, 1
  0017f	75 03		 jne	 SHORT $LN20@Adjust_man
  00181	cc		 int	 3
  00182	33 c0		 xor	 eax, eax
$LN20@Adjust_man:
  00184	8b 05 00 00 00
	00		 mov	 eax, DWORD PTR ?__LINE__Var@?0??_Adjust_manually_vector_aligned@std@@YAXAEAPEAXAEA_K@Z@4JA
  0018a	83 c0 13	 add	 eax, 19
  0018d	48 c7 44 24 20
	00 00 00 00	 mov	 QWORD PTR [rsp+32], 0
  00196	44 8b c8	 mov	 r9d, eax
  00199	4c 8d 05 00 00
	00 00		 lea	 r8, OFFSET FLAT:??_C@_1NC@LBGPBFDE@?$AAC?$AA?3?$AA?2?$AAP?$AAr?$AAo?$AAg?$AAr?$AAa?$AAm?$AA?5?$AAF?$AAi?$AAl?$AAe@
  001a0	48 8d 15 00 00
	00 00		 lea	 rdx, OFFSET FLAT:??_C@_1EK@NIFDJFDG@?$AAs?$AAt?$AAd?$AA?3?$AA?3?$AA_?$AAA?$AAd?$AAj?$AAu?$AAs?$AAt?$AA_?$AAm?$AAa@
  001a7	48 8d 0d 00 00
	00 00		 lea	 rcx, OFFSET FLAT:??_C@_1CG@JNLFBNGN@?$AA?$CC?$AAi?$AAn?$AAv?$AAa?$AAl?$AAi?$AAd?$AA?5?$AAa?$AAr?$AAg?$AAu?$AAm?$AAe@
  001ae	ff 15 00 00 00
	00		 call	 QWORD PTR __imp__invalid_parameter
  001b4	33 c0		 xor	 eax, eax
  001b6	85 c0		 test	 eax, eax
  001b8	75 89		 jne	 SHORT $LN13@Adjust_man
$LN17@Adjust_man:
  001ba	33 c0		 xor	 eax, eax
  001bc	85 c0		 test	 eax, eax
  001be	0f 85 6f ff ff
	ff		 jne	 $LN10@Adjust_man

; 152  :     _Ptr = reinterpret_cast<void*>(_Ptr_container);

  001c4	48 8b 85 60 01
	00 00		 mov	 rax, QWORD PTR _Ptr$[rbp]
  001cb	48 8b 4d 28	 mov	 rcx, QWORD PTR _Ptr_container$[rbp]
  001cf	48 89 08	 mov	 QWORD PTR [rax], rcx

; 153  : }

  001d2	48 8d a5 48 01
	00 00		 lea	 rsp, QWORD PTR [rbp+328]
  001d9	5f		 pop	 rdi
  001da	5d		 pop	 rbp
  001db	c3		 ret	 0
?_Adjust_manually_vector_aligned@std@@YAXAEAPEAXAEA_K@Z ENDP ; std::_Adjust_manually_vector_aligned
_TEXT	ENDS
; Function compile flags: /Odtp /RTCsu /ZI
; File C:\Program Files (x86)\Microsoft Visual Studio\2019\Enterprise\VC\Tools\MSVC\14.27.29110\include\xmemory
;	COMDAT ?_Allocate@_Default_allocate_traits@std@@SAPEAX_K@Z
_TEXT	SEGMENT
_Bytes$ = 224
?_Allocate@_Default_allocate_traits@std@@SAPEAX_K@Z PROC ; std::_Default_allocate_traits::_Allocate, COMDAT

; 76   :     __declspec(allocator) static void* _Allocate(const size_t _Bytes) {

$LN3:
  00000	48 89 4c 24 08	 mov	 QWORD PTR [rsp+8], rcx
  00005	55		 push	 rbp
  00006	57		 push	 rdi
  00007	48 81 ec e8 00
	00 00		 sub	 rsp, 232		; 000000e8H
  0000e	48 8d 6c 24 20	 lea	 rbp, QWORD PTR [rsp+32]
  00013	48 8b fc	 mov	 rdi, rsp
  00016	b9 3a 00 00 00	 mov	 ecx, 58			; 0000003aH
  0001b	b8 cc cc cc cc	 mov	 eax, -858993460		; ccccccccH
  00020	f3 ab		 rep stosd
  00022	48 8b 8c 24 08
	01 00 00	 mov	 rcx, QWORD PTR [rsp+264]
  0002a	48 8d 0d 00 00
	00 00		 lea	 rcx, OFFSET FLAT:__0C99713E_xmemory
  00031	e8 00 00 00 00	 call	 __CheckForDebuggerJustMyCode

; 77   :         return ::operator new(_Bytes);

  00036	48 8b 8d e0 00
	00 00		 mov	 rcx, QWORD PTR _Bytes$[rbp]
  0003d	e8 00 00 00 00	 call	 ??2@YAPEAX_K@Z		; operator new

; 78   :     }

  00042	48 8d a5 c8 00
	00 00		 lea	 rsp, QWORD PTR [rbp+200]
  00049	5f		 pop	 rdi
  0004a	5d		 pop	 rbp
  0004b	c3		 ret	 0
?_Allocate@_Default_allocate_traits@std@@SAPEAX_K@Z ENDP ; std::_Default_allocate_traits::_Allocate
_TEXT	ENDS
; Function compile flags: /Odtp /RTCsu /ZI
; File C:\Program Files (x86)\Microsoft Visual Studio\2019\Enterprise\VC\Tools\MSVC\14.27.29110\include\exception
;	COMDAT ?_Throw_bad_array_new_length@std@@YAXXZ
_TEXT	SEGMENT
$T1 = 200
?_Throw_bad_array_new_length@std@@YAXXZ PROC		; std::_Throw_bad_array_new_length, COMDAT

; 320  : [[noreturn]] inline void _Throw_bad_array_new_length() {

$LN3:
  00000	40 55		 push	 rbp
  00002	57		 push	 rdi
  00003	48 81 ec 18 01
	00 00		 sub	 rsp, 280		; 00000118H
  0000a	48 8d 6c 24 20	 lea	 rbp, QWORD PTR [rsp+32]
  0000f	48 8b fc	 mov	 rdi, rsp
  00012	b9 46 00 00 00	 mov	 ecx, 70			; 00000046H
  00017	b8 cc cc cc cc	 mov	 eax, -858993460		; ccccccccH
  0001c	f3 ab		 rep stosd
  0001e	48 8d 0d 00 00
	00 00		 lea	 rcx, OFFSET FLAT:__1302BCB8_exception
  00025	e8 00 00 00 00	 call	 __CheckForDebuggerJustMyCode

; 321  :     _THROW(bad_array_new_length{});

  0002a	48 8d 8d c8 00
	00 00		 lea	 rcx, QWORD PTR $T1[rbp]
  00031	e8 00 00 00 00	 call	 ??0bad_array_new_length@std@@QEAA@XZ ; std::bad_array_new_length::bad_array_new_length
  00036	48 8d 15 00 00
	00 00		 lea	 rdx, OFFSET FLAT:_TI3?AVbad_array_new_length@std@@
  0003d	48 8d 8d c8 00
	00 00		 lea	 rcx, QWORD PTR $T1[rbp]
  00044	e8 00 00 00 00	 call	 _CxxThrowException
$LN2@Throw_bad_:

; 322  : }

  00049	48 8d a5 f8 00
	00 00		 lea	 rsp, QWORD PTR [rbp+248]
  00050	5f		 pop	 rdi
  00051	5d		 pop	 rbp
  00052	c3		 ret	 0
?_Throw_bad_array_new_length@std@@YAXXZ ENDP		; std::_Throw_bad_array_new_length
_TEXT	ENDS
; Function compile flags: /Odtp /RTCsu /ZI
;	COMDAT ??_Gbad_array_new_length@std@@UEAAPEAXI@Z
_TEXT	SEGMENT
this$ = 224
__flags$ = 232
??_Gbad_array_new_length@std@@UEAAPEAXI@Z PROC		; std::bad_array_new_length::`scalar deleting destructor', COMDAT
$LN4:
  00000	89 54 24 10	 mov	 DWORD PTR [rsp+16], edx
  00004	48 89 4c 24 08	 mov	 QWORD PTR [rsp+8], rcx
  00009	55		 push	 rbp
  0000a	57		 push	 rdi
  0000b	48 81 ec e8 00
	00 00		 sub	 rsp, 232		; 000000e8H
  00012	48 8d 6c 24 20	 lea	 rbp, QWORD PTR [rsp+32]
  00017	48 8b fc	 mov	 rdi, rsp
  0001a	b9 3a 00 00 00	 mov	 ecx, 58			; 0000003aH
  0001f	b8 cc cc cc cc	 mov	 eax, -858993460		; ccccccccH
  00024	f3 ab		 rep stosd
  00026	48 8b 8c 24 08
	01 00 00	 mov	 rcx, QWORD PTR [rsp+264]
  0002e	48 8b 8d e0 00
	00 00		 mov	 rcx, QWORD PTR this$[rbp]
  00035	e8 00 00 00 00	 call	 ??1bad_array_new_length@std@@UEAA@XZ
  0003a	8b 85 e8 00 00
	00		 mov	 eax, DWORD PTR __flags$[rbp]
  00040	83 e0 01	 and	 eax, 1
  00043	85 c0		 test	 eax, eax
  00045	74 11		 je	 SHORT $LN2@scalar
  00047	ba 18 00 00 00	 mov	 edx, 24
  0004c	48 8b 8d e0 00
	00 00		 mov	 rcx, QWORD PTR this$[rbp]
  00053	e8 00 00 00 00	 call	 ??3@YAXPEAX_K@Z		; operator delete
$LN2@scalar:
  00058	48 8b 85 e0 00
	00 00		 mov	 rax, QWORD PTR this$[rbp]
  0005f	48 8d a5 c8 00
	00 00		 lea	 rsp, QWORD PTR [rbp+200]
  00066	5f		 pop	 rdi
  00067	5d		 pop	 rbp
  00068	c3		 ret	 0
??_Gbad_array_new_length@std@@UEAAPEAXI@Z ENDP		; std::bad_array_new_length::`scalar deleting destructor'
_TEXT	ENDS
; Function compile flags: /Odtp /RTCsu /ZI
;	COMDAT ??0bad_array_new_length@std@@QEAA@AEBV01@@Z
_TEXT	SEGMENT
this$ = 224
__that$ = 232
??0bad_array_new_length@std@@QEAA@AEBV01@@Z PROC	; std::bad_array_new_length::bad_array_new_length, COMDAT
$LN3:
  00000	48 89 54 24 10	 mov	 QWORD PTR [rsp+16], rdx
  00005	48 89 4c 24 08	 mov	 QWORD PTR [rsp+8], rcx
  0000a	55		 push	 rbp
  0000b	57		 push	 rdi
  0000c	48 81 ec e8 00
	00 00		 sub	 rsp, 232		; 000000e8H
  00013	48 8d 6c 24 20	 lea	 rbp, QWORD PTR [rsp+32]
  00018	48 8b fc	 mov	 rdi, rsp
  0001b	b9 3a 00 00 00	 mov	 ecx, 58			; 0000003aH
  00020	b8 cc cc cc cc	 mov	 eax, -858993460		; ccccccccH
  00025	f3 ab		 rep stosd
  00027	48 8b 8c 24 08
	01 00 00	 mov	 rcx, QWORD PTR [rsp+264]
  0002f	48 8b 95 e8 00
	00 00		 mov	 rdx, QWORD PTR __that$[rbp]
  00036	48 8b 8d e0 00
	00 00		 mov	 rcx, QWORD PTR this$[rbp]
  0003d	e8 00 00 00 00	 call	 ??0bad_alloc@std@@QEAA@AEBV01@@Z
  00042	48 8b 85 e0 00
	00 00		 mov	 rax, QWORD PTR this$[rbp]
  00049	48 8d 0d 00 00
	00 00		 lea	 rcx, OFFSET FLAT:??_7bad_array_new_length@std@@6B@
  00050	48 89 08	 mov	 QWORD PTR [rax], rcx
  00053	48 8b 85 e0 00
	00 00		 mov	 rax, QWORD PTR this$[rbp]
  0005a	48 8d a5 c8 00
	00 00		 lea	 rsp, QWORD PTR [rbp+200]
  00061	5f		 pop	 rdi
  00062	5d		 pop	 rbp
  00063	c3		 ret	 0
??0bad_array_new_length@std@@QEAA@AEBV01@@Z ENDP	; std::bad_array_new_length::bad_array_new_length
_TEXT	ENDS
; Function compile flags: /Odtp /RTCsu /ZI
;	COMDAT ??1bad_array_new_length@std@@UEAA@XZ
_TEXT	SEGMENT
this$ = 224
??1bad_array_new_length@std@@UEAA@XZ PROC		; std::bad_array_new_length::~bad_array_new_length, COMDAT
$LN3:
  00000	48 89 4c 24 08	 mov	 QWORD PTR [rsp+8], rcx
  00005	55		 push	 rbp
  00006	57		 push	 rdi
  00007	48 81 ec e8 00
	00 00		 sub	 rsp, 232		; 000000e8H
  0000e	48 8d 6c 24 20	 lea	 rbp, QWORD PTR [rsp+32]
  00013	48 8b fc	 mov	 rdi, rsp
  00016	b9 3a 00 00 00	 mov	 ecx, 58			; 0000003aH
  0001b	b8 cc cc cc cc	 mov	 eax, -858993460		; ccccccccH
  00020	f3 ab		 rep stosd
  00022	48 8b 8c 24 08
	01 00 00	 mov	 rcx, QWORD PTR [rsp+264]
  0002a	48 8b 8d e0 00
	00 00		 mov	 rcx, QWORD PTR this$[rbp]
  00031	e8 00 00 00 00	 call	 ??1bad_alloc@std@@UEAA@XZ
  00036	48 8d a5 c8 00
	00 00		 lea	 rsp, QWORD PTR [rbp+200]
  0003d	5f		 pop	 rdi
  0003e	5d		 pop	 rbp
  0003f	c3		 ret	 0
??1bad_array_new_length@std@@UEAA@XZ ENDP		; std::bad_array_new_length::~bad_array_new_length
_TEXT	ENDS
; Function compile flags: /Odtp /RTCsu /ZI
; File C:\Program Files (x86)\Microsoft Visual Studio\2019\Enterprise\VC\Tools\MSVC\14.27.29110\include\vcruntime_exception.h
;	COMDAT ??0bad_array_new_length@std@@QEAA@XZ
_TEXT	SEGMENT
this$ = 224
??0bad_array_new_length@std@@QEAA@XZ PROC		; std::bad_array_new_length::bad_array_new_length, COMDAT

; 141  :     {

$LN3:
  00000	48 89 4c 24 08	 mov	 QWORD PTR [rsp+8], rcx
  00005	55		 push	 rbp
  00006	57		 push	 rdi
  00007	48 81 ec e8 00
	00 00		 sub	 rsp, 232		; 000000e8H
  0000e	48 8d 6c 24 20	 lea	 rbp, QWORD PTR [rsp+32]
  00013	48 8b fc	 mov	 rdi, rsp
  00016	b9 3a 00 00 00	 mov	 ecx, 58			; 0000003aH
  0001b	b8 cc cc cc cc	 mov	 eax, -858993460		; ccccccccH
  00020	f3 ab		 rep stosd
  00022	48 8b 8c 24 08
	01 00 00	 mov	 rcx, QWORD PTR [rsp+264]
  0002a	48 8d 0d 00 00
	00 00		 lea	 rcx, OFFSET FLAT:__18D87206_vcruntime_exception@h
  00031	e8 00 00 00 00	 call	 __CheckForDebuggerJustMyCode

; 140  :         : bad_alloc("bad array new length")

  00036	48 8d 15 00 00
	00 00		 lea	 rdx, OFFSET FLAT:??_C@_0BF@KINCDENJ@bad?5array?5new?5length@
  0003d	48 8b 8d e0 00
	00 00		 mov	 rcx, QWORD PTR this$[rbp]
  00044	e8 00 00 00 00	 call	 ??0bad_alloc@std@@AEAA@QEBD@Z ; std::bad_alloc::bad_alloc

; 141  :     {

  00049	48 8b 85 e0 00
	00 00		 mov	 rax, QWORD PTR this$[rbp]
  00050	48 8d 0d 00 00
	00 00		 lea	 rcx, OFFSET FLAT:??_7bad_array_new_length@std@@6B@
  00057	48 89 08	 mov	 QWORD PTR [rax], rcx

; 142  :     }

  0005a	48 8b 85 e0 00
	00 00		 mov	 rax, QWORD PTR this$[rbp]
  00061	48 8d a5 c8 00
	00 00		 lea	 rsp, QWORD PTR [rbp+200]
  00068	5f		 pop	 rdi
  00069	5d		 pop	 rbp
  0006a	c3		 ret	 0
??0bad_array_new_length@std@@QEAA@XZ ENDP		; std::bad_array_new_length::bad_array_new_length
_TEXT	ENDS
; Function compile flags: /Odtp /RTCsu /ZI
;	COMDAT ??_Gbad_alloc@std@@UEAAPEAXI@Z
_TEXT	SEGMENT
this$ = 224
__flags$ = 232
??_Gbad_alloc@std@@UEAAPEAXI@Z PROC			; std::bad_alloc::`scalar deleting destructor', COMDAT
$LN4:
  00000	89 54 24 10	 mov	 DWORD PTR [rsp+16], edx
  00004	48 89 4c 24 08	 mov	 QWORD PTR [rsp+8], rcx
  00009	55		 push	 rbp
  0000a	57		 push	 rdi
  0000b	48 81 ec e8 00
	00 00		 sub	 rsp, 232		; 000000e8H
  00012	48 8d 6c 24 20	 lea	 rbp, QWORD PTR [rsp+32]
  00017	48 8b fc	 mov	 rdi, rsp
  0001a	b9 3a 00 00 00	 mov	 ecx, 58			; 0000003aH
  0001f	b8 cc cc cc cc	 mov	 eax, -858993460		; ccccccccH
  00024	f3 ab		 rep stosd
  00026	48 8b 8c 24 08
	01 00 00	 mov	 rcx, QWORD PTR [rsp+264]
  0002e	48 8b 8d e0 00
	00 00		 mov	 rcx, QWORD PTR this$[rbp]
  00035	e8 00 00 00 00	 call	 ??1bad_alloc@std@@UEAA@XZ
  0003a	8b 85 e8 00 00
	00		 mov	 eax, DWORD PTR __flags$[rbp]
  00040	83 e0 01	 and	 eax, 1
  00043	85 c0		 test	 eax, eax
  00045	74 11		 je	 SHORT $LN2@scalar
  00047	ba 18 00 00 00	 mov	 edx, 24
  0004c	48 8b 8d e0 00
	00 00		 mov	 rcx, QWORD PTR this$[rbp]
  00053	e8 00 00 00 00	 call	 ??3@YAXPEAX_K@Z		; operator delete
$LN2@scalar:
  00058	48 8b 85 e0 00
	00 00		 mov	 rax, QWORD PTR this$[rbp]
  0005f	48 8d a5 c8 00
	00 00		 lea	 rsp, QWORD PTR [rbp+200]
  00066	5f		 pop	 rdi
  00067	5d		 pop	 rbp
  00068	c3		 ret	 0
??_Gbad_alloc@std@@UEAAPEAXI@Z ENDP			; std::bad_alloc::`scalar deleting destructor'
_TEXT	ENDS
; Function compile flags: /Odtp /RTCsu /ZI
;	COMDAT ??0bad_alloc@std@@QEAA@AEBV01@@Z
_TEXT	SEGMENT
this$ = 224
__that$ = 232
??0bad_alloc@std@@QEAA@AEBV01@@Z PROC			; std::bad_alloc::bad_alloc, COMDAT
$LN3:
  00000	48 89 54 24 10	 mov	 QWORD PTR [rsp+16], rdx
  00005	48 89 4c 24 08	 mov	 QWORD PTR [rsp+8], rcx
  0000a	55		 push	 rbp
  0000b	57		 push	 rdi
  0000c	48 81 ec e8 00
	00 00		 sub	 rsp, 232		; 000000e8H
  00013	48 8d 6c 24 20	 lea	 rbp, QWORD PTR [rsp+32]
  00018	48 8b fc	 mov	 rdi, rsp
  0001b	b9 3a 00 00 00	 mov	 ecx, 58			; 0000003aH
  00020	b8 cc cc cc cc	 mov	 eax, -858993460		; ccccccccH
  00025	f3 ab		 rep stosd
  00027	48 8b 8c 24 08
	01 00 00	 mov	 rcx, QWORD PTR [rsp+264]
  0002f	48 8b 95 e8 00
	00 00		 mov	 rdx, QWORD PTR __that$[rbp]
  00036	48 8b 8d e0 00
	00 00		 mov	 rcx, QWORD PTR this$[rbp]
  0003d	e8 00 00 00 00	 call	 ??0exception@std@@QEAA@AEBV01@@Z ; std::exception::exception
  00042	48 8b 85 e0 00
	00 00		 mov	 rax, QWORD PTR this$[rbp]
  00049	48 8d 0d 00 00
	00 00		 lea	 rcx, OFFSET FLAT:??_7bad_alloc@std@@6B@
  00050	48 89 08	 mov	 QWORD PTR [rax], rcx
  00053	48 8b 85 e0 00
	00 00		 mov	 rax, QWORD PTR this$[rbp]
  0005a	48 8d a5 c8 00
	00 00		 lea	 rsp, QWORD PTR [rbp+200]
  00061	5f		 pop	 rdi
  00062	5d		 pop	 rbp
  00063	c3		 ret	 0
??0bad_alloc@std@@QEAA@AEBV01@@Z ENDP			; std::bad_alloc::bad_alloc
_TEXT	ENDS
; Function compile flags: /Odtp /RTCsu /ZI
;	COMDAT ??1bad_alloc@std@@UEAA@XZ
_TEXT	SEGMENT
this$ = 224
??1bad_alloc@std@@UEAA@XZ PROC				; std::bad_alloc::~bad_alloc, COMDAT
$LN3:
  00000	48 89 4c 24 08	 mov	 QWORD PTR [rsp+8], rcx
  00005	55		 push	 rbp
  00006	57		 push	 rdi
  00007	48 81 ec e8 00
	00 00		 sub	 rsp, 232		; 000000e8H
  0000e	48 8d 6c 24 20	 lea	 rbp, QWORD PTR [rsp+32]
  00013	48 8b fc	 mov	 rdi, rsp
  00016	b9 3a 00 00 00	 mov	 ecx, 58			; 0000003aH
  0001b	b8 cc cc cc cc	 mov	 eax, -858993460		; ccccccccH
  00020	f3 ab		 rep stosd
  00022	48 8b 8c 24 08
	01 00 00	 mov	 rcx, QWORD PTR [rsp+264]
  0002a	48 8b 8d e0 00
	00 00		 mov	 rcx, QWORD PTR this$[rbp]
  00031	e8 00 00 00 00	 call	 ??1exception@std@@UEAA@XZ ; std::exception::~exception
  00036	48 8d a5 c8 00
	00 00		 lea	 rsp, QWORD PTR [rbp+200]
  0003d	5f		 pop	 rdi
  0003e	5d		 pop	 rbp
  0003f	c3		 ret	 0
??1bad_alloc@std@@UEAA@XZ ENDP				; std::bad_alloc::~bad_alloc
_TEXT	ENDS
; Function compile flags: /Odtp /RTCsu /ZI
; File C:\Program Files (x86)\Microsoft Visual Studio\2019\Enterprise\VC\Tools\MSVC\14.27.29110\include\vcruntime_exception.h
;	COMDAT ??0bad_alloc@std@@AEAA@QEBD@Z
_TEXT	SEGMENT
this$ = 224
_Message$ = 232
??0bad_alloc@std@@AEAA@QEBD@Z PROC			; std::bad_alloc::bad_alloc, COMDAT

; 130  :     {

$LN3:
  00000	48 89 54 24 10	 mov	 QWORD PTR [rsp+16], rdx
  00005	48 89 4c 24 08	 mov	 QWORD PTR [rsp+8], rcx
  0000a	55		 push	 rbp
  0000b	57		 push	 rdi
  0000c	48 81 ec e8 00
	00 00		 sub	 rsp, 232		; 000000e8H
  00013	48 8d 6c 24 20	 lea	 rbp, QWORD PTR [rsp+32]
  00018	48 8b fc	 mov	 rdi, rsp
  0001b	b9 3a 00 00 00	 mov	 ecx, 58			; 0000003aH
  00020	b8 cc cc cc cc	 mov	 eax, -858993460		; ccccccccH
  00025	f3 ab		 rep stosd
  00027	48 8b 8c 24 08
	01 00 00	 mov	 rcx, QWORD PTR [rsp+264]
  0002f	48 8d 0d 00 00
	00 00		 lea	 rcx, OFFSET FLAT:__18D87206_vcruntime_exception@h
  00036	e8 00 00 00 00	 call	 __CheckForDebuggerJustMyCode

; 129  :         : exception(_Message, 1)

  0003b	41 b8 01 00 00
	00		 mov	 r8d, 1
  00041	48 8b 95 e8 00
	00 00		 mov	 rdx, QWORD PTR _Message$[rbp]
  00048	48 8b 8d e0 00
	00 00		 mov	 rcx, QWORD PTR this$[rbp]
  0004f	e8 00 00 00 00	 call	 ??0exception@std@@QEAA@QEBDH@Z ; std::exception::exception

; 130  :     {

  00054	48 8b 85 e0 00
	00 00		 mov	 rax, QWORD PTR this$[rbp]
  0005b	48 8d 0d 00 00
	00 00		 lea	 rcx, OFFSET FLAT:??_7bad_alloc@std@@6B@
  00062	48 89 08	 mov	 QWORD PTR [rax], rcx

; 131  :     }

  00065	48 8b 85 e0 00
	00 00		 mov	 rax, QWORD PTR this$[rbp]
  0006c	48 8d a5 c8 00
	00 00		 lea	 rsp, QWORD PTR [rbp+200]
  00073	5f		 pop	 rdi
  00074	5d		 pop	 rbp
  00075	c3		 ret	 0
??0bad_alloc@std@@AEAA@QEBD@Z ENDP			; std::bad_alloc::bad_alloc
_TEXT	ENDS
; Function compile flags: /Odtp /RTCsu /ZI
;	COMDAT ??_Gexception@std@@UEAAPEAXI@Z
_TEXT	SEGMENT
this$ = 224
__flags$ = 232
??_Gexception@std@@UEAAPEAXI@Z PROC			; std::exception::`scalar deleting destructor', COMDAT
$LN4:
  00000	89 54 24 10	 mov	 DWORD PTR [rsp+16], edx
  00004	48 89 4c 24 08	 mov	 QWORD PTR [rsp+8], rcx
  00009	55		 push	 rbp
  0000a	57		 push	 rdi
  0000b	48 81 ec e8 00
	00 00		 sub	 rsp, 232		; 000000e8H
  00012	48 8d 6c 24 20	 lea	 rbp, QWORD PTR [rsp+32]
  00017	48 8b fc	 mov	 rdi, rsp
  0001a	b9 3a 00 00 00	 mov	 ecx, 58			; 0000003aH
  0001f	b8 cc cc cc cc	 mov	 eax, -858993460		; ccccccccH
  00024	f3 ab		 rep stosd
  00026	48 8b 8c 24 08
	01 00 00	 mov	 rcx, QWORD PTR [rsp+264]
  0002e	48 8b 8d e0 00
	00 00		 mov	 rcx, QWORD PTR this$[rbp]
  00035	e8 00 00 00 00	 call	 ??1exception@std@@UEAA@XZ ; std::exception::~exception
  0003a	8b 85 e8 00 00
	00		 mov	 eax, DWORD PTR __flags$[rbp]
  00040	83 e0 01	 and	 eax, 1
  00043	85 c0		 test	 eax, eax
  00045	74 11		 je	 SHORT $LN2@scalar
  00047	ba 18 00 00 00	 mov	 edx, 24
  0004c	48 8b 8d e0 00
	00 00		 mov	 rcx, QWORD PTR this$[rbp]
  00053	e8 00 00 00 00	 call	 ??3@YAXPEAX_K@Z		; operator delete
$LN2@scalar:
  00058	48 8b 85 e0 00
	00 00		 mov	 rax, QWORD PTR this$[rbp]
  0005f	48 8d a5 c8 00
	00 00		 lea	 rsp, QWORD PTR [rbp+200]
  00066	5f		 pop	 rdi
  00067	5d		 pop	 rbp
  00068	c3		 ret	 0
??_Gexception@std@@UEAAPEAXI@Z ENDP			; std::exception::`scalar deleting destructor'
_TEXT	ENDS
; Function compile flags: /Odtp /RTCsu /ZI
; File C:\Program Files (x86)\Microsoft Visual Studio\2019\Enterprise\VC\Tools\MSVC\14.27.29110\include\vcruntime_exception.h
;	COMDAT ?what@exception@std@@UEBAPEBDXZ
_TEXT	SEGMENT
tv69 = 192
this$ = 240
?what@exception@std@@UEBAPEBDXZ PROC			; std::exception::what, COMDAT

; 94   :     {

$LN5:
  00000	48 89 4c 24 08	 mov	 QWORD PTR [rsp+8], rcx
  00005	55		 push	 rbp
  00006	57		 push	 rdi
  00007	48 81 ec f8 00
	00 00		 sub	 rsp, 248		; 000000f8H
  0000e	48 8d 6c 24 20	 lea	 rbp, QWORD PTR [rsp+32]
  00013	48 8b fc	 mov	 rdi, rsp
  00016	b9 3e 00 00 00	 mov	 ecx, 62			; 0000003eH
  0001b	b8 cc cc cc cc	 mov	 eax, -858993460		; ccccccccH
  00020	f3 ab		 rep stosd
  00022	48 8b 8c 24 18
	01 00 00	 mov	 rcx, QWORD PTR [rsp+280]
  0002a	48 8d 0d 00 00
	00 00		 lea	 rcx, OFFSET FLAT:__18D87206_vcruntime_exception@h
  00031	e8 00 00 00 00	 call	 __CheckForDebuggerJustMyCode

; 95   :         return _Data._What ? _Data._What : "Unknown exception";

  00036	48 8b 85 f0 00
	00 00		 mov	 rax, QWORD PTR this$[rbp]
  0003d	48 83 78 08 00	 cmp	 QWORD PTR [rax+8], 0
  00042	74 14		 je	 SHORT $LN3@what
  00044	48 8b 85 f0 00
	00 00		 mov	 rax, QWORD PTR this$[rbp]
  0004b	48 8b 40 08	 mov	 rax, QWORD PTR [rax+8]
  0004f	48 89 85 c0 00
	00 00		 mov	 QWORD PTR tv69[rbp], rax
  00056	eb 0e		 jmp	 SHORT $LN4@what
$LN3@what:
  00058	48 8d 05 00 00
	00 00		 lea	 rax, OFFSET FLAT:??_C@_0BC@EOODALEL@Unknown?5exception@
  0005f	48 89 85 c0 00
	00 00		 mov	 QWORD PTR tv69[rbp], rax
$LN4@what:
  00066	48 8b 85 c0 00
	00 00		 mov	 rax, QWORD PTR tv69[rbp]

; 96   :     }

  0006d	48 8d a5 d8 00
	00 00		 lea	 rsp, QWORD PTR [rbp+216]
  00074	5f		 pop	 rdi
  00075	5d		 pop	 rbp
  00076	c3		 ret	 0
?what@exception@std@@UEBAPEBDXZ ENDP			; std::exception::what
_TEXT	ENDS
; Function compile flags: /Odtp /RTCsu /ZI
; File C:\Program Files (x86)\Microsoft Visual Studio\2019\Enterprise\VC\Tools\MSVC\14.27.29110\include\vcruntime_exception.h
;	COMDAT ??1exception@std@@UEAA@XZ
_TEXT	SEGMENT
this$ = 224
??1exception@std@@UEAA@XZ PROC				; std::exception::~exception, COMDAT

; 89   :     {

$LN3:
  00000	48 89 4c 24 08	 mov	 QWORD PTR [rsp+8], rcx
  00005	55		 push	 rbp
  00006	57		 push	 rdi
  00007	48 81 ec e8 00
	00 00		 sub	 rsp, 232		; 000000e8H
  0000e	48 8d 6c 24 20	 lea	 rbp, QWORD PTR [rsp+32]
  00013	48 8b fc	 mov	 rdi, rsp
  00016	b9 3a 00 00 00	 mov	 ecx, 58			; 0000003aH
  0001b	b8 cc cc cc cc	 mov	 eax, -858993460		; ccccccccH
  00020	f3 ab		 rep stosd
  00022	48 8b 8c 24 08
	01 00 00	 mov	 rcx, QWORD PTR [rsp+264]
  0002a	48 8d 0d 00 00
	00 00		 lea	 rcx, OFFSET FLAT:__18D87206_vcruntime_exception@h
  00031	e8 00 00 00 00	 call	 __CheckForDebuggerJustMyCode
  00036	48 8b 85 e0 00
	00 00		 mov	 rax, QWORD PTR this$[rbp]
  0003d	48 8d 0d 00 00
	00 00		 lea	 rcx, OFFSET FLAT:??_7exception@std@@6B@
  00044	48 89 08	 mov	 QWORD PTR [rax], rcx

; 90   :         __std_exception_destroy(&_Data);

  00047	48 8b 85 e0 00
	00 00		 mov	 rax, QWORD PTR this$[rbp]
  0004e	48 83 c0 08	 add	 rax, 8
  00052	48 8b c8	 mov	 rcx, rax
  00055	e8 00 00 00 00	 call	 __std_exception_destroy
  0005a	90		 npad	 1

; 91   :     }

  0005b	48 8d a5 c8 00
	00 00		 lea	 rsp, QWORD PTR [rbp+200]
  00062	5f		 pop	 rdi
  00063	5d		 pop	 rbp
  00064	c3		 ret	 0
??1exception@std@@UEAA@XZ ENDP				; std::exception::~exception
_TEXT	ENDS
; Function compile flags: /Odtp /RTCsu /ZI
; File C:\Program Files (x86)\Microsoft Visual Studio\2019\Enterprise\VC\Tools\MSVC\14.27.29110\include\vcruntime_exception.h
;	COMDAT ??0exception@std@@QEAA@AEBV01@@Z
_TEXT	SEGMENT
this$ = 224
_Other$ = 232
??0exception@std@@QEAA@AEBV01@@Z PROC			; std::exception::exception, COMDAT

; 72   :     {

$LN3:
  00000	48 89 54 24 10	 mov	 QWORD PTR [rsp+16], rdx
  00005	48 89 4c 24 08	 mov	 QWORD PTR [rsp+8], rcx
  0000a	55		 push	 rbp
  0000b	57		 push	 rdi
  0000c	48 81 ec e8 00
	00 00		 sub	 rsp, 232		; 000000e8H
  00013	48 8d 6c 24 20	 lea	 rbp, QWORD PTR [rsp+32]
  00018	48 8b fc	 mov	 rdi, rsp
  0001b	b9 3a 00 00 00	 mov	 ecx, 58			; 0000003aH
  00020	b8 cc cc cc cc	 mov	 eax, -858993460		; ccccccccH
  00025	f3 ab		 rep stosd
  00027	48 8b 8c 24 08
	01 00 00	 mov	 rcx, QWORD PTR [rsp+264]
  0002f	48 8d 0d 00 00
	00 00		 lea	 rcx, OFFSET FLAT:__18D87206_vcruntime_exception@h
  00036	e8 00 00 00 00	 call	 __CheckForDebuggerJustMyCode
  0003b	48 8b 85 e0 00
	00 00		 mov	 rax, QWORD PTR this$[rbp]
  00042	48 8d 0d 00 00
	00 00		 lea	 rcx, OFFSET FLAT:??_7exception@std@@6B@
  00049	48 89 08	 mov	 QWORD PTR [rax], rcx

; 71   :         : _Data()

  0004c	48 8b 85 e0 00
	00 00		 mov	 rax, QWORD PTR this$[rbp]
  00053	48 83 c0 08	 add	 rax, 8
  00057	48 8b f8	 mov	 rdi, rax
  0005a	33 c0		 xor	 eax, eax
  0005c	b9 10 00 00 00	 mov	 ecx, 16
  00061	f3 aa		 rep stosb

; 73   :         __std_exception_copy(&_Other._Data, &_Data);

  00063	48 8b 85 e0 00
	00 00		 mov	 rax, QWORD PTR this$[rbp]
  0006a	48 83 c0 08	 add	 rax, 8
  0006e	48 8b 8d e8 00
	00 00		 mov	 rcx, QWORD PTR _Other$[rbp]
  00075	48 83 c1 08	 add	 rcx, 8
  00079	48 8b d0	 mov	 rdx, rax
  0007c	e8 00 00 00 00	 call	 __std_exception_copy

; 74   :     }

  00081	48 8b 85 e0 00
	00 00		 mov	 rax, QWORD PTR this$[rbp]
  00088	48 8d a5 c8 00
	00 00		 lea	 rsp, QWORD PTR [rbp+200]
  0008f	5f		 pop	 rdi
  00090	5d		 pop	 rbp
  00091	c3		 ret	 0
??0exception@std@@QEAA@AEBV01@@Z ENDP			; std::exception::exception
_TEXT	ENDS
; Function compile flags: /Odtp /RTCsu /ZI
; File C:\Program Files (x86)\Microsoft Visual Studio\2019\Enterprise\VC\Tools\MSVC\14.27.29110\include\vcruntime_exception.h
;	COMDAT ??0exception@std@@QEAA@QEBDH@Z
_TEXT	SEGMENT
this$ = 224
_Message$ = 232
__formal$ = 240
??0exception@std@@QEAA@QEBDH@Z PROC			; std::exception::exception, COMDAT

; 66   :     {

$LN3:
  00000	44 89 44 24 18	 mov	 DWORD PTR [rsp+24], r8d
  00005	48 89 54 24 10	 mov	 QWORD PTR [rsp+16], rdx
  0000a	48 89 4c 24 08	 mov	 QWORD PTR [rsp+8], rcx
  0000f	55		 push	 rbp
  00010	57		 push	 rdi
  00011	48 81 ec e8 00
	00 00		 sub	 rsp, 232		; 000000e8H
  00018	48 8d 6c 24 20	 lea	 rbp, QWORD PTR [rsp+32]
  0001d	48 8b fc	 mov	 rdi, rsp
  00020	b9 3a 00 00 00	 mov	 ecx, 58			; 0000003aH
  00025	b8 cc cc cc cc	 mov	 eax, -858993460		; ccccccccH
  0002a	f3 ab		 rep stosd
  0002c	48 8b 8c 24 08
	01 00 00	 mov	 rcx, QWORD PTR [rsp+264]
  00034	48 8d 0d 00 00
	00 00		 lea	 rcx, OFFSET FLAT:__18D87206_vcruntime_exception@h
  0003b	e8 00 00 00 00	 call	 __CheckForDebuggerJustMyCode
  00040	48 8b 85 e0 00
	00 00		 mov	 rax, QWORD PTR this$[rbp]
  00047	48 8d 0d 00 00
	00 00		 lea	 rcx, OFFSET FLAT:??_7exception@std@@6B@
  0004e	48 89 08	 mov	 QWORD PTR [rax], rcx

; 65   :         : _Data()

  00051	48 8b 85 e0 00
	00 00		 mov	 rax, QWORD PTR this$[rbp]
  00058	48 83 c0 08	 add	 rax, 8
  0005c	48 8b f8	 mov	 rdi, rax
  0005f	33 c0		 xor	 eax, eax
  00061	b9 10 00 00 00	 mov	 ecx, 16
  00066	f3 aa		 rep stosb

; 67   :         _Data._What = _Message;

  00068	48 8b 85 e0 00
	00 00		 mov	 rax, QWORD PTR this$[rbp]
  0006f	48 8b 8d e8 00
	00 00		 mov	 rcx, QWORD PTR _Message$[rbp]
  00076	48 89 48 08	 mov	 QWORD PTR [rax+8], rcx

; 68   :     }

  0007a	48 8b 85 e0 00
	00 00		 mov	 rax, QWORD PTR this$[rbp]
  00081	48 8d a5 c8 00
	00 00		 lea	 rsp, QWORD PTR [rbp+200]
  00088	5f		 pop	 rdi
  00089	5d		 pop	 rbp
  0008a	c3		 ret	 0
??0exception@std@@QEAA@QEBDH@Z ENDP			; std::exception::exception
_TEXT	ENDS
; Function compile flags: /Odtp /RTCsu /ZI
; File C:\Program Files (x86)\Microsoft Visual Studio\2019\Enterprise\VC\Tools\MSVC\14.27.29110\include\limits
;	COMDAT ?max@?$numeric_limits@_J@std@@SA_JXZ
_TEXT	SEGMENT
?max@?$numeric_limits@_J@std@@SA_JXZ PROC		; std::numeric_limits<__int64>::max, COMDAT

; 645  :     _NODISCARD static constexpr long long(max)() noexcept {

$LN3:
  00000	40 55		 push	 rbp
  00002	57		 push	 rdi
  00003	48 81 ec e8 00
	00 00		 sub	 rsp, 232		; 000000e8H
  0000a	48 8d 6c 24 20	 lea	 rbp, QWORD PTR [rsp+32]
  0000f	48 8b fc	 mov	 rdi, rsp
  00012	b9 3a 00 00 00	 mov	 ecx, 58			; 0000003aH
  00017	b8 cc cc cc cc	 mov	 eax, -858993460		; ccccccccH
  0001c	f3 ab		 rep stosd
  0001e	48 8d 0d 00 00
	00 00		 lea	 rcx, OFFSET FLAT:__5E219BC0_limits
  00025	e8 00 00 00 00	 call	 __CheckForDebuggerJustMyCode

; 646  :         return LLONG_MAX;

  0002a	48 b8 ff ff ff
	ff ff ff ff 7f	 mov	 rax, 9223372036854775807 ; 7fffffffffffffffH

; 647  :     }

  00034	48 8d a5 c8 00
	00 00		 lea	 rsp, QWORD PTR [rbp+200]
  0003b	5f		 pop	 rdi
  0003c	5d		 pop	 rbp
  0003d	c3		 ret	 0
?max@?$numeric_limits@_J@std@@SA_JXZ ENDP		; std::numeric_limits<__int64>::max
_TEXT	ENDS
; Function compile flags: /Odtp /RTCsu /ZI
; File C:\Program Files (x86)\Microsoft Visual Studio\2019\Enterprise\VC\Tools\MSVC\14.27.29110\include\vcruntime_new.h
;	COMDAT ??2@YAPEAX_KPEAX@Z
_TEXT	SEGMENT
_Size$ = 224
_Where$ = 232
??2@YAPEAX_KPEAX@Z PROC					; operator new, COMDAT

; 167  :     {

$LN4:
  00000	48 89 54 24 10	 mov	 QWORD PTR [rsp+16], rdx
  00005	48 89 4c 24 08	 mov	 QWORD PTR [rsp+8], rcx
  0000a	55		 push	 rbp
  0000b	57		 push	 rdi
  0000c	48 81 ec e8 00
	00 00		 sub	 rsp, 232		; 000000e8H
  00013	48 8d 6c 24 20	 lea	 rbp, QWORD PTR [rsp+32]
  00018	48 8b fc	 mov	 rdi, rsp
  0001b	b9 3a 00 00 00	 mov	 ecx, 58			; 0000003aH
  00020	b8 cc cc cc cc	 mov	 eax, -858993460		; ccccccccH
  00025	f3 ab		 rep stosd
  00027	48 8b 8c 24 08
	01 00 00	 mov	 rcx, QWORD PTR [rsp+264]
  0002f	48 8d 0d 00 00
	00 00		 lea	 rcx, OFFSET FLAT:__FC8B975D_vcruntime_new@h
  00036	e8 00 00 00 00	 call	 __CheckForDebuggerJustMyCode

; 168  :         (void)_Size;
; 169  :         return _Where;

  0003b	48 8b 85 e8 00
	00 00		 mov	 rax, QWORD PTR _Where$[rbp]

; 170  :     }

  00042	48 8d a5 c8 00
	00 00		 lea	 rsp, QWORD PTR [rbp+200]
  00049	5f		 pop	 rdi
  0004a	5d		 pop	 rbp
  0004b	c3		 ret	 0
??2@YAPEAX_KPEAX@Z ENDP					; operator new
_TEXT	ENDS
; Function compile flags: /Odtp /RTCsu /ZI
; File C:\Program Files (x86)\Windows Kits\10\Include\10.0.18362.0\ucrt\wchar.h
;	COMDAT wmemcpy
_TEXT	SEGMENT
_S1$ = 224
_S2$ = 232
_N$ = 240
wmemcpy	PROC						; COMDAT

; 230  :     {

$LN4:
  00000	4c 89 44 24 18	 mov	 QWORD PTR [rsp+24], r8
  00005	48 89 54 24 10	 mov	 QWORD PTR [rsp+16], rdx
  0000a	48 89 4c 24 08	 mov	 QWORD PTR [rsp+8], rcx
  0000f	55		 push	 rbp
  00010	57		 push	 rdi
  00011	48 81 ec e8 00
	00 00		 sub	 rsp, 232		; 000000e8H
  00018	48 8d 6c 24 20	 lea	 rbp, QWORD PTR [rsp+32]
  0001d	48 8b fc	 mov	 rdi, rsp
  00020	b9 3a 00 00 00	 mov	 ecx, 58			; 0000003aH
  00025	b8 cc cc cc cc	 mov	 eax, -858993460		; ccccccccH
  0002a	f3 ab		 rep stosd
  0002c	48 8b 8c 24 08
	01 00 00	 mov	 rcx, QWORD PTR [rsp+264]
  00034	48 8d 0d 00 00
	00 00		 lea	 rcx, OFFSET FLAT:__534C724A_wchar@h
  0003b	e8 00 00 00 00	 call	 __CheckForDebuggerJustMyCode

; 231  :         #pragma warning(push)
; 232  :         #pragma warning(disable : 4995 4996 6386)
; 233  :         return (wchar_t*)memcpy(_S1, _S2, _N*sizeof(wchar_t));

  00040	48 8b 85 f0 00
	00 00		 mov	 rax, QWORD PTR _N$[rbp]
  00047	48 d1 e0	 shl	 rax, 1
  0004a	4c 8b c0	 mov	 r8, rax
  0004d	48 8b 95 e8 00
	00 00		 mov	 rdx, QWORD PTR _S2$[rbp]
  00054	48 8b 8d e0 00
	00 00		 mov	 rcx, QWORD PTR _S1$[rbp]
  0005b	e8 00 00 00 00	 call	 memcpy

; 234  :         #pragma warning(pop)
; 235  :     }

  00060	48 8d a5 c8 00
	00 00		 lea	 rsp, QWORD PTR [rbp+200]
  00067	5f		 pop	 rdi
  00068	5d		 pop	 rbp
  00069	c3		 ret	 0
wmemcpy	ENDP
_TEXT	ENDS
; Function compile flags: /Odtp /RTCsu /ZI
; File C:\Users\Skvortsoff\OneDrive\\GitHub\course_LP\course_LP\PN.cpp
;	COMDAT ?__empty_global_delete@@YAXPEAX_K@Z
_TEXT	SEGMENT
__formal$ = 224
__formal$ = 232
?__empty_global_delete@@YAXPEAX_K@Z PROC		; __empty_global_delete, COMDAT

$LN4:
  00000	48 89 54 24 10	 mov	 QWORD PTR [rsp+16], rdx
  00005	48 89 4c 24 08	 mov	 QWORD PTR [rsp+8], rcx
  0000a	55		 push	 rbp
  0000b	57		 push	 rdi
  0000c	48 81 ec e8 00
	00 00		 sub	 rsp, 232		; 000000e8H
  00013	48 8d 6c 24 20	 lea	 rbp, QWORD PTR [rsp+32]
  00018	48 8b fc	 mov	 rdi, rsp
  0001b	b9 3a 00 00 00	 mov	 ecx, 58			; 0000003aH
  00020	b8 cc cc cc cc	 mov	 eax, -858993460		; ccccccccH
  00025	f3 ab		 rep stosd
  00027	48 8b 8c 24 08
	01 00 00	 mov	 rcx, QWORD PTR [rsp+264]
  0002f	48 8d 0d 00 00
	00 00		 lea	 rcx, OFFSET FLAT:__22FDF990_PN@cpp
  00036	e8 00 00 00 00	 call	 __CheckForDebuggerJustMyCode
  0003b	48 8d a5 c8 00
	00 00		 lea	 rsp, QWORD PTR [rbp+200]
  00042	5f		 pop	 rdi
  00043	5d		 pop	 rbp
  00044	c3		 ret	 0
?__empty_global_delete@@YAXPEAX_K@Z ENDP		; __empty_global_delete
_TEXT	ENDS
; Function compile flags: /Odtp /RTCsu /ZI
; File C:\Users\Skvortsoff\OneDrive\\GitHub\course_LP\course_LP\PN.cpp
;	COMDAT ?__empty_global_delete@@YAXPEAX@Z
_TEXT	SEGMENT
__formal$ = 224
?__empty_global_delete@@YAXPEAX@Z PROC			; __empty_global_delete, COMDAT

$LN4:
  00000	48 89 4c 24 08	 mov	 QWORD PTR [rsp+8], rcx
  00005	55		 push	 rbp
  00006	57		 push	 rdi
  00007	48 81 ec e8 00
	00 00		 sub	 rsp, 232		; 000000e8H
  0000e	48 8d 6c 24 20	 lea	 rbp, QWORD PTR [rsp+32]
  00013	48 8b fc	 mov	 rdi, rsp
  00016	b9 3a 00 00 00	 mov	 ecx, 58			; 0000003aH
  0001b	b8 cc cc cc cc	 mov	 eax, -858993460		; ccccccccH
  00020	f3 ab		 rep stosd
  00022	48 8b 8c 24 08
	01 00 00	 mov	 rcx, QWORD PTR [rsp+264]
  0002a	48 8d 0d 00 00
	00 00		 lea	 rcx, OFFSET FLAT:__22FDF990_PN@cpp
  00031	e8 00 00 00 00	 call	 __CheckForDebuggerJustMyCode
  00036	48 8d a5 c8 00
	00 00		 lea	 rsp, QWORD PTR [rbp+200]
  0003d	5f		 pop	 rdi
  0003e	5d		 pop	 rbp
  0003f	c3		 ret	 0
?__empty_global_delete@@YAXPEAX@Z ENDP			; __empty_global_delete
_TEXT	ENDS
END
