; Listing generated by Microsoft (R) Optimizing Compiler Version 19.27.29112.0 

include listing.inc

INCLUDELIB MSVCRTD
INCLUDELIB OLDNAMES

msvcjmc	SEGMENT
__367CC694_corecrt_memcpy_s@h DB 01H
__F66CEB67_corecrt_stdio_config@h DB 01H
__5467428D_corecrt_wconio@h DB 01H
__4442441F_corecrt_wio@h DB 01H
__101834BA_corecrt_wstdio@h DB 01H
__DC9673E3_corecrt_wstring@h DB 01H
__45F4AF76_corecrt_wtime@h DB 01H
__186FF47F_stat@h DB 01H
__534C724A_wchar@h DB 01H
__62A468D7_tchar@h DB 01H
__FC8B975D_vcruntime_new@h DB 01H
__AD6A91B7_stdio@h DB 01H
__09340588_corecrt_math@h DB 01H
__24E9E95F_stdlib@h DB 01H
__51019776_cstdlib DB 01H
__5E219BC0_limits DB 01H
__B236D4B0_type_traits DB 01H
__B0C4CEA9_malloc@h DB 01H
__18D87206_vcruntime_exception@h DB 01H
__1302BCB8_exception DB 01H
__35D7DDB3_corecrt_memory@h DB 01H
__A29A7DFB_string@h DB 01H
__36E77527_xutility DB 01H
__0C99713E_xmemory DB 01H
__784AF7A2_xstring DB 01H
__7242C389_ctype@h DB 01H
__965C11D2_string DB 01H
__8AA3BE86_time@h DB 01H
__9A4C86E5_stdexcept DB 01H
__238A5427_xcall_once@h DB 01H
__3514C702_atomic DB 01H
__9CD74607_system_error DB 01H
__7B3ADE64_vcruntime_typeinfo@h DB 01H
__4638863E_typeinfo DB 01H
__E28F974E_memory DB 01H
__CECAC041_xfacet DB 01H
__59B165F6_xlocinfo DB 01H
__A7748393_xlocale DB 01H
__605412E5_xiosbase DB 01H
__8B7874EF_xlocmes DB 01H
__102707BA_cmath DB 01H
__39F3E584_xlocnum DB 01H
__1291F0BC_xlocmon DB 01H
__FDACCCE4_xloctime DB 01H
__D3011E72_ios DB 01H
__21FC1C84_fstream DB 01H
__7CEFA1A0_LT@h DB 01H
__4B315192_IT@h DB 01H
__BE522193_DP@h DB 01H
__20961129_GRB@h DB 01H
__22E0C0CC_MFST@h DB 01H
__26391CEF_SA@cpp DB 01H
__D7B46C6D_istream DB 01H
__B4645957_ostream DB 01H
__496265E3_locale DB 01H
__98EC3E59_streambuf DB 01H
__274BC267_iterator DB 01H
__92C84E46_iosfwd DB 01H
__660C12FD_utility DB 01H
__911385EF_xstddef DB 01H
__190E306E_xatomic@h DB 01H
msvcjmc	ENDS
PUBLIC	?__empty_global_delete@@YAXPEAX@Z		; __empty_global_delete
PUBLIC	?__empty_global_delete@@YAXPEAX_K@Z		; __empty_global_delete
PUBLIC	wmemcpy
PUBLIC	??$_Maklocstr@_W@std@@YAPEA_WPEBDPEA_WAEBU_Cvtvec@@@Z ; std::_Maklocstr<wchar_t>
PUBLIC	?_Maklocwcs@std@@YAPEA_WPEB_W@Z			; std::_Maklocwcs
PUBLIC	??$_Maklocstr@D@std@@YAPEADPEBDPEADAEBU_Cvtvec@@@Z ; std::_Maklocstr<char>
PUBLIC	??$_Getvals@_W@?$time_get@DV?$istreambuf_iterator@DU?$char_traits@D@std@@@std@@@std@@IEAAX_WAEBV_Locinfo@1@@Z ; std::time_get<char,std::istreambuf_iterator<char,std::char_traits<char> > >::_Getvals<wchar_t>
PUBLIC	??$_Getvals@_W@?$time_get@_WV?$istreambuf_iterator@_WU?$char_traits@_W@std@@@std@@@std@@IEAAX_WAEBV_Locinfo@1@@Z ; std::time_get<wchar_t,std::istreambuf_iterator<wchar_t,std::char_traits<wchar_t> > >::_Getvals<wchar_t>
PUBLIC	?SemanticAnalises@SA@@YAXPEAULexTable@LT@@PEAUIdTable@IT@@@Z ; SA::SemanticAnalises
PUBLIC	__JustMyCode_Default
PUBLIC	??_C@_0GJ@OPFKIEFE@C?3?2Program?5Files?5?$CIx86?$CJ?2Microsof@ ; `string'
PUBLIC	?__LINE__Var@?0??_Maklocwcs@std@@YAPEA_WPEB_W@Z@4JA ; `std::_Maklocwcs'::`1'::__LINE__Var
PUBLIC	??_C@_0GJ@GMBHIGPF@C?3?2Program?5Files?5?$CIx86?$CJ?2Microsof@ ; `string'
PUBLIC	_TI1?AUERROR@Error@@
PUBLIC	_CTA1?AUERROR@Error@@
PUBLIC	??_R0?AUERROR@Error@@@8				; Error::ERROR `RTTI Type Descriptor'
PUBLIC	_CT??_R0?AUERROR@Error@@@8208
PUBLIC	??_C@_06GICABBBG@strlen@			; `string'
PUBLIC	??_C@_06IHGHFDEH@strcat@			; `string'
PUBLIC	??_C@_07PBBEKODA@strcopy@			; `string'
PUBLIC	??_C@_06NLFCANPD@random@			; `string'
PUBLIC	??_C@_0N@LPFKKEBD@?3AM?3am?3PM?3pm@		; `string'
PUBLIC	??_C@_1BK@MHIKGOKE@?$AA?3?$AAA?$AAM?$AA?3?$AAa?$AAm?$AA?3?$AAP?$AAM?$AA?3?$AAp?$AAm@ ; `string'
EXTRN	memcpy:PROC
EXTRN	__imp_wcslen:PROC
EXTRN	__imp__calloc_dbg:PROC
EXTRN	strcmp:PROC
EXTRN	strlen:PROC
EXTRN	?_Xbad_alloc@std@@YAXXZ:PROC			; std::_Xbad_alloc
EXTRN	_Mbrtowc:PROC
EXTRN	__imp_?_Getcvt@_Locinfo@std@@QEBA?AU_Cvtvec@@XZ:PROC
EXTRN	__imp_?_Getdays@_Locinfo@std@@QEBAPEBDXZ:PROC
EXTRN	__imp_?_Getmonths@_Locinfo@std@@QEBAPEBDXZ:PROC
EXTRN	__imp_?_W_Getdays@_Locinfo@std@@QEBAPEBGXZ:PROC
EXTRN	__imp_?_W_Getmonths@_Locinfo@std@@QEBAPEBGXZ:PROC
EXTRN	?geterrorline@Error@@YA?AUERROR@1@HH@Z:PROC	; Error::geterrorline
EXTRN	_CxxThrowException:PROC
EXTRN	_RTC_CheckStackVars:PROC
EXTRN	_RTC_InitBase:PROC
EXTRN	_RTC_Shutdown:PROC
EXTRN	__CheckForDebuggerJustMyCode:PROC
EXTRN	__GSHandlerCheck:PROC
EXTRN	__chkstk:PROC
EXTRN	__security_check_cookie:PROC
EXTRN	??_7type_info@@6B@:BYTE				; type_info::`vftable'
EXTRN	__security_cookie:QWORD
;	COMDAT pdata
pdata	SEGMENT
$pdata$?__empty_global_delete@@YAXPEAX@Z DD imagerel $LN4
	DD	imagerel $LN4+64
	DD	imagerel $unwind$?__empty_global_delete@@YAXPEAX@Z
pdata	ENDS
;	COMDAT pdata
pdata	SEGMENT
$pdata$?__empty_global_delete@@YAXPEAX_K@Z DD imagerel $LN4
	DD	imagerel $LN4+69
	DD	imagerel $unwind$?__empty_global_delete@@YAXPEAX_K@Z
pdata	ENDS
;	COMDAT pdata
pdata	SEGMENT
$pdata$wmemcpy DD imagerel $LN4
	DD	imagerel $LN4+106
	DD	imagerel $unwind$wmemcpy
pdata	ENDS
;	COMDAT pdata
pdata	SEGMENT
$pdata$??$_Maklocstr@_W@std@@YAPEA_WPEBDPEA_WAEBU_Cvtvec@@@Z DD imagerel $LN12
	DD	imagerel $LN12+584
	DD	imagerel $unwind$??$_Maklocstr@_W@std@@YAPEA_WPEBDPEA_WAEBU_Cvtvec@@@Z
pdata	ENDS
;	COMDAT pdata
pdata	SEGMENT
$pdata$?_Maklocwcs@std@@YAPEA_WPEB_W@Z DD imagerel $LN4
	DD	imagerel $LN4+165
	DD	imagerel $unwind$?_Maklocwcs@std@@YAPEA_WPEB_W@Z
pdata	ENDS
;	COMDAT pdata
pdata	SEGMENT
$pdata$??$_Maklocstr@D@std@@YAPEADPEBDPEADAEBU_Cvtvec@@@Z DD imagerel $LN7
	DD	imagerel $LN7+223
	DD	imagerel $unwind$??$_Maklocstr@D@std@@YAPEADPEBDPEADAEBU_Cvtvec@@@Z
pdata	ENDS
;	COMDAT pdata
pdata	SEGMENT
$pdata$??$_Getvals@_W@?$time_get@DV?$istreambuf_iterator@DU?$char_traits@D@std@@@std@@@std@@IEAAX_WAEBV_Locinfo@1@@Z DD imagerel $LN5
	DD	imagerel $LN5+379
	DD	imagerel $unwind$??$_Getvals@_W@?$time_get@DV?$istreambuf_iterator@DU?$char_traits@D@std@@@std@@@std@@IEAAX_WAEBV_Locinfo@1@@Z
pdata	ENDS
;	COMDAT pdata
pdata	SEGMENT
$pdata$??$_Getvals@_W@?$time_get@_WV?$istreambuf_iterator@_WU?$char_traits@_W@std@@@std@@@std@@IEAAX_WAEBV_Locinfo@1@@Z DD imagerel $LN5
	DD	imagerel $LN5+379
	DD	imagerel $unwind$??$_Getvals@_W@?$time_get@_WV?$istreambuf_iterator@_WU?$char_traits@_W@std@@@std@@@std@@IEAAX_WAEBV_Locinfo@1@@Z
pdata	ENDS
;	COMDAT pdata
pdata	SEGMENT
$pdata$?SemanticAnalises@SA@@YAXPEAULexTable@LT@@PEAUIdTable@IT@@@Z DD imagerel $LN139
	DD	imagerel $LN139+4053
	DD	imagerel $unwind$?SemanticAnalises@SA@@YAXPEAULexTable@LT@@PEAUIdTable@IT@@@Z
pdata	ENDS
;	COMDAT rtc$TMZ
rtc$TMZ	SEGMENT
_RTC_Shutdown.rtc$TMZ DQ FLAT:_RTC_Shutdown
rtc$TMZ	ENDS
;	COMDAT rtc$IMZ
rtc$IMZ	SEGMENT
_RTC_InitBase.rtc$IMZ DQ FLAT:_RTC_InitBase
rtc$IMZ	ENDS
;	COMDAT ??_C@_1BK@MHIKGOKE@?$AA?3?$AAA?$AAM?$AA?3?$AAa?$AAm?$AA?3?$AAP?$AAM?$AA?3?$AAp?$AAm@
CONST	SEGMENT
??_C@_1BK@MHIKGOKE@?$AA?3?$AAA?$AAM?$AA?3?$AAa?$AAm?$AA?3?$AAP?$AAM?$AA?3?$AAp?$AAm@ DB ':'
	DB	00H, 'A', 00H, 'M', 00H, ':', 00H, 'a', 00H, 'm', 00H, ':', 00H
	DB	'P', 00H, 'M', 00H, ':', 00H, 'p', 00H, 'm', 00H, 00H, 00H ; `string'
CONST	ENDS
;	COMDAT ??_C@_0N@LPFKKEBD@?3AM?3am?3PM?3pm@
CONST	SEGMENT
??_C@_0N@LPFKKEBD@?3AM?3am?3PM?3pm@ DB ':AM:am:PM:pm', 00H ; `string'
CONST	ENDS
;	COMDAT ??_C@_06NLFCANPD@random@
CONST	SEGMENT
??_C@_06NLFCANPD@random@ DB 'random', 00H		; `string'
CONST	ENDS
;	COMDAT ??_C@_07PBBEKODA@strcopy@
CONST	SEGMENT
??_C@_07PBBEKODA@strcopy@ DB 'strcopy', 00H		; `string'
CONST	ENDS
;	COMDAT ??_C@_06IHGHFDEH@strcat@
CONST	SEGMENT
??_C@_06IHGHFDEH@strcat@ DB 'strcat', 00H		; `string'
CONST	ENDS
;	COMDAT ??_C@_06GICABBBG@strlen@
CONST	SEGMENT
??_C@_06GICABBBG@strlen@ DB 'strlen', 00H		; `string'
CONST	ENDS
;	COMDAT _CT??_R0?AUERROR@Error@@@8208
xdata$x	SEGMENT
_CT??_R0?AUERROR@Error@@@8208 DD 00H
	DD	imagerel ??_R0?AUERROR@Error@@@8
	DD	00H
	DD	0ffffffffH
	ORG $+4
	DD	0d0H
	DD	00H
xdata$x	ENDS
;	COMDAT ??_R0?AUERROR@Error@@@8
data$r	SEGMENT
??_R0?AUERROR@Error@@@8 DQ FLAT:??_7type_info@@6B@	; Error::ERROR `RTTI Type Descriptor'
	DQ	0000000000000000H
	DB	'.?AUERROR@Error@@', 00H
data$r	ENDS
;	COMDAT _CTA1?AUERROR@Error@@
xdata$x	SEGMENT
_CTA1?AUERROR@Error@@ DD 01H
	DD	imagerel _CT??_R0?AUERROR@Error@@@8208
xdata$x	ENDS
;	COMDAT _TI1?AUERROR@Error@@
xdata$x	SEGMENT
_TI1?AUERROR@Error@@ DD 00H
	DD	00H
	DD	00H
	DD	imagerel _CTA1?AUERROR@Error@@
xdata$x	ENDS
;	COMDAT ??_C@_0GJ@GMBHIGPF@C?3?2Program?5Files?5?$CIx86?$CJ?2Microsof@
CONST	SEGMENT
??_C@_0GJ@GMBHIGPF@C?3?2Program?5Files?5?$CIx86?$CJ?2Microsof@ DB 'C:\Pro'
	DB	'gram Files (x86)\Microsoft Visual Studio\2019\Enterprise\VC\T'
	DB	'ools\MSVC\14.27.29110\include\xlocnum', 00H	; `string'
CONST	ENDS
;	COMDAT ?__LINE__Var@?0??_Maklocwcs@std@@YAPEA_WPEB_W@Z@4JA
_DATA	SEGMENT
?__LINE__Var@?0??_Maklocwcs@std@@YAPEA_WPEB_W@Z@4JA DD 05aH ; `std::_Maklocwcs'::`1'::__LINE__Var
_DATA	ENDS
;	COMDAT ??_C@_0GJ@OPFKIEFE@C?3?2Program?5Files?5?$CIx86?$CJ?2Microsof@
CONST	SEGMENT
??_C@_0GJ@OPFKIEFE@C?3?2Program?5Files?5?$CIx86?$CJ?2Microsof@ DB 'C:\Pro'
	DB	'gram Files (x86)\Microsoft Visual Studio\2019\Enterprise\VC\T'
	DB	'ools\MSVC\14.27.29110\include\xlocale', 00H	; `string'
CONST	ENDS
;	COMDAT xdata
xdata	SEGMENT
$unwind$?SemanticAnalises@SA@@YAXPEAULexTable@LT@@PEAUIdTable@IT@@@Z DD 025063601H
	DD	011a231fH
	DD	0700d057eH
	DD	0500b600cH
xdata	ENDS
;	COMDAT xdata
xdata	SEGMENT
$unwind$??$_Getvals@_W@?$time_get@_WV?$istreambuf_iterator@_WU?$char_traits@_W@std@@@std@@@std@@IEAAX_WAEBV_Locinfo@1@@Z DD 025063501H
	DD	0119231eH
	DD	070120026H
	DD	050106011H
xdata	ENDS
;	COMDAT xdata
xdata	SEGMENT
$unwind$??$_Getvals@_W@?$time_get@DV?$istreambuf_iterator@DU?$char_traits@D@std@@@std@@@std@@IEAAX_WAEBV_Locinfo@1@@Z DD 025063501H
	DD	0119231eH
	DD	070120026H
	DD	050106011H
xdata	ENDS
;	COMDAT xdata
xdata	SEGMENT
$unwind$??$_Maklocstr@D@std@@YAPEADPEBDPEADAEBU_Cvtvec@@@Z DD 035053401H
	DD	0118331dH
	DD	07011002bH
	DD	05010H
xdata	ENDS
;	COMDAT xdata
xdata	SEGMENT
$unwind$?_Maklocwcs@std@@YAPEA_WPEB_W@Z DD 035052a01H
	DD	010e3313H
	DD	070070027H
	DD	05006H
xdata	ENDS
;	COMDAT xdata
xdata	SEGMENT
$unwind$??$_Maklocstr@_W@std@@YAPEA_WPEBDPEA_WAEBU_Cvtvec@@@Z DD 035054519H
	DD	0118331dH
	DD	070110047H
	DD	05010H
	DD	imagerel __GSHandlerCheck
	DD	0228H
xdata	ENDS
;	COMDAT CONST
CONST	SEGMENT
??$_Maklocstr@_W@std@@YAPEA_WPEBDPEA_WAEBU_Cvtvec@@@Z$rtcName$0 DB 05fH ; std::_Maklocstr<wchar_t>
	DB	057H
	DB	063H
	DB	00H
??$_Maklocstr@_W@std@@YAPEA_WPEBDPEA_WAEBU_Cvtvec@@@Z$rtcName$1 DB 05fH ; std::_Maklocstr<wchar_t>
	DB	04dH
	DB	062H
	DB	073H
	DB	074H
	DB	031H
	DB	00H
	ORG $+1
??$_Maklocstr@_W@std@@YAPEA_WPEBDPEA_WAEBU_Cvtvec@@@Z$rtcName$2 DB 05fH ; std::_Maklocstr<wchar_t>
	DB	04dH
	DB	062H
	DB	073H
	DB	074H
	DB	032H
	DB	00H
	ORG $+13
??$_Maklocstr@_W@std@@YAPEA_WPEBDPEA_WAEBU_Cvtvec@@@Z$rtcVarDesc DD 0158H ; std::_Maklocstr<wchar_t>
	DD	08H
	DQ	FLAT:??$_Maklocstr@_W@std@@YAPEA_WPEBDPEA_WAEBU_Cvtvec@@@Z$rtcName$2
	DD	0f8H
	DD	08H
	DQ	FLAT:??$_Maklocstr@_W@std@@YAPEA_WPEBDPEA_WAEBU_Cvtvec@@@Z$rtcName$1
	DD	0d4H
	DD	02H
	DQ	FLAT:??$_Maklocstr@_W@std@@YAPEA_WPEBDPEA_WAEBU_Cvtvec@@@Z$rtcName$0
	ORG $+144
??$_Maklocstr@_W@std@@YAPEA_WPEBDPEA_WAEBU_Cvtvec@@@Z$rtcFrameData DD 03H ; std::_Maklocstr<wchar_t>
	DD	00H
	DQ	FLAT:??$_Maklocstr@_W@std@@YAPEA_WPEBDPEA_WAEBU_Cvtvec@@@Z$rtcVarDesc
CONST	ENDS
;	COMDAT xdata
xdata	SEGMENT
$unwind$wmemcpy DD 025053401H
	DD	0118231dH
	DD	07011001dH
	DD	05010H
xdata	ENDS
;	COMDAT xdata
xdata	SEGMENT
$unwind$?__empty_global_delete@@YAXPEAX_K@Z DD 025052f01H
	DD	01132318H
	DD	0700c001dH
	DD	0500bH
xdata	ENDS
;	COMDAT xdata
xdata	SEGMENT
$unwind$?__empty_global_delete@@YAXPEAX@Z DD 025052a01H
	DD	010e2313H
	DD	07007001dH
	DD	05006H
xdata	ENDS
; Function compile flags: /Odt
;	COMDAT __JustMyCode_Default
_TEXT	SEGMENT
__JustMyCode_Default PROC				; COMDAT
  00000	c2 00 00	 ret	 0
__JustMyCode_Default ENDP
_TEXT	ENDS
; Function compile flags: /Odtp /RTCsu /ZI
; File C:\Users\Skvortsoff\OneDrive\Документы\GitHub\course_LP\course_LP\SA.cpp
;	COMDAT ?SemanticAnalises@SA@@YAXPEAULexTable@LT@@PEAUIdTable@IT@@@Z
_TEXT	SEGMENT
datatype$ = 4
i$1 = 36
posparam$2 = 68
j$3 = 100
posexpfunc$4 = 132
j$5 = 164
j$6 = 196
j$7 = 228
j$8 = 260
j$9 = 292
$T10 = 1872
$T11 = 2112
$T12 = 2344
$T13 = 2592
$T14 = 2832
$T15 = 3064
$T16 = 3312
$T17 = 3552
$T18 = 3784
$T19 = 4032
$T20 = 4272
$T21 = 4504
$T22 = 4752
$T23 = 4992
$T24 = 5224
$T25 = 5472
$T26 = 5712
$T27 = 5944
$T28 = 6192
$T29 = 6432
$T30 = 6664
$T31 = 6912
$T32 = 7152
$T33 = 7384
$T34 = 7632
$T35 = 7872
$T36 = 8104
$T37 = 8352
$T38 = 8592
$T39 = 8824
$T40 = 9072
$T41 = 9312
$T42 = 9544
$T43 = 9792
$T44 = 10032
$T45 = 10264
$T46 = 10512
$T47 = 10752
$T48 = 10984
tv658 = 11204
tv326 = 11204
tv304 = 11204
tv282 = 11204
tv260 = 11204
tv252 = 11204
tv327 = 11208
tv305 = 11208
tv283 = 11208
tv261 = 11208
lextable$ = 11248
idtable$ = 11256
?SemanticAnalises@SA@@YAXPEAULexTable@LT@@PEAUIdTable@IT@@@Z PROC ; SA::SemanticAnalises, COMDAT

; 5    : 	{

$LN139:
  00000	48 89 54 24 10	 mov	 QWORD PTR [rsp+16], rdx
  00005	48 89 4c 24 08	 mov	 QWORD PTR [rsp+8], rcx
  0000a	55		 push	 rbp
  0000b	56		 push	 rsi
  0000c	57		 push	 rdi
  0000d	b8 f0 2b 00 00	 mov	 eax, 11248		; 00002bf0H
  00012	e8 00 00 00 00	 call	 __chkstk
  00017	48 2b e0	 sub	 rsp, rax
  0001a	48 8d 6c 24 20	 lea	 rbp, QWORD PTR [rsp+32]
  0001f	48 8b fc	 mov	 rdi, rsp
  00022	b9 fc 0a 00 00	 mov	 ecx, 2812		; 00000afcH
  00027	b8 cc cc cc cc	 mov	 eax, -858993460		; ccccccccH
  0002c	f3 ab		 rep stosd
  0002e	48 8b 8c 24 18
	2c 00 00	 mov	 rcx, QWORD PTR [rsp+11288]
  00036	48 8d 0d 00 00
	00 00		 lea	 rcx, OFFSET FLAT:__26391CEF_SA@cpp
  0003d	e8 00 00 00 00	 call	 __CheckForDebuggerJustMyCode

; 6    : 		IT::IDDATATYPE datatype = IT::NUL;

  00042	c7 45 04 00 00
	00 00		 mov	 DWORD PTR datatype$[rbp], 0

; 7    : 
; 8    : 		for (int i = 0; i < lextable->size; i++)

  00049	c7 45 24 00 00
	00 00		 mov	 DWORD PTR i$1[rbp], 0
  00050	eb 08		 jmp	 SHORT $LN4@SemanticAn
$LN2@SemanticAn:
  00052	8b 45 24	 mov	 eax, DWORD PTR i$1[rbp]
  00055	ff c0		 inc	 eax
  00057	89 45 24	 mov	 DWORD PTR i$1[rbp], eax
$LN4@SemanticAn:
  0005a	48 8b 85 f0 2b
	00 00		 mov	 rax, QWORD PTR lextable$[rbp]
  00061	8b 40 04	 mov	 eax, DWORD PTR [rax+4]
  00064	39 45 24	 cmp	 DWORD PTR i$1[rbp], eax
  00067	0f 8d 5d 0f 00
	00		 jge	 $LN3@SemanticAn

; 9    : 		{
; 10   : 
; 11   : 			if (lextable->table[i].lexema[0] == EXPRESSIONS && lextable->table[i].lexema[0] != LEX_WRITE) {

  0006d	48 63 45 24	 movsxd	 rax, DWORD PTR i$1[rbp]
  00071	48 6b c0 10	 imul	 rax, rax, 16
  00075	48 8b 8d f0 2b
	00 00		 mov	 rcx, QWORD PTR lextable$[rbp]
  0007c	48 8b 49 08	 mov	 rcx, QWORD PTR [rcx+8]
  00080	48 03 c8	 add	 rcx, rax
  00083	48 8b c1	 mov	 rax, rcx
  00086	b9 01 00 00 00	 mov	 ecx, 1
  0008b	48 6b c9 00	 imul	 rcx, rcx, 0
  0008f	0f be 04 08	 movsx	 eax, BYTE PTR [rax+rcx]
  00093	83 f8 76	 cmp	 eax, 118		; 00000076H
  00096	0f 85 ba 01 00
	00		 jne	 $LN30@SemanticAn
  0009c	48 63 45 24	 movsxd	 rax, DWORD PTR i$1[rbp]
  000a0	48 6b c0 10	 imul	 rax, rax, 16
  000a4	48 8b 8d f0 2b
	00 00		 mov	 rcx, QWORD PTR lextable$[rbp]
  000ab	48 8b 49 08	 mov	 rcx, QWORD PTR [rcx+8]
  000af	48 03 c8	 add	 rcx, rax
  000b2	48 8b c1	 mov	 rax, rcx
  000b5	b9 01 00 00 00	 mov	 ecx, 1
  000ba	48 6b c9 00	 imul	 rcx, rcx, 0
  000be	0f be 04 08	 movsx	 eax, BYTE PTR [rax+rcx]
  000c2	83 f8 77	 cmp	 eax, 119		; 00000077H
  000c5	0f 84 8b 01 00
	00		 je	 $LN30@SemanticAn

; 12   : 				for (; lextable->table[i].lexema[0] != LEX_SEMICOLON && lextable->table[i].lexema[0] != LEX_WRITE; i++) {

  000cb	eb 08		 jmp	 SHORT $LN7@SemanticAn
$LN5@SemanticAn:
  000cd	8b 45 24	 mov	 eax, DWORD PTR i$1[rbp]
  000d0	ff c0		 inc	 eax
  000d2	89 45 24	 mov	 DWORD PTR i$1[rbp], eax
$LN7@SemanticAn:
  000d5	48 63 45 24	 movsxd	 rax, DWORD PTR i$1[rbp]
  000d9	48 6b c0 10	 imul	 rax, rax, 16
  000dd	48 8b 8d f0 2b
	00 00		 mov	 rcx, QWORD PTR lextable$[rbp]
  000e4	48 8b 49 08	 mov	 rcx, QWORD PTR [rcx+8]
  000e8	48 03 c8	 add	 rcx, rax
  000eb	48 8b c1	 mov	 rax, rcx
  000ee	b9 01 00 00 00	 mov	 ecx, 1
  000f3	48 6b c9 00	 imul	 rcx, rcx, 0
  000f7	0f be 04 08	 movsx	 eax, BYTE PTR [rax+rcx]
  000fb	83 f8 3b	 cmp	 eax, 59			; 0000003bH
  000fe	0f 84 4d 01 00
	00		 je	 $LN6@SemanticAn
  00104	48 63 45 24	 movsxd	 rax, DWORD PTR i$1[rbp]
  00108	48 6b c0 10	 imul	 rax, rax, 16
  0010c	48 8b 8d f0 2b
	00 00		 mov	 rcx, QWORD PTR lextable$[rbp]
  00113	48 8b 49 08	 mov	 rcx, QWORD PTR [rcx+8]
  00117	48 03 c8	 add	 rcx, rax
  0011a	48 8b c1	 mov	 rax, rcx
  0011d	b9 01 00 00 00	 mov	 ecx, 1
  00122	48 6b c9 00	 imul	 rcx, rcx, 0
  00126	0f be 04 08	 movsx	 eax, BYTE PTR [rax+rcx]
  0012a	83 f8 77	 cmp	 eax, 119		; 00000077H
  0012d	0f 84 1e 01 00
	00		 je	 $LN6@SemanticAn

; 13   : 					if (lextable->table[i].lexema[0] == LEX_LEFTHESIS)

  00133	48 63 45 24	 movsxd	 rax, DWORD PTR i$1[rbp]
  00137	48 6b c0 10	 imul	 rax, rax, 16
  0013b	48 8b 8d f0 2b
	00 00		 mov	 rcx, QWORD PTR lextable$[rbp]
  00142	48 8b 49 08	 mov	 rcx, QWORD PTR [rcx+8]
  00146	48 03 c8	 add	 rcx, rax
  00149	48 8b c1	 mov	 rax, rcx
  0014c	b9 01 00 00 00	 mov	 ecx, 1
  00151	48 6b c9 00	 imul	 rcx, rcx, 0
  00155	0f be 04 08	 movsx	 eax, BYTE PTR [rax+rcx]
  00159	83 f8 28	 cmp	 eax, 40			; 00000028H
  0015c	75 05		 jne	 SHORT $LN32@SemanticAn

; 14   : 						break;

  0015e	e9 ee 00 00 00	 jmp	 $LN6@SemanticAn
$LN32@SemanticAn:

; 15   : 					if (lextable->table[i].idxTI != TI_NULLIDX)

  00163	48 63 45 24	 movsxd	 rax, DWORD PTR i$1[rbp]
  00167	48 6b c0 10	 imul	 rax, rax, 16
  0016b	48 8b 8d f0 2b
	00 00		 mov	 rcx, QWORD PTR lextable$[rbp]
  00172	48 8b 49 08	 mov	 rcx, QWORD PTR [rcx+8]
  00176	83 7c 01 0c ff	 cmp	 DWORD PTR [rcx+rax+12], -1 ; ffffffffH
  0017b	0f 84 cb 00 00
	00		 je	 $LN33@SemanticAn

; 16   : 					{
; 17   : 						if (idtable->table[lextable->table[i].idxTI].iddatatype == IT::STR && lextable->table[i].lexema[0] != LEX_WRITE)

  00181	48 63 45 24	 movsxd	 rax, DWORD PTR i$1[rbp]
  00185	48 6b c0 10	 imul	 rax, rax, 16
  00189	48 8b 8d f0 2b
	00 00		 mov	 rcx, QWORD PTR lextable$[rbp]
  00190	48 8b 49 08	 mov	 rcx, QWORD PTR [rcx+8]
  00194	48 63 44 01 0c	 movsxd	 rax, DWORD PTR [rcx+rax+12]
  00199	48 69 c0 50 fe
	00 00		 imul	 rax, rax, 65104		; 0000fe50H
  001a0	48 8b 8d f8 2b
	00 00		 mov	 rcx, QWORD PTR idtable$[rbp]
  001a7	48 8b 49 08	 mov	 rcx, QWORD PTR [rcx+8]
  001ab	83 7c 01 40 02	 cmp	 DWORD PTR [rcx+rax+64], 2
  001b0	0f 85 96 00 00
	00		 jne	 $LN34@SemanticAn
  001b6	48 63 45 24	 movsxd	 rax, DWORD PTR i$1[rbp]
  001ba	48 6b c0 10	 imul	 rax, rax, 16
  001be	48 8b 8d f0 2b
	00 00		 mov	 rcx, QWORD PTR lextable$[rbp]
  001c5	48 8b 49 08	 mov	 rcx, QWORD PTR [rcx+8]
  001c9	48 03 c8	 add	 rcx, rax
  001cc	48 8b c1	 mov	 rax, rcx
  001cf	b9 01 00 00 00	 mov	 ecx, 1
  001d4	48 6b c9 00	 imul	 rcx, rcx, 0
  001d8	0f be 04 08	 movsx	 eax, BYTE PTR [rax+rcx]
  001dc	83 f8 77	 cmp	 eax, 119		; 00000077H
  001df	74 6b		 je	 SHORT $LN34@SemanticAn

; 18   : 							throw ERROR_THROW_LINE(149, lextable->table[i].sn);

  001e1	48 63 45 24	 movsxd	 rax, DWORD PTR i$1[rbp]
  001e5	48 6b c0 10	 imul	 rax, rax, 16
  001e9	48 8b 8d f0 2b
	00 00		 mov	 rcx, QWORD PTR lextable$[rbp]
  001f0	48 8b 49 08	 mov	 rcx, QWORD PTR [rcx+8]
  001f4	44 8b 44 01 08	 mov	 r8d, DWORD PTR [rcx+rax+8]
  001f9	ba 95 00 00 00	 mov	 edx, 149		; 00000095H
  001fe	48 8d 8d 28 09
	00 00		 lea	 rcx, QWORD PTR $T12[rbp]
  00205	e8 00 00 00 00	 call	 ?geterrorline@Error@@YA?AUERROR@1@HH@Z ; Error::geterrorline
  0020a	48 8d 8d 40 08
	00 00		 lea	 rcx, QWORD PTR $T11[rbp]
  00211	48 8b f9	 mov	 rdi, rcx
  00214	48 8b f0	 mov	 rsi, rax
  00217	b9 d0 00 00 00	 mov	 ecx, 208		; 000000d0H
  0021c	f3 a4		 rep movsb
  0021e	48 8d 85 50 07
	00 00		 lea	 rax, QWORD PTR $T10[rbp]
  00225	48 8d 8d 40 08
	00 00		 lea	 rcx, QWORD PTR $T11[rbp]
  0022c	48 8b f8	 mov	 rdi, rax
  0022f	48 8b f1	 mov	 rsi, rcx
  00232	b9 d0 00 00 00	 mov	 ecx, 208		; 000000d0H
  00237	f3 a4		 rep movsb
  00239	48 8d 15 00 00
	00 00		 lea	 rdx, OFFSET FLAT:_TI1?AUERROR@Error@@
  00240	48 8d 8d 50 07
	00 00		 lea	 rcx, QWORD PTR $T10[rbp]
  00247	e8 00 00 00 00	 call	 _CxxThrowException
$LN34@SemanticAn:
$LN33@SemanticAn:

; 19   : 					}
; 20   : 				}

  0024c	e9 7c fe ff ff	 jmp	 $LN5@SemanticAn
$LN6@SemanticAn:

; 21   : 
; 22   : 			}

  00251	e9 6f 0d 00 00	 jmp	 $LN31@SemanticAn
$LN30@SemanticAn:

; 23   : 			
; 24   : 			else if (lextable->table[i].lexema[0] == LEX_ID && lextable->table[i - 1].lexema[0] != LEX_FUNCTION)

  00256	48 63 45 24	 movsxd	 rax, DWORD PTR i$1[rbp]
  0025a	48 6b c0 10	 imul	 rax, rax, 16
  0025e	48 8b 8d f0 2b
	00 00		 mov	 rcx, QWORD PTR lextable$[rbp]
  00265	48 8b 49 08	 mov	 rcx, QWORD PTR [rcx+8]
  00269	48 03 c8	 add	 rcx, rax
  0026c	48 8b c1	 mov	 rax, rcx
  0026f	b9 01 00 00 00	 mov	 ecx, 1
  00274	48 6b c9 00	 imul	 rcx, rcx, 0
  00278	0f be 04 08	 movsx	 eax, BYTE PTR [rax+rcx]
  0027c	83 f8 69	 cmp	 eax, 105		; 00000069H
  0027f	0f 85 46 0a 00
	00		 jne	 $LN35@SemanticAn
  00285	8b 45 24	 mov	 eax, DWORD PTR i$1[rbp]
  00288	ff c8		 dec	 eax
  0028a	48 98		 cdqe
  0028c	48 6b c0 10	 imul	 rax, rax, 16
  00290	48 8b 8d f0 2b
	00 00		 mov	 rcx, QWORD PTR lextable$[rbp]
  00297	48 8b 49 08	 mov	 rcx, QWORD PTR [rcx+8]
  0029b	48 03 c8	 add	 rcx, rax
  0029e	48 8b c1	 mov	 rax, rcx
  002a1	b9 01 00 00 00	 mov	 ecx, 1
  002a6	48 6b c9 00	 imul	 rcx, rcx, 0
  002aa	0f be 04 08	 movsx	 eax, BYTE PTR [rax+rcx]
  002ae	83 f8 66	 cmp	 eax, 102		; 00000066H
  002b1	0f 84 14 0a 00
	00		 je	 $LN35@SemanticAn

; 25   : 			{
; 26   : 				if (lextable->table[i].idxTI != TI_NULLIDX)

  002b7	48 63 45 24	 movsxd	 rax, DWORD PTR i$1[rbp]
  002bb	48 6b c0 10	 imul	 rax, rax, 16
  002bf	48 8b 8d f0 2b
	00 00		 mov	 rcx, QWORD PTR lextable$[rbp]
  002c6	48 8b 49 08	 mov	 rcx, QWORD PTR [rcx+8]
  002ca	83 7c 01 0c ff	 cmp	 DWORD PTR [rcx+rax+12], -1 ; ffffffffH
  002cf	0f 84 f1 09 00
	00		 je	 $LN37@SemanticAn

; 27   : 				{
; 28   : 					if (idtable->table[lextable->table[i].idxTI].idtype == IT::F)

  002d5	48 63 45 24	 movsxd	 rax, DWORD PTR i$1[rbp]
  002d9	48 6b c0 10	 imul	 rax, rax, 16
  002dd	48 8b 8d f0 2b
	00 00		 mov	 rcx, QWORD PTR lextable$[rbp]
  002e4	48 8b 49 08	 mov	 rcx, QWORD PTR [rcx+8]
  002e8	48 63 44 01 0c	 movsxd	 rax, DWORD PTR [rcx+rax+12]
  002ed	48 69 c0 50 fe
	00 00		 imul	 rax, rax, 65104		; 0000fe50H
  002f4	48 8b 8d f8 2b
	00 00		 mov	 rcx, QWORD PTR idtable$[rbp]
  002fb	48 8b 49 08	 mov	 rcx, QWORD PTR [rcx+8]
  002ff	83 7c 01 44 02	 cmp	 DWORD PTR [rcx+rax+68], 2
  00304	0f 85 eb 03 00
	00		 jne	 $LN38@SemanticAn

; 29   : 					{
; 30   : 						int posparam = lextable->table[i].idxTI + 1;

  0030a	48 63 45 24	 movsxd	 rax, DWORD PTR i$1[rbp]
  0030e	48 6b c0 10	 imul	 rax, rax, 16
  00312	48 8b 8d f0 2b
	00 00		 mov	 rcx, QWORD PTR lextable$[rbp]
  00319	48 8b 49 08	 mov	 rcx, QWORD PTR [rcx+8]
  0031d	8b 44 01 0c	 mov	 eax, DWORD PTR [rcx+rax+12]
  00321	ff c0		 inc	 eax
  00323	89 45 44	 mov	 DWORD PTR posparam$2[rbp], eax

; 31   : 						i++;

  00326	8b 45 24	 mov	 eax, DWORD PTR i$1[rbp]
  00329	ff c0		 inc	 eax
  0032b	89 45 24	 mov	 DWORD PTR i$1[rbp], eax

; 32   : 						for (int j = 0; lextable->table[i].lexema[0] != LEX_RIGHTESIS; i++)

  0032e	c7 45 64 00 00
	00 00		 mov	 DWORD PTR j$3[rbp], 0
  00335	eb 08		 jmp	 SHORT $LN10@SemanticAn
$LN8@SemanticAn:
  00337	8b 45 24	 mov	 eax, DWORD PTR i$1[rbp]
  0033a	ff c0		 inc	 eax
  0033c	89 45 24	 mov	 DWORD PTR i$1[rbp], eax
$LN10@SemanticAn:
  0033f	48 63 45 24	 movsxd	 rax, DWORD PTR i$1[rbp]
  00343	48 6b c0 10	 imul	 rax, rax, 16
  00347	48 8b 8d f0 2b
	00 00		 mov	 rcx, QWORD PTR lextable$[rbp]
  0034e	48 8b 49 08	 mov	 rcx, QWORD PTR [rcx+8]
  00352	48 03 c8	 add	 rcx, rax
  00355	48 8b c1	 mov	 rax, rcx
  00358	b9 01 00 00 00	 mov	 ecx, 1
  0035d	48 6b c9 00	 imul	 rcx, rcx, 0
  00361	0f be 04 08	 movsx	 eax, BYTE PTR [rax+rcx]
  00365	83 f8 29	 cmp	 eax, 41			; 00000029H
  00368	0f 84 87 03 00
	00		 je	 $LN9@SemanticAn

; 33   : 						{
; 34   : 							if (lextable->table[i].idxTI != TI_NULLIDX)

  0036e	48 63 45 24	 movsxd	 rax, DWORD PTR i$1[rbp]
  00372	48 6b c0 10	 imul	 rax, rax, 16
  00376	48 8b 8d f0 2b
	00 00		 mov	 rcx, QWORD PTR lextable$[rbp]
  0037d	48 8b 49 08	 mov	 rcx, QWORD PTR [rcx+8]
  00381	83 7c 01 0c ff	 cmp	 DWORD PTR [rcx+rax+12], -1 ; ffffffffH
  00386	0f 84 64 03 00
	00		 je	 $LN39@SemanticAn

; 35   : 							{
; 36   : 								switch (idtable->table[lextable->table[i].idxTI].iddatatype)

  0038c	48 63 45 24	 movsxd	 rax, DWORD PTR i$1[rbp]
  00390	48 6b c0 10	 imul	 rax, rax, 16
  00394	48 8b 8d f0 2b
	00 00		 mov	 rcx, QWORD PTR lextable$[rbp]
  0039b	48 8b 49 08	 mov	 rcx, QWORD PTR [rcx+8]
  0039f	48 63 44 01 0c	 movsxd	 rax, DWORD PTR [rcx+rax+12]
  003a4	48 69 c0 50 fe
	00 00		 imul	 rax, rax, 65104		; 0000fe50H
  003ab	48 8b 8d f8 2b
	00 00		 mov	 rcx, QWORD PTR idtable$[rbp]
  003b2	48 8b 49 08	 mov	 rcx, QWORD PTR [rcx+8]
  003b6	8b 44 01 40	 mov	 eax, DWORD PTR [rcx+rax+64]
  003ba	89 85 c4 2b 00
	00		 mov	 DWORD PTR tv252[rbp], eax
  003c0	83 bd c4 2b 00
	00 01		 cmp	 DWORD PTR tv252[rbp], 1
  003c7	74 2c		 je	 SHORT $LN40@SemanticAn
  003c9	83 bd c4 2b 00
	00 02		 cmp	 DWORD PTR tv252[rbp], 2
  003d0	0f 84 df 00 00
	00		 je	 $LN42@SemanticAn
  003d6	83 bd c4 2b 00
	00 03		 cmp	 DWORD PTR tv252[rbp], 3
  003dd	0f 84 92 01 00
	00		 je	 $LN44@SemanticAn
  003e3	83 bd c4 2b 00
	00 05		 cmp	 DWORD PTR tv252[rbp], 5
  003ea	0f 84 45 02 00
	00		 je	 $LN46@SemanticAn
  003f0	e9 fb 02 00 00	 jmp	 $LN48@SemanticAn
$LN40@SemanticAn:

; 37   : 								{
; 38   : 								case IT::IDDATATYPE::LONG:
; 39   : 								{
; 40   : 									if (idtable->table[posparam++].iddatatype != IT::IDDATATYPE::LONG)

  003f5	48 63 45 44	 movsxd	 rax, DWORD PTR posparam$2[rbp]
  003f9	48 69 c0 50 fe
	00 00		 imul	 rax, rax, 65104		; 0000fe50H
  00400	48 8b 8d f8 2b
	00 00		 mov	 rcx, QWORD PTR idtable$[rbp]
  00407	48 8b 49 08	 mov	 rcx, QWORD PTR [rcx+8]
  0040b	8b 44 01 40	 mov	 eax, DWORD PTR [rcx+rax+64]
  0040f	89 85 c4 2b 00
	00		 mov	 DWORD PTR tv260[rbp], eax
  00415	8b 45 44	 mov	 eax, DWORD PTR posparam$2[rbp]
  00418	ff c0		 inc	 eax
  0041a	89 45 44	 mov	 DWORD PTR posparam$2[rbp], eax
  0041d	83 bd c4 2b 00
	00 01		 cmp	 DWORD PTR tv260[rbp], 1
  00424	74 0c		 je	 SHORT $LN80@SemanticAn
  00426	c7 85 c8 2b 00
	00 01 00 00 00	 mov	 DWORD PTR tv261[rbp], 1
  00430	eb 0a		 jmp	 SHORT $LN81@SemanticAn
$LN80@SemanticAn:
  00432	c7 85 c8 2b 00
	00 00 00 00 00	 mov	 DWORD PTR tv261[rbp], 0
$LN81@SemanticAn:
  0043c	83 bd c8 2b 00
	00 00		 cmp	 DWORD PTR tv261[rbp], 0
  00443	74 6b		 je	 SHORT $LN41@SemanticAn

; 41   : 										throw ERROR_THROW_LINE(142, lextable->table[i].sn);

  00445	48 63 45 24	 movsxd	 rax, DWORD PTR i$1[rbp]
  00449	48 6b c0 10	 imul	 rax, rax, 16
  0044d	48 8b 8d f0 2b
	00 00		 mov	 rcx, QWORD PTR lextable$[rbp]
  00454	48 8b 49 08	 mov	 rcx, QWORD PTR [rcx+8]
  00458	44 8b 44 01 08	 mov	 r8d, DWORD PTR [rcx+rax+8]
  0045d	ba 8e 00 00 00	 mov	 edx, 142		; 0000008eH
  00462	48 8d 8d f8 0b
	00 00		 lea	 rcx, QWORD PTR $T15[rbp]
  00469	e8 00 00 00 00	 call	 ?geterrorline@Error@@YA?AUERROR@1@HH@Z ; Error::geterrorline
  0046e	48 8d 8d 10 0b
	00 00		 lea	 rcx, QWORD PTR $T14[rbp]
  00475	48 8b f9	 mov	 rdi, rcx
  00478	48 8b f0	 mov	 rsi, rax
  0047b	b9 d0 00 00 00	 mov	 ecx, 208		; 000000d0H
  00480	f3 a4		 rep movsb
  00482	48 8d 85 20 0a
	00 00		 lea	 rax, QWORD PTR $T13[rbp]
  00489	48 8d 8d 10 0b
	00 00		 lea	 rcx, QWORD PTR $T14[rbp]
  00490	48 8b f8	 mov	 rdi, rax
  00493	48 8b f1	 mov	 rsi, rcx
  00496	b9 d0 00 00 00	 mov	 ecx, 208		; 000000d0H
  0049b	f3 a4		 rep movsb
  0049d	48 8d 15 00 00
	00 00		 lea	 rdx, OFFSET FLAT:_TI1?AUERROR@Error@@
  004a4	48 8d 8d 20 0a
	00 00		 lea	 rcx, QWORD PTR $T13[rbp]
  004ab	e8 00 00 00 00	 call	 _CxxThrowException
$LN41@SemanticAn:

; 42   : 									break;

  004b0	e9 3b 02 00 00	 jmp	 $LN11@SemanticAn
$LN42@SemanticAn:

; 43   : 								}
; 44   : 								case IT::IDDATATYPE::STR:
; 45   : 								{
; 46   : 									if (idtable->table[posparam++].iddatatype != IT::IDDATATYPE::STR)

  004b5	48 63 45 44	 movsxd	 rax, DWORD PTR posparam$2[rbp]
  004b9	48 69 c0 50 fe
	00 00		 imul	 rax, rax, 65104		; 0000fe50H
  004c0	48 8b 8d f8 2b
	00 00		 mov	 rcx, QWORD PTR idtable$[rbp]
  004c7	48 8b 49 08	 mov	 rcx, QWORD PTR [rcx+8]
  004cb	8b 44 01 40	 mov	 eax, DWORD PTR [rcx+rax+64]
  004cf	89 85 c4 2b 00
	00		 mov	 DWORD PTR tv282[rbp], eax
  004d5	8b 45 44	 mov	 eax, DWORD PTR posparam$2[rbp]
  004d8	ff c0		 inc	 eax
  004da	89 45 44	 mov	 DWORD PTR posparam$2[rbp], eax
  004dd	83 bd c4 2b 00
	00 02		 cmp	 DWORD PTR tv282[rbp], 2
  004e4	74 0c		 je	 SHORT $LN82@SemanticAn
  004e6	c7 85 c8 2b 00
	00 01 00 00 00	 mov	 DWORD PTR tv283[rbp], 1
  004f0	eb 0a		 jmp	 SHORT $LN83@SemanticAn
$LN82@SemanticAn:
  004f2	c7 85 c8 2b 00
	00 00 00 00 00	 mov	 DWORD PTR tv283[rbp], 0
$LN83@SemanticAn:
  004fc	83 bd c8 2b 00
	00 00		 cmp	 DWORD PTR tv283[rbp], 0
  00503	74 6b		 je	 SHORT $LN43@SemanticAn

; 47   : 										throw ERROR_THROW_LINE(142, lextable->table[i].sn);

  00505	48 63 45 24	 movsxd	 rax, DWORD PTR i$1[rbp]
  00509	48 6b c0 10	 imul	 rax, rax, 16
  0050d	48 8b 8d f0 2b
	00 00		 mov	 rcx, QWORD PTR lextable$[rbp]
  00514	48 8b 49 08	 mov	 rcx, QWORD PTR [rcx+8]
  00518	44 8b 44 01 08	 mov	 r8d, DWORD PTR [rcx+rax+8]
  0051d	ba 8e 00 00 00	 mov	 edx, 142		; 0000008eH
  00522	48 8d 8d c8 0e
	00 00		 lea	 rcx, QWORD PTR $T18[rbp]
  00529	e8 00 00 00 00	 call	 ?geterrorline@Error@@YA?AUERROR@1@HH@Z ; Error::geterrorline
  0052e	48 8d 8d e0 0d
	00 00		 lea	 rcx, QWORD PTR $T17[rbp]
  00535	48 8b f9	 mov	 rdi, rcx
  00538	48 8b f0	 mov	 rsi, rax
  0053b	b9 d0 00 00 00	 mov	 ecx, 208		; 000000d0H
  00540	f3 a4		 rep movsb
  00542	48 8d 85 f0 0c
	00 00		 lea	 rax, QWORD PTR $T16[rbp]
  00549	48 8d 8d e0 0d
	00 00		 lea	 rcx, QWORD PTR $T17[rbp]
  00550	48 8b f8	 mov	 rdi, rax
  00553	48 8b f1	 mov	 rsi, rcx
  00556	b9 d0 00 00 00	 mov	 ecx, 208		; 000000d0H
  0055b	f3 a4		 rep movsb
  0055d	48 8d 15 00 00
	00 00		 lea	 rdx, OFFSET FLAT:_TI1?AUERROR@Error@@
  00564	48 8d 8d f0 0c
	00 00		 lea	 rcx, QWORD PTR $T16[rbp]
  0056b	e8 00 00 00 00	 call	 _CxxThrowException
$LN43@SemanticAn:

; 48   : 									break;

  00570	e9 7b 01 00 00	 jmp	 $LN11@SemanticAn
$LN44@SemanticAn:

; 49   : 								}
; 50   : 								case IT::IDDATATYPE::CHAR:
; 51   : 								{
; 52   : 									if (idtable->table[posparam++].iddatatype != IT::IDDATATYPE::CHAR)

  00575	48 63 45 44	 movsxd	 rax, DWORD PTR posparam$2[rbp]
  00579	48 69 c0 50 fe
	00 00		 imul	 rax, rax, 65104		; 0000fe50H
  00580	48 8b 8d f8 2b
	00 00		 mov	 rcx, QWORD PTR idtable$[rbp]
  00587	48 8b 49 08	 mov	 rcx, QWORD PTR [rcx+8]
  0058b	8b 44 01 40	 mov	 eax, DWORD PTR [rcx+rax+64]
  0058f	89 85 c4 2b 00
	00		 mov	 DWORD PTR tv304[rbp], eax
  00595	8b 45 44	 mov	 eax, DWORD PTR posparam$2[rbp]
  00598	ff c0		 inc	 eax
  0059a	89 45 44	 mov	 DWORD PTR posparam$2[rbp], eax
  0059d	83 bd c4 2b 00
	00 03		 cmp	 DWORD PTR tv304[rbp], 3
  005a4	74 0c		 je	 SHORT $LN84@SemanticAn
  005a6	c7 85 c8 2b 00
	00 01 00 00 00	 mov	 DWORD PTR tv305[rbp], 1
  005b0	eb 0a		 jmp	 SHORT $LN85@SemanticAn
$LN84@SemanticAn:
  005b2	c7 85 c8 2b 00
	00 00 00 00 00	 mov	 DWORD PTR tv305[rbp], 0
$LN85@SemanticAn:
  005bc	83 bd c8 2b 00
	00 00		 cmp	 DWORD PTR tv305[rbp], 0
  005c3	74 6b		 je	 SHORT $LN45@SemanticAn

; 53   : 										throw ERROR_THROW_LINE(142, lextable->table[i].sn);

  005c5	48 63 45 24	 movsxd	 rax, DWORD PTR i$1[rbp]
  005c9	48 6b c0 10	 imul	 rax, rax, 16
  005cd	48 8b 8d f0 2b
	00 00		 mov	 rcx, QWORD PTR lextable$[rbp]
  005d4	48 8b 49 08	 mov	 rcx, QWORD PTR [rcx+8]
  005d8	44 8b 44 01 08	 mov	 r8d, DWORD PTR [rcx+rax+8]
  005dd	ba 8e 00 00 00	 mov	 edx, 142		; 0000008eH
  005e2	48 8d 8d 98 11
	00 00		 lea	 rcx, QWORD PTR $T21[rbp]
  005e9	e8 00 00 00 00	 call	 ?geterrorline@Error@@YA?AUERROR@1@HH@Z ; Error::geterrorline
  005ee	48 8d 8d b0 10
	00 00		 lea	 rcx, QWORD PTR $T20[rbp]
  005f5	48 8b f9	 mov	 rdi, rcx
  005f8	48 8b f0	 mov	 rsi, rax
  005fb	b9 d0 00 00 00	 mov	 ecx, 208		; 000000d0H
  00600	f3 a4		 rep movsb
  00602	48 8d 85 c0 0f
	00 00		 lea	 rax, QWORD PTR $T19[rbp]
  00609	48 8d 8d b0 10
	00 00		 lea	 rcx, QWORD PTR $T20[rbp]
  00610	48 8b f8	 mov	 rdi, rax
  00613	48 8b f1	 mov	 rsi, rcx
  00616	b9 d0 00 00 00	 mov	 ecx, 208		; 000000d0H
  0061b	f3 a4		 rep movsb
  0061d	48 8d 15 00 00
	00 00		 lea	 rdx, OFFSET FLAT:_TI1?AUERROR@Error@@
  00624	48 8d 8d c0 0f
	00 00		 lea	 rcx, QWORD PTR $T19[rbp]
  0062b	e8 00 00 00 00	 call	 _CxxThrowException
$LN45@SemanticAn:

; 54   : 									break;

  00630	e9 bb 00 00 00	 jmp	 $LN11@SemanticAn
$LN46@SemanticAn:

; 55   : 								}
; 56   : 								case IT::IDDATATYPE::BOOL:
; 57   : 								{
; 58   : 									if (idtable->table[posparam++].iddatatype != IT::IDDATATYPE::BOOL)

  00635	48 63 45 44	 movsxd	 rax, DWORD PTR posparam$2[rbp]
  00639	48 69 c0 50 fe
	00 00		 imul	 rax, rax, 65104		; 0000fe50H
  00640	48 8b 8d f8 2b
	00 00		 mov	 rcx, QWORD PTR idtable$[rbp]
  00647	48 8b 49 08	 mov	 rcx, QWORD PTR [rcx+8]
  0064b	8b 44 01 40	 mov	 eax, DWORD PTR [rcx+rax+64]
  0064f	89 85 c4 2b 00
	00		 mov	 DWORD PTR tv326[rbp], eax
  00655	8b 45 44	 mov	 eax, DWORD PTR posparam$2[rbp]
  00658	ff c0		 inc	 eax
  0065a	89 45 44	 mov	 DWORD PTR posparam$2[rbp], eax
  0065d	83 bd c4 2b 00
	00 05		 cmp	 DWORD PTR tv326[rbp], 5
  00664	74 0c		 je	 SHORT $LN86@SemanticAn
  00666	c7 85 c8 2b 00
	00 01 00 00 00	 mov	 DWORD PTR tv327[rbp], 1
  00670	eb 0a		 jmp	 SHORT $LN87@SemanticAn
$LN86@SemanticAn:
  00672	c7 85 c8 2b 00
	00 00 00 00 00	 mov	 DWORD PTR tv327[rbp], 0
$LN87@SemanticAn:
  0067c	83 bd c8 2b 00
	00 00		 cmp	 DWORD PTR tv327[rbp], 0
  00683	74 6b		 je	 SHORT $LN47@SemanticAn

; 59   : 										throw ERROR_THROW_LINE(142, lextable->table[i].sn);

  00685	48 63 45 24	 movsxd	 rax, DWORD PTR i$1[rbp]
  00689	48 6b c0 10	 imul	 rax, rax, 16
  0068d	48 8b 8d f0 2b
	00 00		 mov	 rcx, QWORD PTR lextable$[rbp]
  00694	48 8b 49 08	 mov	 rcx, QWORD PTR [rcx+8]
  00698	44 8b 44 01 08	 mov	 r8d, DWORD PTR [rcx+rax+8]
  0069d	ba 8e 00 00 00	 mov	 edx, 142		; 0000008eH
  006a2	48 8d 8d 68 14
	00 00		 lea	 rcx, QWORD PTR $T24[rbp]
  006a9	e8 00 00 00 00	 call	 ?geterrorline@Error@@YA?AUERROR@1@HH@Z ; Error::geterrorline
  006ae	48 8d 8d 80 13
	00 00		 lea	 rcx, QWORD PTR $T23[rbp]
  006b5	48 8b f9	 mov	 rdi, rcx
  006b8	48 8b f0	 mov	 rsi, rax
  006bb	b9 d0 00 00 00	 mov	 ecx, 208		; 000000d0H
  006c0	f3 a4		 rep movsb
  006c2	48 8d 85 90 12
	00 00		 lea	 rax, QWORD PTR $T22[rbp]
  006c9	48 8d 8d 80 13
	00 00		 lea	 rcx, QWORD PTR $T23[rbp]
  006d0	48 8b f8	 mov	 rdi, rax
  006d3	48 8b f1	 mov	 rsi, rcx
  006d6	b9 d0 00 00 00	 mov	 ecx, 208		; 000000d0H
  006db	f3 a4		 rep movsb
  006dd	48 8d 15 00 00
	00 00		 lea	 rdx, OFFSET FLAT:_TI1?AUERROR@Error@@
  006e4	48 8d 8d 90 12
	00 00		 lea	 rcx, QWORD PTR $T22[rbp]
  006eb	e8 00 00 00 00	 call	 _CxxThrowException
$LN47@SemanticAn:
$LN48@SemanticAn:
$LN11@SemanticAn:
$LN39@SemanticAn:

; 60   : 									break;
; 61   : 								}
; 62   : 								default: break;
; 63   : 								}
; 64   : 							}
; 65   : 						}

  006f0	e9 42 fc ff ff	 jmp	 $LN8@SemanticAn
$LN9@SemanticAn:
$LN38@SemanticAn:

; 66   : 					}
; 67   : 					if (lextable->table[i].idxTI != TI_NULLIDX)

  006f5	48 63 45 24	 movsxd	 rax, DWORD PTR i$1[rbp]
  006f9	48 6b c0 10	 imul	 rax, rax, 16
  006fd	48 8b 8d f0 2b
	00 00		 mov	 rcx, QWORD PTR lextable$[rbp]
  00704	48 8b 49 08	 mov	 rcx, QWORD PTR [rcx+8]
  00708	83 7c 01 0c ff	 cmp	 DWORD PTR [rcx+rax+12], -1 ; ffffffffH
  0070d	0f 84 b3 05 00
	00		 je	 $LN49@SemanticAn

; 68   : 					if (idtable->table[lextable->table[i].idxTI].idtype == IT::E)

  00713	48 63 45 24	 movsxd	 rax, DWORD PTR i$1[rbp]
  00717	48 6b c0 10	 imul	 rax, rax, 16
  0071b	48 8b 8d f0 2b
	00 00		 mov	 rcx, QWORD PTR lextable$[rbp]
  00722	48 8b 49 08	 mov	 rcx, QWORD PTR [rcx+8]
  00726	48 63 44 01 0c	 movsxd	 rax, DWORD PTR [rcx+rax+12]
  0072b	48 69 c0 50 fe
	00 00		 imul	 rax, rax, 65104		; 0000fe50H
  00732	48 8b 8d f8 2b
	00 00		 mov	 rcx, QWORD PTR idtable$[rbp]
  00739	48 8b 49 08	 mov	 rcx, QWORD PTR [rcx+8]
  0073d	83 7c 01 44 06	 cmp	 DWORD PTR [rcx+rax+68], 6
  00742	0f 85 7e 05 00
	00		 jne	 $LN50@SemanticAn

; 69   : 					{
; 70   : 						int posexpfunc = lextable->table[i].idxTI;

  00748	48 63 45 24	 movsxd	 rax, DWORD PTR i$1[rbp]
  0074c	48 6b c0 10	 imul	 rax, rax, 16
  00750	48 8b 8d f0 2b
	00 00		 mov	 rcx, QWORD PTR lextable$[rbp]
  00757	48 8b 49 08	 mov	 rcx, QWORD PTR [rcx+8]
  0075b	8b 44 01 0c	 mov	 eax, DWORD PTR [rcx+rax+12]
  0075f	89 85 84 00 00
	00		 mov	 DWORD PTR posexpfunc$4[rbp], eax

; 71   : 						i++;

  00765	8b 45 24	 mov	 eax, DWORD PTR i$1[rbp]
  00768	ff c0		 inc	 eax
  0076a	89 45 24	 mov	 DWORD PTR i$1[rbp], eax

; 72   : 						for (int j = 0; lextable->table[i].lexema[0] != LEX_RIGHTESIS; i++)

  0076d	c7 85 a4 00 00
	00 00 00 00 00	 mov	 DWORD PTR j$5[rbp], 0
  00777	eb 08		 jmp	 SHORT $LN15@SemanticAn
$LN13@SemanticAn:
  00779	8b 45 24	 mov	 eax, DWORD PTR i$1[rbp]
  0077c	ff c0		 inc	 eax
  0077e	89 45 24	 mov	 DWORD PTR i$1[rbp], eax
$LN15@SemanticAn:
  00781	48 63 45 24	 movsxd	 rax, DWORD PTR i$1[rbp]
  00785	48 6b c0 10	 imul	 rax, rax, 16
  00789	48 8b 8d f0 2b
	00 00		 mov	 rcx, QWORD PTR lextable$[rbp]
  00790	48 8b 49 08	 mov	 rcx, QWORD PTR [rcx+8]
  00794	48 03 c8	 add	 rcx, rax
  00797	48 8b c1	 mov	 rax, rcx
  0079a	b9 01 00 00 00	 mov	 ecx, 1
  0079f	48 6b c9 00	 imul	 rcx, rcx, 0
  007a3	0f be 04 08	 movsx	 eax, BYTE PTR [rax+rcx]
  007a7	83 f8 29	 cmp	 eax, 41			; 00000029H
  007aa	0f 84 16 05 00
	00		 je	 $LN14@SemanticAn

; 73   : 						{
; 74   : 							if (lextable->table[i].idxTI != TI_NULLIDX)

  007b0	48 63 45 24	 movsxd	 rax, DWORD PTR i$1[rbp]
  007b4	48 6b c0 10	 imul	 rax, rax, 16
  007b8	48 8b 8d f0 2b
	00 00		 mov	 rcx, QWORD PTR lextable$[rbp]
  007bf	48 8b 49 08	 mov	 rcx, QWORD PTR [rcx+8]
  007c3	83 7c 01 0c ff	 cmp	 DWORD PTR [rcx+rax+12], -1 ; ffffffffH
  007c8	0f 84 f3 04 00
	00		 je	 $LN51@SemanticAn

; 75   : 							{
; 76   : 								if (!strcmp(idtable->table[posexpfunc].extfunct, "strlen"))

  007ce	48 63 85 84 00
	00 00		 movsxd	 rax, DWORD PTR posexpfunc$4[rbp]
  007d5	48 69 c0 50 fe
	00 00		 imul	 rax, rax, 65104		; 0000fe50H
  007dc	48 8b 8d f8 2b
	00 00		 mov	 rcx, QWORD PTR idtable$[rbp]
  007e3	48 8b 49 08	 mov	 rcx, QWORD PTR [rcx+8]
  007e7	48 8d 44 01 1a	 lea	 rax, QWORD PTR [rcx+rax+26]
  007ec	48 8d 15 00 00
	00 00		 lea	 rdx, OFFSET FLAT:??_C@_06GICABBBG@strlen@
  007f3	48 8b c8	 mov	 rcx, rax
  007f6	e8 00 00 00 00	 call	 strcmp
  007fb	85 c0		 test	 eax, eax
  007fd	0f 85 07 01 00
	00		 jne	 $LN52@SemanticAn

; 77   : 									for (int j = 0; lextable->table[i].lexema[0] != LEX_RIGHTESIS; i++)

  00803	c7 85 c4 00 00
	00 00 00 00 00	 mov	 DWORD PTR j$6[rbp], 0
  0080d	eb 08		 jmp	 SHORT $LN18@SemanticAn
$LN16@SemanticAn:
  0080f	8b 45 24	 mov	 eax, DWORD PTR i$1[rbp]
  00812	ff c0		 inc	 eax
  00814	89 45 24	 mov	 DWORD PTR i$1[rbp], eax
$LN18@SemanticAn:
  00817	48 63 45 24	 movsxd	 rax, DWORD PTR i$1[rbp]
  0081b	48 6b c0 10	 imul	 rax, rax, 16
  0081f	48 8b 8d f0 2b
	00 00		 mov	 rcx, QWORD PTR lextable$[rbp]
  00826	48 8b 49 08	 mov	 rcx, QWORD PTR [rcx+8]
  0082a	48 03 c8	 add	 rcx, rax
  0082d	48 8b c1	 mov	 rax, rcx
  00830	b9 01 00 00 00	 mov	 ecx, 1
  00835	48 6b c9 00	 imul	 rcx, rcx, 0
  00839	0f be 04 08	 movsx	 eax, BYTE PTR [rax+rcx]
  0083d	83 f8 29	 cmp	 eax, 41			; 00000029H
  00840	0f 84 bf 00 00
	00		 je	 $LN17@SemanticAn

; 78   : 									{
; 79   : 										if (lextable->table[i].idxTI != TI_NULLIDX)

  00846	48 63 45 24	 movsxd	 rax, DWORD PTR i$1[rbp]
  0084a	48 6b c0 10	 imul	 rax, rax, 16
  0084e	48 8b 8d f0 2b
	00 00		 mov	 rcx, QWORD PTR lextable$[rbp]
  00855	48 8b 49 08	 mov	 rcx, QWORD PTR [rcx+8]
  00859	83 7c 01 0c ff	 cmp	 DWORD PTR [rcx+rax+12], -1 ; ffffffffH
  0085e	0f 84 9c 00 00
	00		 je	 $LN54@SemanticAn

; 80   : 											if (idtable->table[lextable->table[i].idxTI].iddatatype != IT::IDDATATYPE::STR)

  00864	48 63 45 24	 movsxd	 rax, DWORD PTR i$1[rbp]
  00868	48 6b c0 10	 imul	 rax, rax, 16
  0086c	48 8b 8d f0 2b
	00 00		 mov	 rcx, QWORD PTR lextable$[rbp]
  00873	48 8b 49 08	 mov	 rcx, QWORD PTR [rcx+8]
  00877	48 63 44 01 0c	 movsxd	 rax, DWORD PTR [rcx+rax+12]
  0087c	48 69 c0 50 fe
	00 00		 imul	 rax, rax, 65104		; 0000fe50H
  00883	48 8b 8d f8 2b
	00 00		 mov	 rcx, QWORD PTR idtable$[rbp]
  0088a	48 8b 49 08	 mov	 rcx, QWORD PTR [rcx+8]
  0088e	83 7c 01 40 02	 cmp	 DWORD PTR [rcx+rax+64], 2
  00893	74 6b		 je	 SHORT $LN55@SemanticAn

; 81   : 												throw ERROR_THROW_LINE(142, lextable->table[i].sn);

  00895	48 63 45 24	 movsxd	 rax, DWORD PTR i$1[rbp]
  00899	48 6b c0 10	 imul	 rax, rax, 16
  0089d	48 8b 8d f0 2b
	00 00		 mov	 rcx, QWORD PTR lextable$[rbp]
  008a4	48 8b 49 08	 mov	 rcx, QWORD PTR [rcx+8]
  008a8	44 8b 44 01 08	 mov	 r8d, DWORD PTR [rcx+rax+8]
  008ad	ba 8e 00 00 00	 mov	 edx, 142		; 0000008eH
  008b2	48 8d 8d 38 17
	00 00		 lea	 rcx, QWORD PTR $T27[rbp]
  008b9	e8 00 00 00 00	 call	 ?geterrorline@Error@@YA?AUERROR@1@HH@Z ; Error::geterrorline
  008be	48 8d 8d 50 16
	00 00		 lea	 rcx, QWORD PTR $T26[rbp]
  008c5	48 8b f9	 mov	 rdi, rcx
  008c8	48 8b f0	 mov	 rsi, rax
  008cb	b9 d0 00 00 00	 mov	 ecx, 208		; 000000d0H
  008d0	f3 a4		 rep movsb
  008d2	48 8d 85 60 15
	00 00		 lea	 rax, QWORD PTR $T25[rbp]
  008d9	48 8d 8d 50 16
	00 00		 lea	 rcx, QWORD PTR $T26[rbp]
  008e0	48 8b f8	 mov	 rdi, rax
  008e3	48 8b f1	 mov	 rsi, rcx
  008e6	b9 d0 00 00 00	 mov	 ecx, 208		; 000000d0H
  008eb	f3 a4		 rep movsb
  008ed	48 8d 15 00 00
	00 00		 lea	 rdx, OFFSET FLAT:_TI1?AUERROR@Error@@
  008f4	48 8d 8d 60 15
	00 00		 lea	 rcx, QWORD PTR $T25[rbp]
  008fb	e8 00 00 00 00	 call	 _CxxThrowException
$LN55@SemanticAn:
$LN54@SemanticAn:

; 82   : 									}

  00900	e9 0a ff ff ff	 jmp	 $LN16@SemanticAn
$LN17@SemanticAn:
  00905	e9 af 03 00 00	 jmp	 $LN53@SemanticAn
$LN52@SemanticAn:

; 83   : 								else if (!strcmp(idtable->table[posexpfunc].extfunct, "strcat"))

  0090a	48 63 85 84 00
	00 00		 movsxd	 rax, DWORD PTR posexpfunc$4[rbp]
  00911	48 69 c0 50 fe
	00 00		 imul	 rax, rax, 65104		; 0000fe50H
  00918	48 8b 8d f8 2b
	00 00		 mov	 rcx, QWORD PTR idtable$[rbp]
  0091f	48 8b 49 08	 mov	 rcx, QWORD PTR [rcx+8]
  00923	48 8d 44 01 1a	 lea	 rax, QWORD PTR [rcx+rax+26]
  00928	48 8d 15 00 00
	00 00		 lea	 rdx, OFFSET FLAT:??_C@_06IHGHFDEH@strcat@
  0092f	48 8b c8	 mov	 rcx, rax
  00932	e8 00 00 00 00	 call	 strcmp
  00937	85 c0		 test	 eax, eax
  00939	0f 85 07 01 00
	00		 jne	 $LN56@SemanticAn

; 84   : 									for (int j = 0; lextable->table[i].lexema[0] != LEX_RIGHTESIS; i++)

  0093f	c7 85 e4 00 00
	00 00 00 00 00	 mov	 DWORD PTR j$7[rbp], 0
  00949	eb 08		 jmp	 SHORT $LN21@SemanticAn
$LN19@SemanticAn:
  0094b	8b 45 24	 mov	 eax, DWORD PTR i$1[rbp]
  0094e	ff c0		 inc	 eax
  00950	89 45 24	 mov	 DWORD PTR i$1[rbp], eax
$LN21@SemanticAn:
  00953	48 63 45 24	 movsxd	 rax, DWORD PTR i$1[rbp]
  00957	48 6b c0 10	 imul	 rax, rax, 16
  0095b	48 8b 8d f0 2b
	00 00		 mov	 rcx, QWORD PTR lextable$[rbp]
  00962	48 8b 49 08	 mov	 rcx, QWORD PTR [rcx+8]
  00966	48 03 c8	 add	 rcx, rax
  00969	48 8b c1	 mov	 rax, rcx
  0096c	b9 01 00 00 00	 mov	 ecx, 1
  00971	48 6b c9 00	 imul	 rcx, rcx, 0
  00975	0f be 04 08	 movsx	 eax, BYTE PTR [rax+rcx]
  00979	83 f8 29	 cmp	 eax, 41			; 00000029H
  0097c	0f 84 bf 00 00
	00		 je	 $LN20@SemanticAn

; 85   : 									{
; 86   : 										if (lextable->table[i].idxTI != TI_NULLIDX)

  00982	48 63 45 24	 movsxd	 rax, DWORD PTR i$1[rbp]
  00986	48 6b c0 10	 imul	 rax, rax, 16
  0098a	48 8b 8d f0 2b
	00 00		 mov	 rcx, QWORD PTR lextable$[rbp]
  00991	48 8b 49 08	 mov	 rcx, QWORD PTR [rcx+8]
  00995	83 7c 01 0c ff	 cmp	 DWORD PTR [rcx+rax+12], -1 ; ffffffffH
  0099a	0f 84 9c 00 00
	00		 je	 $LN58@SemanticAn

; 87   : 											if (idtable->table[lextable->table[i].idxTI].iddatatype != IT::IDDATATYPE::STR)

  009a0	48 63 45 24	 movsxd	 rax, DWORD PTR i$1[rbp]
  009a4	48 6b c0 10	 imul	 rax, rax, 16
  009a8	48 8b 8d f0 2b
	00 00		 mov	 rcx, QWORD PTR lextable$[rbp]
  009af	48 8b 49 08	 mov	 rcx, QWORD PTR [rcx+8]
  009b3	48 63 44 01 0c	 movsxd	 rax, DWORD PTR [rcx+rax+12]
  009b8	48 69 c0 50 fe
	00 00		 imul	 rax, rax, 65104		; 0000fe50H
  009bf	48 8b 8d f8 2b
	00 00		 mov	 rcx, QWORD PTR idtable$[rbp]
  009c6	48 8b 49 08	 mov	 rcx, QWORD PTR [rcx+8]
  009ca	83 7c 01 40 02	 cmp	 DWORD PTR [rcx+rax+64], 2
  009cf	74 6b		 je	 SHORT $LN59@SemanticAn

; 88   : 												throw ERROR_THROW_LINE(142, lextable->table[i].sn);

  009d1	48 63 45 24	 movsxd	 rax, DWORD PTR i$1[rbp]
  009d5	48 6b c0 10	 imul	 rax, rax, 16
  009d9	48 8b 8d f0 2b
	00 00		 mov	 rcx, QWORD PTR lextable$[rbp]
  009e0	48 8b 49 08	 mov	 rcx, QWORD PTR [rcx+8]
  009e4	44 8b 44 01 08	 mov	 r8d, DWORD PTR [rcx+rax+8]
  009e9	ba 8e 00 00 00	 mov	 edx, 142		; 0000008eH
  009ee	48 8d 8d 08 1a
	00 00		 lea	 rcx, QWORD PTR $T30[rbp]
  009f5	e8 00 00 00 00	 call	 ?geterrorline@Error@@YA?AUERROR@1@HH@Z ; Error::geterrorline
  009fa	48 8d 8d 20 19
	00 00		 lea	 rcx, QWORD PTR $T29[rbp]
  00a01	48 8b f9	 mov	 rdi, rcx
  00a04	48 8b f0	 mov	 rsi, rax
  00a07	b9 d0 00 00 00	 mov	 ecx, 208		; 000000d0H
  00a0c	f3 a4		 rep movsb
  00a0e	48 8d 85 30 18
	00 00		 lea	 rax, QWORD PTR $T28[rbp]
  00a15	48 8d 8d 20 19
	00 00		 lea	 rcx, QWORD PTR $T29[rbp]
  00a1c	48 8b f8	 mov	 rdi, rax
  00a1f	48 8b f1	 mov	 rsi, rcx
  00a22	b9 d0 00 00 00	 mov	 ecx, 208		; 000000d0H
  00a27	f3 a4		 rep movsb
  00a29	48 8d 15 00 00
	00 00		 lea	 rdx, OFFSET FLAT:_TI1?AUERROR@Error@@
  00a30	48 8d 8d 30 18
	00 00		 lea	 rcx, QWORD PTR $T28[rbp]
  00a37	e8 00 00 00 00	 call	 _CxxThrowException
$LN59@SemanticAn:
$LN58@SemanticAn:

; 89   : 									}

  00a3c	e9 0a ff ff ff	 jmp	 $LN19@SemanticAn
$LN20@SemanticAn:
  00a41	e9 73 02 00 00	 jmp	 $LN57@SemanticAn
$LN56@SemanticAn:

; 90   : 								else if (!strcmp(idtable->table[posexpfunc].extfunct, "strcopy"))

  00a46	48 63 85 84 00
	00 00		 movsxd	 rax, DWORD PTR posexpfunc$4[rbp]
  00a4d	48 69 c0 50 fe
	00 00		 imul	 rax, rax, 65104		; 0000fe50H
  00a54	48 8b 8d f8 2b
	00 00		 mov	 rcx, QWORD PTR idtable$[rbp]
  00a5b	48 8b 49 08	 mov	 rcx, QWORD PTR [rcx+8]
  00a5f	48 8d 44 01 1a	 lea	 rax, QWORD PTR [rcx+rax+26]
  00a64	48 8d 15 00 00
	00 00		 lea	 rdx, OFFSET FLAT:??_C@_07PBBEKODA@strcopy@
  00a6b	48 8b c8	 mov	 rcx, rax
  00a6e	e8 00 00 00 00	 call	 strcmp
  00a73	85 c0		 test	 eax, eax
  00a75	0f 85 07 01 00
	00		 jne	 $LN60@SemanticAn

; 91   : 									for (int j = 0; lextable->table[i].lexema[0] != LEX_RIGHTESIS; i++)

  00a7b	c7 85 04 01 00
	00 00 00 00 00	 mov	 DWORD PTR j$8[rbp], 0
  00a85	eb 08		 jmp	 SHORT $LN24@SemanticAn
$LN22@SemanticAn:
  00a87	8b 45 24	 mov	 eax, DWORD PTR i$1[rbp]
  00a8a	ff c0		 inc	 eax
  00a8c	89 45 24	 mov	 DWORD PTR i$1[rbp], eax
$LN24@SemanticAn:
  00a8f	48 63 45 24	 movsxd	 rax, DWORD PTR i$1[rbp]
  00a93	48 6b c0 10	 imul	 rax, rax, 16
  00a97	48 8b 8d f0 2b
	00 00		 mov	 rcx, QWORD PTR lextable$[rbp]
  00a9e	48 8b 49 08	 mov	 rcx, QWORD PTR [rcx+8]
  00aa2	48 03 c8	 add	 rcx, rax
  00aa5	48 8b c1	 mov	 rax, rcx
  00aa8	b9 01 00 00 00	 mov	 ecx, 1
  00aad	48 6b c9 00	 imul	 rcx, rcx, 0
  00ab1	0f be 04 08	 movsx	 eax, BYTE PTR [rax+rcx]
  00ab5	83 f8 29	 cmp	 eax, 41			; 00000029H
  00ab8	0f 84 bf 00 00
	00		 je	 $LN23@SemanticAn

; 92   : 									{
; 93   : 										if (lextable->table[i].idxTI != TI_NULLIDX)

  00abe	48 63 45 24	 movsxd	 rax, DWORD PTR i$1[rbp]
  00ac2	48 6b c0 10	 imul	 rax, rax, 16
  00ac6	48 8b 8d f0 2b
	00 00		 mov	 rcx, QWORD PTR lextable$[rbp]
  00acd	48 8b 49 08	 mov	 rcx, QWORD PTR [rcx+8]
  00ad1	83 7c 01 0c ff	 cmp	 DWORD PTR [rcx+rax+12], -1 ; ffffffffH
  00ad6	0f 84 9c 00 00
	00		 je	 $LN62@SemanticAn

; 94   : 											if (idtable->table[lextable->table[i].idxTI].iddatatype != IT::IDDATATYPE::STR)

  00adc	48 63 45 24	 movsxd	 rax, DWORD PTR i$1[rbp]
  00ae0	48 6b c0 10	 imul	 rax, rax, 16
  00ae4	48 8b 8d f0 2b
	00 00		 mov	 rcx, QWORD PTR lextable$[rbp]
  00aeb	48 8b 49 08	 mov	 rcx, QWORD PTR [rcx+8]
  00aef	48 63 44 01 0c	 movsxd	 rax, DWORD PTR [rcx+rax+12]
  00af4	48 69 c0 50 fe
	00 00		 imul	 rax, rax, 65104		; 0000fe50H
  00afb	48 8b 8d f8 2b
	00 00		 mov	 rcx, QWORD PTR idtable$[rbp]
  00b02	48 8b 49 08	 mov	 rcx, QWORD PTR [rcx+8]
  00b06	83 7c 01 40 02	 cmp	 DWORD PTR [rcx+rax+64], 2
  00b0b	74 6b		 je	 SHORT $LN63@SemanticAn

; 95   : 												throw ERROR_THROW_LINE(142, lextable->table[i].sn);

  00b0d	48 63 45 24	 movsxd	 rax, DWORD PTR i$1[rbp]
  00b11	48 6b c0 10	 imul	 rax, rax, 16
  00b15	48 8b 8d f0 2b
	00 00		 mov	 rcx, QWORD PTR lextable$[rbp]
  00b1c	48 8b 49 08	 mov	 rcx, QWORD PTR [rcx+8]
  00b20	44 8b 44 01 08	 mov	 r8d, DWORD PTR [rcx+rax+8]
  00b25	ba 8e 00 00 00	 mov	 edx, 142		; 0000008eH
  00b2a	48 8d 8d d8 1c
	00 00		 lea	 rcx, QWORD PTR $T33[rbp]
  00b31	e8 00 00 00 00	 call	 ?geterrorline@Error@@YA?AUERROR@1@HH@Z ; Error::geterrorline
  00b36	48 8d 8d f0 1b
	00 00		 lea	 rcx, QWORD PTR $T32[rbp]
  00b3d	48 8b f9	 mov	 rdi, rcx
  00b40	48 8b f0	 mov	 rsi, rax
  00b43	b9 d0 00 00 00	 mov	 ecx, 208		; 000000d0H
  00b48	f3 a4		 rep movsb
  00b4a	48 8d 85 00 1b
	00 00		 lea	 rax, QWORD PTR $T31[rbp]
  00b51	48 8d 8d f0 1b
	00 00		 lea	 rcx, QWORD PTR $T32[rbp]
  00b58	48 8b f8	 mov	 rdi, rax
  00b5b	48 8b f1	 mov	 rsi, rcx
  00b5e	b9 d0 00 00 00	 mov	 ecx, 208		; 000000d0H
  00b63	f3 a4		 rep movsb
  00b65	48 8d 15 00 00
	00 00		 lea	 rdx, OFFSET FLAT:_TI1?AUERROR@Error@@
  00b6c	48 8d 8d 00 1b
	00 00		 lea	 rcx, QWORD PTR $T31[rbp]
  00b73	e8 00 00 00 00	 call	 _CxxThrowException
$LN63@SemanticAn:
$LN62@SemanticAn:

; 96   : 									}

  00b78	e9 0a ff ff ff	 jmp	 $LN22@SemanticAn
$LN23@SemanticAn:
  00b7d	e9 37 01 00 00	 jmp	 $LN61@SemanticAn
$LN60@SemanticAn:

; 97   : 								else if (!strcmp(idtable->table[posexpfunc].extfunct, "random"))

  00b82	48 63 85 84 00
	00 00		 movsxd	 rax, DWORD PTR posexpfunc$4[rbp]
  00b89	48 69 c0 50 fe
	00 00		 imul	 rax, rax, 65104		; 0000fe50H
  00b90	48 8b 8d f8 2b
	00 00		 mov	 rcx, QWORD PTR idtable$[rbp]
  00b97	48 8b 49 08	 mov	 rcx, QWORD PTR [rcx+8]
  00b9b	48 8d 44 01 1a	 lea	 rax, QWORD PTR [rcx+rax+26]
  00ba0	48 8d 15 00 00
	00 00		 lea	 rdx, OFFSET FLAT:??_C@_06NLFCANPD@random@
  00ba7	48 8b c8	 mov	 rcx, rax
  00baa	e8 00 00 00 00	 call	 strcmp
  00baf	85 c0		 test	 eax, eax
  00bb1	0f 85 02 01 00
	00		 jne	 $LN64@SemanticAn

; 98   : 									for (int j = 0; lextable->table[i].lexema[0] != LEX_RIGHTESIS; i++)

  00bb7	c7 85 24 01 00
	00 00 00 00 00	 mov	 DWORD PTR j$9[rbp], 0
  00bc1	eb 08		 jmp	 SHORT $LN27@SemanticAn
$LN25@SemanticAn:
  00bc3	8b 45 24	 mov	 eax, DWORD PTR i$1[rbp]
  00bc6	ff c0		 inc	 eax
  00bc8	89 45 24	 mov	 DWORD PTR i$1[rbp], eax
$LN27@SemanticAn:
  00bcb	48 63 45 24	 movsxd	 rax, DWORD PTR i$1[rbp]
  00bcf	48 6b c0 10	 imul	 rax, rax, 16
  00bd3	48 8b 8d f0 2b
	00 00		 mov	 rcx, QWORD PTR lextable$[rbp]
  00bda	48 8b 49 08	 mov	 rcx, QWORD PTR [rcx+8]
  00bde	48 03 c8	 add	 rcx, rax
  00be1	48 8b c1	 mov	 rax, rcx
  00be4	b9 01 00 00 00	 mov	 ecx, 1
  00be9	48 6b c9 00	 imul	 rcx, rcx, 0
  00bed	0f be 04 08	 movsx	 eax, BYTE PTR [rax+rcx]
  00bf1	83 f8 29	 cmp	 eax, 41			; 00000029H
  00bf4	0f 84 bf 00 00
	00		 je	 $LN26@SemanticAn

; 99   : 									{
; 100  : 										if (lextable->table[i].idxTI != TI_NULLIDX)

  00bfa	48 63 45 24	 movsxd	 rax, DWORD PTR i$1[rbp]
  00bfe	48 6b c0 10	 imul	 rax, rax, 16
  00c02	48 8b 8d f0 2b
	00 00		 mov	 rcx, QWORD PTR lextable$[rbp]
  00c09	48 8b 49 08	 mov	 rcx, QWORD PTR [rcx+8]
  00c0d	83 7c 01 0c ff	 cmp	 DWORD PTR [rcx+rax+12], -1 ; ffffffffH
  00c12	0f 84 9c 00 00
	00		 je	 $LN65@SemanticAn

; 101  : 											if (idtable->table[lextable->table[i].idxTI].iddatatype != IT::IDDATATYPE::LONG)

  00c18	48 63 45 24	 movsxd	 rax, DWORD PTR i$1[rbp]
  00c1c	48 6b c0 10	 imul	 rax, rax, 16
  00c20	48 8b 8d f0 2b
	00 00		 mov	 rcx, QWORD PTR lextable$[rbp]
  00c27	48 8b 49 08	 mov	 rcx, QWORD PTR [rcx+8]
  00c2b	48 63 44 01 0c	 movsxd	 rax, DWORD PTR [rcx+rax+12]
  00c30	48 69 c0 50 fe
	00 00		 imul	 rax, rax, 65104		; 0000fe50H
  00c37	48 8b 8d f8 2b
	00 00		 mov	 rcx, QWORD PTR idtable$[rbp]
  00c3e	48 8b 49 08	 mov	 rcx, QWORD PTR [rcx+8]
  00c42	83 7c 01 40 01	 cmp	 DWORD PTR [rcx+rax+64], 1
  00c47	74 6b		 je	 SHORT $LN66@SemanticAn

; 102  : 												throw ERROR_THROW_LINE(142, lextable->table[i].sn);

  00c49	48 63 45 24	 movsxd	 rax, DWORD PTR i$1[rbp]
  00c4d	48 6b c0 10	 imul	 rax, rax, 16
  00c51	48 8b 8d f0 2b
	00 00		 mov	 rcx, QWORD PTR lextable$[rbp]
  00c58	48 8b 49 08	 mov	 rcx, QWORD PTR [rcx+8]
  00c5c	44 8b 44 01 08	 mov	 r8d, DWORD PTR [rcx+rax+8]
  00c61	ba 8e 00 00 00	 mov	 edx, 142		; 0000008eH
  00c66	48 8d 8d a8 1f
	00 00		 lea	 rcx, QWORD PTR $T36[rbp]
  00c6d	e8 00 00 00 00	 call	 ?geterrorline@Error@@YA?AUERROR@1@HH@Z ; Error::geterrorline
  00c72	48 8d 8d c0 1e
	00 00		 lea	 rcx, QWORD PTR $T35[rbp]
  00c79	48 8b f9	 mov	 rdi, rcx
  00c7c	48 8b f0	 mov	 rsi, rax
  00c7f	b9 d0 00 00 00	 mov	 ecx, 208		; 000000d0H
  00c84	f3 a4		 rep movsb
  00c86	48 8d 85 d0 1d
	00 00		 lea	 rax, QWORD PTR $T34[rbp]
  00c8d	48 8d 8d c0 1e
	00 00		 lea	 rcx, QWORD PTR $T35[rbp]
  00c94	48 8b f8	 mov	 rdi, rax
  00c97	48 8b f1	 mov	 rsi, rcx
  00c9a	b9 d0 00 00 00	 mov	 ecx, 208		; 000000d0H
  00c9f	f3 a4		 rep movsb
  00ca1	48 8d 15 00 00
	00 00		 lea	 rdx, OFFSET FLAT:_TI1?AUERROR@Error@@
  00ca8	48 8d 8d d0 1d
	00 00		 lea	 rcx, QWORD PTR $T34[rbp]
  00caf	e8 00 00 00 00	 call	 _CxxThrowException
$LN66@SemanticAn:
$LN65@SemanticAn:

; 103  : 									}

  00cb4	e9 0a ff ff ff	 jmp	 $LN25@SemanticAn
$LN26@SemanticAn:
$LN64@SemanticAn:
$LN61@SemanticAn:
$LN57@SemanticAn:
$LN53@SemanticAn:

; 104  : 								i--;

  00cb9	8b 45 24	 mov	 eax, DWORD PTR i$1[rbp]
  00cbc	ff c8		 dec	 eax
  00cbe	89 45 24	 mov	 DWORD PTR i$1[rbp], eax
$LN51@SemanticAn:

; 105  : 							}
; 106  : 						}

  00cc1	e9 b3 fa ff ff	 jmp	 $LN13@SemanticAn
$LN14@SemanticAn:
$LN50@SemanticAn:
$LN49@SemanticAn:
$LN37@SemanticAn:

; 107  : 					}
; 108  : 				}
; 109  : 			}

  00cc6	e9 fa 02 00 00	 jmp	 $LN36@SemanticAn
$LN35@SemanticAn:

; 110  : 			else if (lextable->table[i].lexema[0] == LEX_ID && lextable->table[i - 1].lexema[0] == LEX_FUNCTION)

  00ccb	48 63 45 24	 movsxd	 rax, DWORD PTR i$1[rbp]
  00ccf	48 6b c0 10	 imul	 rax, rax, 16
  00cd3	48 8b 8d f0 2b
	00 00		 mov	 rcx, QWORD PTR lextable$[rbp]
  00cda	48 8b 49 08	 mov	 rcx, QWORD PTR [rcx+8]
  00cde	48 03 c8	 add	 rcx, rax
  00ce1	48 8b c1	 mov	 rax, rcx
  00ce4	b9 01 00 00 00	 mov	 ecx, 1
  00ce9	48 6b c9 00	 imul	 rcx, rcx, 0
  00ced	0f be 04 08	 movsx	 eax, BYTE PTR [rax+rcx]
  00cf1	83 f8 69	 cmp	 eax, 105		; 00000069H
  00cf4	75 64		 jne	 SHORT $LN67@SemanticAn
  00cf6	8b 45 24	 mov	 eax, DWORD PTR i$1[rbp]
  00cf9	ff c8		 dec	 eax
  00cfb	48 98		 cdqe
  00cfd	48 6b c0 10	 imul	 rax, rax, 16
  00d01	48 8b 8d f0 2b
	00 00		 mov	 rcx, QWORD PTR lextable$[rbp]
  00d08	48 8b 49 08	 mov	 rcx, QWORD PTR [rcx+8]
  00d0c	48 03 c8	 add	 rcx, rax
  00d0f	48 8b c1	 mov	 rax, rcx
  00d12	b9 01 00 00 00	 mov	 ecx, 1
  00d17	48 6b c9 00	 imul	 rcx, rcx, 0
  00d1b	0f be 04 08	 movsx	 eax, BYTE PTR [rax+rcx]
  00d1f	83 f8 66	 cmp	 eax, 102		; 00000066H
  00d22	75 36		 jne	 SHORT $LN67@SemanticAn

; 111  : 			{
; 112  : 				datatype = idtable->table[lextable->table[i].idxTI].iddatatype;

  00d24	48 63 45 24	 movsxd	 rax, DWORD PTR i$1[rbp]
  00d28	48 6b c0 10	 imul	 rax, rax, 16
  00d2c	48 8b 8d f0 2b
	00 00		 mov	 rcx, QWORD PTR lextable$[rbp]
  00d33	48 8b 49 08	 mov	 rcx, QWORD PTR [rcx+8]
  00d37	48 63 44 01 0c	 movsxd	 rax, DWORD PTR [rcx+rax+12]
  00d3c	48 69 c0 50 fe
	00 00		 imul	 rax, rax, 65104		; 0000fe50H
  00d43	48 8b 8d f8 2b
	00 00		 mov	 rcx, QWORD PTR idtable$[rbp]
  00d4a	48 8b 49 08	 mov	 rcx, QWORD PTR [rcx+8]
  00d4e	8b 44 01 40	 mov	 eax, DWORD PTR [rcx+rax+64]
  00d52	89 45 04	 mov	 DWORD PTR datatype$[rbp], eax

; 113  : 			}

  00d55	e9 6b 02 00 00	 jmp	 $LN68@SemanticAn
$LN67@SemanticAn:

; 114  : 			else if (lextable->table[i].lexema[0] == LEX_RETURN)

  00d5a	48 63 45 24	 movsxd	 rax, DWORD PTR i$1[rbp]
  00d5e	48 6b c0 10	 imul	 rax, rax, 16
  00d62	48 8b 8d f0 2b
	00 00		 mov	 rcx, QWORD PTR lextable$[rbp]
  00d69	48 8b 49 08	 mov	 rcx, QWORD PTR [rcx+8]
  00d6d	48 03 c8	 add	 rcx, rax
  00d70	48 8b c1	 mov	 rax, rcx
  00d73	b9 01 00 00 00	 mov	 ecx, 1
  00d78	48 6b c9 00	 imul	 rcx, rcx, 0
  00d7c	0f be 04 08	 movsx	 eax, BYTE PTR [rax+rcx]
  00d80	83 f8 72	 cmp	 eax, 114		; 00000072H
  00d83	0f 85 3c 02 00
	00		 jne	 $LN69@SemanticAn

; 115  : 			{
; 116  : 				switch (idtable->table[lextable->table[i+1].idxTI].iddatatype)

  00d89	8b 45 24	 mov	 eax, DWORD PTR i$1[rbp]
  00d8c	ff c0		 inc	 eax
  00d8e	48 98		 cdqe
  00d90	48 6b c0 10	 imul	 rax, rax, 16
  00d94	48 8b 8d f0 2b
	00 00		 mov	 rcx, QWORD PTR lextable$[rbp]
  00d9b	48 8b 49 08	 mov	 rcx, QWORD PTR [rcx+8]
  00d9f	48 63 44 01 0c	 movsxd	 rax, DWORD PTR [rcx+rax+12]
  00da4	48 69 c0 50 fe
	00 00		 imul	 rax, rax, 65104		; 0000fe50H
  00dab	48 8b 8d f8 2b
	00 00		 mov	 rcx, QWORD PTR idtable$[rbp]
  00db2	48 8b 49 08	 mov	 rcx, QWORD PTR [rcx+8]
  00db6	8b 44 01 40	 mov	 eax, DWORD PTR [rcx+rax+64]
  00dba	89 85 c4 2b 00
	00		 mov	 DWORD PTR tv658[rbp], eax
  00dc0	83 bd c4 2b 00
	00 01		 cmp	 DWORD PTR tv658[rbp], 1
  00dc7	74 2c		 je	 SHORT $LN70@SemanticAn
  00dc9	83 bd c4 2b 00
	00 02		 cmp	 DWORD PTR tv658[rbp], 2
  00dd0	0f 84 95 00 00
	00		 je	 $LN72@SemanticAn
  00dd6	83 bd c4 2b 00
	00 03		 cmp	 DWORD PTR tv658[rbp], 3
  00ddd	0f 84 fe 00 00
	00		 je	 $LN74@SemanticAn
  00de3	83 bd c4 2b 00
	00 05		 cmp	 DWORD PTR tv658[rbp], 5
  00dea	0f 84 64 01 00
	00		 je	 $LN76@SemanticAn
  00df0	e9 d0 01 00 00	 jmp	 $LN78@SemanticAn
$LN70@SemanticAn:

; 117  : 				{
; 118  : 				case IT::IDDATATYPE::LONG:
; 119  : 				{
; 120  : 					if (datatype != IT::IDDATATYPE::LONG)

  00df5	83 7d 04 01	 cmp	 DWORD PTR datatype$[rbp], 1
  00df9	74 6b		 je	 SHORT $LN71@SemanticAn

; 121  : 						throw ERROR_THROW_LINE(144, lextable->table[i].sn);

  00dfb	48 63 45 24	 movsxd	 rax, DWORD PTR i$1[rbp]
  00dff	48 6b c0 10	 imul	 rax, rax, 16
  00e03	48 8b 8d f0 2b
	00 00		 mov	 rcx, QWORD PTR lextable$[rbp]
  00e0a	48 8b 49 08	 mov	 rcx, QWORD PTR [rcx+8]
  00e0e	44 8b 44 01 08	 mov	 r8d, DWORD PTR [rcx+rax+8]
  00e13	ba 90 00 00 00	 mov	 edx, 144		; 00000090H
  00e18	48 8d 8d 78 22
	00 00		 lea	 rcx, QWORD PTR $T39[rbp]
  00e1f	e8 00 00 00 00	 call	 ?geterrorline@Error@@YA?AUERROR@1@HH@Z ; Error::geterrorline
  00e24	48 8d 8d 90 21
	00 00		 lea	 rcx, QWORD PTR $T38[rbp]
  00e2b	48 8b f9	 mov	 rdi, rcx
  00e2e	48 8b f0	 mov	 rsi, rax
  00e31	b9 d0 00 00 00	 mov	 ecx, 208		; 000000d0H
  00e36	f3 a4		 rep movsb
  00e38	48 8d 85 a0 20
	00 00		 lea	 rax, QWORD PTR $T37[rbp]
  00e3f	48 8d 8d 90 21
	00 00		 lea	 rcx, QWORD PTR $T38[rbp]
  00e46	48 8b f8	 mov	 rdi, rax
  00e49	48 8b f1	 mov	 rsi, rcx
  00e4c	b9 d0 00 00 00	 mov	 ecx, 208		; 000000d0H
  00e51	f3 a4		 rep movsb
  00e53	48 8d 15 00 00
	00 00		 lea	 rdx, OFFSET FLAT:_TI1?AUERROR@Error@@
  00e5a	48 8d 8d a0 20
	00 00		 lea	 rcx, QWORD PTR $T37[rbp]
  00e61	e8 00 00 00 00	 call	 _CxxThrowException
$LN71@SemanticAn:

; 122  : 					break;

  00e66	e9 5a 01 00 00	 jmp	 $LN28@SemanticAn
$LN72@SemanticAn:

; 123  : 				}
; 124  : 				case IT::IDDATATYPE::STR:
; 125  : 				{
; 126  : 					if (datatype != IT::IDDATATYPE::STR)

  00e6b	83 7d 04 02	 cmp	 DWORD PTR datatype$[rbp], 2
  00e6f	74 6b		 je	 SHORT $LN73@SemanticAn

; 127  : 						throw ERROR_THROW_LINE(144, lextable->table[i].sn);

  00e71	48 63 45 24	 movsxd	 rax, DWORD PTR i$1[rbp]
  00e75	48 6b c0 10	 imul	 rax, rax, 16
  00e79	48 8b 8d f0 2b
	00 00		 mov	 rcx, QWORD PTR lextable$[rbp]
  00e80	48 8b 49 08	 mov	 rcx, QWORD PTR [rcx+8]
  00e84	44 8b 44 01 08	 mov	 r8d, DWORD PTR [rcx+rax+8]
  00e89	ba 90 00 00 00	 mov	 edx, 144		; 00000090H
  00e8e	48 8d 8d 48 25
	00 00		 lea	 rcx, QWORD PTR $T42[rbp]
  00e95	e8 00 00 00 00	 call	 ?geterrorline@Error@@YA?AUERROR@1@HH@Z ; Error::geterrorline
  00e9a	48 8d 8d 60 24
	00 00		 lea	 rcx, QWORD PTR $T41[rbp]
  00ea1	48 8b f9	 mov	 rdi, rcx
  00ea4	48 8b f0	 mov	 rsi, rax
  00ea7	b9 d0 00 00 00	 mov	 ecx, 208		; 000000d0H
  00eac	f3 a4		 rep movsb
  00eae	48 8d 85 70 23
	00 00		 lea	 rax, QWORD PTR $T40[rbp]
  00eb5	48 8d 8d 60 24
	00 00		 lea	 rcx, QWORD PTR $T41[rbp]
  00ebc	48 8b f8	 mov	 rdi, rax
  00ebf	48 8b f1	 mov	 rsi, rcx
  00ec2	b9 d0 00 00 00	 mov	 ecx, 208		; 000000d0H
  00ec7	f3 a4		 rep movsb
  00ec9	48 8d 15 00 00
	00 00		 lea	 rdx, OFFSET FLAT:_TI1?AUERROR@Error@@
  00ed0	48 8d 8d 70 23
	00 00		 lea	 rcx, QWORD PTR $T40[rbp]
  00ed7	e8 00 00 00 00	 call	 _CxxThrowException
$LN73@SemanticAn:

; 128  : 					break;

  00edc	e9 e4 00 00 00	 jmp	 $LN28@SemanticAn
$LN74@SemanticAn:

; 129  : 				}
; 130  : 				case IT::IDDATATYPE::CHAR:
; 131  : 				{
; 132  : 					if (datatype != IT::IDDATATYPE::CHAR)

  00ee1	83 7d 04 03	 cmp	 DWORD PTR datatype$[rbp], 3
  00ee5	74 6b		 je	 SHORT $LN75@SemanticAn

; 133  : 						throw ERROR_THROW_LINE(144, lextable->table[i].sn);

  00ee7	48 63 45 24	 movsxd	 rax, DWORD PTR i$1[rbp]
  00eeb	48 6b c0 10	 imul	 rax, rax, 16
  00eef	48 8b 8d f0 2b
	00 00		 mov	 rcx, QWORD PTR lextable$[rbp]
  00ef6	48 8b 49 08	 mov	 rcx, QWORD PTR [rcx+8]
  00efa	44 8b 44 01 08	 mov	 r8d, DWORD PTR [rcx+rax+8]
  00eff	ba 90 00 00 00	 mov	 edx, 144		; 00000090H
  00f04	48 8d 8d 18 28
	00 00		 lea	 rcx, QWORD PTR $T45[rbp]
  00f0b	e8 00 00 00 00	 call	 ?geterrorline@Error@@YA?AUERROR@1@HH@Z ; Error::geterrorline
  00f10	48 8d 8d 30 27
	00 00		 lea	 rcx, QWORD PTR $T44[rbp]
  00f17	48 8b f9	 mov	 rdi, rcx
  00f1a	48 8b f0	 mov	 rsi, rax
  00f1d	b9 d0 00 00 00	 mov	 ecx, 208		; 000000d0H
  00f22	f3 a4		 rep movsb
  00f24	48 8d 85 40 26
	00 00		 lea	 rax, QWORD PTR $T43[rbp]
  00f2b	48 8d 8d 30 27
	00 00		 lea	 rcx, QWORD PTR $T44[rbp]
  00f32	48 8b f8	 mov	 rdi, rax
  00f35	48 8b f1	 mov	 rsi, rcx
  00f38	b9 d0 00 00 00	 mov	 ecx, 208		; 000000d0H
  00f3d	f3 a4		 rep movsb
  00f3f	48 8d 15 00 00
	00 00		 lea	 rdx, OFFSET FLAT:_TI1?AUERROR@Error@@
  00f46	48 8d 8d 40 26
	00 00		 lea	 rcx, QWORD PTR $T43[rbp]
  00f4d	e8 00 00 00 00	 call	 _CxxThrowException
$LN75@SemanticAn:

; 134  : 					break;

  00f52	eb 71		 jmp	 SHORT $LN28@SemanticAn
$LN76@SemanticAn:

; 135  : 				}
; 136  : 				case IT::IDDATATYPE::BOOL:
; 137  : 				{
; 138  : 					if (datatype != IT::IDDATATYPE::BOOL)

  00f54	83 7d 04 05	 cmp	 DWORD PTR datatype$[rbp], 5
  00f58	74 6b		 je	 SHORT $LN77@SemanticAn

; 139  : 						throw ERROR_THROW_LINE(144, lextable->table[i].sn);

  00f5a	48 63 45 24	 movsxd	 rax, DWORD PTR i$1[rbp]
  00f5e	48 6b c0 10	 imul	 rax, rax, 16
  00f62	48 8b 8d f0 2b
	00 00		 mov	 rcx, QWORD PTR lextable$[rbp]
  00f69	48 8b 49 08	 mov	 rcx, QWORD PTR [rcx+8]
  00f6d	44 8b 44 01 08	 mov	 r8d, DWORD PTR [rcx+rax+8]
  00f72	ba 90 00 00 00	 mov	 edx, 144		; 00000090H
  00f77	48 8d 8d e8 2a
	00 00		 lea	 rcx, QWORD PTR $T48[rbp]
  00f7e	e8 00 00 00 00	 call	 ?geterrorline@Error@@YA?AUERROR@1@HH@Z ; Error::geterrorline
  00f83	48 8d 8d 00 2a
	00 00		 lea	 rcx, QWORD PTR $T47[rbp]
  00f8a	48 8b f9	 mov	 rdi, rcx
  00f8d	48 8b f0	 mov	 rsi, rax
  00f90	b9 d0 00 00 00	 mov	 ecx, 208		; 000000d0H
  00f95	f3 a4		 rep movsb
  00f97	48 8d 85 10 29
	00 00		 lea	 rax, QWORD PTR $T46[rbp]
  00f9e	48 8d 8d 00 2a
	00 00		 lea	 rcx, QWORD PTR $T47[rbp]
  00fa5	48 8b f8	 mov	 rdi, rax
  00fa8	48 8b f1	 mov	 rsi, rcx
  00fab	b9 d0 00 00 00	 mov	 ecx, 208		; 000000d0H
  00fb0	f3 a4		 rep movsb
  00fb2	48 8d 15 00 00
	00 00		 lea	 rdx, OFFSET FLAT:_TI1?AUERROR@Error@@
  00fb9	48 8d 8d 10 29
	00 00		 lea	 rcx, QWORD PTR $T46[rbp]
  00fc0	e8 00 00 00 00	 call	 _CxxThrowException
$LN77@SemanticAn:
$LN78@SemanticAn:
$LN28@SemanticAn:
$LN69@SemanticAn:
$LN68@SemanticAn:
$LN36@SemanticAn:
$LN31@SemanticAn:

; 140  : 					break;
; 141  : 				}
; 142  : 				default: break;
; 143  : 				}
; 144  : 			}
; 145  : 		}

  00fc5	e9 88 f0 ff ff	 jmp	 $LN2@SemanticAn
$LN3@SemanticAn:
$LN79@SemanticAn:

; 146  : 	}

  00fca	48 8d a5 d0 2b
	00 00		 lea	 rsp, QWORD PTR [rbp+11216]
  00fd1	5f		 pop	 rdi
  00fd2	5e		 pop	 rsi
  00fd3	5d		 pop	 rbp
  00fd4	c3		 ret	 0
?SemanticAnalises@SA@@YAXPEAULexTable@LT@@PEAUIdTable@IT@@@Z ENDP ; SA::SemanticAnalises
_TEXT	ENDS
; Function compile flags: /Odtp /RTCsu /ZI
; File C:\Program Files (x86)\Microsoft Visual Studio\2019\Enterprise\VC\Tools\MSVC\14.27.29110\include\xloctime
;	COMDAT ??$_Getvals@_W@?$time_get@_WV?$istreambuf_iterator@_WU?$char_traits@_W@std@@@std@@@std@@IEAAX_WAEBV_Locinfo@1@@Z
_TEXT	SEGMENT
$T1 = 200
tv93 = 264
tv85 = 264
this$ = 304
__formal$ = 312
_Lobj$ = 320
??$_Getvals@_W@?$time_get@_WV?$istreambuf_iterator@_WU?$char_traits@_W@std@@@std@@@std@@IEAAX_WAEBV_Locinfo@1@@Z PROC ; std::time_get<wchar_t,std::istreambuf_iterator<wchar_t,std::char_traits<wchar_t> > >::_Getvals<wchar_t>, COMDAT

; 176  :     void __CLR_OR_THIS_CALL _Getvals(_Elem2, const _Locinfo& _Lobj) { // get values

$LN5:
  00000	4c 89 44 24 18	 mov	 QWORD PTR [rsp+24], r8
  00005	66 89 54 24 10	 mov	 WORD PTR [rsp+16], dx
  0000a	48 89 4c 24 08	 mov	 QWORD PTR [rsp+8], rcx
  0000f	55		 push	 rbp
  00010	56		 push	 rsi
  00011	57		 push	 rdi
  00012	48 81 ec 30 01
	00 00		 sub	 rsp, 304		; 00000130H
  00019	48 8d 6c 24 20	 lea	 rbp, QWORD PTR [rsp+32]
  0001e	48 8b fc	 mov	 rdi, rsp
  00021	b9 4c 00 00 00	 mov	 ecx, 76			; 0000004cH
  00026	b8 cc cc cc cc	 mov	 eax, -858993460		; ccccccccH
  0002b	f3 ab		 rep stosd
  0002d	48 8b 8c 24 58
	01 00 00	 mov	 rcx, QWORD PTR [rsp+344]
  00035	48 8d 0d 00 00
	00 00		 lea	 rcx, OFFSET FLAT:__FDACCCE4_xloctime
  0003c	e8 00 00 00 00	 call	 __CheckForDebuggerJustMyCode

; 177  :         _Cvt = _Lobj._Getcvt();

  00041	48 8d 95 c8 00
	00 00		 lea	 rdx, QWORD PTR $T1[rbp]
  00048	48 8b 8d 40 01
	00 00		 mov	 rcx, QWORD PTR _Lobj$[rbp]
  0004f	ff 15 00 00 00
	00		 call	 QWORD PTR __imp_?_Getcvt@_Locinfo@std@@QEBA?AU_Cvtvec@@XZ
  00055	48 8b 8d 30 01
	00 00		 mov	 rcx, QWORD PTR this$[rbp]
  0005c	48 8d 79 2c	 lea	 rdi, QWORD PTR [rcx+44]
  00060	48 8b f0	 mov	 rsi, rax
  00063	b9 2c 00 00 00	 mov	 ecx, 44			; 0000002cH
  00068	f3 a4		 rep movsb

; 178  : 
; 179  :         if (is_same_v<_Elem2, wchar_t>) {

  0006a	33 c0		 xor	 eax, eax
  0006c	83 f8 01	 cmp	 eax, 1
  0006f	74 5c		 je	 SHORT $LN2@Getvals

; 180  :             _Days = reinterpret_cast<const _Elem*>(_Maklocwcs(reinterpret_cast<const wchar_t*>(_Lobj._W_Getdays())));

  00071	48 8b 8d 40 01
	00 00		 mov	 rcx, QWORD PTR _Lobj$[rbp]
  00078	ff 15 00 00 00
	00		 call	 QWORD PTR __imp_?_W_Getdays@_Locinfo@std@@QEBAPEBGXZ
  0007e	48 8b c8	 mov	 rcx, rax
  00081	e8 00 00 00 00	 call	 ?_Maklocwcs@std@@YAPEA_WPEB_W@Z ; std::_Maklocwcs
  00086	48 8b 8d 30 01
	00 00		 mov	 rcx, QWORD PTR this$[rbp]
  0008d	48 89 41 10	 mov	 QWORD PTR [rcx+16], rax

; 181  :             _Months =

  00091	48 8b 8d 40 01
	00 00		 mov	 rcx, QWORD PTR _Lobj$[rbp]
  00098	ff 15 00 00 00
	00		 call	 QWORD PTR __imp_?_W_Getmonths@_Locinfo@std@@QEBAPEBGXZ
  0009e	48 8b c8	 mov	 rcx, rax
  000a1	e8 00 00 00 00	 call	 ?_Maklocwcs@std@@YAPEA_WPEB_W@Z ; std::_Maklocwcs
  000a6	48 8b 8d 30 01
	00 00		 mov	 rcx, QWORD PTR this$[rbp]
  000ad	48 89 41 18	 mov	 QWORD PTR [rcx+24], rax

; 182  :                 reinterpret_cast<const _Elem*>(_Maklocwcs(reinterpret_cast<const wchar_t*>(_Lobj._W_Getmonths())));
; 183  :             _Ampm = reinterpret_cast<const _Elem*>(_Maklocwcs(L":AM:am:PM:pm"));

  000b1	48 8d 0d 00 00
	00 00		 lea	 rcx, OFFSET FLAT:??_C@_1BK@MHIKGOKE@?$AA?3?$AAA?$AAM?$AA?3?$AAa?$AAm?$AA?3?$AAP?$AAM?$AA?3?$AAp?$AAm@
  000b8	e8 00 00 00 00	 call	 ?_Maklocwcs@std@@YAPEA_WPEB_W@Z ; std::_Maklocwcs
  000bd	48 8b 8d 30 01
	00 00		 mov	 rcx, QWORD PTR this$[rbp]
  000c4	48 89 41 20	 mov	 QWORD PTR [rcx+32], rax

; 184  :         } else {

  000c8	e9 a3 00 00 00	 jmp	 $LN3@Getvals
$LN2@Getvals:

; 185  :             _Days   = _Maklocstr(_Lobj._Getdays(), static_cast<_Elem*>(nullptr), _Cvt);

  000cd	48 8b 85 30 01
	00 00		 mov	 rax, QWORD PTR this$[rbp]
  000d4	48 83 c0 2c	 add	 rax, 44			; 0000002cH
  000d8	48 89 85 08 01
	00 00		 mov	 QWORD PTR tv85[rbp], rax
  000df	48 8b 8d 40 01
	00 00		 mov	 rcx, QWORD PTR _Lobj$[rbp]
  000e6	ff 15 00 00 00
	00		 call	 QWORD PTR __imp_?_Getdays@_Locinfo@std@@QEBAPEBDXZ
  000ec	48 8b 8d 08 01
	00 00		 mov	 rcx, QWORD PTR tv85[rbp]
  000f3	4c 8b c1	 mov	 r8, rcx
  000f6	33 d2		 xor	 edx, edx
  000f8	48 8b c8	 mov	 rcx, rax
  000fb	e8 00 00 00 00	 call	 ??$_Maklocstr@_W@std@@YAPEA_WPEBDPEA_WAEBU_Cvtvec@@@Z ; std::_Maklocstr<wchar_t>
  00100	48 8b 8d 30 01
	00 00		 mov	 rcx, QWORD PTR this$[rbp]
  00107	48 89 41 10	 mov	 QWORD PTR [rcx+16], rax

; 186  :             _Months = _Maklocstr(_Lobj._Getmonths(), static_cast<_Elem*>(nullptr), _Cvt);

  0010b	48 8b 85 30 01
	00 00		 mov	 rax, QWORD PTR this$[rbp]
  00112	48 83 c0 2c	 add	 rax, 44			; 0000002cH
  00116	48 89 85 08 01
	00 00		 mov	 QWORD PTR tv93[rbp], rax
  0011d	48 8b 8d 40 01
	00 00		 mov	 rcx, QWORD PTR _Lobj$[rbp]
  00124	ff 15 00 00 00
	00		 call	 QWORD PTR __imp_?_Getmonths@_Locinfo@std@@QEBAPEBDXZ
  0012a	48 8b 8d 08 01
	00 00		 mov	 rcx, QWORD PTR tv93[rbp]
  00131	4c 8b c1	 mov	 r8, rcx
  00134	33 d2		 xor	 edx, edx
  00136	48 8b c8	 mov	 rcx, rax
  00139	e8 00 00 00 00	 call	 ??$_Maklocstr@_W@std@@YAPEA_WPEBDPEA_WAEBU_Cvtvec@@@Z ; std::_Maklocstr<wchar_t>
  0013e	48 8b 8d 30 01
	00 00		 mov	 rcx, QWORD PTR this$[rbp]
  00145	48 89 41 18	 mov	 QWORD PTR [rcx+24], rax

; 187  :             _Ampm   = _Maklocstr(":AM:am:PM:pm", static_cast<_Elem*>(nullptr), _Cvt);

  00149	48 8b 85 30 01
	00 00		 mov	 rax, QWORD PTR this$[rbp]
  00150	48 83 c0 2c	 add	 rax, 44			; 0000002cH
  00154	4c 8b c0	 mov	 r8, rax
  00157	33 d2		 xor	 edx, edx
  00159	48 8d 0d 00 00
	00 00		 lea	 rcx, OFFSET FLAT:??_C@_0N@LPFKKEBD@?3AM?3am?3PM?3pm@
  00160	e8 00 00 00 00	 call	 ??$_Maklocstr@_W@std@@YAPEA_WPEBDPEA_WAEBU_Cvtvec@@@Z ; std::_Maklocstr<wchar_t>
  00165	48 8b 8d 30 01
	00 00		 mov	 rcx, QWORD PTR this$[rbp]
  0016c	48 89 41 20	 mov	 QWORD PTR [rcx+32], rax
$LN3@Getvals:

; 188  :         }
; 189  :     }

  00170	48 8d a5 10 01
	00 00		 lea	 rsp, QWORD PTR [rbp+272]
  00177	5f		 pop	 rdi
  00178	5e		 pop	 rsi
  00179	5d		 pop	 rbp
  0017a	c3		 ret	 0
??$_Getvals@_W@?$time_get@_WV?$istreambuf_iterator@_WU?$char_traits@_W@std@@@std@@@std@@IEAAX_WAEBV_Locinfo@1@@Z ENDP ; std::time_get<wchar_t,std::istreambuf_iterator<wchar_t,std::char_traits<wchar_t> > >::_Getvals<wchar_t>
_TEXT	ENDS
; Function compile flags: /Odtp /RTCsu /ZI
; File C:\Program Files (x86)\Microsoft Visual Studio\2019\Enterprise\VC\Tools\MSVC\14.27.29110\include\xloctime
;	COMDAT ??$_Getvals@_W@?$time_get@DV?$istreambuf_iterator@DU?$char_traits@D@std@@@std@@@std@@IEAAX_WAEBV_Locinfo@1@@Z
_TEXT	SEGMENT
$T1 = 200
tv93 = 264
tv85 = 264
this$ = 304
__formal$ = 312
_Lobj$ = 320
??$_Getvals@_W@?$time_get@DV?$istreambuf_iterator@DU?$char_traits@D@std@@@std@@@std@@IEAAX_WAEBV_Locinfo@1@@Z PROC ; std::time_get<char,std::istreambuf_iterator<char,std::char_traits<char> > >::_Getvals<wchar_t>, COMDAT

; 176  :     void __CLR_OR_THIS_CALL _Getvals(_Elem2, const _Locinfo& _Lobj) { // get values

$LN5:
  00000	4c 89 44 24 18	 mov	 QWORD PTR [rsp+24], r8
  00005	66 89 54 24 10	 mov	 WORD PTR [rsp+16], dx
  0000a	48 89 4c 24 08	 mov	 QWORD PTR [rsp+8], rcx
  0000f	55		 push	 rbp
  00010	56		 push	 rsi
  00011	57		 push	 rdi
  00012	48 81 ec 30 01
	00 00		 sub	 rsp, 304		; 00000130H
  00019	48 8d 6c 24 20	 lea	 rbp, QWORD PTR [rsp+32]
  0001e	48 8b fc	 mov	 rdi, rsp
  00021	b9 4c 00 00 00	 mov	 ecx, 76			; 0000004cH
  00026	b8 cc cc cc cc	 mov	 eax, -858993460		; ccccccccH
  0002b	f3 ab		 rep stosd
  0002d	48 8b 8c 24 58
	01 00 00	 mov	 rcx, QWORD PTR [rsp+344]
  00035	48 8d 0d 00 00
	00 00		 lea	 rcx, OFFSET FLAT:__FDACCCE4_xloctime
  0003c	e8 00 00 00 00	 call	 __CheckForDebuggerJustMyCode

; 177  :         _Cvt = _Lobj._Getcvt();

  00041	48 8d 95 c8 00
	00 00		 lea	 rdx, QWORD PTR $T1[rbp]
  00048	48 8b 8d 40 01
	00 00		 mov	 rcx, QWORD PTR _Lobj$[rbp]
  0004f	ff 15 00 00 00
	00		 call	 QWORD PTR __imp_?_Getcvt@_Locinfo@std@@QEBA?AU_Cvtvec@@XZ
  00055	48 8b 8d 30 01
	00 00		 mov	 rcx, QWORD PTR this$[rbp]
  0005c	48 8d 79 2c	 lea	 rdi, QWORD PTR [rcx+44]
  00060	48 8b f0	 mov	 rsi, rax
  00063	b9 2c 00 00 00	 mov	 ecx, 44			; 0000002cH
  00068	f3 a4		 rep movsb

; 178  : 
; 179  :         if (is_same_v<_Elem2, wchar_t>) {

  0006a	33 c0		 xor	 eax, eax
  0006c	83 f8 01	 cmp	 eax, 1
  0006f	74 5c		 je	 SHORT $LN2@Getvals

; 180  :             _Days = reinterpret_cast<const _Elem*>(_Maklocwcs(reinterpret_cast<const wchar_t*>(_Lobj._W_Getdays())));

  00071	48 8b 8d 40 01
	00 00		 mov	 rcx, QWORD PTR _Lobj$[rbp]
  00078	ff 15 00 00 00
	00		 call	 QWORD PTR __imp_?_W_Getdays@_Locinfo@std@@QEBAPEBGXZ
  0007e	48 8b c8	 mov	 rcx, rax
  00081	e8 00 00 00 00	 call	 ?_Maklocwcs@std@@YAPEA_WPEB_W@Z ; std::_Maklocwcs
  00086	48 8b 8d 30 01
	00 00		 mov	 rcx, QWORD PTR this$[rbp]
  0008d	48 89 41 10	 mov	 QWORD PTR [rcx+16], rax

; 181  :             _Months =

  00091	48 8b 8d 40 01
	00 00		 mov	 rcx, QWORD PTR _Lobj$[rbp]
  00098	ff 15 00 00 00
	00		 call	 QWORD PTR __imp_?_W_Getmonths@_Locinfo@std@@QEBAPEBGXZ
  0009e	48 8b c8	 mov	 rcx, rax
  000a1	e8 00 00 00 00	 call	 ?_Maklocwcs@std@@YAPEA_WPEB_W@Z ; std::_Maklocwcs
  000a6	48 8b 8d 30 01
	00 00		 mov	 rcx, QWORD PTR this$[rbp]
  000ad	48 89 41 18	 mov	 QWORD PTR [rcx+24], rax

; 182  :                 reinterpret_cast<const _Elem*>(_Maklocwcs(reinterpret_cast<const wchar_t*>(_Lobj._W_Getmonths())));
; 183  :             _Ampm = reinterpret_cast<const _Elem*>(_Maklocwcs(L":AM:am:PM:pm"));

  000b1	48 8d 0d 00 00
	00 00		 lea	 rcx, OFFSET FLAT:??_C@_1BK@MHIKGOKE@?$AA?3?$AAA?$AAM?$AA?3?$AAa?$AAm?$AA?3?$AAP?$AAM?$AA?3?$AAp?$AAm@
  000b8	e8 00 00 00 00	 call	 ?_Maklocwcs@std@@YAPEA_WPEB_W@Z ; std::_Maklocwcs
  000bd	48 8b 8d 30 01
	00 00		 mov	 rcx, QWORD PTR this$[rbp]
  000c4	48 89 41 20	 mov	 QWORD PTR [rcx+32], rax

; 184  :         } else {

  000c8	e9 a3 00 00 00	 jmp	 $LN3@Getvals
$LN2@Getvals:

; 185  :             _Days   = _Maklocstr(_Lobj._Getdays(), static_cast<_Elem*>(nullptr), _Cvt);

  000cd	48 8b 85 30 01
	00 00		 mov	 rax, QWORD PTR this$[rbp]
  000d4	48 83 c0 2c	 add	 rax, 44			; 0000002cH
  000d8	48 89 85 08 01
	00 00		 mov	 QWORD PTR tv85[rbp], rax
  000df	48 8b 8d 40 01
	00 00		 mov	 rcx, QWORD PTR _Lobj$[rbp]
  000e6	ff 15 00 00 00
	00		 call	 QWORD PTR __imp_?_Getdays@_Locinfo@std@@QEBAPEBDXZ
  000ec	48 8b 8d 08 01
	00 00		 mov	 rcx, QWORD PTR tv85[rbp]
  000f3	4c 8b c1	 mov	 r8, rcx
  000f6	33 d2		 xor	 edx, edx
  000f8	48 8b c8	 mov	 rcx, rax
  000fb	e8 00 00 00 00	 call	 ??$_Maklocstr@D@std@@YAPEADPEBDPEADAEBU_Cvtvec@@@Z ; std::_Maklocstr<char>
  00100	48 8b 8d 30 01
	00 00		 mov	 rcx, QWORD PTR this$[rbp]
  00107	48 89 41 10	 mov	 QWORD PTR [rcx+16], rax

; 186  :             _Months = _Maklocstr(_Lobj._Getmonths(), static_cast<_Elem*>(nullptr), _Cvt);

  0010b	48 8b 85 30 01
	00 00		 mov	 rax, QWORD PTR this$[rbp]
  00112	48 83 c0 2c	 add	 rax, 44			; 0000002cH
  00116	48 89 85 08 01
	00 00		 mov	 QWORD PTR tv93[rbp], rax
  0011d	48 8b 8d 40 01
	00 00		 mov	 rcx, QWORD PTR _Lobj$[rbp]
  00124	ff 15 00 00 00
	00		 call	 QWORD PTR __imp_?_Getmonths@_Locinfo@std@@QEBAPEBDXZ
  0012a	48 8b 8d 08 01
	00 00		 mov	 rcx, QWORD PTR tv93[rbp]
  00131	4c 8b c1	 mov	 r8, rcx
  00134	33 d2		 xor	 edx, edx
  00136	48 8b c8	 mov	 rcx, rax
  00139	e8 00 00 00 00	 call	 ??$_Maklocstr@D@std@@YAPEADPEBDPEADAEBU_Cvtvec@@@Z ; std::_Maklocstr<char>
  0013e	48 8b 8d 30 01
	00 00		 mov	 rcx, QWORD PTR this$[rbp]
  00145	48 89 41 18	 mov	 QWORD PTR [rcx+24], rax

; 187  :             _Ampm   = _Maklocstr(":AM:am:PM:pm", static_cast<_Elem*>(nullptr), _Cvt);

  00149	48 8b 85 30 01
	00 00		 mov	 rax, QWORD PTR this$[rbp]
  00150	48 83 c0 2c	 add	 rax, 44			; 0000002cH
  00154	4c 8b c0	 mov	 r8, rax
  00157	33 d2		 xor	 edx, edx
  00159	48 8d 0d 00 00
	00 00		 lea	 rcx, OFFSET FLAT:??_C@_0N@LPFKKEBD@?3AM?3am?3PM?3pm@
  00160	e8 00 00 00 00	 call	 ??$_Maklocstr@D@std@@YAPEADPEBDPEADAEBU_Cvtvec@@@Z ; std::_Maklocstr<char>
  00165	48 8b 8d 30 01
	00 00		 mov	 rcx, QWORD PTR this$[rbp]
  0016c	48 89 41 20	 mov	 QWORD PTR [rcx+32], rax
$LN3@Getvals:

; 188  :         }
; 189  :     }

  00170	48 8d a5 10 01
	00 00		 lea	 rsp, QWORD PTR [rbp+272]
  00177	5f		 pop	 rdi
  00178	5e		 pop	 rsi
  00179	5d		 pop	 rbp
  0017a	c3		 ret	 0
??$_Getvals@_W@?$time_get@DV?$istreambuf_iterator@DU?$char_traits@D@std@@@std@@@std@@IEAAX_WAEBV_Locinfo@1@@Z ENDP ; std::time_get<char,std::istreambuf_iterator<char,std::char_traits<char> > >::_Getvals<wchar_t>
_TEXT	ENDS
; Function compile flags: /Odtp /RTCsu /ZI
; File C:\Program Files (x86)\Microsoft Visual Studio\2019\Enterprise\VC\Tools\MSVC\14.27.29110\include\xlocale
;	COMDAT ??$_Maklocstr@D@std@@YAPEADPEBDPEADAEBU_Cvtvec@@@Z
_TEXT	SEGMENT
_Count$ = 8
_Ptrdest$ = 40
_Ptrnext$1 = 72
_Ptr$ = 320
__formal$ = 328
__formal$ = 336
??$_Maklocstr@D@std@@YAPEADPEBDPEADAEBU_Cvtvec@@@Z PROC	; std::_Maklocstr<char>, COMDAT

; 563  : _Elem* __CRTDECL _Maklocstr(const char* _Ptr, _Elem*, const _Locinfo::_Cvtvec&) {

$LN7:
  00000	4c 89 44 24 18	 mov	 QWORD PTR [rsp+24], r8
  00005	48 89 54 24 10	 mov	 QWORD PTR [rsp+16], rdx
  0000a	48 89 4c 24 08	 mov	 QWORD PTR [rsp+8], rcx
  0000f	55		 push	 rbp
  00010	57		 push	 rdi
  00011	48 81 ec 58 01
	00 00		 sub	 rsp, 344		; 00000158H
  00018	48 8d 6c 24 30	 lea	 rbp, QWORD PTR [rsp+48]
  0001d	48 8b fc	 mov	 rdi, rsp
  00020	b9 56 00 00 00	 mov	 ecx, 86			; 00000056H
  00025	b8 cc cc cc cc	 mov	 eax, -858993460		; ccccccccH
  0002a	f3 ab		 rep stosd
  0002c	48 8b 8c 24 78
	01 00 00	 mov	 rcx, QWORD PTR [rsp+376]
  00034	48 8d 0d 00 00
	00 00		 lea	 rcx, OFFSET FLAT:__A7748393_xlocale
  0003b	e8 00 00 00 00	 call	 __CheckForDebuggerJustMyCode

; 564  :     // convert C string to _Elem sequence using _Cvtvec
; 565  :     size_t _Count = _CSTD strlen(_Ptr) + 1;

  00040	48 8b 8d 40 01
	00 00		 mov	 rcx, QWORD PTR _Ptr$[rbp]
  00047	e8 00 00 00 00	 call	 strlen
  0004c	48 ff c0	 inc	 rax
  0004f	48 89 45 08	 mov	 QWORD PTR _Count$[rbp], rax

; 566  : 
; 567  :     _Elem* _Ptrdest = static_cast<_Elem*>(_calloc_dbg(_Count, sizeof(_Elem), _CRT_BLOCK, __FILE__, __LINE__));

  00053	c7 44 24 20 37
	02 00 00	 mov	 DWORD PTR [rsp+32], 567	; 00000237H
  0005b	4c 8d 0d 00 00
	00 00		 lea	 r9, OFFSET FLAT:??_C@_0GJ@OPFKIEFE@C?3?2Program?5Files?5?$CIx86?$CJ?2Microsof@
  00062	41 b8 02 00 00
	00		 mov	 r8d, 2
  00068	ba 01 00 00 00	 mov	 edx, 1
  0006d	48 8b 4d 08	 mov	 rcx, QWORD PTR _Count$[rbp]
  00071	ff 15 00 00 00
	00		 call	 QWORD PTR __imp__calloc_dbg
  00077	48 89 45 28	 mov	 QWORD PTR _Ptrdest$[rbp], rax

; 568  : 
; 569  :     if (!_Ptrdest) {

  0007b	48 83 7d 28 00	 cmp	 QWORD PTR _Ptrdest$[rbp], 0
  00080	75 05		 jne	 SHORT $LN5@Maklocstr

; 570  :         _Xbad_alloc();

  00082	e8 00 00 00 00	 call	 ?_Xbad_alloc@std@@YAXXZ	; std::_Xbad_alloc
$LN5@Maklocstr:

; 571  :     }
; 572  : 
; 573  :     for (_Elem* _Ptrnext = _Ptrdest; 0 < _Count; --_Count, ++_Ptrnext, ++_Ptr) {

  00087	48 8b 45 28	 mov	 rax, QWORD PTR _Ptrdest$[rbp]
  0008b	48 89 45 48	 mov	 QWORD PTR _Ptrnext$1[rbp], rax
  0008f	eb 27		 jmp	 SHORT $LN4@Maklocstr
$LN2@Maklocstr:
  00091	48 8b 45 08	 mov	 rax, QWORD PTR _Count$[rbp]
  00095	48 ff c8	 dec	 rax
  00098	48 89 45 08	 mov	 QWORD PTR _Count$[rbp], rax
  0009c	48 8b 45 48	 mov	 rax, QWORD PTR _Ptrnext$1[rbp]
  000a0	48 ff c0	 inc	 rax
  000a3	48 89 45 48	 mov	 QWORD PTR _Ptrnext$1[rbp], rax
  000a7	48 8b 85 40 01
	00 00		 mov	 rax, QWORD PTR _Ptr$[rbp]
  000ae	48 ff c0	 inc	 rax
  000b1	48 89 85 40 01
	00 00		 mov	 QWORD PTR _Ptr$[rbp], rax
$LN4@Maklocstr:
  000b8	48 83 7d 08 00	 cmp	 QWORD PTR _Count$[rbp], 0
  000bd	76 12		 jbe	 SHORT $LN3@Maklocstr

; 574  :         *_Ptrnext = static_cast<_Elem>(static_cast<unsigned char>(*_Ptr));

  000bf	48 8b 45 48	 mov	 rax, QWORD PTR _Ptrnext$1[rbp]
  000c3	48 8b 8d 40 01
	00 00		 mov	 rcx, QWORD PTR _Ptr$[rbp]
  000ca	0f b6 09	 movzx	 ecx, BYTE PTR [rcx]
  000cd	88 08		 mov	 BYTE PTR [rax], cl

; 575  :     }

  000cf	eb c0		 jmp	 SHORT $LN2@Maklocstr
$LN3@Maklocstr:

; 576  : 
; 577  :     return _Ptrdest;

  000d1	48 8b 45 28	 mov	 rax, QWORD PTR _Ptrdest$[rbp]
$LN6@Maklocstr:

; 578  : }

  000d5	48 8d a5 28 01
	00 00		 lea	 rsp, QWORD PTR [rbp+296]
  000dc	5f		 pop	 rdi
  000dd	5d		 pop	 rbp
  000de	c3		 ret	 0
??$_Maklocstr@D@std@@YAPEADPEBDPEADAEBU_Cvtvec@@@Z ENDP	; std::_Maklocstr<char>
_TEXT	ENDS
; Function compile flags: /Odtp /RTCsu /ZI
; File C:\Program Files (x86)\Microsoft Visual Studio\2019\Enterprise\VC\Tools\MSVC\14.27.29110\include\xlocnum
;	COMDAT ?_Maklocwcs@std@@YAPEA_WPEB_W@Z
_TEXT	SEGMENT
_Count$ = 8
_Ptrdest$ = 40
_Ptr$ = 288
?_Maklocwcs@std@@YAPEA_WPEB_W@Z PROC			; std::_Maklocwcs, COMDAT

; 90   : inline wchar_t* _Maklocwcs(const wchar_t* _Ptr) { // copy NTWCS to allocated storage

$LN4:
  00000	48 89 4c 24 08	 mov	 QWORD PTR [rsp+8], rcx
  00005	55		 push	 rbp
  00006	57		 push	 rdi
  00007	48 81 ec 38 01
	00 00		 sub	 rsp, 312		; 00000138H
  0000e	48 8d 6c 24 30	 lea	 rbp, QWORD PTR [rsp+48]
  00013	48 8b fc	 mov	 rdi, rsp
  00016	b9 4e 00 00 00	 mov	 ecx, 78			; 0000004eH
  0001b	b8 cc cc cc cc	 mov	 eax, -858993460		; ccccccccH
  00020	f3 ab		 rep stosd
  00022	48 8b 8c 24 58
	01 00 00	 mov	 rcx, QWORD PTR [rsp+344]
  0002a	48 8d 0d 00 00
	00 00		 lea	 rcx, OFFSET FLAT:__39F3E584_xlocnum
  00031	e8 00 00 00 00	 call	 __CheckForDebuggerJustMyCode

; 91   :     const size_t _Count = _CSTD wcslen(_Ptr) + 1;

  00036	48 8b 8d 20 01
	00 00		 mov	 rcx, QWORD PTR _Ptr$[rbp]
  0003d	ff 15 00 00 00
	00		 call	 QWORD PTR __imp_wcslen
  00043	48 ff c0	 inc	 rax
  00046	48 89 45 08	 mov	 QWORD PTR _Count$[rbp], rax

; 92   : 
; 93   :     wchar_t* _Ptrdest = static_cast<wchar_t*>(_calloc_dbg(_Count, sizeof(wchar_t), _CRT_BLOCK, __FILE__, __LINE__));

  0004a	8b 05 00 00 00
	00		 mov	 eax, DWORD PTR ?__LINE__Var@?0??_Maklocwcs@std@@YAPEA_WPEB_W@Z@4JA
  00050	83 c0 03	 add	 eax, 3
  00053	89 44 24 20	 mov	 DWORD PTR [rsp+32], eax
  00057	4c 8d 0d 00 00
	00 00		 lea	 r9, OFFSET FLAT:??_C@_0GJ@GMBHIGPF@C?3?2Program?5Files?5?$CIx86?$CJ?2Microsof@
  0005e	41 b8 02 00 00
	00		 mov	 r8d, 2
  00064	ba 02 00 00 00	 mov	 edx, 2
  00069	48 8b 4d 08	 mov	 rcx, QWORD PTR _Count$[rbp]
  0006d	ff 15 00 00 00
	00		 call	 QWORD PTR __imp__calloc_dbg
  00073	48 89 45 28	 mov	 QWORD PTR _Ptrdest$[rbp], rax

; 94   : 
; 95   :     if (!_Ptrdest) {

  00077	48 83 7d 28 00	 cmp	 QWORD PTR _Ptrdest$[rbp], 0
  0007c	75 05		 jne	 SHORT $LN2@Maklocwcs

; 96   :         _Xbad_alloc();

  0007e	e8 00 00 00 00	 call	 ?_Xbad_alloc@std@@YAXXZ	; std::_Xbad_alloc
$LN2@Maklocwcs:

; 97   :     }
; 98   : 
; 99   :     _CSTD wmemcpy(_Ptrdest, _Ptr, _Count);

  00083	4c 8b 45 08	 mov	 r8, QWORD PTR _Count$[rbp]
  00087	48 8b 95 20 01
	00 00		 mov	 rdx, QWORD PTR _Ptr$[rbp]
  0008e	48 8b 4d 28	 mov	 rcx, QWORD PTR _Ptrdest$[rbp]
  00092	e8 00 00 00 00	 call	 wmemcpy

; 100  :     return _Ptrdest;

  00097	48 8b 45 28	 mov	 rax, QWORD PTR _Ptrdest$[rbp]
$LN3@Maklocwcs:

; 101  : }

  0009b	48 8d a5 08 01
	00 00		 lea	 rsp, QWORD PTR [rbp+264]
  000a2	5f		 pop	 rdi
  000a3	5d		 pop	 rbp
  000a4	c3		 ret	 0
?_Maklocwcs@std@@YAPEA_WPEB_W@Z ENDP			; std::_Maklocwcs
_TEXT	ENDS
; Function compile flags: /Odtp /RTCsu /ZI
; File C:\Program Files (x86)\Microsoft Visual Studio\2019\Enterprise\VC\Tools\MSVC\14.27.29110\include\xlocale
;	COMDAT ??$_Maklocstr@_W@std@@YAPEA_WPEBDPEA_WAEBU_Cvtvec@@@Z
_TEXT	SEGMENT
_Count$ = 8
_Count1$ = 40
_Wchars$ = 72
_Ptr1$ = 104
_Bytes$ = 132
_Wc$ = 164
_Mbst1$ = 200
_Ptrdest$ = 232
_Ptrnext$ = 264
_Mbst2$ = 296
__$ArrayPad$ = 504
_Ptr$ = 544
__formal$ = 552
_Cvt$ = 560
??$_Maklocstr@_W@std@@YAPEA_WPEBDPEA_WAEBU_Cvtvec@@@Z PROC ; std::_Maklocstr<wchar_t>, COMDAT

; 581  : inline wchar_t* __CRTDECL _Maklocstr(const char* _Ptr, wchar_t*, const _Locinfo::_Cvtvec& _Cvt) {

$LN12:
  00000	4c 89 44 24 18	 mov	 QWORD PTR [rsp+24], r8
  00005	48 89 54 24 10	 mov	 QWORD PTR [rsp+16], rdx
  0000a	48 89 4c 24 08	 mov	 QWORD PTR [rsp+8], rcx
  0000f	55		 push	 rbp
  00010	57		 push	 rdi
  00011	48 81 ec 38 02
	00 00		 sub	 rsp, 568		; 00000238H
  00018	48 8d 6c 24 30	 lea	 rbp, QWORD PTR [rsp+48]
  0001d	48 8b fc	 mov	 rdi, rsp
  00020	b9 8e 00 00 00	 mov	 ecx, 142		; 0000008eH
  00025	b8 cc cc cc cc	 mov	 eax, -858993460		; ccccccccH
  0002a	f3 ab		 rep stosd
  0002c	48 8b 8c 24 58
	02 00 00	 mov	 rcx, QWORD PTR [rsp+600]
  00034	48 8b 05 00 00
	00 00		 mov	 rax, QWORD PTR __security_cookie
  0003b	48 33 c5	 xor	 rax, rbp
  0003e	48 89 85 f8 01
	00 00		 mov	 QWORD PTR __$ArrayPad$[rbp], rax
  00045	48 8d 0d 00 00
	00 00		 lea	 rcx, OFFSET FLAT:__A7748393_xlocale
  0004c	e8 00 00 00 00	 call	 __CheckForDebuggerJustMyCode

; 582  :     // convert C string to wchar_t sequence using _Cvtvec
; 583  :     size_t _Count;
; 584  :     size_t _Count1;
; 585  :     size_t _Wchars;
; 586  :     const char* _Ptr1;
; 587  :     int _Bytes;
; 588  :     wchar_t _Wc;
; 589  :     mbstate_t _Mbst1 = {};

  00051	48 8d 85 c8 00
	00 00		 lea	 rax, QWORD PTR _Mbst1$[rbp]
  00058	48 8b f8	 mov	 rdi, rax
  0005b	33 c0		 xor	 eax, eax
  0005d	b9 08 00 00 00	 mov	 ecx, 8
  00062	f3 aa		 rep stosb

; 590  : 
; 591  :     _Count1 = _CSTD strlen(_Ptr) + 1;

  00064	48 8b 8d 20 02
	00 00		 mov	 rcx, QWORD PTR _Ptr$[rbp]
  0006b	e8 00 00 00 00	 call	 strlen
  00070	48 ff c0	 inc	 rax
  00073	48 89 45 28	 mov	 QWORD PTR _Count1$[rbp], rax

; 592  :     for (_Count = _Count1, _Wchars = 0, _Ptr1 = _Ptr; 0 < _Count; _Count -= _Bytes, _Ptr1 += _Bytes, ++_Wchars) {

  00077	48 8b 45 28	 mov	 rax, QWORD PTR _Count1$[rbp]
  0007b	48 89 45 08	 mov	 QWORD PTR _Count$[rbp], rax
  0007f	48 c7 45 48 00
	00 00 00	 mov	 QWORD PTR _Wchars$[rbp], 0
  00087	48 8b 85 20 02
	00 00		 mov	 rax, QWORD PTR _Ptr$[rbp]
  0008e	48 89 45 68	 mov	 QWORD PTR _Ptr1$[rbp], rax
  00092	eb 35		 jmp	 SHORT $LN4@Maklocstr
$LN2@Maklocstr:
  00094	48 63 85 84 00
	00 00		 movsxd	 rax, DWORD PTR _Bytes$[rbp]
  0009b	48 8b 4d 08	 mov	 rcx, QWORD PTR _Count$[rbp]
  0009f	48 2b c8	 sub	 rcx, rax
  000a2	48 8b c1	 mov	 rax, rcx
  000a5	48 89 45 08	 mov	 QWORD PTR _Count$[rbp], rax
  000a9	48 63 85 84 00
	00 00		 movsxd	 rax, DWORD PTR _Bytes$[rbp]
  000b0	48 8b 4d 68	 mov	 rcx, QWORD PTR _Ptr1$[rbp]
  000b4	48 03 c8	 add	 rcx, rax
  000b7	48 8b c1	 mov	 rax, rcx
  000ba	48 89 45 68	 mov	 QWORD PTR _Ptr1$[rbp], rax
  000be	48 8b 45 48	 mov	 rax, QWORD PTR _Wchars$[rbp]
  000c2	48 ff c0	 inc	 rax
  000c5	48 89 45 48	 mov	 QWORD PTR _Wchars$[rbp], rax
$LN4@Maklocstr:
  000c9	48 83 7d 08 00	 cmp	 QWORD PTR _Count$[rbp], 0
  000ce	76 3a		 jbe	 SHORT $LN3@Maklocstr

; 593  :         if ((_Bytes = _Mbrtowc(&_Wc, _Ptr1, _Count, &_Mbst1, &_Cvt)) <= 0) {

  000d0	48 8b 85 30 02
	00 00		 mov	 rax, QWORD PTR _Cvt$[rbp]
  000d7	48 89 44 24 20	 mov	 QWORD PTR [rsp+32], rax
  000dc	4c 8d 8d c8 00
	00 00		 lea	 r9, QWORD PTR _Mbst1$[rbp]
  000e3	4c 8b 45 08	 mov	 r8, QWORD PTR _Count$[rbp]
  000e7	48 8b 55 68	 mov	 rdx, QWORD PTR _Ptr1$[rbp]
  000eb	48 8d 8d a4 00
	00 00		 lea	 rcx, QWORD PTR _Wc$[rbp]
  000f2	e8 00 00 00 00	 call	 _Mbrtowc
  000f7	89 85 84 00 00
	00		 mov	 DWORD PTR _Bytes$[rbp], eax
  000fd	83 bd 84 00 00
	00 00		 cmp	 DWORD PTR _Bytes$[rbp], 0
  00104	7f 02		 jg	 SHORT $LN8@Maklocstr

; 594  :             break;

  00106	eb 02		 jmp	 SHORT $LN3@Maklocstr
$LN8@Maklocstr:

; 595  :         }
; 596  :     }

  00108	eb 8a		 jmp	 SHORT $LN2@Maklocstr
$LN3@Maklocstr:

; 597  : 
; 598  :     ++_Wchars; // count terminating nul

  0010a	48 8b 45 48	 mov	 rax, QWORD PTR _Wchars$[rbp]
  0010e	48 ff c0	 inc	 rax
  00111	48 89 45 48	 mov	 QWORD PTR _Wchars$[rbp], rax

; 599  : 
; 600  :     wchar_t* _Ptrdest = static_cast<wchar_t*>(_calloc_dbg(_Wchars, sizeof(wchar_t), _CRT_BLOCK, __FILE__, __LINE__));

  00115	c7 44 24 20 58
	02 00 00	 mov	 DWORD PTR [rsp+32], 600	; 00000258H
  0011d	4c 8d 0d 00 00
	00 00		 lea	 r9, OFFSET FLAT:??_C@_0GJ@OPFKIEFE@C?3?2Program?5Files?5?$CIx86?$CJ?2Microsof@
  00124	41 b8 02 00 00
	00		 mov	 r8d, 2
  0012a	ba 02 00 00 00	 mov	 edx, 2
  0012f	48 8b 4d 48	 mov	 rcx, QWORD PTR _Wchars$[rbp]
  00133	ff 15 00 00 00
	00		 call	 QWORD PTR __imp__calloc_dbg
  00139	48 89 85 e8 00
	00 00		 mov	 QWORD PTR _Ptrdest$[rbp], rax

; 601  : 
; 602  :     if (!_Ptrdest) {

  00140	48 83 bd e8 00
	00 00 00	 cmp	 QWORD PTR _Ptrdest$[rbp], 0
  00148	75 05		 jne	 SHORT $LN9@Maklocstr

; 603  :         _Xbad_alloc();

  0014a	e8 00 00 00 00	 call	 ?_Xbad_alloc@std@@YAXXZ	; std::_Xbad_alloc
$LN9@Maklocstr:

; 604  :     }
; 605  : 
; 606  :     wchar_t* _Ptrnext = _Ptrdest;

  0014f	48 8b 85 e8 00
	00 00		 mov	 rax, QWORD PTR _Ptrdest$[rbp]
  00156	48 89 85 08 01
	00 00		 mov	 QWORD PTR _Ptrnext$[rbp], rax

; 607  :     mbstate_t _Mbst2  = {};

  0015d	48 8d 85 28 01
	00 00		 lea	 rax, QWORD PTR _Mbst2$[rbp]
  00164	48 8b f8	 mov	 rdi, rax
  00167	33 c0		 xor	 eax, eax
  00169	b9 08 00 00 00	 mov	 ecx, 8
  0016e	f3 aa		 rep stosb

; 608  : 
; 609  :     for (; 0 < _Wchars; _Count -= _Bytes, _Ptr += _Bytes, --_Wchars, ++_Ptrnext) {

  00170	eb 4d		 jmp	 SHORT $LN7@Maklocstr
$LN5@Maklocstr:
  00172	48 63 85 84 00
	00 00		 movsxd	 rax, DWORD PTR _Bytes$[rbp]
  00179	48 8b 4d 08	 mov	 rcx, QWORD PTR _Count$[rbp]
  0017d	48 2b c8	 sub	 rcx, rax
  00180	48 8b c1	 mov	 rax, rcx
  00183	48 89 45 08	 mov	 QWORD PTR _Count$[rbp], rax
  00187	48 63 85 84 00
	00 00		 movsxd	 rax, DWORD PTR _Bytes$[rbp]
  0018e	48 8b 8d 20 02
	00 00		 mov	 rcx, QWORD PTR _Ptr$[rbp]
  00195	48 03 c8	 add	 rcx, rax
  00198	48 8b c1	 mov	 rax, rcx
  0019b	48 89 85 20 02
	00 00		 mov	 QWORD PTR _Ptr$[rbp], rax
  001a2	48 8b 45 48	 mov	 rax, QWORD PTR _Wchars$[rbp]
  001a6	48 ff c8	 dec	 rax
  001a9	48 89 45 48	 mov	 QWORD PTR _Wchars$[rbp], rax
  001ad	48 8b 85 08 01
	00 00		 mov	 rax, QWORD PTR _Ptrnext$[rbp]
  001b4	48 83 c0 02	 add	 rax, 2
  001b8	48 89 85 08 01
	00 00		 mov	 QWORD PTR _Ptrnext$[rbp], rax
$LN7@Maklocstr:
  001bf	48 83 7d 48 00	 cmp	 QWORD PTR _Wchars$[rbp], 0
  001c4	76 40		 jbe	 SHORT $LN6@Maklocstr

; 610  :         if ((_Bytes = _Mbrtowc(_Ptrnext, _Ptr, _Count1, &_Mbst2, &_Cvt)) <= 0) {

  001c6	48 8b 85 30 02
	00 00		 mov	 rax, QWORD PTR _Cvt$[rbp]
  001cd	48 89 44 24 20	 mov	 QWORD PTR [rsp+32], rax
  001d2	4c 8d 8d 28 01
	00 00		 lea	 r9, QWORD PTR _Mbst2$[rbp]
  001d9	4c 8b 45 28	 mov	 r8, QWORD PTR _Count1$[rbp]
  001dd	48 8b 95 20 02
	00 00		 mov	 rdx, QWORD PTR _Ptr$[rbp]
  001e4	48 8b 8d 08 01
	00 00		 mov	 rcx, QWORD PTR _Ptrnext$[rbp]
  001eb	e8 00 00 00 00	 call	 _Mbrtowc
  001f0	89 85 84 00 00
	00		 mov	 DWORD PTR _Bytes$[rbp], eax
  001f6	83 bd 84 00 00
	00 00		 cmp	 DWORD PTR _Bytes$[rbp], 0
  001fd	7f 02		 jg	 SHORT $LN10@Maklocstr

; 611  :             break;

  001ff	eb 05		 jmp	 SHORT $LN6@Maklocstr
$LN10@Maklocstr:

; 612  :         }
; 613  :     }

  00201	e9 6c ff ff ff	 jmp	 $LN5@Maklocstr
$LN6@Maklocstr:

; 614  : 
; 615  :     *_Ptrnext = L'\0';

  00206	33 c0		 xor	 eax, eax
  00208	48 8b 8d 08 01
	00 00		 mov	 rcx, QWORD PTR _Ptrnext$[rbp]
  0020f	66 89 01	 mov	 WORD PTR [rcx], ax

; 616  : 
; 617  :     return _Ptrdest;

  00212	48 8b 85 e8 00
	00 00		 mov	 rax, QWORD PTR _Ptrdest$[rbp]
$LN11@Maklocstr:

; 618  : }

  00219	48 8b f8	 mov	 rdi, rax
  0021c	48 8d 4d d0	 lea	 rcx, QWORD PTR [rbp-48]
  00220	48 8d 15 00 00
	00 00		 lea	 rdx, OFFSET FLAT:??$_Maklocstr@_W@std@@YAPEA_WPEBDPEA_WAEBU_Cvtvec@@@Z$rtcFrameData
  00227	e8 00 00 00 00	 call	 _RTC_CheckStackVars
  0022c	48 8b c7	 mov	 rax, rdi
  0022f	48 8b 8d f8 01
	00 00		 mov	 rcx, QWORD PTR __$ArrayPad$[rbp]
  00236	48 33 cd	 xor	 rcx, rbp
  00239	e8 00 00 00 00	 call	 __security_check_cookie
  0023e	48 8d a5 08 02
	00 00		 lea	 rsp, QWORD PTR [rbp+520]
  00245	5f		 pop	 rdi
  00246	5d		 pop	 rbp
  00247	c3		 ret	 0
??$_Maklocstr@_W@std@@YAPEA_WPEBDPEA_WAEBU_Cvtvec@@@Z ENDP ; std::_Maklocstr<wchar_t>
_TEXT	ENDS
; Function compile flags: /Odtp /RTCsu /ZI
; File C:\Program Files (x86)\Windows Kits\10\Include\10.0.18362.0\ucrt\wchar.h
;	COMDAT wmemcpy
_TEXT	SEGMENT
_S1$ = 224
_S2$ = 232
_N$ = 240
wmemcpy	PROC						; COMDAT

; 230  :     {

$LN4:
  00000	4c 89 44 24 18	 mov	 QWORD PTR [rsp+24], r8
  00005	48 89 54 24 10	 mov	 QWORD PTR [rsp+16], rdx
  0000a	48 89 4c 24 08	 mov	 QWORD PTR [rsp+8], rcx
  0000f	55		 push	 rbp
  00010	57		 push	 rdi
  00011	48 81 ec e8 00
	00 00		 sub	 rsp, 232		; 000000e8H
  00018	48 8d 6c 24 20	 lea	 rbp, QWORD PTR [rsp+32]
  0001d	48 8b fc	 mov	 rdi, rsp
  00020	b9 3a 00 00 00	 mov	 ecx, 58			; 0000003aH
  00025	b8 cc cc cc cc	 mov	 eax, -858993460		; ccccccccH
  0002a	f3 ab		 rep stosd
  0002c	48 8b 8c 24 08
	01 00 00	 mov	 rcx, QWORD PTR [rsp+264]
  00034	48 8d 0d 00 00
	00 00		 lea	 rcx, OFFSET FLAT:__534C724A_wchar@h
  0003b	e8 00 00 00 00	 call	 __CheckForDebuggerJustMyCode

; 231  :         #pragma warning(push)
; 232  :         #pragma warning(disable : 4995 4996 6386)
; 233  :         return (wchar_t*)memcpy(_S1, _S2, _N*sizeof(wchar_t));

  00040	48 8b 85 f0 00
	00 00		 mov	 rax, QWORD PTR _N$[rbp]
  00047	48 d1 e0	 shl	 rax, 1
  0004a	4c 8b c0	 mov	 r8, rax
  0004d	48 8b 95 e8 00
	00 00		 mov	 rdx, QWORD PTR _S2$[rbp]
  00054	48 8b 8d e0 00
	00 00		 mov	 rcx, QWORD PTR _S1$[rbp]
  0005b	e8 00 00 00 00	 call	 memcpy

; 234  :         #pragma warning(pop)
; 235  :     }

  00060	48 8d a5 c8 00
	00 00		 lea	 rsp, QWORD PTR [rbp+200]
  00067	5f		 pop	 rdi
  00068	5d		 pop	 rbp
  00069	c3		 ret	 0
wmemcpy	ENDP
_TEXT	ENDS
; Function compile flags: /Odtp /RTCsu /ZI
; File C:\Users\Skvortsoff\OneDrive\Документы\GitHub\course_LP\course_LP\SA.cpp
;	COMDAT ?__empty_global_delete@@YAXPEAX_K@Z
_TEXT	SEGMENT
__formal$ = 224
__formal$ = 232
?__empty_global_delete@@YAXPEAX_K@Z PROC		; __empty_global_delete, COMDAT

$LN4:
  00000	48 89 54 24 10	 mov	 QWORD PTR [rsp+16], rdx
  00005	48 89 4c 24 08	 mov	 QWORD PTR [rsp+8], rcx
  0000a	55		 push	 rbp
  0000b	57		 push	 rdi
  0000c	48 81 ec e8 00
	00 00		 sub	 rsp, 232		; 000000e8H
  00013	48 8d 6c 24 20	 lea	 rbp, QWORD PTR [rsp+32]
  00018	48 8b fc	 mov	 rdi, rsp
  0001b	b9 3a 00 00 00	 mov	 ecx, 58			; 0000003aH
  00020	b8 cc cc cc cc	 mov	 eax, -858993460		; ccccccccH
  00025	f3 ab		 rep stosd
  00027	48 8b 8c 24 08
	01 00 00	 mov	 rcx, QWORD PTR [rsp+264]
  0002f	48 8d 0d 00 00
	00 00		 lea	 rcx, OFFSET FLAT:__26391CEF_SA@cpp
  00036	e8 00 00 00 00	 call	 __CheckForDebuggerJustMyCode
  0003b	48 8d a5 c8 00
	00 00		 lea	 rsp, QWORD PTR [rbp+200]
  00042	5f		 pop	 rdi
  00043	5d		 pop	 rbp
  00044	c3		 ret	 0
?__empty_global_delete@@YAXPEAX_K@Z ENDP		; __empty_global_delete
_TEXT	ENDS
; Function compile flags: /Odtp /RTCsu /ZI
; File C:\Users\Skvortsoff\OneDrive\Документы\GitHub\course_LP\course_LP\SA.cpp
;	COMDAT ?__empty_global_delete@@YAXPEAX@Z
_TEXT	SEGMENT
__formal$ = 224
?__empty_global_delete@@YAXPEAX@Z PROC			; __empty_global_delete, COMDAT

$LN4:
  00000	48 89 4c 24 08	 mov	 QWORD PTR [rsp+8], rcx
  00005	55		 push	 rbp
  00006	57		 push	 rdi
  00007	48 81 ec e8 00
	00 00		 sub	 rsp, 232		; 000000e8H
  0000e	48 8d 6c 24 20	 lea	 rbp, QWORD PTR [rsp+32]
  00013	48 8b fc	 mov	 rdi, rsp
  00016	b9 3a 00 00 00	 mov	 ecx, 58			; 0000003aH
  0001b	b8 cc cc cc cc	 mov	 eax, -858993460		; ccccccccH
  00020	f3 ab		 rep stosd
  00022	48 8b 8c 24 08
	01 00 00	 mov	 rcx, QWORD PTR [rsp+264]
  0002a	48 8d 0d 00 00
	00 00		 lea	 rcx, OFFSET FLAT:__26391CEF_SA@cpp
  00031	e8 00 00 00 00	 call	 __CheckForDebuggerJustMyCode
  00036	48 8d a5 c8 00
	00 00		 lea	 rsp, QWORD PTR [rbp+200]
  0003d	5f		 pop	 rdi
  0003e	5d		 pop	 rbp
  0003f	c3		 ret	 0
?__empty_global_delete@@YAXPEAX@Z ENDP			; __empty_global_delete
_TEXT	ENDS
END
